MODULE Linux arm 5301B75B57334EB28B180ABDBAFF57DB0 Geode.android32.so
INFO CODE_ID 5BB701533357B24E8B180ABDBAFF57DB3754C905
INFO GENERATOR mozilla/dump_syms 2.2.2
PUBLIC 238580 0 __on_dlclose
PUBLIC 238594 0 __on_dlclose_late
PUBLIC 238598 0 __atexit_handler_wrapper
PUBLIC 2385a4 0 atexit
PUBLIC 2385c4 0 pthread_atfork
FUNC 2385d4 2a 0 SHA3::SHA3(SHA3::Bits)
FUNC 2385fe 12 0 SHA3::reset()
FUNC 238610 8c8 0 SHA3::processBlock(void const*)
FUNC 238ed8 b2 0 SHA3::add(void const*, unsigned int)
FUNC 238f8a 46 0 SHA3::processBuffer()
FUNC 238fd0 230 0 SHA3::getHash()
FUNC 239200 36 0 SHA3::operator()(void const*, unsigned int)
FUNC 239236 40 0 SHA3::operator()(std::__ndk1::basic_string<char, std::__ndk1::char_traits<char>, std::__ndk1::allocator<char> > const&)
FUNC 239278 130 0 calculateSHA3_256(ghc::filesystem::path const&)
FUNC 2393a8 b0 0 std::__ndk1::basic_ifstream<char, std::__ndk1::char_traits<char> >::basic_ifstream(std::__ndk1::basic_string<char, std::__ndk1::char_traits<char>, std::__ndk1::allocator<char> > const&, unsigned int)
FUNC 239458 44 0 std::__ndk1::basic_ifstream<char, std::__ndk1::char_traits<char> >::~basic_ifstream()
FUNC 23949c 10c 0 calculateSHA256(ghc::filesystem::path const&)
FUNC 2395a8 234 0 calculateSHA256Text(ghc::filesystem::path const&)
FUNC 2397dc a 0 calculateHash(ghc::filesystem::path const&)
PUBLIC 2397e7 0 __clang_call_terminate
FUNC 2397f4 10 0 std::__ndk1::basic_string<char, std::__ndk1::char_traits<char>, std::__ndk1::allocator<char> >::__throw_length_error[abi:v170000]() const
FUNC 239804 a4 0 std::__ndk1::basic_string<char, std::__ndk1::char_traits<char>, std::__ndk1::allocator<char> >::__shrink_or_extend[abi:v170000](unsigned int)
FUNC 2398a8 38 0 std::__ndk1::__throw_length_error[abi:v170000](char const*)
FUNC 2398e0 18 0 std::length_error::length_error[abi:v170000](char const*)
FUNC 2398f8 4c 0 {virtual override thunk({virtual offset(0, -12)}, std::__ndk1::basic_ifstream<char, std::__ndk1::char_traits<char> >::~basic_ifstream())}
FUNC 239944 4c 0 std::__ndk1::basic_ifstream<char, std::__ndk1::char_traits<char> >::~basic_ifstream()
FUNC 239990 50 0 {virtual override thunk({virtual offset(0, -12)}, std::__ndk1::basic_ifstream<char, std::__ndk1::char_traits<char> >::~basic_ifstream())}
FUNC 2399e0 84 0 std::__ndk1::basic_filebuf<char, std::__ndk1::char_traits<char> >::~basic_filebuf()
FUNC 239a64 10 0 std::__ndk1::basic_filebuf<char, std::__ndk1::char_traits<char> >::~basic_filebuf()
FUNC 239a74 b0 0 std::__ndk1::basic_filebuf<char, std::__ndk1::char_traits<char> >::imbue(std::__ndk1::locale const&)
FUNC 239b24 b6 0 std::__ndk1::basic_filebuf<char, std::__ndk1::char_traits<char> >::setbuf(char*, int)
FUNC 239bda 8e 0 std::__ndk1::basic_filebuf<char, std::__ndk1::char_traits<char> >::seekoff(long long, std::__ndk1::ios_base::seekdir, unsigned int)
FUNC 239c68 66 0 std::__ndk1::basic_filebuf<char, std::__ndk1::char_traits<char> >::seekpos(std::__ndk1::fpos<mbstate_t>, unsigned int)
FUNC 239cd0 144 0 std::__ndk1::basic_filebuf<char, std::__ndk1::char_traits<char> >::sync()
FUNC 239e14 1b0 0 std::__ndk1::basic_filebuf<char, std::__ndk1::char_traits<char> >::underflow()
FUNC 239fc4 44 0 std::__ndk1::basic_filebuf<char, std::__ndk1::char_traits<char> >::pbackfail(int)
FUNC 23a008 158 0 std::__ndk1::basic_filebuf<char, std::__ndk1::char_traits<char> >::overflow(int)
FUNC 23a160 28 0 std::__ndk1::__throw_bad_cast[abi:v170000]()
FUNC 23a188 10 0 std::__ndk1::vector<unsigned char, std::__ndk1::allocator<unsigned char> >::__throw_length_error[abi:v170000]() const
FUNC 23a198 dc 0 std::__ndk1::basic_filebuf<char, std::__ndk1::char_traits<char> >::basic_filebuf()
FUNC 23a274 10c 0 std::__ndk1::basic_filebuf<char, std::__ndk1::char_traits<char> >::open(char const*, unsigned int)
FUNC 23a380 230 0 picosha2::impl::hash256_impl<std::__ndk1::istreambuf_iterator<char, std::__ndk1::char_traits<char> >, std::__ndk1::__wrap_iter<unsigned char*> >(std::__ndk1::istreambuf_iterator<char, std::__ndk1::char_traits<char> >, std::__ndk1::istreambuf_iterator<char, std::__ndk1::char_traits<char> >, std::__ndk1::__wrap_iter<unsigned char*>, std::__ndk1::__wrap_iter<unsigned char*>, int, std::__ndk1::input_iterator_tag)
FUNC 23a5b0 e4 0 picosha2::hash256_one_by_one::process<std::__ndk1::__wrap_iter<unsigned char*> >(std::__ndk1::__wrap_iter<unsigned char*>, std::__ndk1::__wrap_iter<unsigned char*>)
FUNC 23a694 f4 0 picosha2::hash256_one_by_one::finish()
FUNC 23a788 19c 0 picosha2::hash256_one_by_one::get_hash_bytes<std::__ndk1::__wrap_iter<unsigned char*> >(std::__ndk1::__wrap_iter<unsigned char*>, std::__ndk1::__wrap_iter<unsigned char*>) const
FUNC 23a924 184 0 picosha2::detail::hash256_block<unsigned long*, std::__ndk1::__wrap_iter<unsigned char*> >(unsigned long*, std::__ndk1::__wrap_iter<unsigned char*>, std::__ndk1::__wrap_iter<unsigned char*>)
FUNC 23aaa8 ea 0 std::__ndk1::back_insert_iterator<std::__ndk1::vector<unsigned char, std::__ndk1::allocator<unsigned char> > >::operator=[abi:v170000](unsigned char const&)
FUNC 23ab94 184 0 picosha2::detail::hash256_block<unsigned long*, unsigned char*>(unsigned long*, unsigned char*, unsigned char*)
FUNC 23ad18 138 0 picosha2::bytes_to_hex_string<std::__ndk1::__wrap_iter<unsigned char*> >(std::__ndk1::__wrap_iter<unsigned char*>, std::__ndk1::__wrap_iter<unsigned char*>, std::__ndk1::basic_string<char, std::__ndk1::char_traits<char>, std::__ndk1::allocator<char> >&)
FUNC 23ae50 e0 0 picosha2::output_hex<std::__ndk1::__wrap_iter<unsigned char*> >(std::__ndk1::__wrap_iter<unsigned char*>, std::__ndk1::__wrap_iter<unsigned char*>, std::__ndk1::basic_ostream<char, std::__ndk1::char_traits<char> >&)
FUNC 23af30 6c 0 std::__ndk1::basic_ostringstream<char, std::__ndk1::char_traits<char>, std::__ndk1::allocator<char> >::~basic_ostringstream()
FUNC 23af9c 70 0 std::__ndk1::basic_ostringstream<char, std::__ndk1::char_traits<char>, std::__ndk1::allocator<char> >::~basic_ostringstream()
FUNC 23b00c 70 0 {virtual override thunk({virtual offset(0, -12)}, std::__ndk1::basic_ostringstream<char, std::__ndk1::char_traits<char>, std::__ndk1::allocator<char> >::~basic_ostringstream())}
FUNC 23b07c 78 0 {virtual override thunk({virtual offset(0, -12)}, std::__ndk1::basic_ostringstream<char, std::__ndk1::char_traits<char>, std::__ndk1::allocator<char> >::~basic_ostringstream())}
FUNC 23b0f4 2c 0 std::__ndk1::basic_stringbuf<char, std::__ndk1::char_traits<char>, std::__ndk1::allocator<char> >::~basic_stringbuf()
FUNC 23b120 30 0 std::__ndk1::basic_stringbuf<char, std::__ndk1::char_traits<char>, std::__ndk1::allocator<char> >::~basic_stringbuf()
FUNC 23b150 f2 0 std::__ndk1::basic_stringbuf<char, std::__ndk1::char_traits<char>, std::__ndk1::allocator<char> >::seekoff(long long, std::__ndk1::ios_base::seekdir, unsigned int)
FUNC 23b242 22 0 std::__ndk1::basic_stringbuf<char, std::__ndk1::char_traits<char>, std::__ndk1::allocator<char> >::seekpos(std::__ndk1::fpos<mbstate_t>, unsigned int)
FUNC 23b264 2e 0 std::__ndk1::basic_stringbuf<char, std::__ndk1::char_traits<char>, std::__ndk1::allocator<char> >::underflow()
FUNC 23b292 58 0 std::__ndk1::basic_stringbuf<char, std::__ndk1::char_traits<char>, std::__ndk1::allocator<char> >::pbackfail(int)
FUNC 23b2ea 11c 0 std::__ndk1::basic_stringbuf<char, std::__ndk1::char_traits<char>, std::__ndk1::allocator<char> >::overflow(int)
FUNC 23b406 142 0 std::__ndk1::basic_stringbuf<char, std::__ndk1::char_traits<char>, std::__ndk1::allocator<char> >::str() const
FUNC 23b548 100 0 std::__ndk1::getline[abi:v170000]<char, std::__ndk1::char_traits<char>, std::__ndk1::allocator<char> >(std::__ndk1::basic_istream<char, std::__ndk1::char_traits<char> >, std::__ndk1::basic_string<std::__ndk1::basic_istream, char, std::__ndk1::allocator<char> >&, std::__ndk1::basic_istream)
FUNC 23b648 c8 0 picosha2::hash256_one_by_one::process<std::__ndk1::__wrap_iter<char*> >(std::__ndk1::__wrap_iter<char*>, std::__ndk1::__wrap_iter<char*>)
FUNC 23b710 fe 0 std::__ndk1::__copy_loop<std::__ndk1::_ClassicAlgPolicy>::operator()[abi:v170000]<char*, std::__ndk1::__copy_loop<std::__ndk1::_ClassicAlgPolicy>::operator()[abi:v170000], std::__ndk1::back_insert_iterator<std::__ndk1::vector<unsigned char, std::__ndk1::allocator<unsigned char> > > >(std::__ndk1::pair, std::__ndk1::__copy_loop<std::__ndk1::_ClassicAlgPolicy>::operator()[abi:v170000], char*) const
FUNC 23b810 40 0 gd::string::string()
FUNC 23b850 60 0 gd::string::string(gd::string const&)
FUNC 23b8b0 50 0 gd::string::operator std::__ndk1::basic_string_view<char, std::__ndk1::char_traits<char> >() const
FUNC 23b900 4c 0 gd::string::string(char const*)
FUNC 23b94c 50 0 gd::string::string(std::__ndk1::basic_string<char, std::__ndk1::char_traits<char>, std::__ndk1::allocator<char> > const&)
FUNC 23b99c 48 0 gd::string::~string()
FUNC 23b9e4 40 0 gd::string::clear()
FUNC 23ba24 68 0 gd::string::operator=(gd::string const&)
FUNC 23ba8c 74 0 gd::string::operator=(gd::string&&)
FUNC 23bb00 50 0 gd::string::operator=(char const*)
FUNC 23bb50 54 0 gd::string::operator=(std::__ndk1::basic_string<char, std::__ndk1::char_traits<char>, std::__ndk1::allocator<char> > const&)
FUNC 23bba4 80 0 gd::string::at(unsigned int)
FUNC 23bc24 38 0 gd::string::size() const
FUNC 23bc5c 18 0 std::out_of_range::out_of_range[abi:v170000](char const*)
FUNC 23bc74 4 0 gd::string::at(unsigned int) const
FUNC 23bc78 3c 0 gd::string::operator[](unsigned int)
FUNC 23bcb4 3c 0 gd::string::operator[](unsigned int) const
FUNC 23bcf0 38 0 gd::string::data()
FUNC 23bd28 38 0 gd::string::data() const
FUNC 23bd60 38 0 gd::string::c_str() const
FUNC 23bd98 38 0 gd::string::capacity() const
FUNC 23bdd0 3c 0 gd::string::empty() const
FUNC 23be0c 84 0 gd::string::operator==(gd::string const&) const
FUNC 23be90 74 0 gd::string::operator==(std::__ndk1::basic_string_view<char, std::__ndk1::char_traits<char> >) const
FUNC 23bf04 7c 0 gd::string::operator<=>(std::__ndk1::basic_string_view<char, std::__ndk1::char_traits<char> >) const
FUNC 23bf80 8c 0 gd::string::operator<=>(gd::string const&) const
FUNC 23c00c 88 0 gd::string::operator std::__ndk1::basic_string<char, std::__ndk1::char_traits<char>, std::__ndk1::allocator<char> >() const
FUNC 23c094 50 0 cocos2d::AnchorLayoutOptions::create()
FUNC 23c0e4 4 0 cocos2d::AnchorLayoutOptions::getAnchor() const
FUNC 23c0e8 a 0 cocos2d::AnchorLayoutOptions::getOffset() const
FUNC 23c0f2 4 0 cocos2d::AnchorLayoutOptions::setAnchor(cocos2d::Anchor)
FUNC 23c0f6 a 0 cocos2d::AnchorLayoutOptions::setOffset(cocos2d::CCPoint const&)
FUNC 23c100 50 0 cocos2d::AnchorLayout::create()
FUNC 23c150 1c8 0 cocos2d::AnchorLayout::apply(cocos2d::CCNode*)
FUNC 23c318 16 0 geode::cocos::CCArrayExt<cocos2d::CCNode*>::~CCArrayExt()
FUNC 23c32e 1a 0 cocos2d::AnchorLayout::getSizeHint(cocos2d::CCNode*) const
FUNC 23c348 b0 0 cocos2d::AnchorLayout::getAnchoredPosition(cocos2d::CCNode*, cocos2d::Anchor, cocos2d::CCPoint const&)
FUNC 23c3f8 4 0 cocos2d::CCCopying::copyWithZone(cocos2d::CCZone*)
FUNC 23c3fc 10 0 cocos2d::AnchorLayout::~AnchorLayout()
FUNC 23c40c 2 0 cocos2d::CCObject::update(float)
FUNC 23c40e 10 0 cocos2d::AnchorLayoutOptions::~AnchorLayoutOptions()
FUNC 23c420 8c 0 geode::cast::traverseTypeinfoFor(void*, geode::cast::ClassTypeinfoType const*, char const*)
FUNC 23c4ac 48 0 cocos2d::AxisLayout::nextGap(cocos2d::AxisLayoutOptions const*, cocos2d::AxisLayoutOptions const*) const
FUNC 23c4f4 a 0 cocos2d::AxisLayoutOptions::getNextGap() const
FUNC 23c4fe a 0 cocos2d::AxisLayoutOptions::getPrevGap() const
FUNC 23c508 20 0 cocos2d::AxisLayout::shouldAutoScale(cocos2d::AxisLayoutOptions const*) const
FUNC 23c528 4 0 cocos2d::AxisLayoutOptions::getAutoScale() const
FUNC 23c52c 12c 0 cocos2d::AxisLayout::minScaleForPrio(cocos2d::CCArray*, int) const
FUNC 23c658 128 0 cocos2d::AxisLayout::maxScaleForPrio(cocos2d::CCArray*, int) const
FUNC 23c780 3e8 0 cocos2d::AxisLayout::fitInRow(cocos2d::CCNode*, cocos2d::CCArray*, std::__ndk1::pair<int, int> const&, bool, float, float, int) const
FUNC 23cb68 12c 0 nodeAxis(cocos2d::CCNode*, cocos2d::Axis, float)
FUNC 23cc94 3e8 0 cocos2d::AxisLayout::fitInRow(cocos2d::CCNode*, cocos2d::CCArray*, std::__ndk1::pair<int, int> const&, bool, float, float, int) const::$_0::operator()(cocos2d::CCArray*) const
FUNC 23d07c 7c 0 cocos2d::AxisLayout::canTryScalingDown(cocos2d::CCArray*, int&, float&, float, std::__ndk1::pair<int, int> const&) const
FUNC 23d0f8 934 0 cocos2d::AxisLayout::tryFitLayout(cocos2d::CCNode*, cocos2d::CCArray*, std::__ndk1::pair<int, int> const&, bool, float, float, int, unsigned int) const
FUNC 23da2c 298 0 cocos2d::AxisLayout::Row::accountSpacers(cocos2d::Axis, float, float)
FUNC 23dcc4 16 0 geode::cocos::CCArrayExt<cocos2d::AxisLayout::Row*>::~CCArrayExt()
FUNC 23dcdc 27c 0 cocos2d::AxisLayout::apply(cocos2d::CCNode*)
FUNC 23df58 4 0 cocos2d::AxisLayoutOptions::getScalePriority() const
FUNC 23df5c f0 0 cocos2d::AxisLayout::getSizeHint(cocos2d::CCNode*) const
FUNC 23e04c 4c 0 cocos2d::AxisLayout::AxisLayout(cocos2d::Axis)
FUNC 23e098 4 0 cocos2d::AxisLayout::getAxis() const
FUNC 23e09c 4 0 cocos2d::AxisLayout::getCrossAxisAlignment() const
FUNC 23e0a0 4 0 cocos2d::AxisLayout::getCrossAxisLineAlignment() const
FUNC 23e0a4 4 0 cocos2d::AxisLayout::getAxisAlignment() const
FUNC 23e0a8 4 0 cocos2d::AxisLayout::getGap() const
FUNC 23e0ac 6 0 cocos2d::AxisLayout::getAxisReverse() const
FUNC 23e0b2 6 0 cocos2d::AxisLayout::getCrossAxisReverse() const
FUNC 23e0b8 6 0 cocos2d::AxisLayout::getAutoScale() const
FUNC 23e0be 6 0 cocos2d::AxisLayout::getGrowCrossAxis() const
FUNC 23e0c4 6 0 cocos2d::AxisLayout::getCrossAxisOverflow() const
FUNC 23e0ca a 0 cocos2d::AxisLayout::getAutoGrowAxis() const
FUNC 23e0d4 4 0 cocos2d::AxisLayout::setAxis(cocos2d::Axis)
FUNC 23e0d8 4 0 cocos2d::AxisLayout::setCrossAxisAlignment(cocos2d::AxisAlignment)
FUNC 23e0dc 4 0 cocos2d::AxisLayout::setCrossAxisLineAlignment(cocos2d::AxisAlignment)
FUNC 23e0e0 4 0 cocos2d::AxisLayout::setAxisAlignment(cocos2d::AxisAlignment)
FUNC 23e0e4 4 0 cocos2d::AxisLayout::setGap(float)
FUNC 23e0e8 6 0 cocos2d::AxisLayout::setAxisReverse(bool)
FUNC 23e0ee 6 0 cocos2d::AxisLayout::setCrossAxisReverse(bool)
FUNC 23e0f4 6 0 cocos2d::AxisLayout::setCrossAxisOverflow(bool)
FUNC 23e0fa 6 0 cocos2d::AxisLayout::setAutoScale(bool)
FUNC 23e100 6 0 cocos2d::AxisLayout::setGrowCrossAxis(bool)
FUNC 23e106 8 0 cocos2d::AxisLayout::setAutoGrowAxis(std::__ndk1::optional<float>)
FUNC 23e10e 28 0 cocos2d::AxisLayout::create(cocos2d::Axis)
FUNC 23e140 64 0 cocos2d::RowLayout::RowLayout()
FUNC 23e1a4 24 0 cocos2d::RowLayout::create()
FUNC 23e1c8 48 0 cocos2d::ColumnLayout::ColumnLayout()
FUNC 23e210 24 0 cocos2d::ColumnLayout::create()
FUNC 23e234 88 0 cocos2d::AxisLayoutOptions::create()
FUNC 23e2bc 4 0 cocos2d::AxisLayoutOptions::getMaxScale() const
FUNC 23e2c0 4 0 cocos2d::AxisLayoutOptions::getMinScale() const
FUNC 23e2c4 4 0 cocos2d::AxisLayoutOptions::getRelativeScale() const
FUNC 23e2c8 a 0 cocos2d::AxisLayoutOptions::getLength() const
FUNC 23e2d2 6 0 cocos2d::AxisLayoutOptions::getBreakLine() const
FUNC 23e2d8 6 0 cocos2d::AxisLayoutOptions::getSameLine() const
FUNC 23e2de 4 0 cocos2d::AxisLayoutOptions::setMaxScale(float)
FUNC 23e2e2 4 0 cocos2d::AxisLayoutOptions::setMinScale(float)
FUNC 23e2e6 4 0 cocos2d::AxisLayoutOptions::setRelativeScale(float)
FUNC 23e2ea 4 0 cocos2d::AxisLayoutOptions::setAutoScale(std::__ndk1::optional<bool>)
FUNC 23e2ee 8 0 cocos2d::AxisLayoutOptions::setLength(std::__ndk1::optional<float>)
FUNC 23e2f6 8 0 cocos2d::AxisLayoutOptions::setPrevGap(std::__ndk1::optional<float>)
FUNC 23e2fe 8 0 cocos2d::AxisLayoutOptions::setNextGap(std::__ndk1::optional<float>)
FUNC 23e306 6 0 cocos2d::AxisLayoutOptions::setBreakLine(bool)
FUNC 23e30c 6 0 cocos2d::AxisLayoutOptions::setSameLine(bool)
FUNC 23e312 4 0 cocos2d::AxisLayoutOptions::setScalePriority(int)
FUNC 23e316 10 0 cocos2d::AxisLayout::~AxisLayout()
FUNC 23e326 10 0 cocos2d::RowLayout::~RowLayout()
FUNC 23e336 10 0 cocos2d::ColumnLayout::~ColumnLayout()
FUNC 23e346 10 0 cocos2d::AxisLayout::Row::~Row()
FUNC 23e358 10 0 std::__ndk1::vector<cocos2d::SpacerNode*, std::__ndk1::allocator<cocos2d::SpacerNode*> >::__throw_length_error[abi:v170000]() const
FUNC 23e368 28 0 std::__throw_bad_array_new_length([abi:v170000], void)
FUNC 23e390 10 0 cocos2d::AxisLayoutOptions::~AxisLayoutOptions()
FUNC 23e3a0 10 0 cocos2d::CCArray::firstObject()
FUNC 23e3b0 8 0 cocos2d::CCArray::removeFirstObject(bool)
FUNC 23e3b8 1a 0 cocos2d::CCArray::shallowCopy()
FUNC 23e3d4 40 0 std::__ndk1::vector<cocos2d::CCTexturePack, std::__ndk1::allocator<cocos2d::CCTexturePack> >::~vector[abi:v170000]()
FUNC 23e414 3e 0 std::__ndk1::vector<std::__ndk1::basic_string<char, std::__ndk1::char_traits<char>, std::__ndk1::allocator<char> >, std::__ndk1::allocator<std::__ndk1::basic_string<char, std::__ndk1::char_traits<char>, std::__ndk1::allocator<char> > > >::~vector[abi:v170000]()
FUNC 23e454 3b0 0 cocos2d::CCFileUtils::addTexturePack(cocos2d::CCTexturePack const&)
FUNC 23e804 4a 0 cocos2d::CCFileUtils::addTexturePack(cocos2d::CCTexturePack const&)::$_0::~$_0()
FUNC 23e850 260 0 std::__ndk1::vector<cocos2d::CCTexturePack, std::__ndk1::allocator<cocos2d::CCTexturePack> >::insert(std::__ndk1::__wrap_iter<cocos2d::CCTexturePack const*>, cocos2d::CCTexturePack const&)
FUNC 23eab0 3e0 0 cocos2d::CCFileUtils::updatePaths()
FUNC 23ee90 2e0 0 cocos2d::CCFileUtils::removeTexturePack(std::__ndk1::basic_string<char, std::__ndk1::char_traits<char>, std::__ndk1::allocator<char> > const&)
FUNC 23f170 c4 0 cocos2d::CCFileUtils::addPriorityPath(char const*)
FUNC 23f234 270 0 std::__ndk1::vector<std::__ndk1::basic_string<char, std::__ndk1::char_traits<char>, std::__ndk1::allocator<char> >, std::__ndk1::allocator<std::__ndk1::basic_string<char, std::__ndk1::char_traits<char>, std::__ndk1::allocator<char> > > >::insert(std::__ndk1::__wrap_iter<std::__ndk1::basic_string<char, std::__ndk1::char_traits<char>, std::__ndk1::allocator<char> > const*>, std::__ndk1::basic_string<char, std::__ndk1::char_traits<char>, std::__ndk1::allocator<char> >&&)
FUNC 23f4a4 58 0 __cxx_global_var_init.2
FUNC 23f4fc 20 0 geode::modifier::ModifyBase<geode::modifier::ModifyDerive<FileUtilsUpdatePaths, cocos2d::CCFileUtils> >::~ModifyBase()
FUNC 23f51c 90 0 std::__ndk1::vector<cocos2d::CCTexturePack, std::__ndk1::allocator<cocos2d::CCTexturePack> >::__destroy_vector::operator()[abi:v170000]()
FUNC 23f5ac a8 0 std::__ndk1::vector<std::__ndk1::basic_string<char, std::__ndk1::char_traits<char>, std::__ndk1::allocator<char> >, std::__ndk1::allocator<std::__ndk1::basic_string<char, std::__ndk1::char_traits<char>, std::__ndk1::allocator<char> > > >::vector(std::__ndk1::vector<std::__ndk1::basic_string<char, std::__ndk1::char_traits<char>, std::__ndk1::allocator<char> >, std::__ndk1::allocator<std::__ndk1::basic_string<char, std::__ndk1::char_traits<char>, std::__ndk1::allocator<char> > > > const&)
FUNC 23f654 4e 0 std::__ndk1::__exception_guard<std::__ndk1::vector<std::__ndk1::basic_string<char, std::__ndk1::char_traits<char>, std::__ndk1::allocator<char> >, std::__ndk1::allocator<std::__ndk1::basic_string<char, std::__ndk1::char_traits<char>, std::__ndk1::allocator<char> > > >::__destroy_vector>::~__exception_guard[abi:v170000]()
FUNC 23f6a4 10 0 std::__ndk1::vector<std::__ndk1::basic_string<char, std::__ndk1::char_traits<char>, std::__ndk1::allocator<char> >, std::__ndk1::allocator<std::__ndk1::basic_string<char, std::__ndk1::char_traits<char>, std::__ndk1::allocator<char> > > >::__throw_length_error[abi:v170000]() const
FUNC 23f6b4 c8 0 std::__ndk1::__uninitialized_allocator_copy[abi:v170000]<std::__ndk1::allocator<std::__ndk1::basic_string<char, std::__ndk1::char_traits<char>, std::__ndk1::__uninitialized_allocator_copy[abi:v170000]<char> > >, std::__ndk1::__uninitialized_allocator_copy[abi:v170000]<char>*, std::__ndk1::allocator<std::__ndk1::basic_string<char, std::__ndk1::char_traits<char>, std::__ndk1::__uninitialized_allocator_copy[abi:v170000]<char> > >, std::__ndk1::allocator<std::__ndk1::basic_string<char, std::__ndk1::char_traits<char>, std::__ndk1::__uninitialized_allocator_copy[abi:v170000]<char> > > >(std::__ndk1::allocator<std::__ndk1::basic_string<char, std::__ndk1::char_traits<char>, std::__ndk1::__uninitialized_allocator_copy[abi:v170000]<char> > >&, std::__ndk1::__uninitialized_allocator_copy[abi:v170000]<char>*, std::__ndk1::allocator<std::__ndk1::basic_string<char, std::__ndk1::char_traits<char>, std::__ndk1::__uninitialized_allocator_copy[abi:v170000]<char> > >, std::__ndk1::__uninitialized_allocator_copy[abi:v170000]<char>*)
FUNC 23f77c 3a 0 std::__ndk1::__exception_guard<std::__ndk1::_AllocatorDestroyRangeReverse<std::__ndk1::allocator<std::__ndk1::basic_string<char, std::__ndk1::char_traits<char>, std::__ndk1::allocator<char> > >, std::__ndk1::basic_string<char, std::__ndk1::char_traits<char>, std::__ndk1::allocator<char> >*> >::~__exception_guard[abi:v170000]()
FUNC 23f7b8 15c 0 std::__ndk1::__split_buffer<cocos2d::CCTexturePack, std::__ndk1::allocator<cocos2d::CCTexturePack>&>::push_back[abi:v170000](cocos2d::CCTexturePack const&)
FUNC 23f914 7c 0 std::__ndk1::__split_buffer<cocos2d::CCTexturePack, std::__ndk1::allocator<cocos2d::CCTexturePack>&>::~__split_buffer()
FUNC 23f990 80 0 std::__ndk1::construct_at[abi:v170000]<cocos2d::CCTexturePack, cocos2d const&, cocos2d*>(cocos2d::CCTexturePack, cocos2d const&)
FUNC 23fa10 c0 0 std::__ndk1::__move_backward_loop<std::__ndk1::_ClassicAlgPolicy>::operator()[abi:v170000]<cocos2d::CCTexturePack*, cocos2d::CCTexturePack, cocos2d::CCTexturePack>(std::__ndk1::pair, cocos2d::CCTexturePack, cocos2d::CCTexturePack*) const
FUNC 23fad0 14c 0 std::__ndk1::vector<std::__ndk1::basic_string<char, std::__ndk1::char_traits<char>, std::__ndk1::allocator<char> >, std::__ndk1::allocator<std::__ndk1::basic_string<char, std::__ndk1::char_traits<char>, std::__ndk1::allocator<char> > > >::assign<std::__ndk1::basic_string<char, std::__ndk1::char_traits<char>, std::__ndk1::allocator<char> >*, 0>(std::__ndk1::basic_string<char, std::__ndk1::char_traits<char>, std::__ndk1::allocator<char> >*, std::__ndk1::basic_string<char, std::__ndk1::char_traits<char>, std::__ndk1::allocator<char> >*)
FUNC 23fc1c 10 0 std::__ndk1::vector<cocos2d::CCTexturePack, std::__ndk1::allocator<cocos2d::CCTexturePack> >::__throw_length_error[abi:v170000]() const
FUNC 23fc2c a0 0 std::__ndk1::__move_loop<std::__ndk1::_ClassicAlgPolicy>::operator()[abi:v170000]<cocos2d::CCTexturePack*, cocos2d::CCTexturePack, cocos2d::CCTexturePack>(std::__ndk1::pair, cocos2d::CCTexturePack, cocos2d::CCTexturePack*) const
FUNC 23fccc 180 0 std::__ndk1::__split_buffer<std::__ndk1::basic_string<char, std::__ndk1::char_traits<char>, std::__ndk1::allocator<char> >, std::__ndk1::allocator<std::__ndk1::basic_string<char, std::__ndk1::char_traits<char>, std::__ndk1::allocator<char> > >&>::push_back(std::__ndk1::basic_string<char, std::__ndk1::char_traits<char>, std::__ndk1::allocator<char> >&&)
FUNC 23fe4c 3c 0 std::__ndk1::__split_buffer<std::__ndk1::basic_string<char, std::__ndk1::char_traits<char>, std::__ndk1::allocator<char> >, std::__ndk1::allocator<std::__ndk1::basic_string<char, std::__ndk1::char_traits<char>, std::__ndk1::allocator<char> > >&>::~__split_buffer()
FUNC 23fe88 10a 0 std::__ndk1::vector<std::__ndk1::basic_string<char, std::__ndk1::char_traits<char>, std::__ndk1::allocator<char> >, std::__ndk1::allocator<std::__ndk1::basic_string<char, std::__ndk1::char_traits<char>, std::__ndk1::allocator<char> > > >::__push_back_slow_path<std::__ndk1::basic_string<char, std::__ndk1::char_traits<char>, std::__ndk1::allocator<char> > >(std::__ndk1::basic_string<char, std::__ndk1::char_traits<char>, std::__ndk1::allocator<char> >&&)
FUNC 23ff94 b8 0 std::__ndk1::vector<cocos2d::CCTexturePack, std::__ndk1::allocator<cocos2d::CCTexturePack> >::erase(std::__ndk1::__wrap_iter<cocos2d::CCTexturePack const*>, std::__ndk1::__wrap_iter<cocos2d::CCTexturePack const*>)
FUNC 24004c 310 0 geode::modifier::ModifyBase<geode::modifier::ModifyDerive<FileUtilsUpdatePaths, cocos2d::CCFileUtils> >::ModifyBase()
FUNC 24035c 448 0 geode::modifier::ModifyDerive<FileUtilsUpdatePaths, cocos2d::CCFileUtils>::apply()
FUNC 2407a4 3a 0 std::__ndk1::shared_ptr<geode::Hook>::~shared_ptr[abi:v170000]()
FUNC 2407de 2 0 geode::modifier::ModifyBase<geode::modifier::ModifyDerive<FileUtilsUpdatePaths, cocos2d::CCFileUtils> >::apply()
FUNC 2407e0 1ac 0 std::__ndk1::vector<std::__ndk1::basic_string<char, std::__ndk1::char_traits<char>, std::__ndk1::allocator<char> >, std::__ndk1::allocator<std::__ndk1::basic_string<char, std::__ndk1::char_traits<char>, std::__ndk1::allocator<char> > > >::__push_back_slow_path<std::__ndk1::basic_string<char, std::__ndk1::char_traits<char>, std::__ndk1::allocator<char> > const&>(std::__ndk1::basic_string<char, std::__ndk1::char_traits<char>, std::__ndk1::allocator<char> > const&)
FUNC 24098c a4 0 std::__ndk1::__tree<std::__ndk1::__value_type<std::__ndk1::basic_string<char, std::__ndk1::char_traits<char>, std::__ndk1::allocator<char> >, std::__ndk1::shared_ptr<geode::Hook> >, std::__ndk1::__map_value_compare<std::__ndk1::basic_string<char, std::__ndk1::char_traits<char>, std::__ndk1::allocator<char> >, std::__ndk1::__value_type<std::__ndk1::basic_string<char, std::__ndk1::char_traits<char>, std::__ndk1::allocator<char> >, std::__ndk1::shared_ptr<geode::Hook> >, std::__ndk1::less<std::__ndk1::basic_string<char, std::__ndk1::char_traits<char>, std::__ndk1::allocator<char> > >, true>, std::__ndk1::allocator<std::__ndk1::__value_type<std::__ndk1::basic_string<char, std::__ndk1::char_traits<char>, std::__ndk1::allocator<char> >, std::__ndk1::shared_ptr<geode::Hook> > > >::find<std::__ndk1::basic_string<char, std::__ndk1::char_traits<char>, std::__ndk1::allocator<char> > >(std::__ndk1::basic_string<char, std::__ndk1::char_traits<char>, std::__ndk1::allocator<char> > const&)
FUNC 240a30 82 0 std::__ndk1::__tree<std::__ndk1::__value_type<std::__ndk1::basic_string<char, std::__ndk1::char_traits<char>, std::__ndk1::allocator<char> >, std::__ndk1::shared_ptr<geode::Hook> >, std::__ndk1::__map_value_compare<std::__ndk1::basic_string<char, std::__ndk1::char_traits<char>, std::__ndk1::allocator<char> >, std::__ndk1::__value_type<std::__ndk1::basic_string<char, std::__ndk1::char_traits<char>, std::__ndk1::allocator<char> >, std::__ndk1::shared_ptr<geode::Hook> >, std::__ndk1::less<std::__ndk1::basic_string<char, std::__ndk1::char_traits<char>, std::__ndk1::allocator<char> > >, true>, std::__ndk1::allocator<std::__ndk1::__value_type<std::__ndk1::basic_string<char, std::__ndk1::char_traits<char>, std::__ndk1::allocator<char> >, std::__ndk1::shared_ptr<geode::Hook> > > >::erase(std::__ndk1::__tree_const_iterator<std::__ndk1::__value_type<std::__ndk1::basic_string<char, std::__ndk1::char_traits<char>, std::__ndk1::allocator<char> >, std::__ndk1::shared_ptr<geode::Hook> >, std::__ndk1::__tree_node<std::__ndk1::__value_type<std::__ndk1::basic_string<char, std::__ndk1::char_traits<char>, std::__ndk1::allocator<char> >, std::__ndk1::shared_ptr<geode::Hook> >, void*>*, int>)
FUNC 240ab2 27c 0 std::__ndk1::__tree_remove[abi:v170000]<std::__ndk1::__tree_node_base<void*>*>(std::__ndk1::__tree_node_base<void*>*, std::__ndk1::__tree_node_base<void*>*)
FUNC 240d2e 5e 0 std::__ndk1::__tree<std::__ndk1::__value_type<std::__ndk1::basic_string<char, std::__ndk1::char_traits<char>, std::__ndk1::allocator<char> >, std::__ndk1::shared_ptr<geode::Hook> >, std::__ndk1::__map_value_compare<std::__ndk1::basic_string<char, std::__ndk1::char_traits<char>, std::__ndk1::allocator<char> >, std::__ndk1::__value_type<std::__ndk1::basic_string<char, std::__ndk1::char_traits<char>, std::__ndk1::allocator<char> >, std::__ndk1::shared_ptr<geode::Hook> >, std::__ndk1::less<std::__ndk1::basic_string<char, std::__ndk1::char_traits<char>, std::__ndk1::allocator<char> > >, true>, std::__ndk1::allocator<std::__ndk1::__value_type<std::__ndk1::basic_string<char, std::__ndk1::char_traits<char>, std::__ndk1::allocator<char> >, std::__ndk1::shared_ptr<geode::Hook> > > >::destroy(std::__ndk1::__tree_node<std::__ndk1::__value_type<std::__ndk1::basic_string<char, std::__ndk1::char_traits<char>, std::__ndk1::allocator<char> >, std::__ndk1::shared_ptr<geode::Hook> >, void*>*)
FUNC 240d8c 44 0 geode::addresser::getVirtual<gd::string (cocos2d::CCFileUtils::*)(char const*, bool)>(gd::string (cocos2d::CCFileUtils::*)(char const*, bool))
FUNC 240dd0 b0 0 geode::Hook::create<gd::string (*)(FileUtilsUpdatePaths*, char const*, bool)>(void*, gd::string (*)(FileUtilsUpdatePaths*, char const*, bool), std::__ndk1::basic_string<char, std::__ndk1::char_traits<char>, std::__ndk1::allocator<char> > const&, tulip::hook::TulipConvention, tulip::hook::HookMetadata const&)
FUNC 240e80 60 0 geode::modifier::AsStaticFunction_fullPathForFilename<FileUtilsUpdatePaths, gd::string (FileUtilsUpdatePaths::*)(char const*, bool)>::Impl<gd::string (FileUtilsUpdatePaths::*)(char const*, bool)>::function(FileUtilsUpdatePaths*, char const*, bool)
FUNC 240ee0 ac 0 geode::Hook::create<cocos2d::CCFileUtils* (*)()>(void*, cocos2d::CCFileUtils* (*)(), std::__ndk1::basic_string<char, std::__ndk1::char_traits<char>, std::__ndk1::allocator<char> > const&, tulip::hook::TulipConvention, tulip::hook::HookMetadata const&)
FUNC 240f8c 28 0 geode::modifier::AsStaticFunction_sharedFileUtils<FileUtilsUpdatePaths, cocos2d::CCFileUtils* (*)()>::Impl<cocos2d::CCFileUtils* (*)()>::function()
FUNC 240fb4 64 0 geode::addresser::Addresser::cachedInstance<cocos2d::CCFileUtils>()
FUNC 241018 a4 0 cocos2d::CCFileUtils::CCFileUtils(geode::ZeroConstructorType, void*)
FUNC 2410bc 2a 0 gd::vector<gd::string>::~vector()
FUNC 2410e8 e8 0 gd::map<gd::string, gd::string>::map(std::__ndk1::map<gd::string, gd::string, std::__ndk1::less<gd::string>, std::__ndk1::allocator<std::__ndk1::pair<gd::string const, gd::string> > >)
FUNC 2411d0 a2 0 gd::map<gd::string, gd::string>::insert_pair(std::__ndk1::pair<gd::string, gd::string> const&)
FUNC 241272 9a 0 gd::map<gd::string, gd::string>::insert(geode::stl::_rb_tree_node<std::__ndk1::pair<gd::string, gd::string> >*, geode::stl::_rb_tree_node<std::__ndk1::pair<gd::string, gd::string> >*, std::__ndk1::pair<gd::string, gd::string> const&)
FUNC 24130c 17a 0 geode::stl::_rb_insert_rebalance(bool, geode::stl::_rb_tree_base*, geode::stl::_rb_tree_base*, geode::stl::_rb_tree_base&)
FUNC 241486 36 0 std::__ndk1::__tree<std::__ndk1::__value_type<gd::string, gd::string>, std::__ndk1::__map_value_compare<gd::string, std::__ndk1::__value_type<gd::string, gd::string>, std::__ndk1::less<gd::string>, true>, std::__ndk1::allocator<std::__ndk1::__value_type<gd::string, gd::string> > >::destroy(std::__ndk1::__tree_node<std::__ndk1::__value_type<gd::string, gd::string>, void*>*)
FUNC 2414bc 98 0 tulip::hook::AbstractFunction::from<gd::string, FileUtilsUpdatePaths*, char const*, bool>(gd::string (*)(FileUtilsUpdatePaths*, char const*, bool))
FUNC 241554 3a 0 std::__ndk1::shared_ptr<tulip::hook::CallingConvention>::~shared_ptr[abi:v170000]()
FUNC 24158e 46 0 tulip::hook::HandlerMetadata::~HandlerMetadata()
FUNC 2415d4 a4 0 std::__ndk1::__tree<std::__ndk1::__value_type<std::__ndk1::basic_string<char, std::__ndk1::char_traits<char>, std::__ndk1::allocator<char> >, std::__ndk1::shared_ptr<geode::Hook> >, std::__ndk1::__map_value_compare<std::__ndk1::basic_string<char, std::__ndk1::char_traits<char>, std::__ndk1::allocator<char> >, std::__ndk1::__value_type<std::__ndk1::basic_string<char, std::__ndk1::char_traits<char>, std::__ndk1::allocator<char> >, std::__ndk1::shared_ptr<geode::Hook> >, std::__ndk1::less<std::__ndk1::basic_string<char, std::__ndk1::char_traits<char>, std::__ndk1::allocator<char> > >, true>, std::__ndk1::allocator<std::__ndk1::__value_type<std::__ndk1::basic_string<char, std::__ndk1::char_traits<char>, std::__ndk1::allocator<char> >, std::__ndk1::shared_ptr<geode::Hook> > > >::__find_equal<std::__ndk1::basic_string<char, std::__ndk1::char_traits<char>, std::__ndk1::allocator<char> > >(std::__ndk1::__tree_end_node<std::__ndk1::__tree_node_base<void*>*>*&, std::__ndk1::basic_string<char, std::__ndk1::char_traits<char>, std::__ndk1::allocator<char> > const&)
FUNC 241678 148 0 std::__ndk1::__tree_balance_after_insert[abi:v170000]<std::__ndk1::__tree_node_base<void*>*>(std::__ndk1::__tree_node_base<void*>*, std::__ndk1::__tree_node_base<void*>*)
FUNC 2417c0 3c 0 _GLOBAL__sub_I_CCFileUtils.cpp
FUNC 2417fc 5c 0 cocos2d::CopySizeLayout::create()
FUNC 241858 28 0 cocos2d::CopySizeLayout::~CopySizeLayout()
FUNC 241880 14 0 cocos2d::CopySizeLayout::~CopySizeLayout()
FUNC 241894 10 0 cocos2d::CopySizeLayout::add(cocos2d::CCNode*)
FUNC 2418a4 12 0 cocos2d::CopySizeLayout::remove(cocos2d::CCNode*)
FUNC 2418b8 158 0 cocos2d::CopySizeLayout::apply(cocos2d::CCNode*)
FUNC 241a10 1a 0 cocos2d::CopySizeLayout::getSizeHint(cocos2d::CCNode*) const
FUNC 241a2a 12 0 cocos2d::CCKeyboardDispatcher::get()
FUNC 241a3c 4 0 cocos2d::CCDirector::get()
FUNC 241a40 12 0 cocos2d::CCTouchDispatcher::get()
FUNC 241a52 4 0 cocos2d::CCApplication::get()
FUNC 241a56 e 0 cocos2d::CCEGLView::get()
FUNC 241a64 4 0 cocos2d::CCFileUtils::get()
FUNC 241a68 4 0 cocos2d::CCSpriteFrameCache::get()
FUNC 241a6c 4 0 cocos2d::CCTextureCache::get()
FUNC 241a70 e 0 cocos2d::CCScene::get()
FUNC 241a7e 12 0 cocos2d::CCScheduler::get()
FUNC 241a90 22 0 cocos2d::CCNode::swapChildIndices(cocos2d::CCNode*, cocos2d::CCNode*)
FUNC 241ab2 68 0 cocos2d::CCNode::insertBefore(cocos2d::CCNode*, cocos2d::CCNode*)
FUNC 241b1a 5a 0 cocos2d::CCNode::insertAfter(cocos2d::CCNode*, cocos2d::CCNode*)
FUNC 241b74 2a 0 cocos2d::CCNode::hasAncestor(cocos2d::CCNode*)
FUNC 241ba0 40 0 cocos2d::CCNode::setContentWidth(float)
FUNC 241be0 40 0 cocos2d::CCNode::setContentHeight(float)
FUNC 241c20 10 0 cocos2d::CCNode::getContentWidth() const
FUNC 241c30 10 0 cocos2d::CCNode::getContentHeight() const
FUNC 241c40 b0 0 cocos2d::Layout::getNodesToPosition(cocos2d::CCNode*) const
FUNC 241cf0 6 0 cocos2d::Layout::ignoreInvisibleChildren(bool)
FUNC 241cf6 6 0 cocos2d::Layout::isIgnoreInvisibleChildren() const
FUNC 241cfc 16 0 cocos2d::SpacerNode::init(unsigned int)
FUNC 241d14 50 0 cocos2d::SpacerNode::create(unsigned int)
FUNC 241d64 6 0 cocos2d::SpacerNode::setGrow(unsigned int)
FUNC 241d6a 6 0 cocos2d::SpacerNode::getGrow() const
FUNC 241d70 3a 0 cocos2d::SpacerNodeChild::init(cocos2d::CCNode*, unsigned int)
FUNC 241dac 70 0 cocos2d::SpacerNodeChild::create(cocos2d::CCNode*, unsigned int)
FUNC 241e1c 74 0 cocos2d::SpacerNodeChild::setContentSize(cocos2d::CCSize const&)
FUNC 241e90 10 0 cocos2d::SpacerNodeChild::~SpacerNodeChild()
FUNC 241ea0 10 0 cocos2d::SpacerNode::~SpacerNode()
FUNC 241eb0 cc 0 cocos2d::ZipUtils::ccInflateMemoryWithHint(unsigned char*, unsigned int, unsigned char**, unsigned int*, unsigned int)
FUNC 241f7c 58 0 cocos2d::ZipUtils::ccInflateMemoryWithHint(unsigned char*, unsigned int, unsigned char**, unsigned int)
FUNC 241fd4 5c 0 cocos2d::ZipUtils::ccInflateMemory(unsigned char*, unsigned int, unsigned char**)
FUNC 242030 84 0 cocos2d::ZipUtils::ccInflateGZipFile(char const*, unsigned char**)
FUNC 2420b4 100 0 cocos2d::ZipUtils::ccInflateCCZFile(char const*, unsigned char**)
FUNC 2421b4 164 0 cocos2d::ZipUtils::ccDecodeEncodedPvr(unsigned int*, int)
FUNC 242318 28 0 cocos2d::ZipUtils::ccSetPvrEncryptionKeyPart(int, unsigned int)
FUNC 242340 68 0 cocos2d::ZipUtils::ccSetPvrEncryptionKey(unsigned int, unsigned int, unsigned int, unsigned int)
FUNC 2423a8 94 0 cocos2d::ZipFile::ZipFile(std::__ndk1::basic_string<char, std::__ndk1::char_traits<char>, std::__ndk1::allocator<char> > const&, std::__ndk1::basic_string<char, std::__ndk1::char_traits<char>, std::__ndk1::allocator<char> > const&)
FUNC 24243c 20 0 cocos2d::ZipFile::setFilter(std::__ndk1::basic_string<char, std::__ndk1::char_traits<char>, std::__ndk1::allocator<char> > const&)
FUNC 24245c 68 0 cocos2d::ZipFile::~ZipFile()
FUNC 2424c4 14 0 cocos2d::ZipFile::~ZipFile()
FUNC 2424d8 248 0 cocos2d::ZipFile::setFilter(std::__ndk1::basic_string<char, std::__ndk1::char_traits<char>, std::__ndk1::allocator<char> > const&, cocos2d::ZipFilePrivate*)
FUNC 242720 84 0 std::__ndk1::map<std::__ndk1::basic_string<char, std::__ndk1::char_traits<char>, std::__ndk1::allocator<char> >, cocos2d::ZipEntryInfo, std::__ndk1::less<std::__ndk1::basic_string<char, std::__ndk1::char_traits<char>, std::__ndk1::allocator<char> > >, std::__ndk1::allocator<std::__ndk1::pair<std::__ndk1::basic_string<char, std::__ndk1::char_traits<char>, std::__ndk1::allocator<char> > const, cocos2d::ZipEntryInfo> > >::operator[](std::__ndk1::basic_string<char, std::__ndk1::char_traits<char>, std::__ndk1::allocator<char> > const&)
FUNC 2427a4 20 0 cocos2d::ZipFile::fileExists(std::__ndk1::basic_string<char, std::__ndk1::char_traits<char>, std::__ndk1::allocator<char> > const&) const
FUNC 2427c4 6 0 cocos2d::ZipFile::getFileData(std::__ndk1::basic_string<char, std::__ndk1::char_traits<char>, std::__ndk1::allocator<char> > const&, unsigned long*)
FUNC 2427cc a8 0 cocos2d::ZipFile::getFileData(std::__ndk1::basic_string<char, std::__ndk1::char_traits<char>, std::__ndk1::allocator<char> > const&, unsigned long*, cocos2d::ZipFilePrivate*)
FUNC 242874 18 0 cocos2d::ZipFile::isLoaded() const
FUNC 24288c 198 0 cocos2d::ZipFile::getAllFiles() const
FUNC 242a24 32 0 std::__ndk1::__tree<std::__ndk1::__value_type<std::__ndk1::basic_string<char, std::__ndk1::char_traits<char>, std::__ndk1::allocator<char> >, cocos2d::ZipEntryInfo>, std::__ndk1::__map_value_compare<std::__ndk1::basic_string<char, std::__ndk1::char_traits<char>, std::__ndk1::allocator<char> >, std::__ndk1::__value_type<std::__ndk1::basic_string<char, std::__ndk1::char_traits<char>, std::__ndk1::allocator<char> >, cocos2d::ZipEntryInfo>, std::__ndk1::less<std::__ndk1::basic_string<char, std::__ndk1::char_traits<char>, std::__ndk1::allocator<char> > >, true>, std::__ndk1::allocator<std::__ndk1::__value_type<std::__ndk1::basic_string<char, std::__ndk1::char_traits<char>, std::__ndk1::allocator<char> >, cocos2d::ZipEntryInfo> > >::destroy(std::__ndk1::__tree_node<std::__ndk1::__value_type<std::__ndk1::basic_string<char, std::__ndk1::char_traits<char>, std::__ndk1::allocator<char> >, cocos2d::ZipEntryInfo>, void*>*)
FUNC 242a56 a4 0 std::__ndk1::__tree<std::__ndk1::__value_type<std::__ndk1::basic_string<char, std::__ndk1::char_traits<char>, std::__ndk1::allocator<char> >, cocos2d::ZipEntryInfo>, std::__ndk1::__map_value_compare<std::__ndk1::basic_string<char, std::__ndk1::char_traits<char>, std::__ndk1::allocator<char> >, std::__ndk1::__value_type<std::__ndk1::basic_string<char, std::__ndk1::char_traits<char>, std::__ndk1::allocator<char> >, cocos2d::ZipEntryInfo>, std::__ndk1::less<std::__ndk1::basic_string<char, std::__ndk1::char_traits<char>, std::__ndk1::allocator<char> > >, true>, std::__ndk1::allocator<std::__ndk1::__value_type<std::__ndk1::basic_string<char, std::__ndk1::char_traits<char>, std::__ndk1::allocator<char> >, cocos2d::ZipEntryInfo> > >::__find_equal<std::__ndk1::basic_string<char, std::__ndk1::char_traits<char>, std::__ndk1::allocator<char> > >(std::__ndk1::__tree_end_node<std::__ndk1::__tree_node_base<void*>*>*&, std::__ndk1::basic_string<char, std::__ndk1::char_traits<char>, std::__ndk1::allocator<char> > const&)
FUNC 242afa 94 0 std::__ndk1::__tree<std::__ndk1::__value_type<std::__ndk1::basic_string<char, std::__ndk1::char_traits<char>, std::__ndk1::allocator<char> >, cocos2d::ZipEntryInfo>, std::__ndk1::__map_value_compare<std::__ndk1::basic_string<char, std::__ndk1::char_traits<char>, std::__ndk1::allocator<char> >, std::__ndk1::__value_type<std::__ndk1::basic_string<char, std::__ndk1::char_traits<char>, std::__ndk1::allocator<char> >, cocos2d::ZipEntryInfo>, std::__ndk1::less<std::__ndk1::basic_string<char, std::__ndk1::char_traits<char>, std::__ndk1::allocator<char> > >, true>, std::__ndk1::allocator<std::__ndk1::__value_type<std::__ndk1::basic_string<char, std::__ndk1::char_traits<char>, std::__ndk1::allocator<char> >, cocos2d::ZipEntryInfo> > >::__construct_node<std::__ndk1::piecewise_construct_t const&, std::__ndk1::tuple<std::__ndk1::basic_string<char, std::__ndk1::char_traits<char>, std::__ndk1::allocator<char> > const&>, std::__ndk1::tuple<> >(std::__ndk1::piecewise_construct_t const&, std::__ndk1::tuple<std::__ndk1::basic_string<char, std::__ndk1::char_traits<char>, std::__ndk1::allocator<char> > const&>, std::__ndk1::tuple<>)
FUNC 242b8e 2a 0 std::__ndk1::unique_ptr<std::__ndk1::__tree_node<std::__ndk1::__value_type<std::__ndk1::basic_string<char, std::__ndk1::char_traits<char>, std::__ndk1::allocator<char> >, cocos2d::ZipEntryInfo>, void*>, std::__ndk1::__tree_node_destructor<std::__ndk1::allocator<std::__ndk1::__tree_node<std::__ndk1::__value_type<std::__ndk1::basic_string<char, std::__ndk1::char_traits<char>, std::__ndk1::allocator<char> >, cocos2d::ZipEntryInfo>, void*> > > >::~unique_ptr[abi:v170000]()
FUNC 242bb8 a4 0 std::__ndk1::__tree<std::__ndk1::__value_type<std::__ndk1::basic_string<char, std::__ndk1::char_traits<char>, std::__ndk1::allocator<char> >, cocos2d::ZipEntryInfo>, std::__ndk1::__map_value_compare<std::__ndk1::basic_string<char, std::__ndk1::char_traits<char>, std::__ndk1::allocator<char> >, std::__ndk1::__value_type<std::__ndk1::basic_string<char, std::__ndk1::char_traits<char>, std::__ndk1::allocator<char> >, cocos2d::ZipEntryInfo>, std::__ndk1::less<std::__ndk1::basic_string<char, std::__ndk1::char_traits<char>, std::__ndk1::allocator<char> > >, true>, std::__ndk1::allocator<std::__ndk1::__value_type<std::__ndk1::basic_string<char, std::__ndk1::char_traits<char>, std::__ndk1::allocator<char> >, cocos2d::ZipEntryInfo> > >::find<std::__ndk1::basic_string<char, std::__ndk1::char_traits<char>, std::__ndk1::allocator<char> > >(std::__ndk1::basic_string<char, std::__ndk1::char_traits<char>, std::__ndk1::allocator<char> > const&)
FUNC 242c5c c 0 cocos2d::call_zopen64(cocos2d::zlib_filefunc64_32_def_s const*, void const*, int)
FUNC 242c68 3c 0 cocos2d::call_zseek64(cocos2d::zlib_filefunc64_32_def_s const*, void*, unsigned long long, int)
FUNC 242ca4 26 0 cocos2d::call_ztell64(cocos2d::zlib_filefunc64_32_def_s const*, void*)
FUNC 242cca 2a 0 cocos2d::fill_zlib_filefunc64_32_def_from_filefunc32(cocos2d::zlib_filefunc64_32_def_s*, cocos2d::zlib_filefunc_def_s const*)
FUNC 242cf4 5c 0 cocos2d::fill_fopen_filefunc(cocos2d::zlib_filefunc_def_s*)
FUNC 242d50 4c 0 cocos2d::fopen_file_func(void*, char const*, int)
FUNC 242d9c e 0 cocos2d::fread_file_func(void*, void*, void*, unsigned long)
FUNC 242daa e 0 cocos2d::fwrite_file_func(void*, void*, void const*, unsigned long)
FUNC 242db8 6 0 cocos2d::ftell_file_func(void*, void*)
FUNC 242dbe 22 0 cocos2d::fseek_file_func(void*, void*, unsigned long, int)
FUNC 242de0 6 0 cocos2d::fclose_file_func(void*, void*)
FUNC 242de6 6 0 cocos2d::ferror_file_func(void*, void*)
FUNC 242dec 5c 0 cocos2d::fill_fopen64_filefunc(cocos2d::zlib_filefunc64_def_s*)
FUNC 242e48 4c 0 cocos2d::fopen64_file_func(void*, void const*, int)
FUNC 242e94 e 0 cocos2d::ftell64_file_func(void*, void*)
FUNC 242ea2 24 0 cocos2d::fseek64_file_func(void*, void*, unsigned long long, int)
FUNC 242ec6 58 0 cocos2d::unzStringFileNameCompare(char const*, char const*, int)
FUNC 242f20 6c 0 cocos2d::unzOpen2(char const*, cocos2d::zlib_filefunc_def_s*)
FUNC 242f8c 7c0 0 cocos2d::unzOpenInternal(void const*, cocos2d::zlib_filefunc64_32_def_s*, int)
FUNC 24374c 6c 0 cocos2d::unzOpen2_64(void const*, cocos2d::zlib_filefunc64_def_s*)
FUNC 2437b8 8 0 cocos2d::unzOpen(char const*)
FUNC 2437c0 8 0 cocos2d::unzOpen64(void const*)
FUNC 2437c8 54 0 cocos2d::unzClose(void*)
FUNC 24381c 66 0 cocos2d::unzCloseCurrentFile(void*)
FUNC 243882 18 0 cocos2d::unzGetGlobalInfo64(void*, cocos2d::unz_global_info64_s*)
FUNC 24389a 16 0 cocos2d::unzGetGlobalInfo(void*, cocos2d::unz_global_info_s*)
FUNC 2438b0 26 0 cocos2d::unzGetCurrentFileInfo64(void*, cocos2d::unz_file_info64_s*, char*, unsigned long, void*, unsigned long, char*, unsigned long)
FUNC 2438d8 7bc 0 cocos2d::unz64local_GetCurrentFileInfoInternal(void*, cocos2d::unz_file_info64_s*, cocos2d::unz_file_info64_internal_s*, char*, unsigned long, void*, unsigned long, char*, unsigned long)
FUNC 244094 a0 0 cocos2d::unzGetCurrentFileInfo(void*, cocos2d::unz_file_info_s*, char*, unsigned long, void*, unsigned long, char*, unsigned long)
FUNC 244134 6a 0 cocos2d::unzGoToFirstFile64(void*, cocos2d::unz_file_info64_s*, char*, unsigned long)
FUNC 24419e 48 0 cocos2d::unzGoToFirstFile(void*)
FUNC 2441e6 ae 0 cocos2d::unzGoToNextFile64(void*, cocos2d::unz_file_info64_s*, char*, unsigned long)
FUNC 244294 92 0 cocos2d::unzGoToNextFile(void*)
FUNC 244328 208 0 cocos2d::unzLocateFile(void*, char const*, int)
FUNC 244530 32 0 cocos2d::unzGetFilePos64(void*, cocos2d::unz64_file_pos_s*)
FUNC 244562 2e 0 cocos2d::unzGetFilePos(void*, cocos2d::unz_file_pos_s*)
FUNC 244590 56 0 cocos2d::unzGoToFilePos64(void*, cocos2d::unz64_file_pos_s const*)
FUNC 2445e6 68 0 cocos2d::unzGoToFilePos(void*, cocos2d::unz_file_pos_s*)
FUNC 244650 550 0 cocos2d::unzOpenCurrentFile3(void*, int*, int*, int, char const*)
FUNC 244ba0 16 0 cocos2d::unzOpenCurrentFile(void*)
FUNC 244bb6 16 0 cocos2d::unzOpenCurrentFilePassword(void*, char const*)
FUNC 244bcc 16 0 cocos2d::unzOpenCurrentFile2(void*, int*, int*, int)
FUNC 244be2 22 0 cocos2d::unzGetCurrentFileZStreamPos64(void*)
FUNC 244c04 226 0 cocos2d::unzReadCurrentFile(void*, void*, unsigned int)
FUNC 244e2a 16 0 cocos2d::unztell(void*)
FUNC 244e40 22 0 cocos2d::unztell64(void*)
FUNC 244e62 20 0 cocos2d::unzeof(void*)
FUNC 244e82 7e 0 cocos2d::unzGetLocalExtrafield(void*, void*, unsigned int)
FUNC 244f00 7c 0 cocos2d::unzGetGlobalComment(void*, char*, unsigned long)
FUNC 244f7c 40 0 cocos2d::unzGetOffset64(void*)
FUNC 244fbc 3c 0 cocos2d::unzGetOffset(void*)
FUNC 244ff8 48 0 cocos2d::unzSetOffset64(void*, unsigned long long)
FUNC 245040 48 0 cocos2d::unzSetOffset(void*, unsigned long)
FUNC 245088 ec 0 cocos2d::unz64local_getLong(cocos2d::zlib_filefunc64_32_def_s const*, void*, unsigned long*)
FUNC 245174 1d4 0 cocos2d::unz64local_getLong64(cocos2d::zlib_filefunc64_32_def_s const*, void*, unsigned long long*)
FUNC 245348 9e4 0 cocos2d::zipOpen3(void const*, int, char const**, cocos2d::zlib_filefunc64_32_def_s*)
FUNC 245d2c 80 0 cocos2d::zipOpen2(char const*, int, char const**, cocos2d::zlib_filefunc_def_s*)
FUNC 245dac 84 0 cocos2d::zipOpen2_64(void const*, int, char const**, cocos2d::zlib_filefunc64_def_s*)
FUNC 245e30 8 0 cocos2d::zipOpen(char const*, int)
FUNC 245e38 8 0 cocos2d::zipOpen64(void const*, int)
FUNC 245e40 5c4 0 cocos2d::zipOpenNewFileInZip4_64(void*, char const*, cocos2d::zip_fileinfo const*, void const*, unsigned int, void const*, unsigned int, char const*, int, int, int, int, int, int, char const*, unsigned long, unsigned long, unsigned long, int)
FUNC 246404 16 0 cocos2d::zipCloseFileInZip(void*)
FUNC 24641a 64 0 cocos2d::zipOpenNewFileInZip4(void*, char const*, cocos2d::zip_fileinfo const*, void const*, unsigned int, void const*, unsigned int, char const*, int, int, int, int, int, int, char const*, unsigned long, unsigned long, unsigned long)
FUNC 24647e 50 0 cocos2d::zipOpenNewFileInZip3(void*, char const*, cocos2d::zip_fileinfo const*, void const*, unsigned int, void const*, unsigned int, char const*, int, int, int, int, int, int, char const*, unsigned long)
FUNC 2464ce 58 0 cocos2d::zipOpenNewFileInZip3_64(void*, char const*, cocos2d::zip_fileinfo const*, void const*, unsigned int, void const*, unsigned int, char const*, int, int, int, int, int, int, char const*, unsigned long, int)
FUNC 246526 48 0 cocos2d::zipOpenNewFileInZip2(void*, char const*, cocos2d::zip_fileinfo const*, void const*, unsigned int, void const*, unsigned int, char const*, int, int, int)
FUNC 24656e 4a 0 cocos2d::zipOpenNewFileInZip2_64(void*, char const*, cocos2d::zip_fileinfo const*, void const*, unsigned int, void const*, unsigned int, char const*, int, int, int, int)
FUNC 2465b8 58 0 cocos2d::zipOpenNewFileInZip64(void*, char const*, cocos2d::zip_fileinfo const*, void const*, unsigned int, void const*, unsigned int, char const*, int, int, int)
FUNC 246610 48 0 cocos2d::zipOpenNewFileInZip(void*, char const*, cocos2d::zip_fileinfo const*, void const*, unsigned int, void const*, unsigned int, char const*, int, int)
FUNC 246658 112 0 cocos2d::zipWriteInFileInZip(void*, void const*, unsigned int)
FUNC 24676a 14 0 cocos2d::zipCloseFileInZipRaw(void*, unsigned long, unsigned long)
FUNC 246780 5c4 0 cocos2d::zipCloseFileInZipRaw64(void*, unsigned long long, unsigned long)
FUNC 246d44 404 0 cocos2d::zipClose(void*, char const*)
FUNC 247148 94 0 cocos2d::zipRemoveExtraInfoBlock(char*, int*, short)
FUNC 2471dc ec 0 cocos2d::zip64local_getLong(cocos2d::zlib_filefunc64_32_def_s const*, void*, unsigned long*)
FUNC 2472c8 1cc 0 cocos2d::zip64local_getLong64(cocos2d::zlib_filefunc64_32_def_s const*, void*, unsigned long long*)
FUNC 247494 22 0 canCatchImpl(std::type_info const*, std::type_info const*, void*&)
FUNC 2474b8 188 0 geode::Mod::hook<bool (*)(std::type_info const*, std::type_info const*, void*&)>(void*, bool (*)(std::type_info const*, std::type_info const*, void*&), std::__ndk1::basic_string<char, std::__ndk1::char_traits<char>, std::__ndk1::allocator<char> > const&, tulip::hook::TulipConvention, tulip::hook::HookMetadata const&)
FUNC 247640 b0 0 geode::Hook::create<bool (*)(std::type_info const*, std::type_info const*, void*&)>(void*, bool (*)(std::type_info const*, std::type_info const*, void*&), std::__ndk1::basic_string<char, std::__ndk1::char_traits<char>, std::__ndk1::allocator<char> > const&, tulip::hook::TulipConvention, tulip::hook::HookMetadata const&)
FUNC 2476f0 bc 0 geode::Result<geode::Hook*, std::__ndk1::basic_string<char, std::__ndk1::char_traits<char>, std::__ndk1::allocator<char> > >::unwrap() &
FUNC 2477ac 9c 0 tulip::hook::AbstractFunction::from<bool, std::type_info const*, std::type_info const*, void*&>(bool (*)(std::type_info const*, std::type_info const*, void*&))
FUNC 247848 2c 0 cpp::bitwizeshift::bad_result_access<std::__ndk1::basic_string<char, std::__ndk1::char_traits<char>, std::__ndk1::allocator<char> > >::~bad_result_access()
FUNC 247874 30 0 cpp::bitwizeshift::bad_result_access<std::__ndk1::basic_string<char, std::__ndk1::char_traits<char>, std::__ndk1::allocator<char> > >::~bad_result_access()
FUNC 2478a4 e0 0 _GLOBAL__sub_I_AndroidExceptionFix.cpp
FUNC 247984 20 0 FMOD_System_init_hook(FMOD::System*, int, unsigned int, void*)
FUNC 2479a4 18 0 FMOD_ChannelControl_setVolume_hook(FMOD::ChannelControl*, float)
FUNC 2479bc 188 0 geode::Mod::hook<FMOD_RESULT (*)(FMOD::System*, int, unsigned int, void*)>(void*, FMOD_RESULT (*)(FMOD::System*, int, unsigned int, void*), std::__ndk1::basic_string<char, std::__ndk1::char_traits<char>, std::__ndk1::allocator<char> > const&, tulip::hook::TulipConvention, tulip::hook::HookMetadata const&)
FUNC 247b44 188 0 geode::Mod::hook<FMOD_RESULT (*)(FMOD::ChannelControl*, float)>(void*, FMOD_RESULT (*)(FMOD::ChannelControl*, float), std::__ndk1::basic_string<char, std::__ndk1::char_traits<char>, std::__ndk1::allocator<char> > const&, tulip::hook::TulipConvention, tulip::hook::HookMetadata const&)
FUNC 247ccc b0 0 geode::Hook::create<FMOD_RESULT (*)(FMOD::System*, int, unsigned int, void*)>(void*, FMOD_RESULT (*)(FMOD::System*, int, unsigned int, void*), std::__ndk1::basic_string<char, std::__ndk1::char_traits<char>, std::__ndk1::allocator<char> > const&, tulip::hook::TulipConvention, tulip::hook::HookMetadata const&)
FUNC 247d80 c8 0 tulip::hook::AbstractFunction::from<FMOD_RESULT, FMOD::System*, int, unsigned int, void*>(FMOD_RESULT (*)(FMOD::System*, int, unsigned int, void*))
FUNC 247e50 108 0 geode::Hook::create<FMOD_RESULT (*)(FMOD::ChannelControl*, float)>(void*, FMOD_RESULT (*)(FMOD::ChannelControl*, float), std::__ndk1::basic_string<char, std::__ndk1::char_traits<char>, std::__ndk1::allocator<char> > const&, tulip::hook::TulipConvention, tulip::hook::HookMetadata const&)
FUNC 247f58 180 0 _GLOBAL__sub_I_AndroidFMODFix.cpp
FUNC 2480d8 188 0 geode::Mod::hook<void* (*)(void*, geode::cast::ClassTypeinfoType const*, geode::cast::ClassTypeinfoType const*, unsigned int)>(void*, void* (*)(void*, geode::cast::ClassTypeinfoType const*, geode::cast::ClassTypeinfoType const*, unsigned int), std::__ndk1::basic_string<char, std::__ndk1::char_traits<char>, std::__ndk1::allocator<char> > const&, tulip::hook::TulipConvention, tulip::hook::HookMetadata const&)
FUNC 248260 1c 0 geode::cast::typeinfoCastInternal(void*, geode::cast::ClassTypeinfoType const*, geode::cast::ClassTypeinfoType const*, unsigned int)
FUNC 24827c b0 0 geode::Hook::create<void* (*)(void*, geode::cast::ClassTypeinfoType const*, geode::cast::ClassTypeinfoType const*, unsigned int)>(void*, void* (*)(void*, geode::cast::ClassTypeinfoType const*, geode::cast::ClassTypeinfoType const*, unsigned int), std::__ndk1::basic_string<char, std::__ndk1::char_traits<char>, std::__ndk1::allocator<char> > const&, tulip::hook::TulipConvention, tulip::hook::HookMetadata const&)
FUNC 248330 c8 0 tulip::hook::AbstractFunction::from<void*, void*, geode::cast::ClassTypeinfoType const*, geode::cast::ClassTypeinfoType const*, unsigned int>(void* (*)(void*, geode::cast::ClassTypeinfoType const*, geode::cast::ClassTypeinfoType const*, unsigned int))
FUNC 2483f8 f0 0 _GLOBAL__sub_I_DynamicCastFix.cpp
FUNC 2484e8 3e 0 std::__ndk1::unordered_map<std::__ndk1::basic_string<char, std::__ndk1::char_traits<char>, std::__ndk1::allocator<char> >, unsigned int, std::__ndk1::hash<std::__ndk1::basic_string<char, std::__ndk1::char_traits<char>, std::__ndk1::allocator<char> > >, std::__ndk1::equal_to<std::__ndk1::basic_string<char, std::__ndk1::char_traits<char>, std::__ndk1::allocator<char> > >, std::__ndk1::allocator<std::__ndk1::pair<std::__ndk1::basic_string<char, std::__ndk1::char_traits<char>, std::__ndk1::allocator<char> > const, unsigned int> > >::~unordered_map[abi:v170000]()
FUNC 248528 d0 0 geode::modifier::getFieldIndexForClass(char const*)
FUNC 2485f8 c 0 cocos2d::CCNode::getFieldContainer()
FUNC 248604 130 0 GeodeNodeMetadata::set(cocos2d::CCNode*)
FUNC 248734 6c 0 cocos2d::CCNode::getID()
FUNC 2487a0 16 0 cocos2d::CCNode::setID(std::__ndk1::basic_string<char, std::__ndk1::char_traits<char>, std::__ndk1::allocator<char> > const&)
FUNC 2487b8 1b4 0 cocos2d::CCNode::getChildByID(std::__ndk1::basic_string<char, std::__ndk1::char_traits<char>, std::__ndk1::allocator<char> > const&)
FUNC 24896c ac 0 cocos2d::CCNode::getChildByIDRecursive(std::__ndk1::basic_string<char, std::__ndk1::char_traits<char>, std::__ndk1::allocator<char> > const&)
FUNC 248a18 1e 0 cocos2d::CCNode::removeChildByID(std::__ndk1::basic_string<char, std::__ndk1::char_traits<char>, std::__ndk1::allocator<char> > const&)
FUNC 248a38 130 0 cocos2d::CCNode::setLayout(cocos2d::Layout*, bool, bool)
FUNC 248b68 2a 0 cocos2d::CCNode::updateLayout(bool)
FUNC 248b92 c 0 cocos2d::CCNode::getLayout()
FUNC 248b9e 64 0 cocos2d::CCNode::setLayoutOptions(cocos2d::LayoutOptions*, bool)
FUNC 248c02 c 0 cocos2d::CCNode::getLayoutOptions()
FUNC 248c10 84 0 geode::UserObjectSetEvent::UserObjectSetEvent(cocos2d::CCNode*, std::__ndk1::basic_string<char, std::__ndk1::char_traits<char>, std::__ndk1::allocator<char> > const&, cocos2d::CCObject*)
FUNC 248c94 72 0 geode::AttributeSetFilter::handle(geode::utils::MiniFunction<void (geode::UserObjectSetEvent*)>, geode::UserObjectSetEvent*)
FUNC 248d06 60 0 geode::AttributeSetFilter::AttributeSetFilter(std::__ndk1::basic_string<char, std::__ndk1::char_traits<char>, std::__ndk1::allocator<char> > const&)
FUNC 248d68 d4 0 cocos2d::CCNode::setUserObject(std::__ndk1::basic_string<char, std::__ndk1::char_traits<char>, std::__ndk1::allocator<char> > const&, cocos2d::CCObject*)
FUNC 248e3c 2c 0 geode::UserObjectSetEvent::~UserObjectSetEvent()
FUNC 248e68 38 0 cocos2d::CCNode::getUserObject(std::__ndk1::basic_string<char, std::__ndk1::char_traits<char>, std::__ndk1::allocator<char> > const&)
FUNC 248ea0 110 0 cocos2d::CCNode::addEventListenerInternal(std::__ndk1::basic_string<char, std::__ndk1::char_traits<char>, std::__ndk1::allocator<char> > const&, geode::EventListenerProtocol*)
FUNC 248fb0 f0 0 cocos2d::CCNode::removeEventListener(geode::EventListenerProtocol*)
FUNC 2490a0 16 0 cocos2d::CCNode::removeEventListener(std::__ndk1::basic_string<char, std::__ndk1::char_traits<char>, std::__ndk1::allocator<char> > const&)
FUNC 2490b8 38 0 cocos2d::CCNode::getEventListener(std::__ndk1::basic_string<char, std::__ndk1::char_traits<char>, std::__ndk1::allocator<char> > const&)
FUNC 2490f0 1a 0 cocos2d::CCNode::getEventListenerCount()
FUNC 24910c e0 0 cocos2d::CCNode::addChildAtPosition(cocos2d::CCNode*, cocos2d::Anchor, cocos2d::CCPoint const&, bool)
FUNC 2491ec 2 0 cocos2d::CCNode::setAttribute(std::__ndk1::basic_string<char, std::__ndk1::char_traits<char>, std::__ndk1::allocator<char> > const&, matjson::Value const&)
FUNC 2491ee 8 0 cocos2d::CCNode::getAttributeInternal(std::__ndk1::basic_string<char, std::__ndk1::char_traits<char>, std::__ndk1::allocator<char> > const&)
FUNC 2491f8 58 0 __cxx_global_var_init.1
FUNC 249250 20 0 geode::modifier::ModifyBase<geode::modifier::ModifyDerive<ProxyCCNode, cocos2d::CCNode> >::~ModifyBase()
FUNC 249270 30 0 geode::UserObjectSetEvent::~UserObjectSetEvent()
FUNC 2492a0 7a 0 std::__ndk1::pair<std::__ndk1::basic_string<char, std::__ndk1::char_traits<char>, std::__ndk1::allocator<char> > const, geode::Ref<cocos2d::CCObject> >::pair[abi:v170000]<char const (&) [1], cocos2d::CCObject*&, (void*)0>(cocos2d::CCObject*&)
FUNC 24931a 22 0 std::__ndk1::pair<std::__ndk1::basic_string<char, std::__ndk1::char_traits<char>, std::__ndk1::allocator<char> > const, geode::Ref<cocos2d::CCObject> >::~pair()
FUNC 24933c d0 0 GeodeNodeMetadata::~GeodeNodeMetadata()
FUNC 24940c 10 0 GeodeNodeMetadata::~GeodeNodeMetadata()
FUNC 24941c 86 0 geode::modifier::FieldContainer::~FieldContainer()
FUNC 2494a2 4e 0 std::__ndk1::__hash_table<std::__ndk1::__hash_value_type<std::__ndk1::basic_string<char, std::__ndk1::char_traits<char>, std::__ndk1::allocator<char> >, geode::Ref<cocos2d::CCObject> >, std::__ndk1::__unordered_map_hasher<std::__ndk1::basic_string<char, std::__ndk1::char_traits<char>, std::__ndk1::allocator<char> >, std::__ndk1::__hash_value_type<std::__ndk1::basic_string<char, std::__ndk1::char_traits<char>, std::__ndk1::allocator<char> >, geode::Ref<cocos2d::CCObject> >, std::__ndk1::hash<std::__ndk1::basic_string<char, std::__ndk1::char_traits<char>, std::__ndk1::allocator<char> > >, std::__ndk1::equal_to<std::__ndk1::basic_string<char, std::__ndk1::char_traits<char>, std::__ndk1::allocator<char> > >, true>, std::__ndk1::__unordered_map_equal<std::__ndk1::basic_string<char, std::__ndk1::char_traits<char>, std::__ndk1::allocator<char> >, std::__ndk1::__hash_value_type<std::__ndk1::basic_string<char, std::__ndk1::char_traits<char>, std::__ndk1::allocator<char> >, geode::Ref<cocos2d::CCObject> >, std::__ndk1::equal_to<std::__ndk1::basic_string<char, std::__ndk1::char_traits<char>, std::__ndk1::allocator<char> > >, std::__ndk1::hash<std::__ndk1::basic_string<char, std::__ndk1::char_traits<char>, std::__ndk1::allocator<char> > >, true>, std::__ndk1::allocator<std::__ndk1::__hash_value_type<std::__ndk1::basic_string<char, std::__ndk1::char_traits<char>, std::__ndk1::allocator<char> >, geode::Ref<cocos2d::CCObject> > > >::~__hash_table()
FUNC 2494f0 35c 0 std::__ndk1::__hash_table<std::__ndk1::__hash_value_type<std::__ndk1::basic_string<char, std::__ndk1::char_traits<char>, std::__ndk1::allocator<char> >, geode::Ref<cocos2d::CCObject> >, std::__ndk1::__unordered_map_hasher<std::__ndk1::basic_string<char, std::__ndk1::char_traits<char>, std::__ndk1::allocator<char> >, std::__ndk1::__hash_value_type<std::__ndk1::basic_string<char, std::__ndk1::char_traits<char>, std::__ndk1::allocator<char> >, geode::Ref<cocos2d::CCObject> >, std::__ndk1::hash<std::__ndk1::basic_string<char, std::__ndk1::char_traits<char>, std::__ndk1::allocator<char> > >, std::__ndk1::equal_to<std::__ndk1::basic_string<char, std::__ndk1::char_traits<char>, std::__ndk1::allocator<char> > >, true>, std::__ndk1::__unordered_map_equal<std::__ndk1::basic_string<char, std::__ndk1::char_traits<char>, std::__ndk1::allocator<char> >, std::__ndk1::__hash_value_type<std::__ndk1::basic_string<char, std::__ndk1::char_traits<char>, std::__ndk1::allocator<char> >, geode::Ref<cocos2d::CCObject> >, std::__ndk1::equal_to<std::__ndk1::basic_string<char, std::__ndk1::char_traits<char>, std::__ndk1::allocator<char> > >, std::__ndk1::hash<std::__ndk1::basic_string<char, std::__ndk1::char_traits<char>, std::__ndk1::allocator<char> > >, true>, std::__ndk1::allocator<std::__ndk1::__hash_value_type<std::__ndk1::basic_string<char, std::__ndk1::char_traits<char>, std::__ndk1::allocator<char> >, geode::Ref<cocos2d::CCObject> > > >::__emplace_unique_key_args<std::__ndk1::basic_string<char, std::__ndk1::char_traits<char>, std::__ndk1::allocator<char> >, std::__ndk1::pair<std::__ndk1::basic_string<char, std::__ndk1::char_traits<char>, std::__ndk1::allocator<char> > const, geode::Ref<cocos2d::CCObject> > >(std::__ndk1::basic_string<char, std::__ndk1::char_traits<char>, std::__ndk1::allocator<char> > const&, std::__ndk1::pair<std::__ndk1::basic_string<char, std::__ndk1::char_traits<char>, std::__ndk1::allocator<char> > const, geode::Ref<cocos2d::CCObject> >&&)
FUNC 24984c a0 0 std::__ndk1::__hash_table<std::__ndk1::__hash_value_type<std::__ndk1::basic_string<char, std::__ndk1::char_traits<char>, std::__ndk1::allocator<char> >, geode::Ref<cocos2d::CCObject> >, std::__ndk1::__unordered_map_hasher<std::__ndk1::basic_string<char, std::__ndk1::char_traits<char>, std::__ndk1::allocator<char> >, std::__ndk1::__hash_value_type<std::__ndk1::basic_string<char, std::__ndk1::char_traits<char>, std::__ndk1::allocator<char> >, geode::Ref<cocos2d::CCObject> >, std::__ndk1::hash<std::__ndk1::basic_string<char, std::__ndk1::char_traits<char>, std::__ndk1::allocator<char> > >, std::__ndk1::equal_to<std::__ndk1::basic_string<char, std::__ndk1::char_traits<char>, std::__ndk1::allocator<char> > >, true>, std::__ndk1::__unordered_map_equal<std::__ndk1::basic_string<char, std::__ndk1::char_traits<char>, std::__ndk1::allocator<char> >, std::__ndk1::__hash_value_type<std::__ndk1::basic_string<char, std::__ndk1::char_traits<char>, std::__ndk1::allocator<char> >, geode::Ref<cocos2d::CCObject> >, std::__ndk1::equal_to<std::__ndk1::basic_string<char, std::__ndk1::char_traits<char>, std::__ndk1::allocator<char> > >, std::__ndk1::hash<std::__ndk1::basic_string<char, std::__ndk1::char_traits<char>, std::__ndk1::allocator<char> > >, true>, std::__ndk1::allocator<std::__ndk1::__hash_value_type<std::__ndk1::basic_string<char, std::__ndk1::char_traits<char>, std::__ndk1::allocator<char> >, geode::Ref<cocos2d::CCObject> > > >::__construct_node_hash<std::__ndk1::pair<std::__ndk1::basic_string<char, std::__ndk1::char_traits<char>, std::__ndk1::allocator<char> > const, geode::Ref<cocos2d::CCObject> >, >(unsigned int, std::__ndk1::pair<std::__ndk1::basic_string<char, std::__ndk1::char_traits<char>, std::__ndk1::allocator<char> > const, geode::Ref<cocos2d::CCObject> >&&, &&)
FUNC 2498ec 34 0 std::__ndk1::unique_ptr<std::__ndk1::__hash_node<std::__ndk1::__hash_value_type<std::__ndk1::basic_string<char, std::__ndk1::char_traits<char>, std::__ndk1::allocator<char> >, geode::Ref<cocos2d::CCObject> >, void*>, std::__ndk1::__hash_node_destructor<std::__ndk1::allocator<std::__ndk1::__hash_node<std::__ndk1::__hash_value_type<std::__ndk1::basic_string<char, std::__ndk1::char_traits<char>, std::__ndk1::allocator<char> >, geode::Ref<cocos2d::CCObject> >, void*> > > >::~unique_ptr[abi:v170000]()
FUNC 249920 10c 0 std::__ndk1::__hash_table<std::__ndk1::__hash_value_type<std::__ndk1::basic_string<char, std::__ndk1::char_traits<char>, std::__ndk1::allocator<char> >, geode::Ref<cocos2d::CCObject> >, std::__ndk1::__unordered_map_hasher<std::__ndk1::basic_string<char, std::__ndk1::char_traits<char>, std::__ndk1::allocator<char> >, std::__ndk1::__hash_value_type<std::__ndk1::basic_string<char, std::__ndk1::char_traits<char>, std::__ndk1::allocator<char> >, geode::Ref<cocos2d::CCObject> >, std::__ndk1::hash<std::__ndk1::basic_string<char, std::__ndk1::char_traits<char>, std::__ndk1::allocator<char> > >, std::__ndk1::equal_to<std::__ndk1::basic_string<char, std::__ndk1::char_traits<char>, std::__ndk1::allocator<char> > >, true>, std::__ndk1::__unordered_map_equal<std::__ndk1::basic_string<char, std::__ndk1::char_traits<char>, std::__ndk1::allocator<char> >, std::__ndk1::__hash_value_type<std::__ndk1::basic_string<char, std::__ndk1::char_traits<char>, std::__ndk1::allocator<char> >, geode::Ref<cocos2d::CCObject> >, std::__ndk1::equal_to<std::__ndk1::basic_string<char, std::__ndk1::char_traits<char>, std::__ndk1::allocator<char> > >, std::__ndk1::hash<std::__ndk1::basic_string<char, std::__ndk1::char_traits<char>, std::__ndk1::allocator<char> > >, true>, std::__ndk1::allocator<std::__ndk1::__hash_value_type<std::__ndk1::basic_string<char, std::__ndk1::char_traits<char>, std::__ndk1::allocator<char> >, geode::Ref<cocos2d::CCObject> > > >::__do_rehash<true>(unsigned int)
FUNC 249a2c 310 0 geode::modifier::ModifyBase<geode::modifier::ModifyDerive<ProxyCCNode, cocos2d::CCNode> >::ModifyBase()
FUNC 249d3c 424 0 geode::modifier::ModifyDerive<ProxyCCNode, cocos2d::CCNode>::apply()
FUNC 24a160 2 0 geode::modifier::ModifyBase<geode::modifier::ModifyDerive<ProxyCCNode, cocos2d::CCNode> >::apply()
FUNC 24a164 cc 0 geode::Hook::create<cocos2d::CCObject* (*)(ProxyCCNode*)>(void*, cocos2d::CCObject* (*)(ProxyCCNode*), std::__ndk1::basic_string<char, std::__ndk1::char_traits<char>, std::__ndk1::allocator<char> > const&, tulip::hook::TulipConvention, tulip::hook::HookMetadata const&)
FUNC 24a230 4 0 geode::modifier::AsStaticFunction_getUserObject<ProxyCCNode, cocos2d::CCObject* (ProxyCCNode::*)()>::Impl<cocos2d::CCObject* (ProxyCCNode::*)()>::function(ProxyCCNode*)
FUNC 24a240 108 0 geode::Hook::create<void (*)(ProxyCCNode*, cocos2d::CCObject*)>(void*, void (*)(ProxyCCNode*, cocos2d::CCObject*), std::__ndk1::basic_string<char, std::__ndk1::char_traits<char>, std::__ndk1::allocator<char> > const&, tulip::hook::TulipConvention, tulip::hook::HookMetadata const&)
FUNC 24a348 4 0 geode::modifier::AsStaticFunction_setUserObject<ProxyCCNode, void (ProxyCCNode::*)(cocos2d::CCObject*)>::Impl<void (ProxyCCNode::*)(cocos2d::CCObject*)>::function(ProxyCCNode*, cocos2d::CCObject*)
FUNC 24a34c c4 0 geode::addresser::Addresser::addressOfVirtual<cocos2d::CCObject*, cocos2d::CCNode, >(cocos2d::CCObject* (cocos2d::CCNode::*)())
FUNC 24a410 ac 0 ProxyCCNode::getUserObject()
FUNC 24a4bc c4 0 geode::addresser::Addresser::addressOfVirtual<void, cocos2d::CCNode, cocos2d::CCObject*>(void (cocos2d::CCNode::*)(cocos2d::CCObject*))
FUNC 24a580 b4 0 ProxyCCNode::setUserObject(cocos2d::CCObject*)
FUNC 24a634 370 0 std::__ndk1::__hash_table<std::__ndk1::__hash_value_type<std::__ndk1::basic_string<char, std::__ndk1::char_traits<char>, std::__ndk1::allocator<char> >, unsigned int>, std::__ndk1::__unordered_map_hasher<std::__ndk1::basic_string<char, std::__ndk1::char_traits<char>, std::__ndk1::allocator<char> >, std::__ndk1::__hash_value_type<std::__ndk1::basic_string<char, std::__ndk1::char_traits<char>, std::__ndk1::allocator<char> >, unsigned int>, std::__ndk1::hash<std::__ndk1::basic_string<char, std::__ndk1::char_traits<char>, std::__ndk1::allocator<char> > >, std::__ndk1::equal_to<std::__ndk1::basic_string<char, std::__ndk1::char_traits<char>, std::__ndk1::allocator<char> > >, true>, std::__ndk1::__unordered_map_equal<std::__ndk1::basic_string<char, std::__ndk1::char_traits<char>, std::__ndk1::allocator<char> >, std::__ndk1::__hash_value_type<std::__ndk1::basic_string<char, std::__ndk1::char_traits<char>, std::__ndk1::allocator<char> >, unsigned int>, std::__ndk1::equal_to<std::__ndk1::basic_string<char, std::__ndk1::char_traits<char>, std::__ndk1::allocator<char> > >, std::__ndk1::hash<std::__ndk1::basic_string<char, std::__ndk1::char_traits<char>, std::__ndk1::allocator<char> > >, true>, std::__ndk1::allocator<std::__ndk1::__hash_value_type<std::__ndk1::basic_string<char, std::__ndk1::char_traits<char>, std::__ndk1::allocator<char> >, unsigned int> > >::__emplace_unique_key_args<std::__ndk1::basic_string<char, std::__ndk1::char_traits<char>, std::__ndk1::allocator<char> >, std::__ndk1::piecewise_construct_t const&, std::__ndk1::tuple<std::__ndk1::basic_string<char, std::__ndk1::char_traits<char>, std::__ndk1::allocator<char> >&&>, std::__ndk1::tuple<> >(std::__ndk1::basic_string<char, std::__ndk1::char_traits<char>, std::__ndk1::allocator<char> > const&, std::__ndk1::piecewise_construct_t const&, std::__ndk1::tuple<std::__ndk1::basic_string<char, std::__ndk1::char_traits<char>, std::__ndk1::allocator<char> >&&>, std::__ndk1::tuple<>)
FUNC 24a9a4 2a 0 std::__ndk1::unique_ptr<std::__ndk1::__hash_node<std::__ndk1::__hash_value_type<std::__ndk1::basic_string<char, std::__ndk1::char_traits<char>, std::__ndk1::allocator<char> >, unsigned int>, void*>, std::__ndk1::__hash_node_destructor<std::__ndk1::allocator<std::__ndk1::__hash_node<std::__ndk1::__hash_value_type<std::__ndk1::basic_string<char, std::__ndk1::char_traits<char>, std::__ndk1::allocator<char> >, unsigned int>, void*> > > >::~unique_ptr[abi:v170000]()
FUNC 24a9ce 10c 0 std::__ndk1::__hash_table<std::__ndk1::__hash_value_type<std::__ndk1::basic_string<char, std::__ndk1::char_traits<char>, std::__ndk1::allocator<char> >, unsigned int>, std::__ndk1::__unordered_map_hasher<std::__ndk1::basic_string<char, std::__ndk1::char_traits<char>, std::__ndk1::allocator<char> >, std::__ndk1::__hash_value_type<std::__ndk1::basic_string<char, std::__ndk1::char_traits<char>, std::__ndk1::allocator<char> >, unsigned int>, std::__ndk1::hash<std::__ndk1::basic_string<char, std::__ndk1::char_traits<char>, std::__ndk1::allocator<char> > >, std::__ndk1::equal_to<std::__ndk1::basic_string<char, std::__ndk1::char_traits<char>, std::__ndk1::allocator<char> > >, true>, std::__ndk1::__unordered_map_equal<std::__ndk1::basic_string<char, std::__ndk1::char_traits<char>, std::__ndk1::allocator<char> >, std::__ndk1::__hash_value_type<std::__ndk1::basic_string<char, std::__ndk1::char_traits<char>, std::__ndk1::allocator<char> >, unsigned int>, std::__ndk1::equal_to<std::__ndk1::basic_string<char, std::__ndk1::char_traits<char>, std::__ndk1::allocator<char> > >, std::__ndk1::hash<std::__ndk1::basic_string<char, std::__ndk1::char_traits<char>, std::__ndk1::allocator<char> > >, true>, std::__ndk1::allocator<std::__ndk1::__hash_value_type<std::__ndk1::basic_string<char, std::__ndk1::char_traits<char>, std::__ndk1::allocator<char> >, unsigned int> > >::__do_rehash<true>(unsigned int)
FUNC 24aadc 364 0 std::__ndk1::__hash_table<std::__ndk1::__hash_value_type<std::__ndk1::basic_string<char, std::__ndk1::char_traits<char>, std::__ndk1::allocator<char> >, geode::Ref<cocos2d::CCObject> >, std::__ndk1::__unordered_map_hasher<std::__ndk1::basic_string<char, std::__ndk1::char_traits<char>, std::__ndk1::allocator<char> >, std::__ndk1::__hash_value_type<std::__ndk1::basic_string<char, std::__ndk1::char_traits<char>, std::__ndk1::allocator<char> >, geode::Ref<cocos2d::CCObject> >, std::__ndk1::hash<std::__ndk1::basic_string<char, std::__ndk1::char_traits<char>, std::__ndk1::allocator<char> > >, std::__ndk1::equal_to<std::__ndk1::basic_string<char, std::__ndk1::char_traits<char>, std::__ndk1::allocator<char> > >, true>, std::__ndk1::__unordered_map_equal<std::__ndk1::basic_string<char, std::__ndk1::char_traits<char>, std::__ndk1::allocator<char> >, std::__ndk1::__hash_value_type<std::__ndk1::basic_string<char, std::__ndk1::char_traits<char>, std::__ndk1::allocator<char> >, geode::Ref<cocos2d::CCObject> >, std::__ndk1::equal_to<std::__ndk1::basic_string<char, std::__ndk1::char_traits<char>, std::__ndk1::allocator<char> > >, std::__ndk1::hash<std::__ndk1::basic_string<char, std::__ndk1::char_traits<char>, std::__ndk1::allocator<char> > >, true>, std::__ndk1::allocator<std::__ndk1::__hash_value_type<std::__ndk1::basic_string<char, std::__ndk1::char_traits<char>, std::__ndk1::allocator<char> >, geode::Ref<cocos2d::CCObject> > > >::__emplace_unique_key_args<std::__ndk1::basic_string<char, std::__ndk1::char_traits<char>, std::__ndk1::allocator<char> >, std::__ndk1::piecewise_construct_t const&, std::__ndk1::tuple<std::__ndk1::basic_string<char, std::__ndk1::char_traits<char>, std::__ndk1::allocator<char> > const&>, std::__ndk1::tuple<> >(std::__ndk1::basic_string<char, std::__ndk1::char_traits<char>, std::__ndk1::allocator<char> > const&, std::__ndk1::piecewise_construct_t const&, std::__ndk1::tuple<std::__ndk1::basic_string<char, std::__ndk1::char_traits<char>, std::__ndk1::allocator<char> > const&>, std::__ndk1::tuple<>)
FUNC 24ae40 96 0 std::__ndk1::__hash_table<std::__ndk1::__hash_value_type<std::__ndk1::basic_string<char, std::__ndk1::char_traits<char>, std::__ndk1::allocator<char> >, geode::Ref<cocos2d::CCObject> >, std::__ndk1::__unordered_map_hasher<std::__ndk1::basic_string<char, std::__ndk1::char_traits<char>, std::__ndk1::allocator<char> >, std::__ndk1::__hash_value_type<std::__ndk1::basic_string<char, std::__ndk1::char_traits<char>, std::__ndk1::allocator<char> >, geode::Ref<cocos2d::CCObject> >, std::__ndk1::hash<std::__ndk1::basic_string<char, std::__ndk1::char_traits<char>, std::__ndk1::allocator<char> > >, std::__ndk1::equal_to<std::__ndk1::basic_string<char, std::__ndk1::char_traits<char>, std::__ndk1::allocator<char> > >, true>, std::__ndk1::__unordered_map_equal<std::__ndk1::basic_string<char, std::__ndk1::char_traits<char>, std::__ndk1::allocator<char> >, std::__ndk1::__hash_value_type<std::__ndk1::basic_string<char, std::__ndk1::char_traits<char>, std::__ndk1::allocator<char> >, geode::Ref<cocos2d::CCObject> >, std::__ndk1::equal_to<std::__ndk1::basic_string<char, std::__ndk1::char_traits<char>, std::__ndk1::allocator<char> > >, std::__ndk1::hash<std::__ndk1::basic_string<char, std::__ndk1::char_traits<char>, std::__ndk1::allocator<char> > >, true>, std::__ndk1::allocator<std::__ndk1::__hash_value_type<std::__ndk1::basic_string<char, std::__ndk1::char_traits<char>, std::__ndk1::allocator<char> >, geode::Ref<cocos2d::CCObject> > > >::__construct_node_hash<std::__ndk1::piecewise_construct_t const&, std::__ndk1::tuple<std::__ndk1::basic_string<char, std::__ndk1::char_traits<char>, std::__ndk1::allocator<char> > const&>, std::__ndk1::tuple<> >(unsigned int, std::__ndk1::piecewise_construct_t const&, std::__ndk1::tuple<std::__ndk1::basic_string<char, std::__ndk1::char_traits<char>, std::__ndk1::allocator<char> > const&>&&, std::__ndk1::tuple<>)
FUNC 24aed6 172 0 std::__ndk1::__hash_table<std::__ndk1::__hash_value_type<std::__ndk1::basic_string<char, std::__ndk1::char_traits<char>, std::__ndk1::allocator<char> >, geode::Ref<cocos2d::CCObject> >, std::__ndk1::__unordered_map_hasher<std::__ndk1::basic_string<char, std::__ndk1::char_traits<char>, std::__ndk1::allocator<char> >, std::__ndk1::__hash_value_type<std::__ndk1::basic_string<char, std::__ndk1::char_traits<char>, std::__ndk1::allocator<char> >, geode::Ref<cocos2d::CCObject> >, std::__ndk1::hash<std::__ndk1::basic_string<char, std::__ndk1::char_traits<char>, std::__ndk1::allocator<char> > >, std::__ndk1::equal_to<std::__ndk1::basic_string<char, std::__ndk1::char_traits<char>, std::__ndk1::allocator<char> > >, true>, std::__ndk1::__unordered_map_equal<std::__ndk1::basic_string<char, std::__ndk1::char_traits<char>, std::__ndk1::allocator<char> >, std::__ndk1::__hash_value_type<std::__ndk1::basic_string<char, std::__ndk1::char_traits<char>, std::__ndk1::allocator<char> >, geode::Ref<cocos2d::CCObject> >, std::__ndk1::equal_to<std::__ndk1::basic_string<char, std::__ndk1::char_traits<char>, std::__ndk1::allocator<char> > >, std::__ndk1::hash<std::__ndk1::basic_string<char, std::__ndk1::char_traits<char>, std::__ndk1::allocator<char> > >, true>, std::__ndk1::allocator<std::__ndk1::__hash_value_type<std::__ndk1::basic_string<char, std::__ndk1::char_traits<char>, std::__ndk1::allocator<char> >, geode::Ref<cocos2d::CCObject> > > >::find<std::__ndk1::basic_string<char, std::__ndk1::char_traits<char>, std::__ndk1::allocator<char> > >(std::__ndk1::basic_string<char, std::__ndk1::char_traits<char>, std::__ndk1::allocator<char> > const&)
FUNC 24b048 68 0 std::__ndk1::__hash_table<std::__ndk1::__hash_value_type<std::__ndk1::basic_string<char, std::__ndk1::char_traits<char>, std::__ndk1::allocator<char> >, geode::Ref<cocos2d::CCObject> >, std::__ndk1::__unordered_map_hasher<std::__ndk1::basic_string<char, std::__ndk1::char_traits<char>, std::__ndk1::allocator<char> >, std::__ndk1::__hash_value_type<std::__ndk1::basic_string<char, std::__ndk1::char_traits<char>, std::__ndk1::allocator<char> >, geode::Ref<cocos2d::CCObject> >, std::__ndk1::hash<std::__ndk1::basic_string<char, std::__ndk1::char_traits<char>, std::__ndk1::allocator<char> > >, std::__ndk1::equal_to<std::__ndk1::basic_string<char, std::__ndk1::char_traits<char>, std::__ndk1::allocator<char> > >, true>, std::__ndk1::__unordered_map_equal<std::__ndk1::basic_string<char, std::__ndk1::char_traits<char>, std::__ndk1::allocator<char> >, std::__ndk1::__hash_value_type<std::__ndk1::basic_string<char, std::__ndk1::char_traits<char>, std::__ndk1::allocator<char> >, geode::Ref<cocos2d::CCObject> >, std::__ndk1::equal_to<std::__ndk1::basic_string<char, std::__ndk1::char_traits<char>, std::__ndk1::allocator<char> > >, std::__ndk1::hash<std::__ndk1::basic_string<char, std::__ndk1::char_traits<char>, std::__ndk1::allocator<char> > >, true>, std::__ndk1::allocator<std::__ndk1::__hash_value_type<std::__ndk1::basic_string<char, std::__ndk1::char_traits<char>, std::__ndk1::allocator<char> >, geode::Ref<cocos2d::CCObject> > > >::erase(std::__ndk1::__hash_const_iterator<std::__ndk1::__hash_node<std::__ndk1::__hash_value_type<std::__ndk1::basic_string<char, std::__ndk1::char_traits<char>, std::__ndk1::allocator<char> >, geode::Ref<cocos2d::CCObject> >, void*>*>)
FUNC 24b0b0 136 0 std::__ndk1::__hash_table<std::__ndk1::__hash_value_type<std::__ndk1::basic_string<char, std::__ndk1::char_traits<char>, std::__ndk1::allocator<char> >, geode::Ref<cocos2d::CCObject> >, std::__ndk1::__unordered_map_hasher<std::__ndk1::basic_string<char, std::__ndk1::char_traits<char>, std::__ndk1::allocator<char> >, std::__ndk1::__hash_value_type<std::__ndk1::basic_string<char, std::__ndk1::char_traits<char>, std::__ndk1::allocator<char> >, geode::Ref<cocos2d::CCObject> >, std::__ndk1::hash<std::__ndk1::basic_string<char, std::__ndk1::char_traits<char>, std::__ndk1::allocator<char> > >, std::__ndk1::equal_to<std::__ndk1::basic_string<char, std::__ndk1::char_traits<char>, std::__ndk1::allocator<char> > >, true>, std::__ndk1::__unordered_map_equal<std::__ndk1::basic_string<char, std::__ndk1::char_traits<char>, std::__ndk1::allocator<char> >, std::__ndk1::__hash_value_type<std::__ndk1::basic_string<char, std::__ndk1::char_traits<char>, std::__ndk1::allocator<char> >, geode::Ref<cocos2d::CCObject> >, std::__ndk1::equal_to<std::__ndk1::basic_string<char, std::__ndk1::char_traits<char>, std::__ndk1::allocator<char> > >, std::__ndk1::hash<std::__ndk1::basic_string<char, std::__ndk1::char_traits<char>, std::__ndk1::allocator<char> > >, true>, std::__ndk1::allocator<std::__ndk1::__hash_value_type<std::__ndk1::basic_string<char, std::__ndk1::char_traits<char>, std::__ndk1::allocator<char> >, geode::Ref<cocos2d::CCObject> > > >::remove(std::__ndk1::__hash_const_iterator<std::__ndk1::__hash_node<std::__ndk1::__hash_value_type<std::__ndk1::basic_string<char, std::__ndk1::char_traits<char>, std::__ndk1::allocator<char> >, geode::Ref<cocos2d::CCObject> >, void*>*>)
FUNC 24b1e6 172 0 std::__ndk1::__hash_table<std::__ndk1::__hash_value_type<std::__ndk1::basic_string<char, std::__ndk1::char_traits<char>, std::__ndk1::allocator<char> >, geode::Ref<cocos2d::CCObject> >, std::__ndk1::__unordered_map_hasher<std::__ndk1::basic_string<char, std::__ndk1::char_traits<char>, std::__ndk1::allocator<char> >, std::__ndk1::__hash_value_type<std::__ndk1::basic_string<char, std::__ndk1::char_traits<char>, std::__ndk1::allocator<char> >, geode::Ref<cocos2d::CCObject> >, std::__ndk1::hash<std::__ndk1::basic_string<char, std::__ndk1::char_traits<char>, std::__ndk1::allocator<char> > >, std::__ndk1::equal_to<std::__ndk1::basic_string<char, std::__ndk1::char_traits<char>, std::__ndk1::allocator<char> > >, true>, std::__ndk1::__unordered_map_equal<std::__ndk1::basic_string<char, std::__ndk1::char_traits<char>, std::__ndk1::allocator<char> >, std::__ndk1::__hash_value_type<std::__ndk1::basic_string<char, std::__ndk1::char_traits<char>, std::__ndk1::allocator<char> >, geode::Ref<cocos2d::CCObject> >, std::__ndk1::equal_to<std::__ndk1::basic_string<char, std::__ndk1::char_traits<char>, std::__ndk1::allocator<char> > >, std::__ndk1::hash<std::__ndk1::basic_string<char, std::__ndk1::char_traits<char>, std::__ndk1::allocator<char> > >, true>, std::__ndk1::allocator<std::__ndk1::__hash_value_type<std::__ndk1::basic_string<char, std::__ndk1::char_traits<char>, std::__ndk1::allocator<char> >, geode::Ref<cocos2d::CCObject> > > >::find<std::__ndk1::basic_string<char, std::__ndk1::char_traits<char>, std::__ndk1::allocator<char> > >(std::__ndk1::basic_string<char, std::__ndk1::char_traits<char>, std::__ndk1::allocator<char> > const&) const
FUNC 24b358 38 0 std::__ndk1::__throw_out_of_range[abi:v170000](char const*)
FUNC 24b390 172 0 std::__ndk1::__hash_table<std::__ndk1::__hash_value_type<std::__ndk1::basic_string<char, std::__ndk1::char_traits<char>, std::__ndk1::allocator<char> >, std::__ndk1::unique_ptr<geode::EventListenerProtocol, std::__ndk1::default_delete<geode::EventListenerProtocol> > >, std::__ndk1::__unordered_map_hasher<std::__ndk1::basic_string<char, std::__ndk1::char_traits<char>, std::__ndk1::allocator<char> >, std::__ndk1::__hash_value_type<std::__ndk1::basic_string<char, std::__ndk1::char_traits<char>, std::__ndk1::allocator<char> >, std::__ndk1::unique_ptr<geode::EventListenerProtocol, std::__ndk1::default_delete<geode::EventListenerProtocol> > >, std::__ndk1::hash<std::__ndk1::basic_string<char, std::__ndk1::char_traits<char>, std::__ndk1::allocator<char> > >, std::__ndk1::equal_to<std::__ndk1::basic_string<char, std::__ndk1::char_traits<char>, std::__ndk1::allocator<char> > >, true>, std::__ndk1::__unordered_map_equal<std::__ndk1::basic_string<char, std::__ndk1::char_traits<char>, std::__ndk1::allocator<char> >, std::__ndk1::__hash_value_type<std::__ndk1::basic_string<char, std::__ndk1::char_traits<char>, std::__ndk1::allocator<char> >, std::__ndk1::unique_ptr<geode::EventListenerProtocol, std::__ndk1::default_delete<geode::EventListenerProtocol> > >, std::__ndk1::equal_to<std::__ndk1::basic_string<char, std::__ndk1::char_traits<char>, std::__ndk1::allocator<char> > >, std::__ndk1::hash<std::__ndk1::basic_string<char, std::__ndk1::char_traits<char>, std::__ndk1::allocator<char> > >, true>, std::__ndk1::allocator<std::__ndk1::__hash_value_type<std::__ndk1::basic_string<char, std::__ndk1::char_traits<char>, std::__ndk1::allocator<char> >, std::__ndk1::unique_ptr<geode::EventListenerProtocol, std::__ndk1::default_delete<geode::EventListenerProtocol> > > > >::find<std::__ndk1::basic_string<char, std::__ndk1::char_traits<char>, std::__ndk1::allocator<char> > >(std::__ndk1::basic_string<char, std::__ndk1::char_traits<char>, std::__ndk1::allocator<char> > const&) const
FUNC 24b502 172 0 std::__ndk1::__hash_table<std::__ndk1::__hash_value_type<std::__ndk1::basic_string<char, std::__ndk1::char_traits<char>, std::__ndk1::allocator<char> >, std::__ndk1::unique_ptr<geode::EventListenerProtocol, std::__ndk1::default_delete<geode::EventListenerProtocol> > >, std::__ndk1::__unordered_map_hasher<std::__ndk1::basic_string<char, std::__ndk1::char_traits<char>, std::__ndk1::allocator<char> >, std::__ndk1::__hash_value_type<std::__ndk1::basic_string<char, std::__ndk1::char_traits<char>, std::__ndk1::allocator<char> >, std::__ndk1::unique_ptr<geode::EventListenerProtocol, std::__ndk1::default_delete<geode::EventListenerProtocol> > >, std::__ndk1::hash<std::__ndk1::basic_string<char, std::__ndk1::char_traits<char>, std::__ndk1::allocator<char> > >, std::__ndk1::equal_to<std::__ndk1::basic_string<char, std::__ndk1::char_traits<char>, std::__ndk1::allocator<char> > >, true>, std::__ndk1::__unordered_map_equal<std::__ndk1::basic_string<char, std::__ndk1::char_traits<char>, std::__ndk1::allocator<char> >, std::__ndk1::__hash_value_type<std::__ndk1::basic_string<char, std::__ndk1::char_traits<char>, std::__ndk1::allocator<char> >, std::__ndk1::unique_ptr<geode::EventListenerProtocol, std::__ndk1::default_delete<geode::EventListenerProtocol> > >, std::__ndk1::equal_to<std::__ndk1::basic_string<char, std::__ndk1::char_traits<char>, std::__ndk1::allocator<char> > >, std::__ndk1::hash<std::__ndk1::basic_string<char, std::__ndk1::char_traits<char>, std::__ndk1::allocator<char> > >, true>, std::__ndk1::allocator<std::__ndk1::__hash_value_type<std::__ndk1::basic_string<char, std::__ndk1::char_traits<char>, std::__ndk1::allocator<char> >, std::__ndk1::unique_ptr<geode::EventListenerProtocol, std::__ndk1::default_delete<geode::EventListenerProtocol> > > > >::find<std::__ndk1::basic_string<char, std::__ndk1::char_traits<char>, std::__ndk1::allocator<char> > >(std::__ndk1::basic_string<char, std::__ndk1::char_traits<char>, std::__ndk1::allocator<char> > const&)
FUNC 24b674 360 0 std::__ndk1::__hash_table<std::__ndk1::__hash_value_type<std::__ndk1::basic_string<char, std::__ndk1::char_traits<char>, std::__ndk1::allocator<char> >, std::__ndk1::unique_ptr<geode::EventListenerProtocol, std::__ndk1::default_delete<geode::EventListenerProtocol> > >, std::__ndk1::__unordered_map_hasher<std::__ndk1::basic_string<char, std::__ndk1::char_traits<char>, std::__ndk1::allocator<char> >, std::__ndk1::__hash_value_type<std::__ndk1::basic_string<char, std::__ndk1::char_traits<char>, std::__ndk1::allocator<char> >, std::__ndk1::unique_ptr<geode::EventListenerProtocol, std::__ndk1::default_delete<geode::EventListenerProtocol> > >, std::__ndk1::hash<std::__ndk1::basic_string<char, std::__ndk1::char_traits<char>, std::__ndk1::allocator<char> > >, std::__ndk1::equal_to<std::__ndk1::basic_string<char, std::__ndk1::char_traits<char>, std::__ndk1::allocator<char> > >, true>, std::__ndk1::__unordered_map_equal<std::__ndk1::basic_string<char, std::__ndk1::char_traits<char>, std::__ndk1::allocator<char> >, std::__ndk1::__hash_value_type<std::__ndk1::basic_string<char, std::__ndk1::char_traits<char>, std::__ndk1::allocator<char> >, std::__ndk1::unique_ptr<geode::EventListenerProtocol, std::__ndk1::default_delete<geode::EventListenerProtocol> > >, std::__ndk1::equal_to<std::__ndk1::basic_string<char, std::__ndk1::char_traits<char>, std::__ndk1::allocator<char> > >, std::__ndk1::hash<std::__ndk1::basic_string<char, std::__ndk1::char_traits<char>, std::__ndk1::allocator<char> > >, true>, std::__ndk1::allocator<std::__ndk1::__hash_value_type<std::__ndk1::basic_string<char, std::__ndk1::char_traits<char>, std::__ndk1::allocator<char> >, std::__ndk1::unique_ptr<geode::EventListenerProtocol, std::__ndk1::default_delete<geode::EventListenerProtocol> > > > >::__emplace_unique_key_args<std::__ndk1::basic_string<char, std::__ndk1::char_traits<char>, std::__ndk1::allocator<char> >, std::__ndk1::basic_string<char, std::__ndk1::char_traits<char>, std::__ndk1::allocator<char> > const&, geode::EventListenerProtocol*&>(std::__ndk1::basic_string<char, std::__ndk1::char_traits<char>, std::__ndk1::allocator<char> > const&, std::__ndk1::basic_string<char, std::__ndk1::char_traits<char>, std::__ndk1::allocator<char> > const&, geode::EventListenerProtocol*&)
FUNC 24b9d4 9a 0 std::__ndk1::__hash_table<std::__ndk1::__hash_value_type<std::__ndk1::basic_string<char, std::__ndk1::char_traits<char>, std::__ndk1::allocator<char> >, std::__ndk1::unique_ptr<geode::EventListenerProtocol, std::__ndk1::default_delete<geode::EventListenerProtocol> > >, std::__ndk1::__unordered_map_hasher<std::__ndk1::basic_string<char, std::__ndk1::char_traits<char>, std::__ndk1::allocator<char> >, std::__ndk1::__hash_value_type<std::__ndk1::basic_string<char, std::__ndk1::char_traits<char>, std::__ndk1::allocator<char> >, std::__ndk1::unique_ptr<geode::EventListenerProtocol, std::__ndk1::default_delete<geode::EventListenerProtocol> > >, std::__ndk1::hash<std::__ndk1::basic_string<char, std::__ndk1::char_traits<char>, std::__ndk1::allocator<char> > >, std::__ndk1::equal_to<std::__ndk1::basic_string<char, std::__ndk1::char_traits<char>, std::__ndk1::allocator<char> > >, true>, std::__ndk1::__unordered_map_equal<std::__ndk1::basic_string<char, std::__ndk1::char_traits<char>, std::__ndk1::allocator<char> >, std::__ndk1::__hash_value_type<std::__ndk1::basic_string<char, std::__ndk1::char_traits<char>, std::__ndk1::allocator<char> >, std::__ndk1::unique_ptr<geode::EventListenerProtocol, std::__ndk1::default_delete<geode::EventListenerProtocol> > >, std::__ndk1::equal_to<std::__ndk1::basic_string<char, std::__ndk1::char_traits<char>, std::__ndk1::allocator<char> > >, std::__ndk1::hash<std::__ndk1::basic_string<char, std::__ndk1::char_traits<char>, std::__ndk1::allocator<char> > >, true>, std::__ndk1::allocator<std::__ndk1::__hash_value_type<std::__ndk1::basic_string<char, std::__ndk1::char_traits<char>, std::__ndk1::allocator<char> >, std::__ndk1::unique_ptr<geode::EventListenerProtocol, std::__ndk1::default_delete<geode::EventListenerProtocol> > > > >::__construct_node_hash<std::__ndk1::basic_string<char, std::__ndk1::char_traits<char>, std::__ndk1::allocator<char> > const&, geode::EventListenerProtocol*&>(unsigned int, std::__ndk1::basic_string<char, std::__ndk1::char_traits<char>, std::__ndk1::allocator<char> > const&, geode::EventListenerProtocol*&)
FUNC 24ba6e 38 0 std::__ndk1::unique_ptr<std::__ndk1::__hash_node<std::__ndk1::__hash_value_type<std::__ndk1::basic_string<char, std::__ndk1::char_traits<char>, std::__ndk1::allocator<char> >, std::__ndk1::unique_ptr<geode::EventListenerProtocol, std::__ndk1::default_delete<geode::EventListenerProtocol> > >, void*>, std::__ndk1::__hash_node_destructor<std::__ndk1::allocator<std::__ndk1::__hash_node<std::__ndk1::__hash_value_type<std::__ndk1::basic_string<char, std::__ndk1::char_traits<char>, std::__ndk1::allocator<char> >, std::__ndk1::unique_ptr<geode::EventListenerProtocol, std::__ndk1::default_delete<geode::EventListenerProtocol> > >, void*> > > >::~unique_ptr[abi:v170000]()
FUNC 24baa6 10c 0 std::__ndk1::__hash_table<std::__ndk1::__hash_value_type<std::__ndk1::basic_string<char, std::__ndk1::char_traits<char>, std::__ndk1::allocator<char> >, std::__ndk1::unique_ptr<geode::EventListenerProtocol, std::__ndk1::default_delete<geode::EventListenerProtocol> > >, std::__ndk1::__unordered_map_hasher<std::__ndk1::basic_string<char, std::__ndk1::char_traits<char>, std::__ndk1::allocator<char> >, std::__ndk1::__hash_value_type<std::__ndk1::basic_string<char, std::__ndk1::char_traits<char>, std::__ndk1::allocator<char> >, std::__ndk1::unique_ptr<geode::EventListenerProtocol, std::__ndk1::default_delete<geode::EventListenerProtocol> > >, std::__ndk1::hash<std::__ndk1::basic_string<char, std::__ndk1::char_traits<char>, std::__ndk1::allocator<char> > >, std::__ndk1::equal_to<std::__ndk1::basic_string<char, std::__ndk1::char_traits<char>, std::__ndk1::allocator<char> > >, true>, std::__ndk1::__unordered_map_equal<std::__ndk1::basic_string<char, std::__ndk1::char_traits<char>, std::__ndk1::allocator<char> >, std::__ndk1::__hash_value_type<std::__ndk1::basic_string<char, std::__ndk1::char_traits<char>, std::__ndk1::allocator<char> >, std::__ndk1::unique_ptr<geode::EventListenerProtocol, std::__ndk1::default_delete<geode::EventListenerProtocol> > >, std::__ndk1::equal_to<std::__ndk1::basic_string<char, std::__ndk1::char_traits<char>, std::__ndk1::allocator<char> > >, std::__ndk1::hash<std::__ndk1::basic_string<char, std::__ndk1::char_traits<char>, std::__ndk1::allocator<char> > >, true>, std::__ndk1::allocator<std::__ndk1::__hash_value_type<std::__ndk1::basic_string<char, std::__ndk1::char_traits<char>, std::__ndk1::allocator<char> >, std::__ndk1::unique_ptr<geode::EventListenerProtocol, std::__ndk1::default_delete<geode::EventListenerProtocol> > > > >::__do_rehash<true>(unsigned int)
FUNC 24bbb2 136 0 std::__ndk1::__hash_table<std::__ndk1::unique_ptr<geode::EventListenerProtocol, std::__ndk1::default_delete<geode::EventListenerProtocol> >, std::__ndk1::hash<std::__ndk1::unique_ptr<geode::EventListenerProtocol, std::__ndk1::default_delete<geode::EventListenerProtocol> > >, std::__ndk1::equal_to<std::__ndk1::unique_ptr<geode::EventListenerProtocol, std::__ndk1::default_delete<geode::EventListenerProtocol> > >, std::__ndk1::allocator<std::__ndk1::unique_ptr<geode::EventListenerProtocol, std::__ndk1::default_delete<geode::EventListenerProtocol> > > >::remove(std::__ndk1::__hash_const_iterator<std::__ndk1::__hash_node<std::__ndk1::unique_ptr<geode::EventListenerProtocol, std::__ndk1::default_delete<geode::EventListenerProtocol> >, void*>*>)
FUNC 24bce8 2c 0 std::__ndk1::unique_ptr<std::__ndk1::__hash_node<std::__ndk1::unique_ptr<geode::EventListenerProtocol, std::__ndk1::default_delete<geode::EventListenerProtocol> >, void*>, std::__ndk1::__hash_node_destructor<std::__ndk1::allocator<std::__ndk1::__hash_node<std::__ndk1::unique_ptr<geode::EventListenerProtocol, std::__ndk1::default_delete<geode::EventListenerProtocol> >, void*> > > >::~unique_ptr[abi:v170000]()
FUNC 24bd14 b4 0 std::__ndk1::__hash_table<std::__ndk1::unique_ptr<geode::EventListenerProtocol, std::__ndk1::default_delete<geode::EventListenerProtocol> >, std::__ndk1::hash<std::__ndk1::unique_ptr<geode::EventListenerProtocol, std::__ndk1::default_delete<geode::EventListenerProtocol> > >, std::__ndk1::equal_to<std::__ndk1::unique_ptr<geode::EventListenerProtocol, std::__ndk1::default_delete<geode::EventListenerProtocol> > >, std::__ndk1::allocator<std::__ndk1::unique_ptr<geode::EventListenerProtocol, std::__ndk1::default_delete<geode::EventListenerProtocol> > > >::__emplace_unique_impl<geode::EventListenerProtocol*&>(geode::EventListenerProtocol*&)
FUNC 24bdc8 ec 0 std::__ndk1::__hash_table<std::__ndk1::unique_ptr<geode::EventListenerProtocol, std::__ndk1::default_delete<geode::EventListenerProtocol> >, std::__ndk1::hash<std::__ndk1::unique_ptr<geode::EventListenerProtocol, std::__ndk1::default_delete<geode::EventListenerProtocol> > >, std::__ndk1::equal_to<std::__ndk1::unique_ptr<geode::EventListenerProtocol, std::__ndk1::default_delete<geode::EventListenerProtocol> > >, std::__ndk1::allocator<std::__ndk1::unique_ptr<geode::EventListenerProtocol, std::__ndk1::default_delete<geode::EventListenerProtocol> > > >::__node_insert_unique(std::__ndk1::__hash_node<std::__ndk1::unique_ptr<geode::EventListenerProtocol, std::__ndk1::default_delete<geode::EventListenerProtocol> >, void*>*)
FUNC 24beb4 1bc 0 std::__ndk1::__hash_table<std::__ndk1::unique_ptr<geode::EventListenerProtocol, std::__ndk1::default_delete<geode::EventListenerProtocol> >, std::__ndk1::hash<std::__ndk1::unique_ptr<geode::EventListenerProtocol, std::__ndk1::default_delete<geode::EventListenerProtocol> > >, std::__ndk1::equal_to<std::__ndk1::unique_ptr<geode::EventListenerProtocol, std::__ndk1::default_delete<geode::EventListenerProtocol> > >, std::__ndk1::allocator<std::__ndk1::unique_ptr<geode::EventListenerProtocol, std::__ndk1::default_delete<geode::EventListenerProtocol> > > >::__node_insert_unique_prepare[abi:v170000](unsigned int, std::__ndk1::unique_ptr<geode::EventListenerProtocol, std::__ndk1::default_delete<geode::EventListenerProtocol> >&)
FUNC 24c070 10c 0 std::__ndk1::__hash_table<std::__ndk1::unique_ptr<geode::EventListenerProtocol, std::__ndk1::default_delete<geode::EventListenerProtocol> >, std::__ndk1::hash<std::__ndk1::unique_ptr<geode::EventListenerProtocol, std::__ndk1::default_delete<geode::EventListenerProtocol> > >, std::__ndk1::equal_to<std::__ndk1::unique_ptr<geode::EventListenerProtocol, std::__ndk1::default_delete<geode::EventListenerProtocol> > >, std::__ndk1::allocator<std::__ndk1::unique_ptr<geode::EventListenerProtocol, std::__ndk1::default_delete<geode::EventListenerProtocol> > > >::__do_rehash<true>(unsigned int)
FUNC 24c17c 136 0 std::__ndk1::__hash_table<std::__ndk1::__hash_value_type<std::__ndk1::basic_string<char, std::__ndk1::char_traits<char>, std::__ndk1::allocator<char> >, std::__ndk1::unique_ptr<geode::EventListenerProtocol, std::__ndk1::default_delete<geode::EventListenerProtocol> > >, std::__ndk1::__unordered_map_hasher<std::__ndk1::basic_string<char, std::__ndk1::char_traits<char>, std::__ndk1::allocator<char> >, std::__ndk1::__hash_value_type<std::__ndk1::basic_string<char, std::__ndk1::char_traits<char>, std::__ndk1::allocator<char> >, std::__ndk1::unique_ptr<geode::EventListenerProtocol, std::__ndk1::default_delete<geode::EventListenerProtocol> > >, std::__ndk1::hash<std::__ndk1::basic_string<char, std::__ndk1::char_traits<char>, std::__ndk1::allocator<char> > >, std::__ndk1::equal_to<std::__ndk1::basic_string<char, std::__ndk1::char_traits<char>, std::__ndk1::allocator<char> > >, true>, std::__ndk1::__unordered_map_equal<std::__ndk1::basic_string<char, std::__ndk1::char_traits<char>, std::__ndk1::allocator<char> >, std::__ndk1::__hash_value_type<std::__ndk1::basic_string<char, std::__ndk1::char_traits<char>, std::__ndk1::allocator<char> >, std::__ndk1::unique_ptr<geode::EventListenerProtocol, std::__ndk1::default_delete<geode::EventListenerProtocol> > >, std::__ndk1::equal_to<std::__ndk1::basic_string<char, std::__ndk1::char_traits<char>, std::__ndk1::allocator<char> > >, std::__ndk1::hash<std::__ndk1::basic_string<char, std::__ndk1::char_traits<char>, std::__ndk1::allocator<char> > >, true>, std::__ndk1::allocator<std::__ndk1::__hash_value_type<std::__ndk1::basic_string<char, std::__ndk1::char_traits<char>, std::__ndk1::allocator<char> >, std::__ndk1::unique_ptr<geode::EventListenerProtocol, std::__ndk1::default_delete<geode::EventListenerProtocol> > > > >::remove(std::__ndk1::__hash_const_iterator<std::__ndk1::__hash_node<std::__ndk1::__hash_value_type<std::__ndk1::basic_string<char, std::__ndk1::char_traits<char>, std::__ndk1::allocator<char> >, std::__ndk1::unique_ptr<geode::EventListenerProtocol, std::__ndk1::default_delete<geode::EventListenerProtocol> > >, void*>*>)
FUNC 24c2b4 78 0 std::__ndk1::__hash_table<std::__ndk1::__hash_value_type<std::__ndk1::basic_string<char, std::__ndk1::char_traits<char>, std::__ndk1::allocator<char> >, std::__ndk1::unique_ptr<geode::EventListenerProtocol, std::__ndk1::default_delete<geode::EventListenerProtocol> > >, std::__ndk1::__unordered_map_hasher<std::__ndk1::basic_string<char, std::__ndk1::char_traits<char>, std::__ndk1::allocator<char> >, std::__ndk1::__hash_value_type<std::__ndk1::basic_string<char, std::__ndk1::char_traits<char>, std::__ndk1::allocator<char> >, std::__ndk1::unique_ptr<geode::EventListenerProtocol, std::__ndk1::default_delete<geode::EventListenerProtocol> > >, std::__ndk1::hash<std::__ndk1::basic_string<char, std::__ndk1::char_traits<char>, std::__ndk1::allocator<char> > >, std::__ndk1::equal_to<std::__ndk1::basic_string<char, std::__ndk1::char_traits<char>, std::__ndk1::allocator<char> > >, true>, std::__ndk1::__unordered_map_equal<std::__ndk1::basic_string<char, std::__ndk1::char_traits<char>, std::__ndk1::allocator<char> >, std::__ndk1::__hash_value_type<std::__ndk1::basic_string<char, std::__ndk1::char_traits<char>, std::__ndk1::allocator<char> >, std::__ndk1::unique_ptr<geode::EventListenerProtocol, std::__ndk1::default_delete<geode::EventListenerProtocol> > >, std::__ndk1::equal_to<std::__ndk1::basic_string<char, std::__ndk1::char_traits<char>, std::__ndk1::allocator<char> > >, std::__ndk1::hash<std::__ndk1::basic_string<char, std::__ndk1::char_traits<char>, std::__ndk1::allocator<char> > >, true>, std::__ndk1::allocator<std::__ndk1::__hash_value_type<std::__ndk1::basic_string<char, std::__ndk1::char_traits<char>, std::__ndk1::allocator<char> >, std::__ndk1::unique_ptr<geode::EventListenerProtocol, std::__ndk1::default_delete<geode::EventListenerProtocol> > > > >::__erase_unique<std::__ndk1::basic_string<char, std::__ndk1::char_traits<char>, std::__ndk1::allocator<char> > >(std::__ndk1::basic_string<char, std::__ndk1::char_traits<char>, std::__ndk1::allocator<char> > const&)
FUNC 24c32c 34 0 _GLOBAL__sub_I_GeodeNodeMetadata.cpp
FUNC 24c360 58 0 __cxx_global_var_init
FUNC 24c3b8 20 0 geode::modifier::ModifyBase<geode::modifier::ModifyDerive<CustomLoadingLayer, LoadingLayer> >::~ModifyBase()
FUNC 24c3d8 58 0 __cxx_global_var_init.1
FUNC 24c430 20 0 geode::modifier::ModifyBase<geode::modifier::ModifyDerive<FallbackCustomLoadingLayer, cocos2d::CCLayer> >::~ModifyBase()
FUNC 24c450 318 0 geode::modifier::ModifyBase<geode::modifier::ModifyDerive<CustomLoadingLayer, LoadingLayer> >::ModifyBase()
FUNC 24c768 414 0 geode::modifier::ModifyDerive<CustomLoadingLayer, LoadingLayer>::apply()
FUNC 24cb7c 124 0 CustomLoadingLayer::onModify<geode::modifier::ModifyBase<geode::modifier::ModifyDerive<CustomLoadingLayer, LoadingLayer> > >(geode::modifier::ModifyBase<geode::modifier::ModifyDerive<CustomLoadingLayer, LoadingLayer> >&)
FUNC 24cca0 2 0 geode::modifier::ModifyBase<geode::modifier::ModifyDerive<CustomLoadingLayer, LoadingLayer> >::apply()
FUNC 24cca4 10c 0 geode::modifier::ModifyBase<geode::modifier::ModifyDerive<CustomLoadingLayer, LoadingLayer> >::setHookPriority(std::__ndk1::basic_string<char, std::__ndk1::char_traits<char>, std::__ndk1::allocator<char> > const&, int)
FUNC 24cdb0 84 0 std::__ndk1::map<std::__ndk1::basic_string<char, std::__ndk1::char_traits<char>, std::__ndk1::allocator<char> >, std::__ndk1::shared_ptr<geode::Hook>, std::__ndk1::less<std::__ndk1::basic_string<char, std::__ndk1::char_traits<char>, std::__ndk1::allocator<char> > >, std::__ndk1::allocator<std::__ndk1::pair<std::__ndk1::basic_string<char, std::__ndk1::char_traits<char>, std::__ndk1::allocator<char> > const, std::__ndk1::shared_ptr<geode::Hook> > > >::operator[](std::__ndk1::basic_string<char, std::__ndk1::char_traits<char>, std::__ndk1::allocator<char> > const&)
FUNC 24ce34 92 0 std::__ndk1::__tree<std::__ndk1::__value_type<std::__ndk1::basic_string<char, std::__ndk1::char_traits<char>, std::__ndk1::allocator<char> >, std::__ndk1::shared_ptr<geode::Hook> >, std::__ndk1::__map_value_compare<std::__ndk1::basic_string<char, std::__ndk1::char_traits<char>, std::__ndk1::allocator<char> >, std::__ndk1::__value_type<std::__ndk1::basic_string<char, std::__ndk1::char_traits<char>, std::__ndk1::allocator<char> >, std::__ndk1::shared_ptr<geode::Hook> >, std::__ndk1::less<std::__ndk1::basic_string<char, std::__ndk1::char_traits<char>, std::__ndk1::allocator<char> > >, true>, std::__ndk1::allocator<std::__ndk1::__value_type<std::__ndk1::basic_string<char, std::__ndk1::char_traits<char>, std::__ndk1::allocator<char> >, std::__ndk1::shared_ptr<geode::Hook> > > >::__construct_node<std::__ndk1::piecewise_construct_t const&, std::__ndk1::tuple<std::__ndk1::basic_string<char, std::__ndk1::char_traits<char>, std::__ndk1::allocator<char> > const&>, std::__ndk1::tuple<> >(std::__ndk1::piecewise_construct_t const&, std::__ndk1::tuple<std::__ndk1::basic_string<char, std::__ndk1::char_traits<char>, std::__ndk1::allocator<char> > const&>, std::__ndk1::tuple<>)
FUNC 24cec6 5c 0 std::__ndk1::unique_ptr<std::__ndk1::__tree_node<std::__ndk1::__value_type<std::__ndk1::basic_string<char, std::__ndk1::char_traits<char>, std::__ndk1::allocator<char> >, std::__ndk1::shared_ptr<geode::Hook> >, void*>, std::__ndk1::__tree_node_destructor<std::__ndk1::allocator<std::__ndk1::__tree_node<std::__ndk1::__value_type<std::__ndk1::basic_string<char, std::__ndk1::char_traits<char>, std::__ndk1::allocator<char> >, std::__ndk1::shared_ptr<geode::Hook> >, void*> > > >::~unique_ptr[abi:v170000]()
FUNC 24cf30 108 0 geode::Hook::create<bool (*)(CustomLoadingLayer*, bool)>(void*, bool (*)(CustomLoadingLayer*, bool), std::__ndk1::basic_string<char, std::__ndk1::char_traits<char>, std::__ndk1::allocator<char> > const&, tulip::hook::TulipConvention, tulip::hook::HookMetadata const&)
FUNC 24d038 4 0 geode::modifier::AsStaticFunction_init<CustomLoadingLayer, bool (CustomLoadingLayer::*)(bool)>::Impl<bool (CustomLoadingLayer::*)(bool)>::function(CustomLoadingLayer*, bool)
FUNC 24d03c cc 0 geode::Hook::create<void (*)(CustomLoadingLayer*)>(void*, void (*)(CustomLoadingLayer*), std::__ndk1::basic_string<char, std::__ndk1::char_traits<char>, std::__ndk1::allocator<char> > const&, tulip::hook::TulipConvention, tulip::hook::HookMetadata const&)
FUNC 24d108 4 0 geode::modifier::AsStaticFunction_loadAssets<CustomLoadingLayer, void (CustomLoadingLayer::*)()>::Impl<void (CustomLoadingLayer::*)()>::function(CustomLoadingLayer*)
FUNC 24d10c 25c 0 CustomLoadingLayer::init(bool)
FUNC 24d368 ec 0 geode::NodeIDs::provide<CustomLoadingLayer>(CustomLoadingLayer*) const
FUNC 24d454 172 0 std::__ndk1::__hash_table<std::__ndk1::__hash_value_type<std::__ndk1::basic_string<char, std::__ndk1::char_traits<char>, std::__ndk1::allocator<char> >, void (*)(cocos2d::CCNode*)>, std::__ndk1::__unordered_map_hasher<std::__ndk1::basic_string<char, std::__ndk1::char_traits<char>, std::__ndk1::allocator<char> >, std::__ndk1::__hash_value_type<std::__ndk1::basic_string<char, std::__ndk1::char_traits<char>, std::__ndk1::allocator<char> >, void (*)(cocos2d::CCNode*)>, std::__ndk1::hash<std::__ndk1::basic_string<char, std::__ndk1::char_traits<char>, std::__ndk1::allocator<char> > >, std::__ndk1::equal_to<std::__ndk1::basic_string<char, std::__ndk1::char_traits<char>, std::__ndk1::allocator<char> > >, true>, std::__ndk1::__unordered_map_equal<std::__ndk1::basic_string<char, std::__ndk1::char_traits<char>, std::__ndk1::allocator<char> >, std::__ndk1::__hash_value_type<std::__ndk1::basic_string<char, std::__ndk1::char_traits<char>, std::__ndk1::allocator<char> >, void (*)(cocos2d::CCNode*)>, std::__ndk1::equal_to<std::__ndk1::basic_string<char, std::__ndk1::char_traits<char>, std::__ndk1::allocator<char> > >, std::__ndk1::hash<std::__ndk1::basic_string<char, std::__ndk1::char_traits<char>, std::__ndk1::allocator<char> > >, true>, std::__ndk1::allocator<std::__ndk1::__hash_value_type<std::__ndk1::basic_string<char, std::__ndk1::char_traits<char>, std::__ndk1::allocator<char> >, void (*)(cocos2d::CCNode*)> > >::find<std::__ndk1::basic_string<char, std::__ndk1::char_traits<char>, std::__ndk1::allocator<char> > >(std::__ndk1::basic_string<char, std::__ndk1::char_traits<char>, std::__ndk1::allocator<char> > const&) const
FUNC 24d5c8 14c 0 geode::modifier::FieldIntermediate<CustomLoadingLayer, LoadingLayer>::operator CustomLoadingLayer*()
FUNC 24d714 190 0 geode::modifier::FieldContainer::getField(unsigned int)
FUNC 24d8a4 76 0 geode::modifier::FieldContainer::setField(unsigned int, unsigned int, geode::utils::MiniFunction<void (void*)>)
FUNC 24d91c 8c 0 geode::modifier::FieldIntermediate<CustomLoadingLayer, LoadingLayer>::fieldDestructor(void*)
FUNC 24d9a8 10 0 std::__ndk1::vector<void*, std::__ndk1::allocator<void*> >::__throw_length_error[abi:v170000]() const
FUNC 24d9b8 148 0 std::__ndk1::vector<geode::utils::MiniFunction<void (void*)>, std::__ndk1::allocator<geode::utils::MiniFunction<void (void*)> > >::__push_back_slow_path<geode::utils::MiniFunction<void (void*)> >(geode::utils::MiniFunction<void (void*)>&&)
FUNC 24db00 30 0 std::__ndk1::__split_buffer<geode::utils::MiniFunction<void (void*)>, std::__ndk1::allocator<geode::utils::MiniFunction<void (void*)> >&>::~__split_buffer()
FUNC 24db30 10 0 std::__ndk1::vector<geode::utils::MiniFunction<void (void*)>, std::__ndk1::allocator<geode::utils::MiniFunction<void (void*)> > >::__throw_length_error[abi:v170000]() const
FUNC 24db40 10 0 std::__ndk1::vector<void*, std::__ndk1::allocator<void*> >::__throw_out_of_range[abi:v170000]() const
FUNC 24db50 10 0 std::__ndk1::vector<geode::utils::MiniFunction<void (void*)>, std::__ndk1::allocator<geode::utils::MiniFunction<void (void*)> > >::__throw_out_of_range[abi:v170000]() const
FUNC 24db60 4c 0 geode::Modify<CustomLoadingLayer, LoadingLayer>::~Modify()
FUNC 24dbac 50 0 geode::Modify<CustomLoadingLayer, LoadingLayer>::~Modify()
FUNC 24dbfc 54 0 {virtual override thunk({offset(-264)}, geode::Modify<CustomLoadingLayer, LoadingLayer>::~Modify())}
FUNC 24dc50 58 0 {virtual override thunk({offset(-264)}, geode::Modify<CustomLoadingLayer, LoadingLayer>::~Modify())}
FUNC 24dca8 2 0 cocos2d::CCKeyboardDelegate::keyUp(cocos2d::enumKeyCodes)
FUNC 24dcaa 2 0 cocos2d::CCMouseDelegate::rightKeyDown()
FUNC 24dcac 2 0 cocos2d::CCMouseDelegate::rightKeyUp()
FUNC 24dcae 2 0 cocos2d::CCMouseDelegate::scrollWheel(float, float)
FUNC 24dcb0 2 0 geode::utils::MiniFunctionStateBase<void, void*>::~MiniFunctionStateBase()
FUNC 24dcb2 4 0 geode::utils::MiniFunctionState<void (*)(void*), void, void*>::~MiniFunctionState()
FUNC 24dcb6 6 0 geode::utils::MiniFunctionState<void (*)(void*), void, void*>::call(void*) const
FUNC 24dcbc 20 0 geode::utils::MiniFunctionState<void (*)(void*), void, void*>::clone() const
FUNC 24dcdc 140 0 CustomLoadingLayer::loadAssets()
FUNC 24de1c 98 0 CustomLoadingLayer::skipOnRefresh()
FUNC 24deb4 120 0 CustomLoadingLayer::setupLoadingMods()
FUNC 24dfd4 f0 0 CustomLoadingLayer::setupLoaderResources()
FUNC 24e0c4 108 0 CustomLoadingLayer::setupModResources()
FUNC 24e1cc 2 0 geode::utils::MiniFunctionStateBase<void, >::~MiniFunctionStateBase()
FUNC 24e1ce 4 0 geode::utils::MiniFunctionState<CustomLoadingLayer::continueLoadAssets()::{lambda()#1}, void, >::~MiniFunctionState()
FUNC 24e1d2 6 0 geode::utils::MiniFunctionState<CustomLoadingLayer::continueLoadAssets()::{lambda()#1}, void, >::call() const
FUNC 24e1d8 20 0 geode::utils::MiniFunctionState<CustomLoadingLayer::continueLoadAssets()::{lambda()#1}, void, >::clone() const
FUNC 24e1f8 178 0 CustomLoadingLayer::updateLoadedModsLabel()
FUNC 24e370 4 0 geode::utils::MiniFunctionState<CustomLoadingLayer::waitLoadAssets()::{lambda()#1}, void, >::~MiniFunctionState()
FUNC 24e374 6 0 geode::utils::MiniFunctionState<CustomLoadingLayer::waitLoadAssets()::{lambda()#1}, void, >::call() const
FUNC 24e37c 20 0 geode::utils::MiniFunctionState<CustomLoadingLayer::waitLoadAssets()::{lambda()#1}, void, >::clone() const
FUNC 24e39c 4 0 geode::utils::MiniFunctionState<CustomLoadingLayer::setupLoaderResources()::{lambda()#1}, void, >::~MiniFunctionState()
FUNC 24e3a0 6 0 geode::utils::MiniFunctionState<CustomLoadingLayer::setupLoaderResources()::{lambda()#1}, void, >::call() const
FUNC 24e3a8 20 0 geode::utils::MiniFunctionState<CustomLoadingLayer::setupLoaderResources()::{lambda()#1}, void, >::clone() const
FUNC 24e3c8 194 0 CustomLoadingLayer::setupLoaderResources()::{lambda()#1}::operator()() const
FUNC 24e55c 114 0 geode::EventListenerNode<geode::updater::ResourceDownloadFilter>::create<CustomLoadingLayer>(CustomLoadingLayer*, geode::to_member<CustomLoadingLayer, void (geode::updater::ResourceDownloadEvent*)>::value)
FUNC 24e670 54 0 CustomLoadingLayer::updateResourcesProgress(geode::updater::ResourceDownloadEvent*)
FUNC 24e6c4 b4 0 geode::EventListener<geode::updater::ResourceDownloadFilter>::EventListener<CustomLoadingLayer>(geode::to_member<CustomLoadingLayer, void (geode::updater::ResourceDownloadEvent*)>::value, geode::updater::ResourceDownloadFilter)
FUNC 24e778 2c 0 geode::EventListener<geode::updater::ResourceDownloadFilter>::~EventListener()
FUNC 24e7a4 2 0 geode::utils::MiniFunctionStateBase<void, geode::updater::ResourceDownloadEvent*>::~MiniFunctionStateBase()
FUNC 24e7a6 4 0 geode::utils::MiniFunctionState<std::__ndk1::__bind<void (CustomLoadingLayer::*&)(geode::updater::ResourceDownloadEvent*), CustomLoadingLayer*&, std::__ndk1::placeholders::__ph<1> const&>, void, geode::updater::ResourceDownloadEvent*>::~MiniFunctionState()
FUNC 24e7aa 14 0 geode::utils::MiniFunctionState<std::__ndk1::__bind<void (CustomLoadingLayer::*&)(geode::updater::ResourceDownloadEvent*), CustomLoadingLayer*&, std::__ndk1::placeholders::__ph<1> const&>, void, geode::updater::ResourceDownloadEvent*>::call(geode::updater::ResourceDownloadEvent*) const
FUNC 24e7c0 28 0 geode::utils::MiniFunctionState<std::__ndk1::__bind<void (CustomLoadingLayer::*&)(geode::updater::ResourceDownloadEvent*), CustomLoadingLayer*&, std::__ndk1::placeholders::__ph<1> const&>, void, geode::updater::ResourceDownloadEvent*>::clone() const
FUNC 24e7e8 4 0 geode::EventListener<geode::updater::ResourceDownloadFilter>::getPool() const
FUNC 24e7ec 44 0 geode::EventListener<geode::updater::ResourceDownloadFilter>::handle(geode::Event*)
FUNC 24e830 30 0 geode::EventListener<geode::updater::ResourceDownloadFilter>::~EventListener()
FUNC 24e860 48 0 geode::EventListenerNode<geode::updater::ResourceDownloadFilter>::~EventListenerNode()
FUNC 24e8a8 4c 0 geode::EventListenerNode<geode::updater::ResourceDownloadFilter>::~EventListenerNode()
FUNC 24e8f4 34 0 std::__ndk1::__throw_bad_variant_access[abi:v170000]()
FUNC 24e928 8 0 std::__ndk1::__variant_detail::__visitation::__base::__dispatcher<(unsigned int)0>::__dispatch[abi:v170000]<std::__ndk1::__variant_detail::__visitation::__variant::__value_visitor<geode::utils::makeVisitor<CustomLoadingLayer::updateResourcesProgress(std::__ndk1::__variant_detail::__visitation::__variant::__value_visitor::updater::ResourceDownloadEvent*)::{lambda(std::__ndk1::pair<unsigned char, std::__ndk1::basic_string<char, std::__ndk1::char_traits<char>, std::__ndk1::allocator<char> > > const&)#1}, geode::utils::makeVisitor::updateResourcesProgress(std::__ndk1::__variant_detail::__visitation::__variant::__value_visitor::updater::ResourceDownloadEvent)::{lambda(std::__ndk1::monostate)#1}, geode::utils::makeVisitor::updateResourcesProgress(std::__ndk1::__variant_detail::__visitation::__variant::__value_visitor::updater::ResourceDownloadEvent)::{lambda(std::__ndk1::allocator<char> const&)#1}> >&&, std::__ndk1::__variant_detail::__base<(std::__ndk1::__variant_detail::_Trait)1, CustomLoadingLayer::updateResourcesProgress(std::__ndk1::__variant_detail::__visitation::__variant::__value_visitor::updater::ResourceDownloadEvent*)::{lambda(std::__ndk1::pair<unsigned char, std::__ndk1::basic_string<char, std::__ndk1::char_traits<char>, std::__ndk1::allocator<char> > > const&)#1}, std::__ndk1::basic_string<char, std::__ndk1::char_traits<char>, std::__ndk1::allocator<char> >, std::__ndk1::allocator<char> > const&>(std::__ndk1::__variant_detail::__visitation::__variant::__value_visitor<geode::utils::makeVisitor<CustomLoadingLayer::updateResourcesProgress(std::__ndk1::__variant_detail::__visitation::__variant::__value_visitor::updater::ResourceDownloadEvent*)::{lambda(std::__ndk1::pair<unsigned char, std::__ndk1::basic_string<char, std::__ndk1::char_traits<char>, std::__ndk1::allocator<char> > > const&)#1}, geode::utils::makeVisitor::updateResourcesProgress(std::__ndk1::__variant_detail::__visitation::__variant::__value_visitor::updater::ResourceDownloadEvent)::{lambda(std::__ndk1::monostate)#1}, geode::utils::makeVisitor::updateResourcesProgress(std::__ndk1::__variant_detail::__visitation::__variant::__value_visitor::updater::ResourceDownloadEvent)::{lambda(std::__ndk1::allocator<char> const&)#1}> >&&, std::__ndk1::__variant_detail::__base<(std::__ndk1::__variant_detail::_Trait)1, CustomLoadingLayer::updateResourcesProgress(std::__ndk1::__variant_detail::__visitation::__variant::__value_visitor::updater::ResourceDownloadEvent*)::{lambda(std::__ndk1::pair<unsigned char, std::__ndk1::basic_string<char, std::__ndk1::char_traits<char>, std::__ndk1::allocator<char> > > const&)#1}, std::__ndk1::basic_string<char, std::__ndk1::char_traits<char>, std::__ndk1::allocator<char> >, std::__ndk1::allocator<char> > const&)
FUNC 24e930 4 0 std::__ndk1::__variant_detail::__visitation::__base::__dispatcher<(unsigned int)1>::__dispatch[abi:v170000]<std::__ndk1::__variant_detail::__visitation::__variant::__value_visitor<geode::utils::makeVisitor<CustomLoadingLayer::updateResourcesProgress(std::__ndk1::__variant_detail::__visitation::__variant::__value_visitor::updater::ResourceDownloadEvent*)::{lambda(std::__ndk1::pair<unsigned char, std::__ndk1::basic_string<char, std::__ndk1::char_traits<char>, std::__ndk1::allocator<char> > > const&)#1}, geode::utils::makeVisitor::updateResourcesProgress(std::__ndk1::__variant_detail::__visitation::__variant::__value_visitor::updater::ResourceDownloadEvent)::{lambda(std::__ndk1::monostate)#1}, geode::utils::makeVisitor::updateResourcesProgress(std::__ndk1::__variant_detail::__visitation::__variant::__value_visitor::updater::ResourceDownloadEvent)::{lambda(std::__ndk1::allocator<char> const&)#1}> >&&, std::__ndk1::__variant_detail::__base<(std::__ndk1::__variant_detail::_Trait)1, CustomLoadingLayer::updateResourcesProgress(std::__ndk1::__variant_detail::__visitation::__variant::__value_visitor::updater::ResourceDownloadEvent*)::{lambda(std::__ndk1::pair<unsigned char, std::__ndk1::basic_string<char, std::__ndk1::char_traits<char>, std::__ndk1::allocator<char> > > const&)#1}, std::__ndk1::basic_string<char, std::__ndk1::char_traits<char>, std::__ndk1::allocator<char> >, std::__ndk1::allocator<char> > const&>(std::__ndk1::__variant_detail::__visitation::__variant::__value_visitor<geode::utils::makeVisitor<CustomLoadingLayer::updateResourcesProgress(std::__ndk1::__variant_detail::__visitation::__variant::__value_visitor::updater::ResourceDownloadEvent*)::{lambda(std::__ndk1::pair<unsigned char, std::__ndk1::basic_string<char, std::__ndk1::char_traits<char>, std::__ndk1::allocator<char> > > const&)#1}, geode::utils::makeVisitor::updateResourcesProgress(std::__ndk1::__variant_detail::__visitation::__variant::__value_visitor::updater::ResourceDownloadEvent)::{lambda(std::__ndk1::monostate)#1}, geode::utils::makeVisitor::updateResourcesProgress(std::__ndk1::__variant_detail::__visitation::__variant::__value_visitor::updater::ResourceDownloadEvent)::{lambda(std::__ndk1::allocator<char> const&)#1}> >&&, std::__ndk1::__variant_detail::__base<(std::__ndk1::__variant_detail::_Trait)1, CustomLoadingLayer::updateResourcesProgress(std::__ndk1::__variant_detail::__visitation::__variant::__value_visitor::updater::ResourceDownloadEvent*)::{lambda(std::__ndk1::pair<unsigned char, std::__ndk1::basic_string<char, std::__ndk1::char_traits<char>, std::__ndk1::allocator<char> > > const&)#1}, std::__ndk1::basic_string<char, std::__ndk1::char_traits<char>, std::__ndk1::allocator<char> >, std::__ndk1::allocator<char> > const&)
FUNC 24e934 8 0 std::__ndk1::__variant_detail::__visitation::__base::__dispatcher<(unsigned int)2>::__dispatch[abi:v170000]<std::__ndk1::__variant_detail::__visitation::__variant::__value_visitor<geode::utils::makeVisitor<CustomLoadingLayer::updateResourcesProgress(std::__ndk1::__variant_detail::__visitation::__variant::__value_visitor::updater::ResourceDownloadEvent*)::{lambda(std::__ndk1::pair<unsigned char, std::__ndk1::basic_string<char, std::__ndk1::char_traits<char>, std::__ndk1::allocator<char> > > const&)#1}, geode::utils::makeVisitor::updateResourcesProgress(std::__ndk1::__variant_detail::__visitation::__variant::__value_visitor::updater::ResourceDownloadEvent)::{lambda(std::__ndk1::monostate)#1}, geode::utils::makeVisitor::updateResourcesProgress(std::__ndk1::__variant_detail::__visitation::__variant::__value_visitor::updater::ResourceDownloadEvent)::{lambda(std::__ndk1::allocator<char> const&)#1}> >&&, std::__ndk1::__variant_detail::__base<(std::__ndk1::__variant_detail::_Trait)1, CustomLoadingLayer::updateResourcesProgress(std::__ndk1::__variant_detail::__visitation::__variant::__value_visitor::updater::ResourceDownloadEvent*)::{lambda(std::__ndk1::pair<unsigned char, std::__ndk1::basic_string<char, std::__ndk1::char_traits<char>, std::__ndk1::allocator<char> > > const&)#1}, std::__ndk1::basic_string<char, std::__ndk1::char_traits<char>, std::__ndk1::allocator<char> >, std::__ndk1::allocator<char> > const&>(std::__ndk1::__variant_detail::__visitation::__variant::__value_visitor<geode::utils::makeVisitor<CustomLoadingLayer::updateResourcesProgress(std::__ndk1::__variant_detail::__visitation::__variant::__value_visitor::updater::ResourceDownloadEvent*)::{lambda(std::__ndk1::pair<unsigned char, std::__ndk1::basic_string<char, std::__ndk1::char_traits<char>, std::__ndk1::allocator<char> > > const&)#1}, geode::utils::makeVisitor::updateResourcesProgress(std::__ndk1::__variant_detail::__visitation::__variant::__value_visitor::updater::ResourceDownloadEvent)::{lambda(std::__ndk1::monostate)#1}, geode::utils::makeVisitor::updateResourcesProgress(std::__ndk1::__variant_detail::__visitation::__variant::__value_visitor::updater::ResourceDownloadEvent)::{lambda(std::__ndk1::allocator<char> const&)#1}> >&&, std::__ndk1::__variant_detail::__base<(std::__ndk1::__variant_detail::_Trait)1, CustomLoadingLayer::updateResourcesProgress(std::__ndk1::__variant_detail::__visitation::__variant::__value_visitor::updater::ResourceDownloadEvent*)::{lambda(std::__ndk1::pair<unsigned char, std::__ndk1::basic_string<char, std::__ndk1::char_traits<char>, std::__ndk1::allocator<char> > > const&)#1}, std::__ndk1::basic_string<char, std::__ndk1::char_traits<char>, std::__ndk1::allocator<char> >, std::__ndk1::allocator<char> > const&)
FUNC 24e93c 100 0 CustomLoadingLayer::updateResourcesProgress(geode::updater::ResourceDownloadEvent*)::{lambda(std::__ndk1::monostate(std::__ndk1::monostate))#1}::operator() const
FUNC 24ea3c a8 0 std::__ndk1::__variant_detail::__visitation::__variant::__value_visitor<geode::utils::makeVisitor<CustomLoadingLayer::updateResourcesProgress(geode::updater::ResourceDownloadEvent*)::{lambda(std::__ndk1::pair<unsigned char, std::__ndk1::basic_string<char, std::__ndk1::char_traits<char>, std::__ndk1::allocator<char> > > const&)#1}, CustomLoadingLayer::updateResourcesProgress(geode::updater::ResourceDownloadEvent*)::{lambda(std::__ndk1::monostate)#1}, CustomLoadingLayer::updateResourcesProgress(geode::updater::ResourceDownloadEvent*)::{lambda(std::__ndk1::basic_string<char, std::__ndk1::char_traits<char>, std::__ndk1::allocator<char> > const&)#1}> >::operator()[abi:v170000]<std::__ndk1::__variant_detail::__alt<(unsigned int)1, std::__ndk1::pair<unsigned char, std::__ndk1::basic_string<char, std::__ndk1::char_traits<char>, std::__ndk1::allocator<char> > > > const&>(std::__ndk1::__variant_detail::__alt<(unsigned int)1, std::__ndk1::pair<unsigned char, std::__ndk1::basic_string<char, std::__ndk1::char_traits<char>, std::__ndk1::allocator<char> > > > const&) const
FUNC 24eae4 1d0 0 CustomLoadingLayer::updateResourcesProgress(geode::updater::ResourceDownloadEvent*)::{lambda(std::__ndk1::basic_string<char, std::__ndk1::char_traits<char>, std::__ndk1::allocator<char> > const&)#1}::operator()(std::__ndk1::basic_string<char, std::__ndk1::char_traits<char>, std::__ndk1::allocator<char> > const&) const
FUNC 24ecb4 318 0 geode::modifier::ModifyBase<geode::modifier::ModifyDerive<FallbackCustomLoadingLayer, cocos2d::CCLayer> >::ModifyBase()
FUNC 24efcc 240 0 geode::modifier::ModifyDerive<FallbackCustomLoadingLayer, cocos2d::CCLayer>::apply()
FUNC 24f20c 110 0 FallbackCustomLoadingLayer::onModify<geode::modifier::ModifyBase<geode::modifier::ModifyDerive<FallbackCustomLoadingLayer, cocos2d::CCLayer> > >(geode::modifier::ModifyBase<geode::modifier::ModifyDerive<FallbackCustomLoadingLayer, cocos2d::CCLayer> >&)
FUNC 24f31c 2 0 geode::modifier::ModifyBase<geode::modifier::ModifyDerive<FallbackCustomLoadingLayer, cocos2d::CCLayer> >::apply()
FUNC 24f320 10c 0 geode::modifier::ModifyBase<geode::modifier::ModifyDerive<FallbackCustomLoadingLayer, cocos2d::CCLayer> >::setHookPriority(std::__ndk1::basic_string<char, std::__ndk1::char_traits<char>, std::__ndk1::allocator<char> > const&, int)
FUNC 24f42c 44 0 geode::addresser::getVirtual<bool (cocos2d::CCLayer::*)()>(bool (cocos2d::CCLayer::*)())
FUNC 24f470 cc 0 geode::Hook::create<bool (*)(FallbackCustomLoadingLayer*)>(void*, bool (*)(FallbackCustomLoadingLayer*), std::__ndk1::basic_string<char, std::__ndk1::char_traits<char>, std::__ndk1::allocator<char> > const&, tulip::hook::TulipConvention, tulip::hook::HookMetadata const&)
FUNC 24f53c 4 0 geode::modifier::AsStaticFunction_init<FallbackCustomLoadingLayer, bool (FallbackCustomLoadingLayer::*)()>::Impl<bool (FallbackCustomLoadingLayer::*)()>::function(FallbackCustomLoadingLayer*)
FUNC 24f540 64 0 geode::addresser::Addresser::cachedInstance<cocos2d::CCLayer>()
FUNC 24f5a4 60 0 cocos2d::CCLayer::CCLayer(geode::ZeroConstructorType)
FUNC 24f604 d4 0 FallbackCustomLoadingLayer::init()
FUNC 24f6d8 ec 0 geode::NodeIDs::provide<LoadingLayer>(LoadingLayer*) const
FUNC 24f7c4 16 0 geode::Ref<geode::Notification>::~Ref()
FUNC 24f7dc 58 0 __cxx_global_var_init.2
FUNC 24f834 20 0 geode::modifier::ModifyBase<geode::modifier::ModifyDerive<CustomMenuLayer, MenuLayer> >::~ModifyBase()
FUNC 24f854 5c 0 geodeExecFunction26<(anonymous namespace)::ExecFuncUnique26>()::{lambda(geode::IndexUpdateEvent*)#1}::__invoke(geode::IndexUpdateEvent*)
FUNC 24f8b0 a4 0 std::__ndk1::__variant_detail::__visitation::__base::__dispatcher<(unsigned int)0>::__dispatch[abi:v170000]<std::__ndk1::__variant_detail::__visitation::__variant::__value_visitor<geode::utils::makeVisitor<geodeExecFunction26<(anonymous namespace)::ExecFuncUnique26>()::{lambda(std::__ndk1::__variant_detail::__visitation::__variant::__value_visitor::IndexUpdateEvent*)#1}::operator()(std::__ndk1::__variant_detail::__visitation::__variant::__value_visitor::IndexUpdateEvent) const::{lambda(std::__ndk1::pair<unsigned char, std::__ndk1::basic_string<char, std::__ndk1::char_traits<char>, std::__ndk1::allocator<char> > > const&)#1}, geode::utils::makeVisitor<(anonymous namespace)>()::std::__ndk1::__variant_detail::__visitation::__variant::__value_visitor::IndexUpdateEvent*::operator()(std::__ndk1::__variant_detail::__visitation::__variant::__value_visitor::IndexUpdateEvent) const::{lambda(std::__ndk1::monostate const&)#1}, geode::utils::makeVisitor<(anonymous namespace)>()::std::__ndk1::__variant_detail::__visitation::__variant::__value_visitor::IndexUpdateEvent*::operator()(std::__ndk1::__variant_detail::__visitation::__variant::__value_visitor::IndexUpdateEvent) const::{lambda(std::__ndk1::allocator<char> const&)#1}> >&&, std::__ndk1::__variant_detail::__base<(std::__ndk1::__variant_detail::_Trait)1, geodeExecFunction26<(anonymous namespace)::ExecFuncUnique26>()::{lambda(std::__ndk1::__variant_detail::__visitation::__variant::__value_visitor::IndexUpdateEvent*)#1}::operator()(std::__ndk1::__variant_detail::__visitation::__variant::__value_visitor::IndexUpdateEvent) const::{lambda(std::__ndk1::pair<unsigned char, std::__ndk1::basic_string<char, std::__ndk1::char_traits<char>, std::__ndk1::allocator<char> > > const&)#1}, std::__ndk1::basic_string<char, std::__ndk1::char_traits<char>, std::__ndk1::allocator<char> >, std::__ndk1::allocator<char> > const&>(std::__ndk1::__variant_detail::__visitation::__variant::__value_visitor<geode::utils::makeVisitor<geodeExecFunction26<(anonymous namespace)::ExecFuncUnique26>()::{lambda(std::__ndk1::__variant_detail::__visitation::__variant::__value_visitor::IndexUpdateEvent*)#1}::operator()(std::__ndk1::__variant_detail::__visitation::__variant::__value_visitor::IndexUpdateEvent) const::{lambda(std::__ndk1::pair<unsigned char, std::__ndk1::basic_string<char, std::__ndk1::char_traits<char>, std::__ndk1::allocator<char> > > const&)#1}, geode::utils::makeVisitor<(anonymous namespace)>()::std::__ndk1::__variant_detail::__visitation::__variant::__value_visitor::IndexUpdateEvent*::operator()(std::__ndk1::__variant_detail::__visitation::__variant::__value_visitor::IndexUpdateEvent) const::{lambda(std::__ndk1::monostate const&)#1}, geode::utils::makeVisitor<(anonymous namespace)>()::std::__ndk1::__variant_detail::__visitation::__variant::__value_visitor::IndexUpdateEvent*::operator()(std::__ndk1::__variant_detail::__visitation::__variant::__value_visitor::IndexUpdateEvent) const::{lambda(std::__ndk1::allocator<char> const&)#1}> >&&, std::__ndk1::__variant_detail::__base<(std::__ndk1::__variant_detail::_Trait)1, geodeExecFunction26<(anonymous namespace)::ExecFuncUnique26>()::{lambda(std::__ndk1::__variant_detail::__visitation::__variant::__value_visitor::IndexUpdateEvent*)#1}::operator()(std::__ndk1::__variant_detail::__visitation::__variant::__value_visitor::IndexUpdateEvent) const::{lambda(std::__ndk1::pair<unsigned char, std::__ndk1::basic_string<char, std::__ndk1::char_traits<char>, std::__ndk1::allocator<char> > > const&)#1}, std::__ndk1::basic_string<char, std::__ndk1::char_traits<char>, std::__ndk1::allocator<char> >, std::__ndk1::allocator<char> > const&)
FUNC 24f954 2 0 std::__ndk1::__variant_detail::__visitation::__base::__dispatcher<(unsigned int)1>::__dispatch[abi:v170000]<std::__ndk1::__variant_detail::__visitation::__variant::__value_visitor<geode::utils::makeVisitor<geodeExecFunction26<(anonymous namespace)::ExecFuncUnique26>()::{lambda(std::__ndk1::__variant_detail::__visitation::__variant::__value_visitor::IndexUpdateEvent*)#1}::operator()(std::__ndk1::__variant_detail::__visitation::__variant::__value_visitor::IndexUpdateEvent) const::{lambda(std::__ndk1::pair<unsigned char, std::__ndk1::basic_string<char, std::__ndk1::char_traits<char>, std::__ndk1::allocator<char> > > const&)#1}, geode::utils::makeVisitor<(anonymous namespace)>()::std::__ndk1::__variant_detail::__visitation::__variant::__value_visitor::IndexUpdateEvent*::operator()(std::__ndk1::__variant_detail::__visitation::__variant::__value_visitor::IndexUpdateEvent) const::{lambda(std::__ndk1::monostate const&)#1}, geode::utils::makeVisitor<(anonymous namespace)>()::std::__ndk1::__variant_detail::__visitation::__variant::__value_visitor::IndexUpdateEvent*::operator()(std::__ndk1::__variant_detail::__visitation::__variant::__value_visitor::IndexUpdateEvent) const::{lambda(std::__ndk1::allocator<char> const&)#1}> >&&, std::__ndk1::__variant_detail::__base<(std::__ndk1::__variant_detail::_Trait)1, geodeExecFunction26<(anonymous namespace)::ExecFuncUnique26>()::{lambda(std::__ndk1::__variant_detail::__visitation::__variant::__value_visitor::IndexUpdateEvent*)#1}::operator()(std::__ndk1::__variant_detail::__visitation::__variant::__value_visitor::IndexUpdateEvent) const::{lambda(std::__ndk1::pair<unsigned char, std::__ndk1::basic_string<char, std::__ndk1::char_traits<char>, std::__ndk1::allocator<char> > > const&)#1}, std::__ndk1::basic_string<char, std::__ndk1::char_traits<char>, std::__ndk1::allocator<char> >, std::__ndk1::allocator<char> > const&>(std::__ndk1::__variant_detail::__visitation::__variant::__value_visitor<geode::utils::makeVisitor<geodeExecFunction26<(anonymous namespace)::ExecFuncUnique26>()::{lambda(std::__ndk1::__variant_detail::__visitation::__variant::__value_visitor::IndexUpdateEvent*)#1}::operator()(std::__ndk1::__variant_detail::__visitation::__variant::__value_visitor::IndexUpdateEvent) const::{lambda(std::__ndk1::pair<unsigned char, std::__ndk1::basic_string<char, std::__ndk1::char_traits<char>, std::__ndk1::allocator<char> > > const&)#1}, geode::utils::makeVisitor<(anonymous namespace)>()::std::__ndk1::__variant_detail::__visitation::__variant::__value_visitor::IndexUpdateEvent*::operator()(std::__ndk1::__variant_detail::__visitation::__variant::__value_visitor::IndexUpdateEvent) const::{lambda(std::__ndk1::monostate const&)#1}, geode::utils::makeVisitor<(anonymous namespace)>()::std::__ndk1::__variant_detail::__visitation::__variant::__value_visitor::IndexUpdateEvent*::operator()(std::__ndk1::__variant_detail::__visitation::__variant::__value_visitor::IndexUpdateEvent) const::{lambda(std::__ndk1::allocator<char> const&)#1}> >&&, std::__ndk1::__variant_detail::__base<(std::__ndk1::__variant_detail::_Trait)1, geodeExecFunction26<(anonymous namespace)::ExecFuncUnique26>()::{lambda(std::__ndk1::__variant_detail::__visitation::__variant::__value_visitor::IndexUpdateEvent*)#1}::operator()(std::__ndk1::__variant_detail::__visitation::__variant::__value_visitor::IndexUpdateEvent) const::{lambda(std::__ndk1::pair<unsigned char, std::__ndk1::basic_string<char, std::__ndk1::char_traits<char>, std::__ndk1::allocator<char> > > const&)#1}, std::__ndk1::basic_string<char, std::__ndk1::char_traits<char>, std::__ndk1::allocator<char> >, std::__ndk1::allocator<char> > const&)
FUNC 24f958 38 0 std::__ndk1::__variant_detail::__visitation::__base::__dispatcher<(unsigned int)2>::__dispatch[abi:v170000]<std::__ndk1::__variant_detail::__visitation::__variant::__value_visitor<geode::utils::makeVisitor<geodeExecFunction26<(anonymous namespace)::ExecFuncUnique26>()::{lambda(std::__ndk1::__variant_detail::__visitation::__variant::__value_visitor::IndexUpdateEvent*)#1}::operator()(std::__ndk1::__variant_detail::__visitation::__variant::__value_visitor::IndexUpdateEvent) const::{lambda(std::__ndk1::pair<unsigned char, std::__ndk1::basic_string<char, std::__ndk1::char_traits<char>, std::__ndk1::allocator<char> > > const&)#1}, geode::utils::makeVisitor<(anonymous namespace)>()::std::__ndk1::__variant_detail::__visitation::__variant::__value_visitor::IndexUpdateEvent*::operator()(std::__ndk1::__variant_detail::__visitation::__variant::__value_visitor::IndexUpdateEvent) const::{lambda(std::__ndk1::monostate const&)#1}, geode::utils::makeVisitor<(anonymous namespace)>()::std::__ndk1::__variant_detail::__visitation::__variant::__value_visitor::IndexUpdateEvent*::operator()(std::__ndk1::__variant_detail::__visitation::__variant::__value_visitor::IndexUpdateEvent) const::{lambda(std::__ndk1::allocator<char> const&)#1}> >&&, std::__ndk1::__variant_detail::__base<(std::__ndk1::__variant_detail::_Trait)1, geodeExecFunction26<(anonymous namespace)::ExecFuncUnique26>()::{lambda(std::__ndk1::__variant_detail::__visitation::__variant::__value_visitor::IndexUpdateEvent*)#1}::operator()(std::__ndk1::__variant_detail::__visitation::__variant::__value_visitor::IndexUpdateEvent) const::{lambda(std::__ndk1::pair<unsigned char, std::__ndk1::basic_string<char, std::__ndk1::char_traits<char>, std::__ndk1::allocator<char> > > const&)#1}, std::__ndk1::basic_string<char, std::__ndk1::char_traits<char>, std::__ndk1::allocator<char> >, std::__ndk1::allocator<char> > const&>(std::__ndk1::__variant_detail::__visitation::__variant::__value_visitor<geode::utils::makeVisitor<geodeExecFunction26<(anonymous namespace)::ExecFuncUnique26>()::{lambda(std::__ndk1::__variant_detail::__visitation::__variant::__value_visitor::IndexUpdateEvent*)#1}::operator()(std::__ndk1::__variant_detail::__visitation::__variant::__value_visitor::IndexUpdateEvent) const::{lambda(std::__ndk1::pair<unsigned char, std::__ndk1::basic_string<char, std::__ndk1::char_traits<char>, std::__ndk1::allocator<char> > > const&)#1}, geode::utils::makeVisitor<(anonymous namespace)>()::std::__ndk1::__variant_detail::__visitation::__variant::__value_visitor::IndexUpdateEvent*::operator()(std::__ndk1::__variant_detail::__visitation::__variant::__value_visitor::IndexUpdateEvent) const::{lambda(std::__ndk1::monostate const&)#1}, geode::utils::makeVisitor<(anonymous namespace)>()::std::__ndk1::__variant_detail::__visitation::__variant::__value_visitor::IndexUpdateEvent*::operator()(std::__ndk1::__variant_detail::__visitation::__variant::__value_visitor::IndexUpdateEvent) const::{lambda(std::__ndk1::allocator<char> const&)#1}> >&&, std::__ndk1::__variant_detail::__base<(std::__ndk1::__variant_detail::_Trait)1, geodeExecFunction26<(anonymous namespace)::ExecFuncUnique26>()::{lambda(std::__ndk1::__variant_detail::__visitation::__variant::__value_visitor::IndexUpdateEvent*)#1}::operator()(std::__ndk1::__variant_detail::__visitation::__variant::__value_visitor::IndexUpdateEvent) const::{lambda(std::__ndk1::pair<unsigned char, std::__ndk1::basic_string<char, std::__ndk1::char_traits<char>, std::__ndk1::allocator<char> > > const&)#1}, std::__ndk1::basic_string<char, std::__ndk1::char_traits<char>, std::__ndk1::allocator<char> >, std::__ndk1::allocator<char> > const&)
FUNC 24f990 4 0 geode::EventListener<geode::IndexUpdateFilter>::getPool() const
FUNC 24f994 a0 0 geode::EventListener<geode::IndexUpdateFilter>::handle(geode::Event*)
FUNC 24fa34 2c 0 geode::EventListener<geode::IndexUpdateFilter>::~EventListener()
FUNC 24fa60 30 0 geode::EventListener<geode::IndexUpdateFilter>::~EventListener()
FUNC 24fa90 4 0 geode::utils::MiniFunctionState<void (*)(geode::IndexUpdateEvent*), void, geode::IndexUpdateEvent*>::~MiniFunctionState()
FUNC 24fa94 6 0 geode::utils::MiniFunctionState<void (*)(geode::IndexUpdateEvent*), void, geode::IndexUpdateEvent*>::call(geode::IndexUpdateEvent*) const
FUNC 24fa9c 20 0 geode::utils::MiniFunctionState<void (*)(geode::IndexUpdateEvent*), void, geode::IndexUpdateEvent*>::clone() const
FUNC 24fabc 318 0 geode::modifier::ModifyBase<geode::modifier::ModifyDerive<CustomMenuLayer, MenuLayer> >::ModifyBase()
FUNC 24fdd4 23c 0 geode::modifier::ModifyDerive<CustomMenuLayer, MenuLayer>::apply()
FUNC 250010 128 0 CustomMenuLayer::onModify<geode::modifier::ModifyBase<geode::modifier::ModifyDerive<CustomMenuLayer, MenuLayer> > >(geode::modifier::ModifyBase<geode::modifier::ModifyDerive<CustomMenuLayer, MenuLayer> >&)
FUNC 250138 2 0 geode::modifier::ModifyBase<geode::modifier::ModifyDerive<CustomMenuLayer, MenuLayer> >::apply()
FUNC 25013c 10c 0 geode::modifier::ModifyBase<geode::modifier::ModifyDerive<CustomMenuLayer, MenuLayer> >::setHookPriority(std::__ndk1::basic_string<char, std::__ndk1::char_traits<char>, std::__ndk1::allocator<char> > const&, int)
FUNC 250248 44 0 geode::addresser::getVirtual<bool (MenuLayer::*)()>(bool (MenuLayer::*)())
FUNC 25028c cc 0 geode::Hook::create<bool (*)(CustomMenuLayer*)>(void*, bool (*)(CustomMenuLayer*), std::__ndk1::basic_string<char, std::__ndk1::char_traits<char>, std::__ndk1::allocator<char> > const&, tulip::hook::TulipConvention, tulip::hook::HookMetadata const&)
FUNC 250358 4 0 geode::modifier::AsStaticFunction_init<CustomMenuLayer, bool (CustomMenuLayer::*)()>::Impl<bool (CustomMenuLayer::*)()>::function(CustomMenuLayer*)
FUNC 25035c 64 0 geode::addresser::Addresser::cachedInstance<MenuLayer>()
FUNC 2503c0 6c 0 MenuLayer::MenuLayer(geode::ZeroConstructorType)
FUNC 25042c 758 0 CustomMenuLayer::init()
FUNC 250b84 4 0 CustomMenuLayer::onGeode(cocos2d::CCObject*)
FUNC 250b88 6c 0 CustomMenuLayer::onMissingTextures(cocos2d::CCObject*)
FUNC 250bf4 608 0 CustomMenuLayer::fixSocialMenu()
FUNC 2511fc a0 0 std::__ndk1::vector<geode::LoadProblem, std::__ndk1::allocator<geode::LoadProblem> >::~vector[abi:v170000]()
FUNC 25129c 114 0 geode::EventListenerNode<geode::IndexUpdateFilter>::create<CustomMenuLayer>(CustomMenuLayer*, geode::to_member<CustomMenuLayer, void (geode::IndexUpdateEvent*)>::value)
FUNC 2513b0 10 0 CustomMenuLayer::onIndexUpdate(geode::IndexUpdateEvent*)
FUNC 2513c0 d8 0 CustomMenuLayer::addUpdateIndicator()
FUNC 251498 d8 0 geode::NodeIDs::provide<CustomMenuLayer>(CustomMenuLayer*) const
FUNC 251570 150 0 geode::modifier::FieldIntermediate<CustomMenuLayer, MenuLayer>::operator CustomMenuLayer*()
FUNC 2516c0 90 0 geode::modifier::FieldIntermediate<CustomMenuLayer, MenuLayer>::fieldDestructor(void*)
FUNC 251750 58 0 geode::Modify<CustomMenuLayer, MenuLayer>::~Modify()
FUNC 2517a8 5c 0 geode::Modify<CustomMenuLayer, MenuLayer>::~Modify()
FUNC 251804 60 0 {virtual override thunk({offset(-264)}, geode::Modify<CustomMenuLayer, MenuLayer>::~Modify())}
FUNC 251864 64 0 {virtual override thunk({offset(-264)}, geode::Modify<CustomMenuLayer, MenuLayer>::~Modify())}
FUNC 2518c8 6 0 std::__ndk1::__variant_detail::__visitation::__base::__dispatcher<(unsigned int)0>::__dispatch[abi:v170000]<std::__ndk1::__variant_detail::__dtor<std::__ndk1::__variant_detail::__traits<ghc::filesystem::path, geode::ModMetadata, ghc::filesystem::path*::Mod>, (std::__ndk1::__variant_detail::_Trait)1>::__destroy[abi:v170000]()::{lambda(auto:1&)#1}, std::__ndk1::__variant_detail::__base<(std::__ndk1::__variant_detail::__traits<ghc::filesystem::path, geode::ModMetadata, ghc::filesystem::path*::Mod>)1, ghc::filesystem, geode, ghc::filesystem::path::Mod>&>(std::__ndk1::__variant_detail::__dtor<std::__ndk1::__variant_detail::__traits<ghc::filesystem::path, geode::ModMetadata, ghc::filesystem::path*::Mod>, (std::__ndk1::__variant_detail::_Trait)1>, std::__ndk1::__variant_detail::__base<(std::__ndk1::__variant_detail::__traits<ghc::filesystem::path, geode::ModMetadata, ghc::filesystem::path*::Mod>)1, ghc::filesystem, geode, ghc::filesystem::path::Mod>&)
FUNC 2518ce 6 0 std::__ndk1::__variant_detail::__visitation::__base::__dispatcher<(unsigned int)1>::__dispatch[abi:v170000]<std::__ndk1::__variant_detail::__dtor<std::__ndk1::__variant_detail::__traits<ghc::filesystem::path, geode::ModMetadata, ghc::filesystem::path*::Mod>, (std::__ndk1::__variant_detail::_Trait)1>::__destroy[abi:v170000]()::{lambda(auto:1&)#1}, std::__ndk1::__variant_detail::__base<(std::__ndk1::__variant_detail::__traits<ghc::filesystem::path, geode::ModMetadata, ghc::filesystem::path*::Mod>)1, ghc::filesystem, geode, ghc::filesystem::path::Mod>&>(std::__ndk1::__variant_detail::__dtor<std::__ndk1::__variant_detail::__traits<ghc::filesystem::path, geode::ModMetadata, ghc::filesystem::path*::Mod>, (std::__ndk1::__variant_detail::_Trait)1>, std::__ndk1::__variant_detail::__base<(std::__ndk1::__variant_detail::__traits<ghc::filesystem::path, geode::ModMetadata, ghc::filesystem::path*::Mod>)1, ghc::filesystem, geode, ghc::filesystem::path::Mod>&)
FUNC 2518d4 2 0 std::__ndk1::__variant_detail::__visitation::__base::__dispatcher<(unsigned int)2>::__dispatch[abi:v170000]<std::__ndk1::__variant_detail::__dtor<std::__ndk1::__variant_detail::__traits<ghc::filesystem::path, geode::ModMetadata, ghc::filesystem::path*::Mod>, (std::__ndk1::__variant_detail::_Trait)1>::__destroy[abi:v170000]()::{lambda(auto:1&)#1}, std::__ndk1::__variant_detail::__base<(std::__ndk1::__variant_detail::__traits<ghc::filesystem::path, geode::ModMetadata, ghc::filesystem::path*::Mod>)1, ghc::filesystem, geode, ghc::filesystem::path::Mod>&>(std::__ndk1::__variant_detail::__dtor<std::__ndk1::__variant_detail::__traits<ghc::filesystem::path, geode::ModMetadata, ghc::filesystem::path*::Mod>, (std::__ndk1::__variant_detail::_Trait)1>, std::__ndk1::__variant_detail::__base<(std::__ndk1::__variant_detail::__traits<ghc::filesystem::path, geode::ModMetadata, ghc::filesystem::path*::Mod>)1, ghc::filesystem, geode, ghc::filesystem::path::Mod>&)
FUNC 2518d6 2 0 geode::utils::MiniFunctionStateBase<void, FLAlertLayer*, bool>::~MiniFunctionStateBase()
FUNC 2518d8 4 0 geode::utils::MiniFunctionState<CustomMenuLayer::init()::{lambda(auto:1, bool)#1}, void, FLAlertLayer*, bool>::~MiniFunctionState()
FUNC 2518dc 50 0 geode::utils::MiniFunctionState<CustomMenuLayer::init()::{lambda(auto:1, bool)#1}, void, FLAlertLayer*, bool>::call(FLAlertLayer*, bool) const
FUNC 25192c 1c 0 geode::utils::MiniFunctionState<CustomMenuLayer::init()::{lambda(auto:1, bool)#1}, void, FLAlertLayer*, bool>::clone() const
FUNC 251948 b4 0 geode::EventListener<geode::IndexUpdateFilter>::EventListener<CustomMenuLayer>(geode::to_member<CustomMenuLayer, void (geode::IndexUpdateEvent*)>::value, geode::IndexUpdateFilter)
FUNC 2519fc 2 0 geode::utils::MiniFunctionStateBase<void, geode::IndexUpdateEvent*>::~MiniFunctionStateBase()
FUNC 2519fe 4 0 geode::utils::MiniFunctionState<std::__ndk1::__bind<void (CustomMenuLayer::*&)(geode::IndexUpdateEvent*), CustomMenuLayer*&, std::__ndk1::placeholders::__ph<1> const&>, void, geode::IndexUpdateEvent*>::~MiniFunctionState()
FUNC 251a02 14 0 geode::utils::MiniFunctionState<std::__ndk1::__bind<void (CustomMenuLayer::*&)(geode::IndexUpdateEvent*), CustomMenuLayer*&, std::__ndk1::placeholders::__ph<1> const&>, void, geode::IndexUpdateEvent*>::call(geode::IndexUpdateEvent*) const
FUNC 251a18 28 0 geode::utils::MiniFunctionState<std::__ndk1::__bind<void (CustomMenuLayer::*&)(geode::IndexUpdateEvent*), CustomMenuLayer*&, std::__ndk1::placeholders::__ph<1> const&>, void, geode::IndexUpdateEvent*>::clone() const
FUNC 251a40 48 0 geode::EventListenerNode<geode::IndexUpdateFilter>::~EventListenerNode()
FUNC 251a88 4c 0 geode::EventListenerNode<geode::IndexUpdateFilter>::~EventListenerNode()
FUNC 251ad4 b4 0 _GLOBAL__sub_I_MenuLayer.cpp
FUNC 251b88 58 0 __cxx_global_var_init
FUNC 251be0 20 0 geode::modifier::ModifyBase<geode::modifier::ModifyDerive<CustomProfilePage, ProfilePage> >::~ModifyBase()
FUNC 251c00 318 0 geode::modifier::ModifyBase<geode::modifier::ModifyDerive<CustomProfilePage, ProfilePage> >::ModifyBase()
FUNC 251f18 23c 0 geode::modifier::ModifyDerive<CustomProfilePage, ProfilePage>::apply()
FUNC 252154 8c 0 CustomProfilePage::onModify<geode::modifier::ModifyBase<geode::modifier::ModifyDerive<CustomProfilePage, ProfilePage> > >(geode::modifier::ModifyBase<geode::modifier::ModifyDerive<CustomProfilePage, ProfilePage> > const&)
FUNC 2521e0 2 0 geode::modifier::ModifyBase<geode::modifier::ModifyDerive<CustomProfilePage, ProfilePage> >::apply()
FUNC 2521e2 44 0 geode::addresser::getVirtual<void (ProfilePage::*)(GJUserScore*)>(void (ProfilePage::*)(GJUserScore*))
FUNC 252230 108 0 geode::Hook::create<void (*)(CustomProfilePage*, GJUserScore*)>(void*, void (*)(CustomProfilePage*, GJUserScore*), std::__ndk1::basic_string<char, std::__ndk1::char_traits<char>, std::__ndk1::allocator<char> > const&, tulip::hook::TulipConvention, tulip::hook::HookMetadata const&)
FUNC 252338 28 0 geode::modifier::AsStaticFunction_getUserInfoFinished<CustomProfilePage, void (CustomProfilePage::*)(GJUserScore*)>::Impl<void (CustomProfilePage::*)(GJUserScore*)>::function(CustomProfilePage*, GJUserScore*)
FUNC 252360 64 0 geode::addresser::Addresser::cachedInstance<ProfilePage>()
FUNC 2523c4 b4 0 ProfilePage::ProfilePage(geode::ZeroConstructorType)
FUNC 252478 58 0 __cxx_global_var_init
FUNC 2524d0 20 0 geode::modifier::ModifyBase<geode::modifier::ModifyDerive<SceneSwitch, AchievementNotifier> >::~ModifyBase()
FUNC 2524f0 318 0 geode::modifier::ModifyBase<geode::modifier::ModifyDerive<SceneSwitch, AchievementNotifier> >::ModifyBase()
FUNC 252808 260 0 geode::modifier::ModifyDerive<SceneSwitch, AchievementNotifier>::apply()
FUNC 252a68 8c 0 SceneSwitch::onModify<geode::modifier::ModifyBase<geode::modifier::ModifyDerive<SceneSwitch, AchievementNotifier> > >(geode::modifier::ModifyBase<geode::modifier::ModifyDerive<SceneSwitch, AchievementNotifier> > const&)
FUNC 252af4 2 0 geode::modifier::ModifyBase<geode::modifier::ModifyDerive<SceneSwitch, AchievementNotifier> >::apply()
FUNC 252b00 108 0 geode::Hook::create<void (*)(SceneSwitch*, cocos2d::CCScene*)>(void*, void (*)(SceneSwitch*, cocos2d::CCScene*), std::__ndk1::basic_string<char, std::__ndk1::char_traits<char>, std::__ndk1::allocator<char> > const&, tulip::hook::TulipConvention, tulip::hook::HookMetadata const&)
FUNC 252c08 18 0 geode::modifier::AsStaticFunction_willSwitchToScene<SceneSwitch, void (SceneSwitch::*)(cocos2d::CCScene*)>::Impl<void (SceneSwitch::*)(cocos2d::CCScene*)>::function(SceneSwitch*, cocos2d::CCScene*)
FUNC 252c20 58 0 __cxx_global_var_init
FUNC 252c78 20 0 geode::modifier::ModifyBase<geode::modifier::ModifyDerive<SaveLoader, AppDelegate> >::~ModifyBase()
FUNC 252c98 58 0 __cxx_global_var_init.1
FUNC 252cf0 20 0 geode::modifier::ModifyBase<geode::modifier::ModifyDerive<FileOperationOverride, FileOperation> >::~ModifyBase()
FUNC 252d10 318 0 geode::modifier::ModifyBase<geode::modifier::ModifyDerive<SaveLoader, AppDelegate> >::ModifyBase()
FUNC 253028 23c 0 geode::modifier::ModifyDerive<SaveLoader, AppDelegate>::apply()
FUNC 253264 8c 0 SaveLoader::onModify<geode::modifier::ModifyBase<geode::modifier::ModifyDerive<SaveLoader, AppDelegate> > >(geode::modifier::ModifyBase<geode::modifier::ModifyDerive<SaveLoader, AppDelegate> > const&)
FUNC 2532f0 2 0 geode::modifier::ModifyBase<geode::modifier::ModifyDerive<SaveLoader, AppDelegate> >::apply()
FUNC 253300 108 0 geode::Hook::create<void (*)(SaveLoader*, bool)>(void*, void (*)(SaveLoader*, bool), std::__ndk1::basic_string<char, std::__ndk1::char_traits<char>, std::__ndk1::allocator<char> > const&, tulip::hook::TulipConvention, tulip::hook::HookMetadata const&)
FUNC 253408 4 0 geode::modifier::AsStaticFunction_trySaveGame<SaveLoader, void (SaveLoader::*)(bool)>::Impl<void (SaveLoader::*)(bool)>::function(SaveLoader*, bool)
FUNC 25340c a8 0 geode::addresser::Addresser::addressOfVirtual<void, AppDelegate, bool>(void (AppDelegate::*)(bool))
FUNC 2534b4 e4 0 SaveLoader::trySaveGame(bool)
FUNC 253598 310 0 geode::modifier::ModifyBase<geode::modifier::ModifyDerive<FileOperationOverride, FileOperation> >::ModifyBase()
FUNC 2538a8 248 0 geode::modifier::ModifyDerive<FileOperationOverride, FileOperation>::apply()
FUNC 253af0 2 0 geode::modifier::ModifyBase<geode::modifier::ModifyDerive<FileOperationOverride, FileOperation> >::apply()
FUNC 253af4 cc 0 geode::Hook::create<gd::string (*)(FileOperationOverride*)>(void*, gd::string (*)(FileOperationOverride*), std::__ndk1::basic_string<char, std::__ndk1::char_traits<char>, std::__ndk1::allocator<char> > const&, tulip::hook::TulipConvention, tulip::hook::HookMetadata const&)
FUNC 253bc0 a 0 geode::modifier::AsStaticFunction_getFilePath<FileOperationOverride, gd::string (FileOperationOverride::*)()>::Impl<gd::string (FileOperationOverride::*)()>::function(FileOperationOverride*)
FUNC 253bcc b8 0 FileOperationOverride::getFilePath()
FUNC 253c84 58 0 __cxx_global_var_init
FUNC 253cdc 20 0 geode::modifier::ModifyBase<geode::modifier::ModifyDerive<FunctionQueue, cocos2d::CCScheduler> >::~ModifyBase()
FUNC 253cfc 310 0 geode::modifier::ModifyBase<geode::modifier::ModifyDerive<FunctionQueue, cocos2d::CCScheduler> >::ModifyBase()
FUNC 25400c 240 0 geode::modifier::ModifyDerive<FunctionQueue, cocos2d::CCScheduler>::apply()
FUNC 25424c 2 0 geode::modifier::ModifyBase<geode::modifier::ModifyDerive<FunctionQueue, cocos2d::CCScheduler> >::apply()
FUNC 254250 108 0 geode::Hook::create<void (*)(FunctionQueue*, float)>(void*, void (*)(FunctionQueue*, float), std::__ndk1::basic_string<char, std::__ndk1::char_traits<char>, std::__ndk1::allocator<char> > const&, tulip::hook::TulipConvention, tulip::hook::HookMetadata const&)
FUNC 254358 1c 0 geode::modifier::AsStaticFunction_update<FunctionQueue, void (FunctionQueue::*)(float)>::Impl<void (FunctionQueue::*)(float)>::function(FunctionQueue*, float)
FUNC 254374 b4 0 geode::addresser::Addresser::addressOfVirtual<void, cocos2d::CCScheduler, float>(void (cocos2d::CCScheduler::*)(float))
FUNC 254428 6c 0 geode::NodeIDs::get()
FUNC 254494 88 0 ProvideIDsForLoadingLayer::provide()
FUNC 25451c 1e4 0 geode::geodeInternalProvideIDsFor<ProvideIDsForLoadingLayer>(ProvideIDsForLoadingLayer*)
FUNC 254700 35c 0 std::__ndk1::__hash_table<std::__ndk1::__hash_value_type<std::__ndk1::basic_string<char, std::__ndk1::char_traits<char>, std::__ndk1::allocator<char> >, void (*)(cocos2d::CCNode*)>, std::__ndk1::__unordered_map_hasher<std::__ndk1::basic_string<char, std::__ndk1::char_traits<char>, std::__ndk1::allocator<char> >, std::__ndk1::__hash_value_type<std::__ndk1::basic_string<char, std::__ndk1::char_traits<char>, std::__ndk1::allocator<char> >, void (*)(cocos2d::CCNode*)>, std::__ndk1::hash<std::__ndk1::basic_string<char, std::__ndk1::char_traits<char>, std::__ndk1::allocator<char> > >, std::__ndk1::equal_to<std::__ndk1::basic_string<char, std::__ndk1::char_traits<char>, std::__ndk1::allocator<char> > >, true>, std::__ndk1::__unordered_map_equal<std::__ndk1::basic_string<char, std::__ndk1::char_traits<char>, std::__ndk1::allocator<char> >, std::__ndk1::__hash_value_type<std::__ndk1::basic_string<char, std::__ndk1::char_traits<char>, std::__ndk1::allocator<char> >, void (*)(cocos2d::CCNode*)>, std::__ndk1::equal_to<std::__ndk1::basic_string<char, std::__ndk1::char_traits<char>, std::__ndk1::allocator<char> > >, std::__ndk1::hash<std::__ndk1::basic_string<char, std::__ndk1::char_traits<char>, std::__ndk1::allocator<char> > >, true>, std::__ndk1::allocator<std::__ndk1::__hash_value_type<std::__ndk1::basic_string<char, std::__ndk1::char_traits<char>, std::__ndk1::allocator<char> >, void (*)(cocos2d::CCNode*)> > >::__emplace_unique_key_args<std::__ndk1::basic_string<char, std::__ndk1::char_traits<char>, std::__ndk1::allocator<char> >, std::__ndk1::pair<std::__ndk1::basic_string<char, std::__ndk1::char_traits<char>, std::__ndk1::allocator<char> > const, void (*)(cocos2d::CCNode*)> >(std::__ndk1::basic_string<char, std::__ndk1::char_traits<char>, std::__ndk1::allocator<char> > const&, std::__ndk1::pair<std::__ndk1::basic_string<char, std::__ndk1::char_traits<char>, std::__ndk1::allocator<char> > const, void (*)(cocos2d::CCNode*)>&&)
FUNC 254a5c 9e 0 std::__ndk1::__hash_table<std::__ndk1::__hash_value_type<std::__ndk1::basic_string<char, std::__ndk1::char_traits<char>, std::__ndk1::allocator<char> >, void (*)(cocos2d::CCNode*)>, std::__ndk1::__unordered_map_hasher<std::__ndk1::basic_string<char, std::__ndk1::char_traits<char>, std::__ndk1::allocator<char> >, std::__ndk1::__hash_value_type<std::__ndk1::basic_string<char, std::__ndk1::char_traits<char>, std::__ndk1::allocator<char> >, void (*)(cocos2d::CCNode*)>, std::__ndk1::hash<std::__ndk1::basic_string<char, std::__ndk1::char_traits<char>, std::__ndk1::allocator<char> > >, std::__ndk1::equal_to<std::__ndk1::basic_string<char, std::__ndk1::char_traits<char>, std::__ndk1::allocator<char> > >, true>, std::__ndk1::__unordered_map_equal<std::__ndk1::basic_string<char, std::__ndk1::char_traits<char>, std::__ndk1::allocator<char> >, std::__ndk1::__hash_value_type<std::__ndk1::basic_string<char, std::__ndk1::char_traits<char>, std::__ndk1::allocator<char> >, void (*)(cocos2d::CCNode*)>, std::__ndk1::equal_to<std::__ndk1::basic_string<char, std::__ndk1::char_traits<char>, std::__ndk1::allocator<char> > >, std::__ndk1::hash<std::__ndk1::basic_string<char, std::__ndk1::char_traits<char>, std::__ndk1::allocator<char> > >, true>, std::__ndk1::allocator<std::__ndk1::__hash_value_type<std::__ndk1::basic_string<char, std::__ndk1::char_traits<char>, std::__ndk1::allocator<char> >, void (*)(cocos2d::CCNode*)> > >::__construct_node_hash<std::__ndk1::pair<std::__ndk1::basic_string<char, std::__ndk1::char_traits<char>, std::__ndk1::allocator<char> > const, void (*)(cocos2d::CCNode*)>, >(unsigned int, std::__ndk1::pair<std::__ndk1::basic_string<char, std::__ndk1::char_traits<char>, std::__ndk1::allocator<char> > const, void (*)(cocos2d::CCNode*)>&&, &&)
FUNC 254afa 2a 0 std::__ndk1::unique_ptr<std::__ndk1::__hash_node<std::__ndk1::__hash_value_type<std::__ndk1::basic_string<char, std::__ndk1::char_traits<char>, std::__ndk1::allocator<char> >, void (*)(cocos2d::CCNode*)>, void*>, std::__ndk1::__hash_node_destructor<std::__ndk1::allocator<std::__ndk1::__hash_node<std::__ndk1::__hash_value_type<std::__ndk1::basic_string<char, std::__ndk1::char_traits<char>, std::__ndk1::allocator<char> >, void (*)(cocos2d::CCNode*)>, void*> > > >::~unique_ptr[abi:v170000]()
FUNC 254b24 10c 0 std::__ndk1::__hash_table<std::__ndk1::__hash_value_type<std::__ndk1::basic_string<char, std::__ndk1::char_traits<char>, std::__ndk1::allocator<char> >, void (*)(cocos2d::CCNode*)>, std::__ndk1::__unordered_map_hasher<std::__ndk1::basic_string<char, std::__ndk1::char_traits<char>, std::__ndk1::allocator<char> >, std::__ndk1::__hash_value_type<std::__ndk1::basic_string<char, std::__ndk1::char_traits<char>, std::__ndk1::allocator<char> >, void (*)(cocos2d::CCNode*)>, std::__ndk1::hash<std::__ndk1::basic_string<char, std::__ndk1::char_traits<char>, std::__ndk1::allocator<char> > >, std::__ndk1::equal_to<std::__ndk1::basic_string<char, std::__ndk1::char_traits<char>, std::__ndk1::allocator<char> > >, true>, std::__ndk1::__unordered_map_equal<std::__ndk1::basic_string<char, std::__ndk1::char_traits<char>, std::__ndk1::allocator<char> >, std::__ndk1::__hash_value_type<std::__ndk1::basic_string<char, std::__ndk1::char_traits<char>, std::__ndk1::allocator<char> >, void (*)(cocos2d::CCNode*)>, std::__ndk1::equal_to<std::__ndk1::basic_string<char, std::__ndk1::char_traits<char>, std::__ndk1::allocator<char> > >, std::__ndk1::hash<std::__ndk1::basic_string<char, std::__ndk1::char_traits<char>, std::__ndk1::allocator<char> > >, true>, std::__ndk1::allocator<std::__ndk1::__hash_value_type<std::__ndk1::basic_string<char, std::__ndk1::char_traits<char>, std::__ndk1::allocator<char> >, void (*)(cocos2d::CCNode*)> > >::__do_rehash<true>(unsigned int)
FUNC 254c30 30 0 geode::EnterLayerEvent<ProvideIDsForLoadingLayer>::~EnterLayerEvent()
FUNC 254c60 2c 0 geode::AEnterLayerEvent::~AEnterLayerEvent()
FUNC 254c8c 30 0 geode::AEnterLayerEvent::~AEnterLayerEvent()
FUNC 254cbc ec 0 geode::node_ids::setIDSafe<cocos2d::CCNode>(cocos2d::CCNode*, int, char const*)
FUNC 254da8 9c 0 _GLOBAL__sub_I_LoadingLayer.cpp
FUNC 254e44 8e0 0 ProvideIDsForMenuLayer::provide()
FUNC 255724 17c 0 geode::node_ids::setIDSafe<cocos2d::CCSprite>(cocos2d::CCNode*, int, char const*)
FUNC 2558a0 17c 0 geode::node_ids::setIDSafe<cocos2d::CCLabelBMFont>(cocos2d::CCNode*, int, char const*)
FUNC 255a1c 164 0 geode::node_ids::detachAndCreateMenu<cocos2d::CCNode*, >(cocos2d::CCNode*, char const*, cocos2d::Layout*, cocos2d::CCNode*, )
FUNC 255b80 154 0 geode::geodeInternalProvideIDsFor<ProvideIDsForMenuLayer>(ProvideIDsForMenuLayer*)
FUNC 255cd4 30 0 geode::EnterLayerEvent<ProvideIDsForMenuLayer>::~EnterLayerEvent()
FUNC 255d04 88 0 _GLOBAL__sub_I_MenuLayer.cpp
FUNC 255d90 30 0 about::getLoaderVersion()
FUNC 255dc0 c 0 about::getLoaderVersionStr()
FUNC 255dcc c 0 about::getLoaderCommitHash()
FUNC 255dd8 c 0 about::getBindingsCommitHash()
FUNC 255de4 c 0 about::getLoaderModJson()
FUNC 255df0 174 0 crashlog::getDateString(bool)
FUNC 255f64 134 0 std::__ndk1::operator<<[abi:v170000]<char, std::__ndk1::char_traits<char> >(std::__ndk1::basic_ostream<char, std::__ndk1::char_traits<char> >, std::__ndk1::__iom_t10<std::__ndk1::basic_ostream> const&)
FUNC 256098 200 0 crashlog::printGeodeInfo(std::__ndk1::basic_stringstream<char, std::__ndk1::char_traits<char>, std::__ndk1::allocator<char> >&)
FUNC 256298 218 0 crashlog::printMods(std::__ndk1::basic_stringstream<char, std::__ndk1::char_traits<char>, std::__ndk1::allocator<char> >&)
FUNC 2564b0 68c 0 crashlog::writeCrashlog(geode::Mod*, std::__ndk1::basic_string<char, std::__ndk1::char_traits<char>, std::__ndk1::allocator<char> > const&, std::__ndk1::basic_string<char, std::__ndk1::char_traits<char>, std::__ndk1::allocator<char> > const&, std::__ndk1::basic_string<char, std::__ndk1::char_traits<char>, std::__ndk1::allocator<char> > const&)
FUNC 256b3c 84 0 geode::utils::ranges::join<std::__ndk1::vector<std::__ndk1::basic_string<char, std::__ndk1::char_traits<char>, std::__ndk1::allocator<char> >, std::__ndk1::allocator<std::__ndk1::basic_string<char, std::__ndk1::char_traits<char>, std::__ndk1::allocator<char> > > > >(std::__ndk1::vector<std::__ndk1::basic_string<char, std::__ndk1::char_traits<char>, std::__ndk1::allocator<char> >, std::__ndk1::allocator<std::__ndk1::basic_string<char, std::__ndk1::char_traits<char>, std::__ndk1::allocator<char> > > > const&, std::__ndk1::basic_string<char, std::__ndk1::char_traits<char>, std::__ndk1::allocator<char> > const&)
FUNC 256bc0 44 0 std::__ndk1::basic_ofstream<char, std::__ndk1::char_traits<char> >::~basic_ofstream()
FUNC 256c04 70 0 std::__ndk1::basic_stringstream<char, std::__ndk1::char_traits<char>, std::__ndk1::allocator<char> >::~basic_stringstream()
FUNC 256c74 55c 0 std::__ndk1::__introsort<std::__ndk1::_ClassicAlgPolicy, crashlog::printMods(std::__ndk1::basic_stringstream<char, std::__ndk1::char_traits<char>, std::__ndk1::allocator<char> >&)::$_0&, geode::Mod**, false>(geode::Mod**, geode::Mod**, crashlog::printMods(std::__ndk1::basic_stringstream<char, std::__ndk1::char_traits<char>, std::__ndk1::allocator<char> >&)::$_0&, std::__ndk1::iterator_traits<geode::Mod**>::difference_type, bool)
FUNC 2571d0 108 0 crashlog::printMods(std::__ndk1::basic_stringstream<char, std::__ndk1::char_traits<char>, std::__ndk1::allocator<char> >&)::$_0::operator()(geode::Mod*, geode::Mod*) const
FUNC 2572d8 8a 0 std::__ndk1::__sort3[abi:v170000]<std::__ndk1::_ClassicAlgPolicy, crashlog::printMods(std::__ndk1::basic_stringstream<char, std::__ndk1::char_traits<char>, std::__ndk1::allocator<char> >&)::$_0&, geode::Mod**>(geode::Mod**, geode::Mod**, geode::Mod**, crashlog::printMods(std::__ndk1::basic_stringstream<char, std::__ndk1::char_traits<char>, std::__ndk1::allocator<char> >&)::$_0&)
FUNC 257364 16c 0 std::__ndk1::__insertion_sort_incomplete<crashlog::printMods(std::__ndk1::basic_stringstream<char, std::__ndk1::char_traits<char>, std::__ndk1::allocator<char> >&)::$_0&, geode::Mod**>(geode::Mod**, geode::Mod**, crashlog::printMods(std::__ndk1::basic_stringstream<char, std::__ndk1::char_traits<char>, std::__ndk1::allocator<char> >&)::$_0&)
FUNC 2574d0 58 0 std::__ndk1::__sort4[abi:v170000]<std::__ndk1::_ClassicAlgPolicy, crashlog::printMods(std::__ndk1::basic_stringstream<char, std::__ndk1::char_traits<char>, std::__ndk1::allocator<char> >&)::$_0&, geode::Mod**>(geode::Mod**, geode::Mod**, geode::Mod**, geode::Mod**, crashlog::printMods(std::__ndk1::basic_stringstream<char, std::__ndk1::char_traits<char>, std::__ndk1::allocator<char> >&)::$_0&)
FUNC 257528 4c 0 {virtual override thunk({virtual offset(0, -12)}, std::__ndk1::basic_ofstream<char, std::__ndk1::char_traits<char> >::~basic_ofstream())}
FUNC 257574 4c 0 std::__ndk1::basic_ofstream<char, std::__ndk1::char_traits<char> >::~basic_ofstream()
FUNC 2575c0 50 0 {virtual override thunk({virtual offset(0, -12)}, std::__ndk1::basic_ofstream<char, std::__ndk1::char_traits<char> >::~basic_ofstream())}
FUNC 257610 70 0 {virtual override thunk({offset(-8)}, std::__ndk1::basic_stringstream<char, std::__ndk1::char_traits<char>, std::__ndk1::allocator<char> >::~basic_stringstream())}
FUNC 257680 78 0 {virtual override thunk({virtual offset(0, -12)}, std::__ndk1::basic_stringstream<char, std::__ndk1::char_traits<char>, std::__ndk1::allocator<char> >::~basic_stringstream())}
FUNC 2576f8 78 0 std::__ndk1::basic_stringstream<char, std::__ndk1::char_traits<char>, std::__ndk1::allocator<char> >::~basic_stringstream()
FUNC 257770 78 0 {virtual override thunk({offset(-8)}, std::__ndk1::basic_stringstream<char, std::__ndk1::char_traits<char>, std::__ndk1::allocator<char> >::~basic_stringstream())}
FUNC 2577e8 7c 0 {virtual override thunk({virtual offset(0, -12)}, std::__ndk1::basic_stringstream<char, std::__ndk1::char_traits<char>, std::__ndk1::allocator<char> >::~basic_stringstream())}
FUNC 257864 108 0 std::__ndk1::__put_character_sequence[abi:v170000]<char, std::__ndk1::char_traits<char> >(std::__ndk1::basic_ostream<char, std::__ndk1::char_traits<char> >, std::__ndk1::basic_ostream const*, unsigned int)
FUNC 25796c 110 0 std::__ndk1::__pad_and_output[abi:v170000]<char, std::__ndk1::char_traits<char> >(std::__ndk1::char_traits<char>, std::__ndk1::ostreambuf_iterator const*, std::__ndk1::ostreambuf_iterator const, std::__ndk1::ostreambuf_iterator const, std::__ndk1::ios_base&, std::__ndk1::ostreambuf_iterator)
FUNC 257a7c d8 0 tryLogForwardCompat()
FUNC 257b54 220 0 tryShowForwardCompat()
FUNC 257d74 1ec 0 geode::Mod::getSavedValue<std::__ndk1::basic_string<char, std::__ndk1::char_traits<char>, std::__ndk1::allocator<char> > >(std::__ndk1::basic_string_view<char, std::__ndk1::char_traits<char> >, std::__ndk1::basic_string<char, std::__ndk1::char_traits<char>, std::__ndk1::allocator<char> > const&)
FUNC 257f60 100 0 geode::Mod::setSavedValue<std::__ndk1::basic_string<char, std::__ndk1::char_traits<char>, std::__ndk1::allocator<char> > >(std::__ndk1::basic_string_view<char, std::__ndk1::char_traits<char> >, std::__ndk1::basic_string<char, std::__ndk1::char_traits<char>, std::__ndk1::allocator<char> > const&)
FUNC 258060 6f0 0 geodeEntry(void*)
FUNC 258750 d6 0 std::__ndk1::basic_string<char, std::__ndk1::char_traits<char>, std::__ndk1::allocator<char> >::__assign_external(char const*, unsigned int)
FUNC 258828 14 0 geodeExecFunction20<(anonymous namespace)::ExecFuncUnique20>()::{lambda(geode::ipc::IPCEvent*)#1}::__invoke(geode::ipc::IPCEvent*)
FUNC 25883c 80 0 geodeExecFunction20<(anonymous namespace)::ExecFuncUnique20>()::{lambda(geode::ipc::IPCEvent*)#2}::__invoke(geode::ipc::IPCEvent*)
FUNC 2588bc 428 0 geodeExecFunction20<(anonymous namespace)::ExecFuncUnique20>()::{lambda(geode::ipc::IPCEvent*)#3}::__invoke(geode::ipc::IPCEvent*)
FUNC 258ce4 46 0 geode::JsonMaybeValue::get<bool>()
FUNC 258d2c 240 0 geode::JsonMaybeValue::as<(matjson::Type)4>()
FUNC 258f6c 138 0 std::__ndk1::vector<matjson::Value, std::__ndk1::allocator<matjson::Value> >::__push_back_slow_path<matjson::Value>(matjson::Value&&)
FUNC 2590a4 2a 0 std::__ndk1::__split_buffer<matjson::Value, std::__ndk1::allocator<matjson::Value>&>::~__split_buffer()
FUNC 2590d0 10 0 std::__ndk1::vector<matjson::Value, std::__ndk1::allocator<matjson::Value> >::__throw_length_error[abi:v170000]() const
FUNC 2590e0 32 0 std::__ndk1::__tree<std::__ndk1::basic_string<char, std::__ndk1::char_traits<char>, std::__ndk1::allocator<char> >, std::__ndk1::less<std::__ndk1::basic_string<char, std::__ndk1::char_traits<char>, std::__ndk1::allocator<char> > >, std::__ndk1::allocator<std::__ndk1::basic_string<char, std::__ndk1::char_traits<char>, std::__ndk1::allocator<char> > > >::destroy(std::__ndk1::__tree_node<std::__ndk1::basic_string<char, std::__ndk1::char_traits<char>, std::__ndk1::allocator<char> >, void*>*)
FUNC 259112 2 0 std::__ndk1::__variant_detail::__visitation::__base::__dispatcher<(unsigned int)0>::__dispatch[abi:v170000]<std::__ndk1::__variant_detail::__dtor<std::__ndk1::__variant_detail::__traits<std::__ndk1::monostate, std::__ndk1::basic_string<char, std::__ndk1::char_traits<char>, std::__ndk1::allocator<char> > >, (std::__ndk1::__variant_detail::_Trait)1>::__destroy[abi:v170000]()::{lambda(auto:1&)#1}, std::__ndk1::__variant_detail::__base<(std::__ndk1::__variant_detail::__traits<std::__ndk1::monostate, std::__ndk1::basic_string<char, std::__ndk1::char_traits<char>, std::__ndk1::allocator<char> > >)1, std::__ndk1::__variant_detail::__traits, std::__ndk1::allocator<char> >&>(std::__ndk1::__variant_detail::__dtor<std::__ndk1::__variant_detail::__traits<std::__ndk1::monostate, std::__ndk1::basic_string<char, std::__ndk1::char_traits<char>, std::__ndk1::allocator<char> > >, (std::__ndk1::__variant_detail::_Trait)1>, std::__ndk1::__variant_detail::__base<(std::__ndk1::__variant_detail::__traits<std::__ndk1::monostate, std::__ndk1::basic_string<char, std::__ndk1::char_traits<char>, std::__ndk1::allocator<char> > >)1, std::__ndk1::__variant_detail::__traits, std::__ndk1::allocator<char> >&)
FUNC 259114 e 0 std::__ndk1::__variant_detail::__visitation::__base::__dispatcher<(unsigned int)1>::__dispatch[abi:v170000]<std::__ndk1::__variant_detail::__dtor<std::__ndk1::__variant_detail::__traits<std::__ndk1::monostate, std::__ndk1::basic_string<char, std::__ndk1::char_traits<char>, std::__ndk1::allocator<char> > >, (std::__ndk1::__variant_detail::_Trait)1>::__destroy[abi:v170000]()::{lambda(auto:1&)#1}, std::__ndk1::__variant_detail::__base<(std::__ndk1::__variant_detail::__traits<std::__ndk1::monostate, std::__ndk1::basic_string<char, std::__ndk1::char_traits<char>, std::__ndk1::allocator<char> > >)1, std::__ndk1::__variant_detail::__traits, std::__ndk1::allocator<char> >&>(std::__ndk1::__variant_detail::__dtor<std::__ndk1::__variant_detail::__traits<std::__ndk1::monostate, std::__ndk1::basic_string<char, std::__ndk1::char_traits<char>, std::__ndk1::allocator<char> > >, (std::__ndk1::__variant_detail::_Trait)1>, std::__ndk1::__variant_detail::__base<(std::__ndk1::__variant_detail::__traits<std::__ndk1::monostate, std::__ndk1::basic_string<char, std::__ndk1::char_traits<char>, std::__ndk1::allocator<char> > >)1, std::__ndk1::__variant_detail::__traits, std::__ndk1::allocator<char> >&)
FUNC 259124 100 0 geode::Mod::getSavedValue<std::__ndk1::basic_string<char, std::__ndk1::char_traits<char>, std::__ndk1::allocator<char> > >(std::__ndk1::basic_string_view<char, std::__ndk1::char_traits<char> >)
FUNC 259224 90 0 fmt::v10::detail::value<fmt::v10::basic_format_context<fmt::v10::appender, char> >::format_custom_arg<geode::VersionInfo, fmt::v10::formatter<geode::VersionInfo, char, void> >(void*, fmt::v10::basic_format_parse_context<char>&, fmt::v10::basic_format_context<fmt::v10::appender, char>&)
FUNC 2592b4 264 0 fmt::v10::formatter<fmt::v10::basic_string_view<char>, char, void>::parse<fmt::v10::basic_format_parse_context<char> >(fmt::v10::basic_format_parse_context<char>&)
FUNC 259518 e8 0 fmt::v10::formatter<geode::VersionInfo, char, void>::format<fmt::v10::basic_format_context<fmt::v10::appender, char> >(geode::VersionInfo const&, fmt::v10::basic_format_context<fmt::v10::appender, char>&) const
FUNC 259600 110 0 fmt::v10::detail::parse_dynamic_spec<char>(char const*, char const*, int&, fmt::v10::detail::arg_ref<char>&, fmt::v10::basic_format_parse_context<char>&)
FUNC 259710 110 0 fmt::v10::detail::do_parse_arg_id<char, fmt::v10::detail::dynamic_spec_id_handler<char>&>(char const*, char const*, fmt::v10::detail::dynamic_spec_id_handler<char>&)
FUNC 259820 bc 0 fmt::v10::detail::handle_dynamic_spec<fmt::v10::detail::width_checker, fmt::v10::basic_format_context<fmt::v10::appender, char> >(int&, fmt::v10::detail::arg_ref<fmt::v10::basic_format_context<fmt::v10::appender, char>::char_type>, fmt::v10::basic_format_context<fmt::v10::appender, char>&)
FUNC 2598dc bc 0 fmt::v10::detail::handle_dynamic_spec<fmt::v10::detail::precision_checker, fmt::v10::basic_format_context<fmt::v10::appender, char> >(int&, fmt::v10::detail::arg_ref<fmt::v10::basic_format_context<fmt::v10::appender, char>::char_type>, fmt::v10::basic_format_context<fmt::v10::appender, char>&)
FUNC 259998 60 0 fmt::v10::detail::get_dynamic_spec<fmt::v10::detail::width_checker, fmt::v10::basic_format_arg<fmt::v10::basic_format_context<fmt::v10::appender, char> >, fmt::v10::detail::error_handler>(fmt::v10::basic_format_arg<fmt::v10::basic_format_context<fmt::v10::appender, char> >, fmt::v10::detail::error_handler)
FUNC 2599f8 10c 0 fmt::v10::basic_format_args<fmt::v10::basic_format_context<fmt::v10::appender, char> >::get<char>(fmt::v10::basic_string_view<char>) const
FUNC 259b04 60 0 fmt::v10::detail::get_dynamic_spec<fmt::v10::detail::precision_checker, fmt::v10::basic_format_arg<fmt::v10::basic_format_context<fmt::v10::appender, char> >, fmt::v10::detail::error_handler>(fmt::v10::basic_format_arg<fmt::v10::basic_format_context<fmt::v10::appender, char> >, fmt::v10::detail::error_handler)
FUNC 259b64 134 0 fmt::v10::detail::write<char, fmt::v10::appender>(fmt::v10::appender, fmt::v10::basic_string_view<char>, fmt::v10::format_specs<char> const&)
FUNC 259c98 e0 0 fmt::v10::detail::write_escaped_string<char, fmt::v10::detail::counting_iterator>(fmt::v10::detail::counting_iterator, fmt::v10::basic_string_view<char>)
FUNC 259d78 11c 0 fmt::v10::detail::write_padded<(fmt::v10::align::type)1, fmt::v10::appender, char, fmt::v10::detail::write<char, fmt::v10::appender>(fmt::v10::appender, fmt::v10::basic_string_view<char>, fmt::v10::format_specs<char> const&)::{lambda(fmt::v10::appender)#1}>(fmt::v10::appender, fmt::v10::format_specs<char> const&, unsigned int, unsigned int, fmt::v10::detail::write<char, fmt::v10::appender>(fmt::v10::appender, fmt::v10::basic_string_view<char>, fmt::v10::format_specs<char> const&)::{lambda(fmt::v10::appender&&)#1})
FUNC 259e94 10c 0 fmt::v10::detail::write_escaped_cp<fmt::v10::detail::counting_iterator, char>(fmt::v10::detail::counting_iterator, fmt::v10::detail::find_escape_result<char> const&)
FUNC 259fa0 118 0 fmt::v10::detail::for_each_codepoint<fmt::v10::detail::find_escape(char const*, char const*)::{lambda(unsigned int, fmt::v10::basic_string_view<char>)#1}>(fmt::v10::basic_string_view<char>, fmt::v10::detail::find_escape(char const*, char const*)::{lambda(unsigned int, fmt::v10::basic_string_view<char>)#1})::{lambda(char const*, char const*)#1}::operator()(char const*, char const*) const
FUNC 25a0c0 1e4 0 fmt::v10::detail::for_each_codepoint<fmt::v10::detail::compute_width(fmt::v10::basic_string_view<char>)::count_code_points>(fmt::v10::basic_string_view<char>, fmt::v10::detail::compute_width(fmt::v10::basic_string_view<char>)::count_code_points)::{lambda(char const*, char const*)#1}::operator()(char const*, char const*) const
FUNC 25a2a4 fa 0 fmt::v10::detail::fill<fmt::v10::appender, char>(fmt::v10::appender, unsigned int, fmt::v10::detail::fill_t<char> const&)
FUNC 25a3a0 1b8 0 fmt::v10::detail::write_escaped_string<char, fmt::v10::appender>(fmt::v10::appender, fmt::v10::basic_string_view<char>)
FUNC 25a558 13a 0 fmt::v10::detail::write_escaped_cp<fmt::v10::appender, char>(fmt::v10::appender, fmt::v10::detail::find_escape_result<char> const&)
FUNC 25a694 e8 0 fmt::v10::detail::write_codepoint<(unsigned int)2, char, fmt::v10::appender>(fmt::v10::appender, char, unsigned int)
FUNC 25a77c e4 0 fmt::v10::detail::write_codepoint<(unsigned int)4, char, fmt::v10::appender>(fmt::v10::appender, char, unsigned int)
FUNC 25a860 e4 0 fmt::v10::detail::write_codepoint<(unsigned int)8, char, fmt::v10::appender>(fmt::v10::appender, char, unsigned int)
FUNC 25a944 10c 0 _GLOBAL__sub_I_load.cpp
FUNC 25aa50 8c 0 geode::dirs::getGeodeDir()
FUNC 25aadc 8c 0 geode::dirs::getGeodeSaveDir()
FUNC 25ab68 94 0 geode::dirs::getGeodeResourcesDir()
FUNC 25abfc 8c 0 geode::dirs::getGeodeLogDir()
FUNC 25ac88 8c 0 geode::dirs::getTempDir()
FUNC 25ad14 8c 0 geode::dirs::getModsDir()
FUNC 25ada0 8c 0 geode::dirs::getModsSaveDir()
FUNC 25ae2c 94 0 geode::dirs::getModConfigDir()
FUNC 25aec0 8c 0 geode::dirs::getIndexDir()
FUNC 25af4c a 0 geode::dirs::getCrashlogsDir()
FUNC 25af58 6c 0 geode::dispatchPools()
FUNC 25afc4 3e 0 std::__ndk1::unordered_map<std::__ndk1::basic_string<char, std::__ndk1::char_traits<char>, std::__ndk1::allocator<char> >, geode::EventListenerPool*, std::__ndk1::hash<std::__ndk1::basic_string<char, std::__ndk1::char_traits<char>, std::__ndk1::allocator<char> > >, std::__ndk1::equal_to<std::__ndk1::basic_string<char, std::__ndk1::char_traits<char>, std::__ndk1::allocator<char> > >, std::__ndk1::allocator<std::__ndk1::pair<std::__ndk1::basic_string<char, std::__ndk1::char_traits<char>, std::__ndk1::allocator<char> > const, geode::EventListenerPool*> > >::~unordered_map[abi:v170000]()
FUNC 25b004 134 0 geode::DefaultEventListenerPool::add(geode::EventListenerProtocol*)
FUNC 25b138 274 0 std::__ndk1::vector<geode::EventListenerProtocol*, std::__ndk1::allocator<geode::EventListenerProtocol*> >::insert(std::__ndk1::__wrap_iter<geode::EventListenerProtocol* const*>, geode::EventListenerProtocol* const&)
FUNC 25b3ac 7a 0 geode::DefaultEventListenerPool::remove(geode::EventListenerProtocol*)
FUNC 25b428 118 0 geode::DefaultEventListenerPool::handle(geode::Event*)
FUNC 25b540 7c 0 geode::DefaultEventListenerPool::get()
FUNC 25b5bc 7c 0 geode::EventListenerProtocol::getPool() const
FUNC 25b638 28 0 geode::EventListenerProtocol::enable()
FUNC 25b660 18 0 geode::EventListenerProtocol::disable()
FUNC 25b678 2c 0 geode::EventListenerProtocol::~EventListenerProtocol()
FUNC 25b6a4 2 0 geode::EventListenerProtocol::~EventListenerProtocol()
FUNC 25b6a6 2 0 geode::Event::~Event()
FUNC 25b6a8 14 0 geode::Event::~Event()
FUNC 25b6bc 7c 0 geode::Event::getPool() const
FUNC 25b738 20 0 geode::Event::postFromMod(geode::Mod*)
FUNC 25b758 30 0 geode::DefaultEventListenerPool::~DefaultEventListenerPool()
FUNC 25b788 38 0 geode::DefaultEventListenerPool::~DefaultEventListenerPool()
FUNC 25b7c0 10 0 std::__ndk1::vector<geode::EventListenerProtocol*, std::__ndk1::allocator<geode::EventListenerProtocol*> >::__throw_length_error[abi:v170000]() const
FUNC 25b7d0 1a 0 geode::Hook::Hook(std::__ndk1::shared_ptr<geode::Hook::Impl>&&)
FUNC 25b7ea 3a 0 geode::Hook::~Hook()
FUNC 25b824 16 0 geode::Hook::create(void*, void*, std::__ndk1::basic_string<char, std::__ndk1::char_traits<char>, std::__ndk1::allocator<char> > const&, tulip::hook::HandlerMetadata const&, tulip::hook::HookMetadata const&)
FUNC 25b83a 6 0 geode::Hook::getOwner() const
FUNC 25b840 6 0 geode::Hook::isEnabled() const
FUNC 25b846 c 0 geode::Hook::enable()
FUNC 25b852 c 0 geode::Hook::disable()
FUNC 25b85e 6 0 geode::Hook::getAutoEnable() const
FUNC 25b864 6 0 geode::Hook::setAutoEnable(bool)
FUNC 25b86a 6 0 geode::Hook::getAddress() const
FUNC 25b870 c 0 geode::Hook::getDisplayName() const
FUNC 25b87c c 0 geode::Hook::getRuntimeInfo() const
FUNC 25b888 6 0 geode::Hook::getHookMetadata() const
FUNC 25b88e 6 0 geode::Hook::setHookMetadata(tulip::hook::HookMetadata const&)
FUNC 25b894 6 0 geode::Hook::getPriority() const
FUNC 25b89a 6 0 geode::Hook::setPriority(int)
FUNC 25b8a0 7c 0 geode::Hook::Impl::Impl(void*, void*, std::__ndk1::basic_string<char, std::__ndk1::char_traits<char>, std::__ndk1::allocator<char> >, tulip::hook::HandlerMetadata, tulip::hook::HookMetadata const&)
FUNC 25b91c 20c 0 geode::Hook::Impl::~Impl()
FUNC 25bb28 15c 0 geode::Hook::Impl::disable()
FUNC 25bc84 110 0 geode::Hook::Impl::create(void*, void*, std::__ndk1::basic_string<char, std::__ndk1::char_traits<char>, std::__ndk1::allocator<char> > const&, tulip::hook::HandlerMetadata const&, tulip::hook::HookMetadata const&)
FUNC 25bd94 3a 0 std::__ndk1::shared_ptr<geode::Hook::Impl>::~shared_ptr[abi:v170000]()
FUNC 25bdd0 2dc 0 geode::Hook::Impl::enable()
FUNC 25c0ac bc 0 geode::Result<unsigned int, std::__ndk1::basic_string<char, std::__ndk1::char_traits<char>, std::__ndk1::allocator<char> > >::unwrap() &
FUNC 25c168 4 0 geode::Hook::Impl::getAddress() const
FUNC 25c16c 20 0 geode::Hook::Impl::getDisplayName() const
FUNC 25c18c 1e0 0 geode::Hook::Impl::getRuntimeInfo() const
FUNC 25c36c 4 0 geode::Hook::Impl::getHookMetadata() const
FUNC 25c370 11c 0 geode::Hook::Impl::setHookMetadata(tulip::hook::HookMetadata const&)
FUNC 25c48c 11c 0 geode::Hook::Impl::updateHookMetadata()
FUNC 25c5a8 4 0 geode::Hook::Impl::getPriority() const
FUNC 25c5ac 118 0 geode::Hook::Impl::setPriority(int)
FUNC 25c6c4 14 0 std::__ndk1::__shared_ptr_emplace<geode::Hook::Impl, std::__ndk1::allocator<geode::Hook::Impl> >::~__shared_ptr_emplace()
FUNC 25c6d8 20 0 std::__ndk1::__shared_ptr_emplace<geode::Hook::Impl, std::__ndk1::allocator<geode::Hook::Impl> >::~__shared_ptr_emplace()
FUNC 25c6f8 6 0 std::__ndk1::__shared_ptr_emplace<geode::Hook::Impl, std::__ndk1::allocator<geode::Hook::Impl> >::__on_zero_shared()
FUNC 25c6fe 4 0 std::__ndk1::__shared_ptr_emplace<geode::Hook::Impl, std::__ndk1::allocator<geode::Hook::Impl> >::__on_zero_shared_weak()
FUNC 25c704 1b4 0 std::__ndk1::construct_at[abi:v170000]<geode::Hook::Impl, void*&, void*, std::__ndk1::basic_string<char, std::__ndk1::char_traits<char>, std::__ndk1::allocator<char> > const&, tulip::hook::HandlerMetadata const&, tulip::HookMetadata const&, geode::Hook*>(geode::Hook::Impl, void*&, void*, std::__ndk1::basic_string<char, std::__ndk1::char_traits<char>, std::__ndk1::allocator<char> > const&, tulip::hook::HandlerMetadata const&, tulip::HookMetadata const&)
FUNC 25c8b8 10 0 std::__ndk1::vector<tulip::hook::AbstractType, std::__ndk1::allocator<tulip::hook::AbstractType> >::__throw_length_error[abi:v170000]() const
FUNC 25c8c8 10 0 std::__ndk1::__shared_ptr_pointer<geode::Hook*, geode::Hook(void*, void*, std::__ndk1::basic_string<char, std::__ndk1::char_traits<char>, std::__ndk1::allocator<char> > const&, tulip::hook::HandlerMetadata const&, tulip::hook::HookMetadata const&)::Impl::create::$_0, std::__ndk1::allocator<geode::Hook> >::~__shared_ptr_pointer()
FUNC 25c8d8 18 0 std::__ndk1::__shared_ptr_pointer<geode::Hook*, geode::Hook(void*, void*, std::__ndk1::basic_string<char, std::__ndk1::char_traits<char>, std::__ndk1::allocator<char> > const&, tulip::hook::HandlerMetadata const&, tulip::hook::HookMetadata const&)::Impl::create::$_0, std::__ndk1::allocator<geode::Hook> >::__on_zero_shared()
FUNC 25c8f0 18 0 std::__ndk1::__shared_ptr_pointer<geode::Hook*, geode::Hook(void*, void*, std::__ndk1::basic_string<char, std::__ndk1::char_traits<char>, std::__ndk1::allocator<char> > const&, tulip::hook::HandlerMetadata const&, tulip::hook::HookMetadata const&)::Impl::create::$_0, std::__ndk1::allocator<geode::Hook> >::__get_deleter(std::type_info const&) const
FUNC 25c908 4 0 std::__ndk1::__shared_ptr_pointer<geode::Hook*, geode::Hook(void*, void*, std::__ndk1::basic_string<char, std::__ndk1::char_traits<char>, std::__ndk1::allocator<char> > const&, tulip::hook::HandlerMetadata const&, tulip::hook::HookMetadata const&)::Impl::create::$_0, std::__ndk1::allocator<geode::Hook> >::__on_zero_shared_weak()
FUNC 25c90c fc 0 geode::ipc::listen(std::__ndk1::basic_string<char, std::__ndk1::char_traits<char>, std::__ndk1::allocator<char> > const&, matjson::Value (*)(geode::ipc::IPCEvent*))
FUNC 25ca08 22 0 geode::ipc::IPCFilter::~IPCFilter()
FUNC 25ca2c 11c 0 geode::ipc::IPCEvent::IPCEvent(void*, std::__ndk1::basic_string<char, std::__ndk1::char_traits<char>, std::__ndk1::allocator<char> > const&, std::__ndk1::basic_string<char, std::__ndk1::char_traits<char>, std::__ndk1::allocator<char> > const&, matjson::Value const&, matjson::Value&)
FUNC 25cb48 48 0 geode::ipc::IPCEvent::~IPCEvent()
FUNC 25cb90 14 0 geode::ipc::IPCEvent::~IPCEvent()
FUNC 25cba4 110 0 geode::ipc::IPCFilter::handle(geode::utils::MiniFunction<matjson::Value(geode::ipc::IPCEvent*)>, geode::ipc::IPCEvent*)
FUNC 25ccb4 d0 0 geode::ipc::IPCFilter::IPCFilter(std::__ndk1::basic_string<char, std::__ndk1::char_traits<char>, std::__ndk1::allocator<char> > const&, std::__ndk1::basic_string<char, std::__ndk1::char_traits<char>, std::__ndk1::allocator<char> > const&)
FUNC 25cd84 2b0 0 geode::ipc::processRaw(void*, std::__ndk1::basic_string<char, std::__ndk1::char_traits<char>, std::__ndk1::allocator<char> > const&)
FUNC 25d034 34 0 std::__ndk1::__throw_bad_optional_access[abi:v170000]()
FUNC 25d068 d8 0 geode::ipc::IPCFilter::IPCFilter(geode::ipc::IPCFilter const&)
FUNC 25d140 4 0 geode::EventListener<geode::ipc::IPCFilter>::getPool() const
FUNC 25d144 ac 0 geode::EventListener<geode::ipc::IPCFilter>::handle(geode::Event*)
FUNC 25d1f0 44 0 geode::EventListener<geode::ipc::IPCFilter>::~EventListener()
FUNC 25d234 48 0 geode::EventListener<geode::ipc::IPCFilter>::~EventListener()
FUNC 25d27c 4 0 geode::utils::MiniFunctionState<matjson::Value (*)(geode::ipc::IPCEvent*), matjson::Value, geode::ipc::IPCEvent*>::~MiniFunctionState()
FUNC 25d280 c 0 geode::utils::MiniFunctionState<matjson::Value (*)(geode::ipc::IPCEvent*), matjson::Value, geode::ipc::IPCEvent*>::call(geode::ipc::IPCEvent*) const
FUNC 25d28c 20 0 geode::utils::MiniFunctionState<matjson::Value (*)(geode::ipc::IPCEvent*), matjson::Value, geode::ipc::IPCEvent*>::clone() const
FUNC 25d2ac 2 0 geode::utils::MiniFunctionStateBase<matjson::Value, geode::ipc::IPCEvent*>::~MiniFunctionStateBase()
FUNC 25d2b0 108 0 geode::ModInstallEvent::ModInstallEvent(std::__ndk1::basic_string<char, std::__ndk1::char_traits<char>, std::__ndk1::allocator<char> > const&, std::__ndk1::variant<std::__ndk1::monostate, std::__ndk1::pair<unsigned char, std::__ndk1::basic_string<char, std::__ndk1::char_traits<char>, std::__ndk1::allocator<char> > >, std::__ndk1::basic_string<char, std::__ndk1::char_traits<char>, std::__ndk1::allocator<char> > >)
FUNC 25d3b8 74 0 geode::ModInstallFilter::handle(geode::utils::MiniFunction<void (geode::ModInstallEvent*)>, geode::ModInstallEvent*)
FUNC 25d42c 60 0 geode::ModInstallFilter::ModInstallFilter(std::__ndk1::basic_string<char, std::__ndk1::char_traits<char>, std::__ndk1::allocator<char> > const&)
FUNC 25d48c a4 0 geode::IndexUpdateEvent::IndexUpdateEvent(std::__ndk1::variant<std::__ndk1::monostate, std::__ndk1::pair<unsigned char, std::__ndk1::basic_string<char, std::__ndk1::char_traits<char>, std::__ndk1::allocator<char> > >, std::__ndk1::basic_string<char, std::__ndk1::char_traits<char>, std::__ndk1::allocator<char> > >)
FUNC 25d530 14 0 geode::IndexUpdateFilter::handle(geode::utils::MiniFunction<void (geode::IndexUpdateEvent*)>, geode::IndexUpdateEvent*)
FUNC 25d544 6 0 geode::IndexUpdateFilter::IndexUpdateFilter()
FUNC 25d54a 92 0 geode::IndexItem::IndexItem()
FUNC 25d5dc 1a 0 geode::IndexItem::~IndexItem()
FUNC 25d5f6 c 0 geode::IndexItem::getRootPath() const
FUNC 25d602 e 0 geode::IndexItem::getPath() const
FUNC 25d610 e 0 geode::IndexItem::getMetadata() const
FUNC 25d61e 68 0 geode::IndexItem::getDownloadURL() const
FUNC 25d686 68 0 geode::IndexItem::getPackageHash() const
FUNC 25d6ee e 0 geode::IndexItem::getAvailablePlatforms() const
FUNC 25d6fc 124 0 std::__ndk1::unordered_set<geode::PlatformID, std::__ndk1::hash<geode::PlatformID>, std::__ndk1::equal_to<geode::PlatformID>, std::__ndk1::allocator<geode::PlatformID> >::unordered_set(std::__ndk1::unordered_set<geode::PlatformID, std::__ndk1::hash<geode::PlatformID>, std::__ndk1::equal_to<geode::PlatformID>, std::__ndk1::allocator<geode::PlatformID> > const&)
FUNC 25d820 8 0 geode::IndexItem::isFeatured() const
FUNC 25d828 e 0 geode::IndexItem::getTags() const
FUNC 25d838 124 0 std::__ndk1::unordered_set<std::__ndk1::basic_string<char, std::__ndk1::char_traits<char>, std::__ndk1::allocator<char> >, std::__ndk1::hash<std::__ndk1::basic_string<char, std::__ndk1::char_traits<char>, std::__ndk1::allocator<char> > >, std::__ndk1::equal_to<std::__ndk1::basic_string<char, std::__ndk1::char_traits<char>, std::__ndk1::allocator<char> > >, std::__ndk1::allocator<std::__ndk1::basic_string<char, std::__ndk1::char_traits<char>, std::__ndk1::allocator<char> > > >::unordered_set(std::__ndk1::unordered_set<std::__ndk1::basic_string<char, std::__ndk1::char_traits<char>, std::__ndk1::allocator<char> >, std::__ndk1::hash<std::__ndk1::basic_string<char, std::__ndk1::char_traits<char>, std::__ndk1::allocator<char> > >, std::__ndk1::equal_to<std::__ndk1::basic_string<char, std::__ndk1::char_traits<char>, std::__ndk1::allocator<char> > >, std::__ndk1::allocator<std::__ndk1::basic_string<char, std::__ndk1::char_traits<char>, std::__ndk1::allocator<char> > > > const&)
FUNC 25d95c 6 0 geode::IndexItem::isInstalled() const
FUNC 25d964 13c 0 geode::IndexItem::Impl::isInstalled() const
FUNC 25daa0 8 0 geode::IndexItem::setMetadata(geode::ModMetadata const&)
FUNC 25daa8 8 0 geode::IndexItem::setDownloadURL(std::__ndk1::basic_string<char, std::__ndk1::char_traits<char>, std::__ndk1::allocator<char> > const&)
FUNC 25dab0 8 0 geode::IndexItem::setPackageHash(std::__ndk1::basic_string<char, std::__ndk1::char_traits<char>, std::__ndk1::allocator<char> > const&)
FUNC 25dab8 1a 0 geode::IndexItem::setAvailablePlatforms(std::__ndk1::unordered_set<geode::PlatformID, std::__ndk1::hash<geode::PlatformID>, std::__ndk1::equal_to<geode::PlatformID>, std::__ndk1::allocator<geode::PlatformID> > const&)
FUNC 25dad2 a 0 geode::IndexItem::setIsFeatured(bool const&)
FUNC 25dadc 1a 0 geode::IndexItem::setTags(std::__ndk1::unordered_set<std::__ndk1::basic_string<char, std::__ndk1::char_traits<char>, std::__ndk1::allocator<char> >, std::__ndk1::hash<std::__ndk1::basic_string<char, std::__ndk1::char_traits<char>, std::__ndk1::allocator<char> > >, std::__ndk1::equal_to<std::__ndk1::basic_string<char, std::__ndk1::char_traits<char>, std::__ndk1::allocator<char> > >, std::__ndk1::allocator<std::__ndk1::basic_string<char, std::__ndk1::char_traits<char>, std::__ndk1::allocator<char> > > > const&)
FUNC 25daf6 a 0 geode::IndexItem::setIsInstalled(bool const&)
FUNC 25db00 b54 0 geode::IndexItem::Impl::create(ghc::filesystem::path const&, ghc::filesystem::path const&)
FUNC 25e654 170 0 geode::Result<matjson::Value, std::__ndk1::basic_string<char, std::__ndk1::char_traits<char>, std::__ndk1::allocator<char> > >::expect<>(std::__ndk1::basic_string<char, std::__ndk1::char_traits<char>, std::__ndk1::allocator<char> > const&, &&)
FUNC 25e7c4 5c 0 std::__ndk1::basic_string<char, std::__ndk1::char_traits<char>, std::__ndk1::allocator<char> >::basic_string[abi:v170000]<std::nullptr_t>()
FUNC 25e820 22 0 cpp::bitwizeshift::result<matjson::Value, std::__ndk1::basic_string<char, std::__ndk1::char_traits<char>, std::__ndk1::allocator<char> > >::~result()
FUNC 25e844 bc 0 geode::Result<matjson::Value, std::__ndk1::basic_string<char, std::__ndk1::char_traits<char>, std::__ndk1::allocator<char> > >::unwrap() &
FUNC 25e900 150 0 geode::Result<geode::ModMetadata, std::__ndk1::basic_string<char, std::__ndk1::char_traits<char>, std::__ndk1::allocator<char> > >::expect<>(std::__ndk1::basic_string<char, std::__ndk1::char_traits<char>, std::__ndk1::allocator<char> > const&, &&)
FUNC 25ea50 22 0 cpp::bitwizeshift::result<geode::ModMetadata, std::__ndk1::basic_string<char, std::__ndk1::char_traits<char>, std::__ndk1::allocator<char> > >::~result()
FUNC 25ea74 bc 0 geode::Result<geode::ModMetadata, std::__ndk1::basic_string<char, std::__ndk1::char_traits<char>, std::__ndk1::allocator<char> > >::unwrap() &
FUNC 25eb30 4e 0 geode::JsonMaybeValue::get<std::__ndk1::basic_string<char, std::__ndk1::char_traits<char>, std::__ndk1::allocator<char> > >()
FUNC 25eb7e 3c 0 geode::JsonMaybeValue::Iterator<geode::JsonMaybeValue>::~Iterator()
FUNC 25ebba 1e 0 geode::JsonMaybeObject::~JsonMaybeObject()
FUNC 25ebd8 3a 0 std::__ndk1::shared_ptr<geode::IndexItem>::~shared_ptr[abi:v170000]()
FUNC 25ec12 3e 0 std::__ndk1::unordered_set<std::__ndk1::basic_string<char, std::__ndk1::char_traits<char>, std::__ndk1::allocator<char> >, std::__ndk1::hash<std::__ndk1::basic_string<char, std::__ndk1::char_traits<char>, std::__ndk1::allocator<char> > >, std::__ndk1::equal_to<std::__ndk1::basic_string<char, std::__ndk1::char_traits<char>, std::__ndk1::allocator<char> > >, std::__ndk1::allocator<std::__ndk1::basic_string<char, std::__ndk1::char_traits<char>, std::__ndk1::allocator<char> > > >::~unordered_set[abi:v170000]()
FUNC 25ec50 28 0 std::__ndk1::unordered_set<geode::PlatformID, std::__ndk1::hash<geode::PlatformID>, std::__ndk1::equal_to<geode::PlatformID>, std::__ndk1::allocator<geode::PlatformID> >::~unordered_set[abi:v170000]()
FUNC 25ec78 60 0 geode::JsonChecker::~JsonChecker()
FUNC 25ecd8 22 0 geode::Index::Index()
FUNC 25ecfa 1a 0 geode::Index::~Index()
FUNC 25ed14 68 0 geode::Index::get()
FUNC 25ed7c 9c 0 geode::Index::Impl::cleanupItems()
FUNC 25ee18 e 0 geode::Index::isUpToDate() const
FUNC 25ee26 e 0 geode::Index::isUpdating() const
FUNC 25ee34 e 0 geode::Index::hasTriedToUpdate() const
FUNC 25ee44 3ac 0 geode::Index::Impl::downloadIndex(std::__ndk1::basic_string<char, std::__ndk1::char_traits<char>, std::__ndk1::allocator<char> >)
FUNC 25f1f0 6c 0 geode::IndexUpdateEvent::~IndexUpdateEvent()
FUNC 25f25c 54 0 std::__ndk1::variant<std::__ndk1::monostate, std::__ndk1::pair<unsigned char, std::__ndk1::basic_string<char, std::__ndk1::char_traits<char>, std::__ndk1::allocator<char> > >, std::__ndk1::basic_string<char, std::__ndk1::char_traits<char>, std::__ndk1::allocator<char> > >::~variant()
FUNC 25f2b0 c4 0 geode::utils::web::AsyncWebResult<std::__ndk1::monostate>::then(geode::utils::MiniFunction<void (std::__ndk1::monostate)>)
FUNC 25f374 1c 0 geode::Index::Impl::downloadIndex(std::__ndk1::basic_string<char, std::__ndk1::char_traits<char>, std::__ndk1::allocator<char> >)::$_0::~$_0()
FUNC 25f390 4d0 0 geode::Index::Impl::checkForUpdates()
FUNC 25f860 ae 0 geode::Result<std::__ndk1::basic_string<char, std::__ndk1::char_traits<char>, std::__ndk1::allocator<char> >, std::__ndk1::basic_string<char, std::__ndk1::char_traits<char>, std::__ndk1::allocator<char> > >::unwrapOr<char const (&) [1]>(char const (&) [1]) &&
FUNC 25f910 c4 0 geode::utils::web::AsyncWebResult<std::__ndk1::basic_string<char, std::__ndk1::char_traits<char>, std::__ndk1::allocator<char> > >::then(geode::utils::MiniFunction<void (std::__ndk1::basic_string<char, std::__ndk1::char_traits<char>, std::__ndk1::allocator<char> >)>)
FUNC 25f9d4 1c 0 geode::Index::Impl::checkForUpdates()::$_0::~$_0()
FUNC 25f9f0 b64 0 geode::Index::Impl::updateFromLocalTree()
FUNC 260554 bc 0 geode::Result<std::__ndk1::shared_ptr<geode::IndexItem>, std::__ndk1::basic_string<char, std::__ndk1::char_traits<char>, std::__ndk1::allocator<char> > >::unwrap() &
FUNC 260610 3a 0 std::__ndk1::pair<geode::VersionInfo const, std::__ndk1::shared_ptr<geode::IndexItem> >::~pair()
FUNC 26064a 4e 0 cpp::bitwizeshift::result<std::__ndk1::shared_ptr<geode::IndexItem>, std::__ndk1::basic_string<char, std::__ndk1::char_traits<char>, std::__ndk1::allocator<char> > >::~result()
FUNC 260698 4c 0 geode::JsonMaybeValue::Iterator<std::__ndk1::pair<std::__ndk1::basic_string<char, std::__ndk1::char_traits<char>, std::__ndk1::allocator<char> >, geode::JsonMaybeValue> >::~Iterator()
FUNC 2606e4 ac 0 geode::Index::update(bool)
FUNC 260790 11c 0 geode::Index::getItems() const
FUNC 2608ac ae 0 geode::utils::map::values<std::__ndk1::basic_string<char, std::__ndk1::char_traits<char>, std::__ndk1::allocator<char> >, std::__ndk1::map<geode::VersionInfo, std::__ndk1::shared_ptr<geode::IndexItem>, std::__ndk1::less<geode::VersionInfo>, std::__ndk1::allocator<std::__ndk1::pair<geode::VersionInfo const, std::__ndk1::shared_ptr<geode::IndexItem> > > > >(std::__ndk1::unordered_map<std::__ndk1::basic_string<char, std::__ndk1::char_traits<char>, std::__ndk1::allocator<char> >, std::__ndk1::map<geode::VersionInfo, std::__ndk1::shared_ptr<geode::IndexItem>, std::__ndk1::less<geode::VersionInfo>, std::__ndk1::allocator<std::__ndk1::pair<geode::VersionInfo const, std::__ndk1::shared_ptr<geode::IndexItem> > > >, std::__ndk1::hash<std::__ndk1::basic_string<char, std::__ndk1::char_traits<char>, std::__ndk1::allocator<char> > >, std::__ndk1::equal_to<std::__ndk1::basic_string<char, std::__ndk1::char_traits<char>, std::__ndk1::allocator<char> > >, std::__ndk1::allocator<std::__ndk1::pair<std::__ndk1::basic_string<char, std::__ndk1::char_traits<char>, std::__ndk1::allocator<char> > const, std::__ndk1::map<geode::VersionInfo, std::__ndk1::shared_ptr<geode::IndexItem>, std::__ndk1::less<geode::VersionInfo>, std::__ndk1::allocator<std::__ndk1::pair<geode::VersionInfo const, std::__ndk1::shared_ptr<geode::IndexItem> > > > > > > const&)
FUNC 26095a 36 0 std::__ndk1::vector<std::__ndk1::map<geode::VersionInfo, std::__ndk1::shared_ptr<geode::IndexItem>, std::__ndk1::less<geode::VersionInfo>, std::__ndk1::allocator<std::__ndk1::pair<geode::VersionInfo const, std::__ndk1::shared_ptr<geode::IndexItem> > > >, std::__ndk1::allocator<std::__ndk1::map<geode::VersionInfo, std::__ndk1::shared_ptr<geode::IndexItem>, std::__ndk1::less<geode::VersionInfo>, std::__ndk1::allocator<std::__ndk1::pair<geode::VersionInfo const, std::__ndk1::shared_ptr<geode::IndexItem> > > > > >::~vector[abi:v170000]()
FUNC 260990 68 0 std::__ndk1::vector<std::__ndk1::shared_ptr<geode::IndexItem>, std::__ndk1::allocator<std::__ndk1::shared_ptr<geode::IndexItem> > >::~vector[abi:v170000]()
FUNC 2609f8 e0 0 geode::Index::getLatestItems() const
FUNC 260ad8 94 0 geode::Index::getMajorItem(std::__ndk1::basic_string<char, std::__ndk1::char_traits<char>, std::__ndk1::allocator<char> > const&) const
FUNC 260b6c 124 0 geode::Index::getFeaturedItems() const
FUNC 260c90 210 0 geode::Index::getItemsByDeveloper(std::__ndk1::basic_string<char, std::__ndk1::char_traits<char>, std::__ndk1::allocator<char> > const&) const
FUNC 260ea0 f4 0 geode::Index::getItemsByModID(std::__ndk1::basic_string<char, std::__ndk1::char_traits<char>, std::__ndk1::allocator<char> > const&) const
FUNC 260f94 98 0 geode::Index::isKnownItem(std::__ndk1::basic_string<char, std::__ndk1::char_traits<char>, std::__ndk1::allocator<char> > const&, std::__ndk1::optional<geode::VersionInfo>) const
FUNC 26102c 260 0 geode::Index::getItem(std::__ndk1::basic_string<char, std::__ndk1::char_traits<char>, std::__ndk1::allocator<char> > const&, std::__ndk1::optional<geode::VersionInfo>) const
FUNC 26128c 158 0 geode::Index::getItem(std::__ndk1::basic_string<char, std::__ndk1::char_traits<char>, std::__ndk1::allocator<char> > const&, geode::ComparableVersionInfo) const
FUNC 2613e4 90 0 geode::Index::getItem(geode::ModMetadata const&) const
FUNC 261474 90 0 geode::Index::getItem(geode::Mod*) const
FUNC 261504 150 0 geode::Index::isUpdateAvailable(std::__ndk1::shared_ptr<geode::IndexItem>) const
FUNC 261654 1b8 0 geode::Index::areUpdatesAvailable() const
FUNC 26180c 824 0 geode::Index::canInstall(std::__ndk1::shared_ptr<geode::IndexItem>) const
FUNC 262030 bc 0 geode::Result<std::__ndk1::monostate, std::__ndk1::basic_string<char, std::__ndk1::char_traits<char>, std::__ndk1::allocator<char> > >::unwrap() &
FUNC 2620ec 3e 0 std::__ndk1::vector<geode::ModMetadata::Dependency, std::__ndk1::allocator<geode::ModMetadata::Dependency> >::~vector[abi:v170000]()
FUNC 26212c a68 0 geode::Index::getInstallList(std::__ndk1::shared_ptr<geode::IndexItem>) const
FUNC 262b94 bc 0 geode::Result<geode::IndexInstallList, std::__ndk1::basic_string<char, std::__ndk1::char_traits<char>, std::__ndk1::allocator<char> > >::unwrap() &
FUNC 262c50 96 0 geode::IndexInstallList::~IndexInstallList()
FUNC 262ce6 ae 0 cpp::bitwizeshift::result<geode::IndexInstallList, std::__ndk1::basic_string<char, std::__ndk1::char_traits<char>, std::__ndk1::allocator<char> > >::~result()
FUNC 262d94 1a28 0 geode::Index::Impl::installNext(unsigned int, geode::IndexInstallList const&)
FUNC 2647bc 168 0 geode::Index::Impl::installNext(unsigned int, geode::IndexInstallList const&)::$_5::operator()(std::__ndk1::basic_string<char, std::__ndk1::char_traits<char>, std::__ndk1::allocator<char> > const&) const
FUNC 264924 96 0 geode::Index::Impl::installNext(unsigned int, geode::IndexInstallList const&)::$_5::~$_5()
FUNC 2649ba 3a 0 std::__ndk1::shared_ptr<geode::utils::web::SentAsyncWebRequest>::~shared_ptr[abi:v170000]()
FUNC 2649f4 96 0 geode::Index::Impl::installNext(unsigned int, geode::IndexInstallList const&)::$_4::~$_4()
FUNC 264a8a 14a 0 geode::Index::Impl::installNext(unsigned int, geode::IndexInstallList const&)::$_3::~$_3()
FUNC 264bd4 14a 0 geode::Index::Impl::installNext(unsigned int, geode::IndexInstallList const&)::$_2::~$_2()
FUNC 264d1e 1d8 0 geode::Index::Impl::installNext(unsigned int, geode::IndexInstallList const&)::$_1::~$_1()
FUNC 264ef6 96 0 geode::Index::Impl::installNext(unsigned int, geode::IndexInstallList const&)::$_6::~$_6()
FUNC 264f8c 114 0 geode::Index::cancelInstall(std::__ndk1::shared_ptr<geode::IndexItem>)
FUNC 2650a0 3a 0 geode::Index::cancelInstall(std::__ndk1::shared_ptr<geode::IndexItem>)::$_0::~$_0()
FUNC 2650dc 418 0 geode::Index::install(geode::IndexInstallList const&)
FUNC 2654f4 78 0 geode::ModInstallEvent::~ModInstallEvent()
FUNC 26556c 96 0 geode::Index::install(geode::IndexInstallList const&)::$_0::~$_0()
FUNC 265604 114 0 geode::Index::install(std::__ndk1::shared_ptr<geode::IndexItem>)
FUNC 265718 3a 0 geode::Index::install(std::__ndk1::shared_ptr<geode::IndexItem>)::$_0::~$_0()
FUNC 265754 164 0 geode::Index::getTags() const
FUNC 2658b8 78 0 geode::ModInstallEvent::~ModInstallEvent()
FUNC 265930 6c 0 geode::IndexUpdateEvent::~IndexUpdateEvent()
FUNC 26599c 2 0 std::__ndk1::__variant_detail::__visitation::__base::__dispatcher<(unsigned int)0>::__dispatch[abi:v170000]<std::__ndk1::__variant_detail::__dtor<std::__ndk1::__variant_detail::__traits<std::__ndk1::monostate, std::__ndk1::pair<unsigned char, std::__ndk1::basic_string<char, std::__ndk1::char_traits<char>, std::__ndk1::allocator<char> > >, std::__ndk1::allocator<char> >, (std::__ndk1::__variant_detail::_Trait)1>::__destroy[abi:v170000]()::{lambda(auto:1&)#1}, std::__ndk1::__variant_detail::__base<(std::__ndk1::__variant_detail::__traits<std::__ndk1::monostate, std::__ndk1::pair<unsigned char, std::__ndk1::basic_string<char, std::__ndk1::char_traits<char>, std::__ndk1::allocator<char> > >, std::__ndk1::allocator<char> >)1, std::__ndk1::__variant_detail::__traits, std::__ndk1::basic_string<char, std::__ndk1::char_traits<char>, std::__ndk1::allocator<char> >, std::__ndk1::allocator<char> >&>(std::__ndk1::__variant_detail::__dtor<std::__ndk1::__variant_detail::__traits<std::__ndk1::monostate, std::__ndk1::pair<unsigned char, std::__ndk1::basic_string<char, std::__ndk1::char_traits<char>, std::__ndk1::allocator<char> > >, std::__ndk1::allocator<char> >, (std::__ndk1::__variant_detail::_Trait)1>, std::__ndk1::__variant_detail::__base<(std::__ndk1::__variant_detail::__traits<std::__ndk1::monostate, std::__ndk1::pair<unsigned char, std::__ndk1::basic_string<char, std::__ndk1::char_traits<char>, std::__ndk1::allocator<char> > >, std::__ndk1::allocator<char> >)1, std::__ndk1::__variant_detail::__traits, std::__ndk1::basic_string<char, std::__ndk1::char_traits<char>, std::__ndk1::allocator<char> >, std::__ndk1::allocator<char> >&)
FUNC 26599e e 0 std::__ndk1::__variant_detail::__visitation::__base::__dispatcher<(unsigned int)1>::__dispatch[abi:v170000]<std::__ndk1::__variant_detail::__dtor<std::__ndk1::__variant_detail::__traits<std::__ndk1::monostate, std::__ndk1::pair<unsigned char, std::__ndk1::basic_string<char, std::__ndk1::char_traits<char>, std::__ndk1::allocator<char> > >, std::__ndk1::allocator<char> >, (std::__ndk1::__variant_detail::_Trait)1>::__destroy[abi:v170000]()::{lambda(auto:1&)#1}, std::__ndk1::__variant_detail::__base<(std::__ndk1::__variant_detail::__traits<std::__ndk1::monostate, std::__ndk1::pair<unsigned char, std::__ndk1::basic_string<char, std::__ndk1::char_traits<char>, std::__ndk1::allocator<char> > >, std::__ndk1::allocator<char> >)1, std::__ndk1::__variant_detail::__traits, std::__ndk1::basic_string<char, std::__ndk1::char_traits<char>, std::__ndk1::allocator<char> >, std::__ndk1::allocator<char> >&>(std::__ndk1::__variant_detail::__dtor<std::__ndk1::__variant_detail::__traits<std::__ndk1::monostate, std::__ndk1::pair<unsigned char, std::__ndk1::basic_string<char, std::__ndk1::char_traits<char>, std::__ndk1::allocator<char> > >, std::__ndk1::allocator<char> >, (std::__ndk1::__variant_detail::_Trait)1>, std::__ndk1::__variant_detail::__base<(std::__ndk1::__variant_detail::__traits<std::__ndk1::monostate, std::__ndk1::pair<unsigned char, std::__ndk1::basic_string<char, std::__ndk1::char_traits<char>, std::__ndk1::allocator<char> > >, std::__ndk1::allocator<char> >)1, std::__ndk1::__variant_detail::__traits, std::__ndk1::basic_string<char, std::__ndk1::char_traits<char>, std::__ndk1::allocator<char> >, std::__ndk1::allocator<char> >&)
FUNC 2659ac e 0 std::__ndk1::__variant_detail::__visitation::__base::__dispatcher<(unsigned int)2>::__dispatch[abi:v170000]<std::__ndk1::__variant_detail::__dtor<std::__ndk1::__variant_detail::__traits<std::__ndk1::monostate, std::__ndk1::pair<unsigned char, std::__ndk1::basic_string<char, std::__ndk1::char_traits<char>, std::__ndk1::allocator<char> > >, std::__ndk1::allocator<char> >, (std::__ndk1::__variant_detail::_Trait)1>::__destroy[abi:v170000]()::{lambda(auto:1&)#1}, std::__ndk1::__variant_detail::__base<(std::__ndk1::__variant_detail::__traits<std::__ndk1::monostate, std::__ndk1::pair<unsigned char, std::__ndk1::basic_string<char, std::__ndk1::char_traits<char>, std::__ndk1::allocator<char> > >, std::__ndk1::allocator<char> >)1, std::__ndk1::__variant_detail::__traits, std::__ndk1::basic_string<char, std::__ndk1::char_traits<char>, std::__ndk1::allocator<char> >, std::__ndk1::allocator<char> >&>(std::__ndk1::__variant_detail::__dtor<std::__ndk1::__variant_detail::__traits<std::__ndk1::monostate, std::__ndk1::pair<unsigned char, std::__ndk1::basic_string<char, std::__ndk1::char_traits<char>, std::__ndk1::allocator<char> > >, std::__ndk1::allocator<char> >, (std::__ndk1::__variant_detail::_Trait)1>, std::__ndk1::__variant_detail::__base<(std::__ndk1::__variant_detail::__traits<std::__ndk1::monostate, std::__ndk1::pair<unsigned char, std::__ndk1::basic_string<char, std::__ndk1::char_traits<char>, std::__ndk1::allocator<char> > >, std::__ndk1::allocator<char> >)1, std::__ndk1::__variant_detail::__traits, std::__ndk1::basic_string<char, std::__ndk1::char_traits<char>, std::__ndk1::allocator<char> >, std::__ndk1::allocator<char> >&)
FUNC 2659ba 2 0 _ZNSt6__ndk116__variant_detail12__visitation6__base12__dispatcherIJLj0ELj0EEE10__dispatchB7v170000IOZNS0_6__ctorINS0_8__traitsIJNS_9monostateENS_4pairIhNS_12basic_stringIcNS_11char_traitsIcEENS_9allocatorIcEEEEEESF_EEEE19__generic_constructB7v170000IRKNS0_18__copy_constructorISH_LNS0_6_TraitE1EEEEEvRSI_OT_EUlRSQ_OT0_E_JRNS0_6__baseILSL_1EJS8_SG_SF_EEERKSY_EEEDcSQ_DpT0_
FUNC 2659bc 68 0 _ZNSt6__ndk116__variant_detail12__visitation6__base12__dispatcherIJLj1ELj1EEE10__dispatchB7v170000IOZNS0_6__ctorINS0_8__traitsIJNS_9monostateENS_4pairIhNS_12basic_stringIcNS_11char_traitsIcEENS_9allocatorIcEEEEEESF_EEEE19__generic_constructB7v170000IRKNS0_18__copy_constructorISH_LNS0_6_TraitE1EEEEEvRSI_OT_EUlRSQ_OT0_E_JRNS0_6__baseILSL_1EJS8_SG_SF_EEERKSY_EEEDcSQ_DpT0_
FUNC 265a24 62 0 _ZNSt6__ndk116__variant_detail12__visitation6__base12__dispatcherIJLj2ELj2EEE10__dispatchB7v170000IOZNS0_6__ctorINS0_8__traitsIJNS_9monostateENS_4pairIhNS_12basic_stringIcNS_11char_traitsIcEENS_9allocatorIcEEEEEESF_EEEE19__generic_constructB7v170000IRKNS0_18__copy_constructorISH_LNS0_6_TraitE1EEEEEvRSI_OT_EUlRSQ_OT0_E_JRNS0_6__baseILSL_1EJS8_SG_SF_EEERKSY_EEEDcSQ_DpT0_
FUNC 265a86 1d4 0 std::__ndk1::vector<std::__ndk1::shared_ptr<geode::IndexItem>, std::__ndk1::allocator<std::__ndk1::shared_ptr<geode::IndexItem> > >::__push_back_slow_path<std::__ndk1::shared_ptr<geode::IndexItem> const&>(std::__ndk1::shared_ptr<geode::IndexItem> const&)
FUNC 265c5c 10 0 std::__ndk1::vector<std::__ndk1::shared_ptr<geode::IndexItem>, std::__ndk1::allocator<std::__ndk1::shared_ptr<geode::IndexItem> > >::__throw_length_error[abi:v170000]() const
FUNC 265c6c 1c2 0 std::__ndk1::vector<std::__ndk1::shared_ptr<geode::IndexItem>, std::__ndk1::allocator<std::__ndk1::shared_ptr<geode::IndexItem> > >::__push_back_slow_path<std::__ndk1::shared_ptr<geode::IndexItem> >(std::__ndk1::shared_ptr<geode::IndexItem>&&)
FUNC 265e30 328 0 geode::ComparableVersionInfo::compareWithReason(geode::VersionInfo const&) const
FUNC 266158 ac 0 std::__ndk1::vector<std::__ndk1::shared_ptr<geode::IndexItem>, std::__ndk1::allocator<std::__ndk1::shared_ptr<geode::IndexItem> > >::vector(std::__ndk1::vector<std::__ndk1::shared_ptr<geode::IndexItem>, std::__ndk1::allocator<std::__ndk1::shared_ptr<geode::IndexItem> > > const&)
FUNC 266204 74 0 std::__ndk1::__exception_guard<std::__ndk1::vector<std::__ndk1::shared_ptr<geode::IndexItem>, std::__ndk1::allocator<std::__ndk1::shared_ptr<geode::IndexItem> > >::__destroy_vector>::~__exception_guard[abi:v170000]()
FUNC 266278 10 0 std::__ndk1::vector<std::__ndk1::shared_ptr<geode::IndexItem>, std::__ndk1::allocator<std::__ndk1::shared_ptr<geode::IndexItem> > >::__throw_out_of_range[abi:v170000]() const
FUNC 266288 8c 0 geode::IndexItem::Impl::~Impl()
FUNC 266314 28 0 std::__ndk1::__hash_table<geode::PlatformID, std::__ndk1::hash<geode::PlatformID>, std::__ndk1::equal_to<geode::PlatformID>, std::__ndk1::allocator<geode::PlatformID> >::~__hash_table()
FUNC 26633c 10c 0 std::__ndk1::__hash_table<geode::PlatformID, std::__ndk1::hash<geode::PlatformID>, std::__ndk1::equal_to<geode::PlatformID>, std::__ndk1::allocator<geode::PlatformID> >::__do_rehash<true>(unsigned int)
FUNC 266448 27c 0 std::__ndk1::__hash_table<geode::PlatformID, std::__ndk1::hash<geode::PlatformID>, std::__ndk1::equal_to<geode::PlatformID>, std::__ndk1::allocator<geode::PlatformID> >::__emplace_unique_key_args<geode::PlatformID, geode::PlatformID const&>(geode::PlatformID const&, geode::PlatformID const&)
FUNC 2666c4 3e 0 std::__ndk1::__hash_table<std::__ndk1::basic_string<char, std::__ndk1::char_traits<char>, std::__ndk1::allocator<char> >, std::__ndk1::hash<std::__ndk1::basic_string<char, std::__ndk1::char_traits<char>, std::__ndk1::allocator<char> > >, std::__ndk1::equal_to<std::__ndk1::basic_string<char, std::__ndk1::char_traits<char>, std::__ndk1::allocator<char> > >, std::__ndk1::allocator<std::__ndk1::basic_string<char, std::__ndk1::char_traits<char>, std::__ndk1::allocator<char> > > >::~__hash_table()
FUNC 266702 10c 0 std::__ndk1::__hash_table<std::__ndk1::basic_string<char, std::__ndk1::char_traits<char>, std::__ndk1::allocator<char> >, std::__ndk1::hash<std::__ndk1::basic_string<char, std::__ndk1::char_traits<char>, std::__ndk1::allocator<char> > >, std::__ndk1::equal_to<std::__ndk1::basic_string<char, std::__ndk1::char_traits<char>, std::__ndk1::allocator<char> > >, std::__ndk1::allocator<std::__ndk1::basic_string<char, std::__ndk1::char_traits<char>, std::__ndk1::allocator<char> > > >::__do_rehash<true>(unsigned int)
FUNC 266810 35c 0 std::__ndk1::__hash_table<std::__ndk1::basic_string<char, std::__ndk1::char_traits<char>, std::__ndk1::allocator<char> >, std::__ndk1::hash<std::__ndk1::basic_string<char, std::__ndk1::char_traits<char>, std::__ndk1::allocator<char> > >, std::__ndk1::equal_to<std::__ndk1::basic_string<char, std::__ndk1::char_traits<char>, std::__ndk1::allocator<char> > >, std::__ndk1::allocator<std::__ndk1::basic_string<char, std::__ndk1::char_traits<char>, std::__ndk1::allocator<char> > > >::__emplace_unique_key_args<std::__ndk1::basic_string<char, std::__ndk1::char_traits<char>, std::__ndk1::allocator<char> >, std::__ndk1::basic_string<char, std::__ndk1::char_traits<char>, std::__ndk1::allocator<char> > const&>(std::__ndk1::basic_string<char, std::__ndk1::char_traits<char>, std::__ndk1::allocator<char> > const&, std::__ndk1::basic_string<char, std::__ndk1::char_traits<char>, std::__ndk1::allocator<char> > const&)
FUNC 266b6c 94 0 std::__ndk1::__hash_table<std::__ndk1::basic_string<char, std::__ndk1::char_traits<char>, std::__ndk1::allocator<char> >, std::__ndk1::hash<std::__ndk1::basic_string<char, std::__ndk1::char_traits<char>, std::__ndk1::allocator<char> > >, std::__ndk1::equal_to<std::__ndk1::basic_string<char, std::__ndk1::char_traits<char>, std::__ndk1::allocator<char> > >, std::__ndk1::allocator<std::__ndk1::basic_string<char, std::__ndk1::char_traits<char>, std::__ndk1::allocator<char> > > >::__construct_node_hash<std::__ndk1::basic_string<char, std::__ndk1::char_traits<char>, std::__ndk1::allocator<char> > const&, >(unsigned int, std::__ndk1::basic_string<char, std::__ndk1::char_traits<char>, std::__ndk1::allocator<char> > const&, &&)
FUNC 266c00 2a 0 std::__ndk1::unique_ptr<std::__ndk1::__hash_node<std::__ndk1::basic_string<char, std::__ndk1::char_traits<char>, std::__ndk1::allocator<char> >, void*>, std::__ndk1::__hash_node_destructor<std::__ndk1::allocator<std::__ndk1::__hash_node<std::__ndk1::basic_string<char, std::__ndk1::char_traits<char>, std::__ndk1::allocator<char> >, void*> > > >::~unique_ptr[abi:v170000]()
FUNC 266c2a 24 0 std::__ndk1::__hash_table<std::__ndk1::basic_string<char, std::__ndk1::char_traits<char>, std::__ndk1::allocator<char> >, std::__ndk1::hash<std::__ndk1::basic_string<char, std::__ndk1::char_traits<char>, std::__ndk1::allocator<char> > >, std::__ndk1::equal_to<std::__ndk1::basic_string<char, std::__ndk1::char_traits<char>, std::__ndk1::allocator<char> > >, std::__ndk1::allocator<std::__ndk1::basic_string<char, std::__ndk1::char_traits<char>, std::__ndk1::allocator<char> > > >::__deallocate_node(std::__ndk1::__hash_node_base<std::__ndk1::__hash_node<std::__ndk1::basic_string<char, std::__ndk1::char_traits<char>, std::__ndk1::allocator<char> >, void*>*>*)
FUNC 266c4e b2 0 std::__ndk1::__hash_table<geode::PlatformID, std::__ndk1::hash<geode::PlatformID>, std::__ndk1::equal_to<geode::PlatformID>, std::__ndk1::allocator<geode::PlatformID> >::__assign_multi<std::__ndk1::__hash_const_iterator<std::__ndk1::__hash_node<geode::PlatformID, void*>*> >(std::__ndk1::__hash_const_iterator<std::__ndk1::__hash_node<geode::PlatformID, void*>*>, std::__ndk1::__hash_const_iterator<std::__ndk1::__hash_node<geode::PlatformID, void*>*>)
FUNC 266d00 ec 0 std::__ndk1::__hash_table<geode::PlatformID, std::__ndk1::hash<geode::PlatformID>, std::__ndk1::equal_to<geode::PlatformID>, std::__ndk1::allocator<geode::PlatformID> >::__node_insert_multi(std::__ndk1::__hash_node<geode::PlatformID, void*>*)
FUNC 266dec 202 0 std::__ndk1::__hash_table<geode::PlatformID, std::__ndk1::hash<geode::PlatformID>, std::__ndk1::equal_to<geode::PlatformID>, std::__ndk1::allocator<geode::PlatformID> >::__node_insert_multi_prepare(unsigned int, geode::PlatformID&)
FUNC 266fee 132 0 std::__ndk1::__hash_table<geode::PlatformID, std::__ndk1::hash<geode::PlatformID>, std::__ndk1::equal_to<geode::PlatformID>, std::__ndk1::allocator<geode::PlatformID> >::__do_rehash<false>(unsigned int)
FUNC 267120 104 0 std::__ndk1::__hash_table<std::__ndk1::basic_string<char, std::__ndk1::char_traits<char>, std::__ndk1::allocator<char> >, std::__ndk1::hash<std::__ndk1::basic_string<char, std::__ndk1::char_traits<char>, std::__ndk1::allocator<char> > >, std::__ndk1::equal_to<std::__ndk1::basic_string<char, std::__ndk1::char_traits<char>, std::__ndk1::allocator<char> > >, std::__ndk1::allocator<std::__ndk1::basic_string<char, std::__ndk1::char_traits<char>, std::__ndk1::allocator<char> > > >::__assign_multi<std::__ndk1::__hash_const_iterator<std::__ndk1::__hash_node<std::__ndk1::basic_string<char, std::__ndk1::char_traits<char>, std::__ndk1::allocator<char> >, void*>*> >(std::__ndk1::__hash_const_iterator<std::__ndk1::__hash_node<std::__ndk1::basic_string<char, std::__ndk1::char_traits<char>, std::__ndk1::allocator<char> >, void*>*>, std::__ndk1::__hash_const_iterator<std::__ndk1::__hash_node<std::__ndk1::basic_string<char, std::__ndk1::char_traits<char>, std::__ndk1::allocator<char> >, void*>*>)
FUNC 267224 14e 0 std::__ndk1::__hash_table<std::__ndk1::basic_string<char, std::__ndk1::char_traits<char>, std::__ndk1::allocator<char> >, std::__ndk1::hash<std::__ndk1::basic_string<char, std::__ndk1::char_traits<char>, std::__ndk1::allocator<char> > >, std::__ndk1::equal_to<std::__ndk1::basic_string<char, std::__ndk1::char_traits<char>, std::__ndk1::allocator<char> > >, std::__ndk1::allocator<std::__ndk1::basic_string<char, std::__ndk1::char_traits<char>, std::__ndk1::allocator<char> > > >::__node_insert_multi(std::__ndk1::__hash_node<std::__ndk1::basic_string<char, std::__ndk1::char_traits<char>, std::__ndk1::allocator<char> >, void*>*)
FUNC 267372 28c 0 std::__ndk1::__hash_table<std::__ndk1::basic_string<char, std::__ndk1::char_traits<char>, std::__ndk1::allocator<char> >, std::__ndk1::hash<std::__ndk1::basic_string<char, std::__ndk1::char_traits<char>, std::__ndk1::allocator<char> > >, std::__ndk1::equal_to<std::__ndk1::basic_string<char, std::__ndk1::char_traits<char>, std::__ndk1::allocator<char> > >, std::__ndk1::allocator<std::__ndk1::basic_string<char, std::__ndk1::char_traits<char>, std::__ndk1::allocator<char> > > >::__node_insert_multi_prepare(unsigned int, std::__ndk1::basic_string<char, std::__ndk1::char_traits<char>, std::__ndk1::allocator<char> >&)
FUNC 2675fe 1ea 0 std::__ndk1::__hash_table<std::__ndk1::basic_string<char, std::__ndk1::char_traits<char>, std::__ndk1::allocator<char> >, std::__ndk1::hash<std::__ndk1::basic_string<char, std::__ndk1::char_traits<char>, std::__ndk1::allocator<char> > >, std::__ndk1::equal_to<std::__ndk1::basic_string<char, std::__ndk1::char_traits<char>, std::__ndk1::allocator<char> > >, std::__ndk1::allocator<std::__ndk1::basic_string<char, std::__ndk1::char_traits<char>, std::__ndk1::allocator<char> > > >::__do_rehash<false>(unsigned int)
FUNC 2677e8 102 0 std::__ndk1::__hash_table<std::__ndk1::basic_string<char, std::__ndk1::char_traits<char>, std::__ndk1::allocator<char> >, std::__ndk1::hash<std::__ndk1::basic_string<char, std::__ndk1::char_traits<char>, std::__ndk1::allocator<char> > >, std::__ndk1::equal_to<std::__ndk1::basic_string<char, std::__ndk1::char_traits<char>, std::__ndk1::allocator<char> > >, std::__ndk1::allocator<std::__ndk1::basic_string<char, std::__ndk1::char_traits<char>, std::__ndk1::allocator<char> > > >::__construct_node<std::__ndk1::basic_string<char, std::__ndk1::char_traits<char>, std::__ndk1::allocator<char> > const&>(std::__ndk1::basic_string<char, std::__ndk1::char_traits<char>, std::__ndk1::allocator<char> > const&)
FUNC 2678ec 90 0 fmt::v10::detail::value<fmt::v10::basic_format_context<fmt::v10::appender, char> >::format_custom_arg<ghc::filesystem::path, fmt::v10::formatter<ghc::filesystem::path, char, void> >(void*, fmt::v10::basic_format_parse_context<char>&, fmt::v10::basic_format_context<fmt::v10::appender, char>&)
FUNC 26797c e8 0 fmt::v10::formatter<ghc::filesystem::path, char, void>::format<fmt::v10::basic_format_context<fmt::v10::appender, char> >(ghc::filesystem::path const&, fmt::v10::basic_format_context<fmt::v10::appender, char>&) const
FUNC 267a64 240 0 geode::JsonMaybeValue::as<(matjson::Type)2>()
FUNC 267ca4 aa 0 std::__ndk1::operator+[abi:v170000]<char, std::__ndk1::char_traits<char>, std::__ndk1::allocator<char> >(std::__ndk1::allocator<char> const&, std::__ndk1::basic_string const*)
FUNC 267d4e 27c 0 std::__ndk1::__hash_table<geode::PlatformID, std::__ndk1::hash<geode::PlatformID>, std::__ndk1::equal_to<geode::PlatformID>, std::__ndk1::allocator<geode::PlatformID> >::__emplace_unique_key_args<geode::PlatformID, geode::PlatformID>(geode::PlatformID const&, geode::PlatformID&&)
FUNC 267fcc 380 0 std::__ndk1::__hash_table<std::__ndk1::basic_string<char, std::__ndk1::char_traits<char>, std::__ndk1::allocator<char> >, std::__ndk1::hash<std::__ndk1::basic_string<char, std::__ndk1::char_traits<char>, std::__ndk1::allocator<char> > >, std::__ndk1::equal_to<std::__ndk1::basic_string<char, std::__ndk1::char_traits<char>, std::__ndk1::allocator<char> > >, std::__ndk1::allocator<std::__ndk1::basic_string<char, std::__ndk1::char_traits<char>, std::__ndk1::allocator<char> > > >::__emplace_unique_key_args<std::__ndk1::basic_string<char, std::__ndk1::char_traits<char>, std::__ndk1::allocator<char> >, std::__ndk1::basic_string<char, std::__ndk1::char_traits<char>, std::__ndk1::allocator<char> > >(std::__ndk1::basic_string<char, std::__ndk1::char_traits<char>, std::__ndk1::allocator<char> > const&, std::__ndk1::basic_string<char, std::__ndk1::char_traits<char>, std::__ndk1::allocator<char> >&&)
FUNC 26834c 14 0 std::__ndk1::__shared_ptr_emplace<geode::IndexItem, std::__ndk1::allocator<geode::IndexItem> >::~__shared_ptr_emplace()
FUNC 268360 20 0 std::__ndk1::__shared_ptr_emplace<geode::IndexItem, std::__ndk1::allocator<geode::IndexItem> >::~__shared_ptr_emplace()
FUNC 268380 6 0 std::__ndk1::__shared_ptr_emplace<geode::IndexItem, std::__ndk1::allocator<geode::IndexItem> >::__on_zero_shared()
FUNC 268386 4 0 std::__ndk1::__shared_ptr_emplace<geode::IndexItem, std::__ndk1::allocator<geode::IndexItem> >::__on_zero_shared_weak()
FUNC 26838c 324 0 geode::JsonMaybeValue::intoAs<std::__ndk1::basic_string<char, std::__ndk1::char_traits<char>, std::__ndk1::allocator<char> >, std::__ndk1::basic_string<char, std::__ndk1::char_traits<char>, std::__ndk1::allocator<char> > >(std::__ndk1::basic_string<char, std::__ndk1::char_traits<char>, std::__ndk1::allocator<char> >&)
FUNC 2686b0 36 0 std::__ndk1::operator+[abi:v170000]<char, std::__ndk1::char_traits<char>, std::__ndk1::allocator<char> >(std::__ndk1::allocator<char>&&, std::__ndk1::basic_string<char, std::__ndk1::char_traits<char>, std::__ndk1::allocator<char> >)
FUNC 2686e8 310 0 geode::JsonMaybeValue::intoAs<bool, bool>(bool&)
FUNC 2689f8 d4 0 geode::Index::Impl::Impl()
FUNC 268acc 48 0 std::__ndk1::unordered_map<std::__ndk1::basic_string<char, std::__ndk1::char_traits<char>, std::__ndk1::allocator<char> >, std::__ndk1::map<geode::VersionInfo, std::__ndk1::shared_ptr<geode::IndexItem>, std::__ndk1::less<geode::VersionInfo>, std::__ndk1::allocator<std::__ndk1::pair<geode::VersionInfo const, std::__ndk1::shared_ptr<geode::IndexItem> > > >, std::__ndk1::hash<std::__ndk1::basic_string<char, std::__ndk1::char_traits<char>, std::__ndk1::allocator<char> > >, std::__ndk1::equal_to<std::__ndk1::basic_string<char, std::__ndk1::char_traits<char>, std::__ndk1::allocator<char> > >, std::__ndk1::allocator<std::__ndk1::pair<std::__ndk1::basic_string<char, std::__ndk1::char_traits<char>, std::__ndk1::allocator<char> > const, std::__ndk1::map<geode::VersionInfo, std::__ndk1::shared_ptr<geode::IndexItem>, std::__ndk1::less<geode::VersionInfo>, std::__ndk1::allocator<std::__ndk1::pair<geode::VersionInfo const, std::__ndk1::shared_ptr<geode::IndexItem> > > > > > >::~unordered_map[abi:v170000]()
FUNC 268b14 4 0 geode::utils::MiniFunctionState<geode::Index::Impl::Impl()::{lambda(geode::IndexUpdateEvent*)#1}, void, geode::IndexUpdateEvent*>::~MiniFunctionState()
FUNC 268b18 18 0 geode::utils::MiniFunctionState<geode::Index::Impl::Impl()::{lambda(geode::IndexUpdateEvent*)#1}, void, geode::IndexUpdateEvent*>::call(geode::IndexUpdateEvent*) const
FUNC 268b30 20 0 geode::utils::MiniFunctionState<geode::Index::Impl::Impl()::{lambda(geode::IndexUpdateEvent*)#1}, void, geode::IndexUpdateEvent*>::clone() const
FUNC 268b50 92 0 std::__ndk1::__hash_table<std::__ndk1::__hash_value_type<std::__ndk1::shared_ptr<geode::IndexItem>, std::__ndk1::shared_ptr<geode::utils::web::SentAsyncWebRequest> >, std::__ndk1::__unordered_map_hasher<std::__ndk1::shared_ptr<geode::IndexItem>, std::__ndk1::__hash_value_type<std::__ndk1::shared_ptr<geode::IndexItem>, std::__ndk1::shared_ptr<geode::utils::web::SentAsyncWebRequest> >, std::__ndk1::hash<std::__ndk1::shared_ptr<geode::IndexItem> >, std::__ndk1::equal_to<std::__ndk1::shared_ptr<geode::IndexItem> >, true>, std::__ndk1::__unordered_map_equal<std::__ndk1::shared_ptr<geode::IndexItem>, std::__ndk1::__hash_value_type<std::__ndk1::shared_ptr<geode::IndexItem>, std::__ndk1::shared_ptr<geode::utils::web::SentAsyncWebRequest> >, std::__ndk1::equal_to<std::__ndk1::shared_ptr<geode::IndexItem> >, std::__ndk1::hash<std::__ndk1::shared_ptr<geode::IndexItem> >, true>, std::__ndk1::allocator<std::__ndk1::__hash_value_type<std::__ndk1::shared_ptr<geode::IndexItem>, std::__ndk1::shared_ptr<geode::utils::web::SentAsyncWebRequest> > > >::~__hash_table()
FUNC 268be2 60 0 std::__ndk1::default_delete<geode::Index::Impl>::operator()[abi:v170000](geode::Index::Impl*) const
FUNC 268c42 136 0 std::__ndk1::__hash_table<std::__ndk1::__hash_value_type<std::__ndk1::basic_string<char, std::__ndk1::char_traits<char>, std::__ndk1::allocator<char> >, std::__ndk1::map<geode::VersionInfo, std::__ndk1::shared_ptr<geode::IndexItem>, std::__ndk1::less<geode::VersionInfo>, std::__ndk1::allocator<std::__ndk1::pair<geode::VersionInfo const, std::__ndk1::shared_ptr<geode::IndexItem> > > > >, std::__ndk1::__unordered_map_hasher<std::__ndk1::basic_string<char, std::__ndk1::char_traits<char>, std::__ndk1::allocator<char> >, std::__ndk1::__hash_value_type<std::__ndk1::basic_string<char, std::__ndk1::char_traits<char>, std::__ndk1::allocator<char> >, std::__ndk1::map<geode::VersionInfo, std::__ndk1::shared_ptr<geode::IndexItem>, std::__ndk1::less<geode::VersionInfo>, std::__ndk1::allocator<std::__ndk1::pair<geode::VersionInfo const, std::__ndk1::shared_ptr<geode::IndexItem> > > > >, std::__ndk1::hash<std::__ndk1::basic_string<char, std::__ndk1::char_traits<char>, std::__ndk1::allocator<char> > >, std::__ndk1::equal_to<std::__ndk1::basic_string<char, std::__ndk1::char_traits<char>, std::__ndk1::allocator<char> > >, true>, std::__ndk1::__unordered_map_equal<std::__ndk1::basic_string<char, std::__ndk1::char_traits<char>, std::__ndk1::allocator<char> >, std::__ndk1::__hash_value_type<std::__ndk1::basic_string<char, std::__ndk1::char_traits<char>, std::__ndk1::allocator<char> >, std::__ndk1::map<geode::VersionInfo, std::__ndk1::shared_ptr<geode::IndexItem>, std::__ndk1::less<geode::VersionInfo>, std::__ndk1::allocator<std::__ndk1::pair<geode::VersionInfo const, std::__ndk1::shared_ptr<geode::IndexItem> > > > >, std::__ndk1::equal_to<std::__ndk1::basic_string<char, std::__ndk1::char_traits<char>, std::__ndk1::allocator<char> > >, std::__ndk1::hash<std::__ndk1::basic_string<char, std::__ndk1::char_traits<char>, std::__ndk1::allocator<char> > >, true>, std::__ndk1::allocator<std::__ndk1::__hash_value_type<std::__ndk1::basic_string<char, std::__ndk1::char_traits<char>, std::__ndk1::allocator<char> >, std::__ndk1::map<geode::VersionInfo, std::__ndk1::shared_ptr<geode::IndexItem>, std::__ndk1::less<geode::VersionInfo>, std::__ndk1::allocator<std::__ndk1::pair<geode::VersionInfo const, std::__ndk1::shared_ptr<geode::IndexItem> > > > > > >::remove(std::__ndk1::__hash_const_iterator<std::__ndk1::__hash_node<std::__ndk1::__hash_value_type<std::__ndk1::basic_string<char, std::__ndk1::char_traits<char>, std::__ndk1::allocator<char> >, std::__ndk1::map<geode::VersionInfo, std::__ndk1::shared_ptr<geode::IndexItem>, std::__ndk1::less<geode::VersionInfo>, std::__ndk1::allocator<std::__ndk1::pair<geode::VersionInfo const, std::__ndk1::shared_ptr<geode::IndexItem> > > > >, void*>*>)
FUNC 268d78 32 0 std::__ndk1::unique_ptr<std::__ndk1::__hash_node<std::__ndk1::__hash_value_type<std::__ndk1::basic_string<char, std::__ndk1::char_traits<char>, std::__ndk1::allocator<char> >, std::__ndk1::map<geode::VersionInfo, std::__ndk1::shared_ptr<geode::IndexItem>, std::__ndk1::less<geode::VersionInfo>, std::__ndk1::allocator<std::__ndk1::pair<geode::VersionInfo const, std::__ndk1::shared_ptr<geode::IndexItem> > > > >, void*>, std::__ndk1::__hash_node_destructor<std::__ndk1::allocator<std::__ndk1::__hash_node<std::__ndk1::__hash_value_type<std::__ndk1::basic_string<char, std::__ndk1::char_traits<char>, std::__ndk1::allocator<char> >, std::__ndk1::map<geode::VersionInfo, std::__ndk1::shared_ptr<geode::IndexItem>, std::__ndk1::less<geode::VersionInfo>, std::__ndk1::allocator<std::__ndk1::pair<geode::VersionInfo const, std::__ndk1::shared_ptr<geode::IndexItem> > > > >, void*> > > >::~unique_ptr[abi:v170000]()
FUNC 268daa 16 0 geode::utils::MiniFunctionState<geode::utils::web::AsyncWebResult<std::__ndk1::monostate>::then(geode::utils::MiniFunction<void (std::__ndk1::monostate)>)::{lambda(geode::utils::web::SentAsyncWebRequest&, std::__ndk1::vector<unsigned char, std::__ndk1::allocator<unsigned char> > const&)#1}, void, geode::utils::web::SentAsyncWebRequest&, std::__ndk1::vector<unsigned char, std::__ndk1::allocator<unsigned char> > const&>::~MiniFunctionState()
FUNC 268dc0 1c 0 geode::utils::MiniFunctionState<geode::utils::web::AsyncWebResult<std::__ndk1::monostate>::then(geode::utils::MiniFunction<void (std::__ndk1::monostate)>)::{lambda(geode::utils::web::SentAsyncWebRequest&, std::__ndk1::vector<unsigned char, std::__ndk1::allocator<unsigned char> > const&)#1}, void, geode::utils::web::SentAsyncWebRequest&, std::__ndk1::vector<unsigned char, std::__ndk1::allocator<unsigned char> > const&>::~MiniFunctionState()
FUNC 268ddc 6 0 geode::utils::MiniFunctionState<geode::utils::web::AsyncWebResult<std::__ndk1::monostate>::then(geode::utils::MiniFunction<void (std::__ndk1::monostate)>)::{lambda(geode::utils::web::SentAsyncWebRequest&, std::__ndk1::vector<unsigned char, std::__ndk1::allocator<unsigned char> > const&)#1}, void, geode::utils::web::SentAsyncWebRequest&, std::__ndk1::vector<unsigned char, std::__ndk1::allocator<unsigned char> > const&>::call(geode::utils::web::SentAsyncWebRequest&, std::__ndk1::vector<unsigned char, std::__ndk1::allocator<unsigned char> > const&) const
FUNC 268de4 40 0 geode::utils::MiniFunctionState<geode::utils::web::AsyncWebResult<std::__ndk1::monostate>::then(geode::utils::MiniFunction<void (std::__ndk1::monostate)>)::{lambda(geode::utils::web::SentAsyncWebRequest&, std::__ndk1::vector<unsigned char, std::__ndk1::allocator<unsigned char> > const&)#1}, void, geode::utils::web::SentAsyncWebRequest&, std::__ndk1::vector<unsigned char, std::__ndk1::allocator<unsigned char> > const&>::clone() const
FUNC 268e24 14c 0 geode::utils::web::AsyncWebResult<std::__ndk1::monostate>::then(geode::utils::MiniFunction<void (std::__ndk1::monostate)>)::{lambda(geode::utils::web::SentAsyncWebRequest&, std::__ndk1::vector<unsigned char, std::__ndk1::allocator<unsigned char> > const&)#1}::operator()(geode::utils::web::SentAsyncWebRequest&, std::__ndk1::vector<unsigned char, std::__ndk1::allocator<unsigned char> > const&) const
FUNC 268f70 1e 0 geode::utils::MiniFunctionState<geode::Index::Impl::downloadIndex(std::__ndk1::basic_string<char, std::__ndk1::char_traits<char>, std::__ndk1::allocator<char> >)::$_0, void, std::__ndk1::monostate>::~MiniFunctionState()
FUNC 268f8e 24 0 geode::utils::MiniFunctionState<geode::Index::Impl::downloadIndex(std::__ndk1::basic_string<char, std::__ndk1::char_traits<char>, std::__ndk1::allocator<char> >)::$_0, void, std::__ndk1::monostate>::~MiniFunctionState()
FUNC 268fb4 17c 0 geode::utils::MiniFunctionState<geode::Index::Impl::downloadIndex(std::__ndk1::basic_string<char, std::__ndk1::char_traits<char>, std::__ndk1::allocator<char> >)::$_0, void, std::__ndk1::monostate>::call(std::__ndk1::monostate) const
FUNC 269130 a0 0 geode::utils::MiniFunctionState<geode::Index::Impl::downloadIndex(std::__ndk1::basic_string<char, std::__ndk1::char_traits<char>, std::__ndk1::allocator<char> >)::$_0, void, std::__ndk1::monostate>::clone() const
FUNC 2691d0 abc 0 std::__ndk1::__thread_proxy[abi:v170000]<std::__ndk1::tuple<std::__ndk1::unique_ptr<std::__ndk1::__thread_struct, std::__ndk1::default_delete<std::__ndk1::unique_ptr> >, geode::Index::Impl::downloadIndex(std::__ndk1::basic_string<char, std::__ndk1::char_traits<char>, std::__ndk1::allocator<char> >)::$_0::operator()<std::__ndk1::monostate>(std::__ndk1::monostate) const::{lambda()#1}> >(std::__ndk1::tuple<std::__ndk1::unique_ptr<std::__ndk1::__thread_struct, std::__ndk1::default_delete<std::__ndk1::unique_ptr> >, geode::Index::Impl::downloadIndex(std::__ndk1::basic_string<char, std::__ndk1::char_traits<char>, std::__ndk1::allocator<char> >)::$_0::operator()<std::__ndk1::monostate>(std::__ndk1::monostate) const::{lambda()#1}>)
FUNC 269c8c 3c 0 std::__ndk1::unique_ptr<std::__ndk1::tuple<std::__ndk1::unique_ptr<std::__ndk1::__thread_struct, std::__ndk1::default_delete<std::__ndk1::__thread_struct> >, geode::Index::Impl::downloadIndex(std::__ndk1::basic_string<char, std::__ndk1::char_traits<char>, std::__ndk1::allocator<char> >)::$_0::operator()<std::__ndk1::monostate>(std::__ndk1::monostate) const::{lambda()#1}>, std::__ndk1::default_delete<std::__ndk1::tuple<std::__ndk1::unique_ptr<std::__ndk1::__thread_struct, std::__ndk1::default_delete<std::__ndk1::__thread_struct> >, geode::Index::Impl::downloadIndex(std::__ndk1::basic_string<char, std::__ndk1::char_traits<char>, std::__ndk1::allocator<char> >)::$_0::operator()<std::__ndk1::monostate>(std::__ndk1::monostate) const::{lambda()#1}> > >::~unique_ptr[abi:v170000]()
FUNC 269cc8 1a 0 std::__ndk1::unique_ptr<std::__ndk1::__thread_struct, std::__ndk1::default_delete<std::__ndk1::__thread_struct> >::~unique_ptr[abi:v170000]()
FUNC 269ce4 14c 0 geode::Result<std::__ndk1::monostate, std::__ndk1::basic_string<char, std::__ndk1::char_traits<char>, std::__ndk1::allocator<char> > >::expect<>(std::__ndk1::basic_string<char, std::__ndk1::char_traits<char>, std::__ndk1::allocator<char> > const&, &&)
FUNC 269e30 2 0 geode::utils::MiniFunctionStateBase<void, unsigned int, unsigned int>::~MiniFunctionStateBase()
FUNC 269e32 4 0 geode::utils::MiniFunctionState<geode::Index::Impl::downloadIndex(std::__ndk1::basic_string<char, std::__ndk1::char_traits<char>, std::__ndk1::allocator<char> >)::$_0::operator()<std::__ndk1::monostate>(std::__ndk1::monostate) const::{lambda()#1}::operator()() const::{lambda(unsigned int, unsigned int)#1}, void, unsigned int, unsigned int>::~MiniFunctionState()
FUNC 269e38 b8 0 geode::utils::MiniFunctionState<geode::Index::Impl::downloadIndex(std::__ndk1::basic_string<char, std::__ndk1::char_traits<char>, std::__ndk1::allocator<char> >)::$_0::operator()<std::__ndk1::monostate>(std::__ndk1::monostate) const::{lambda()#1}::operator()() const::{lambda(unsigned int, unsigned int)#1}, void, unsigned int, unsigned int>::call(unsigned int, unsigned int) const
FUNC 269ef0 20 0 geode::utils::MiniFunctionState<geode::Index::Impl::downloadIndex(std::__ndk1::basic_string<char, std::__ndk1::char_traits<char>, std::__ndk1::allocator<char> >)::$_0::operator()<std::__ndk1::monostate>(std::__ndk1::monostate) const::{lambda()#1}::operator()() const::{lambda(unsigned int, unsigned int)#1}, void, unsigned int, unsigned int>::clone() const
FUNC 269f10 4 0 geode::utils::MiniFunctionState<geode::Index::Impl::downloadIndex(std::__ndk1::basic_string<char, std::__ndk1::char_traits<char>, std::__ndk1::allocator<char> >)::$_0::operator()<std::__ndk1::monostate>(std::__ndk1::monostate) const::{lambda()#1}::operator()() const::{lambda(unsigned int, unsigned int)#1}::operator()(unsigned int, unsigned int) const::{lambda()#1}, void, >::~MiniFunctionState()
FUNC 269f14 15c 0 geode::utils::MiniFunctionState<geode::Index::Impl::downloadIndex(std::__ndk1::basic_string<char, std::__ndk1::char_traits<char>, std::__ndk1::allocator<char> >)::$_0::operator()<std::__ndk1::monostate>(std::__ndk1::monostate) const::{lambda()#1}::operator()() const::{lambda(unsigned int, unsigned int)#1}::operator()(unsigned int, unsigned int) const::{lambda()#1}, void, >::call() const
FUNC 26a070 20 0 geode::utils::MiniFunctionState<geode::Index::Impl::downloadIndex(std::__ndk1::basic_string<char, std::__ndk1::char_traits<char>, std::__ndk1::allocator<char> >)::$_0::operator()<std::__ndk1::monostate>(std::__ndk1::monostate) const::{lambda()#1}::operator()() const::{lambda(unsigned int, unsigned int)#1}::operator()(unsigned int, unsigned int) const::{lambda()#1}, void, >::clone() const
FUNC 26a090 16 0 geode::utils::MiniFunctionState<geode::Index::Impl::downloadIndex(std::__ndk1::basic_string<char, std::__ndk1::char_traits<char>, std::__ndk1::allocator<char> >)::$_0::operator()<std::__ndk1::monostate>(std::__ndk1::monostate) const::{lambda()#1}::operator()() const::{lambda()#1}, void, >::~MiniFunctionState()
FUNC 26a0a6 1c 0 geode::utils::MiniFunctionState<geode::Index::Impl::downloadIndex(std::__ndk1::basic_string<char, std::__ndk1::char_traits<char>, std::__ndk1::allocator<char> >)::$_0::operator()<std::__ndk1::monostate>(std::__ndk1::monostate) const::{lambda()#1}::operator()() const::{lambda()#1}, void, >::~MiniFunctionState()
FUNC 26a0c4 18c 0 geode::utils::MiniFunctionState<geode::Index::Impl::downloadIndex(std::__ndk1::basic_string<char, std::__ndk1::char_traits<char>, std::__ndk1::allocator<char> >)::$_0::operator()<std::__ndk1::monostate>(std::__ndk1::monostate) const::{lambda()#1}::operator()() const::{lambda()#1}, void, >::call() const
FUNC 26a250 88 0 geode::utils::MiniFunctionState<geode::Index::Impl::downloadIndex(std::__ndk1::basic_string<char, std::__ndk1::char_traits<char>, std::__ndk1::allocator<char> >)::$_0::operator()<std::__ndk1::monostate>(std::__ndk1::monostate) const::{lambda()#1}::operator()() const::{lambda()#1}, void, >::clone() const
FUNC 26a2d8 bc 0 geode::Result<std::__ndk1::vector<ghc::filesystem::path, std::__ndk1::allocator<ghc::filesystem::path> >, std::__ndk1::basic_string<char, std::__ndk1::char_traits<char>, std::__ndk1::allocator<char> > >::unwrap() &
FUNC 26a394 2 0 geode::utils::MiniFunctionStateBase<void, std::__ndk1::basic_string<char, std::__ndk1::char_traits<char>, std::__ndk1::allocator<char> > const&>::~MiniFunctionStateBase()
FUNC 26a396 4 0 geode::utils::MiniFunctionState<geode::Index::Impl::downloadIndex(std::__ndk1::basic_string<char, std::__ndk1::char_traits<char>, std::__ndk1::allocator<char> >)::$_1, void, std::__ndk1::basic_string<char, std::__ndk1::char_traits<char>, std::__ndk1::allocator<char> > const&>::~MiniFunctionState()
FUNC 26a39c 1a8 0 geode::utils::MiniFunctionState<geode::Index::Impl::downloadIndex(std::__ndk1::basic_string<char, std::__ndk1::char_traits<char>, std::__ndk1::allocator<char> >)::$_1, void, std::__ndk1::basic_string<char, std::__ndk1::char_traits<char>, std::__ndk1::allocator<char> > const&>::call(std::__ndk1::basic_string<char, std::__ndk1::char_traits<char>, std::__ndk1::allocator<char> > const&) const
FUNC 26a544 18 0 geode::utils::MiniFunctionState<geode::Index::Impl::downloadIndex(std::__ndk1::basic_string<char, std::__ndk1::char_traits<char>, std::__ndk1::allocator<char> >)::$_1, void, std::__ndk1::basic_string<char, std::__ndk1::char_traits<char>, std::__ndk1::allocator<char> > const&>::clone() const
FUNC 26a55c 4 0 geode::utils::MiniFunctionState<geode::Index::Impl::downloadIndex(std::__ndk1::basic_string<char, std::__ndk1::char_traits<char>, std::__ndk1::allocator<char> >)::$_2, void, geode::utils::web::SentAsyncWebRequest&, double, double>::~MiniFunctionState()
FUNC 26a560 164 0 geode::utils::MiniFunctionState<geode::Index::Impl::downloadIndex(std::__ndk1::basic_string<char, std::__ndk1::char_traits<char>, std::__ndk1::allocator<char> >)::$_2, void, geode::utils::web::SentAsyncWebRequest&, double, double>::call(geode::utils::web::SentAsyncWebRequest&, double, double) const
FUNC 26a6c4 18 0 geode::utils::MiniFunctionState<geode::Index::Impl::downloadIndex(std::__ndk1::basic_string<char, std::__ndk1::char_traits<char>, std::__ndk1::allocator<char> >)::$_2, void, geode::utils::web::SentAsyncWebRequest&, double, double>::clone() const
FUNC 26a6dc 2 0 geode::utils::MiniFunctionStateBase<void, geode::utils::web::SentAsyncWebRequest&, double, double>::~MiniFunctionStateBase()
FUNC 26a6e0 c0 0 std::__ndk1::__thread_proxy[abi:v170000]<std::__ndk1::tuple<std::__ndk1::unique_ptr<std::__ndk1::__thread_struct, std::__ndk1::default_delete<std::__ndk1::unique_ptr> >, geode::Index::Impl::checkForUpdates()::$_2> >(std::__ndk1::tuple<std::__ndk1::unique_ptr<std::__ndk1::__thread_struct, std::__ndk1::default_delete<std::__ndk1::unique_ptr> >, geode::Index::Impl::checkForUpdates()::$_2>)
FUNC 26a7a0 26 0 std::__ndk1::unique_ptr<std::__ndk1::tuple<std::__ndk1::unique_ptr<std::__ndk1::__thread_struct, std::__ndk1::default_delete<std::__ndk1::__thread_struct> >, geode::Index::Impl::checkForUpdates()::$_2>, std::__ndk1::default_delete<std::__ndk1::tuple<std::__ndk1::unique_ptr<std::__ndk1::__thread_struct, std::__ndk1::default_delete<std::__ndk1::__thread_struct> >, geode::Index::Impl::checkForUpdates()::$_2> > >::~unique_ptr[abi:v170000]()
FUNC 26a7c6 16 0 geode::utils::MiniFunctionState<geode::utils::web::AsyncWebResult<std::__ndk1::basic_string<char, std::__ndk1::char_traits<char>, std::__ndk1::allocator<char> > >::then(geode::utils::MiniFunction<void (std::__ndk1::basic_string<char, std::__ndk1::char_traits<char>, std::__ndk1::allocator<char> >)>)::{lambda(geode::utils::web::SentAsyncWebRequest&, std::__ndk1::vector<unsigned char, std::__ndk1::allocator<unsigned char> > const&)#1}, void, geode::utils::web::SentAsyncWebRequest&, std::__ndk1::vector<unsigned char, std::__ndk1::allocator<unsigned char> > const&>::~MiniFunctionState()
FUNC 26a7dc 1c 0 geode::utils::MiniFunctionState<geode::utils::web::AsyncWebResult<std::__ndk1::basic_string<char, std::__ndk1::char_traits<char>, std::__ndk1::allocator<char> > >::then(geode::utils::MiniFunction<void (std::__ndk1::basic_string<char, std::__ndk1::char_traits<char>, std::__ndk1::allocator<char> >)>)::{lambda(geode::utils::web::SentAsyncWebRequest&, std::__ndk1::vector<unsigned char, std::__ndk1::allocator<unsigned char> > const&)#1}, void, geode::utils::web::SentAsyncWebRequest&, std::__ndk1::vector<unsigned char, std::__ndk1::allocator<unsigned char> > const&>::~MiniFunctionState()
FUNC 26a7f8 6 0 geode::utils::MiniFunctionState<geode::utils::web::AsyncWebResult<std::__ndk1::basic_string<char, std::__ndk1::char_traits<char>, std::__ndk1::allocator<char> > >::then(geode::utils::MiniFunction<void (std::__ndk1::basic_string<char, std::__ndk1::char_traits<char>, std::__ndk1::allocator<char> >)>)::{lambda(geode::utils::web::SentAsyncWebRequest&, std::__ndk1::vector<unsigned char, std::__ndk1::allocator<unsigned char> > const&)#1}, void, geode::utils::web::SentAsyncWebRequest&, std::__ndk1::vector<unsigned char, std::__ndk1::allocator<unsigned char> > const&>::call(geode::utils::web::SentAsyncWebRequest&, std::__ndk1::vector<unsigned char, std::__ndk1::allocator<unsigned char> > const&) const
FUNC 26a800 40 0 geode::utils::MiniFunctionState<geode::utils::web::AsyncWebResult<std::__ndk1::basic_string<char, std::__ndk1::char_traits<char>, std::__ndk1::allocator<char> > >::then(geode::utils::MiniFunction<void (std::__ndk1::basic_string<char, std::__ndk1::char_traits<char>, std::__ndk1::allocator<char> >)>)::{lambda(geode::utils::web::SentAsyncWebRequest&, std::__ndk1::vector<unsigned char, std::__ndk1::allocator<unsigned char> > const&)#1}, void, geode::utils::web::SentAsyncWebRequest&, std::__ndk1::vector<unsigned char, std::__ndk1::allocator<unsigned char> > const&>::clone() const
FUNC 26a840 1a8 0 geode::utils::web::AsyncWebResult<std::__ndk1::basic_string<char, std::__ndk1::char_traits<char>, std::__ndk1::allocator<char> > >::then(geode::utils::MiniFunction<void (std::__ndk1::basic_string<char, std::__ndk1::char_traits<char>, std::__ndk1::allocator<char> >)>)::{lambda(geode::utils::web::SentAsyncWebRequest&, std::__ndk1::vector<unsigned char, std::__ndk1::allocator<unsigned char> > const&)#1}::operator()(geode::utils::web::SentAsyncWebRequest&, std::__ndk1::vector<unsigned char, std::__ndk1::allocator<unsigned char> > const&) const
FUNC 26a9e8 b4 0 geode::utils::MiniFunction<void (std::__ndk1::basic_string<char, std::__ndk1::char_traits<char>, std::__ndk1::allocator<char> >)>::operator()(std::__ndk1::basic_string<char, std::__ndk1::char_traits<char>, std::__ndk1::allocator<char> >) const
FUNC 26aa9c bc 0 geode::Result<std::__ndk1::basic_string<char, std::__ndk1::char_traits<char>, std::__ndk1::allocator<char> >, std::__ndk1::basic_string<char, std::__ndk1::char_traits<char>, std::__ndk1::allocator<char> > >::unwrap() &
FUNC 26ab58 1e 0 geode::utils::MiniFunctionState<geode::Index::Impl::checkForUpdates()::$_0, void, std::__ndk1::basic_string<char, std::__ndk1::char_traits<char>, std::__ndk1::allocator<char> > >::~MiniFunctionState()
FUNC 26ab76 24 0 geode::utils::MiniFunctionState<geode::Index::Impl::checkForUpdates()::$_0, void, std::__ndk1::basic_string<char, std::__ndk1::char_traits<char>, std::__ndk1::allocator<char> > >::~MiniFunctionState()
FUNC 26ab9c 254 0 geode::utils::MiniFunctionState<geode::Index::Impl::checkForUpdates()::$_0, void, std::__ndk1::basic_string<char, std::__ndk1::char_traits<char>, std::__ndk1::allocator<char> > >::call(std::__ndk1::basic_string<char, std::__ndk1::char_traits<char>, std::__ndk1::allocator<char> >) const
FUNC 26adf0 a0 0 geode::utils::MiniFunctionState<geode::Index::Impl::checkForUpdates()::$_0, void, std::__ndk1::basic_string<char, std::__ndk1::char_traits<char>, std::__ndk1::allocator<char> > >::clone() const
FUNC 26ae90 c0 0 std::__ndk1::__thread_proxy[abi:v170000]<std::__ndk1::tuple<std::__ndk1::unique_ptr<std::__ndk1::__thread_struct, std::__ndk1::default_delete<std::__ndk1::unique_ptr> >, geode::Index::Impl::checkForUpdates()::$_0::operator()(std::__ndk1::basic_string<char, std::__ndk1::char_traits<char>, std::__ndk1::allocator<char> > const&) const::{lambda()#1}> >(std::__ndk1::tuple<std::__ndk1::unique_ptr<std::__ndk1::__thread_struct, std::__ndk1::default_delete<std::__ndk1::unique_ptr> >, geode::Index::Impl::checkForUpdates()::$_0::operator()(std::__ndk1::basic_string<char, std::__ndk1::char_traits<char>, std::__ndk1::allocator<char> > const&) const::{lambda()#1}>)
FUNC 26af50 26 0 std::__ndk1::unique_ptr<std::__ndk1::tuple<std::__ndk1::unique_ptr<std::__ndk1::__thread_struct, std::__ndk1::default_delete<std::__ndk1::__thread_struct> >, geode::Index::Impl::checkForUpdates()::$_0::operator()(std::__ndk1::basic_string<char, std::__ndk1::char_traits<char>, std::__ndk1::allocator<char> > const&) const::{lambda()#1}>, std::__ndk1::default_delete<std::__ndk1::tuple<std::__ndk1::unique_ptr<std::__ndk1::__thread_struct, std::__ndk1::default_delete<std::__ndk1::__thread_struct> >, geode::Index::Impl::checkForUpdates()::$_0::operator()(std::__ndk1::basic_string<char, std::__ndk1::char_traits<char>, std::__ndk1::allocator<char> > const&) const::{lambda()#1}> > >::~unique_ptr[abi:v170000]()
FUNC 26af76 4 0 geode::utils::MiniFunctionState<geode::Index::Impl::checkForUpdates()::$_1, void, std::__ndk1::basic_string<char, std::__ndk1::char_traits<char>, std::__ndk1::allocator<char> > const&>::~MiniFunctionState()
FUNC 26af7c 1a8 0 geode::utils::MiniFunctionState<geode::Index::Impl::checkForUpdates()::$_1, void, std::__ndk1::basic_string<char, std::__ndk1::char_traits<char>, std::__ndk1::allocator<char> > const&>::call(std::__ndk1::basic_string<char, std::__ndk1::char_traits<char>, std::__ndk1::allocator<char> > const&) const
FUNC 26b124 18 0 geode::utils::MiniFunctionState<geode::Index::Impl::checkForUpdates()::$_1, void, std::__ndk1::basic_string<char, std::__ndk1::char_traits<char>, std::__ndk1::allocator<char> > const&>::clone() const
FUNC 26b13c 4 0 geode::utils::MiniFunctionState<geode::Index::Impl::updateFromLocalTree()::$_0, void, >::~MiniFunctionState()
FUNC 26b140 130 0 geode::utils::MiniFunctionState<geode::Index::Impl::updateFromLocalTree()::$_0, void, >::call() const
FUNC 26b270 18 0 geode::utils::MiniFunctionState<geode::Index::Impl::updateFromLocalTree()::$_0, void, >::clone() const
FUNC 26b288 364 0 std::__ndk1::__hash_table<std::__ndk1::__hash_value_type<std::__ndk1::basic_string<char, std::__ndk1::char_traits<char>, std::__ndk1::allocator<char> >, std::__ndk1::map<geode::VersionInfo, std::__ndk1::shared_ptr<geode::IndexItem>, std::__ndk1::less<geode::VersionInfo>, std::__ndk1::allocator<std::__ndk1::pair<geode::VersionInfo const, std::__ndk1::shared_ptr<geode::IndexItem> > > > >, std::__ndk1::__unordered_map_hasher<std::__ndk1::basic_string<char, std::__ndk1::char_traits<char>, std::__ndk1::allocator<char> >, std::__ndk1::__hash_value_type<std::__ndk1::basic_string<char, std::__ndk1::char_traits<char>, std::__ndk1::allocator<char> >, std::__ndk1::map<geode::VersionInfo, std::__ndk1::shared_ptr<geode::IndexItem>, std::__ndk1::less<geode::VersionInfo>, std::__ndk1::allocator<std::__ndk1::pair<geode::VersionInfo const, std::__ndk1::shared_ptr<geode::IndexItem> > > > >, std::__ndk1::hash<std::__ndk1::basic_string<char, std::__ndk1::char_traits<char>, std::__ndk1::allocator<char> > >, std::__ndk1::equal_to<std::__ndk1::basic_string<char, std::__ndk1::char_traits<char>, std::__ndk1::allocator<char> > >, true>, std::__ndk1::__unordered_map_equal<std::__ndk1::basic_string<char, std::__ndk1::char_traits<char>, std::__ndk1::allocator<char> >, std::__ndk1::__hash_value_type<std::__ndk1::basic_string<char, std::__ndk1::char_traits<char>, std::__ndk1::allocator<char> >, std::__ndk1::map<geode::VersionInfo, std::__ndk1::shared_ptr<geode::IndexItem>, std::__ndk1::less<geode::VersionInfo>, std::__ndk1::allocator<std::__ndk1::pair<geode::VersionInfo const, std::__ndk1::shared_ptr<geode::IndexItem> > > > >, std::__ndk1::equal_to<std::__ndk1::basic_string<char, std::__ndk1::char_traits<char>, std::__ndk1::allocator<char> > >, std::__ndk1::hash<std::__ndk1::basic_string<char, std::__ndk1::char_traits<char>, std::__ndk1::allocator<char> > >, true>, std::__ndk1::allocator<std::__ndk1::__hash_value_type<std::__ndk1::basic_string<char, std::__ndk1::char_traits<char>, std::__ndk1::allocator<char> >, std::__ndk1::map<geode::VersionInfo, std::__ndk1::shared_ptr<geode::IndexItem>, std::__ndk1::less<geode::VersionInfo>, std::__ndk1::allocator<std::__ndk1::pair<geode::VersionInfo const, std::__ndk1::shared_ptr<geode::IndexItem> > > > > > >::__emplace_unique_key_args<std::__ndk1::basic_string<char, std::__ndk1::char_traits<char>, std::__ndk1::allocator<char> >, std::__ndk1::piecewise_construct_t const&, std::__ndk1::tuple<std::__ndk1::basic_string<char, std::__ndk1::char_traits<char>, std::__ndk1::allocator<char> > const&>, std::__ndk1::tuple<> >(std::__ndk1::basic_string<char, std::__ndk1::char_traits<char>, std::__ndk1::allocator<char> > const&, std::__ndk1::piecewise_construct_t const&, std::__ndk1::tuple<std::__ndk1::basic_string<char, std::__ndk1::char_traits<char>, std::__ndk1::allocator<char> > const&>, std::__ndk1::tuple<>)
FUNC 26b5ec 9e 0 std::__ndk1::__hash_table<std::__ndk1::__hash_value_type<std::__ndk1::basic_string<char, std::__ndk1::char_traits<char>, std::__ndk1::allocator<char> >, std::__ndk1::map<geode::VersionInfo, std::__ndk1::shared_ptr<geode::IndexItem>, std::__ndk1::less<geode::VersionInfo>, std::__ndk1::allocator<std::__ndk1::pair<geode::VersionInfo const, std::__ndk1::shared_ptr<geode::IndexItem> > > > >, std::__ndk1::__unordered_map_hasher<std::__ndk1::basic_string<char, std::__ndk1::char_traits<char>, std::__ndk1::allocator<char> >, std::__ndk1::__hash_value_type<std::__ndk1::basic_string<char, std::__ndk1::char_traits<char>, std::__ndk1::allocator<char> >, std::__ndk1::map<geode::VersionInfo, std::__ndk1::shared_ptr<geode::IndexItem>, std::__ndk1::less<geode::VersionInfo>, std::__ndk1::allocator<std::__ndk1::pair<geode::VersionInfo const, std::__ndk1::shared_ptr<geode::IndexItem> > > > >, std::__ndk1::hash<std::__ndk1::basic_string<char, std::__ndk1::char_traits<char>, std::__ndk1::allocator<char> > >, std::__ndk1::equal_to<std::__ndk1::basic_string<char, std::__ndk1::char_traits<char>, std::__ndk1::allocator<char> > >, true>, std::__ndk1::__unordered_map_equal<std::__ndk1::basic_string<char, std::__ndk1::char_traits<char>, std::__ndk1::allocator<char> >, std::__ndk1::__hash_value_type<std::__ndk1::basic_string<char, std::__ndk1::char_traits<char>, std::__ndk1::allocator<char> >, std::__ndk1::map<geode::VersionInfo, std::__ndk1::shared_ptr<geode::IndexItem>, std::__ndk1::less<geode::VersionInfo>, std::__ndk1::allocator<std::__ndk1::pair<geode::VersionInfo const, std::__ndk1::shared_ptr<geode::IndexItem> > > > >, std::__ndk1::equal_to<std::__ndk1::basic_string<char, std::__ndk1::char_traits<char>, std::__ndk1::allocator<char> > >, std::__ndk1::hash<std::__ndk1::basic_string<char, std::__ndk1::char_traits<char>, std::__ndk1::allocator<char> > >, true>, std::__ndk1::allocator<std::__ndk1::__hash_value_type<std::__ndk1::basic_string<char, std::__ndk1::char_traits<char>, std::__ndk1::allocator<char> >, std::__ndk1::map<geode::VersionInfo, std::__ndk1::shared_ptr<geode::IndexItem>, std::__ndk1::less<geode::VersionInfo>, std::__ndk1::allocator<std::__ndk1::pair<geode::VersionInfo const, std::__ndk1::shared_ptr<geode::IndexItem> > > > > > >::__construct_node_hash<std::__ndk1::piecewise_construct_t const&, std::__ndk1::tuple<std::__ndk1::basic_string<char, std::__ndk1::char_traits<char>, std::__ndk1::allocator<char> > const&>, std::__ndk1::tuple<> >(unsigned int, std::__ndk1::piecewise_construct_t const&, std::__ndk1::tuple<std::__ndk1::basic_string<char, std::__ndk1::char_traits<char>, std::__ndk1::allocator<char> > const&>&&, std::__ndk1::tuple<>)
FUNC 26b68a 10c 0 std::__ndk1::__hash_table<std::__ndk1::__hash_value_type<std::__ndk1::basic_string<char, std::__ndk1::char_traits<char>, std::__ndk1::allocator<char> >, std::__ndk1::map<geode::VersionInfo, std::__ndk1::shared_ptr<geode::IndexItem>, std::__ndk1::less<geode::VersionInfo>, std::__ndk1::allocator<std::__ndk1::pair<geode::VersionInfo const, std::__ndk1::shared_ptr<geode::IndexItem> > > > >, std::__ndk1::__unordered_map_hasher<std::__ndk1::basic_string<char, std::__ndk1::char_traits<char>, std::__ndk1::allocator<char> >, std::__ndk1::__hash_value_type<std::__ndk1::basic_string<char, std::__ndk1::char_traits<char>, std::__ndk1::allocator<char> >, std::__ndk1::map<geode::VersionInfo, std::__ndk1::shared_ptr<geode::IndexItem>, std::__ndk1::less<geode::VersionInfo>, std::__ndk1::allocator<std::__ndk1::pair<geode::VersionInfo const, std::__ndk1::shared_ptr<geode::IndexItem> > > > >, std::__ndk1::hash<std::__ndk1::basic_string<char, std::__ndk1::char_traits<char>, std::__ndk1::allocator<char> > >, std::__ndk1::equal_to<std::__ndk1::basic_string<char, std::__ndk1::char_traits<char>, std::__ndk1::allocator<char> > >, true>, std::__ndk1::__unordered_map_equal<std::__ndk1::basic_string<char, std::__ndk1::char_traits<char>, std::__ndk1::allocator<char> >, std::__ndk1::__hash_value_type<std::__ndk1::basic_string<char, std::__ndk1::char_traits<char>, std::__ndk1::allocator<char> >, std::__ndk1::map<geode::VersionInfo, std::__ndk1::shared_ptr<geode::IndexItem>, std::__ndk1::less<geode::VersionInfo>, std::__ndk1::allocator<std::__ndk1::pair<geode::VersionInfo const, std::__ndk1::shared_ptr<geode::IndexItem> > > > >, std::__ndk1::equal_to<std::__ndk1::basic_string<char, std::__ndk1::char_traits<char>, std::__ndk1::allocator<char> > >, std::__ndk1::hash<std::__ndk1::basic_string<char, std::__ndk1::char_traits<char>, std::__ndk1::allocator<char> > >, true>, std::__ndk1::allocator<std::__ndk1::__hash_value_type<std::__ndk1::basic_string<char, std::__ndk1::char_traits<char>, std::__ndk1::allocator<char> >, std::__ndk1::map<geode::VersionInfo, std::__ndk1::shared_ptr<geode::IndexItem>, std::__ndk1::less<geode::VersionInfo>, std::__ndk1::allocator<std::__ndk1::pair<geode::VersionInfo const, std::__ndk1::shared_ptr<geode::IndexItem> > > > > > >::__do_rehash<true>(unsigned int)
FUNC 26b796 12c 0 std::__ndk1::__tree<std::__ndk1::__value_type<geode::VersionInfo, std::__ndk1::shared_ptr<geode::IndexItem> >, std::__ndk1::__map_value_compare<geode::VersionInfo, std::__ndk1::__value_type<geode::VersionInfo, std::__ndk1::shared_ptr<geode::IndexItem> >, std::__ndk1::less<geode::VersionInfo>, true>, std::__ndk1::allocator<std::__ndk1::__value_type<geode::VersionInfo, std::__ndk1::shared_ptr<geode::IndexItem> > > >::__find_equal<geode::VersionInfo>(std::__ndk1::__tree_end_node<std::__ndk1::__tree_node_base<void*>*>*&, geode::VersionInfo const&)
FUNC 26b8c2 4 0 geode::utils::MiniFunctionState<geode::Index::Impl::updateFromLocalTree()::$_1, void, >::~MiniFunctionState()
FUNC 26b8c8 f8 0 geode::utils::MiniFunctionState<geode::Index::Impl::updateFromLocalTree()::$_1, void, >::call() const
FUNC 26b9c0 18 0 geode::utils::MiniFunctionState<geode::Index::Impl::updateFromLocalTree()::$_1, void, >::clone() const
FUNC 26b9d8 1ec 0 std::__ndk1::vector<std::__ndk1::map<geode::VersionInfo, std::__ndk1::shared_ptr<geode::IndexItem>, std::__ndk1::less<geode::VersionInfo>, std::__ndk1::allocator<std::__ndk1::pair<geode::VersionInfo const, std::__ndk1::shared_ptr<geode::IndexItem> > > >, std::__ndk1::allocator<std::__ndk1::map<geode::VersionInfo, std::__ndk1::shared_ptr<geode::IndexItem>, std::__ndk1::less<geode::VersionInfo>, std::__ndk1::allocator<std::__ndk1::pair<geode::VersionInfo const, std::__ndk1::shared_ptr<geode::IndexItem> > > > > >::__push_back_slow_path<std::__ndk1::map<geode::VersionInfo, std::__ndk1::shared_ptr<geode::IndexItem>, std::__ndk1::less<geode::VersionInfo>, std::__ndk1::allocator<std::__ndk1::pair<geode::VersionInfo const, std::__ndk1::shared_ptr<geode::IndexItem> > > > const&>(std::__ndk1::map<geode::VersionInfo, std::__ndk1::shared_ptr<geode::IndexItem>, std::__ndk1::less<geode::VersionInfo>, std::__ndk1::allocator<std::__ndk1::pair<geode::VersionInfo const, std::__ndk1::shared_ptr<geode::IndexItem> > > > const&)
FUNC 26bbc4 2e 0 std::__ndk1::__split_buffer<std::__ndk1::map<geode::VersionInfo, std::__ndk1::shared_ptr<geode::IndexItem>, std::__ndk1::less<geode::VersionInfo>, std::__ndk1::allocator<std::__ndk1::pair<geode::VersionInfo const, std::__ndk1::shared_ptr<geode::IndexItem> > > >, std::__ndk1::allocator<std::__ndk1::map<geode::VersionInfo, std::__ndk1::shared_ptr<geode::IndexItem>, std::__ndk1::less<geode::VersionInfo>, std::__ndk1::allocator<std::__ndk1::pair<geode::VersionInfo const, std::__ndk1::shared_ptr<geode::IndexItem> > > > >&>::~__split_buffer()
FUNC 26bbf4 10 0 std::__ndk1::vector<std::__ndk1::map<geode::VersionInfo, std::__ndk1::shared_ptr<geode::IndexItem>, std::__ndk1::less<geode::VersionInfo>, std::__ndk1::allocator<std::__ndk1::pair<geode::VersionInfo const, std::__ndk1::shared_ptr<geode::IndexItem> > > >, std::__ndk1::allocator<std::__ndk1::map<geode::VersionInfo, std::__ndk1::shared_ptr<geode::IndexItem>, std::__ndk1::less<geode::VersionInfo>, std::__ndk1::allocator<std::__ndk1::pair<geode::VersionInfo const, std::__ndk1::shared_ptr<geode::IndexItem> > > > > >::__throw_length_error[abi:v170000]() const
FUNC 26bc04 52 0 std::__ndk1::__tree<std::__ndk1::__value_type<geode::VersionInfo, std::__ndk1::shared_ptr<geode::IndexItem> >, std::__ndk1::__map_value_compare<geode::VersionInfo, std::__ndk1::__value_type<geode::VersionInfo, std::__ndk1::shared_ptr<geode::IndexItem> >, std::__ndk1::less<geode::VersionInfo>, true>, std::__ndk1::allocator<std::__ndk1::__value_type<geode::VersionInfo, std::__ndk1::shared_ptr<geode::IndexItem> > > >::destroy(std::__ndk1::__tree_node<std::__ndk1::__value_type<geode::VersionInfo, std::__ndk1::shared_ptr<geode::IndexItem> >, void*>*)
FUNC 26bc56 172 0 std::__ndk1::__hash_table<std::__ndk1::__hash_value_type<std::__ndk1::basic_string<char, std::__ndk1::char_traits<char>, std::__ndk1::allocator<char> >, std::__ndk1::map<geode::VersionInfo, std::__ndk1::shared_ptr<geode::IndexItem>, std::__ndk1::less<geode::VersionInfo>, std::__ndk1::allocator<std::__ndk1::pair<geode::VersionInfo const, std::__ndk1::shared_ptr<geode::IndexItem> > > > >, std::__ndk1::__unordered_map_hasher<std::__ndk1::basic_string<char, std::__ndk1::char_traits<char>, std::__ndk1::allocator<char> >, std::__ndk1::__hash_value_type<std::__ndk1::basic_string<char, std::__ndk1::char_traits<char>, std::__ndk1::allocator<char> >, std::__ndk1::map<geode::VersionInfo, std::__ndk1::shared_ptr<geode::IndexItem>, std::__ndk1::less<geode::VersionInfo>, std::__ndk1::allocator<std::__ndk1::pair<geode::VersionInfo const, std::__ndk1::shared_ptr<geode::IndexItem> > > > >, std::__ndk1::hash<std::__ndk1::basic_string<char, std::__ndk1::char_traits<char>, std::__ndk1::allocator<char> > >, std::__ndk1::equal_to<std::__ndk1::basic_string<char, std::__ndk1::char_traits<char>, std::__ndk1::allocator<char> > >, true>, std::__ndk1::__unordered_map_equal<std::__ndk1::basic_string<char, std::__ndk1::char_traits<char>, std::__ndk1::allocator<char> >, std::__ndk1::__hash_value_type<std::__ndk1::basic_string<char, std::__ndk1::char_traits<char>, std::__ndk1::allocator<char> >, std::__ndk1::map<geode::VersionInfo, std::__ndk1::shared_ptr<geode::IndexItem>, std::__ndk1::less<geode::VersionInfo>, std::__ndk1::allocator<std::__ndk1::pair<geode::VersionInfo const, std::__ndk1::shared_ptr<geode::IndexItem> > > > >, std::__ndk1::equal_to<std::__ndk1::basic_string<char, std::__ndk1::char_traits<char>, std::__ndk1::allocator<char> > >, std::__ndk1::hash<std::__ndk1::basic_string<char, std::__ndk1::char_traits<char>, std::__ndk1::allocator<char> > >, true>, std::__ndk1::allocator<std::__ndk1::__hash_value_type<std::__ndk1::basic_string<char, std::__ndk1::char_traits<char>, std::__ndk1::allocator<char> >, std::__ndk1::map<geode::VersionInfo, std::__ndk1::shared_ptr<geode::IndexItem>, std::__ndk1::less<geode::VersionInfo>, std::__ndk1::allocator<std::__ndk1::pair<geode::VersionInfo const, std::__ndk1::shared_ptr<geode::IndexItem> > > > > > >::find<std::__ndk1::basic_string<char, std::__ndk1::char_traits<char>, std::__ndk1::allocator<char> > >(std::__ndk1::basic_string<char, std::__ndk1::char_traits<char>, std::__ndk1::allocator<char> > const&) const
FUNC 26bdc8 172 0 std::__ndk1::__hash_table<std::__ndk1::__hash_value_type<std::__ndk1::basic_string<char, std::__ndk1::char_traits<char>, std::__ndk1::allocator<char> >, std::__ndk1::map<geode::VersionInfo, std::__ndk1::shared_ptr<geode::IndexItem>, std::__ndk1::less<geode::VersionInfo>, std::__ndk1::allocator<std::__ndk1::pair<geode::VersionInfo const, std::__ndk1::shared_ptr<geode::IndexItem> > > > >, std::__ndk1::__unordered_map_hasher<std::__ndk1::basic_string<char, std::__ndk1::char_traits<char>, std::__ndk1::allocator<char> >, std::__ndk1::__hash_value_type<std::__ndk1::basic_string<char, std::__ndk1::char_traits<char>, std::__ndk1::allocator<char> >, std::__ndk1::map<geode::VersionInfo, std::__ndk1::shared_ptr<geode::IndexItem>, std::__ndk1::less<geode::VersionInfo>, std::__ndk1::allocator<std::__ndk1::pair<geode::VersionInfo const, std::__ndk1::shared_ptr<geode::IndexItem> > > > >, std::__ndk1::hash<std::__ndk1::basic_string<char, std::__ndk1::char_traits<char>, std::__ndk1::allocator<char> > >, std::__ndk1::equal_to<std::__ndk1::basic_string<char, std::__ndk1::char_traits<char>, std::__ndk1::allocator<char> > >, true>, std::__ndk1::__unordered_map_equal<std::__ndk1::basic_string<char, std::__ndk1::char_traits<char>, std::__ndk1::allocator<char> >, std::__ndk1::__hash_value_type<std::__ndk1::basic_string<char, std::__ndk1::char_traits<char>, std::__ndk1::allocator<char> >, std::__ndk1::map<geode::VersionInfo, std::__ndk1::shared_ptr<geode::IndexItem>, std::__ndk1::less<geode::VersionInfo>, std::__ndk1::allocator<std::__ndk1::pair<geode::VersionInfo const, std::__ndk1::shared_ptr<geode::IndexItem> > > > >, std::__ndk1::equal_to<std::__ndk1::basic_string<char, std::__ndk1::char_traits<char>, std::__ndk1::allocator<char> > >, std::__ndk1::hash<std::__ndk1::basic_string<char, std::__ndk1::char_traits<char>, std::__ndk1::allocator<char> > >, true>, std::__ndk1::allocator<std::__ndk1::__hash_value_type<std::__ndk1::basic_string<char, std::__ndk1::char_traits<char>, std::__ndk1::allocator<char> >, std::__ndk1::map<geode::VersionInfo, std::__ndk1::shared_ptr<geode::IndexItem>, std::__ndk1::less<geode::VersionInfo>, std::__ndk1::allocator<std::__ndk1::pair<geode::VersionInfo const, std::__ndk1::shared_ptr<geode::IndexItem> > > > > > >::find<std::__ndk1::basic_string<char, std::__ndk1::char_traits<char>, std::__ndk1::allocator<char> > >(std::__ndk1::basic_string<char, std::__ndk1::char_traits<char>, std::__ndk1::allocator<char> > const&)
FUNC 26bf3c b4 0 std::__ndk1::__tree<std::__ndk1::__value_type<geode::VersionInfo, std::__ndk1::shared_ptr<geode::IndexItem> >, std::__ndk1::__map_value_compare<geode::VersionInfo, std::__ndk1::__value_type<geode::VersionInfo, std::__ndk1::shared_ptr<geode::IndexItem> >, std::__ndk1::less<geode::VersionInfo>, true>, std::__ndk1::allocator<std::__ndk1::__value_type<geode::VersionInfo, std::__ndk1::shared_ptr<geode::IndexItem> > > >::__insert_unique[abi:v170000](std::__ndk1::__tree_const_iterator<std::__ndk1::__value_type<geode::VersionInfo, std::__ndk1::shared_ptr<geode::IndexItem> >, std::__ndk1::__tree_node<std::__ndk1::__value_type<geode::VersionInfo, std::__ndk1::shared_ptr<geode::IndexItem> >, void*>*, int>, std::__ndk1::pair<geode::VersionInfo const, std::__ndk1::shared_ptr<geode::IndexItem> > const&)
FUNC 26bff0 272 0 std::__ndk1::__tree<std::__ndk1::__value_type<geode::VersionInfo, std::__ndk1::shared_ptr<geode::IndexItem> >, std::__ndk1::__map_value_compare<geode::VersionInfo, std::__ndk1::__value_type<geode::VersionInfo, std::__ndk1::shared_ptr<geode::IndexItem> >, std::__ndk1::less<geode::VersionInfo>, true>, std::__ndk1::allocator<std::__ndk1::__value_type<geode::VersionInfo, std::__ndk1::shared_ptr<geode::IndexItem> > > >::__find_equal<geode::VersionInfo>(std::__ndk1::__tree_const_iterator<std::__ndk1::__value_type<geode::VersionInfo, std::__ndk1::shared_ptr<geode::IndexItem> >, std::__ndk1::__tree_node<std::__ndk1::__value_type<geode::VersionInfo, std::__ndk1::shared_ptr<geode::IndexItem> >, void*>*, int>, std::__ndk1::__tree_end_node<std::__ndk1::__tree_node_base<void*>*>*&, std::__ndk1::__tree_node_base<void*>*&, geode::VersionInfo const&)
FUNC 26c262 dc 0 std::__ndk1::__hash_table<std::__ndk1::__hash_value_type<std::__ndk1::shared_ptr<geode::IndexItem>, std::__ndk1::shared_ptr<geode::utils::web::SentAsyncWebRequest> >, std::__ndk1::__unordered_map_hasher<std::__ndk1::shared_ptr<geode::IndexItem>, std::__ndk1::__hash_value_type<std::__ndk1::shared_ptr<geode::IndexItem>, std::__ndk1::shared_ptr<geode::utils::web::SentAsyncWebRequest> >, std::__ndk1::hash<std::__ndk1::shared_ptr<geode::IndexItem> >, std::__ndk1::equal_to<std::__ndk1::shared_ptr<geode::IndexItem> >, true>, std::__ndk1::__unordered_map_equal<std::__ndk1::shared_ptr<geode::IndexItem>, std::__ndk1::__hash_value_type<std::__ndk1::shared_ptr<geode::IndexItem>, std::__ndk1::shared_ptr<geode::utils::web::SentAsyncWebRequest> >, std::__ndk1::equal_to<std::__ndk1::shared_ptr<geode::IndexItem> >, std::__ndk1::hash<std::__ndk1::shared_ptr<geode::IndexItem> >, true>, std::__ndk1::allocator<std::__ndk1::__hash_value_type<std::__ndk1::shared_ptr<geode::IndexItem>, std::__ndk1::shared_ptr<geode::utils::web::SentAsyncWebRequest> > > >::__erase_unique<std::__ndk1::shared_ptr<geode::IndexItem> >(std::__ndk1::shared_ptr<geode::IndexItem> const&)
FUNC 26c340 b0 0 std::__ndk1::__hash_table<std::__ndk1::__hash_value_type<std::__ndk1::shared_ptr<geode::IndexItem>, std::__ndk1::shared_ptr<geode::utils::web::SentAsyncWebRequest> >, std::__ndk1::__unordered_map_hasher<std::__ndk1::shared_ptr<geode::IndexItem>, std::__ndk1::__hash_value_type<std::__ndk1::shared_ptr<geode::IndexItem>, std::__ndk1::shared_ptr<geode::utils::web::SentAsyncWebRequest> >, std::__ndk1::hash<std::__ndk1::shared_ptr<geode::IndexItem> >, std::__ndk1::equal_to<std::__ndk1::shared_ptr<geode::IndexItem> >, true>, std::__ndk1::__unordered_map_equal<std::__ndk1::shared_ptr<geode::IndexItem>, std::__ndk1::__hash_value_type<std::__ndk1::shared_ptr<geode::IndexItem>, std::__ndk1::shared_ptr<geode::utils::web::SentAsyncWebRequest> >, std::__ndk1::equal_to<std::__ndk1::shared_ptr<geode::IndexItem> >, std::__ndk1::hash<std::__ndk1::shared_ptr<geode::IndexItem> >, true>, std::__ndk1::allocator<std::__ndk1::__hash_value_type<std::__ndk1::shared_ptr<geode::IndexItem>, std::__ndk1::shared_ptr<geode::utils::web::SentAsyncWebRequest> > > >::erase(std::__ndk1::__hash_const_iterator<std::__ndk1::__hash_node<std::__ndk1::__hash_value_type<std::__ndk1::shared_ptr<geode::IndexItem>, std::__ndk1::shared_ptr<geode::utils::web::SentAsyncWebRequest> >, void*>*>)
FUNC 26c3f0 136 0 std::__ndk1::__hash_table<std::__ndk1::__hash_value_type<std::__ndk1::shared_ptr<geode::IndexItem>, std::__ndk1::shared_ptr<geode::utils::web::SentAsyncWebRequest> >, std::__ndk1::__unordered_map_hasher<std::__ndk1::shared_ptr<geode::IndexItem>, std::__ndk1::__hash_value_type<std::__ndk1::shared_ptr<geode::IndexItem>, std::__ndk1::shared_ptr<geode::utils::web::SentAsyncWebRequest> >, std::__ndk1::hash<std::__ndk1::shared_ptr<geode::IndexItem> >, std::__ndk1::equal_to<std::__ndk1::shared_ptr<geode::IndexItem> >, true>, std::__ndk1::__unordered_map_equal<std::__ndk1::shared_ptr<geode::IndexItem>, std::__ndk1::__hash_value_type<std::__ndk1::shared_ptr<geode::IndexItem>, std::__ndk1::shared_ptr<geode::utils::web::SentAsyncWebRequest> >, std::__ndk1::equal_to<std::__ndk1::shared_ptr<geode::IndexItem> >, std::__ndk1::hash<std::__ndk1::shared_ptr<geode::IndexItem> >, true>, std::__ndk1::allocator<std::__ndk1::__hash_value_type<std::__ndk1::shared_ptr<geode::IndexItem>, std::__ndk1::shared_ptr<geode::utils::web::SentAsyncWebRequest> > > >::remove(std::__ndk1::__hash_const_iterator<std::__ndk1::__hash_node<std::__ndk1::__hash_value_type<std::__ndk1::shared_ptr<geode::IndexItem>, std::__ndk1::shared_ptr<geode::utils::web::SentAsyncWebRequest> >, void*>*>)
FUNC 26c526 7c 0 std::__ndk1::unique_ptr<std::__ndk1::__hash_node<std::__ndk1::__hash_value_type<std::__ndk1::shared_ptr<geode::IndexItem>, std::__ndk1::shared_ptr<geode::utils::web::SentAsyncWebRequest> >, void*>, std::__ndk1::__hash_node_destructor<std::__ndk1::allocator<std::__ndk1::__hash_node<std::__ndk1::__hash_value_type<std::__ndk1::shared_ptr<geode::IndexItem>, std::__ndk1::shared_ptr<geode::utils::web::SentAsyncWebRequest> >, void*> > > >::~unique_ptr[abi:v170000]()
FUNC 26c5a2 16 0 geode::utils::MiniFunctionState<geode::Index::Impl::installNext(unsigned int, geode::IndexInstallList const&)::$_0, void, >::~MiniFunctionState()
FUNC 26c5b8 1c 0 geode::utils::MiniFunctionState<geode::Index::Impl::installNext(unsigned int, geode::IndexInstallList const&)::$_0, void, >::~MiniFunctionState()
FUNC 26c5d4 118 0 geode::utils::MiniFunctionState<geode::Index::Impl::installNext(unsigned int, geode::IndexInstallList const&)::$_0, void, >::call() const
FUNC 26c6ec 88 0 geode::utils::MiniFunctionState<geode::Index::Impl::installNext(unsigned int, geode::IndexInstallList const&)::$_0, void, >::clone() const
FUNC 26c774 2d8 0 std::__ndk1::__hash_table<std::__ndk1::__hash_value_type<std::__ndk1::shared_ptr<geode::IndexItem>, std::__ndk1::shared_ptr<geode::utils::web::SentAsyncWebRequest> >, std::__ndk1::__unordered_map_hasher<std::__ndk1::shared_ptr<geode::IndexItem>, std::__ndk1::__hash_value_type<std::__ndk1::shared_ptr<geode::IndexItem>, std::__ndk1::shared_ptr<geode::utils::web::SentAsyncWebRequest> >, std::__ndk1::hash<std::__ndk1::shared_ptr<geode::IndexItem> >, std::__ndk1::equal_to<std::__ndk1::shared_ptr<geode::IndexItem> >, true>, std::__ndk1::__unordered_map_equal<std::__ndk1::shared_ptr<geode::IndexItem>, std::__ndk1::__hash_value_type<std::__ndk1::shared_ptr<geode::IndexItem>, std::__ndk1::shared_ptr<geode::utils::web::SentAsyncWebRequest> >, std::__ndk1::equal_to<std::__ndk1::shared_ptr<geode::IndexItem> >, std::__ndk1::hash<std::__ndk1::shared_ptr<geode::IndexItem> >, true>, std::__ndk1::allocator<std::__ndk1::__hash_value_type<std::__ndk1::shared_ptr<geode::IndexItem>, std::__ndk1::shared_ptr<geode::utils::web::SentAsyncWebRequest> > > >::__emplace_unique_key_args<std::__ndk1::shared_ptr<geode::IndexItem>, std::__ndk1::piecewise_construct_t const&, std::__ndk1::tuple<std::__ndk1::shared_ptr<geode::IndexItem> const&>, std::__ndk1::tuple<> >(std::__ndk1::shared_ptr<geode::IndexItem> const&, std::__ndk1::piecewise_construct_t const&, std::__ndk1::tuple<std::__ndk1::shared_ptr<geode::IndexItem> const&>, std::__ndk1::tuple<>)
FUNC 26ca4c 10c 0 std::__ndk1::__hash_table<std::__ndk1::__hash_value_type<std::__ndk1::shared_ptr<geode::IndexItem>, std::__ndk1::shared_ptr<geode::utils::web::SentAsyncWebRequest> >, std::__ndk1::__unordered_map_hasher<std::__ndk1::shared_ptr<geode::IndexItem>, std::__ndk1::__hash_value_type<std::__ndk1::shared_ptr<geode::IndexItem>, std::__ndk1::shared_ptr<geode::utils::web::SentAsyncWebRequest> >, std::__ndk1::hash<std::__ndk1::shared_ptr<geode::IndexItem> >, std::__ndk1::equal_to<std::__ndk1::shared_ptr<geode::IndexItem> >, true>, std::__ndk1::__unordered_map_equal<std::__ndk1::shared_ptr<geode::IndexItem>, std::__ndk1::__hash_value_type<std::__ndk1::shared_ptr<geode::IndexItem>, std::__ndk1::shared_ptr<geode::utils::web::SentAsyncWebRequest> >, std::__ndk1::equal_to<std::__ndk1::shared_ptr<geode::IndexItem> >, std::__ndk1::hash<std::__ndk1::shared_ptr<geode::IndexItem> >, true>, std::__ndk1::allocator<std::__ndk1::__hash_value_type<std::__ndk1::shared_ptr<geode::IndexItem>, std::__ndk1::shared_ptr<geode::utils::web::SentAsyncWebRequest> > > >::__do_rehash<true>(unsigned int)
FUNC 26cb58 148 0 geode::Index::Impl::installNext(unsigned int, geode::IndexInstallList const&)::$_1::$_1($_1 const&)
FUNC 26cca0 10 0 geode::utils::MiniFunctionState<geode::Index::Impl::installNext(unsigned int, geode::IndexInstallList const&)::$_1, void, std::__ndk1::monostate>::~MiniFunctionState()
FUNC 26ccb0 16 0 geode::utils::MiniFunctionState<geode::Index::Impl::installNext(unsigned int, geode::IndexInstallList const&)::$_1, void, std::__ndk1::monostate>::~MiniFunctionState()
FUNC 26ccc8 60c 0 geode::utils::MiniFunctionState<geode::Index::Impl::installNext(unsigned int, geode::IndexInstallList const&)::$_1, void, std::__ndk1::monostate>::call(std::__ndk1::monostate) const
FUNC 26d2d4 34 0 geode::utils::MiniFunctionState<geode::Index::Impl::installNext(unsigned int, geode::IndexInstallList const&)::$_1, void, std::__ndk1::monostate>::clone() const
FUNC 26d308 c2 0 geode::Index::Impl::installNext(unsigned int, geode::IndexInstallList const&)::$_2::$_2($_2 const&)
FUNC 26d3ca 10 0 geode::utils::MiniFunctionState<geode::Index::Impl::installNext(unsigned int, geode::IndexInstallList const&)::$_2, void, std::__ndk1::basic_string<char, std::__ndk1::char_traits<char>, std::__ndk1::allocator<char> > const&>::~MiniFunctionState()
FUNC 26d3da 16 0 geode::utils::MiniFunctionState<geode::Index::Impl::installNext(unsigned int, geode::IndexInstallList const&)::$_2, void, std::__ndk1::basic_string<char, std::__ndk1::char_traits<char>, std::__ndk1::allocator<char> > const&>::~MiniFunctionState()
FUNC 26d3f0 104 0 geode::utils::MiniFunctionState<geode::Index::Impl::installNext(unsigned int, geode::IndexInstallList const&)::$_2, void, std::__ndk1::basic_string<char, std::__ndk1::char_traits<char>, std::__ndk1::allocator<char> > const&>::call(std::__ndk1::basic_string<char, std::__ndk1::char_traits<char>, std::__ndk1::allocator<char> > const&) const
FUNC 26d4f4 34 0 geode::utils::MiniFunctionState<geode::Index::Impl::installNext(unsigned int, geode::IndexInstallList const&)::$_2, void, std::__ndk1::basic_string<char, std::__ndk1::char_traits<char>, std::__ndk1::allocator<char> > const&>::clone() const
FUNC 26d528 ce 0 geode::Index::Impl::installNext(unsigned int, geode::IndexInstallList const&)::$_3::$_3($_3 const&)
FUNC 26d5f6 10 0 geode::utils::MiniFunctionState<geode::Index::Impl::installNext(unsigned int, geode::IndexInstallList const&)::$_3, void, geode::utils::web::SentAsyncWebRequest&, double, double>::~MiniFunctionState()
FUNC 26d606 16 0 geode::utils::MiniFunctionState<geode::Index::Impl::installNext(unsigned int, geode::IndexInstallList const&)::$_3, void, geode::utils::web::SentAsyncWebRequest&, double, double>::~MiniFunctionState()
FUNC 26d620 27c 0 geode::utils::MiniFunctionState<geode::Index::Impl::installNext(unsigned int, geode::IndexInstallList const&)::$_3, void, geode::utils::web::SentAsyncWebRequest&, double, double>::call(geode::utils::web::SentAsyncWebRequest&, double, double) const
FUNC 26d89c 34 0 geode::utils::MiniFunctionState<geode::Index::Impl::installNext(unsigned int, geode::IndexInstallList const&)::$_3, void, geode::utils::web::SentAsyncWebRequest&, double, double>::clone() const
FUNC 26d8d0 96 0 geode::utils::MiniFunctionState<geode::Index::Impl::installNext(unsigned int, geode::IndexInstallList const&)::$_4, void, geode::utils::web::SentAsyncWebRequest&>::~MiniFunctionState()
FUNC 26d966 9c 0 geode::utils::MiniFunctionState<geode::Index::Impl::installNext(unsigned int, geode::IndexInstallList const&)::$_4, void, geode::utils::web::SentAsyncWebRequest&>::~MiniFunctionState()
FUNC 26da04 78 0 geode::utils::MiniFunctionState<geode::Index::Impl::installNext(unsigned int, geode::IndexInstallList const&)::$_4, void, geode::utils::web::SentAsyncWebRequest&>::call(geode::utils::web::SentAsyncWebRequest&) const
FUNC 26da7c 7c 0 geode::utils::MiniFunctionState<geode::Index::Impl::installNext(unsigned int, geode::IndexInstallList const&)::$_4, void, geode::utils::web::SentAsyncWebRequest&>::clone() const
FUNC 26daf8 3a 0 geode::utils::MiniFunctionState<geode::Index::cancelInstall(std::__ndk1::shared_ptr<geode::IndexItem>)::$_0, void, >::~MiniFunctionState()
FUNC 26db32 3c 0 geode::utils::MiniFunctionState<geode::Index::cancelInstall(std::__ndk1::shared_ptr<geode::IndexItem>)::$_0, void, >::~MiniFunctionState()
FUNC 26db6e 11a 0 geode::utils::MiniFunctionState<geode::Index::cancelInstall(std::__ndk1::shared_ptr<geode::IndexItem>)::$_0, void, >::call() const
FUNC 26dc88 38 0 geode::utils::MiniFunctionState<geode::Index::cancelInstall(std::__ndk1::shared_ptr<geode::IndexItem>)::$_0, void, >::clone() const
FUNC 26dcc0 e0 0 std::__ndk1::unordered_map<std::__ndk1::shared_ptr<geode::IndexItem>, std::__ndk1::shared_ptr<geode::utils::web::SentAsyncWebRequest>, std::__ndk1::hash<std::__ndk1::shared_ptr<geode::IndexItem> >, std::__ndk1::equal_to<std::__ndk1::shared_ptr<geode::IndexItem> >, std::__ndk1::allocator<std::__ndk1::pair<std::__ndk1::shared_ptr<geode::IndexItem> const, std::__ndk1::shared_ptr<geode::utils::web::SentAsyncWebRequest> > > >::at(std::__ndk1::shared_ptr<geode::IndexItem> const&)
FUNC 26dda0 96 0 geode::utils::MiniFunctionState<geode::Index::install(geode::IndexInstallList const&)::$_0, void, >::~MiniFunctionState()
FUNC 26de36 9c 0 geode::utils::MiniFunctionState<geode::Index::install(geode::IndexInstallList const&)::$_0, void, >::~MiniFunctionState()
FUNC 26ded2 e 0 geode::utils::MiniFunctionState<geode::Index::install(geode::IndexInstallList const&)::$_0, void, >::call() const
FUNC 26dee0 7c 0 geode::utils::MiniFunctionState<geode::Index::install(geode::IndexInstallList const&)::$_0, void, >::clone() const
FUNC 26df5c 3a 0 geode::utils::MiniFunctionState<geode::Index::install(std::__ndk1::shared_ptr<geode::IndexItem>)::$_0, void, >::~MiniFunctionState()
FUNC 26df96 3c 0 geode::utils::MiniFunctionState<geode::Index::install(std::__ndk1::shared_ptr<geode::IndexItem>)::$_0, void, >::~MiniFunctionState()
FUNC 26dfd4 47c 0 geode::utils::MiniFunctionState<geode::Index::install(std::__ndk1::shared_ptr<geode::IndexItem>)::$_0, void, >::call() const
FUNC 26e450 38 0 geode::utils::MiniFunctionState<geode::Index::install(std::__ndk1::shared_ptr<geode::IndexItem>)::$_0, void, >::clone() const
FUNC 26e488 22 0 geode::Loader::Loader()
FUNC 26e4aa 1a 0 geode::Loader::~Loader()
FUNC 26e4c4 68 0 geode::Loader::get()
FUNC 26e52c 6 0 geode::Loader::isForwardCompatMode()
FUNC 26e532 6 0 geode::Loader::saveData()
FUNC 26e538 6 0 geode::Loader::loadData()
FUNC 26e53e c 0 geode::Loader::getVersion()
FUNC 26e54a c 0 geode::Loader::minModVersion()
FUNC 26e556 c 0 geode::Loader::maxModVersion()
FUNC 26e562 6 0 geode::Loader::isModVersionSupported(geode::VersionInfo const&)
FUNC 26e568 8 0 geode::Loader::getLoadingState()
FUNC 26e570 6 0 geode::Loader::isModInstalled(std::__ndk1::basic_string<char, std::__ndk1::char_traits<char>, std::__ndk1::allocator<char> > const&) const
FUNC 26e576 6 0 geode::Loader::getInstalledMod(std::__ndk1::basic_string<char, std::__ndk1::char_traits<char>, std::__ndk1::allocator<char> > const&) const
FUNC 26e57c 6 0 geode::Loader::isModLoaded(std::__ndk1::basic_string<char, std::__ndk1::char_traits<char>, std::__ndk1::allocator<char> > const&) const
FUNC 26e582 6 0 geode::Loader::getLoadedMod(std::__ndk1::basic_string<char, std::__ndk1::char_traits<char>, std::__ndk1::allocator<char> > const&) const
FUNC 26e588 c 0 geode::Loader::getAllMods()
FUNC 26e594 c 0 geode::Loader::getProblems() const
FUNC 26e5a0 6 0 geode::Loader::queueInMainThread(geode::utils::MiniFunction<void ()>)
FUNC 26e5a6 6 0 geode::Loader::takeNextMod()
FUNC 26e5ac c 0 geode::Loader::getLaunchArgumentNames() const
FUNC 26e5b8 6 0 geode::Loader::hasLaunchArgument(std::__ndk1::basic_string_view<char, std::__ndk1::char_traits<char> >) const
FUNC 26e5be c 0 geode::Loader::getLaunchArgument(std::__ndk1::basic_string_view<char, std::__ndk1::char_traits<char> >) const
FUNC 26e5ca 6 0 geode::Loader::getLaunchFlag(std::__ndk1::basic_string_view<char, std::__ndk1::char_traits<char> >) const
FUNC 26e5d0 be 0 std::__ndk1::pair<std::__ndk1::basic_string<char, std::__ndk1::char_traits<char>, std::__ndk1::allocator<char> > const, std::__ndk1::basic_string<char, std::__ndk1::char_traits<char>, std::__ndk1::allocator<char> > >::pair[abi:v170000]<char const (&) [9], std::__ndk1::pair<std::__ndk1::basic_string<char, std::__ndk1::char_traits<char>, std::__ndk1::allocator<char> > const, std::__ndk1::basic_string<char, std::__ndk1::char_traits<char>, std::__ndk1::allocator<char> > >::pair[abi:v170000] (&) [65], (void*)0>(std::__ndk1::pair<std::__ndk1::basic_string<char, std::__ndk1::char_traits<char>, std::__ndk1::allocator<char> > const, std::__ndk1::basic_string<char, std::__ndk1::char_traits<char>, std::__ndk1::allocator<char> > >::pair[abi:v170000] (&) [65])
FUNC 26e68e be 0 std::__ndk1::pair<std::__ndk1::basic_string<char, std::__ndk1::char_traits<char>, std::__ndk1::allocator<char> > const, std::__ndk1::basic_string<char, std::__ndk1::char_traits<char>, std::__ndk1::allocator<char> > >::pair[abi:v170000]<char const (&) [13], std::__ndk1::pair<std::__ndk1::basic_string<char, std::__ndk1::char_traits<char>, std::__ndk1::allocator<char> > const, std::__ndk1::basic_string<char, std::__ndk1::char_traits<char>, std::__ndk1::allocator<char> > >::pair[abi:v170000] (&) [65], (void*)0>(std::__ndk1::pair<std::__ndk1::basic_string<char, std::__ndk1::char_traits<char>, std::__ndk1::allocator<char> > const, std::__ndk1::basic_string<char, std::__ndk1::char_traits<char>, std::__ndk1::allocator<char> > >::pair[abi:v170000] (&) [65])
FUNC 26e74c be 0 std::__ndk1::pair<std::__ndk1::basic_string<char, std::__ndk1::char_traits<char>, std::__ndk1::allocator<char> > const, std::__ndk1::basic_string<char, std::__ndk1::char_traits<char>, std::__ndk1::allocator<char> > >::pair[abi:v170000]<char const (&) [11], std::__ndk1::pair<std::__ndk1::basic_string<char, std::__ndk1::char_traits<char>, std::__ndk1::allocator<char> > const, std::__ndk1::basic_string<char, std::__ndk1::char_traits<char>, std::__ndk1::allocator<char> > >::pair[abi:v170000] (&) [65], (void*)0>(std::__ndk1::pair<std::__ndk1::basic_string<char, std::__ndk1::char_traits<char>, std::__ndk1::allocator<char> > const, std::__ndk1::basic_string<char, std::__ndk1::char_traits<char>, std::__ndk1::allocator<char> > >::pair[abi:v170000] (&) [65])
FUNC 26e80a 22 0 std::__ndk1::pair<std::__ndk1::basic_string<char, std::__ndk1::char_traits<char>, std::__ndk1::allocator<char> > const, std::__ndk1::basic_string<char, std::__ndk1::char_traits<char>, std::__ndk1::allocator<char> > >::~pair()
FUNC 26e82c 4a 0 std::__ndk1::unordered_map<std::__ndk1::basic_string<char, std::__ndk1::char_traits<char>, std::__ndk1::allocator<char> >, std::__ndk1::basic_string<char, std::__ndk1::char_traits<char>, std::__ndk1::allocator<char> >, std::__ndk1::hash<std::__ndk1::basic_string<char, std::__ndk1::char_traits<char>, std::__ndk1::allocator<char> > >, std::__ndk1::equal_to<std::__ndk1::basic_string<char, std::__ndk1::char_traits<char>, std::__ndk1::allocator<char> > >, std::__ndk1::allocator<std::__ndk1::pair<std::__ndk1::basic_string<char, std::__ndk1::char_traits<char>, std::__ndk1::allocator<char> > const, std::__ndk1::basic_string<char, std::__ndk1::char_traits<char>, std::__ndk1::allocator<char> > > > >::~unordered_map[abi:v170000]()
FUNC 26e876 c 0 geode::LoaderImpl::get()
FUNC 26e882 7c 0 geode::Loader::Impl::Impl()
FUNC 26e8fe 38 0 std::__ndk1::vector<geode::utils::MiniFunction<void ()>, std::__ndk1::allocator<geode::utils::MiniFunction<void ()> > >::~vector[abi:v170000]()
FUNC 26e936 7a 0 std::__ndk1::deque<geode::Mod*, std::__ndk1::allocator<geode::Mod*> >::~deque[abi:v170000]()
FUNC 26e9b0 210 0 geode::Loader::Impl::~Impl()
FUNC 26ebc0 d8 0 geode::Loader::Impl::isForwardCompatMode()
FUNC 26ec98 1b4 0 geode::Loader::Impl::createDirectories()
FUNC 26ee4c 20c 0 geode::Loader::Impl::setup()
FUNC 26f058 3a8 0 geode::Loader::Impl::initLaunchArguments()
FUNC 26f400 80 0 geode::Loader::Impl::getLaunchFlag(std::__ndk1::basic_string_view<char, std::__ndk1::char_traits<char> >) const
FUNC 26f480 184 0 geode::Loader::Impl::loadHooks()
FUNC 26f604 d0 0 geode::Loader::Impl::addSearchPaths()
FUNC 26f6d4 330 0 geode::Loader::Impl::refreshModGraph()
FUNC 26fa04 9c 0 geode::Loader::Impl::updateResources(bool)
FUNC 26faa0 718 0 geode::Loader::Impl::updateModResources(geode::Mod*)
FUNC 2701b8 c 0 geode::Loader::Impl::getAllMods()
FUNC 2701c4 16c 0 geode::utils::map::values<std::__ndk1::basic_string<char, std::__ndk1::char_traits<char>, std::__ndk1::allocator<char> >, geode::Mod*>(std::__ndk1::unordered_map<std::__ndk1::basic_string<char, std::__ndk1::char_traits<char>, std::__ndk1::allocator<char> >, geode::Mod*, std::__ndk1::hash<std::__ndk1::basic_string<char, std::__ndk1::char_traits<char>, std::__ndk1::allocator<char> > >, std::__ndk1::equal_to<std::__ndk1::basic_string<char, std::__ndk1::char_traits<char>, std::__ndk1::allocator<char> > >, std::__ndk1::allocator<std::__ndk1::pair<std::__ndk1::basic_string<char, std::__ndk1::char_traits<char>, std::__ndk1::allocator<char> > const, geode::Mod*> > > const&)
FUNC 270330 a 0 geode::Loader::Impl::getVersion()
FUNC 27033c 54 0 geode::Loader::Impl::minModVersion()
FUNC 270390 54 0 geode::Loader::Impl::maxModVersion()
FUNC 2703e4 40 0 geode::Loader::Impl::isModVersionSupported(geode::VersionInfo const&)
FUNC 270424 228 0 geode::Loader::Impl::saveData()
FUNC 27064c 74 0 geode::Result<std::__ndk1::monostate, std::__ndk1::basic_string<char, std::__ndk1::char_traits<char>, std::__ndk1::allocator<char> > >::unwrapErr() &
FUNC 2706c0 228 0 geode::Loader::Impl::loadData()
FUNC 2708e8 38 0 geode::Loader::Impl::isModInstalled(std::__ndk1::basic_string<char, std::__ndk1::char_traits<char>, std::__ndk1::allocator<char> > const&) const
FUNC 270920 44 0 geode::Loader::Impl::getInstalledMod(std::__ndk1::basic_string<char, std::__ndk1::char_traits<char>, std::__ndk1::allocator<char> > const&) const
FUNC 270964 38 0 geode::Loader::Impl::isModLoaded(std::__ndk1::basic_string<char, std::__ndk1::char_traits<char>, std::__ndk1::allocator<char> > const&) const
FUNC 27099c 40 0 geode::Loader::Impl::getLoadedMod(std::__ndk1::basic_string<char, std::__ndk1::char_traits<char>, std::__ndk1::allocator<char> > const&) const
FUNC 2709dc 7a 0 geode::Loader::Impl::addProblem(geode::LoadProblem const&)
FUNC 270a58 6e8 0 geode::Loader::Impl::queueMods(std::__ndk1::vector<geode::ModMetadata, std::__ndk1::allocator<geode::ModMetadata> >&)
FUNC 271140 54 0 std::__ndk1::variant<ghc::filesystem::path, geode::ModMetadata, geode::Mod*>::~variant()
FUNC 271194 60 0 geode::LoadProblem::~LoadProblem()
FUNC 2711f4 70 0 geode::log::error<std::__ndk1::basic_string<char, std::__ndk1::char_traits<char>, std::__ndk1::allocator<char> > >(fmt::v10::basic_format_string<char, fmt::v10::type_identity<decltype ((wrapCocosObj<std::__ndk1::basic_string<char, std::__ndk1::char_traits<char>, std::__ndk1::allocator<char> > >)((std::declval<std::__ndk1::basic_string<char, std::__ndk1::char_traits<char>, std::__ndk1::allocator<char> > >)()))>::type>, std::__ndk1::basic_string<char, std::__ndk1::char_traits<char>, std::__ndk1::allocator<char> >&&)
FUNC 271264 458 0 geode::Loader::Impl::populateModList(std::__ndk1::vector<geode::ModMetadata, std::__ndk1::allocator<geode::ModMetadata> >&)
FUNC 2716bc 2e4 0 geode::Loader::Impl::buildModGraph()
FUNC 2719a0 850 0 geode::Loader::Impl::loadModGraph(geode::Mod*, bool)
FUNC 2721f0 80 0 geode::Loader::Impl::loadModGraph(geode::Mod*, bool)::$_1::operator()() const
FUNC 272270 2a0 0 geode::Loader::Impl::loadModGraph(geode::Mod*, bool)::$_2::operator()() const
FUNC 272510 c4 0 std::__ndk1::thread::thread<geode::Loader::Impl::loadModGraph(geode::Mod*, bool)::$_0, , void>(&&)
FUNC 2725d4 3a 0 geode::Loader::Impl::loadModGraph(geode::Mod*, bool)::$_0::~$_0()
FUNC 27260e 3a 0 std::__ndk1::shared_ptr<geode::log::Nest>::~shared_ptr[abi:v170000]()
FUNC 272648 e0c 0 geode::Loader::Impl::findProblems()
FUNC 273454 3e 0 std::__ndk1::vector<geode::ModMetadata::Incompatibility, std::__ndk1::allocator<geode::ModMetadata::Incompatibility> >::~vector[abi:v170000]()
FUNC 273492 5a 0 geode::Loader::Impl::queueInMainThread(geode::utils::MiniFunction<void ()> const&)
FUNC 2734ec 2a 0 std::__ndk1::vector<geode::ModMetadata, std::__ndk1::allocator<geode::ModMetadata> >::~vector[abi:v170000]()
FUNC 273518 318 0 geode::Loader::Impl::continueRefreshModGraph()
FUNC 273830 c 0 geode::Loader::Impl::getProblems() const
FUNC 27383c cc 0 std::__ndk1::vector<geode::LoadProblem, std::__ndk1::allocator<geode::LoadProblem> >::vector(std::__ndk1::vector<geode::LoadProblem, std::__ndk1::allocator<geode::LoadProblem> > const&)
FUNC 273908 c8 0 geode::Loader::Impl::forceReset()
FUNC 2739d0 6 0 geode::Loader::Impl::isReadyToHook() const
FUNC 2739d6 100 0 geode::Loader::Impl::addUninitializedHook(geode::Hook*, geode::Mod*)
FUNC 273ad8 bc 0 geode::Loader::Impl::executeMainThreadQueue()
FUNC 273b94 d0 0 std::__ndk1::vector<geode::utils::MiniFunction<void ()>, std::__ndk1::allocator<geode::utils::MiniFunction<void ()> > >::vector(std::__ndk1::vector<geode::utils::MiniFunction<void ()>, std::__ndk1::allocator<geode::utils::MiniFunction<void ()> > > const&)
FUNC 273c64 44 0 geode::Loader::Impl::provideNextMod(geode::Mod*)
FUNC 273ca8 1c 0 geode::Loader::Impl::takeNextMod()
FUNC 273cc4 30 0 geode::Loader::Impl::releaseNextMod()
FUNC 273cf4 bc 0 std::__ndk1::pair<std::__ndk1::basic_string<char, std::__ndk1::char_traits<char>, std::__ndk1::allocator<char> > const, std::__ndk1::basic_string<char, std::__ndk1::char_traits<char>, std::__ndk1::allocator<char> > >::pair[abi:v170000]<std::__ndk1::basic_string<char, std::__ndk1::char_traits<char>, std::__ndk1::allocator<char> >&, char const (&) [5], (void*)0>(char const (&) [5])
FUNC 273db0 c6 0 std::__ndk1::pair<std::__ndk1::basic_string<char, std::__ndk1::char_traits<char>, std::__ndk1::allocator<char> > const, std::__ndk1::basic_string<char, std::__ndk1::char_traits<char>, std::__ndk1::allocator<char> > >::pair[abi:v170000]<std::__ndk1::basic_string<char, std::__ndk1::char_traits<char>, std::__ndk1::allocator<char> >&, std::__ndk1::pair<std::__ndk1::basic_string<char, std::__ndk1::char_traits<char>, std::__ndk1::allocator<char> > const, std::__ndk1::basic_string<char, std::__ndk1::char_traits<char>, std::__ndk1::allocator<char> > >::pair[abi:v170000], (void*)0>(std::__ndk1::pair<std::__ndk1::basic_string<char, std::__ndk1::char_traits<char>, std::__ndk1::allocator<char> > const, std::__ndk1::basic_string<char, std::__ndk1::char_traits<char>, std::__ndk1::allocator<char> > >::pair[abi:v170000]&&)
FUNC 273e76 c 0 geode::Loader::Impl::getLaunchArgumentNames() const
FUNC 273e82 ae 0 geode::utils::map::keys<std::__ndk1::basic_string<char, std::__ndk1::char_traits<char>, std::__ndk1::allocator<char> >, std::__ndk1::basic_string<char, std::__ndk1::char_traits<char>, std::__ndk1::allocator<char> > >(std::__ndk1::unordered_map<std::__ndk1::basic_string<char, std::__ndk1::char_traits<char>, std::__ndk1::allocator<char> >, std::__ndk1::basic_string<char, std::__ndk1::char_traits<char>, std::__ndk1::allocator<char> >, std::__ndk1::hash<std::__ndk1::basic_string<char, std::__ndk1::char_traits<char>, std::__ndk1::allocator<char> > >, std::__ndk1::equal_to<std::__ndk1::basic_string<char, std::__ndk1::char_traits<char>, std::__ndk1::allocator<char> > >, std::__ndk1::allocator<std::__ndk1::pair<std::__ndk1::basic_string<char, std::__ndk1::char_traits<char>, std::__ndk1::allocator<char> > const, std::__ndk1::basic_string<char, std::__ndk1::char_traits<char>, std::__ndk1::allocator<char> > > > > const&)
FUNC 273f30 b0 0 geode::Loader::Impl::hasLaunchArgument(std::__ndk1::basic_string_view<char, std::__ndk1::char_traits<char> >) const
FUNC 273fe0 10c 0 geode::Loader::Impl::getLaunchArgument(std::__ndk1::basic_string_view<char, std::__ndk1::char_traits<char> >) const
FUNC 2740ec 16c 0 geode::Loader::Impl::getHandler(void*)
FUNC 274258 228 0 geode::Loader::Impl::getOrCreateHandler(void*, tulip::hook::HandlerMetadata const&)
FUNC 274480 bc 0 tulip::hook::Result<unsigned int, std::__ndk1::basic_string<char, std::__ndk1::char_traits<char>, std::__ndk1::allocator<char> > >::unwrap() &
FUNC 27453c 90 0 geode::Loader::Impl::isSafeMode() const
FUNC 2745cc 8 0 geode::Loader::Impl::forceSafeMode()
FUNC 2745d4 de 0 std::__ndk1::vector<ghc::filesystem::path, std::__ndk1::allocator<ghc::filesystem::path> >::__push_back_slow_path<ghc::filesystem::path>(ghc::filesystem::path&&)
FUNC 2746b4 10 0 std::__ndk1::vector<ghc::filesystem::path, std::__ndk1::allocator<ghc::filesystem::path> >::__throw_length_error[abi:v170000]() const
FUNC 2746c4 1bc 0 std::__ndk1::vector<geode::LoadProblem, std::__ndk1::allocator<geode::LoadProblem> >::__push_back_slow_path<geode::LoadProblem const&>(geode::LoadProblem const&)
FUNC 274880 f4 0 geode::LoadProblem::LoadProblem(geode::LoadProblem const&)
FUNC 274974 8 0 std::__ndk1::__variant_detail::__visitation::__base::__dispatcher<(unsigned int)0, (unsigned int)0>::__dispatch[abi:v170000]<std::__ndk1::__variant_detail::__ctor<std::__ndk1::__variant_detail::__traits<ghc::filesystem::path, geode::ModMetadata, ghc::filesystem::path*::Mod> >::__generic_construct[abi:v170000]<std::__ndk1::__variant_detail::__copy_constructor<ghc::filesystem::path*::Mod, (std::__ndk1::__variant_detail::_Trait)1> const&>(std::__ndk1::__variant_detail::__traits<ghc::filesystem::path, geode::ModMetadata, ghc::filesystem::path*::Mod>&, std::__ndk1::__variant_detail::__copy_constructor<ghc::filesystem::path*::Mod, (std::__ndk1::__variant_detail::_Trait)1> const&)::{lambda(std::__ndk1::__variant_detail::__copy_constructor<ghc::filesystem::path*::Mod, (std::__ndk1::__variant_detail::_Trait)1> const&, auto:2&&)#1}, std::__ndk1::__variant_detail::__base<(std::__ndk1::__variant_detail::__ctor<std::__ndk1::__variant_detail::__traits<ghc::filesystem::path, geode::ModMetadata, ghc::filesystem::path*::Mod> >::__generic_construct[abi:v170000])1, ghc::filesystem, geode, ghc::filesystem::path::Mod>&, std::__ndk1::__variant_detail::__ctor<std::__ndk1::__variant_detail::__traits<ghc::filesystem::path, geode::ModMetadata, ghc::filesystem::path*::Mod> >::__generic_construct[abi:v170000]<std::__ndk1::__variant_detail::__copy_constructor<ghc::filesystem::path*::Mod, (std::__ndk1::__variant_detail::_Trait)1> const&>(std::__ndk1::__variant_detail::__traits<ghc::filesystem::path, geode::ModMetadata, ghc::filesystem::path*::Mod>&, std::__ndk1::__variant_detail::__copy_constructor<ghc::filesystem::path*::Mod, (std::__ndk1::__variant_detail::_Trait)1> const&)::{lambda(std::__ndk1::__variant_detail::__copy_constructor<ghc::filesystem::path*::Mod, (std::__ndk1::__variant_detail::_Trait)1> const&, auto:2&&)#1} const&>(std::__ndk1::__variant_detail::__copy_constructor<ghc::filesystem::path*::Mod, (std::__ndk1::__variant_detail::_Trait)1> const&, std::__ndk1::__variant_detail::__base<(std::__ndk1::__variant_detail::__ctor<std::__ndk1::__variant_detail::__traits<ghc::filesystem::path, geode::ModMetadata, ghc::filesystem::path*::Mod> >::__generic_construct[abi:v170000])1, ghc::filesystem, geode, ghc::filesystem::path::Mod>&, std::__ndk1::__variant_detail::__ctor<std::__ndk1::__variant_detail::__traits<ghc::filesystem::path, geode::ModMetadata, ghc::filesystem::path*::Mod> >::__generic_construct[abi:v170000]<std::__ndk1::__variant_detail::__copy_constructor<ghc::filesystem::path*::Mod, (std::__ndk1::__variant_detail::_Trait)1> const&>(std::__ndk1::__variant_detail::__traits<ghc::filesystem::path, geode::ModMetadata, ghc::filesystem::path*::Mod>&, std::__ndk1::__variant_detail::__copy_constructor<ghc::filesystem::path*::Mod, (std::__ndk1::__variant_detail::_Trait)1> const&)::{lambda(std::__ndk1::__variant_detail::__copy_constructor<ghc::filesystem::path*::Mod, (std::__ndk1::__variant_detail::_Trait)1> const&, auto:2&&)#1} const&)
FUNC 27497c 8 0 std::__ndk1::__variant_detail::__visitation::__base::__dispatcher<(unsigned int)1, (unsigned int)1>::__dispatch[abi:v170000]<std::__ndk1::__variant_detail::__ctor<std::__ndk1::__variant_detail::__traits<ghc::filesystem::path, geode::ModMetadata, ghc::filesystem::path*::Mod> >::__generic_construct[abi:v170000]<std::__ndk1::__variant_detail::__copy_constructor<ghc::filesystem::path*::Mod, (std::__ndk1::__variant_detail::_Trait)1> const&>(std::__ndk1::__variant_detail::__traits<ghc::filesystem::path, geode::ModMetadata, ghc::filesystem::path*::Mod>&, std::__ndk1::__variant_detail::__copy_constructor<ghc::filesystem::path*::Mod, (std::__ndk1::__variant_detail::_Trait)1> const&)::{lambda(std::__ndk1::__variant_detail::__copy_constructor<ghc::filesystem::path*::Mod, (std::__ndk1::__variant_detail::_Trait)1> const&, auto:2&&)#1}, std::__ndk1::__variant_detail::__base<(std::__ndk1::__variant_detail::__ctor<std::__ndk1::__variant_detail::__traits<ghc::filesystem::path, geode::ModMetadata, ghc::filesystem::path*::Mod> >::__generic_construct[abi:v170000])1, ghc::filesystem, geode, ghc::filesystem::path::Mod>&, std::__ndk1::__variant_detail::__ctor<std::__ndk1::__variant_detail::__traits<ghc::filesystem::path, geode::ModMetadata, ghc::filesystem::path*::Mod> >::__generic_construct[abi:v170000]<std::__ndk1::__variant_detail::__copy_constructor<ghc::filesystem::path*::Mod, (std::__ndk1::__variant_detail::_Trait)1> const&>(std::__ndk1::__variant_detail::__traits<ghc::filesystem::path, geode::ModMetadata, ghc::filesystem::path*::Mod>&, std::__ndk1::__variant_detail::__copy_constructor<ghc::filesystem::path*::Mod, (std::__ndk1::__variant_detail::_Trait)1> const&)::{lambda(std::__ndk1::__variant_detail::__copy_constructor<ghc::filesystem::path*::Mod, (std::__ndk1::__variant_detail::_Trait)1> const&, auto:2&&)#1} const&>(std::__ndk1::__variant_detail::__copy_constructor<ghc::filesystem::path*::Mod, (std::__ndk1::__variant_detail::_Trait)1> const&, std::__ndk1::__variant_detail::__base<(std::__ndk1::__variant_detail::__ctor<std::__ndk1::__variant_detail::__traits<ghc::filesystem::path, geode::ModMetadata, ghc::filesystem::path*::Mod> >::__generic_construct[abi:v170000])1, ghc::filesystem, geode, ghc::filesystem::path::Mod>&, std::__ndk1::__variant_detail::__ctor<std::__ndk1::__variant_detail::__traits<ghc::filesystem::path, geode::ModMetadata, ghc::filesystem::path*::Mod> >::__generic_construct[abi:v170000]<std::__ndk1::__variant_detail::__copy_constructor<ghc::filesystem::path*::Mod, (std::__ndk1::__variant_detail::_Trait)1> const&>(std::__ndk1::__variant_detail::__traits<ghc::filesystem::path, geode::ModMetadata, ghc::filesystem::path*::Mod>&, std::__ndk1::__variant_detail::__copy_constructor<ghc::filesystem::path*::Mod, (std::__ndk1::__variant_detail::_Trait)1> const&)::{lambda(std::__ndk1::__variant_detail::__copy_constructor<ghc::filesystem::path*::Mod, (std::__ndk1::__variant_detail::_Trait)1> const&, auto:2&&)#1} const&)
FUNC 274984 6 0 std::__ndk1::__variant_detail::__visitation::__base::__dispatcher<(unsigned int)2, (unsigned int)2>::__dispatch[abi:v170000]<std::__ndk1::__variant_detail::__ctor<std::__ndk1::__variant_detail::__traits<ghc::filesystem::path, geode::ModMetadata, ghc::filesystem::path*::Mod> >::__generic_construct[abi:v170000]<std::__ndk1::__variant_detail::__copy_constructor<ghc::filesystem::path*::Mod, (std::__ndk1::__variant_detail::_Trait)1> const&>(std::__ndk1::__variant_detail::__traits<ghc::filesystem::path, geode::ModMetadata, ghc::filesystem::path*::Mod>&, std::__ndk1::__variant_detail::__copy_constructor<ghc::filesystem::path*::Mod, (std::__ndk1::__variant_detail::_Trait)1> const&)::{lambda(std::__ndk1::__variant_detail::__copy_constructor<ghc::filesystem::path*::Mod, (std::__ndk1::__variant_detail::_Trait)1> const&, auto:2&&)#1}, std::__ndk1::__variant_detail::__base<(std::__ndk1::__variant_detail::__ctor<std::__ndk1::__variant_detail::__traits<ghc::filesystem::path, geode::ModMetadata, ghc::filesystem::path*::Mod> >::__generic_construct[abi:v170000])1, ghc::filesystem, geode, ghc::filesystem::path::Mod>&, std::__ndk1::__variant_detail::__ctor<std::__ndk1::__variant_detail::__traits<ghc::filesystem::path, geode::ModMetadata, ghc::filesystem::path*::Mod> >::__generic_construct[abi:v170000]<std::__ndk1::__variant_detail::__copy_constructor<ghc::filesystem::path*::Mod, (std::__ndk1::__variant_detail::_Trait)1> const&>(std::__ndk1::__variant_detail::__traits<ghc::filesystem::path, geode::ModMetadata, ghc::filesystem::path*::Mod>&, std::__ndk1::__variant_detail::__copy_constructor<ghc::filesystem::path*::Mod, (std::__ndk1::__variant_detail::_Trait)1> const&)::{lambda(std::__ndk1::__variant_detail::__copy_constructor<ghc::filesystem::path*::Mod, (std::__ndk1::__variant_detail::_Trait)1> const&, auto:2&&)#1} const&>(std::__ndk1::__variant_detail::__copy_constructor<ghc::filesystem::path*::Mod, (std::__ndk1::__variant_detail::_Trait)1> const&, std::__ndk1::__variant_detail::__base<(std::__ndk1::__variant_detail::__ctor<std::__ndk1::__variant_detail::__traits<ghc::filesystem::path, geode::ModMetadata, ghc::filesystem::path*::Mod> >::__generic_construct[abi:v170000])1, ghc::filesystem, geode, ghc::filesystem::path::Mod>&, std::__ndk1::__variant_detail::__ctor<std::__ndk1::__variant_detail::__traits<ghc::filesystem::path, geode::ModMetadata, ghc::filesystem::path*::Mod> >::__generic_construct[abi:v170000]<std::__ndk1::__variant_detail::__copy_constructor<ghc::filesystem::path*::Mod, (std::__ndk1::__variant_detail::_Trait)1> const&>(std::__ndk1::__variant_detail::__traits<ghc::filesystem::path, geode::ModMetadata, ghc::filesystem::path*::Mod>&, std::__ndk1::__variant_detail::__copy_constructor<ghc::filesystem::path*::Mod, (std::__ndk1::__variant_detail::_Trait)1> const&)::{lambda(std::__ndk1::__variant_detail::__copy_constructor<ghc::filesystem::path*::Mod, (std::__ndk1::__variant_detail::_Trait)1> const&, auto:2&&)#1} const&)
FUNC 27498c 9c 0 std::__ndk1::__split_buffer<geode::LoadProblem, std::__ndk1::allocator<geode::LoadProblem>&>::~__split_buffer()
FUNC 274a28 10 0 std::__ndk1::vector<geode::LoadProblem, std::__ndk1::allocator<geode::LoadProblem> >::__throw_length_error[abi:v170000]() const
FUNC 274a38 8 0 std::__ndk1::__variant_detail::__visitation::__base::__dispatcher<(unsigned int)0, (unsigned int)0>::__dispatch[abi:v170000]<std::__ndk1::__variant_detail::__ctor<std::__ndk1::__variant_detail::__traits<ghc::filesystem::path, geode::ModMetadata, ghc::filesystem::path*::Mod> >::__generic_construct[abi:v170000]<std::__ndk1::__variant_detail::__move_constructor<ghc::filesystem::path*::Mod, (std::__ndk1::__variant_detail::_Trait)1> >(std::__ndk1::__variant_detail::__traits<ghc::filesystem::path, geode::ModMetadata, ghc::filesystem::path*::Mod>&, std::__ndk1::__variant_detail::__move_constructor<ghc::filesystem::path*::Mod, (std::__ndk1::__variant_detail::_Trait)1>&&)::{lambda(std::__ndk1::__variant_detail::__move_constructor<ghc::filesystem::path*::Mod, (std::__ndk1::__variant_detail::_Trait)1>&, auto:2&&)#1}, std::__ndk1::__variant_detail::__base<(std::__ndk1::__variant_detail::__ctor<std::__ndk1::__variant_detail::__traits<ghc::filesystem::path, geode::ModMetadata, ghc::filesystem::path*::Mod> >::__generic_construct[abi:v170000])1, ghc::filesystem, geode, ghc::filesystem::path::Mod>&, std::__ndk1::__variant_detail::__ctor<std::__ndk1::__variant_detail::__traits<ghc::filesystem::path, geode::ModMetadata, ghc::filesystem::path*::Mod> >::__generic_construct[abi:v170000]<std::__ndk1::__variant_detail::__move_constructor<ghc::filesystem::path*::Mod, (std::__ndk1::__variant_detail::_Trait)1> >(std::__ndk1::__variant_detail::__traits<ghc::filesystem::path, geode::ModMetadata, ghc::filesystem::path*::Mod>&, std::__ndk1::__variant_detail::__move_constructor<ghc::filesystem::path*::Mod, (std::__ndk1::__variant_detail::_Trait)1>&&)::{lambda(std::__ndk1::__variant_detail::__move_constructor<ghc::filesystem::path*::Mod, (std::__ndk1::__variant_detail::_Trait)1>&, auto:2&&)#1}>(std::__ndk1::__variant_detail::__move_constructor<ghc::filesystem::path*::Mod, (std::__ndk1::__variant_detail::_Trait)1>, std::__ndk1::__variant_detail::__base<(std::__ndk1::__variant_detail::__ctor<std::__ndk1::__variant_detail::__traits<ghc::filesystem::path, geode::ModMetadata, ghc::filesystem::path*::Mod> >::__generic_construct[abi:v170000])1, ghc::filesystem, geode, ghc::filesystem::path::Mod>&, std::__ndk1::__variant_detail::__ctor<std::__ndk1::__variant_detail::__traits<ghc::filesystem::path, geode::ModMetadata, ghc::filesystem::path*::Mod> >::__generic_construct[abi:v170000]<std::__ndk1::__variant_detail::__move_constructor<ghc::filesystem::path*::Mod, (std::__ndk1::__variant_detail::_Trait)1> >(std::__ndk1::__variant_detail::__traits<ghc::filesystem::path, geode::ModMetadata, ghc::filesystem::path*::Mod>&, std::__ndk1::__variant_detail::__move_constructor<ghc::filesystem::path*::Mod, (std::__ndk1::__variant_detail::_Trait)1>&&)::{lambda(std::__ndk1::__variant_detail::__move_constructor<ghc::filesystem::path*::Mod, (std::__ndk1::__variant_detail::_Trait)1>&, auto:2&&)#1})
FUNC 274a40 8 0 std::__ndk1::__variant_detail::__visitation::__base::__dispatcher<(unsigned int)1, (unsigned int)1>::__dispatch[abi:v170000]<std::__ndk1::__variant_detail::__ctor<std::__ndk1::__variant_detail::__traits<ghc::filesystem::path, geode::ModMetadata, ghc::filesystem::path*::Mod> >::__generic_construct[abi:v170000]<std::__ndk1::__variant_detail::__move_constructor<ghc::filesystem::path*::Mod, (std::__ndk1::__variant_detail::_Trait)1> >(std::__ndk1::__variant_detail::__traits<ghc::filesystem::path, geode::ModMetadata, ghc::filesystem::path*::Mod>&, std::__ndk1::__variant_detail::__move_constructor<ghc::filesystem::path*::Mod, (std::__ndk1::__variant_detail::_Trait)1>&&)::{lambda(std::__ndk1::__variant_detail::__move_constructor<ghc::filesystem::path*::Mod, (std::__ndk1::__variant_detail::_Trait)1>&, auto:2&&)#1}, std::__ndk1::__variant_detail::__base<(std::__ndk1::__variant_detail::__ctor<std::__ndk1::__variant_detail::__traits<ghc::filesystem::path, geode::ModMetadata, ghc::filesystem::path*::Mod> >::__generic_construct[abi:v170000])1, ghc::filesystem, geode, ghc::filesystem::path::Mod>&, std::__ndk1::__variant_detail::__ctor<std::__ndk1::__variant_detail::__traits<ghc::filesystem::path, geode::ModMetadata, ghc::filesystem::path*::Mod> >::__generic_construct[abi:v170000]<std::__ndk1::__variant_detail::__move_constructor<ghc::filesystem::path*::Mod, (std::__ndk1::__variant_detail::_Trait)1> >(std::__ndk1::__variant_detail::__traits<ghc::filesystem::path, geode::ModMetadata, ghc::filesystem::path*::Mod>&, std::__ndk1::__variant_detail::__move_constructor<ghc::filesystem::path*::Mod, (std::__ndk1::__variant_detail::_Trait)1>&&)::{lambda(std::__ndk1::__variant_detail::__move_constructor<ghc::filesystem::path*::Mod, (std::__ndk1::__variant_detail::_Trait)1>&, auto:2&&)#1}>(std::__ndk1::__variant_detail::__move_constructor<ghc::filesystem::path*::Mod, (std::__ndk1::__variant_detail::_Trait)1>, std::__ndk1::__variant_detail::__base<(std::__ndk1::__variant_detail::__ctor<std::__ndk1::__variant_detail::__traits<ghc::filesystem::path, geode::ModMetadata, ghc::filesystem::path*::Mod> >::__generic_construct[abi:v170000])1, ghc::filesystem, geode, ghc::filesystem::path::Mod>&, std::__ndk1::__variant_detail::__ctor<std::__ndk1::__variant_detail::__traits<ghc::filesystem::path, geode::ModMetadata, ghc::filesystem::path*::Mod> >::__generic_construct[abi:v170000]<std::__ndk1::__variant_detail::__move_constructor<ghc::filesystem::path*::Mod, (std::__ndk1::__variant_detail::_Trait)1> >(std::__ndk1::__variant_detail::__traits<ghc::filesystem::path, geode::ModMetadata, ghc::filesystem::path*::Mod>&, std::__ndk1::__variant_detail::__move_constructor<ghc::filesystem::path*::Mod, (std::__ndk1::__variant_detail::_Trait)1>&&)::{lambda(std::__ndk1::__variant_detail::__move_constructor<ghc::filesystem::path*::Mod, (std::__ndk1::__variant_detail::_Trait)1>&, auto:2&&)#1})
FUNC 274a48 6 0 std::__ndk1::__variant_detail::__visitation::__base::__dispatcher<(unsigned int)2, (unsigned int)2>::__dispatch[abi:v170000]<std::__ndk1::__variant_detail::__ctor<std::__ndk1::__variant_detail::__traits<ghc::filesystem::path, geode::ModMetadata, ghc::filesystem::path*::Mod> >::__generic_construct[abi:v170000]<std::__ndk1::__variant_detail::__move_constructor<ghc::filesystem::path*::Mod, (std::__ndk1::__variant_detail::_Trait)1> >(std::__ndk1::__variant_detail::__traits<ghc::filesystem::path, geode::ModMetadata, ghc::filesystem::path*::Mod>&, std::__ndk1::__variant_detail::__move_constructor<ghc::filesystem::path*::Mod, (std::__ndk1::__variant_detail::_Trait)1>&&)::{lambda(std::__ndk1::__variant_detail::__move_constructor<ghc::filesystem::path*::Mod, (std::__ndk1::__variant_detail::_Trait)1>&, auto:2&&)#1}, std::__ndk1::__variant_detail::__base<(std::__ndk1::__variant_detail::__ctor<std::__ndk1::__variant_detail::__traits<ghc::filesystem::path, geode::ModMetadata, ghc::filesystem::path*::Mod> >::__generic_construct[abi:v170000])1, ghc::filesystem, geode, ghc::filesystem::path::Mod>&, std::__ndk1::__variant_detail::__ctor<std::__ndk1::__variant_detail::__traits<ghc::filesystem::path, geode::ModMetadata, ghc::filesystem::path*::Mod> >::__generic_construct[abi:v170000]<std::__ndk1::__variant_detail::__move_constructor<ghc::filesystem::path*::Mod, (std::__ndk1::__variant_detail::_Trait)1> >(std::__ndk1::__variant_detail::__traits<ghc::filesystem::path, geode::ModMetadata, ghc::filesystem::path*::Mod>&, std::__ndk1::__variant_detail::__move_constructor<ghc::filesystem::path*::Mod, (std::__ndk1::__variant_detail::_Trait)1>&&)::{lambda(std::__ndk1::__variant_detail::__move_constructor<ghc::filesystem::path*::Mod, (std::__ndk1::__variant_detail::_Trait)1>&, auto:2&&)#1}>(std::__ndk1::__variant_detail::__move_constructor<ghc::filesystem::path*::Mod, (std::__ndk1::__variant_detail::_Trait)1>, std::__ndk1::__variant_detail::__base<(std::__ndk1::__variant_detail::__ctor<std::__ndk1::__variant_detail::__traits<ghc::filesystem::path, geode::ModMetadata, ghc::filesystem::path*::Mod> >::__generic_construct[abi:v170000])1, ghc::filesystem, geode, ghc::filesystem::path::Mod>&, std::__ndk1::__variant_detail::__ctor<std::__ndk1::__variant_detail::__traits<ghc::filesystem::path, geode::ModMetadata, ghc::filesystem::path*::Mod> >::__generic_construct[abi:v170000]<std::__ndk1::__variant_detail::__move_constructor<ghc::filesystem::path*::Mod, (std::__ndk1::__variant_detail::_Trait)1> >(std::__ndk1::__variant_detail::__traits<ghc::filesystem::path, geode::ModMetadata, ghc::filesystem::path*::Mod>&, std::__ndk1::__variant_detail::__move_constructor<ghc::filesystem::path*::Mod, (std::__ndk1::__variant_detail::_Trait)1>&&)::{lambda(std::__ndk1::__variant_detail::__move_constructor<ghc::filesystem::path*::Mod, (std::__ndk1::__variant_detail::_Trait)1>&, auto:2&&)#1})
FUNC 274a50 110 0 std::__ndk1::vector<geode::ModMetadata, std::__ndk1::allocator<geode::ModMetadata> >::__push_back_slow_path<geode::ModMetadata const&>(geode::ModMetadata const&)
FUNC 274b60 2a 0 std::__ndk1::__split_buffer<geode::ModMetadata, std::__ndk1::allocator<geode::ModMetadata>&>::~__split_buffer()
FUNC 274b8c 10 0 std::__ndk1::vector<geode::ModMetadata, std::__ndk1::allocator<geode::ModMetadata> >::__throw_length_error[abi:v170000]() const
FUNC 274b9c 10 0 std::__ndk1::vector<geode::Mod*, std::__ndk1::allocator<geode::Mod*> >::__throw_length_error[abi:v170000]() const
FUNC 274bac ac 0 std::__ndk1::__exception_guard<std::__ndk1::vector<geode::LoadProblem, std::__ndk1::allocator<geode::LoadProblem> >::__destroy_vector>::~__exception_guard[abi:v170000]()
FUNC 274c58 94 0 std::__ndk1::__exception_guard<std::__ndk1::_AllocatorDestroyRangeReverse<std::__ndk1::allocator<geode::LoadProblem>, geode::LoadProblem*> >::~__exception_guard[abi:v170000]()
FUNC 274cec 10 0 std::__ndk1::vector<std::__ndk1::pair<geode::Hook*, geode::Mod*>, std::__ndk1::allocator<std::__ndk1::pair<geode::Hook*, geode::Mod*> > >::__throw_length_error[abi:v170000]() const
FUNC 274cfc 174 0 std::__ndk1::vector<geode::utils::MiniFunction<void ()>, std::__ndk1::allocator<geode::utils::MiniFunction<void ()> > >::__push_back_slow_path<geode::utils::MiniFunction<void ()> const&>(geode::utils::MiniFunction<void ()> const&)
FUNC 274e70 30 0 std::__ndk1::__split_buffer<geode::utils::MiniFunction<void ()>, std::__ndk1::allocator<geode::utils::MiniFunction<void ()> >&>::~__split_buffer()
FUNC 274ea0 10 0 std::__ndk1::vector<geode::utils::MiniFunction<void ()>, std::__ndk1::allocator<geode::utils::MiniFunction<void ()> > >::__throw_length_error[abi:v170000]() const
FUNC 274eb0 48 0 std::__ndk1::__exception_guard<std::__ndk1::vector<geode::utils::MiniFunction<void ()>, std::__ndk1::allocator<geode::utils::MiniFunction<void ()> > >::__destroy_vector>::~__exception_guard[abi:v170000]()
FUNC 274ef8 10 0 std::__ndk1::basic_string<char, std::__ndk1::char_traits<char>, std::__ndk1::allocator<char> >::__throw_out_of_range[abi:v170000]() const
FUNC 274f08 2c 0 tulip::hook::lib::bitwizeshift::bad_result_access<std::__ndk1::basic_string<char, std::__ndk1::char_traits<char>, std::__ndk1::allocator<char> > >::~bad_result_access()
FUNC 274f34 30 0 tulip::hook::lib::bitwizeshift::bad_result_access<std::__ndk1::basic_string<char, std::__ndk1::char_traits<char>, std::__ndk1::allocator<char> > >::~bad_result_access()
FUNC 274f64 36c 0 std::__ndk1::__hash_table<std::__ndk1::__hash_value_type<std::__ndk1::basic_string<char, std::__ndk1::char_traits<char>, std::__ndk1::allocator<char> >, std::__ndk1::basic_string<char, std::__ndk1::char_traits<char>, std::__ndk1::allocator<char> > >, std::__ndk1::__unordered_map_hasher<std::__ndk1::basic_string<char, std::__ndk1::char_traits<char>, std::__ndk1::allocator<char> >, std::__ndk1::__hash_value_type<std::__ndk1::basic_string<char, std::__ndk1::char_traits<char>, std::__ndk1::allocator<char> >, std::__ndk1::basic_string<char, std::__ndk1::char_traits<char>, std::__ndk1::allocator<char> > >, std::__ndk1::hash<std::__ndk1::basic_string<char, std::__ndk1::char_traits<char>, std::__ndk1::allocator<char> > >, std::__ndk1::equal_to<std::__ndk1::basic_string<char, std::__ndk1::char_traits<char>, std::__ndk1::allocator<char> > >, true>, std::__ndk1::__unordered_map_equal<std::__ndk1::basic_string<char, std::__ndk1::char_traits<char>, std::__ndk1::allocator<char> >, std::__ndk1::__hash_value_type<std::__ndk1::basic_string<char, std::__ndk1::char_traits<char>, std::__ndk1::allocator<char> >, std::__ndk1::basic_string<char, std::__ndk1::char_traits<char>, std::__ndk1::allocator<char> > >, std::__ndk1::equal_to<std::__ndk1::basic_string<char, std::__ndk1::char_traits<char>, std::__ndk1::allocator<char> > >, std::__ndk1::hash<std::__ndk1::basic_string<char, std::__ndk1::char_traits<char>, std::__ndk1::allocator<char> > >, true>, std::__ndk1::allocator<std::__ndk1::__hash_value_type<std::__ndk1::basic_string<char, std::__ndk1::char_traits<char>, std::__ndk1::allocator<char> >, std::__ndk1::basic_string<char, std::__ndk1::char_traits<char>, std::__ndk1::allocator<char> > > > >::__emplace_unique_key_args<std::__ndk1::basic_string<char, std::__ndk1::char_traits<char>, std::__ndk1::allocator<char> >, std::__ndk1::pair<std::__ndk1::basic_string<char, std::__ndk1::char_traits<char>, std::__ndk1::allocator<char> > const, std::__ndk1::basic_string<char, std::__ndk1::char_traits<char>, std::__ndk1::allocator<char> > > const&>(std::__ndk1::basic_string<char, std::__ndk1::char_traits<char>, std::__ndk1::allocator<char> > const&, std::__ndk1::pair<std::__ndk1::basic_string<char, std::__ndk1::char_traits<char>, std::__ndk1::allocator<char> > const, std::__ndk1::basic_string<char, std::__ndk1::char_traits<char>, std::__ndk1::allocator<char> > > const&)
FUNC 2752d0 34 0 std::__ndk1::unique_ptr<std::__ndk1::__hash_node<std::__ndk1::__hash_value_type<std::__ndk1::basic_string<char, std::__ndk1::char_traits<char>, std::__ndk1::allocator<char> >, std::__ndk1::basic_string<char, std::__ndk1::char_traits<char>, std::__ndk1::allocator<char> > >, void*>, std::__ndk1::__hash_node_destructor<std::__ndk1::allocator<std::__ndk1::__hash_node<std::__ndk1::__hash_value_type<std::__ndk1::basic_string<char, std::__ndk1::char_traits<char>, std::__ndk1::allocator<char> >, std::__ndk1::basic_string<char, std::__ndk1::char_traits<char>, std::__ndk1::allocator<char> > >, void*> > > >::~unique_ptr[abi:v170000]()
FUNC 275304 ca 0 std::__ndk1::pair<std::__ndk1::basic_string<char, std::__ndk1::char_traits<char>, std::__ndk1::allocator<char> > const, std::__ndk1::basic_string<char, std::__ndk1::char_traits<char>, std::__ndk1::allocator<char> > >::pair(std::__ndk1::pair<std::__ndk1::basic_string<char, std::__ndk1::char_traits<char>, std::__ndk1::allocator<char> > const, std::__ndk1::basic_string<char, std::__ndk1::char_traits<char>, std::__ndk1::allocator<char> > > const&)
FUNC 2753ce 10c 0 std::__ndk1::__hash_table<std::__ndk1::__hash_value_type<std::__ndk1::basic_string<char, std::__ndk1::char_traits<char>, std::__ndk1::allocator<char> >, std::__ndk1::basic_string<char, std::__ndk1::char_traits<char>, std::__ndk1::allocator<char> > >, std::__ndk1::__unordered_map_hasher<std::__ndk1::basic_string<char, std::__ndk1::char_traits<char>, std::__ndk1::allocator<char> >, std::__ndk1::__hash_value_type<std::__ndk1::basic_string<char, std::__ndk1::char_traits<char>, std::__ndk1::allocator<char> >, std::__ndk1::basic_string<char, std::__ndk1::char_traits<char>, std::__ndk1::allocator<char> > >, std::__ndk1::hash<std::__ndk1::basic_string<char, std::__ndk1::char_traits<char>, std::__ndk1::allocator<char> > >, std::__ndk1::equal_to<std::__ndk1::basic_string<char, std::__ndk1::char_traits<char>, std::__ndk1::allocator<char> > >, true>, std::__ndk1::__unordered_map_equal<std::__ndk1::basic_string<char, std::__ndk1::char_traits<char>, std::__ndk1::allocator<char> >, std::__ndk1::__hash_value_type<std::__ndk1::basic_string<char, std::__ndk1::char_traits<char>, std::__ndk1::allocator<char> >, std::__ndk1::basic_string<char, std::__ndk1::char_traits<char>, std::__ndk1::allocator<char> > >, std::__ndk1::equal_to<std::__ndk1::basic_string<char, std::__ndk1::char_traits<char>, std::__ndk1::allocator<char> > >, std::__ndk1::hash<std::__ndk1::basic_string<char, std::__ndk1::char_traits<char>, std::__ndk1::allocator<char> > >, true>, std::__ndk1::allocator<std::__ndk1::__hash_value_type<std::__ndk1::basic_string<char, std::__ndk1::char_traits<char>, std::__ndk1::allocator<char> >, std::__ndk1::basic_string<char, std::__ndk1::char_traits<char>, std::__ndk1::allocator<char> > > > >::__do_rehash<true>(unsigned int)
FUNC 2754da 172 0 std::__ndk1::__hash_table<std::__ndk1::__hash_value_type<std::__ndk1::basic_string<char, std::__ndk1::char_traits<char>, std::__ndk1::allocator<char> >, geode::Mod*>, std::__ndk1::__unordered_map_hasher<std::__ndk1::basic_string<char, std::__ndk1::char_traits<char>, std::__ndk1::allocator<char> >, std::__ndk1::__hash_value_type<std::__ndk1::basic_string<char, std::__ndk1::char_traits<char>, std::__ndk1::allocator<char> >, geode::Mod*>, std::__ndk1::hash<std::__ndk1::basic_string<char, std::__ndk1::char_traits<char>, std::__ndk1::allocator<char> > >, std::__ndk1::equal_to<std::__ndk1::basic_string<char, std::__ndk1::char_traits<char>, std::__ndk1::allocator<char> > >, true>, std::__ndk1::__unordered_map_equal<std::__ndk1::basic_string<char, std::__ndk1::char_traits<char>, std::__ndk1::allocator<char> >, std::__ndk1::__hash_value_type<std::__ndk1::basic_string<char, std::__ndk1::char_traits<char>, std::__ndk1::allocator<char> >, geode::Mod*>, std::__ndk1::equal_to<std::__ndk1::basic_string<char, std::__ndk1::char_traits<char>, std::__ndk1::allocator<char> > >, std::__ndk1::hash<std::__ndk1::basic_string<char, std::__ndk1::char_traits<char>, std::__ndk1::allocator<char> > >, true>, std::__ndk1::allocator<std::__ndk1::__hash_value_type<std::__ndk1::basic_string<char, std::__ndk1::char_traits<char>, std::__ndk1::allocator<char> >, geode::Mod*> > >::find<std::__ndk1::basic_string<char, std::__ndk1::char_traits<char>, std::__ndk1::allocator<char> > >(std::__ndk1::basic_string<char, std::__ndk1::char_traits<char>, std::__ndk1::allocator<char> > const&) const
FUNC 27564c 172 0 std::__ndk1::__hash_table<std::__ndk1::__hash_value_type<std::__ndk1::basic_string<char, std::__ndk1::char_traits<char>, std::__ndk1::allocator<char> >, geode::Mod*>, std::__ndk1::__unordered_map_hasher<std::__ndk1::basic_string<char, std::__ndk1::char_traits<char>, std::__ndk1::allocator<char> >, std::__ndk1::__hash_value_type<std::__ndk1::basic_string<char, std::__ndk1::char_traits<char>, std::__ndk1::allocator<char> >, geode::Mod*>, std::__ndk1::hash<std::__ndk1::basic_string<char, std::__ndk1::char_traits<char>, std::__ndk1::allocator<char> > >, std::__ndk1::equal_to<std::__ndk1::basic_string<char, std::__ndk1::char_traits<char>, std::__ndk1::allocator<char> > >, true>, std::__ndk1::__unordered_map_equal<std::__ndk1::basic_string<char, std::__ndk1::char_traits<char>, std::__ndk1::allocator<char> >, std::__ndk1::__hash_value_type<std::__ndk1::basic_string<char, std::__ndk1::char_traits<char>, std::__ndk1::allocator<char> >, geode::Mod*>, std::__ndk1::equal_to<std::__ndk1::basic_string<char, std::__ndk1::char_traits<char>, std::__ndk1::allocator<char> > >, std::__ndk1::hash<std::__ndk1::basic_string<char, std::__ndk1::char_traits<char>, std::__ndk1::allocator<char> > >, true>, std::__ndk1::allocator<std::__ndk1::__hash_value_type<std::__ndk1::basic_string<char, std::__ndk1::char_traits<char>, std::__ndk1::allocator<char> >, geode::Mod*> > >::find<std::__ndk1::basic_string<char, std::__ndk1::char_traits<char>, std::__ndk1::allocator<char> > >(std::__ndk1::basic_string<char, std::__ndk1::char_traits<char>, std::__ndk1::allocator<char> > const&)
FUNC 2757be 136 0 std::__ndk1::__hash_table<std::__ndk1::__hash_value_type<std::__ndk1::basic_string<char, std::__ndk1::char_traits<char>, std::__ndk1::allocator<char> >, geode::Mod*>, std::__ndk1::__unordered_map_hasher<std::__ndk1::basic_string<char, std::__ndk1::char_traits<char>, std::__ndk1::allocator<char> >, std::__ndk1::__hash_value_type<std::__ndk1::basic_string<char, std::__ndk1::char_traits<char>, std::__ndk1::allocator<char> >, geode::Mod*>, std::__ndk1::hash<std::__ndk1::basic_string<char, std::__ndk1::char_traits<char>, std::__ndk1::allocator<char> > >, std::__ndk1::equal_to<std::__ndk1::basic_string<char, std::__ndk1::char_traits<char>, std::__ndk1::allocator<char> > >, true>, std::__ndk1::__unordered_map_equal<std::__ndk1::basic_string<char, std::__ndk1::char_traits<char>, std::__ndk1::allocator<char> >, std::__ndk1::__hash_value_type<std::__ndk1::basic_string<char, std::__ndk1::char_traits<char>, std::__ndk1::allocator<char> >, geode::Mod*>, std::__ndk1::equal_to<std::__ndk1::basic_string<char, std::__ndk1::char_traits<char>, std::__ndk1::allocator<char> > >, std::__ndk1::hash<std::__ndk1::basic_string<char, std::__ndk1::char_traits<char>, std::__ndk1::allocator<char> > >, true>, std::__ndk1::allocator<std::__ndk1::__hash_value_type<std::__ndk1::basic_string<char, std::__ndk1::char_traits<char>, std::__ndk1::allocator<char> >, geode::Mod*> > >::remove(std::__ndk1::__hash_const_iterator<std::__ndk1::__hash_node<std::__ndk1::__hash_value_type<std::__ndk1::basic_string<char, std::__ndk1::char_traits<char>, std::__ndk1::allocator<char> >, geode::Mod*>, void*>*>)
FUNC 2758f4 2a 0 std::__ndk1::unique_ptr<std::__ndk1::__hash_node<std::__ndk1::__hash_value_type<std::__ndk1::basic_string<char, std::__ndk1::char_traits<char>, std::__ndk1::allocator<char> >, geode::Mod*>, void*>, std::__ndk1::__hash_node_destructor<std::__ndk1::allocator<std::__ndk1::__hash_node<std::__ndk1::__hash_value_type<std::__ndk1::basic_string<char, std::__ndk1::char_traits<char>, std::__ndk1::allocator<char> >, geode::Mod*>, void*> > > >::~unique_ptr[abi:v170000]()
FUNC 275920 35c 0 std::__ndk1::__hash_table<std::__ndk1::__hash_value_type<std::__ndk1::basic_string<char, std::__ndk1::char_traits<char>, std::__ndk1::allocator<char> >, geode::Mod*>, std::__ndk1::__unordered_map_hasher<std::__ndk1::basic_string<char, std::__ndk1::char_traits<char>, std::__ndk1::allocator<char> >, std::__ndk1::__hash_value_type<std::__ndk1::basic_string<char, std::__ndk1::char_traits<char>, std::__ndk1::allocator<char> >, geode::Mod*>, std::__ndk1::hash<std::__ndk1::basic_string<char, std::__ndk1::char_traits<char>, std::__ndk1::allocator<char> > >, std::__ndk1::equal_to<std::__ndk1::basic_string<char, std::__ndk1::char_traits<char>, std::__ndk1::allocator<char> > >, true>, std::__ndk1::__unordered_map_equal<std::__ndk1::basic_string<char, std::__ndk1::char_traits<char>, std::__ndk1::allocator<char> >, std::__ndk1::__hash_value_type<std::__ndk1::basic_string<char, std::__ndk1::char_traits<char>, std::__ndk1::allocator<char> >, geode::Mod*>, std::__ndk1::equal_to<std::__ndk1::basic_string<char, std::__ndk1::char_traits<char>, std::__ndk1::allocator<char> > >, std::__ndk1::hash<std::__ndk1::basic_string<char, std::__ndk1::char_traits<char>, std::__ndk1::allocator<char> > >, true>, std::__ndk1::allocator<std::__ndk1::__hash_value_type<std::__ndk1::basic_string<char, std::__ndk1::char_traits<char>, std::__ndk1::allocator<char> >, geode::Mod*> > >::__emplace_unique_key_args<std::__ndk1::basic_string<char, std::__ndk1::char_traits<char>, std::__ndk1::allocator<char> >, std::__ndk1::pair<std::__ndk1::basic_string<char, std::__ndk1::char_traits<char>, std::__ndk1::allocator<char> > const, geode::Mod*> >(std::__ndk1::basic_string<char, std::__ndk1::char_traits<char>, std::__ndk1::allocator<char> > const&, std::__ndk1::pair<std::__ndk1::basic_string<char, std::__ndk1::char_traits<char>, std::__ndk1::allocator<char> > const, geode::Mod*>&&)
FUNC 275c7c 9e 0 std::__ndk1::__hash_table<std::__ndk1::__hash_value_type<std::__ndk1::basic_string<char, std::__ndk1::char_traits<char>, std::__ndk1::allocator<char> >, geode::Mod*>, std::__ndk1::__unordered_map_hasher<std::__ndk1::basic_string<char, std::__ndk1::char_traits<char>, std::__ndk1::allocator<char> >, std::__ndk1::__hash_value_type<std::__ndk1::basic_string<char, std::__ndk1::char_traits<char>, std::__ndk1::allocator<char> >, geode::Mod*>, std::__ndk1::hash<std::__ndk1::basic_string<char, std::__ndk1::char_traits<char>, std::__ndk1::allocator<char> > >, std::__ndk1::equal_to<std::__ndk1::basic_string<char, std::__ndk1::char_traits<char>, std::__ndk1::allocator<char> > >, true>, std::__ndk1::__unordered_map_equal<std::__ndk1::basic_string<char, std::__ndk1::char_traits<char>, std::__ndk1::allocator<char> >, std::__ndk1::__hash_value_type<std::__ndk1::basic_string<char, std::__ndk1::char_traits<char>, std::__ndk1::allocator<char> >, geode::Mod*>, std::__ndk1::equal_to<std::__ndk1::basic_string<char, std::__ndk1::char_traits<char>, std::__ndk1::allocator<char> > >, std::__ndk1::hash<std::__ndk1::basic_string<char, std::__ndk1::char_traits<char>, std::__ndk1::allocator<char> > >, true>, std::__ndk1::allocator<std::__ndk1::__hash_value_type<std::__ndk1::basic_string<char, std::__ndk1::char_traits<char>, std::__ndk1::allocator<char> >, geode::Mod*> > >::__construct_node_hash<std::__ndk1::pair<std::__ndk1::basic_string<char, std::__ndk1::char_traits<char>, std::__ndk1::allocator<char> > const, geode::Mod*>, >(unsigned int, std::__ndk1::pair<std::__ndk1::basic_string<char, std::__ndk1::char_traits<char>, std::__ndk1::allocator<char> > const, geode::Mod*>&&, &&)
FUNC 275d1a 10c 0 std::__ndk1::__hash_table<std::__ndk1::__hash_value_type<std::__ndk1::basic_string<char, std::__ndk1::char_traits<char>, std::__ndk1::allocator<char> >, geode::Mod*>, std::__ndk1::__unordered_map_hasher<std::__ndk1::basic_string<char, std::__ndk1::char_traits<char>, std::__ndk1::allocator<char> >, std::__ndk1::__hash_value_type<std::__ndk1::basic_string<char, std::__ndk1::char_traits<char>, std::__ndk1::allocator<char> >, geode::Mod*>, std::__ndk1::hash<std::__ndk1::basic_string<char, std::__ndk1::char_traits<char>, std::__ndk1::allocator<char> > >, std::__ndk1::equal_to<std::__ndk1::basic_string<char, std::__ndk1::char_traits<char>, std::__ndk1::allocator<char> > >, true>, std::__ndk1::__unordered_map_equal<std::__ndk1::basic_string<char, std::__ndk1::char_traits<char>, std::__ndk1::allocator<char> >, std::__ndk1::__hash_value_type<std::__ndk1::basic_string<char, std::__ndk1::char_traits<char>, std::__ndk1::allocator<char> >, geode::Mod*>, std::__ndk1::equal_to<std::__ndk1::basic_string<char, std::__ndk1::char_traits<char>, std::__ndk1::allocator<char> > >, std::__ndk1::hash<std::__ndk1::basic_string<char, std::__ndk1::char_traits<char>, std::__ndk1::allocator<char> > >, true>, std::__ndk1::allocator<std::__ndk1::__hash_value_type<std::__ndk1::basic_string<char, std::__ndk1::char_traits<char>, std::__ndk1::allocator<char> >, geode::Mod*> > >::__do_rehash<true>(unsigned int)
FUNC 275e28 364 0 std::__ndk1::__hash_table<std::__ndk1::__hash_value_type<std::__ndk1::basic_string<char, std::__ndk1::char_traits<char>, std::__ndk1::allocator<char> >, geode::Mod*>, std::__ndk1::__unordered_map_hasher<std::__ndk1::basic_string<char, std::__ndk1::char_traits<char>, std::__ndk1::allocator<char> >, std::__ndk1::__hash_value_type<std::__ndk1::basic_string<char, std::__ndk1::char_traits<char>, std::__ndk1::allocator<char> >, geode::Mod*>, std::__ndk1::hash<std::__ndk1::basic_string<char, std::__ndk1::char_traits<char>, std::__ndk1::allocator<char> > >, std::__ndk1::equal_to<std::__ndk1::basic_string<char, std::__ndk1::char_traits<char>, std::__ndk1::allocator<char> > >, true>, std::__ndk1::__unordered_map_equal<std::__ndk1::basic_string<char, std::__ndk1::char_traits<char>, std::__ndk1::allocator<char> >, std::__ndk1::__hash_value_type<std::__ndk1::basic_string<char, std::__ndk1::char_traits<char>, std::__ndk1::allocator<char> >, geode::Mod*>, std::__ndk1::equal_to<std::__ndk1::basic_string<char, std::__ndk1::char_traits<char>, std::__ndk1::allocator<char> > >, std::__ndk1::hash<std::__ndk1::basic_string<char, std::__ndk1::char_traits<char>, std::__ndk1::allocator<char> > >, true>, std::__ndk1::allocator<std::__ndk1::__hash_value_type<std::__ndk1::basic_string<char, std::__ndk1::char_traits<char>, std::__ndk1::allocator<char> >, geode::Mod*> > >::__emplace_unique_key_args<std::__ndk1::basic_string<char, std::__ndk1::char_traits<char>, std::__ndk1::allocator<char> >, std::__ndk1::piecewise_construct_t const&, std::__ndk1::tuple<std::__ndk1::basic_string<char, std::__ndk1::char_traits<char>, std::__ndk1::allocator<char> > const&>, std::__ndk1::tuple<> >(std::__ndk1::basic_string<char, std::__ndk1::char_traits<char>, std::__ndk1::allocator<char> > const&, std::__ndk1::piecewise_construct_t const&, std::__ndk1::tuple<std::__ndk1::basic_string<char, std::__ndk1::char_traits<char>, std::__ndk1::allocator<char> > const&>, std::__ndk1::tuple<>)
FUNC 27618c 96 0 std::__ndk1::__hash_table<std::__ndk1::__hash_value_type<std::__ndk1::basic_string<char, std::__ndk1::char_traits<char>, std::__ndk1::allocator<char> >, geode::Mod*>, std::__ndk1::__unordered_map_hasher<std::__ndk1::basic_string<char, std::__ndk1::char_traits<char>, std::__ndk1::allocator<char> >, std::__ndk1::__hash_value_type<std::__ndk1::basic_string<char, std::__ndk1::char_traits<char>, std::__ndk1::allocator<char> >, geode::Mod*>, std::__ndk1::hash<std::__ndk1::basic_string<char, std::__ndk1::char_traits<char>, std::__ndk1::allocator<char> > >, std::__ndk1::equal_to<std::__ndk1::basic_string<char, std::__ndk1::char_traits<char>, std::__ndk1::allocator<char> > >, true>, std::__ndk1::__unordered_map_equal<std::__ndk1::basic_string<char, std::__ndk1::char_traits<char>, std::__ndk1::allocator<char> >, std::__ndk1::__hash_value_type<std::__ndk1::basic_string<char, std::__ndk1::char_traits<char>, std::__ndk1::allocator<char> >, geode::Mod*>, std::__ndk1::equal_to<std::__ndk1::basic_string<char, std::__ndk1::char_traits<char>, std::__ndk1::allocator<char> > >, std::__ndk1::hash<std::__ndk1::basic_string<char, std::__ndk1::char_traits<char>, std::__ndk1::allocator<char> > >, true>, std::__ndk1::allocator<std::__ndk1::__hash_value_type<std::__ndk1::basic_string<char, std::__ndk1::char_traits<char>, std::__ndk1::allocator<char> >, geode::Mod*> > >::__construct_node_hash<std::__ndk1::piecewise_construct_t const&, std::__ndk1::tuple<std::__ndk1::basic_string<char, std::__ndk1::char_traits<char>, std::__ndk1::allocator<char> > const&>, std::__ndk1::tuple<> >(unsigned int, std::__ndk1::piecewise_construct_t const&, std::__ndk1::tuple<std::__ndk1::basic_string<char, std::__ndk1::char_traits<char>, std::__ndk1::allocator<char> > const&>&&, std::__ndk1::tuple<>)
FUNC 276224 344 0 std::__ndk1::deque<geode::Mod*, std::__ndk1::allocator<geode::Mod*> >::__add_back_capacity()
FUNC 276568 100 0 std::__ndk1::__split_buffer<geode::Mod**, std::__ndk1::allocator<geode::Mod**> >::push_back(geode::Mod**&&)
FUNC 276668 10c 0 std::__ndk1::__split_buffer<geode::Mod**, std::__ndk1::allocator<geode::Mod**> >::push_front(geode::Mod**&&)
FUNC 276774 10c 0 std::__ndk1::__split_buffer<geode::Mod**, std::__ndk1::allocator<geode::Mod**>&>::push_front(geode::Mod** const&)
FUNC 276880 27c 0 std::__ndk1::deque<geode::Mod*, std::__ndk1::allocator<geode::Mod*> >::__add_front_capacity()
FUNC 276afc 10c 0 std::__ndk1::__split_buffer<geode::Mod**, std::__ndk1::allocator<geode::Mod**> >::push_front(geode::Mod** const&)
FUNC 276c08 508 0 std::__ndk1::__thread_proxy[abi:v170000]<std::__ndk1::tuple<std::__ndk1::unique_ptr<std::__ndk1::__thread_struct, std::__ndk1::default_delete<std::__ndk1::unique_ptr> >, geode::Loader::Impl::loadModGraph(std::__ndk1::unique_ptr<std::__ndk1::__thread_struct, std::__ndk1::default_delete<std::__ndk1::unique_ptr> >*::Mod, bool)::$_0> >(std::__ndk1::tuple<std::__ndk1::unique_ptr<std::__ndk1::__thread_struct, std::__ndk1::default_delete<std::__ndk1::unique_ptr> >, geode::Loader::Impl::loadModGraph(std::__ndk1::unique_ptr<std::__ndk1::__thread_struct, std::__ndk1::default_delete<std::__ndk1::unique_ptr> >*::Mod, bool)::$_0>)
FUNC 277110 5c 0 std::__ndk1::unique_ptr<std::__ndk1::tuple<std::__ndk1::unique_ptr<std::__ndk1::__thread_struct, std::__ndk1::default_delete<std::__ndk1::__thread_struct> >, geode::Loader::Impl::loadModGraph(geode::Mod*, bool)::$_0>, std::__ndk1::default_delete<std::__ndk1::tuple<std::__ndk1::unique_ptr<std::__ndk1::__thread_struct, std::__ndk1::default_delete<std::__ndk1::__thread_struct> >, geode::Loader::Impl::loadModGraph(geode::Mod*, bool)::$_0> > >::~unique_ptr[abi:v170000]()
FUNC 27716c 82 0 cpp::bitwizeshift::detail::result_trivial_move_ctor_base_impl<std::__ndk1::monostate, std::__ndk1::basic_string<char, std::__ndk1::char_traits<char>, std::__ndk1::allocator<char> > >::result_trivial_move_ctor_base_impl(cpp::bitwizeshift::detail::result_trivial_move_ctor_base_impl<std::__ndk1::monostate, std::__ndk1::basic_string<char, std::__ndk1::char_traits<char>, std::__ndk1::allocator<char> > > const&)
FUNC 2771ee 4a 0 geode::utils::MiniFunctionState<geode::Loader::Impl::loadModGraph(geode::Mod*, bool)::$_0::operator()() const::{lambda()#1}, void, >::~MiniFunctionState()
FUNC 277238 4c 0 geode::utils::MiniFunctionState<geode::Loader::Impl::loadModGraph(geode::Mod*, bool)::$_0::operator()() const::{lambda()#1}, void, >::~MiniFunctionState()
FUNC 277284 278 0 geode::utils::MiniFunctionState<geode::Loader::Impl::loadModGraph(geode::Mod*, bool)::$_0::operator()() const::{lambda()#1}, void, >::call() const
FUNC 2774fc 7c 0 geode::utils::MiniFunctionState<geode::Loader::Impl::loadModGraph(geode::Mod*, bool)::$_0::operator()() const::{lambda()#1}, void, >::clone() const
FUNC 277578 90 0 fmt::v10::detail::value<fmt::v10::basic_format_context<fmt::v10::appender, char> >::format_custom_arg<geode::ComparableVersionInfo, fmt::v10::formatter<geode::ComparableVersionInfo, char, void> >(void*, fmt::v10::basic_format_parse_context<char>&, fmt::v10::basic_format_context<fmt::v10::appender, char>&)
FUNC 277608 e8 0 fmt::v10::formatter<geode::ComparableVersionInfo, char, void>::format<fmt::v10::basic_format_context<fmt::v10::appender, char> >(geode::ComparableVersionInfo const&, fmt::v10::basic_format_context<fmt::v10::appender, char>&) const
FUNC 2776f0 4 0 geode::utils::MiniFunctionState<geode::Loader::Impl::refreshModGraph()::$_0, void, >::~MiniFunctionState()
FUNC 2776f4 6 0 geode::utils::MiniFunctionState<geode::Loader::Impl::refreshModGraph()::$_0, void, >::call() const
FUNC 2776fc 20 0 geode::utils::MiniFunctionState<geode::Loader::Impl::refreshModGraph()::$_0, void, >::clone() const
FUNC 27771c 4 0 geode::utils::MiniFunctionState<geode::Loader::Impl::continueRefreshModGraph()::$_0, void, >::~MiniFunctionState()
FUNC 277720 6 0 geode::utils::MiniFunctionState<geode::Loader::Impl::continueRefreshModGraph()::$_0, void, >::call() const
FUNC 277728 20 0 geode::utils::MiniFunctionState<geode::Loader::Impl::continueRefreshModGraph()::$_0, void, >::clone() const
FUNC 277748 4 0 geode::utils::MiniFunctionState<geode::Loader::Impl::continueRefreshModGraph()::$_1, void, >::~MiniFunctionState()
FUNC 27774c 6 0 geode::utils::MiniFunctionState<geode::Loader::Impl::continueRefreshModGraph()::$_1, void, >::call() const
FUNC 277754 20 0 geode::utils::MiniFunctionState<geode::Loader::Impl::continueRefreshModGraph()::$_1, void, >::clone() const
FUNC 277774 35c 0 std::__ndk1::__hash_table<std::__ndk1::__hash_value_type<std::__ndk1::basic_string<char, std::__ndk1::char_traits<char>, std::__ndk1::allocator<char> >, std::__ndk1::basic_string<char, std::__ndk1::char_traits<char>, std::__ndk1::allocator<char> > >, std::__ndk1::__unordered_map_hasher<std::__ndk1::basic_string<char, std::__ndk1::char_traits<char>, std::__ndk1::allocator<char> >, std::__ndk1::__hash_value_type<std::__ndk1::basic_string<char, std::__ndk1::char_traits<char>, std::__ndk1::allocator<char> >, std::__ndk1::basic_string<char, std::__ndk1::char_traits<char>, std::__ndk1::allocator<char> > >, std::__ndk1::hash<std::__ndk1::basic_string<char, std::__ndk1::char_traits<char>, std::__ndk1::allocator<char> > >, std::__ndk1::equal_to<std::__ndk1::basic_string<char, std::__ndk1::char_traits<char>, std::__ndk1::allocator<char> > >, true>, std::__ndk1::__unordered_map_equal<std::__ndk1::basic_string<char, std::__ndk1::char_traits<char>, std::__ndk1::allocator<char> >, std::__ndk1::__hash_value_type<std::__ndk1::basic_string<char, std::__ndk1::char_traits<char>, std::__ndk1::allocator<char> >, std::__ndk1::basic_string<char, std::__ndk1::char_traits<char>, std::__ndk1::allocator<char> > >, std::__ndk1::equal_to<std::__ndk1::basic_string<char, std::__ndk1::char_traits<char>, std::__ndk1::allocator<char> > >, std::__ndk1::hash<std::__ndk1::basic_string<char, std::__ndk1::char_traits<char>, std::__ndk1::allocator<char> > >, true>, std::__ndk1::allocator<std::__ndk1::__hash_value_type<std::__ndk1::basic_string<char, std::__ndk1::char_traits<char>, std::__ndk1::allocator<char> >, std::__ndk1::basic_string<char, std::__ndk1::char_traits<char>, std::__ndk1::allocator<char> > > > >::__emplace_unique_key_args<std::__ndk1::basic_string<char, std::__ndk1::char_traits<char>, std::__ndk1::allocator<char> >, std::__ndk1::pair<std::__ndk1::basic_string<char, std::__ndk1::char_traits<char>, std::__ndk1::allocator<char> > const, std::__ndk1::basic_string<char, std::__ndk1::char_traits<char>, std::__ndk1::allocator<char> > > >(std::__ndk1::basic_string<char, std::__ndk1::char_traits<char>, std::__ndk1::allocator<char> > const&, std::__ndk1::pair<std::__ndk1::basic_string<char, std::__ndk1::char_traits<char>, std::__ndk1::allocator<char> > const, std::__ndk1::basic_string<char, std::__ndk1::char_traits<char>, std::__ndk1::allocator<char> > >&&)
FUNC 277ad0 ac 0 std::__ndk1::__hash_table<std::__ndk1::__hash_value_type<std::__ndk1::basic_string<char, std::__ndk1::char_traits<char>, std::__ndk1::allocator<char> >, std::__ndk1::basic_string<char, std::__ndk1::char_traits<char>, std::__ndk1::allocator<char> > >, std::__ndk1::__unordered_map_hasher<std::__ndk1::basic_string<char, std::__ndk1::char_traits<char>, std::__ndk1::allocator<char> >, std::__ndk1::__hash_value_type<std::__ndk1::basic_string<char, std::__ndk1::char_traits<char>, std::__ndk1::allocator<char> >, std::__ndk1::basic_string<char, std::__ndk1::char_traits<char>, std::__ndk1::allocator<char> > >, std::__ndk1::hash<std::__ndk1::basic_string<char, std::__ndk1::char_traits<char>, std::__ndk1::allocator<char> > >, std::__ndk1::equal_to<std::__ndk1::basic_string<char, std::__ndk1::char_traits<char>, std::__ndk1::allocator<char> > >, true>, std::__ndk1::__unordered_map_equal<std::__ndk1::basic_string<char, std::__ndk1::char_traits<char>, std::__ndk1::allocator<char> >, std::__ndk1::__hash_value_type<std::__ndk1::basic_string<char, std::__ndk1::char_traits<char>, std::__ndk1::allocator<char> >, std::__ndk1::basic_string<char, std::__ndk1::char_traits<char>, std::__ndk1::allocator<char> > >, std::__ndk1::equal_to<std::__ndk1::basic_string<char, std::__ndk1::char_traits<char>, std::__ndk1::allocator<char> > >, std::__ndk1::hash<std::__ndk1::basic_string<char, std::__ndk1::char_traits<char>, std::__ndk1::allocator<char> > >, true>, std::__ndk1::allocator<std::__ndk1::__hash_value_type<std::__ndk1::basic_string<char, std::__ndk1::char_traits<char>, std::__ndk1::allocator<char> >, std::__ndk1::basic_string<char, std::__ndk1::char_traits<char>, std::__ndk1::allocator<char> > > > >::__construct_node_hash<std::__ndk1::pair<std::__ndk1::basic_string<char, std::__ndk1::char_traits<char>, std::__ndk1::allocator<char> > const, std::__ndk1::basic_string<char, std::__ndk1::char_traits<char>, std::__ndk1::allocator<char> > >, >(unsigned int, std::__ndk1::pair<std::__ndk1::basic_string<char, std::__ndk1::char_traits<char>, std::__ndk1::allocator<char> > const, std::__ndk1::basic_string<char, std::__ndk1::char_traits<char>, std::__ndk1::allocator<char> > >&&, &&)
FUNC 277b7c 172 0 std::__ndk1::__hash_table<std::__ndk1::__hash_value_type<std::__ndk1::basic_string<char, std::__ndk1::char_traits<char>, std::__ndk1::allocator<char> >, std::__ndk1::basic_string<char, std::__ndk1::char_traits<char>, std::__ndk1::allocator<char> > >, std::__ndk1::__unordered_map_hasher<std::__ndk1::basic_string<char, std::__ndk1::char_traits<char>, std::__ndk1::allocator<char> >, std::__ndk1::__hash_value_type<std::__ndk1::basic_string<char, std::__ndk1::char_traits<char>, std::__ndk1::allocator<char> >, std::__ndk1::basic_string<char, std::__ndk1::char_traits<char>, std::__ndk1::allocator<char> > >, std::__ndk1::hash<std::__ndk1::basic_string<char, std::__ndk1::char_traits<char>, std::__ndk1::allocator<char> > >, std::__ndk1::equal_to<std::__ndk1::basic_string<char, std::__ndk1::char_traits<char>, std::__ndk1::allocator<char> > >, true>, std::__ndk1::__unordered_map_equal<std::__ndk1::basic_string<char, std::__ndk1::char_traits<char>, std::__ndk1::allocator<char> >, std::__ndk1::__hash_value_type<std::__ndk1::basic_string<char, std::__ndk1::char_traits<char>, std::__ndk1::allocator<char> >, std::__ndk1::basic_string<char, std::__ndk1::char_traits<char>, std::__ndk1::allocator<char> > >, std::__ndk1::equal_to<std::__ndk1::basic_string<char, std::__ndk1::char_traits<char>, std::__ndk1::allocator<char> > >, std::__ndk1::hash<std::__ndk1::basic_string<char, std::__ndk1::char_traits<char>, std::__ndk1::allocator<char> > >, true>, std::__ndk1::allocator<std::__ndk1::__hash_value_type<std::__ndk1::basic_string<char, std::__ndk1::char_traits<char>, std::__ndk1::allocator<char> >, std::__ndk1::basic_string<char, std::__ndk1::char_traits<char>, std::__ndk1::allocator<char> > > > >::find<std::__ndk1::basic_string<char, std::__ndk1::char_traits<char>, std::__ndk1::allocator<char> > >(std::__ndk1::basic_string<char, std::__ndk1::char_traits<char>, std::__ndk1::allocator<char> > const&) const
FUNC 277cee 288 0 std::__ndk1::__hash_table<std::__ndk1::__hash_value_type<void*, unsigned int>, std::__ndk1::__unordered_map_hasher<void*, std::__ndk1::__hash_value_type<void*, unsigned int>, std::__ndk1::hash<void*>, std::__ndk1::equal_to<void*>, true>, std::__ndk1::__unordered_map_equal<void*, std::__ndk1::__hash_value_type<void*, unsigned int>, std::__ndk1::equal_to<void*>, std::__ndk1::hash<void*>, true>, std::__ndk1::allocator<std::__ndk1::__hash_value_type<void*, unsigned int> > >::__emplace_unique_key_args<void*, std::__ndk1::piecewise_construct_t const&, std::__ndk1::tuple<void* const&>, std::__ndk1::tuple<> >(void* const&, std::__ndk1::piecewise_construct_t const&, std::__ndk1::tuple<void* const&>, std::__ndk1::tuple<>)
FUNC 277f76 10c 0 std::__ndk1::__hash_table<std::__ndk1::__hash_value_type<void*, unsigned int>, std::__ndk1::__unordered_map_hasher<void*, std::__ndk1::__hash_value_type<void*, unsigned int>, std::__ndk1::hash<void*>, std::__ndk1::equal_to<void*>, true>, std::__ndk1::__unordered_map_equal<void*, std::__ndk1::__hash_value_type<void*, unsigned int>, std::__ndk1::equal_to<void*>, std::__ndk1::hash<void*>, true>, std::__ndk1::allocator<std::__ndk1::__hash_value_type<void*, unsigned int> > >::__do_rehash<true>(unsigned int)
FUNC 278084 1f8 0 _GLOBAL__sub_I_LoaderImpl.cpp
FUNC 27827c cc 0 geode::format_as(geode::Mod*)
FUNC 278348 8c 0 geode::format_as(cocos2d::CCObject const*)
FUNC 2783d4 ac 0 geode::format_as(cocos2d::CCNode*)
FUNC 278480 1e0 0 geode::format_as(cocos2d::CCArray*)
FUNC 278660 54 0 cocos2d::format_as(cocos2d::CCPoint const&)
FUNC 2786b4 54 0 cocos2d::format_as(cocos2d::CCSize const&)
FUNC 278708 70 0 cocos2d::format_as(cocos2d::CCRect const&)
FUNC 278778 78 0 cocos2d::format_as(cocos2d::_ccColor3B const&)
FUNC 2787f0 88 0 cocos2d::format_as(cocos2d::_ccColor4B const&)
FUNC 278878 178 0 geode::log::vlogImpl(geode::Severity, geode::Mod*, fmt::v10::basic_string_view<char>, fmt::v10::basic_format_args<fmt::v10::basic_format_context<fmt::v10::appender, char> >)
FUNC 2789f0 78 0 geode::log::Logger::get()
FUNC 278a68 1f8 0 geode::log::Logger::push(geode::Severity, std::__ndk1::basic_string<char, std::__ndk1::char_traits<char>, std::__ndk1::allocator<char> >&&, std::__ndk1::basic_string<char, std::__ndk1::char_traits<char>, std::__ndk1::allocator<char> >&&, int, std::__ndk1::basic_string<char, std::__ndk1::char_traits<char>, std::__ndk1::allocator<char> >&&)
FUNC 278c60 146 0 geode::log::Log::Log(geode::Severity, std::__ndk1::basic_string<char, std::__ndk1::char_traits<char>, std::__ndk1::allocator<char> >&&, std::__ndk1::basic_string<char, std::__ndk1::char_traits<char>, std::__ndk1::allocator<char> >&&, int, std::__ndk1::basic_string<char, std::__ndk1::char_traits<char>, std::__ndk1::allocator<char> >&&)
FUNC 278da6 30 0 geode::log::Log::~Log()
FUNC 278dd8 5a8 0 geode::log::Log::toString() const
FUNC 279380 9c 0 convertTime<std::__ndk1::chrono::time_point<std::__ndk1::chrono::system_clock, std::__ndk1::chrono::duration<long long, std::__ndk1::ratio<(long long)1, (long long)1000000> > > >(std::__ndk1::chrono::time_point<std::__ndk1::chrono::system_clock, std::__ndk1::chrono::duration<long long, std::__ndk1::ratio<(long long)1, (long long)1000000> > >)
FUNC 27941c 4 0 geode::log::Log::getSeverity() const
FUNC 279420 8c 0 geode::log::Logger::Logger()
FUNC 2794ac 70 0 geode::log::Logger::~Logger()
FUNC 27951c 1b4 0 geode::log::Logger::setup()
FUNC 2796d0 70 0 geode::log::generateLogName()
FUNC 279740 ac 0 std::__ndk1::basic_ofstream<char, std::__ndk1::char_traits<char> >::basic_ofstream(std::__ndk1::basic_string<char, std::__ndk1::char_traits<char>, std::__ndk1::allocator<char> > const&, unsigned int)
FUNC 2797ec 5c 0 getLogMutex()
FUNC 279848 10 0 geode::log::Nest::Nest(std::__ndk1::shared_ptr<geode::log::Nest::Impl>)
FUNC 279858 6 0 geode::log::Nest::Impl::Impl(int, int)
FUNC 27985e 2 0 geode::log::Logger::list()
FUNC 279860 90 0 geode::log::Logger::clear()
FUNC 2798f0 b4 0 geode::log::pushNest(geode::Mod*)
FUNC 2799a4 2c 0 geode::log::popNest(geode::Mod*)
FUNC 2799d0 e4 0 geode::log::saveNest()
FUNC 279ab4 3a 0 std::__ndk1::shared_ptr<geode::log::Nest::Impl>::~shared_ptr[abi:v170000]()
FUNC 279af0 2c 0 geode::log::loadNest(std::__ndk1::shared_ptr<geode::log::Nest> const&)
FUNC 279b1c 18 0 fmt::v10::format_error::runtime_error(char const*)
FUNC 279b34 10 0 fmt::v10::format_error::~format_error()
FUNC 279b44 32 0 std::__ndk1::vector<geode::log::Log, std::__ndk1::allocator<geode::log::Log> >::~vector[abi:v170000]()
FUNC 279b76 138 0 std::__ndk1::vector<geode::log::Log, std::__ndk1::allocator<geode::log::Log> >::__emplace_back_slow_path<geode::Severity&, std::__ndk1::basic_string<char, std::__ndk1::char_traits<char>, std::__ndk1::allocator<char> >, std::__ndk1::basic_string<char, std::__ndk1::char_traits<char>, std::__ndk1::allocator<char> >, int&, std::__ndk1::basic_string<char, std::__ndk1::char_traits<char>, std::__ndk1::allocator<char> > >(geode::Severity&, std::__ndk1::basic_string<char, std::__ndk1::char_traits<char>, std::__ndk1::allocator<char> >, std::__ndk1::basic_string<char, std::__ndk1::char_traits<char>, std::__ndk1::allocator<char> >, int&, std::__ndk1::basic_string<char, std::__ndk1::char_traits<char>, std::__ndk1::allocator<char> >)
FUNC 279cb0 10 0 std::__ndk1::vector<geode::log::Log, std::__ndk1::allocator<geode::log::Log> >::__throw_length_error[abi:v170000]() const
FUNC 279cc0 158 0 geode::log::Log::Log(geode::log::Log const&)
FUNC 279e18 90 0 fmt::v10::detail::value<fmt::v10::basic_format_context<fmt::v10::appender, char> >::format_custom_arg<cocos2d::CCPoint, fmt::v10::formatter<cocos2d::CCPoint, char, void> >(void*, fmt::v10::basic_format_parse_context<char>&, fmt::v10::basic_format_context<fmt::v10::appender, char>&)
FUNC 279ea8 104 0 fmt::v10::formatter<cocos2d::CCPoint, char, void>::format<fmt::v10::basic_format_context<fmt::v10::appender, char> >(cocos2d::CCPoint const&, fmt::v10::basic_format_context<fmt::v10::appender, char>&) const
FUNC 279fac 90 0 fmt::v10::detail::value<fmt::v10::basic_format_context<fmt::v10::appender, char> >::format_custom_arg<cocos2d::CCSize, fmt::v10::formatter<cocos2d::CCSize, char, void> >(void*, fmt::v10::basic_format_parse_context<char>&, fmt::v10::basic_format_context<fmt::v10::appender, char>&)
FUNC 27a03c 104 0 fmt::v10::formatter<cocos2d::CCSize, char, void>::format<fmt::v10::basic_format_context<fmt::v10::appender, char> >(cocos2d::CCSize const&, fmt::v10::basic_format_context<fmt::v10::appender, char>&) const
FUNC 27a140 d4 0 fmt::v10::detail::value<fmt::v10::basic_format_context<fmt::v10::appender, char> >::format_custom_arg<tm, fmt::v10::formatter<tm, char, void> >(void*, fmt::v10::basic_format_parse_context<char>&, fmt::v10::basic_format_context<fmt::v10::appender, char>&)
FUNC 27a214 104 0 fmt::v10::detail::parse_align<char>(char const*, char const*, fmt::v10::format_specs<char>&)
FUNC 27a318 2dc 0 fmt::v10::detail::parse_chrono_format<char, fmt::v10::detail::tm_format_checker>(char const*, char const*, fmt::v10::detail::tm_format_checker&&)
FUNC 27a5f4 3c 0 fmt::v10::detail::tm_format_checker::unsupported()
FUNC 27a630 19c 0 fmt::v10::formatter<tm, char, void>::do_format<fmt::v10::basic_format_context<fmt::v10::appender, char>, std::__ndk1::chrono::duration<long long, std::__ndk1::ratio<(long long)1, (long long)1> > >(tm const&, fmt::v10::basic_format_context<fmt::v10::appender, char>&, std::__ndk1::chrono::duration<long long, std::__ndk1::ratio<(long long)1, (long long)1> > const*) const
FUNC 27a7cc bac 0 fmt::v10::detail::parse_chrono_format<char, fmt::v10::detail::tm_writer<std::__ndk1::back_insert_iterator<fmt::v10::basic_memory_buffer<char, (unsigned int)500, std::__ndk1::allocator<char> > >, char, std::__ndk1::chrono::duration<long long, std::__ndk1::ratio<(long long)1, (long long)1> > >&>(char const*, char const*, fmt::v10::detail::tm_writer<std::__ndk1::back_insert_iterator<fmt::v10::basic_memory_buffer<char, (unsigned int)500, std::__ndk1::allocator<char> > >, char, std::__ndk1::chrono::duration<long long, std::__ndk1::ratio<(long long)1, (long long)1> > >&)
FUNC 27b378 98 0 fmt::v10::basic_memory_buffer<char, (unsigned int)500, std::__ndk1::allocator<char> >::grow(unsigned int)
FUNC 27b410 26 0 fmt::v10::detail::tm_writer<std::__ndk1::back_insert_iterator<fmt::v10::basic_memory_buffer<char, (unsigned int)500, std::__ndk1::allocator<char> > >, char, std::__ndk1::chrono::duration<long long, std::__ndk1::ratio<(long long)1, (long long)1> > >::on_year(fmt::v10::detail::numeric_system)
FUNC 27b438 a8 0 fmt::v10::detail::tm_writer<std::__ndk1::back_insert_iterator<fmt::v10::basic_memory_buffer<char, (unsigned int)500, std::__ndk1::allocator<char> > >, char, std::__ndk1::chrono::duration<long long, std::__ndk1::ratio<(long long)1, (long long)1> > >::on_short_year(fmt::v10::detail::numeric_system)
FUNC 27b4e0 130 0 fmt::v10::detail::tm_writer<std::__ndk1::back_insert_iterator<fmt::v10::basic_memory_buffer<char, (unsigned int)500, std::__ndk1::allocator<char> > >, char, std::__ndk1::chrono::duration<long long, std::__ndk1::ratio<(long long)1, (long long)1> > >::on_century(fmt::v10::detail::numeric_system)
FUNC 27b610 1b8 0 fmt::v10::detail::tm_writer<std::__ndk1::back_insert_iterator<fmt::v10::basic_memory_buffer<char, (unsigned int)500, std::__ndk1::allocator<char> > >, char, std::__ndk1::chrono::duration<long long, std::__ndk1::ratio<(long long)1, (long long)1> > >::on_iso_week_based_short_year()
FUNC 27b7c8 54 0 fmt::v10::detail::tm_writer<std::__ndk1::back_insert_iterator<fmt::v10::basic_memory_buffer<char, (unsigned int)500, std::__ndk1::allocator<char> > >, char, std::__ndk1::chrono::duration<long long, std::__ndk1::ratio<(long long)1, (long long)1> > >::on_dec0_weekday(fmt::v10::detail::numeric_system)
FUNC 27b81c 5c 0 fmt::v10::detail::tm_writer<std::__ndk1::back_insert_iterator<fmt::v10::basic_memory_buffer<char, (unsigned int)500, std::__ndk1::allocator<char> > >, char, std::__ndk1::chrono::duration<long long, std::__ndk1::ratio<(long long)1, (long long)1> > >::on_dec1_weekday(fmt::v10::detail::numeric_system)
FUNC 27b878 90 0 fmt::v10::detail::tm_writer<std::__ndk1::back_insert_iterator<fmt::v10::basic_memory_buffer<char, (unsigned int)500, std::__ndk1::allocator<char> > >, char, std::__ndk1::chrono::duration<long long, std::__ndk1::ratio<(long long)1, (long long)1> > >::on_dec_month(fmt::v10::detail::numeric_system)
FUNC 27b908 a4 0 fmt::v10::detail::tm_writer<std::__ndk1::back_insert_iterator<fmt::v10::basic_memory_buffer<char, (unsigned int)500, std::__ndk1::allocator<char> > >, char, std::__ndk1::chrono::duration<long long, std::__ndk1::ratio<(long long)1, (long long)1> > >::on_dec0_week_of_year(fmt::v10::detail::numeric_system)
FUNC 27b9ac b0 0 fmt::v10::detail::tm_writer<std::__ndk1::back_insert_iterator<fmt::v10::basic_memory_buffer<char, (unsigned int)500, std::__ndk1::allocator<char> > >, char, std::__ndk1::chrono::duration<long long, std::__ndk1::ratio<(long long)1, (long long)1> > >::on_dec1_week_of_year(fmt::v10::detail::numeric_system)
FUNC 27ba5c 90 0 fmt::v10::detail::tm_writer<std::__ndk1::back_insert_iterator<fmt::v10::basic_memory_buffer<char, (unsigned int)500, std::__ndk1::allocator<char> > >, char, std::__ndk1::chrono::duration<long long, std::__ndk1::ratio<(long long)1, (long long)1> > >::on_iso_week_of_year(fmt::v10::detail::numeric_system)
FUNC 27baec c4 0 fmt::v10::detail::tm_writer<std::__ndk1::back_insert_iterator<fmt::v10::basic_memory_buffer<char, (unsigned int)500, std::__ndk1::allocator<char> > >, char, std::__ndk1::chrono::duration<long long, std::__ndk1::ratio<(long long)1, (long long)1> > >::on_day_of_year()
FUNC 27bbb0 8c 0 fmt::v10::detail::tm_writer<std::__ndk1::back_insert_iterator<fmt::v10::basic_memory_buffer<char, (unsigned int)500, std::__ndk1::allocator<char> > >, char, std::__ndk1::chrono::duration<long long, std::__ndk1::ratio<(long long)1, (long long)1> > >::on_day_of_month(fmt::v10::detail::numeric_system)
FUNC 27bc3c 98 0 fmt::v10::detail::tm_writer<std::__ndk1::back_insert_iterator<fmt::v10::basic_memory_buffer<char, (unsigned int)500, std::__ndk1::allocator<char> > >, char, std::__ndk1::chrono::duration<long long, std::__ndk1::ratio<(long long)1, (long long)1> > >::on_day_of_month_space(fmt::v10::detail::numeric_system)
FUNC 27bcd4 18 0 fmt::v10::detail::tm_writer<std::__ndk1::back_insert_iterator<fmt::v10::basic_memory_buffer<char, (unsigned int)500, std::__ndk1::allocator<char> > >, char, std::__ndk1::chrono::duration<long long, std::__ndk1::ratio<(long long)1, (long long)1> > >::on_24_hour(fmt::v10::detail::numeric_system, fmt::v10::detail::pad_type)
FUNC 27bcec 26 0 fmt::v10::detail::tm_writer<std::__ndk1::back_insert_iterator<fmt::v10::basic_memory_buffer<char, (unsigned int)500, std::__ndk1::allocator<char> > >, char, std::__ndk1::chrono::duration<long long, std::__ndk1::ratio<(long long)1, (long long)1> > >::on_12_hour(fmt::v10::detail::numeric_system, fmt::v10::detail::pad_type)
FUNC 27bd12 18 0 fmt::v10::detail::tm_writer<std::__ndk1::back_insert_iterator<fmt::v10::basic_memory_buffer<char, (unsigned int)500, std::__ndk1::allocator<char> > >, char, std::__ndk1::chrono::duration<long long, std::__ndk1::ratio<(long long)1, (long long)1> > >::on_minute(fmt::v10::detail::numeric_system, fmt::v10::detail::pad_type)
FUNC 27bd2a 18 0 fmt::v10::detail::tm_writer<std::__ndk1::back_insert_iterator<fmt::v10::basic_memory_buffer<char, (unsigned int)500, std::__ndk1::allocator<char> > >, char, std::__ndk1::chrono::duration<long long, std::__ndk1::ratio<(long long)1, (long long)1> > >::on_second(fmt::v10::detail::numeric_system, fmt::v10::detail::pad_type)
FUNC 27bd44 248 0 fmt::v10::detail::tm_writer<std::__ndk1::back_insert_iterator<fmt::v10::basic_memory_buffer<char, (unsigned int)500, std::__ndk1::allocator<char> > >, char, std::__ndk1::chrono::duration<long long, std::__ndk1::ratio<(long long)1, (long long)1> > >::on_datetime(fmt::v10::detail::numeric_system)
FUNC 27bf8c 18 0 fmt::v10::detail::tm_writer<std::__ndk1::back_insert_iterator<fmt::v10::basic_memory_buffer<char, (unsigned int)500, std::__ndk1::allocator<char> > >, char, std::__ndk1::chrono::duration<long long, std::__ndk1::ratio<(long long)1, (long long)1> > >::on_loc_date(fmt::v10::detail::numeric_system)
FUNC 27bfa4 54 0 fmt::v10::detail::tm_writer<std::__ndk1::back_insert_iterator<fmt::v10::basic_memory_buffer<char, (unsigned int)500, std::__ndk1::allocator<char> > >, char, std::__ndk1::chrono::duration<long long, std::__ndk1::ratio<(long long)1, (long long)1> > >::on_loc_time(fmt::v10::detail::numeric_system)
FUNC 27bff8 19c 0 fmt::v10::detail::tm_writer<std::__ndk1::back_insert_iterator<fmt::v10::basic_memory_buffer<char, (unsigned int)500, std::__ndk1::allocator<char> > >, char, std::__ndk1::chrono::duration<long long, std::__ndk1::ratio<(long long)1, (long long)1> > >::on_us_date()
FUNC 27c194 144 0 fmt::v10::detail::tm_writer<std::__ndk1::back_insert_iterator<fmt::v10::basic_memory_buffer<char, (unsigned int)500, std::__ndk1::allocator<char> > >, char, std::__ndk1::chrono::duration<long long, std::__ndk1::ratio<(long long)1, (long long)1> > >::on_iso_date()
FUNC 27c2d8 22a 0 fmt::v10::detail::tm_writer<std::__ndk1::back_insert_iterator<fmt::v10::basic_memory_buffer<char, (unsigned int)500, std::__ndk1::allocator<char> > >, char, std::__ndk1::chrono::duration<long long, std::__ndk1::ratio<(long long)1, (long long)1> > >::on_12_hour_time()
FUNC 27c504 ec 0 fmt::v10::detail::tm_writer<std::__ndk1::back_insert_iterator<fmt::v10::basic_memory_buffer<char, (unsigned int)500, std::__ndk1::allocator<char> > >, char, std::__ndk1::chrono::duration<long long, std::__ndk1::ratio<(long long)1, (long long)1> > >::on_24_hour_time()
FUNC 27c5f0 a8 0 fmt::v10::detail::tm_writer<std::__ndk1::back_insert_iterator<fmt::v10::basic_memory_buffer<char, (unsigned int)500, std::__ndk1::allocator<char> > >, char, std::__ndk1::chrono::duration<long long, std::__ndk1::ratio<(long long)1, (long long)1> > >::on_offset_year()
FUNC 27c698 ec 0 fmt::v10::detail::tm_writer<std::__ndk1::back_insert_iterator<fmt::v10::basic_memory_buffer<char, (unsigned int)500, std::__ndk1::allocator<char> > >, char, std::__ndk1::chrono::duration<long long, std::__ndk1::ratio<(long long)1, (long long)1> > >::write_year(long long)
FUNC 27c784 9c 0 fmt::v10::detail::tm_writer<std::__ndk1::back_insert_iterator<fmt::v10::basic_memory_buffer<char, (unsigned int)500, std::__ndk1::allocator<char> > >, char, std::__ndk1::chrono::duration<long long, std::__ndk1::ratio<(long long)1, (long long)1> > >::format_localized(char, char)
FUNC 27c820 23c 0 fmt::v10::detail::tm_writer<std::__ndk1::back_insert_iterator<fmt::v10::basic_memory_buffer<char, (unsigned int)500, std::__ndk1::allocator<char> > >, char, std::__ndk1::chrono::duration<long long, std::__ndk1::ratio<(long long)1, (long long)1> > >::write_year_extended(long long)
FUNC 27ca5c 42 0 fmt::v10::detail::copy_str_noinline<char, char*, std::__ndk1::back_insert_iterator<fmt::v10::basic_memory_buffer<char, (unsigned int)500, std::__ndk1::allocator<char> > > >(char*, char*, std::__ndk1::back_insert_iterator<fmt::v10::basic_memory_buffer<char, (unsigned int)500, std::__ndk1::allocator<char> > >)
FUNC 27caa0 178 0 fmt::v10::detail::do_write<char>(fmt::v10::detail::buffer<char>&, tm const&, std::__ndk1::locale const&, char, char)
FUNC 27cc18 1b4 0 fmt::v10::detail::write_encoded_tm_str<std::__ndk1::back_insert_iterator<fmt::v10::basic_memory_buffer<char, (unsigned int)500, std::__ndk1::allocator<char> > > >(std::__ndk1::back_insert_iterator<fmt::v10::basic_memory_buffer<char, (unsigned int)500, std::__ndk1::allocator<char> > >, fmt::v10::basic_string_view<char>, std::__ndk1::locale const&)
FUNC 27cdcc 10 0 fmt::v10::detail::formatbuf<std::__ndk1::basic_streambuf<char, std::__ndk1::char_traits<char> > >::~formatbuf()
FUNC 27cddc b0 0 fmt::v10::detail::formatbuf<std::__ndk1::basic_streambuf<char, std::__ndk1::char_traits<char> > >::xsputn(char const*, int)
FUNC 27ce8c 2c 0 fmt::v10::detail::formatbuf<std::__ndk1::basic_streambuf<char, std::__ndk1::char_traits<char> > >::overflow(int)
FUNC 27ceb8 a8 0 fmt::v10::detail::write_codecvt<char32_t>(fmt::v10::detail::codecvt_result<char32_t>&, fmt::v10::basic_string_view<char>, std::__ndk1::locale const&)
FUNC 27cf60 98 0 fmt::v10::basic_memory_buffer<char, (unsigned int)128, std::__ndk1::allocator<char> >::grow(unsigned int)
FUNC 27cff8 13e 0 fmt::v10::detail::to_utf8<char32_t, fmt::v10::basic_memory_buffer<char, (unsigned int)128, std::__ndk1::allocator<char> > >::convert(fmt::v10::basic_memory_buffer<char, (unsigned int)128, std::__ndk1::allocator<char> >&, fmt::v10::basic_string_view<char32_t>, fmt::v10::detail::to_utf8_error_policy)
FUNC 27d138 128 0 fmt::v10::detail::write<char, std::__ndk1::back_insert_iterator<fmt::v10::basic_memory_buffer<char, (unsigned int)500, std::__ndk1::allocator<char> > >, long long, 0>(std::__ndk1::back_insert_iterator<fmt::v10::basic_memory_buffer<char, (unsigned int)500, std::__ndk1::allocator<char> > >, long long)
FUNC 27d260 1a 0 fmt::v10::detail::copy_str_noinline<char, char const*, char*>(char const*, char const*, char*)
FUNC 27d27a 1e4 0 fmt::v10::detail::tm_writer<std::__ndk1::back_insert_iterator<fmt::v10::basic_memory_buffer<char, (unsigned int)500, std::__ndk1::allocator<char> > >, char, std::__ndk1::chrono::duration<long long, std::__ndk1::ratio<(long long)1, (long long)1> > >::tm_iso_week_of_year() const
FUNC 27d460 cc 0 fmt::v10::detail::tm_writer<std::__ndk1::back_insert_iterator<fmt::v10::basic_memory_buffer<char, (unsigned int)500, std::__ndk1::allocator<char> > >, char, std::__ndk1::chrono::duration<long long, std::__ndk1::ratio<(long long)1, (long long)1> > >::write2(int, fmt::v10::detail::pad_type)
FUNC 27d52c 158 0 fmt::v10::detail::tm_writer<std::__ndk1::back_insert_iterator<fmt::v10::basic_memory_buffer<char, (unsigned int)500, std::__ndk1::allocator<char> > >, char, std::__ndk1::chrono::duration<long long, std::__ndk1::ratio<(long long)1, (long long)1> > >::write_utc_offset(long, fmt::v10::detail::numeric_system)
FUNC 27d684 1a4 0 std::__ndk1::basic_filebuf<char, std::__ndk1::char_traits<char> >::swap(std::__ndk1::basic_filebuf<char, std::__ndk1::char_traits<char> >&)
FUNC 27d828 14 0 std::__ndk1::__shared_ptr_emplace<geode::log::Nest::Impl, std::__ndk1::allocator<geode::log::Nest::Impl> >::~__shared_ptr_emplace()
FUNC 27d83c 20 0 std::__ndk1::__shared_ptr_emplace<geode::log::Nest::Impl, std::__ndk1::allocator<geode::log::Nest::Impl> >::~__shared_ptr_emplace()
FUNC 27d85c 2 0 std::__ndk1::__shared_ptr_emplace<geode::log::Nest::Impl, std::__ndk1::allocator<geode::log::Nest::Impl> >::__on_zero_shared()
FUNC 27d85e 4 0 std::__ndk1::__shared_ptr_emplace<geode::log::Nest::Impl, std::__ndk1::allocator<geode::log::Nest::Impl> >::__on_zero_shared_weak()
FUNC 27d864 c0 0 std::__ndk1::__shared_ptr_emplace<geode::log::Nest, std::__ndk1::allocator<geode::log::Nest> >::__shared_ptr_emplace[abi:v170000]<std::__ndk1::shared_ptr<geode::log::Nest::Impl> >(std::__ndk1::shared_ptr<geode::log::Nest::Impl>&&)
FUNC 27d924 14 0 std::__ndk1::__shared_ptr_emplace<geode::log::Nest, std::__ndk1::allocator<geode::log::Nest> >::~__shared_ptr_emplace()
FUNC 27d938 20 0 std::__ndk1::__shared_ptr_emplace<geode::log::Nest, std::__ndk1::allocator<geode::log::Nest> >::~__shared_ptr_emplace()
FUNC 27d958 3a 0 std::__ndk1::__shared_ptr_emplace<geode::log::Nest, std::__ndk1::allocator<geode::log::Nest> >::__on_zero_shared()
FUNC 27d992 4 0 std::__ndk1::__shared_ptr_emplace<geode::log::Nest, std::__ndk1::allocator<geode::log::Nest> >::__on_zero_shared_weak()
FUNC 27d996 30 0 geode::Mod::Mod(geode::ModMetadata const&)
FUNC 27d9c6 1a 0 geode::Mod::~Mod()
FUNC 27d9e0 c 0 geode::Mod::getID() const
FUNC 27d9ec c 0 geode::Mod::getName() const
FUNC 27d9f8 118 0 geode::Mod::getDeveloper() const
FUNC 27db10 c 0 geode::Mod::getDevelopers() const
FUNC 27db1c c 0 geode::Mod::getDescription() const
FUNC 27db28 c 0 geode::Mod::getDetails() const
FUNC 27db34 c 0 geode::Mod::getPackagePath() const
FUNC 27db40 c 0 geode::Mod::getVersion() const
FUNC 27db4c 6 0 geode::Mod::getSaveContainer()
FUNC 27db52 6 0 geode::Mod::isEnabled() const
FUNC 27db58 6 0 geode::Mod::isInternal() const
FUNC 27db5e 6 0 geode::Mod::needsEarlyLoad() const
FUNC 27db64 c 0 geode::Mod::getMetadata() const
FUNC 27db70 c 0 geode::Mod::getTempDir() const
FUNC 27db7c c 0 geode::Mod::getBinaryPath() const
FUNC 27db88 140 0 geode::Mod::getResourcesDir() const
FUNC 27dcc8 6 0 geode::Mod::setMetadata(geode::ModMetadata const&)
FUNC 27dcce c 0 geode::Mod::getDependants() const
FUNC 27dcdc 288 0 geode::Mod::hasAvailableUpdate() const
FUNC 27df64 c 0 geode::Mod::saveData()
FUNC 27df70 c 0 geode::Mod::loadData()
FUNC 27df7c c 0 geode::Mod::getSaveDir() const
FUNC 27df88 c 0 geode::Mod::getConfigDir(bool) const
FUNC 27df94 6 0 geode::Mod::hasSettings() const
FUNC 27df9a c 0 geode::Mod::getSettingKeys() const
FUNC 27dfa6 6 0 geode::Mod::hasSetting(std::__ndk1::basic_string_view<char, std::__ndk1::char_traits<char> >) const
FUNC 27dfac c 0 geode::Mod::getSettingDefinition(std::__ndk1::basic_string_view<char, std::__ndk1::char_traits<char> >) const
FUNC 27dfb8 6 0 geode::Mod::getSetting(std::__ndk1::basic_string_view<char, std::__ndk1::char_traits<char> >) const
FUNC 27dfc0 5c 0 geode::Mod::registerCustomSetting(std::__ndk1::basic_string_view<char, std::__ndk1::char_traits<char> >, std::__ndk1::unique_ptr<geode::SettingValue, std::__ndk1::default_delete<geode::SettingValue> >)
FUNC 27e01c c 0 geode::Mod::getLaunchArgumentNames() const
FUNC 27e028 6 0 geode::Mod::hasLaunchArgument(std::__ndk1::basic_string_view<char, std::__ndk1::char_traits<char> >) const
FUNC 27e02e c 0 geode::Mod::getLaunchArgument(std::__ndk1::basic_string_view<char, std::__ndk1::char_traits<char> >) const
FUNC 27e03a 6 0 geode::Mod::getLaunchFlag(std::__ndk1::basic_string_view<char, std::__ndk1::char_traits<char> >) const
FUNC 27e040 88 0 geode::Mod::claimHook(std::__ndk1::shared_ptr<geode::Hook>)
FUNC 27e0c8 c 0 geode::Mod::disownHook(geode::Hook*)
FUNC 27e0d4 c 0 geode::Mod::getHooks() const
FUNC 27e0e0 88 0 geode::Mod::claimPatch(std::__ndk1::shared_ptr<geode::Patch>)
FUNC 27e168 3a 0 std::__ndk1::shared_ptr<geode::Patch>::~shared_ptr[abi:v170000]()
FUNC 27e1a2 c 0 geode::Mod::disownPatch(geode::Patch*)
FUNC 27e1ae c 0 geode::Mod::getPatches() const
FUNC 27e1ba c 0 geode::Mod::enable()
FUNC 27e1c6 c 0 geode::Mod::disable()
FUNC 27e1d2 c 0 geode::Mod::uninstall(bool)
FUNC 27e1de 6 0 geode::Mod::isUninstalled() const
FUNC 27e1e4 6 0 geode::Mod::getRequestedAction() const
FUNC 27e1ea 6 0 geode::Mod::depends(std::__ndk1::basic_string_view<char, std::__ndk1::char_traits<char> >) const
FUNC 27e1f0 6 0 geode::Mod::hasUnresolvedDependencies() const
FUNC 27e1f6 6 0 geode::Mod::hasUnresolvedIncompatibilities() const
FUNC 27e1fc 6 0 geode::Mod::expandSpriteName(char const*)
FUNC 27e202 c 0 geode::Mod::getRuntimeInfo() const
FUNC 27e20e 6 0 geode::Mod::isLoggingEnabled() const
FUNC 27e214 6 0 geode::Mod::setLoggingEnabled(bool)
FUNC 27e21a 1a 0 geode::Mod::hasSavedValue(std::__ndk1::basic_string_view<char, std::__ndk1::char_traits<char> >)
FUNC 27e234 6 0 geode::Mod::shouldLoad() const
FUNC 27e23c 18 0 geode::ModStateEvent::ModStateEvent(geode::Mod*, geode::ModEventType)
FUNC 27e254 4 0 geode::ModStateEvent::getType() const
FUNC 27e258 4 0 geode::ModStateEvent::getMod() const
FUNC 27e25c 32 0 geode::ModStateFilter::handle(geode::utils::MiniFunction<void (geode::ModStateEvent*)>, geode::ModStateEvent*)
FUNC 27e28e a 0 geode::ModStateFilter::ModStateFilter(geode::Mod*, geode::ModEventType)
FUNC 27e298 10 0 geode::ModStateEvent::~ModStateEvent()
FUNC 27e2a8 24 0 geode::ModImpl::get()
FUNC 27e2cc 4 0 geode::ModImpl::getImpl(geode::Mod*)
FUNC 27e2d0 130 0 geode::Mod::Impl::Impl(geode::Mod*, geode::ModMetadata const&)
FUNC 27e400 52 0 std::__ndk1::unordered_map<std::__ndk1::basic_string<char, std::__ndk1::char_traits<char>, std::__ndk1::allocator<char> >, std::__ndk1::unique_ptr<geode::SettingValue, std::__ndk1::default_delete<geode::SettingValue> >, std::__ndk1::hash<std::__ndk1::basic_string<char, std::__ndk1::char_traits<char>, std::__ndk1::allocator<char> > >, std::__ndk1::equal_to<std::__ndk1::basic_string<char, std::__ndk1::char_traits<char>, std::__ndk1::allocator<char> > >, std::__ndk1::allocator<std::__ndk1::pair<std::__ndk1::basic_string<char, std::__ndk1::char_traits<char>, std::__ndk1::allocator<char> > const, std::__ndk1::unique_ptr<geode::SettingValue, std::__ndk1::default_delete<geode::SettingValue> > > > >::~unordered_map[abi:v170000]()
FUNC 27e452 68 0 std::__ndk1::vector<std::__ndk1::shared_ptr<geode::Patch>, std::__ndk1::allocator<std::__ndk1::shared_ptr<geode::Patch> > >::~vector[abi:v170000]()
FUNC 27e4ba 68 0 std::__ndk1::vector<std::__ndk1::shared_ptr<geode::Hook>, std::__ndk1::allocator<std::__ndk1::shared_ptr<geode::Hook> > >::~vector[abi:v170000]()
FUNC 27e524 1fc 0 geode::Mod::Impl::~Impl()
FUNC 27e720 53c 0 geode::Mod::Impl::setup()
FUNC 27ec5c 1d0 0 geode::Mod::Impl::createTempDir()
FUNC 27ee2c c8 0 geode::Mod::Impl::setupSettings()
FUNC 27eef4 91c 0 geode::Mod::Impl::loadData()
FUNC 27f810 c 0 geode::Mod::Impl::getSaveDir() const
FUNC 27f81c c 0 geode::Mod::Impl::getID() const
FUNC 27f828 c 0 geode::Mod::Impl::getName() const
FUNC 27f834 c 0 geode::Mod::Impl::getDevelopers() const
FUNC 27f840 c 0 geode::Mod::Impl::getDescription() const
FUNC 27f84c c 0 geode::Mod::Impl::getDetails() const
FUNC 27f858 c 0 geode::Mod::Impl::getMetadata() const
FUNC 27f864 6 0 geode::Mod::Impl::setMetadata(geode::ModMetadata const&)
FUNC 27f86a 9e 0 geode::Mod::Impl::getDependants() const
FUNC 27f908 c 0 geode::Mod::Impl::getTempDir() const
FUNC 27f914 88 0 geode::Mod::Impl::getBinaryPath() const
FUNC 27f99c c 0 geode::Mod::Impl::getPackagePath() const
FUNC 27f9a8 c 0 geode::Mod::Impl::getVersion() const
FUNC 27f9b4 4 0 geode::Mod::Impl::getSaveContainer()
FUNC 27f9b8 6 0 geode::Mod::Impl::isEnabled() const
FUNC 27f9c0 7c 0 geode::Mod::Impl::isInternal() const
FUNC 27fa3c 128 0 geode::Mod::Impl::needsEarlyLoad() const
FUNC 27fb64 176 0 geode::Mod::Impl::getHooks() const
FUNC 27fcda 176 0 geode::Mod::Impl::getPatches() const
FUNC 27fe50 c8 0 geode::Mod::Impl::getSetting(std::__ndk1::basic_string_view<char, std::__ndk1::char_traits<char> >) const
FUNC 27ff18 580 0 geode::Mod::Impl::saveData()
FUNC 280498 32 0 std::__ndk1::vector<std::__ndk1::pair<std::__ndk1::basic_string<char, std::__ndk1::char_traits<char>, std::__ndk1::allocator<char> >, geode::Setting>, std::__ndk1::allocator<std::__ndk1::pair<std::__ndk1::basic_string<char, std::__ndk1::char_traits<char>, std::__ndk1::allocator<char> >, geode::Setting> > >::~vector[abi:v170000]()
FUNC 2804cc e8 0 geode::Mod::Impl::registerCustomSetting(std::__ndk1::basic_string_view<char, std::__ndk1::char_traits<char> >, std::__ndk1::unique_ptr<geode::SettingValue, std::__ndk1::default_delete<geode::SettingValue> >)
FUNC 2805b4 68 0 geode::Mod::Impl::hasSettings() const
FUNC 28061c 108 0 geode::Mod::Impl::getSettingKeys() const
FUNC 280724 e0 0 geode::Mod::Impl::getSettingDefinition(std::__ndk1::basic_string_view<char, std::__ndk1::char_traits<char> >) const
FUNC 280804 ac 0 geode::Mod::Impl::hasSetting(std::__ndk1::basic_string_view<char, std::__ndk1::char_traits<char> >) const
FUNC 2808b0 13c 0 geode::Mod::Impl::getLaunchArgumentName(std::__ndk1::basic_string_view<char, std::__ndk1::char_traits<char> >) const
FUNC 2809ec 1e4 0 geode::Mod::Impl::getLaunchArgumentNames() const
FUNC 280bd0 90 0 geode::Mod::Impl::hasLaunchArgument(std::__ndk1::basic_string_view<char, std::__ndk1::char_traits<char> >) const
FUNC 280c60 90 0 geode::Mod::Impl::getLaunchArgument(std::__ndk1::basic_string_view<char, std::__ndk1::char_traits<char> >) const
FUNC 280cf0 90 0 geode::Mod::Impl::getLaunchFlag(std::__ndk1::basic_string_view<char, std::__ndk1::char_traits<char> >) const
FUNC 280d80 3ac 0 geode::Mod::Impl::loadBinary()
FUNC 28112c 134 0 geode::Mod::Impl::enable()
FUNC 281260 b0 0 geode::Mod::setSavedValue<bool>(std::__ndk1::basic_string_view<char, std::__ndk1::char_traits<char> >, bool const&)
FUNC 281310 130 0 geode::Mod::Impl::disable()
FUNC 281440 254 0 geode::Mod::Impl::uninstall(bool)
FUNC 281694 10 0 geode::Mod::Impl::isUninstalled() const
FUNC 2816a4 6 0 geode::Mod::Impl::getRequestedAction() const
FUNC 2816ac 38 0 geode::Mod::Impl::updateDependencies()
FUNC 2816e4 9c 0 geode::Mod::Impl::hasUnresolvedDependencies() const
FUNC 281780 9c 0 geode::Mod::Impl::hasUnresolvedIncompatibilities() const
FUNC 28181c b8 0 geode::Mod::Impl::depends(std::__ndk1::basic_string_view<char, std::__ndk1::char_traits<char> >) const
FUNC 2818d4 350 0 geode::Mod::Impl::claimHook(std::__ndk1::shared_ptr<geode::Hook>)
FUNC 281c24 8c 0 geode::Err<std::__ndk1::basic_string<char, std::__ndk1::char_traits<char>, std::__ndk1::allocator<char> > >(std::__ndk1::basic_string<char, std::__ndk1::char_traits<char>, std::__ndk1::allocator<char> > const&, std::__ndk1::basic_string<char, std::__ndk1::char_traits<char>, std::__ndk1::allocator<char> >&&)
FUNC 281cb0 3a8 0 geode::Mod::Impl::disownHook(geode::Hook*)
FUNC 282058 324 0 geode::Mod::Impl::claimPatch(std::__ndk1::shared_ptr<geode::Patch>)
FUNC 28237c 3a8 0 geode::Mod::Impl::disownPatch(geode::Patch*)
FUNC 282724 6e0 0 geode::Mod::Impl::unzipGeodeFile(geode::ModMetadata)
FUNC 282e04 bc 0 geode::Result<geode::utils::file::Unzip, std::__ndk1::basic_string<char, std::__ndk1::char_traits<char>, std::__ndk1::allocator<char> > >::unwrap() &
FUNC 282ec0 22 0 cpp::bitwizeshift::result<geode::utils::file::Unzip, std::__ndk1::basic_string<char, std::__ndk1::char_traits<char>, std::__ndk1::allocator<char> > >::~result()
FUNC 282ee4 c4 0 geode::Mod::Impl::getConfigDir(bool) const
FUNC 282fa8 2c0 0 geode::Mod::Impl::expandSpriteName(char const*)
FUNC 283268 3d0 0 geode::Mod::Impl::getRuntimeInfo() const
FUNC 283638 2a 0 std::__ndk1::vector<matjson::Value, std::__ndk1::allocator<matjson::Value> >::~vector[abi:v170000]()
FUNC 283664 7c 0 matjson::Value::Value<ghc::filesystem::path>()
FUNC 2836e0 6 0 geode::Mod::Impl::isLoggingEnabled() const
FUNC 2836e6 6 0 geode::Mod::Impl::setLoggingEnabled(bool)
FUNC 2836ec e8 0 geode::Mod::Impl::shouldLoad() const
FUNC 2837d4 ac 0 geode::Mod::getSavedValue<bool>(std::__ndk1::basic_string_view<char, std::__ndk1::char_traits<char> >, bool const&)
FUNC 283880 6 0 geode::Mod::Impl::isCurrentlyLoading() const
FUNC 283886 28 0 geode::Mod::Impl::hasProblems() const
FUNC 2838ae c 0 geode::Mod::Impl::getProblems() const
FUNC 2838bc 5a4 0 geode::Loader::Impl::getInternalMod()
FUNC 283e60 234 0 geode::Loader::Impl::setupInternalMod()
FUNC 284094 10 0 std::__ndk1::vector<geode::Hook*, std::__ndk1::allocator<geode::Hook*> >::__throw_length_error[abi:v170000]() const
FUNC 2840a4 10 0 std::__ndk1::vector<geode::Patch*, std::__ndk1::allocator<geode::Patch*> >::__throw_length_error[abi:v170000]() const
FUNC 2840b4 7c 0 std::__ndk1::__destroy_at[abi:v170000]<std::__ndk1::pair<std::__ndk1::basic_string<char, std::__ndk1::char_traits<char>, std::__ndk1::allocator<char> >, geode::Setting>, 0>(std::__ndk1::pair<std::__ndk1::basic_string<char, std::__ndk1::char_traits<char>, std::__ndk1::allocator<char> >, geode::Setting>*)
FUNC 284130 30 0 std::__ndk1::__variant_detail::__visitation::__base::__dispatcher<(unsigned int)0>::__dispatch[abi:v170000]<std::__ndk1::__variant_detail::__dtor<std::__ndk1::__variant_detail::__traits<geode::BoolSetting, std::__ndk1::__variant_detail::__traits::IntSetting, std::__ndk1::__variant_detail::__traits::FloatSetting, std::__ndk1::__variant_detail::__traits::StringSetting, std::__ndk1::__variant_detail::__traits::FileSetting, std::__ndk1::__variant_detail::__traits::ColorSetting, std::__ndk1::__variant_detail::__traits::ColorAlphaSetting, std::__ndk1::__variant_detail::__traits::CustomSetting>, (std::__ndk1::__variant_detail::_Trait)1>::__destroy[abi:v170000]()::{lambda(auto:1&)#1}, std::__ndk1::__variant_detail::__base<(std::__ndk1::__variant_detail::__traits<geode::BoolSetting, std::__ndk1::__variant_detail::__traits::IntSetting, std::__ndk1::__variant_detail::__traits::FloatSetting, std::__ndk1::__variant_detail::__traits::StringSetting, std::__ndk1::__variant_detail::__traits::FileSetting, std::__ndk1::__variant_detail::__traits::ColorSetting, std::__ndk1::__variant_detail::__traits::ColorAlphaSetting, std::__ndk1::__variant_detail::__traits::CustomSetting>)1, geode, geode::BoolSetting, std::__ndk1::__variant_detail::__traits::IntSetting, std::__ndk1::__variant_detail::__traits::FloatSetting, std::__ndk1::__variant_detail::__traits::StringSetting, std::__ndk1::__variant_detail::__traits::FileSetting, std::__ndk1::__variant_detail::__traits::ColorSetting, std::__ndk1::__variant_detail::__traits::ColorAlphaSetting>&>(std::__ndk1::__variant_detail::__dtor<std::__ndk1::__variant_detail::__traits<geode::BoolSetting, std::__ndk1::__variant_detail::__traits::IntSetting, std::__ndk1::__variant_detail::__traits::FloatSetting, std::__ndk1::__variant_detail::__traits::StringSetting, std::__ndk1::__variant_detail::__traits::FileSetting, std::__ndk1::__variant_detail::__traits::ColorSetting, std::__ndk1::__variant_detail::__traits::ColorAlphaSetting, std::__ndk1::__variant_detail::__traits::CustomSetting>, (std::__ndk1::__variant_detail::_Trait)1>, std::__ndk1::__variant_detail::__base<(std::__ndk1::__variant_detail::__traits<geode::BoolSetting, std::__ndk1::__variant_detail::__traits::IntSetting, std::__ndk1::__variant_detail::__traits::FloatSetting, std::__ndk1::__variant_detail::__traits::StringSetting, std::__ndk1::__variant_detail::__traits::FileSetting, std::__ndk1::__variant_detail::__traits::ColorSetting, std::__ndk1::__variant_detail::__traits::ColorAlphaSetting, std::__ndk1::__variant_detail::__traits::CustomSetting>)1, geode, geode::BoolSetting, std::__ndk1::__variant_detail::__traits::IntSetting, std::__ndk1::__variant_detail::__traits::FloatSetting, std::__ndk1::__variant_detail::__traits::StringSetting, std::__ndk1::__variant_detail::__traits::FileSetting, std::__ndk1::__variant_detail::__traits::ColorSetting, std::__ndk1::__variant_detail::__traits::ColorAlphaSetting>&)
FUNC 284160 30 0 std::__ndk1::__variant_detail::__visitation::__base::__dispatcher<(unsigned int)1>::__dispatch[abi:v170000]<std::__ndk1::__variant_detail::__dtor<std::__ndk1::__variant_detail::__traits<geode::BoolSetting, std::__ndk1::__variant_detail::__traits::IntSetting, std::__ndk1::__variant_detail::__traits::FloatSetting, std::__ndk1::__variant_detail::__traits::StringSetting, std::__ndk1::__variant_detail::__traits::FileSetting, std::__ndk1::__variant_detail::__traits::ColorSetting, std::__ndk1::__variant_detail::__traits::ColorAlphaSetting, std::__ndk1::__variant_detail::__traits::CustomSetting>, (std::__ndk1::__variant_detail::_Trait)1>::__destroy[abi:v170000]()::{lambda(auto:1&)#1}, std::__ndk1::__variant_detail::__base<(std::__ndk1::__variant_detail::__traits<geode::BoolSetting, std::__ndk1::__variant_detail::__traits::IntSetting, std::__ndk1::__variant_detail::__traits::FloatSetting, std::__ndk1::__variant_detail::__traits::StringSetting, std::__ndk1::__variant_detail::__traits::FileSetting, std::__ndk1::__variant_detail::__traits::ColorSetting, std::__ndk1::__variant_detail::__traits::ColorAlphaSetting, std::__ndk1::__variant_detail::__traits::CustomSetting>)1, geode, geode::BoolSetting, std::__ndk1::__variant_detail::__traits::IntSetting, std::__ndk1::__variant_detail::__traits::FloatSetting, std::__ndk1::__variant_detail::__traits::StringSetting, std::__ndk1::__variant_detail::__traits::FileSetting, std::__ndk1::__variant_detail::__traits::ColorSetting, std::__ndk1::__variant_detail::__traits::ColorAlphaSetting>&>(std::__ndk1::__variant_detail::__dtor<std::__ndk1::__variant_detail::__traits<geode::BoolSetting, std::__ndk1::__variant_detail::__traits::IntSetting, std::__ndk1::__variant_detail::__traits::FloatSetting, std::__ndk1::__variant_detail::__traits::StringSetting, std::__ndk1::__variant_detail::__traits::FileSetting, std::__ndk1::__variant_detail::__traits::ColorSetting, std::__ndk1::__variant_detail::__traits::ColorAlphaSetting, std::__ndk1::__variant_detail::__traits::CustomSetting>, (std::__ndk1::__variant_detail::_Trait)1>, std::__ndk1::__variant_detail::__base<(std::__ndk1::__variant_detail::__traits<geode::BoolSetting, std::__ndk1::__variant_detail::__traits::IntSetting, std::__ndk1::__variant_detail::__traits::FloatSetting, std::__ndk1::__variant_detail::__traits::StringSetting, std::__ndk1::__variant_detail::__traits::FileSetting, std::__ndk1::__variant_detail::__traits::ColorSetting, std::__ndk1::__variant_detail::__traits::ColorAlphaSetting, std::__ndk1::__variant_detail::__traits::CustomSetting>)1, geode, geode::BoolSetting, std::__ndk1::__variant_detail::__traits::IntSetting, std::__ndk1::__variant_detail::__traits::FloatSetting, std::__ndk1::__variant_detail::__traits::StringSetting, std::__ndk1::__variant_detail::__traits::FileSetting, std::__ndk1::__variant_detail::__traits::ColorSetting, std::__ndk1::__variant_detail::__traits::ColorAlphaSetting>&)
FUNC 284190 30 0 std::__ndk1::__variant_detail::__visitation::__base::__dispatcher<(unsigned int)2>::__dispatch[abi:v170000]<std::__ndk1::__variant_detail::__dtor<std::__ndk1::__variant_detail::__traits<geode::BoolSetting, std::__ndk1::__variant_detail::__traits::IntSetting, std::__ndk1::__variant_detail::__traits::FloatSetting, std::__ndk1::__variant_detail::__traits::StringSetting, std::__ndk1::__variant_detail::__traits::FileSetting, std::__ndk1::__variant_detail::__traits::ColorSetting, std::__ndk1::__variant_detail::__traits::ColorAlphaSetting, std::__ndk1::__variant_detail::__traits::CustomSetting>, (std::__ndk1::__variant_detail::_Trait)1>::__destroy[abi:v170000]()::{lambda(auto:1&)#1}, std::__ndk1::__variant_detail::__base<(std::__ndk1::__variant_detail::__traits<geode::BoolSetting, std::__ndk1::__variant_detail::__traits::IntSetting, std::__ndk1::__variant_detail::__traits::FloatSetting, std::__ndk1::__variant_detail::__traits::StringSetting, std::__ndk1::__variant_detail::__traits::FileSetting, std::__ndk1::__variant_detail::__traits::ColorSetting, std::__ndk1::__variant_detail::__traits::ColorAlphaSetting, std::__ndk1::__variant_detail::__traits::CustomSetting>)1, geode, geode::BoolSetting, std::__ndk1::__variant_detail::__traits::IntSetting, std::__ndk1::__variant_detail::__traits::FloatSetting, std::__ndk1::__variant_detail::__traits::StringSetting, std::__ndk1::__variant_detail::__traits::FileSetting, std::__ndk1::__variant_detail::__traits::ColorSetting, std::__ndk1::__variant_detail::__traits::ColorAlphaSetting>&>(std::__ndk1::__variant_detail::__dtor<std::__ndk1::__variant_detail::__traits<geode::BoolSetting, std::__ndk1::__variant_detail::__traits::IntSetting, std::__ndk1::__variant_detail::__traits::FloatSetting, std::__ndk1::__variant_detail::__traits::StringSetting, std::__ndk1::__variant_detail::__traits::FileSetting, std::__ndk1::__variant_detail::__traits::ColorSetting, std::__ndk1::__variant_detail::__traits::ColorAlphaSetting, std::__ndk1::__variant_detail::__traits::CustomSetting>, (std::__ndk1::__variant_detail::_Trait)1>, std::__ndk1::__variant_detail::__base<(std::__ndk1::__variant_detail::__traits<geode::BoolSetting, std::__ndk1::__variant_detail::__traits::IntSetting, std::__ndk1::__variant_detail::__traits::FloatSetting, std::__ndk1::__variant_detail::__traits::StringSetting, std::__ndk1::__variant_detail::__traits::FileSetting, std::__ndk1::__variant_detail::__traits::ColorSetting, std::__ndk1::__variant_detail::__traits::ColorAlphaSetting, std::__ndk1::__variant_detail::__traits::CustomSetting>)1, geode, geode::BoolSetting, std::__ndk1::__variant_detail::__traits::IntSetting, std::__ndk1::__variant_detail::__traits::FloatSetting, std::__ndk1::__variant_detail::__traits::StringSetting, std::__ndk1::__variant_detail::__traits::FileSetting, std::__ndk1::__variant_detail::__traits::ColorSetting, std::__ndk1::__variant_detail::__traits::ColorAlphaSetting>&)
FUNC 2841c0 6 0 std::__ndk1::__variant_detail::__visitation::__base::__dispatcher<(unsigned int)3>::__dispatch[abi:v170000]<std::__ndk1::__variant_detail::__dtor<std::__ndk1::__variant_detail::__traits<geode::BoolSetting, std::__ndk1::__variant_detail::__traits::IntSetting, std::__ndk1::__variant_detail::__traits::FloatSetting, std::__ndk1::__variant_detail::__traits::StringSetting, std::__ndk1::__variant_detail::__traits::FileSetting, std::__ndk1::__variant_detail::__traits::ColorSetting, std::__ndk1::__variant_detail::__traits::ColorAlphaSetting, std::__ndk1::__variant_detail::__traits::CustomSetting>, (std::__ndk1::__variant_detail::_Trait)1>::__destroy[abi:v170000]()::{lambda(auto:1&)#1}, std::__ndk1::__variant_detail::__base<(std::__ndk1::__variant_detail::__traits<geode::BoolSetting, std::__ndk1::__variant_detail::__traits::IntSetting, std::__ndk1::__variant_detail::__traits::FloatSetting, std::__ndk1::__variant_detail::__traits::StringSetting, std::__ndk1::__variant_detail::__traits::FileSetting, std::__ndk1::__variant_detail::__traits::ColorSetting, std::__ndk1::__variant_detail::__traits::ColorAlphaSetting, std::__ndk1::__variant_detail::__traits::CustomSetting>)1, geode, geode::BoolSetting, std::__ndk1::__variant_detail::__traits::IntSetting, std::__ndk1::__variant_detail::__traits::FloatSetting, std::__ndk1::__variant_detail::__traits::StringSetting, std::__ndk1::__variant_detail::__traits::FileSetting, std::__ndk1::__variant_detail::__traits::ColorSetting, std::__ndk1::__variant_detail::__traits::ColorAlphaSetting>&>(std::__ndk1::__variant_detail::__dtor<std::__ndk1::__variant_detail::__traits<geode::BoolSetting, std::__ndk1::__variant_detail::__traits::IntSetting, std::__ndk1::__variant_detail::__traits::FloatSetting, std::__ndk1::__variant_detail::__traits::StringSetting, std::__ndk1::__variant_detail::__traits::FileSetting, std::__ndk1::__variant_detail::__traits::ColorSetting, std::__ndk1::__variant_detail::__traits::ColorAlphaSetting, std::__ndk1::__variant_detail::__traits::CustomSetting>, (std::__ndk1::__variant_detail::_Trait)1>, std::__ndk1::__variant_detail::__base<(std::__ndk1::__variant_detail::__traits<geode::BoolSetting, std::__ndk1::__variant_detail::__traits::IntSetting, std::__ndk1::__variant_detail::__traits::FloatSetting, std::__ndk1::__variant_detail::__traits::StringSetting, std::__ndk1::__variant_detail::__traits::FileSetting, std::__ndk1::__variant_detail::__traits::ColorSetting, std::__ndk1::__variant_detail::__traits::ColorAlphaSetting, std::__ndk1::__variant_detail::__traits::CustomSetting>)1, geode, geode::BoolSetting, std::__ndk1::__variant_detail::__traits::IntSetting, std::__ndk1::__variant_detail::__traits::FloatSetting, std::__ndk1::__variant_detail::__traits::StringSetting, std::__ndk1::__variant_detail::__traits::FileSetting, std::__ndk1::__variant_detail::__traits::ColorSetting, std::__ndk1::__variant_detail::__traits::ColorAlphaSetting>&)
FUNC 2841c6 4c 0 std::__ndk1::__variant_detail::__visitation::__base::__dispatcher<(unsigned int)4>::__dispatch[abi:v170000]<std::__ndk1::__variant_detail::__dtor<std::__ndk1::__variant_detail::__traits<geode::BoolSetting, std::__ndk1::__variant_detail::__traits::IntSetting, std::__ndk1::__variant_detail::__traits::FloatSetting, std::__ndk1::__variant_detail::__traits::StringSetting, std::__ndk1::__variant_detail::__traits::FileSetting, std::__ndk1::__variant_detail::__traits::ColorSetting, std::__ndk1::__variant_detail::__traits::ColorAlphaSetting, std::__ndk1::__variant_detail::__traits::CustomSetting>, (std::__ndk1::__variant_detail::_Trait)1>::__destroy[abi:v170000]()::{lambda(auto:1&)#1}, std::__ndk1::__variant_detail::__base<(std::__ndk1::__variant_detail::__traits<geode::BoolSetting, std::__ndk1::__variant_detail::__traits::IntSetting, std::__ndk1::__variant_detail::__traits::FloatSetting, std::__ndk1::__variant_detail::__traits::StringSetting, std::__ndk1::__variant_detail::__traits::FileSetting, std::__ndk1::__variant_detail::__traits::ColorSetting, std::__ndk1::__variant_detail::__traits::ColorAlphaSetting, std::__ndk1::__variant_detail::__traits::CustomSetting>)1, geode, geode::BoolSetting, std::__ndk1::__variant_detail::__traits::IntSetting, std::__ndk1::__variant_detail::__traits::FloatSetting, std::__ndk1::__variant_detail::__traits::StringSetting, std::__ndk1::__variant_detail::__traits::FileSetting, std::__ndk1::__variant_detail::__traits::ColorSetting, std::__ndk1::__variant_detail::__traits::ColorAlphaSetting>&>(std::__ndk1::__variant_detail::__dtor<std::__ndk1::__variant_detail::__traits<geode::BoolSetting, std::__ndk1::__variant_detail::__traits::IntSetting, std::__ndk1::__variant_detail::__traits::FloatSetting, std::__ndk1::__variant_detail::__traits::StringSetting, std::__ndk1::__variant_detail::__traits::FileSetting, std::__ndk1::__variant_detail::__traits::ColorSetting, std::__ndk1::__variant_detail::__traits::ColorAlphaSetting, std::__ndk1::__variant_detail::__traits::CustomSetting>, (std::__ndk1::__variant_detail::_Trait)1>, std::__ndk1::__variant_detail::__base<(std::__ndk1::__variant_detail::__traits<geode::BoolSetting, std::__ndk1::__variant_detail::__traits::IntSetting, std::__ndk1::__variant_detail::__traits::FloatSetting, std::__ndk1::__variant_detail::__traits::StringSetting, std::__ndk1::__variant_detail::__traits::FileSetting, std::__ndk1::__variant_detail::__traits::ColorSetting, std::__ndk1::__variant_detail::__traits::ColorAlphaSetting, std::__ndk1::__variant_detail::__traits::CustomSetting>)1, geode, geode::BoolSetting, std::__ndk1::__variant_detail::__traits::IntSetting, std::__ndk1::__variant_detail::__traits::FloatSetting, std::__ndk1::__variant_detail::__traits::StringSetting, std::__ndk1::__variant_detail::__traits::FileSetting, std::__ndk1::__variant_detail::__traits::ColorSetting, std::__ndk1::__variant_detail::__traits::ColorAlphaSetting>&)
FUNC 284212 30 0 std::__ndk1::__variant_detail::__visitation::__base::__dispatcher<(unsigned int)5>::__dispatch[abi:v170000]<std::__ndk1::__variant_detail::__dtor<std::__ndk1::__variant_detail::__traits<geode::BoolSetting, std::__ndk1::__variant_detail::__traits::IntSetting, std::__ndk1::__variant_detail::__traits::FloatSetting, std::__ndk1::__variant_detail::__traits::StringSetting, std::__ndk1::__variant_detail::__traits::FileSetting, std::__ndk1::__variant_detail::__traits::ColorSetting, std::__ndk1::__variant_detail::__traits::ColorAlphaSetting, std::__ndk1::__variant_detail::__traits::CustomSetting>, (std::__ndk1::__variant_detail::_Trait)1>::__destroy[abi:v170000]()::{lambda(auto:1&)#1}, std::__ndk1::__variant_detail::__base<(std::__ndk1::__variant_detail::__traits<geode::BoolSetting, std::__ndk1::__variant_detail::__traits::IntSetting, std::__ndk1::__variant_detail::__traits::FloatSetting, std::__ndk1::__variant_detail::__traits::StringSetting, std::__ndk1::__variant_detail::__traits::FileSetting, std::__ndk1::__variant_detail::__traits::ColorSetting, std::__ndk1::__variant_detail::__traits::ColorAlphaSetting, std::__ndk1::__variant_detail::__traits::CustomSetting>)1, geode, geode::BoolSetting, std::__ndk1::__variant_detail::__traits::IntSetting, std::__ndk1::__variant_detail::__traits::FloatSetting, std::__ndk1::__variant_detail::__traits::StringSetting, std::__ndk1::__variant_detail::__traits::FileSetting, std::__ndk1::__variant_detail::__traits::ColorSetting, std::__ndk1::__variant_detail::__traits::ColorAlphaSetting>&>(std::__ndk1::__variant_detail::__dtor<std::__ndk1::__variant_detail::__traits<geode::BoolSetting, std::__ndk1::__variant_detail::__traits::IntSetting, std::__ndk1::__variant_detail::__traits::FloatSetting, std::__ndk1::__variant_detail::__traits::StringSetting, std::__ndk1::__variant_detail::__traits::FileSetting, std::__ndk1::__variant_detail::__traits::ColorSetting, std::__ndk1::__variant_detail::__traits::ColorAlphaSetting, std::__ndk1::__variant_detail::__traits::CustomSetting>, (std::__ndk1::__variant_detail::_Trait)1>, std::__ndk1::__variant_detail::__base<(std::__ndk1::__variant_detail::__traits<geode::BoolSetting, std::__ndk1::__variant_detail::__traits::IntSetting, std::__ndk1::__variant_detail::__traits::FloatSetting, std::__ndk1::__variant_detail::__traits::StringSetting, std::__ndk1::__variant_detail::__traits::FileSetting, std::__ndk1::__variant_detail::__traits::ColorSetting, std::__ndk1::__variant_detail::__traits::ColorAlphaSetting, std::__ndk1::__variant_detail::__traits::CustomSetting>)1, geode, geode::BoolSetting, std::__ndk1::__variant_detail::__traits::IntSetting, std::__ndk1::__variant_detail::__traits::FloatSetting, std::__ndk1::__variant_detail::__traits::StringSetting, std::__ndk1::__variant_detail::__traits::FileSetting, std::__ndk1::__variant_detail::__traits::ColorSetting, std::__ndk1::__variant_detail::__traits::ColorAlphaSetting>&)
FUNC 284242 30 0 std::__ndk1::__variant_detail::__visitation::__base::__dispatcher<(unsigned int)6>::__dispatch[abi:v170000]<std::__ndk1::__variant_detail::__dtor<std::__ndk1::__variant_detail::__traits<geode::BoolSetting, std::__ndk1::__variant_detail::__traits::IntSetting, std::__ndk1::__variant_detail::__traits::FloatSetting, std::__ndk1::__variant_detail::__traits::StringSetting, std::__ndk1::__variant_detail::__traits::FileSetting, std::__ndk1::__variant_detail::__traits::ColorSetting, std::__ndk1::__variant_detail::__traits::ColorAlphaSetting, std::__ndk1::__variant_detail::__traits::CustomSetting>, (std::__ndk1::__variant_detail::_Trait)1>::__destroy[abi:v170000]()::{lambda(auto:1&)#1}, std::__ndk1::__variant_detail::__base<(std::__ndk1::__variant_detail::__traits<geode::BoolSetting, std::__ndk1::__variant_detail::__traits::IntSetting, std::__ndk1::__variant_detail::__traits::FloatSetting, std::__ndk1::__variant_detail::__traits::StringSetting, std::__ndk1::__variant_detail::__traits::FileSetting, std::__ndk1::__variant_detail::__traits::ColorSetting, std::__ndk1::__variant_detail::__traits::ColorAlphaSetting, std::__ndk1::__variant_detail::__traits::CustomSetting>)1, geode, geode::BoolSetting, std::__ndk1::__variant_detail::__traits::IntSetting, std::__ndk1::__variant_detail::__traits::FloatSetting, std::__ndk1::__variant_detail::__traits::StringSetting, std::__ndk1::__variant_detail::__traits::FileSetting, std::__ndk1::__variant_detail::__traits::ColorSetting, std::__ndk1::__variant_detail::__traits::ColorAlphaSetting>&>(std::__ndk1::__variant_detail::__dtor<std::__ndk1::__variant_detail::__traits<geode::BoolSetting, std::__ndk1::__variant_detail::__traits::IntSetting, std::__ndk1::__variant_detail::__traits::FloatSetting, std::__ndk1::__variant_detail::__traits::StringSetting, std::__ndk1::__variant_detail::__traits::FileSetting, std::__ndk1::__variant_detail::__traits::ColorSetting, std::__ndk1::__variant_detail::__traits::ColorAlphaSetting, std::__ndk1::__variant_detail::__traits::CustomSetting>, (std::__ndk1::__variant_detail::_Trait)1>, std::__ndk1::__variant_detail::__base<(std::__ndk1::__variant_detail::__traits<geode::BoolSetting, std::__ndk1::__variant_detail::__traits::IntSetting, std::__ndk1::__variant_detail::__traits::FloatSetting, std::__ndk1::__variant_detail::__traits::StringSetting, std::__ndk1::__variant_detail::__traits::FileSetting, std::__ndk1::__variant_detail::__traits::ColorSetting, std::__ndk1::__variant_detail::__traits::ColorAlphaSetting, std::__ndk1::__variant_detail::__traits::CustomSetting>)1, geode, geode::BoolSetting, std::__ndk1::__variant_detail::__traits::IntSetting, std::__ndk1::__variant_detail::__traits::FloatSetting, std::__ndk1::__variant_detail::__traits::StringSetting, std::__ndk1::__variant_detail::__traits::FileSetting, std::__ndk1::__variant_detail::__traits::ColorSetting, std::__ndk1::__variant_detail::__traits::ColorAlphaSetting>&)
FUNC 284272 3a 0 std::__ndk1::__variant_detail::__visitation::__base::__dispatcher<(unsigned int)7>::__dispatch[abi:v170000]<std::__ndk1::__variant_detail::__dtor<std::__ndk1::__variant_detail::__traits<geode::BoolSetting, std::__ndk1::__variant_detail::__traits::IntSetting, std::__ndk1::__variant_detail::__traits::FloatSetting, std::__ndk1::__variant_detail::__traits::StringSetting, std::__ndk1::__variant_detail::__traits::FileSetting, std::__ndk1::__variant_detail::__traits::ColorSetting, std::__ndk1::__variant_detail::__traits::ColorAlphaSetting, std::__ndk1::__variant_detail::__traits::CustomSetting>, (std::__ndk1::__variant_detail::_Trait)1>::__destroy[abi:v170000]()::{lambda(auto:1&)#1}, std::__ndk1::__variant_detail::__base<(std::__ndk1::__variant_detail::__traits<geode::BoolSetting, std::__ndk1::__variant_detail::__traits::IntSetting, std::__ndk1::__variant_detail::__traits::FloatSetting, std::__ndk1::__variant_detail::__traits::StringSetting, std::__ndk1::__variant_detail::__traits::FileSetting, std::__ndk1::__variant_detail::__traits::ColorSetting, std::__ndk1::__variant_detail::__traits::ColorAlphaSetting, std::__ndk1::__variant_detail::__traits::CustomSetting>)1, geode, geode::BoolSetting, std::__ndk1::__variant_detail::__traits::IntSetting, std::__ndk1::__variant_detail::__traits::FloatSetting, std::__ndk1::__variant_detail::__traits::StringSetting, std::__ndk1::__variant_detail::__traits::FileSetting, std::__ndk1::__variant_detail::__traits::ColorSetting, std::__ndk1::__variant_detail::__traits::ColorAlphaSetting>&>(std::__ndk1::__variant_detail::__dtor<std::__ndk1::__variant_detail::__traits<geode::BoolSetting, std::__ndk1::__variant_detail::__traits::IntSetting, std::__ndk1::__variant_detail::__traits::FloatSetting, std::__ndk1::__variant_detail::__traits::StringSetting, std::__ndk1::__variant_detail::__traits::FileSetting, std::__ndk1::__variant_detail::__traits::ColorSetting, std::__ndk1::__variant_detail::__traits::ColorAlphaSetting, std::__ndk1::__variant_detail::__traits::CustomSetting>, (std::__ndk1::__variant_detail::_Trait)1>, std::__ndk1::__variant_detail::__base<(std::__ndk1::__variant_detail::__traits<geode::BoolSetting, std::__ndk1::__variant_detail::__traits::IntSetting, std::__ndk1::__variant_detail::__traits::FloatSetting, std::__ndk1::__variant_detail::__traits::StringSetting, std::__ndk1::__variant_detail::__traits::FileSetting, std::__ndk1::__variant_detail::__traits::ColorSetting, std::__ndk1::__variant_detail::__traits::ColorAlphaSetting, std::__ndk1::__variant_detail::__traits::CustomSetting>)1, geode, geode::BoolSetting, std::__ndk1::__variant_detail::__traits::IntSetting, std::__ndk1::__variant_detail::__traits::FloatSetting, std::__ndk1::__variant_detail::__traits::StringSetting, std::__ndk1::__variant_detail::__traits::FileSetting, std::__ndk1::__variant_detail::__traits::ColorSetting, std::__ndk1::__variant_detail::__traits::ColorAlphaSetting>&)
FUNC 2842ac 68 0 geode::StringSetting::~StringSetting()
FUNC 284314 6e 0 std::__ndk1::vector<geode::utils::file::FilePickOptions::Filter, std::__ndk1::allocator<geode::utils::file::FilePickOptions::Filter> >::__base_destruct_at_end[abi:v170000](geode::utils::file::FilePickOptions::Filter*)
FUNC 284384 15c 0 geode::Setting::Setting(geode::Setting const&)
FUNC 2844e0 3c 0 _ZNSt6__ndk116__variant_detail12__visitation6__base12__dispatcherIJLj0ELj0EEE10__dispatchB7v170000IOZNS0_6__ctorINS0_8__traitsIJN5geode11BoolSettingENS8_10IntSettingENS8_12FloatSettingENS8_13StringSettingENS8_11FileSettingENS8_12ColorSettingENS8_17ColorAlphaSettingENS8_13CustomSettingEEEEE19__generic_constructB7v170000IRKNS0_18__copy_constructorISH_LNS0_6_TraitE1EEEEEvRSI_OT_EUlRSQ_OT0_E_JRNS0_6__baseILSL_1EJS9_SA_SB_SC_SD_SE_SF_SG_EEERKSY_EEEDcSQ_DpT0_
FUNC 28451c 42 0 _ZNSt6__ndk116__variant_detail12__visitation6__base12__dispatcherIJLj1ELj1EEE10__dispatchB7v170000IOZNS0_6__ctorINS0_8__traitsIJN5geode11BoolSettingENS8_10IntSettingENS8_12FloatSettingENS8_13StringSettingENS8_11FileSettingENS8_12ColorSettingENS8_17ColorAlphaSettingENS8_13CustomSettingEEEEE19__generic_constructB7v170000IRKNS0_18__copy_constructorISH_LNS0_6_TraitE1EEEEEvRSI_OT_EUlRSQ_OT0_E_JRNS0_6__baseILSL_1EJS9_SA_SB_SC_SD_SE_SF_SG_EEERKSY_EEEDcSQ_DpT0_
FUNC 28455e 42 0 _ZNSt6__ndk116__variant_detail12__visitation6__base12__dispatcherIJLj2ELj2EEE10__dispatchB7v170000IOZNS0_6__ctorINS0_8__traitsIJN5geode11BoolSettingENS8_10IntSettingENS8_12FloatSettingENS8_13StringSettingENS8_11FileSettingENS8_12ColorSettingENS8_17ColorAlphaSettingENS8_13CustomSettingEEEEE19__generic_constructB7v170000IRKNS0_18__copy_constructorISH_LNS0_6_TraitE1EEEEEvRSI_OT_EUlRSQ_OT0_E_JRNS0_6__baseILSL_1EJS9_SA_SB_SC_SD_SE_SF_SG_EEERKSY_EEEDcSQ_DpT0_
FUNC 2845a0 8 0 _ZNSt6__ndk116__variant_detail12__visitation6__base12__dispatcherIJLj3ELj3EEE10__dispatchB7v170000IOZNS0_6__ctorINS0_8__traitsIJN5geode11BoolSettingENS8_10IntSettingENS8_12FloatSettingENS8_13StringSettingENS8_11FileSettingENS8_12ColorSettingENS8_17ColorAlphaSettingENS8_13CustomSettingEEEEE19__generic_constructB7v170000IRKNS0_18__copy_constructorISH_LNS0_6_TraitE1EEEEEvRSI_OT_EUlRSQ_OT0_E_JRNS0_6__baseILSL_1EJS9_SA_SB_SC_SD_SE_SF_SG_EEERKSY_EEEDcSQ_DpT0_
FUNC 2845a8 8 0 _ZNSt6__ndk116__variant_detail12__visitation6__base12__dispatcherIJLj4ELj4EEE10__dispatchB7v170000IOZNS0_6__ctorINS0_8__traitsIJN5geode11BoolSettingENS8_10IntSettingENS8_12FloatSettingENS8_13StringSettingENS8_11FileSettingENS8_12ColorSettingENS8_17ColorAlphaSettingENS8_13CustomSettingEEEEE19__generic_constructB7v170000IRKNS0_18__copy_constructorISH_LNS0_6_TraitE1EEEEEvRSI_OT_EUlRSQ_OT0_E_JRNS0_6__baseILSL_1EJS9_SA_SB_SC_SD_SE_SF_SG_EEERKSY_EEEDcSQ_DpT0_
FUNC 2845b0 40 0 _ZNSt6__ndk116__variant_detail12__visitation6__base12__dispatcherIJLj5ELj5EEE10__dispatchB7v170000IOZNS0_6__ctorINS0_8__traitsIJN5geode11BoolSettingENS8_10IntSettingENS8_12FloatSettingENS8_13StringSettingENS8_11FileSettingENS8_12ColorSettingENS8_17ColorAlphaSettingENS8_13CustomSettingEEEEE19__generic_constructB7v170000IRKNS0_18__copy_constructorISH_LNS0_6_TraitE1EEEEEvRSI_OT_EUlRSQ_OT0_E_JRNS0_6__baseILSL_1EJS9_SA_SB_SC_SD_SE_SF_SG_EEERKSY_EEEDcSQ_DpT0_
FUNC 2845f0 38 0 _ZNSt6__ndk116__variant_detail12__visitation6__base12__dispatcherIJLj6ELj6EEE10__dispatchB7v170000IOZNS0_6__ctorINS0_8__traitsIJN5geode11BoolSettingENS8_10IntSettingENS8_12FloatSettingENS8_13StringSettingENS8_11FileSettingENS8_12ColorSettingENS8_17ColorAlphaSettingENS8_13CustomSettingEEEEE19__generic_constructB7v170000IRKNS0_18__copy_constructorISH_LNS0_6_TraitE1EEEEEvRSI_OT_EUlRSQ_OT0_E_JRNS0_6__baseILSL_1EJS9_SA_SB_SC_SD_SE_SF_SG_EEERKSY_EEEDcSQ_DpT0_
FUNC 284628 20 0 _ZNSt6__ndk116__variant_detail12__visitation6__base12__dispatcherIJLj7ELj7EEE10__dispatchB7v170000IOZNS0_6__ctorINS0_8__traitsIJN5geode11BoolSettingENS8_10IntSettingENS8_12FloatSettingENS8_13StringSettingENS8_11FileSettingENS8_12ColorSettingENS8_17ColorAlphaSettingENS8_13CustomSettingEEEEE19__generic_constructB7v170000IRKNS0_18__copy_constructorISH_LNS0_6_TraitE1EEEEEvRSI_OT_EUlRSQ_OT0_E_JRNS0_6__baseILSL_1EJS9_SA_SB_SC_SD_SE_SF_SG_EEERKSY_EEEDcSQ_DpT0_
FUNC 284648 86 0 std::__ndk1::__optional_copy_base<std::__ndk1::basic_string<char, std::__ndk1::char_traits<char>, std::__ndk1::allocator<char> >, false>::__optional_copy_base[abi:v170000](std::__ndk1::__optional_copy_base<std::__ndk1::basic_string<char, std::__ndk1::char_traits<char>, std::__ndk1::allocator<char> >, false> const&)
FUNC 2846ce f4 0 geode::StringSetting::StringSetting(geode::StringSetting const&)
FUNC 2847c2 74 0 geode::FileSetting::FileSetting(geode::FileSetting const&)
FUNC 284838 cc 0 std::__ndk1::vector<geode::utils::file::FilePickOptions::Filter, std::__ndk1::allocator<geode::utils::file::FilePickOptions::Filter> >::vector(std::__ndk1::vector<geode::utils::file::FilePickOptions::Filter, std::__ndk1::allocator<geode::utils::file::FilePickOptions::Filter> > const&)
FUNC 284904 26 0 std::__ndk1::__exception_guard<std::__ndk1::vector<geode::utils::file::FilePickOptions::Filter, std::__ndk1::allocator<geode::utils::file::FilePickOptions::Filter> >::__destroy_vector>::~__exception_guard[abi:v170000]()
FUNC 28492c 10 0 std::__ndk1::vector<geode::utils::file::FilePickOptions::Filter, std::__ndk1::allocator<geode::utils::file::FilePickOptions::Filter> >::__throw_length_error[abi:v170000]() const
FUNC 28493c 18 0 std::__ndk1::__exception_guard<std::__ndk1::_AllocatorDestroyRangeReverse<std::__ndk1::allocator<geode::utils::file::FilePickOptions::Filter>, geode::utils::file::FilePickOptions::Filter*> >::~__exception_guard[abi:v170000]()
FUNC 284954 80 0 std::__ndk1::construct_at[abi:v170000]<geode::utils::file::FilePickOptions::Filter, geode::utils::file::FilePickOptions&, geode::utils::file::FilePickOptions*>(geode::utils::file::FilePickOptions::Filter, geode::utils::file::FilePickOptions&)
FUNC 2849d4 6e 0 std::__ndk1::_AllocatorDestroyRangeReverse<std::__ndk1::allocator<geode::utils::file::FilePickOptions::Filter>, geode::utils::file::FilePickOptions::Filter*>::operator()[abi:v170000]() const
FUNC 284a42 1d4 0 std::__ndk1::vector<std::__ndk1::shared_ptr<geode::Hook>, std::__ndk1::allocator<std::__ndk1::shared_ptr<geode::Hook> > >::__push_back_slow_path<std::__ndk1::shared_ptr<geode::Hook> const&>(std::__ndk1::shared_ptr<geode::Hook> const&)
FUNC 284c18 10 0 std::__ndk1::vector<std::__ndk1::shared_ptr<geode::Hook>, std::__ndk1::allocator<std::__ndk1::shared_ptr<geode::Hook> > >::__throw_length_error[abi:v170000]() const
FUNC 284c28 1d4 0 std::__ndk1::vector<std::__ndk1::shared_ptr<geode::Patch>, std::__ndk1::allocator<std::__ndk1::shared_ptr<geode::Patch> > >::__push_back_slow_path<std::__ndk1::shared_ptr<geode::Patch> const&>(std::__ndk1::shared_ptr<geode::Patch> const&)
FUNC 284dfc 10 0 std::__ndk1::vector<std::__ndk1::shared_ptr<geode::Patch>, std::__ndk1::allocator<std::__ndk1::shared_ptr<geode::Patch> > >::__throw_length_error[abi:v170000]() const
FUNC 284e0c 4 0 geode::utils::MiniFunctionState<geode::Mod::Impl::loadData()::$_0, void, >::~MiniFunctionState()
FUNC 284e10 58 0 geode::utils::MiniFunctionState<geode::Mod::Impl::loadData()::$_0, void, >::call() const
FUNC 284e68 20 0 geode::utils::MiniFunctionState<geode::Mod::Impl::loadData()::$_0, void, >::clone() const
FUNC 284e88 172 0 std::__ndk1::__hash_table<std::__ndk1::basic_string<char, std::__ndk1::char_traits<char>, std::__ndk1::allocator<char> >, std::__ndk1::hash<std::__ndk1::basic_string<char, std::__ndk1::char_traits<char>, std::__ndk1::allocator<char> > >, std::__ndk1::equal_to<std::__ndk1::basic_string<char, std::__ndk1::char_traits<char>, std::__ndk1::allocator<char> > >, std::__ndk1::allocator<std::__ndk1::basic_string<char, std::__ndk1::char_traits<char>, std::__ndk1::allocator<char> > > >::find<std::__ndk1::basic_string<char, std::__ndk1::char_traits<char>, std::__ndk1::allocator<char> > >(std::__ndk1::basic_string<char, std::__ndk1::char_traits<char>, std::__ndk1::allocator<char> > const&) const
FUNC 284ffc 360 0 std::__ndk1::__hash_table<std::__ndk1::__hash_value_type<std::__ndk1::basic_string<char, std::__ndk1::char_traits<char>, std::__ndk1::allocator<char> >, std::__ndk1::unique_ptr<geode::SettingValue, std::__ndk1::default_delete<geode::SettingValue> > >, std::__ndk1::__unordered_map_hasher<std::__ndk1::basic_string<char, std::__ndk1::char_traits<char>, std::__ndk1::allocator<char> >, std::__ndk1::__hash_value_type<std::__ndk1::basic_string<char, std::__ndk1::char_traits<char>, std::__ndk1::allocator<char> >, std::__ndk1::unique_ptr<geode::SettingValue, std::__ndk1::default_delete<geode::SettingValue> > >, std::__ndk1::hash<std::__ndk1::basic_string<char, std::__ndk1::char_traits<char>, std::__ndk1::allocator<char> > >, std::__ndk1::equal_to<std::__ndk1::basic_string<char, std::__ndk1::char_traits<char>, std::__ndk1::allocator<char> > >, true>, std::__ndk1::__unordered_map_equal<std::__ndk1::basic_string<char, std::__ndk1::char_traits<char>, std::__ndk1::allocator<char> >, std::__ndk1::__hash_value_type<std::__ndk1::basic_string<char, std::__ndk1::char_traits<char>, std::__ndk1::allocator<char> >, std::__ndk1::unique_ptr<geode::SettingValue, std::__ndk1::default_delete<geode::SettingValue> > >, std::__ndk1::equal_to<std::__ndk1::basic_string<char, std::__ndk1::char_traits<char>, std::__ndk1::allocator<char> > >, std::__ndk1::hash<std::__ndk1::basic_string<char, std::__ndk1::char_traits<char>, std::__ndk1::allocator<char> > >, true>, std::__ndk1::allocator<std::__ndk1::__hash_value_type<std::__ndk1::basic_string<char, std::__ndk1::char_traits<char>, std::__ndk1::allocator<char> >, std::__ndk1::unique_ptr<geode::SettingValue, std::__ndk1::default_delete<geode::SettingValue> > > > >::__emplace_unique_key_args<std::__ndk1::basic_string<char, std::__ndk1::char_traits<char>, std::__ndk1::allocator<char> >, std::__ndk1::basic_string<char, std::__ndk1::char_traits<char>, std::__ndk1::allocator<char> >&, std::__ndk1::unique_ptr<geode::SettingValue, std::__ndk1::default_delete<geode::SettingValue> > >(std::__ndk1::basic_string<char, std::__ndk1::char_traits<char>, std::__ndk1::allocator<char> > const&, std::__ndk1::basic_string<char, std::__ndk1::char_traits<char>, std::__ndk1::allocator<char> >&, std::__ndk1::unique_ptr<geode::SettingValue, std::__ndk1::default_delete<geode::SettingValue> >)
FUNC 28535c 9c 0 std::__ndk1::__hash_table<std::__ndk1::__hash_value_type<std::__ndk1::basic_string<char, std::__ndk1::char_traits<char>, std::__ndk1::allocator<char> >, std::__ndk1::unique_ptr<geode::SettingValue, std::__ndk1::default_delete<geode::SettingValue> > >, std::__ndk1::__unordered_map_hasher<std::__ndk1::basic_string<char, std::__ndk1::char_traits<char>, std::__ndk1::allocator<char> >, std::__ndk1::__hash_value_type<std::__ndk1::basic_string<char, std::__ndk1::char_traits<char>, std::__ndk1::allocator<char> >, std::__ndk1::unique_ptr<geode::SettingValue, std::__ndk1::default_delete<geode::SettingValue> > >, std::__ndk1::hash<std::__ndk1::basic_string<char, std::__ndk1::char_traits<char>, std::__ndk1::allocator<char> > >, std::__ndk1::equal_to<std::__ndk1::basic_string<char, std::__ndk1::char_traits<char>, std::__ndk1::allocator<char> > >, true>, std::__ndk1::__unordered_map_equal<std::__ndk1::basic_string<char, std::__ndk1::char_traits<char>, std::__ndk1::allocator<char> >, std::__ndk1::__hash_value_type<std::__ndk1::basic_string<char, std::__ndk1::char_traits<char>, std::__ndk1::allocator<char> >, std::__ndk1::unique_ptr<geode::SettingValue, std::__ndk1::default_delete<geode::SettingValue> > >, std::__ndk1::equal_to<std::__ndk1::basic_string<char, std::__ndk1::char_traits<char>, std::__ndk1::allocator<char> > >, std::__ndk1::hash<std::__ndk1::basic_string<char, std::__ndk1::char_traits<char>, std::__ndk1::allocator<char> > >, true>, std::__ndk1::allocator<std::__ndk1::__hash_value_type<std::__ndk1::basic_string<char, std::__ndk1::char_traits<char>, std::__ndk1::allocator<char> >, std::__ndk1::unique_ptr<geode::SettingValue, std::__ndk1::default_delete<geode::SettingValue> > > > >::__construct_node_hash<std::__ndk1::basic_string<char, std::__ndk1::char_traits<char>, std::__ndk1::allocator<char> >&, std::__ndk1::unique_ptr<geode::SettingValue, std::__ndk1::default_delete<geode::SettingValue> > >(unsigned int, std::__ndk1::basic_string<char, std::__ndk1::char_traits<char>, std::__ndk1::allocator<char> >&, std::__ndk1::unique_ptr<geode::SettingValue, std::__ndk1::default_delete<geode::SettingValue> >&&)
FUNC 2853f8 38 0 std::__ndk1::unique_ptr<std::__ndk1::__hash_node<std::__ndk1::__hash_value_type<std::__ndk1::basic_string<char, std::__ndk1::char_traits<char>, std::__ndk1::allocator<char> >, std::__ndk1::unique_ptr<geode::SettingValue, std::__ndk1::default_delete<geode::SettingValue> > >, void*>, std::__ndk1::__hash_node_destructor<std::__ndk1::allocator<std::__ndk1::__hash_node<std::__ndk1::__hash_value_type<std::__ndk1::basic_string<char, std::__ndk1::char_traits<char>, std::__ndk1::allocator<char> >, std::__ndk1::unique_ptr<geode::SettingValue, std::__ndk1::default_delete<geode::SettingValue> > >, void*> > > >::~unique_ptr[abi:v170000]()
FUNC 285430 10c 0 std::__ndk1::__hash_table<std::__ndk1::__hash_value_type<std::__ndk1::basic_string<char, std::__ndk1::char_traits<char>, std::__ndk1::allocator<char> >, std::__ndk1::unique_ptr<geode::SettingValue, std::__ndk1::default_delete<geode::SettingValue> > >, std::__ndk1::__unordered_map_hasher<std::__ndk1::basic_string<char, std::__ndk1::char_traits<char>, std::__ndk1::allocator<char> >, std::__ndk1::__hash_value_type<std::__ndk1::basic_string<char, std::__ndk1::char_traits<char>, std::__ndk1::allocator<char> >, std::__ndk1::unique_ptr<geode::SettingValue, std::__ndk1::default_delete<geode::SettingValue> > >, std::__ndk1::hash<std::__ndk1::basic_string<char, std::__ndk1::char_traits<char>, std::__ndk1::allocator<char> > >, std::__ndk1::equal_to<std::__ndk1::basic_string<char, std::__ndk1::char_traits<char>, std::__ndk1::allocator<char> > >, true>, std::__ndk1::__unordered_map_equal<std::__ndk1::basic_string<char, std::__ndk1::char_traits<char>, std::__ndk1::allocator<char> >, std::__ndk1::__hash_value_type<std::__ndk1::basic_string<char, std::__ndk1::char_traits<char>, std::__ndk1::allocator<char> >, std::__ndk1::unique_ptr<geode::SettingValue, std::__ndk1::default_delete<geode::SettingValue> > >, std::__ndk1::equal_to<std::__ndk1::basic_string<char, std::__ndk1::char_traits<char>, std::__ndk1::allocator<char> > >, std::__ndk1::hash<std::__ndk1::basic_string<char, std::__ndk1::char_traits<char>, std::__ndk1::allocator<char> > >, true>, std::__ndk1::allocator<std::__ndk1::__hash_value_type<std::__ndk1::basic_string<char, std::__ndk1::char_traits<char>, std::__ndk1::allocator<char> >, std::__ndk1::unique_ptr<geode::SettingValue, std::__ndk1::default_delete<geode::SettingValue> > > > >::__do_rehash<true>(unsigned int)
FUNC 28553c 172 0 std::__ndk1::__hash_table<std::__ndk1::__hash_value_type<std::__ndk1::basic_string<char, std::__ndk1::char_traits<char>, std::__ndk1::allocator<char> >, std::__ndk1::unique_ptr<geode::SettingValue, std::__ndk1::default_delete<geode::SettingValue> > >, std::__ndk1::__unordered_map_hasher<std::__ndk1::basic_string<char, std::__ndk1::char_traits<char>, std::__ndk1::allocator<char> >, std::__ndk1::__hash_value_type<std::__ndk1::basic_string<char, std::__ndk1::char_traits<char>, std::__ndk1::allocator<char> >, std::__ndk1::unique_ptr<geode::SettingValue, std::__ndk1::default_delete<geode::SettingValue> > >, std::__ndk1::hash<std::__ndk1::basic_string<char, std::__ndk1::char_traits<char>, std::__ndk1::allocator<char> > >, std::__ndk1::equal_to<std::__ndk1::basic_string<char, std::__ndk1::char_traits<char>, std::__ndk1::allocator<char> > >, true>, std::__ndk1::__unordered_map_equal<std::__ndk1::basic_string<char, std::__ndk1::char_traits<char>, std::__ndk1::allocator<char> >, std::__ndk1::__hash_value_type<std::__ndk1::basic_string<char, std::__ndk1::char_traits<char>, std::__ndk1::allocator<char> >, std::__ndk1::unique_ptr<geode::SettingValue, std::__ndk1::default_delete<geode::SettingValue> > >, std::__ndk1::equal_to<std::__ndk1::basic_string<char, std::__ndk1::char_traits<char>, std::__ndk1::allocator<char> > >, std::__ndk1::hash<std::__ndk1::basic_string<char, std::__ndk1::char_traits<char>, std::__ndk1::allocator<char> > >, true>, std::__ndk1::allocator<std::__ndk1::__hash_value_type<std::__ndk1::basic_string<char, std::__ndk1::char_traits<char>, std::__ndk1::allocator<char> >, std::__ndk1::unique_ptr<geode::SettingValue, std::__ndk1::default_delete<geode::SettingValue> > > > >::find<std::__ndk1::basic_string<char, std::__ndk1::char_traits<char>, std::__ndk1::allocator<char> > >(std::__ndk1::basic_string<char, std::__ndk1::char_traits<char>, std::__ndk1::allocator<char> > const&) const
FUNC 2856ae 172 0 std::__ndk1::__hash_table<std::__ndk1::__hash_value_type<std::__ndk1::basic_string<char, std::__ndk1::char_traits<char>, std::__ndk1::allocator<char> >, char const*>, std::__ndk1::__unordered_map_hasher<std::__ndk1::basic_string<char, std::__ndk1::char_traits<char>, std::__ndk1::allocator<char> >, std::__ndk1::__hash_value_type<std::__ndk1::basic_string<char, std::__ndk1::char_traits<char>, std::__ndk1::allocator<char> >, char const*>, std::__ndk1::hash<std::__ndk1::basic_string<char, std::__ndk1::char_traits<char>, std::__ndk1::allocator<char> > >, std::__ndk1::equal_to<std::__ndk1::basic_string<char, std::__ndk1::char_traits<char>, std::__ndk1::allocator<char> > >, true>, std::__ndk1::__unordered_map_equal<std::__ndk1::basic_string<char, std::__ndk1::char_traits<char>, std::__ndk1::allocator<char> >, std::__ndk1::__hash_value_type<std::__ndk1::basic_string<char, std::__ndk1::char_traits<char>, std::__ndk1::allocator<char> >, char const*>, std::__ndk1::equal_to<std::__ndk1::basic_string<char, std::__ndk1::char_traits<char>, std::__ndk1::allocator<char> > >, std::__ndk1::hash<std::__ndk1::basic_string<char, std::__ndk1::char_traits<char>, std::__ndk1::allocator<char> > >, true>, std::__ndk1::allocator<std::__ndk1::__hash_value_type<std::__ndk1::basic_string<char, std::__ndk1::char_traits<char>, std::__ndk1::allocator<char> >, char const*> > >::find<std::__ndk1::basic_string<char, std::__ndk1::char_traits<char>, std::__ndk1::allocator<char> > >(std::__ndk1::basic_string<char, std::__ndk1::char_traits<char>, std::__ndk1::allocator<char> > const&) const
FUNC 285820 370 0 std::__ndk1::__hash_table<std::__ndk1::__hash_value_type<std::__ndk1::basic_string<char, std::__ndk1::char_traits<char>, std::__ndk1::allocator<char> >, char const*>, std::__ndk1::__unordered_map_hasher<std::__ndk1::basic_string<char, std::__ndk1::char_traits<char>, std::__ndk1::allocator<char> >, std::__ndk1::__hash_value_type<std::__ndk1::basic_string<char, std::__ndk1::char_traits<char>, std::__ndk1::allocator<char> >, char const*>, std::__ndk1::hash<std::__ndk1::basic_string<char, std::__ndk1::char_traits<char>, std::__ndk1::allocator<char> > >, std::__ndk1::equal_to<std::__ndk1::basic_string<char, std::__ndk1::char_traits<char>, std::__ndk1::allocator<char> > >, true>, std::__ndk1::__unordered_map_equal<std::__ndk1::basic_string<char, std::__ndk1::char_traits<char>, std::__ndk1::allocator<char> >, std::__ndk1::__hash_value_type<std::__ndk1::basic_string<char, std::__ndk1::char_traits<char>, std::__ndk1::allocator<char> >, char const*>, std::__ndk1::equal_to<std::__ndk1::basic_string<char, std::__ndk1::char_traits<char>, std::__ndk1::allocator<char> > >, std::__ndk1::hash<std::__ndk1::basic_string<char, std::__ndk1::char_traits<char>, std::__ndk1::allocator<char> > >, true>, std::__ndk1::allocator<std::__ndk1::__hash_value_type<std::__ndk1::basic_string<char, std::__ndk1::char_traits<char>, std::__ndk1::allocator<char> >, char const*> > >::__emplace_unique_key_args<std::__ndk1::basic_string<char, std::__ndk1::char_traits<char>, std::__ndk1::allocator<char> >, std::__ndk1::piecewise_construct_t const&, std::__ndk1::tuple<std::__ndk1::basic_string<char, std::__ndk1::char_traits<char>, std::__ndk1::allocator<char> >&&>, std::__ndk1::tuple<> >(std::__ndk1::basic_string<char, std::__ndk1::char_traits<char>, std::__ndk1::allocator<char> > const&, std::__ndk1::piecewise_construct_t const&, std::__ndk1::tuple<std::__ndk1::basic_string<char, std::__ndk1::char_traits<char>, std::__ndk1::allocator<char> >&&>, std::__ndk1::tuple<>)
FUNC 285b90 2a 0 std::__ndk1::unique_ptr<std::__ndk1::__hash_node<std::__ndk1::__hash_value_type<std::__ndk1::basic_string<char, std::__ndk1::char_traits<char>, std::__ndk1::allocator<char> >, char const*>, void*>, std::__ndk1::__hash_node_destructor<std::__ndk1::allocator<std::__ndk1::__hash_node<std::__ndk1::__hash_value_type<std::__ndk1::basic_string<char, std::__ndk1::char_traits<char>, std::__ndk1::allocator<char> >, char const*>, void*> > > >::~unique_ptr[abi:v170000]()
FUNC 285bba 10c 0 std::__ndk1::__hash_table<std::__ndk1::__hash_value_type<std::__ndk1::basic_string<char, std::__ndk1::char_traits<char>, std::__ndk1::allocator<char> >, char const*>, std::__ndk1::__unordered_map_hasher<std::__ndk1::basic_string<char, std::__ndk1::char_traits<char>, std::__ndk1::allocator<char> >, std::__ndk1::__hash_value_type<std::__ndk1::basic_string<char, std::__ndk1::char_traits<char>, std::__ndk1::allocator<char> >, char const*>, std::__ndk1::hash<std::__ndk1::basic_string<char, std::__ndk1::char_traits<char>, std::__ndk1::allocator<char> > >, std::__ndk1::equal_to<std::__ndk1::basic_string<char, std::__ndk1::char_traits<char>, std::__ndk1::allocator<char> > >, true>, std::__ndk1::__unordered_map_equal<std::__ndk1::basic_string<char, std::__ndk1::char_traits<char>, std::__ndk1::allocator<char> >, std::__ndk1::__hash_value_type<std::__ndk1::basic_string<char, std::__ndk1::char_traits<char>, std::__ndk1::allocator<char> >, char const*>, std::__ndk1::equal_to<std::__ndk1::basic_string<char, std::__ndk1::char_traits<char>, std::__ndk1::allocator<char> > >, std::__ndk1::hash<std::__ndk1::basic_string<char, std::__ndk1::char_traits<char>, std::__ndk1::allocator<char> > >, true>, std::__ndk1::allocator<std::__ndk1::__hash_value_type<std::__ndk1::basic_string<char, std::__ndk1::char_traits<char>, std::__ndk1::allocator<char> >, char const*> > >::__do_rehash<true>(unsigned int)
FUNC 285cc8 370 0 std::__ndk1::__hash_table<std::__ndk1::__hash_value_type<std::__ndk1::basic_string<char, std::__ndk1::char_traits<char>, std::__ndk1::allocator<char> >, geode::Mod*>, std::__ndk1::__unordered_map_hasher<std::__ndk1::basic_string<char, std::__ndk1::char_traits<char>, std::__ndk1::allocator<char> >, std::__ndk1::__hash_value_type<std::__ndk1::basic_string<char, std::__ndk1::char_traits<char>, std::__ndk1::allocator<char> >, geode::Mod*>, std::__ndk1::hash<std::__ndk1::basic_string<char, std::__ndk1::char_traits<char>, std::__ndk1::allocator<char> > >, std::__ndk1::equal_to<std::__ndk1::basic_string<char, std::__ndk1::char_traits<char>, std::__ndk1::allocator<char> > >, true>, std::__ndk1::__unordered_map_equal<std::__ndk1::basic_string<char, std::__ndk1::char_traits<char>, std::__ndk1::allocator<char> >, std::__ndk1::__hash_value_type<std::__ndk1::basic_string<char, std::__ndk1::char_traits<char>, std::__ndk1::allocator<char> >, geode::Mod*>, std::__ndk1::equal_to<std::__ndk1::basic_string<char, std::__ndk1::char_traits<char>, std::__ndk1::allocator<char> > >, std::__ndk1::hash<std::__ndk1::basic_string<char, std::__ndk1::char_traits<char>, std::__ndk1::allocator<char> > >, true>, std::__ndk1::allocator<std::__ndk1::__hash_value_type<std::__ndk1::basic_string<char, std::__ndk1::char_traits<char>, std::__ndk1::allocator<char> >, geode::Mod*> > >::__emplace_unique_key_args<std::__ndk1::basic_string<char, std::__ndk1::char_traits<char>, std::__ndk1::allocator<char> >, std::__ndk1::piecewise_construct_t const&, std::__ndk1::tuple<std::__ndk1::basic_string<char, std::__ndk1::char_traits<char>, std::__ndk1::allocator<char> >&&>, std::__ndk1::tuple<> >(std::__ndk1::basic_string<char, std::__ndk1::char_traits<char>, std::__ndk1::allocator<char> > const&, std::__ndk1::piecewise_construct_t const&, std::__ndk1::tuple<std::__ndk1::basic_string<char, std::__ndk1::char_traits<char>, std::__ndk1::allocator<char> >&&>, std::__ndk1::tuple<>)
FUNC 286038 4 0 geode::ModMetadataImpl::getImpl(geode::ModMetadata&)
FUNC 28603c 64 0 geode::ModMetadata::Dependency::isResolved() const
FUNC 2860a0 58 0 geode::ModMetadata::Incompatibility::isResolved() const
FUNC 2860f8 46 0 geode::ModMetadata::Impl::validateOldID(std::__ndk1::basic_string<char, std::__ndk1::char_traits<char>, std::__ndk1::allocator<char> > const&)
FUNC 28613e 4c 0 geode::ModMetadata::Impl::validateID(std::__ndk1::basic_string<char, std::__ndk1::char_traits<char>, std::__ndk1::allocator<char> > const&)
FUNC 28618a 98 0 geode::ModMetadata::Impl::isDeprecatedIDForm(std::__ndk1::basic_string<char, std::__ndk1::char_traits<char>, std::__ndk1::allocator<char> > const&)
FUNC 286224 1f0c 0 geode::ModMetadata::Impl::createFromSchemaV010(matjson::Value const&)
FUNC 288130 330 0 geode::JsonMaybeValue::validate<std::__ndk1::basic_string<char, std::__ndk1::char_traits<char>, std::__ndk1::allocator<char> > >(geode::utils::MiniFunction<bool (std::__ndk1::basic_string<char, std::__ndk1::char_traits<char>, std::__ndk1::allocator<char> > const&)>)
FUNC 288460 68 0 geode::ModMetadata::getID() const
FUNC 2884c8 c0 0 geode::Result<geode::Setting, std::__ndk1::basic_string<char, std::__ndk1::char_traits<char>, std::__ndk1::allocator<char> > >::unwrap() &
FUNC 288588 74 0 geode::Setting::~Setting()
FUNC 2885fc 78 0 cpp::bitwizeshift::result<geode::Setting, std::__ndk1::basic_string<char, std::__ndk1::char_traits<char>, std::__ndk1::allocator<char> > >::~result()
FUNC 288674 33c 0 geode::JsonMaybeValue::intoAs<std::__ndk1::basic_string<char, std::__ndk1::char_traits<char>, std::__ndk1::allocator<char> >, std::__ndk1::optional<std::__ndk1::basic_string<char, std::__ndk1::char_traits<char>, std::__ndk1::allocator<char> > > >(std::__ndk1::optional<std::__ndk1::basic_string<char, std::__ndk1::char_traits<char>, std::__ndk1::allocator<char> > >&)
FUNC 2889b0 28 0 geode::ModMetadata::IssuesInfo::~IssuesInfo()
FUNC 2889d8 39c 0 geode::ModMetadata::Impl::create(matjson::Value const&)
FUNC 288d74 15c 0 geode::Result<geode::VersionInfo, std::__ndk1::basic_string<char, std::__ndk1::char_traits<char>, std::__ndk1::allocator<char> > >::expect<>(std::__ndk1::basic_string<char, std::__ndk1::char_traits<char>, std::__ndk1::allocator<char> > const&, &&)
FUNC 288ed0 74 0 geode::Result<geode::VersionInfo, std::__ndk1::basic_string<char, std::__ndk1::char_traits<char>, std::__ndk1::allocator<char> > >::unwrapErr() &
FUNC 288f44 bc 0 geode::Result<geode::VersionInfo, std::__ndk1::basic_string<char, std::__ndk1::char_traits<char>, std::__ndk1::allocator<char> > >::unwrap() &
FUNC 289000 3e 0 std::__ndk1::operator+[abi:v170000]<char, std::__ndk1::char_traits<char>, std::__ndk1::allocator<char> >(std::__ndk1::basic_string const*, std::__ndk1::allocator<char>&&)
FUNC 289040 3fc 0 geode::ModMetadata::Impl::createFromFile(ghc::filesystem::path const&)
FUNC 28943c a 0 geode::ModMetadata::create(matjson::Value const&)
FUNC 289446 c 0 geode::ModMetadata::addSpecialFiles(ghc::filesystem::path const&)
FUNC 289454 108 0 geode::ModMetadata::Impl::createFromGeodeFile(ghc::filesystem::path const&)
FUNC 28955c a 0 geode::ModMetadata::createFromGeodeZip(geode::utils::file::Unzip&)
FUNC 289568 844 0 geode::ModMetadata::Impl::createFromGeodeZip(geode::utils::file::Unzip&)
FUNC 289dac 158 0 geode::Result<std::__ndk1::vector<unsigned char, std::__ndk1::allocator<unsigned char> >, std::__ndk1::basic_string<char, std::__ndk1::char_traits<char>, std::__ndk1::allocator<char> > >::expect<>(std::__ndk1::basic_string<char, std::__ndk1::char_traits<char>, std::__ndk1::allocator<char> > const&, &&)
FUNC 289f04 22 0 cpp::bitwizeshift::result<std::__ndk1::vector<unsigned char, std::__ndk1::allocator<unsigned char> >, std::__ndk1::basic_string<char, std::__ndk1::char_traits<char>, std::__ndk1::allocator<char> > >::~result()
FUNC 289f28 bc 0 geode::Result<std::__ndk1::vector<unsigned char, std::__ndk1::allocator<unsigned char> >, std::__ndk1::basic_string<char, std::__ndk1::char_traits<char>, std::__ndk1::allocator<char> > >::unwrap() &
FUNC 289fe4 c 0 geode::ModMetadata::addSpecialFiles(geode::utils::file::Unzip&)
FUNC 289ff0 4b4 0 geode::ModMetadata::Impl::addSpecialFiles(geode::utils::file::Unzip&)
FUNC 28a4a4 158 0 geode::ModMetadata::Impl::getSpecialFiles()
FUNC 28a5fc 18c 0 geode::Result<std::__ndk1::vector<unsigned char, std::__ndk1::allocator<unsigned char> >, std::__ndk1::basic_string<char, std::__ndk1::char_traits<char>, std::__ndk1::allocator<char> > >::expect<std::__ndk1::basic_string<char, std::__ndk1::char_traits<char>, std::__ndk1::allocator<char> >&>(std::__ndk1::basic_string<char, std::__ndk1::char_traits<char>, std::__ndk1::allocator<char> > const&, std::__ndk1::basic_string<char, std::__ndk1::char_traits<char>, std::__ndk1::allocator<char> >&)
FUNC 28a788 84 0 sanitizeDetailsData(std::__ndk1::basic_string<char, std::__ndk1::char_traits<char>, std::__ndk1::allocator<char> > const&)
FUNC 28a80c 3e 0 std::__ndk1::vector<std::__ndk1::pair<std::__ndk1::basic_string<char, std::__ndk1::char_traits<char>, std::__ndk1::allocator<char> >, std::__ndk1::optional<std::__ndk1::basic_string<char, std::__ndk1::char_traits<char>, std::__ndk1::allocator<char> > >*>, std::__ndk1::allocator<std::__ndk1::pair<std::__ndk1::basic_string<char, std::__ndk1::char_traits<char>, std::__ndk1::allocator<char> >, std::__ndk1::optional<std::__ndk1::basic_string<char, std::__ndk1::char_traits<char>, std::__ndk1::allocator<char> > >*> > >::~vector[abi:v170000]()
FUNC 28a84c 4e0 0 geode::ModMetadata::Impl::addSpecialFiles(ghc::filesystem::path const&)
FUNC 28ad2c 13c 0 geode::ModMetadata::Impl::toJSON() const
FUNC 28ae68 e 0 geode::ModMetadata::Impl::getRawJSON() const
FUNC 28ae76 86 0 geode::ModMetadata::Impl::operator==(geode::ModMetadata::Impl const&) const
FUNC 28aefc c 0 geode::ModMetadata::getPath() const
FUNC 28af08 68 0 geode::ModMetadata::getBinaryName() const
FUNC 28af70 18 0 geode::ModMetadata::getVersion() const
FUNC 28af88 9e 0 geode::ModMetadata::usesDeprecatedIDForm() const
FUNC 28b026 68 0 geode::ModMetadata::getName() const
FUNC 28b08e 76 0 geode::ModMetadata::getDeveloper() const
FUNC 28b104 2dc 0 geode::ModMetadata::formatDeveloperDisplayString(std::__ndk1::vector<std::__ndk1::basic_string<char, std::__ndk1::char_traits<char>, std::__ndk1::allocator<char> >, std::__ndk1::allocator<std::__ndk1::basic_string<char, std::__ndk1::char_traits<char>, std::__ndk1::allocator<char> > > > const&)
FUNC 28b3e0 e 0 geode::ModMetadata::getDevelopers() const
FUNC 28b3ee e 0 geode::ModMetadata::getDescription() const
FUNC 28b3fc e 0 geode::ModMetadata::getDetails() const
FUNC 28b40a e 0 geode::ModMetadata::getChangelog() const
FUNC 28b418 e 0 geode::ModMetadata::getSupportInfo() const
FUNC 28b426 e 0 geode::ModMetadata::getRepository() const
FUNC 28b434 4a 0 geode::ModMetadata::getIssues() const
FUNC 28b47e e 0 geode::ModMetadata::getDependencies() const
FUNC 28b48c a8 0 std::__ndk1::vector<geode::ModMetadata::Dependency, std::__ndk1::allocator<geode::ModMetadata::Dependency> >::vector(std::__ndk1::vector<geode::ModMetadata::Dependency, std::__ndk1::allocator<geode::ModMetadata::Dependency> > const&)
FUNC 28b534 e 0 geode::ModMetadata::getIncompatibilities() const
FUNC 28b544 a8 0 std::__ndk1::vector<geode::ModMetadata::Incompatibility, std::__ndk1::allocator<geode::ModMetadata::Incompatibility> >::vector(std::__ndk1::vector<geode::ModMetadata::Incompatibility, std::__ndk1::allocator<geode::ModMetadata::Incompatibility> > const&)
FUNC 28b5ec 10 0 geode::ModMetadata::getSpritesheets() const
FUNC 28b5fc 10 0 geode::ModMetadata::getSettings() const
FUNC 28b60c d0 0 std::__ndk1::vector<std::__ndk1::pair<std::__ndk1::basic_string<char, std::__ndk1::char_traits<char>, std::__ndk1::allocator<char> >, geode::Setting>, std::__ndk1::allocator<std::__ndk1::pair<std::__ndk1::basic_string<char, std::__ndk1::char_traits<char>, std::__ndk1::allocator<char> >, geode::Setting> > >::vector(std::__ndk1::vector<std::__ndk1::pair<std::__ndk1::basic_string<char, std::__ndk1::char_traits<char>, std::__ndk1::allocator<char> >, geode::Setting>, std::__ndk1::allocator<std::__ndk1::pair<std::__ndk1::basic_string<char, std::__ndk1::char_traits<char>, std::__ndk1::allocator<char> >, geode::Setting> > > const&)
FUNC 28b6dc 8 0 geode::ModMetadata::needsEarlyLoad() const
FUNC 28b6e4 8 0 geode::ModMetadata::isAPI() const
FUNC 28b6ec 76 0 geode::ModMetadata::getGameVersion() const
FUNC 28b762 18 0 geode::ModMetadata::getGeodeVersion() const
FUNC 28b780 1c0 0 geode::ModMetadata::checkGameVersion() const
FUNC 28b940 6 0 geode::ModMetadata::setPath(ghc::filesystem::path const&)
FUNC 28b946 8 0 geode::ModMetadata::setBinaryName(std::__ndk1::basic_string<char, std::__ndk1::char_traits<char>, std::__ndk1::allocator<char> > const&)
FUNC 28b94e 18 0 geode::ModMetadata::setVersion(geode::VersionInfo const&)
FUNC 28b966 8 0 geode::ModMetadata::setID(std::__ndk1::basic_string<char, std::__ndk1::char_traits<char>, std::__ndk1::allocator<char> > const&)
FUNC 28b96e 8 0 geode::ModMetadata::setName(std::__ndk1::basic_string<char, std::__ndk1::char_traits<char>, std::__ndk1::allocator<char> > const&)
FUNC 28b978 b4 0 geode::ModMetadata::setDeveloper(std::__ndk1::basic_string<char, std::__ndk1::char_traits<char>, std::__ndk1::allocator<char> > const&)
FUNC 28ba2c 14 0 geode::ModMetadata::setDevelopers(std::__ndk1::vector<std::__ndk1::basic_string<char, std::__ndk1::char_traits<char>, std::__ndk1::allocator<char> >, std::__ndk1::allocator<std::__ndk1::basic_string<char, std::__ndk1::char_traits<char>, std::__ndk1::allocator<char> > > > const&)
FUNC 28ba40 8 0 geode::ModMetadata::setDescription(std::__ndk1::optional<std::__ndk1::basic_string<char, std::__ndk1::char_traits<char>, std::__ndk1::allocator<char> > > const&)
FUNC 28ba48 8 0 geode::ModMetadata::setDetails(std::__ndk1::optional<std::__ndk1::basic_string<char, std::__ndk1::char_traits<char>, std::__ndk1::allocator<char> > > const&)
FUNC 28ba50 8 0 geode::ModMetadata::setChangelog(std::__ndk1::optional<std::__ndk1::basic_string<char, std::__ndk1::char_traits<char>, std::__ndk1::allocator<char> > > const&)
FUNC 28ba58 8 0 geode::ModMetadata::setSupportInfo(std::__ndk1::optional<std::__ndk1::basic_string<char, std::__ndk1::char_traits<char>, std::__ndk1::allocator<char> > > const&)
FUNC 28ba60 8 0 geode::ModMetadata::setRepository(std::__ndk1::optional<std::__ndk1::basic_string<char, std::__ndk1::char_traits<char>, std::__ndk1::allocator<char> > > const&)
FUNC 28ba68 8 0 geode::ModMetadata::setIssues(std::__ndk1::optional<geode::ModMetadata::IssuesInfo> const&)
FUNC 28ba70 14 0 geode::ModMetadata::setDependencies(std::__ndk1::vector<geode::ModMetadata::Dependency, std::__ndk1::allocator<geode::ModMetadata::Dependency> > const&)
FUNC 28ba84 14 0 geode::ModMetadata::setIncompatibilities(std::__ndk1::vector<geode::ModMetadata::Incompatibility, std::__ndk1::allocator<geode::ModMetadata::Incompatibility> > const&)
FUNC 28ba98 16 0 geode::ModMetadata::setSpritesheets(std::__ndk1::vector<std::__ndk1::basic_string<char, std::__ndk1::char_traits<char>, std::__ndk1::allocator<char> >, std::__ndk1::allocator<std::__ndk1::basic_string<char, std::__ndk1::char_traits<char>, std::__ndk1::allocator<char> > > > const&)
FUNC 28baae 16 0 geode::ModMetadata::setSettings(std::__ndk1::vector<std::__ndk1::pair<std::__ndk1::basic_string<char, std::__ndk1::char_traits<char>, std::__ndk1::allocator<char> >, geode::Setting>, std::__ndk1::allocator<std::__ndk1::pair<std::__ndk1::basic_string<char, std::__ndk1::char_traits<char>, std::__ndk1::allocator<char> >, geode::Setting> > > const&)
FUNC 28bac4 a 0 geode::ModMetadata::setNeedsEarlyLoad(bool const&)
FUNC 28bace a 0 geode::ModMetadata::setIsAPI(bool const&)
FUNC 28bad8 a 0 geode::ModMetadata::createFromGeodeFile(ghc::filesystem::path const&)
FUNC 28bae2 a 0 geode::ModMetadata::createFromFile(ghc::filesystem::path const&)
FUNC 28baec c 0 geode::ModMetadata::toJSON() const
FUNC 28baf8 10 0 geode::ModMetadata::getRawJSON() const
FUNC 28bb08 8c 0 geode::ModMetadata::operator==(geode::ModMetadata const&) const
FUNC 28bb94 4c 0 geode::ModMetadata::validateID(std::__ndk1::basic_string<char, std::__ndk1::char_traits<char>, std::__ndk1::allocator<char> > const&)
FUNC 28bbe0 a 0 geode::ModMetadata::createFromSchemaV010(matjson::Value const&)
FUNC 28bbea c 0 geode::ModMetadata::getSpecialFiles()
FUNC 28bbf6 2e 0 geode::ModMetadata::ModMetadata()
FUNC 28bc24 5a 0 geode::ModMetadata::ModMetadata(std::__ndk1::basic_string<char, std::__ndk1::char_traits<char>, std::__ndk1::allocator<char> >)
FUNC 28bc7e 30 0 geode::ModMetadata::ModMetadata(geode::ModMetadata const&)
FUNC 28bcae a 0 geode::ModMetadata::ModMetadata(geode::ModMetadata&&)
FUNC 28bcb8 3c 0 geode::ModMetadata::operator=(geode::ModMetadata const&)
FUNC 28bcf4 1e 0 geode::ModMetadata::operator=(geode::ModMetadata&&)
FUNC 28bd12 1a 0 geode::ModMetadata::~ModMetadata()
FUNC 28bd2c 124 0 matjson::Serialize<geode::VersionInfo>::from_json(matjson::Value const&)
FUNC 28be50 14c 0 std::__ndk1::vector<std::__ndk1::basic_string<char, std::__ndk1::char_traits<char>, std::__ndk1::allocator<char> >, std::__ndk1::allocator<std::__ndk1::basic_string<char, std::__ndk1::char_traits<char>, std::__ndk1::allocator<char> > > >::assign<std::__ndk1::basic_string<char, std::__ndk1::char_traits<char>, std::__ndk1::allocator<char> > const*, 0>(std::__ndk1::basic_string<char, std::__ndk1::char_traits<char>, std::__ndk1::allocator<char> > const*, std::__ndk1::basic_string<char, std::__ndk1::char_traits<char>, std::__ndk1::allocator<char> > const*)
FUNC 28bf9c c8 0 std::__ndk1::__uninitialized_allocator_copy[abi:v170000]<std::__ndk1::allocator<std::__ndk1::basic_string<char, std::__ndk1::char_traits<char>, std::__ndk1::__uninitialized_allocator_copy[abi:v170000]<char> > >, std::__ndk1::__uninitialized_allocator_copy[abi:v170000]<char> const*, std::__ndk1::__uninitialized_allocator_copy[abi:v170000]<char> const, std::__ndk1::__uninitialized_allocator_copy[abi:v170000]<char>*>(std::__ndk1::allocator<std::__ndk1::basic_string<char, std::__ndk1::char_traits<char>, std::__ndk1::__uninitialized_allocator_copy[abi:v170000]<char> > >&, std::__ndk1::__uninitialized_allocator_copy[abi:v170000]<char> const*, std::__ndk1::__uninitialized_allocator_copy[abi:v170000]<char> const, std::__ndk1::__uninitialized_allocator_copy[abi:v170000]<char>*)
FUNC 28c064 13e 0 std::__ndk1::vector<geode::ModMetadata::Dependency, std::__ndk1::allocator<geode::ModMetadata::Dependency> >::__push_back_slow_path<geode::ModMetadata::Dependency>(geode::ModMetadata::Dependency&&)
FUNC 28c1a2 3c 0 std::__ndk1::__split_buffer<geode::ModMetadata::Dependency, std::__ndk1::allocator<geode::ModMetadata::Dependency>&>::~__split_buffer()
FUNC 28c1e0 10 0 std::__ndk1::vector<geode::ModMetadata::Dependency, std::__ndk1::allocator<geode::ModMetadata::Dependency> >::__throw_length_error[abi:v170000]() const
FUNC 28c1f0 1fc 0 std::__ndk1::vector<geode::ModMetadata::Dependency, std::__ndk1::allocator<geode::ModMetadata::Dependency> >::__push_back_slow_path<geode::ModMetadata::Dependency const&>(geode::ModMetadata::Dependency const&)
FUNC 28c3ec 1fc 0 std::__ndk1::vector<geode::ModMetadata::Incompatibility, std::__ndk1::allocator<geode::ModMetadata::Incompatibility> >::__push_back_slow_path<geode::ModMetadata::Incompatibility const&>(geode::ModMetadata::Incompatibility const&)
FUNC 28c5e8 3c 0 std::__ndk1::__split_buffer<geode::ModMetadata::Incompatibility, std::__ndk1::allocator<geode::ModMetadata::Incompatibility>&>::~__split_buffer()
FUNC 28c624 10 0 std::__ndk1::vector<geode::ModMetadata::Incompatibility, std::__ndk1::allocator<geode::ModMetadata::Incompatibility> >::__throw_length_error[abi:v170000]() const
FUNC 28c634 4a 0 geode::FileSetting::~FileSetting()
FUNC 28c67e 4e 0 _ZNSt6__ndk116__variant_detail12__visitation6__base12__dispatcherIJLj0ELj0EEE10__dispatchB7v170000IOZNS0_6__ctorINS0_8__traitsIJN5geode11BoolSettingENS8_10IntSettingENS8_12FloatSettingENS8_13StringSettingENS8_11FileSettingENS8_12ColorSettingENS8_17ColorAlphaSettingENS8_13CustomSettingEEEEE19__generic_constructB7v170000INS0_18__move_constructorISH_LNS0_6_TraitE1EEEEEvRSI_OT_EUlRSO_OT0_E_JRNS0_6__baseILSL_1EJS9_SA_SB_SC_SD_SE_SF_SG_EEEOSW_EEEDcSO_DpT0_
FUNC 28c6cc 58 0 _ZNSt6__ndk116__variant_detail12__visitation6__base12__dispatcherIJLj1ELj1EEE10__dispatchB7v170000IOZNS0_6__ctorINS0_8__traitsIJN5geode11BoolSettingENS8_10IntSettingENS8_12FloatSettingENS8_13StringSettingENS8_11FileSettingENS8_12ColorSettingENS8_17ColorAlphaSettingENS8_13CustomSettingEEEEE19__generic_constructB7v170000INS0_18__move_constructorISH_LNS0_6_TraitE1EEEEEvRSI_OT_EUlRSO_OT0_E_JRNS0_6__baseILSL_1EJS9_SA_SB_SC_SD_SE_SF_SG_EEEOSW_EEEDcSO_DpT0_
FUNC 28c724 58 0 _ZNSt6__ndk116__variant_detail12__visitation6__base12__dispatcherIJLj2ELj2EEE10__dispatchB7v170000IOZNS0_6__ctorINS0_8__traitsIJN5geode11BoolSettingENS8_10IntSettingENS8_12FloatSettingENS8_13StringSettingENS8_11FileSettingENS8_12ColorSettingENS8_17ColorAlphaSettingENS8_13CustomSettingEEEEE19__generic_constructB7v170000INS0_18__move_constructorISH_LNS0_6_TraitE1EEEEEvRSI_OT_EUlRSO_OT0_E_JRNS0_6__baseILSL_1EJS9_SA_SB_SC_SD_SE_SF_SG_EEEOSW_EEEDcSO_DpT0_
FUNC 28c77c b6 0 _ZNSt6__ndk116__variant_detail12__visitation6__base12__dispatcherIJLj3ELj3EEE10__dispatchB7v170000IOZNS0_6__ctorINS0_8__traitsIJN5geode11BoolSettingENS8_10IntSettingENS8_12FloatSettingENS8_13StringSettingENS8_11FileSettingENS8_12ColorSettingENS8_17ColorAlphaSettingENS8_13CustomSettingEEEEE19__generic_constructB7v170000INS0_18__move_constructorISH_LNS0_6_TraitE1EEEEEvRSI_OT_EUlRSO_OT0_E_JRNS0_6__baseILSL_1EJS9_SA_SB_SC_SD_SE_SF_SG_EEEOSW_EEEDcSO_DpT0_
FUNC 28c832 74 0 _ZNSt6__ndk116__variant_detail12__visitation6__base12__dispatcherIJLj4ELj4EEE10__dispatchB7v170000IOZNS0_6__ctorINS0_8__traitsIJN5geode11BoolSettingENS8_10IntSettingENS8_12FloatSettingENS8_13StringSettingENS8_11FileSettingENS8_12ColorSettingENS8_17ColorAlphaSettingENS8_13CustomSettingEEEEE19__generic_constructB7v170000INS0_18__move_constructorISH_LNS0_6_TraitE1EEEEEvRSI_OT_EUlRSO_OT0_E_JRNS0_6__baseILSL_1EJS9_SA_SB_SC_SD_SE_SF_SG_EEEOSW_EEEDcSO_DpT0_
FUNC 28c8a6 52 0 _ZNSt6__ndk116__variant_detail12__visitation6__base12__dispatcherIJLj5ELj5EEE10__dispatchB7v170000IOZNS0_6__ctorINS0_8__traitsIJN5geode11BoolSettingENS8_10IntSettingENS8_12FloatSettingENS8_13StringSettingENS8_11FileSettingENS8_12ColorSettingENS8_17ColorAlphaSettingENS8_13CustomSettingEEEEE19__generic_constructB7v170000INS0_18__move_constructorISH_LNS0_6_TraitE1EEEEEvRSI_OT_EUlRSO_OT0_E_JRNS0_6__baseILSL_1EJS9_SA_SB_SC_SD_SE_SF_SG_EEEOSW_EEEDcSO_DpT0_
FUNC 28c8f8 4a 0 _ZNSt6__ndk116__variant_detail12__visitation6__base12__dispatcherIJLj6ELj6EEE10__dispatchB7v170000IOZNS0_6__ctorINS0_8__traitsIJN5geode11BoolSettingENS8_10IntSettingENS8_12FloatSettingENS8_13StringSettingENS8_11FileSettingENS8_12ColorSettingENS8_17ColorAlphaSettingENS8_13CustomSettingEEEEE19__generic_constructB7v170000INS0_18__move_constructorISH_LNS0_6_TraitE1EEEEEvRSI_OT_EUlRSO_OT0_E_JRNS0_6__baseILSL_1EJS9_SA_SB_SC_SD_SE_SF_SG_EEEOSW_EEEDcSO_DpT0_
FUNC 28c942 10 0 _ZNSt6__ndk116__variant_detail12__visitation6__base12__dispatcherIJLj7ELj7EEE10__dispatchB7v170000IOZNS0_6__ctorINS0_8__traitsIJN5geode11BoolSettingENS8_10IntSettingENS8_12FloatSettingENS8_13StringSettingENS8_11FileSettingENS8_12ColorSettingENS8_17ColorAlphaSettingENS8_13CustomSettingEEEEE19__generic_constructB7v170000INS0_18__move_constructorISH_LNS0_6_TraitE1EEEEEvRSI_OT_EUlRSO_OT0_E_JRNS0_6__baseILSL_1EJS9_SA_SB_SC_SD_SE_SF_SG_EEEOSW_EEEDcSO_DpT0_
FUNC 28c954 1c0 0 std::__ndk1::vector<std::__ndk1::pair<std::__ndk1::basic_string<char, std::__ndk1::char_traits<char>, std::__ndk1::allocator<char> >, geode::Setting>, std::__ndk1::allocator<std::__ndk1::pair<std::__ndk1::basic_string<char, std::__ndk1::char_traits<char>, std::__ndk1::allocator<char> >, geode::Setting> > >::__emplace_back_slow_path<std::__ndk1::basic_string<char, std::__ndk1::char_traits<char>, std::__ndk1::allocator<char> >&, geode::Setting&>(std::__ndk1::basic_string<char, std::__ndk1::char_traits<char>, std::__ndk1::allocator<char> >&, geode::Setting&)
FUNC 28cb14 7e 0 std::__ndk1::pair<std::__ndk1::basic_string<char, std::__ndk1::char_traits<char>, std::__ndk1::allocator<char> >, geode::Setting>::pair[abi:v170000]<std::__ndk1::basic_string<char, std::__ndk1::char_traits<char>, std::__ndk1::allocator<char> >&, geode::Setting&, (void*)0>(geode::Setting&)
FUNC 28cb92 2a 0 std::__ndk1::__split_buffer<std::__ndk1::pair<std::__ndk1::basic_string<char, std::__ndk1::char_traits<char>, std::__ndk1::allocator<char> >, geode::Setting>, std::__ndk1::allocator<std::__ndk1::pair<std::__ndk1::basic_string<char, std::__ndk1::char_traits<char>, std::__ndk1::allocator<char> >, geode::Setting> >&>::~__split_buffer()
FUNC 28cbbc 10 0 std::__ndk1::vector<std::__ndk1::pair<std::__ndk1::basic_string<char, std::__ndk1::char_traits<char>, std::__ndk1::allocator<char> >, geode::Setting>, std::__ndk1::allocator<std::__ndk1::pair<std::__ndk1::basic_string<char, std::__ndk1::char_traits<char>, std::__ndk1::allocator<char> >, geode::Setting> > >::__throw_length_error[abi:v170000]() const
FUNC 28cbcc 80 0 std::__ndk1::construct_at[abi:v170000]<geode::ModMetadata::IssuesInfo, geode::ModMetadata&, geode::ModMetadata*>(geode::ModMetadata::IssuesInfo, geode::ModMetadata&)
FUNC 28cc4c 4e 0 std::__ndk1::__exception_guard<std::__ndk1::vector<std::__ndk1::pair<std::__ndk1::basic_string<char, std::__ndk1::char_traits<char>, std::__ndk1::allocator<char> >, std::__ndk1::optional<std::__ndk1::basic_string<char, std::__ndk1::char_traits<char>, std::__ndk1::allocator<char> > >*>, std::__ndk1::allocator<std::__ndk1::pair<std::__ndk1::basic_string<char, std::__ndk1::char_traits<char>, std::__ndk1::allocator<char> >, std::__ndk1::optional<std::__ndk1::basic_string<char, std::__ndk1::char_traits<char>, std::__ndk1::allocator<char> > >*> > >::__destroy_vector>::~__exception_guard[abi:v170000]()
FUNC 28cc9c cc 0 std::__ndk1::__uninitialized_allocator_copy[abi:v170000]<std::__ndk1::allocator<std::__ndk1::pair<std::__ndk1::basic_string<char, std::__ndk1::char_traits<char>, std::__ndk1::__uninitialized_allocator_copy[abi:v170000]<char> >, std::__ndk1::optional<std::__ndk1::__uninitialized_allocator_copy[abi:v170000]<char> >*> >, std::__ndk1::optional<std::__ndk1::__uninitialized_allocator_copy[abi:v170000]<char> >* const*, std::__ndk1::optional<std::__ndk1::__uninitialized_allocator_copy[abi:v170000]<char> >* const, std::__ndk1::optional<std::__ndk1::__uninitialized_allocator_copy[abi:v170000]<char> >**>(std::__ndk1::allocator<std::__ndk1::pair<std::__ndk1::basic_string<char, std::__ndk1::char_traits<char>, std::__ndk1::__uninitialized_allocator_copy[abi:v170000]<char> >, std::__ndk1::optional<std::__ndk1::__uninitialized_allocator_copy[abi:v170000]<char> >*> >&, std::__ndk1::optional<std::__ndk1::__uninitialized_allocator_copy[abi:v170000]<char> >* const*, std::__ndk1::optional<std::__ndk1::__uninitialized_allocator_copy[abi:v170000]<char> >* const, std::__ndk1::optional<std::__ndk1::__uninitialized_allocator_copy[abi:v170000]<char> >**)
FUNC 28cd68 3a 0 std::__ndk1::__exception_guard<std::__ndk1::_AllocatorDestroyRangeReverse<std::__ndk1::allocator<std::__ndk1::pair<std::__ndk1::basic_string<char, std::__ndk1::char_traits<char>, std::__ndk1::allocator<char> >, std::__ndk1::optional<std::__ndk1::basic_string<char, std::__ndk1::char_traits<char>, std::__ndk1::allocator<char> > >*> >, std::__ndk1::pair<std::__ndk1::basic_string<char, std::__ndk1::char_traits<char>, std::__ndk1::allocator<char> >, std::__ndk1::optional<std::__ndk1::basic_string<char, std::__ndk1::char_traits<char>, std::__ndk1::allocator<char> > >*>*> >::~__exception_guard[abi:v170000]()
FUNC 28cda2 80 0 std::__ndk1::construct_at[abi:v170000]<geode::ModMetadata::IssuesInfo, geode::ModMetadata const&, geode::ModMetadata*>(geode::ModMetadata::IssuesInfo, geode::ModMetadata const&)
FUNC 28ce22 4e 0 std::__ndk1::__exception_guard<std::__ndk1::vector<geode::ModMetadata::Dependency, std::__ndk1::allocator<geode::ModMetadata::Dependency> >::__destroy_vector>::~__exception_guard[abi:v170000]()
FUNC 28ce70 e8 0 std::__ndk1::__uninitialized_allocator_copy[abi:v170000]<std::__ndk1::allocator<geode::ModMetadata::Dependency>, geode::ModMetadata*, std::__ndk1::allocator<geode::ModMetadata::Dependency>, std::__ndk1::allocator<geode::ModMetadata::Dependency> >(std::__ndk1::allocator<geode::ModMetadata::Dependency>&, geode::ModMetadata*, std::__ndk1::allocator<geode::ModMetadata::Dependency>, geode::ModMetadata*)
FUNC 28cf58 3a 0 std::__ndk1::__exception_guard<std::__ndk1::_AllocatorDestroyRangeReverse<std::__ndk1::allocator<geode::ModMetadata::Dependency>, geode::ModMetadata::Dependency*> >::~__exception_guard[abi:v170000]()
FUNC 28cf92 4e 0 std::__ndk1::__exception_guard<std::__ndk1::vector<geode::ModMetadata::Incompatibility, std::__ndk1::allocator<geode::ModMetadata::Incompatibility> >::__destroy_vector>::~__exception_guard[abi:v170000]()
FUNC 28cfe0 e8 0 std::__ndk1::__uninitialized_allocator_copy[abi:v170000]<std::__ndk1::allocator<geode::ModMetadata::Incompatibility>, geode::ModMetadata*, std::__ndk1::allocator<geode::ModMetadata::Incompatibility>, std::__ndk1::allocator<geode::ModMetadata::Incompatibility> >(std::__ndk1::allocator<geode::ModMetadata::Incompatibility>&, geode::ModMetadata*, std::__ndk1::allocator<geode::ModMetadata::Incompatibility>, geode::ModMetadata*)
FUNC 28d0c8 3a 0 std::__ndk1::__exception_guard<std::__ndk1::_AllocatorDestroyRangeReverse<std::__ndk1::allocator<geode::ModMetadata::Incompatibility>, geode::ModMetadata::Incompatibility*> >::~__exception_guard[abi:v170000]()
FUNC 28d102 42 0 std::__ndk1::__exception_guard<std::__ndk1::vector<std::__ndk1::pair<std::__ndk1::basic_string<char, std::__ndk1::char_traits<char>, std::__ndk1::allocator<char> >, geode::Setting>, std::__ndk1::allocator<std::__ndk1::pair<std::__ndk1::basic_string<char, std::__ndk1::char_traits<char>, std::__ndk1::allocator<char> >, geode::Setting> > >::__destroy_vector>::~__exception_guard[abi:v170000]()
FUNC 28d144 80 0 std::__ndk1::pair<std::__ndk1::basic_string<char, std::__ndk1::char_traits<char>, std::__ndk1::allocator<char> >, geode::Setting>::pair(std::__ndk1::pair<std::__ndk1::basic_string<char, std::__ndk1::char_traits<char>, std::__ndk1::allocator<char> >, geode::Setting> const&)
FUNC 28d1c4 8a 0 std::__ndk1::__optional_storage_base<std::__ndk1::basic_string<char, std::__ndk1::char_traits<char>, std::__ndk1::allocator<char> >, false>::__assign_from[abi:v170000]<std::__ndk1::__optional_copy_assign_base<std::__ndk1::basic_string<char, std::__ndk1::char_traits<char>, std::__ndk1::allocator<char> >, false> const&>(std::__ndk1::__optional_copy_assign_base<std::__ndk1::basic_string<char, std::__ndk1::char_traits<char>, std::__ndk1::allocator<char> >, false> const&)
FUNC 28d24e 5c 0 std::__ndk1::__optional_storage_base<geode::ModMetadata::IssuesInfo, false>::__assign_from[abi:v170000]<std::__ndk1::__optional_copy_assign_base<geode::ModMetadata::IssuesInfo, false> const&>(std::__ndk1::__optional_copy_assign_base<geode::ModMetadata::IssuesInfo, false> const&)
FUNC 28d2aa 178 0 std::__ndk1::vector<geode::ModMetadata::Dependency, std::__ndk1::allocator<geode::ModMetadata::Dependency> >::assign<geode::ModMetadata::Dependency*, 0>(geode::ModMetadata::Dependency*, geode::ModMetadata::Dependency*)
FUNC 28d422 178 0 std::__ndk1::vector<geode::ModMetadata::Incompatibility, std::__ndk1::allocator<geode::ModMetadata::Incompatibility> >::assign<geode::ModMetadata::Incompatibility*, 0>(geode::ModMetadata::Incompatibility*, geode::ModMetadata::Incompatibility*)
FUNC 28d59a 178 0 std::__ndk1::vector<std::__ndk1::pair<std::__ndk1::basic_string<char, std::__ndk1::char_traits<char>, std::__ndk1::allocator<char> >, geode::Setting>, std::__ndk1::allocator<std::__ndk1::pair<std::__ndk1::basic_string<char, std::__ndk1::char_traits<char>, std::__ndk1::allocator<char> >, geode::Setting> > >::assign<std::__ndk1::pair<std::__ndk1::basic_string<char, std::__ndk1::char_traits<char>, std::__ndk1::allocator<char> >, geode::Setting>*, 0>(std::__ndk1::pair<std::__ndk1::basic_string<char, std::__ndk1::char_traits<char>, std::__ndk1::allocator<char> >, geode::Setting>*, std::__ndk1::pair<std::__ndk1::basic_string<char, std::__ndk1::char_traits<char>, std::__ndk1::allocator<char> >, geode::Setting>*)
FUNC 28d714 a0 0 std::__ndk1::pair<std::__ndk1::basic_string<char, std::__ndk1::char_traits<char>, std::__ndk1::allocator<char> >, geode::Setting>::operator=[abi:v170000](std::__ndk1::pair<std::__ndk1::basic_string<char, std::__ndk1::char_traits<char>, std::__ndk1::allocator<char> >, geode::Setting> const&)
FUNC 28d7b4 60 0 _ZNSt6__ndk116__variant_detail12__visitation6__base12__dispatcherIJLj0ELj0EEE10__dispatchB7v170000IOZNS0_12__assignmentINS0_8__traitsIJN5geode11BoolSettingENS8_10IntSettingENS8_12FloatSettingENS8_13StringSettingENS8_11FileSettingENS8_12ColorSettingENS8_17ColorAlphaSettingENS8_13CustomSettingEEEEE16__generic_assignB7v170000IRKNS0_17__copy_assignmentISH_LNS0_6_TraitE1EEEEEvOT_EUlRSP_OT0_E_JRNS0_6__baseILSL_1EJS9_SA_SB_SC_SD_SE_SF_SG_EEERKSX_EEEDcSP_DpT0_
FUNC 28d814 80 0 _ZNSt6__ndk116__variant_detail12__visitation6__base12__dispatcherIJLj1ELj1EEE10__dispatchB7v170000IOZNS0_12__assignmentINS0_8__traitsIJN5geode11BoolSettingENS8_10IntSettingENS8_12FloatSettingENS8_13StringSettingENS8_11FileSettingENS8_12ColorSettingENS8_17ColorAlphaSettingENS8_13CustomSettingEEEEE16__generic_assignB7v170000IRKNS0_17__copy_assignmentISH_LNS0_6_TraitE1EEEEEvOT_EUlRSP_OT0_E_JRNS0_6__baseILSL_1EJS9_SA_SB_SC_SD_SE_SF_SG_EEERKSX_EEEDcSP_DpT0_
FUNC 28d894 80 0 _ZNSt6__ndk116__variant_detail12__visitation6__base12__dispatcherIJLj2ELj2EEE10__dispatchB7v170000IOZNS0_12__assignmentINS0_8__traitsIJN5geode11BoolSettingENS8_10IntSettingENS8_12FloatSettingENS8_13StringSettingENS8_11FileSettingENS8_12ColorSettingENS8_17ColorAlphaSettingENS8_13CustomSettingEEEEE16__generic_assignB7v170000IRKNS0_17__copy_assignmentISH_LNS0_6_TraitE1EEEEEvOT_EUlRSP_OT0_E_JRNS0_6__baseILSL_1EJS9_SA_SB_SC_SD_SE_SF_SG_EEERKSX_EEEDcSP_DpT0_
FUNC 28d914 98 0 _ZNSt6__ndk116__variant_detail12__visitation6__base12__dispatcherIJLj3ELj3EEE10__dispatchB7v170000IOZNS0_12__assignmentINS0_8__traitsIJN5geode11BoolSettingENS8_10IntSettingENS8_12FloatSettingENS8_13StringSettingENS8_11FileSettingENS8_12ColorSettingENS8_17ColorAlphaSettingENS8_13CustomSettingEEEEE16__generic_assignB7v170000IRKNS0_17__copy_assignmentISH_LNS0_6_TraitE1EEEEEvOT_EUlRSP_OT0_E_JRNS0_6__baseILSL_1EJS9_SA_SB_SC_SD_SE_SF_SG_EEERKSX_EEEDcSP_DpT0_
FUNC 28d9ac 90 0 _ZNSt6__ndk116__variant_detail12__visitation6__base12__dispatcherIJLj4ELj4EEE10__dispatchB7v170000IOZNS0_12__assignmentINS0_8__traitsIJN5geode11BoolSettingENS8_10IntSettingENS8_12FloatSettingENS8_13StringSettingENS8_11FileSettingENS8_12ColorSettingENS8_17ColorAlphaSettingENS8_13CustomSettingEEEEE16__generic_assignB7v170000IRKNS0_17__copy_assignmentISH_LNS0_6_TraitE1EEEEEvOT_EUlRSP_OT0_E_JRNS0_6__baseILSL_1EJS9_SA_SB_SC_SD_SE_SF_SG_EEERKSX_EEEDcSP_DpT0_
FUNC 28da3c 7c 0 _ZNSt6__ndk116__variant_detail12__visitation6__base12__dispatcherIJLj5ELj5EEE10__dispatchB7v170000IOZNS0_12__assignmentINS0_8__traitsIJN5geode11BoolSettingENS8_10IntSettingENS8_12FloatSettingENS8_13StringSettingENS8_11FileSettingENS8_12ColorSettingENS8_17ColorAlphaSettingENS8_13CustomSettingEEEEE16__generic_assignB7v170000IRKNS0_17__copy_assignmentISH_LNS0_6_TraitE1EEEEEvOT_EUlRSP_OT0_E_JRNS0_6__baseILSL_1EJS9_SA_SB_SC_SD_SE_SF_SG_EEERKSX_EEEDcSP_DpT0_
FUNC 28dab8 60 0 _ZNSt6__ndk116__variant_detail12__visitation6__base12__dispatcherIJLj6ELj6EEE10__dispatchB7v170000IOZNS0_12__assignmentINS0_8__traitsIJN5geode11BoolSettingENS8_10IntSettingENS8_12FloatSettingENS8_13StringSettingENS8_11FileSettingENS8_12ColorSettingENS8_17ColorAlphaSettingENS8_13CustomSettingEEEEE16__generic_assignB7v170000IRKNS0_17__copy_assignmentISH_LNS0_6_TraitE1EEEEEvOT_EUlRSP_OT0_E_JRNS0_6__baseILSL_1EJS9_SA_SB_SC_SD_SE_SF_SG_EEERKSX_EEEDcSP_DpT0_
FUNC 28db18 d8 0 _ZNSt6__ndk116__variant_detail12__visitation6__base12__dispatcherIJLj7ELj7EEE10__dispatchB7v170000IOZNS0_12__assignmentINS0_8__traitsIJN5geode11BoolSettingENS8_10IntSettingENS8_12FloatSettingENS8_13StringSettingENS8_11FileSettingENS8_12ColorSettingENS8_17ColorAlphaSettingENS8_13CustomSettingEEEEE16__generic_assignB7v170000IRKNS0_17__copy_assignmentISH_LNS0_6_TraitE1EEEEEvOT_EUlRSP_OT0_E_JRNS0_6__baseILSL_1EJS9_SA_SB_SC_SD_SE_SF_SG_EEERKSX_EEEDcSP_DpT0_
FUNC 28dbf0 100 0 std::__ndk1::__variant_detail::__assignment<std::__ndk1::__variant_detail::__traits<geode::BoolSetting, geode::IntSetting, geode::FloatSetting, geode::StringSetting, geode::FileSetting, geode::ColorSetting, geode::ColorAlphaSetting, geode::CustomSetting> >::__assign_alt[abi:v170000]<(unsigned int)0, geode::BoolSetting, geode::BoolSetting const&>(std::__ndk1::__variant_detail::__alt<(unsigned int)0, geode::BoolSetting>&, geode::BoolSetting const&)::{unnamed type#1}::operator()(std::__ndk1::integral_constant<bool, false>) const
FUNC 28dcf0 110 0 std::__ndk1::__variant_detail::__assignment<std::__ndk1::__variant_detail::__traits<geode::BoolSetting, geode::IntSetting, geode::FloatSetting, geode::StringSetting, geode::FileSetting, geode::ColorSetting, geode::ColorAlphaSetting, geode::CustomSetting> >::__assign_alt[abi:v170000]<(unsigned int)1, geode::IntSetting, geode::IntSetting const&>(std::__ndk1::__variant_detail::__alt<(unsigned int)1, geode::IntSetting>&, geode::IntSetting const&)::{unnamed type#1}::operator()(std::__ndk1::integral_constant<bool, false>) const
FUNC 28de00 110 0 std::__ndk1::__variant_detail::__assignment<std::__ndk1::__variant_detail::__traits<geode::BoolSetting, geode::IntSetting, geode::FloatSetting, geode::StringSetting, geode::FileSetting, geode::ColorSetting, geode::ColorAlphaSetting, geode::CustomSetting> >::__assign_alt[abi:v170000]<(unsigned int)2, geode::FloatSetting, geode::FloatSetting const&>(std::__ndk1::__variant_detail::__alt<(unsigned int)2, geode::FloatSetting>&, geode::FloatSetting const&)::{unnamed type#1}::operator()(std::__ndk1::integral_constant<bool, false>) const
FUNC 28df10 160 0 std::__ndk1::__variant_detail::__assignment<std::__ndk1::__variant_detail::__traits<geode::BoolSetting, geode::IntSetting, geode::FloatSetting, geode::StringSetting, geode::FileSetting, geode::ColorSetting, geode::ColorAlphaSetting, geode::CustomSetting> >::__assign_alt[abi:v170000]<(unsigned int)3, geode::StringSetting, geode::StringSetting const&>(std::__ndk1::__variant_detail::__alt<(unsigned int)3, geode::StringSetting>&, geode::StringSetting const&)::{unnamed type#1}::operator()(std::__ndk1::integral_constant<bool, false>) const
FUNC 28e070 f8 0 std::__ndk1::__variant_detail::__assignment<std::__ndk1::__variant_detail::__traits<geode::BoolSetting, geode::IntSetting, geode::FloatSetting, geode::StringSetting, geode::FileSetting, geode::ColorSetting, geode::ColorAlphaSetting, geode::CustomSetting> >::__assign_alt[abi:v170000]<(unsigned int)4, geode::FileSetting, geode::FileSetting const&>(std::__ndk1::__variant_detail::__alt<(unsigned int)4, geode::FileSetting>&, geode::FileSetting const&)::{unnamed type#1}::operator()(std::__ndk1::integral_constant<bool, false>) const
FUNC 28e168 1bc 0 std::__ndk1::vector<geode::utils::file::FilePickOptions::Filter, std::__ndk1::allocator<geode::utils::file::FilePickOptions::Filter> >::assign<geode::utils::file::FilePickOptions::Filter*, 0>(geode::utils::file::FilePickOptions::Filter*, geode::utils::file::FilePickOptions::Filter*)
FUNC 28e324 c4 0 std::__ndk1::__variant_detail::__assignment<std::__ndk1::__variant_detail::__traits<geode::BoolSetting, geode::IntSetting, geode::FloatSetting, geode::StringSetting, geode::FileSetting, geode::ColorSetting, geode::ColorAlphaSetting, geode::CustomSetting> >::__emplace[abi:v170000]<(unsigned int)4, geode::FileSetting>(geode::FileSetting&&)
FUNC 28e3e8 110 0 std::__ndk1::__variant_detail::__assignment<std::__ndk1::__variant_detail::__traits<geode::BoolSetting, geode::IntSetting, geode::FloatSetting, geode::StringSetting, geode::FileSetting, geode::ColorSetting, geode::ColorAlphaSetting, geode::CustomSetting> >::__assign_alt[abi:v170000]<(unsigned int)5, geode::ColorSetting, geode::ColorSetting const&>(std::__ndk1::__variant_detail::__alt<(unsigned int)5, geode::ColorSetting>&, geode::ColorSetting const&)::{unnamed type#1}::operator()(std::__ndk1::integral_constant<bool, false>) const
FUNC 28e4f8 f8 0 std::__ndk1::__variant_detail::__assignment<std::__ndk1::__variant_detail::__traits<geode::BoolSetting, geode::IntSetting, geode::FloatSetting, geode::StringSetting, geode::FileSetting, geode::ColorSetting, geode::ColorAlphaSetting, geode::CustomSetting> >::__assign_alt[abi:v170000]<(unsigned int)6, geode::ColorAlphaSetting, geode::ColorAlphaSetting const&>(std::__ndk1::__variant_detail::__alt<(unsigned int)6, geode::ColorAlphaSetting>&, geode::ColorAlphaSetting const&)::{unnamed type#1}::operator()(std::__ndk1::integral_constant<bool, false>) const
FUNC 28e5f0 330 0 geode::JsonMaybeValue::intoAs<geode::VersionInfo, geode::VersionInfo>(geode::VersionInfo&)
FUNC 28e920 8c 0 matjson::Serialize<geode::VersionInfo>::is_json(matjson::Value const&)
FUNC 28e9ac 4 0 geode::utils::MiniFunctionState<bool (*)(std::__ndk1::basic_string<char, std::__ndk1::char_traits<char>, std::__ndk1::allocator<char> > const&), bool, std::__ndk1::basic_string<char, std::__ndk1::char_traits<char>, std::__ndk1::allocator<char> > const&>::~MiniFunctionState()
FUNC 28e9b0 6 0 geode::utils::MiniFunctionState<bool (*)(std::__ndk1::basic_string<char, std::__ndk1::char_traits<char>, std::__ndk1::allocator<char> > const&), bool, std::__ndk1::basic_string<char, std::__ndk1::char_traits<char>, std::__ndk1::allocator<char> > const&>::call(std::__ndk1::basic_string<char, std::__ndk1::char_traits<char>, std::__ndk1::allocator<char> > const&) const
FUNC 28e9b8 20 0 geode::utils::MiniFunctionState<bool (*)(std::__ndk1::basic_string<char, std::__ndk1::char_traits<char>, std::__ndk1::allocator<char> > const&), bool, std::__ndk1::basic_string<char, std::__ndk1::char_traits<char>, std::__ndk1::allocator<char> > const&>::clone() const
FUNC 28e9d8 2 0 geode::utils::MiniFunctionStateBase<bool, std::__ndk1::basic_string<char, std::__ndk1::char_traits<char>, std::__ndk1::allocator<char> > const&>::~MiniFunctionStateBase()
FUNC 28e9dc 330 0 geode::JsonMaybeValue::intoAs<geode::ComparableVersionInfo, geode::ComparableVersionInfo>(geode::ComparableVersionInfo&)
FUNC 28ed0c 8c 0 matjson::Serialize<geode::ComparableVersionInfo>::is_json(matjson::Value const&)
FUNC 28ed98 120 0 matjson::Serialize<geode::ComparableVersionInfo>::from_json(matjson::Value const&)
FUNC 28eeb8 76 0 geode::Result<geode::ComparableVersionInfo, std::__ndk1::basic_string<char, std::__ndk1::char_traits<char>, std::__ndk1::allocator<char> > >::unwrapErr() &
FUNC 28ef30 c0 0 geode::Result<geode::ComparableVersionInfo, std::__ndk1::basic_string<char, std::__ndk1::char_traits<char>, std::__ndk1::allocator<char> > >::unwrap() &
FUNC 28eff0 320 0 geode::JsonMaybeValue::intoAs<geode::ModMetadata::Dependency::Importance, geode::ModMetadata::Dependency::Importance>(geode::ModMetadata::Dependency::Importance&)
FUNC 28f310 ec 0 matjson::Serialize<geode::ModMetadata::Dependency::Importance>::from_json(matjson::Value const&)
FUNC 28f3fc 320 0 geode::JsonMaybeValue::intoAs<geode::ModMetadata::Incompatibility::Importance, geode::ModMetadata::Incompatibility::Importance>(geode::ModMetadata::Incompatibility::Importance&)
FUNC 28f71c ec 0 matjson::Serialize<geode::ModMetadata::Incompatibility::Importance>::from_json(matjson::Value const&)
FUNC 28f808 190 0 geode::ModMetadata::Impl::Impl()
FUNC 28f998 2c 0 std::__ndk1::__optional_destruct_base<geode::ModMetadata::IssuesInfo, false>::~__optional_destruct_base[abi:v170000]()
FUNC 28f9c4 1ec 0 geode::ModMetadata::Impl::~Impl()
FUNC 28fbb0 3be 0 geode::ModMetadata::Impl::Impl(geode::ModMetadata::Impl const&)
FUNC 28ff6e 4 0 ModPatch::getOwner() const
FUNC 28ff74 60 0 ModPatch::setOwner(geode::Mod*)
FUNC 28ffd4 4 0 ModPatch::isEnabled() const
FUNC 28ffd8 4 0 ModPatch::getAutoEnable() const
FUNC 28ffdc 4 0 ModPatch::setAutoEnable(bool)
FUNC 28ffe0 1a 0 geode::Patch::Patch(std::__ndk1::shared_ptr<geode::Patch::Impl>&&)
FUNC 28fffa 3a 0 geode::Patch::~Patch()
FUNC 290034 a 0 geode::Patch::create(void*, std::__ndk1::vector<unsigned char, std::__ndk1::allocator<unsigned char> > const&)
FUNC 29003e 6 0 geode::Patch::getOwner() const
FUNC 290044 6 0 geode::Patch::isEnabled() const
FUNC 29004a c 0 geode::Patch::enable()
FUNC 290056 c 0 geode::Patch::disable()
FUNC 290062 6 0 geode::Patch::getAutoEnable() const
FUNC 290068 6 0 geode::Patch::setAutoEnable(bool)
FUNC 29006e 6 0 geode::Patch::getAddress() const
FUNC 290074 c 0 geode::Patch::getRuntimeInfo() const
FUNC 290080 6c 0 geode::Patch::Impl::Impl(void*, std::__ndk1::vector<unsigned char, std::__ndk1::allocator<unsigned char> >, std::__ndk1::vector<unsigned char, std::__ndk1::allocator<unsigned char> >)
FUNC 2900ec 1e0 0 geode::Patch::Impl::~Impl()
FUNC 2902cc 2ac 0 geode::Patch::Impl::disable()
FUNC 290578 244 0 geode::Patch::Impl::create(void*, std::__ndk1::vector<unsigned char, std::__ndk1::allocator<unsigned char> > const&)
FUNC 2907bc 3a 0 std::__ndk1::shared_ptr<geode::Patch::Impl>::~shared_ptr[abi:v170000]()
FUNC 2907f8 5c 0 geode::Patch::Impl::allEnabled()
FUNC 290854 16 0 std::__ndk1::vector<geode::Patch::Impl*, std::__ndk1::allocator<geode::Patch::Impl*> >::~vector[abi:v170000]()
FUNC 29086c 438 0 geode::Patch::Impl::enable()
FUNC 290ca4 4 0 geode::Patch::Impl::getAddress() const
FUNC 290ca8 168 0 geode::Patch::Impl::getRuntimeInfo() const
FUNC 290e10 10 0 std::__ndk1::vector<geode::Patch::Impl*, std::__ndk1::allocator<geode::Patch::Impl*> >::__throw_length_error[abi:v170000]() const
FUNC 290e20 14 0 std::__ndk1::__shared_ptr_emplace<geode::Patch::Impl, std::__ndk1::allocator<geode::Patch::Impl> >::~__shared_ptr_emplace()
FUNC 290e34 20 0 std::__ndk1::__shared_ptr_emplace<geode::Patch::Impl, std::__ndk1::allocator<geode::Patch::Impl> >::~__shared_ptr_emplace()
FUNC 290e54 6 0 std::__ndk1::__shared_ptr_emplace<geode::Patch::Impl, std::__ndk1::allocator<geode::Patch::Impl> >::__on_zero_shared()
FUNC 290e5a 4 0 std::__ndk1::__shared_ptr_emplace<geode::Patch::Impl, std::__ndk1::allocator<geode::Patch::Impl> >::__on_zero_shared_weak()
FUNC 290e60 f8 0 std::__ndk1::construct_at[abi:v170000]<geode::Patch::Impl, void*&, std::__ndk1::vector<unsigned char, std::__ndk1::allocator<unsigned char> >, std::__ndk1::allocator<unsigned char> const&, geode::Patch*>(geode::Patch::Impl, void*&, std::__ndk1::vector<unsigned char, std::__ndk1::allocator<unsigned char> >, std::__ndk1::allocator<unsigned char> const&)
FUNC 290f58 10 0 std::__ndk1::__shared_ptr_pointer<geode::Patch*, geode::Patch(void*, std::__ndk1::vector<unsigned char, std::__ndk1::allocator<unsigned char> > const&)::Impl::create::$_0, std::__ndk1::allocator<geode::Patch> >::~__shared_ptr_pointer()
FUNC 290f68 18 0 std::__ndk1::__shared_ptr_pointer<geode::Patch*, geode::Patch(void*, std::__ndk1::vector<unsigned char, std::__ndk1::allocator<unsigned char> > const&)::Impl::create::$_0, std::__ndk1::allocator<geode::Patch> >::__on_zero_shared()
FUNC 290f80 18 0 std::__ndk1::__shared_ptr_pointer<geode::Patch*, geode::Patch(void*, std::__ndk1::vector<unsigned char, std::__ndk1::allocator<unsigned char> > const&)::Impl::create::$_0, std::__ndk1::allocator<geode::Patch> >::__get_deleter(std::type_info const&) const
FUNC 290f98 4 0 std::__ndk1::__shared_ptr_pointer<geode::Patch*, geode::Patch(void*, std::__ndk1::vector<unsigned char, std::__ndk1::allocator<unsigned char> > const&)::Impl::create::$_0, std::__ndk1::allocator<geode::Patch> >::__on_zero_shared_weak()
FUNC 290f9c 70 0 matjson::Serialize<std::__ndk1::vector<unsigned char, std::__ndk1::allocator<unsigned char> > >::to_json(std::__ndk1::vector<unsigned char, std::__ndk1::allocator<unsigned char> > const&)
FUNC 29100c c4 0 std::__ndk1::vector<matjson::Value, std::__ndk1::allocator<matjson::Value> >::vector<std::__ndk1::__wrap_iter<unsigned char const*>, 0>(std::__ndk1::__wrap_iter<unsigned char const*>)
FUNC 2910d0 3a 0 std::__ndk1::__exception_guard<std::__ndk1::vector<matjson::Value, std::__ndk1::allocator<matjson::Value> >::__destroy_vector>::~__exception_guard[abi:v170000]()
FUNC 29110c 2c8 0 geode::BoolSetting::parse(geode::JsonMaybeObject&)
FUNC 2913d4 2e 0 geode::BoolSetting::~BoolSetting()
FUNC 291404 6c0 0 geode::IntSetting::parse(geode::JsonMaybeObject&)
FUNC 291ac4 2e 0 geode::IntSetting::~IntSetting()
FUNC 291af4 6c0 0 geode::FloatSetting::parse(geode::JsonMaybeObject&)
FUNC 2921b4 2e 0 geode::FloatSetting::~FloatSetting()
FUNC 2921e4 420 0 geode::StringSetting::parse(geode::JsonMaybeObject&)
FUNC 292604 6b0 0 geode::FileSetting::parse(geode::JsonMaybeObject&)
FUNC 292cb4 4a 0 geode::utils::file::FilePickOptions::Filter::~Filter()
FUNC 292d00 2d0 0 geode::ColorSetting::parse(geode::JsonMaybeObject&)
FUNC 292fd0 2e 0 geode::ColorSetting::~ColorSetting()
FUNC 293000 2c4 0 geode::ColorAlphaSetting::parse(geode::JsonMaybeObject&)
FUNC 2932c4 2e 0 geode::ColorAlphaSetting::~ColorAlphaSetting()
FUNC 2932f4 a0c 0 geode::Setting::parse(std::__ndk1::basic_string<char, std::__ndk1::char_traits<char>, std::__ndk1::allocator<char> > const&, std::__ndk1::basic_string<char, std::__ndk1::char_traits<char>, std::__ndk1::allocator<char> > const&, geode::JsonMaybeValue&)
FUNC 293d00 24 0 geode::utils::hash(char const*, int)
FUNC 293d24 76 0 geode::Result<geode::BoolSetting, std::__ndk1::basic_string<char, std::__ndk1::char_traits<char>, std::__ndk1::allocator<char> > >::unwrapErr() &
FUNC 293d9c c0 0 geode::Result<geode::BoolSetting, std::__ndk1::basic_string<char, std::__ndk1::char_traits<char>, std::__ndk1::allocator<char> > >::unwrap() &
FUNC 293e5c c0 0 std::__ndk1::variant<geode::BoolSetting, geode::IntSetting, geode::FloatSetting, geode::StringSetting, geode::FileSetting, geode::ColorSetting, geode::ColorAlphaSetting, geode::CustomSetting>::operator=[abi:v170000]<geode::BoolSetting, 0, geode::BoolSetting, (unsigned int)0, 0>(geode::BoolSetting&&)
FUNC 293f1c 32 0 cpp::bitwizeshift::result<geode::BoolSetting, std::__ndk1::basic_string<char, std::__ndk1::char_traits<char>, std::__ndk1::allocator<char> > >::~result()
FUNC 293f4e 76 0 geode::Result<geode::IntSetting, std::__ndk1::basic_string<char, std::__ndk1::char_traits<char>, std::__ndk1::allocator<char> > >::unwrapErr() &
FUNC 293fc4 c0 0 geode::Result<geode::IntSetting, std::__ndk1::basic_string<char, std::__ndk1::char_traits<char>, std::__ndk1::allocator<char> > >::unwrap() &
FUNC 294084 c8 0 std::__ndk1::variant<geode::BoolSetting, geode::IntSetting, geode::FloatSetting, geode::StringSetting, geode::FileSetting, geode::ColorSetting, geode::ColorAlphaSetting, geode::CustomSetting>::operator=[abi:v170000]<geode::IntSetting, 0, geode::IntSetting, (unsigned int)1, 0>(geode::IntSetting&&)
FUNC 29414c 32 0 cpp::bitwizeshift::result<geode::IntSetting, std::__ndk1::basic_string<char, std::__ndk1::char_traits<char>, std::__ndk1::allocator<char> > >::~result()
FUNC 29417e 76 0 geode::Result<geode::FloatSetting, std::__ndk1::basic_string<char, std::__ndk1::char_traits<char>, std::__ndk1::allocator<char> > >::unwrapErr() &
FUNC 2941f4 c0 0 geode::Result<geode::FloatSetting, std::__ndk1::basic_string<char, std::__ndk1::char_traits<char>, std::__ndk1::allocator<char> > >::unwrap() &
FUNC 2942b4 c8 0 std::__ndk1::variant<geode::BoolSetting, geode::IntSetting, geode::FloatSetting, geode::StringSetting, geode::FileSetting, geode::ColorSetting, geode::ColorAlphaSetting, geode::CustomSetting>::operator=[abi:v170000]<geode::FloatSetting, 0, geode::FloatSetting, (unsigned int)2, 0>(geode::FloatSetting&&)
FUNC 29437c 32 0 cpp::bitwizeshift::result<geode::FloatSetting, std::__ndk1::basic_string<char, std::__ndk1::char_traits<char>, std::__ndk1::allocator<char> > >::~result()
FUNC 2943ae 76 0 geode::Result<geode::StringSetting, std::__ndk1::basic_string<char, std::__ndk1::char_traits<char>, std::__ndk1::allocator<char> > >::unwrapErr() &
FUNC 294424 c0 0 geode::Result<geode::StringSetting, std::__ndk1::basic_string<char, std::__ndk1::char_traits<char>, std::__ndk1::allocator<char> > >::unwrap() &
FUNC 2944e4 22 0 std::__ndk1::variant<geode::BoolSetting, geode::IntSetting, geode::FloatSetting, geode::StringSetting, geode::FileSetting, geode::ColorSetting, geode::ColorAlphaSetting, geode::CustomSetting>::operator=[abi:v170000]<geode::StringSetting, 0, geode::StringSetting, (unsigned int)3, 0>(geode::StringSetting&&)
FUNC 294506 24 0 cpp::bitwizeshift::result<geode::StringSetting, std::__ndk1::basic_string<char, std::__ndk1::char_traits<char>, std::__ndk1::allocator<char> > >::~result()
FUNC 29452c c0 0 geode::Result<geode::ColorSetting, std::__ndk1::basic_string<char, std::__ndk1::char_traits<char>, std::__ndk1::allocator<char> > >::unwrap() &
FUNC 2945ec 32 0 cpp::bitwizeshift::result<geode::ColorSetting, std::__ndk1::basic_string<char, std::__ndk1::char_traits<char>, std::__ndk1::allocator<char> > >::~result()
FUNC 29461e 76 0 geode::Result<geode::ColorAlphaSetting, std::__ndk1::basic_string<char, std::__ndk1::char_traits<char>, std::__ndk1::allocator<char> > >::unwrapErr() &
FUNC 294694 c0 0 geode::Result<geode::ColorAlphaSetting, std::__ndk1::basic_string<char, std::__ndk1::char_traits<char>, std::__ndk1::allocator<char> > >::unwrap() &
FUNC 294754 c0 0 std::__ndk1::variant<geode::BoolSetting, geode::IntSetting, geode::FloatSetting, geode::StringSetting, geode::FileSetting, geode::ColorSetting, geode::ColorAlphaSetting, geode::CustomSetting>::operator=[abi:v170000]<geode::ColorAlphaSetting, 0, geode::ColorAlphaSetting, (unsigned int)6, 0>(geode::ColorAlphaSetting&&)
FUNC 294814 32 0 cpp::bitwizeshift::result<geode::ColorAlphaSetting, std::__ndk1::basic_string<char, std::__ndk1::char_traits<char>, std::__ndk1::allocator<char> > >::~result()
FUNC 294848 c0 0 geode::Result<geode::FileSetting, std::__ndk1::basic_string<char, std::__ndk1::char_traits<char>, std::__ndk1::allocator<char> > >::unwrap() &
FUNC 294908 4e 0 cpp::bitwizeshift::result<geode::FileSetting, std::__ndk1::basic_string<char, std::__ndk1::char_traits<char>, std::__ndk1::allocator<char> > >::~result()
FUNC 294958 158 0 geode::Setting::Setting(std::__ndk1::basic_string<char, std::__ndk1::char_traits<char>, std::__ndk1::allocator<char> > const&, std::__ndk1::basic_string<char, std::__ndk1::char_traits<char>, std::__ndk1::allocator<char> > const&, std::__ndk1::variant<geode::BoolSetting, geode::IntSetting, geode::FloatSetting, geode::StringSetting, geode::FileSetting, geode::ColorSetting, geode::ColorAlphaSetting, geode::CustomSetting> const&)
FUNC 294ab0 60 0 geode::Setting::createDefaultValue() const
FUNC 294b10 e 0 geode::Setting::isCustom() const
FUNC 294b20 54 0 geode::Setting::getDisplayName() const
FUNC 294b74 54 0 geode::Setting::getDescription() const
FUNC 294bc8 66 0 geode::Setting::getModID() const
FUNC 294c30 dc 0 geode::SettingValue::SettingValue(std::__ndk1::basic_string<char, std::__ndk1::char_traits<char>, std::__ndk1::allocator<char> > const&, std::__ndk1::basic_string<char, std::__ndk1::char_traits<char>, std::__ndk1::allocator<char> > const&)
FUNC 294d0c 66 0 geode::SettingValue::getKey() const
FUNC 294d72 66 0 geode::SettingValue::getModID() const
FUNC 294dd8 64 0 geode::SettingValue::valueChanged()
FUNC 294e3c 70 0 geode::GeodeSettingValue<geode::BoolSetting>::GeodeSettingValue(std::__ndk1::basic_string<char, std::__ndk1::char_traits<char>, std::__ndk1::allocator<char> > const&, std::__ndk1::basic_string<char, std::__ndk1::char_traits<char>, std::__ndk1::allocator<char> > const&, geode::BoolSetting const&)
FUNC 294eac 2e 0 geode::GeodeSettingValue<geode::BoolSetting>::load(matjson::Value const&)
FUNC 294edc 54 0 geode::GeodeSettingValue<geode::BoolSetting>::save(matjson::Value&) const
FUNC 294f30 38 0 geode::GeodeSettingValue<geode::BoolSetting>::castDefinition() const
FUNC 294f68 b0 0 geode::GeodeSettingValue<geode::BoolSetting>::getDefinition() const
FUNC 295018 58 0 std::__ndk1::variant<geode::BoolSetting, geode::IntSetting, geode::FloatSetting, geode::StringSetting, geode::FileSetting, geode::ColorSetting, geode::ColorAlphaSetting, geode::CustomSetting>::~variant()
FUNC 295070 4 0 geode::GeodeSettingValue<geode::BoolSetting>::getValue() const
FUNC 295074 7c 0 geode::GeodeSettingValue<geode::IntSetting>::GeodeSettingValue(std::__ndk1::basic_string<char, std::__ndk1::char_traits<char>, std::__ndk1::allocator<char> > const&, std::__ndk1::basic_string<char, std::__ndk1::char_traits<char>, std::__ndk1::allocator<char> > const&, geode::IntSetting const&)
FUNC 2950f0 32 0 geode::GeodeSettingValue<geode::IntSetting>::load(matjson::Value const&)
FUNC 295124 60 0 geode::GeodeSettingValue<geode::IntSetting>::save(matjson::Value&) const
FUNC 295184 3e 0 geode::GeodeSettingValue<geode::IntSetting>::castDefinition() const
FUNC 2951c4 b4 0 geode::GeodeSettingValue<geode::IntSetting>::getDefinition() const
FUNC 295278 6 0 geode::GeodeSettingValue<geode::IntSetting>::getValue() const
FUNC 295280 78 0 geode::GeodeSettingValue<geode::FloatSetting>::GeodeSettingValue(std::__ndk1::basic_string<char, std::__ndk1::char_traits<char>, std::__ndk1::allocator<char> > const&, std::__ndk1::basic_string<char, std::__ndk1::char_traits<char>, std::__ndk1::allocator<char> > const&, geode::FloatSetting const&)
FUNC 2952f8 30 0 geode::GeodeSettingValue<geode::FloatSetting>::load(matjson::Value const&)
FUNC 295328 5c 0 geode::GeodeSettingValue<geode::FloatSetting>::save(matjson::Value&) const
FUNC 295384 3e 0 geode::GeodeSettingValue<geode::FloatSetting>::castDefinition() const
FUNC 2953c4 b4 0 geode::GeodeSettingValue<geode::FloatSetting>::getDefinition() const
FUNC 295478 a 0 geode::GeodeSettingValue<geode::FloatSetting>::getValue() const
FUNC 295484 a4 0 geode::GeodeSettingValue<geode::StringSetting>::GeodeSettingValue(std::__ndk1::basic_string<char, std::__ndk1::char_traits<char>, std::__ndk1::allocator<char> > const&, std::__ndk1::basic_string<char, std::__ndk1::char_traits<char>, std::__ndk1::allocator<char> > const&, geode::StringSetting const&)
FUNC 295528 74 0 geode::GeodeSettingValue<geode::StringSetting>::load(matjson::Value const&)
FUNC 29559c cc 0 geode::GeodeSettingValue<geode::StringSetting>::save(matjson::Value&) const
FUNC 295668 c 0 geode::GeodeSettingValue<geode::StringSetting>::castDefinition() const
FUNC 295674 84 0 geode::GeodeSettingValue<geode::StringSetting>::getDefinition() const
FUNC 2956f8 66 0 geode::GeodeSettingValue<geode::StringSetting>::getValue() const
FUNC 295760 50 0 geode::GeodeSettingValue<geode::FileSetting>::GeodeSettingValue(std::__ndk1::basic_string<char, std::__ndk1::char_traits<char>, std::__ndk1::allocator<char> > const&, std::__ndk1::basic_string<char, std::__ndk1::char_traits<char>, std::__ndk1::allocator<char> > const&, geode::FileSetting const&)
FUNC 2957b0 98 0 geode::GeodeSettingValue<geode::FileSetting>::load(matjson::Value const&)
FUNC 295848 58 0 geode::GeodeSettingValue<geode::FileSetting>::save(matjson::Value&) const
FUNC 2958a0 7c 0 matjson::Value::Value<ghc::filesystem::path const&>()
FUNC 29591c c 0 geode::GeodeSettingValue<geode::FileSetting>::castDefinition() const
FUNC 295928 84 0 geode::GeodeSettingValue<geode::FileSetting>::getDefinition() const
FUNC 2959ac c 0 geode::GeodeSettingValue<geode::FileSetting>::getValue() const
FUNC 2959b8 7c 0 geode::GeodeSettingValue<geode::ColorSetting>::GeodeSettingValue(std::__ndk1::basic_string<char, std::__ndk1::char_traits<char>, std::__ndk1::allocator<char> > const&, std::__ndk1::basic_string<char, std::__ndk1::char_traits<char>, std::__ndk1::allocator<char> > const&, geode::ColorSetting const&)
FUNC 295a34 2a 0 geode::GeodeSettingValue<geode::ColorSetting>::load(matjson::Value const&)
FUNC 295a60 70 0 geode::GeodeSettingValue<geode::ColorSetting>::save(matjson::Value&) const
FUNC 295ad0 3e 0 geode::GeodeSettingValue<geode::ColorSetting>::castDefinition() const
FUNC 295b10 b8 0 geode::GeodeSettingValue<geode::ColorSetting>::getDefinition() const
FUNC 295bc8 a 0 geode::GeodeSettingValue<geode::ColorSetting>::getValue() const
FUNC 295bd4 68 0 geode::GeodeSettingValue<geode::ColorAlphaSetting>::GeodeSettingValue(std::__ndk1::basic_string<char, std::__ndk1::char_traits<char>, std::__ndk1::allocator<char> > const&, std::__ndk1::basic_string<char, std::__ndk1::char_traits<char>, std::__ndk1::allocator<char> > const&, geode::ColorAlphaSetting const&)
FUNC 295c3c 26 0 geode::GeodeSettingValue<geode::ColorAlphaSetting>::load(matjson::Value const&)
FUNC 295c64 70 0 geode::GeodeSettingValue<geode::ColorAlphaSetting>::save(matjson::Value&) const
FUNC 295cd4 34 0 geode::GeodeSettingValue<geode::ColorAlphaSetting>::castDefinition() const
FUNC 295d08 ac 0 geode::GeodeSettingValue<geode::ColorAlphaSetting>::getDefinition() const
FUNC 295db4 4 0 geode::GeodeSettingValue<geode::ColorAlphaSetting>::getValue() const
FUNC 295db8 c 0 geode::GeodeSettingValue<geode::BoolSetting>::toValid(bool const&) const
FUNC 295dc4 dc 0 geode::GeodeSettingValue<geode::IntSetting>::toValid(long long const&) const
FUNC 295ea0 d8 0 geode::GeodeSettingValue<geode::FloatSetting>::toValid(double const&) const
FUNC 295f78 1ac 0 geode::GeodeSettingValue<geode::StringSetting>::toValid(std::__ndk1::basic_string<char, std::__ndk1::char_traits<char>, std::__ndk1::allocator<char> > const&) const
FUNC 296124 12 0 geode::GeodeSettingValue<geode::FileSetting>::toValid(ghc::filesystem::path const&) const
FUNC 296136 10 0 geode::GeodeSettingValue<geode::ColorSetting>::toValid(cocos2d::_ccColor3B const&) const
FUNC 296146 c 0 geode::GeodeSettingValue<geode::ColorAlphaSetting>::toValid(cocos2d::_ccColor4B const&) const
FUNC 296154 60 0 geode::GeodeSettingValue<geode::BoolSetting>::createNode(float)
FUNC 2961b4 68 0 geode::GeodeSettingValue<geode::BoolSetting>::setValue(bool const&)
FUNC 29621c 6 0 geode::GeodeSettingValue<geode::BoolSetting>::validate(bool const&) const
FUNC 296224 34 0 geode::SettingValueSetter<bool>::get(geode::SettingValue*)
FUNC 296258 34 0 geode::SettingValueSetter<bool>::set(geode::SettingValue*, bool const&)
FUNC 29628c 78 0 geode::GeodeSettingValue<geode::IntSetting>::createNode(float)
FUNC 296304 fc 0 geode::GeodeSettingValue<geode::IntSetting>::setValue(long long const&)
FUNC 296400 150 0 geode::GeodeSettingValue<geode::IntSetting>::validate(long long const&) const
FUNC 296550 34 0 geode::SettingValueSetter<long long>::get(geode::SettingValue*)
FUNC 296584 34 0 geode::SettingValueSetter<long long>::set(geode::SettingValue*, long long const&)
FUNC 2965b8 78 0 geode::GeodeSettingValue<geode::FloatSetting>::createNode(float)
FUNC 296630 fc 0 geode::GeodeSettingValue<geode::FloatSetting>::setValue(double const&)
FUNC 29672c 154 0 geode::GeodeSettingValue<geode::FloatSetting>::validate(double const&) const
FUNC 296880 3c 0 geode::SettingValueSetter<double>::get(geode::SettingValue*)
FUNC 2968bc 34 0 geode::SettingValueSetter<double>::set(geode::SettingValue*, double const&)
FUNC 2968f0 70 0 geode::GeodeSettingValue<geode::StringSetting>::createNode(float)
FUNC 296960 b8 0 geode::GeodeSettingValue<geode::StringSetting>::setValue(std::__ndk1::basic_string<char, std::__ndk1::char_traits<char>, std::__ndk1::allocator<char> > const&)
FUNC 296a18 11c 0 geode::GeodeSettingValue<geode::StringSetting>::validate(std::__ndk1::basic_string<char, std::__ndk1::char_traits<char>, std::__ndk1::allocator<char> > const&) const
FUNC 296b34 98 0 geode::SettingValueSetter<std::__ndk1::basic_string<char, std::__ndk1::char_traits<char>, std::__ndk1::allocator<char> > >::get(geode::SettingValue*)
FUNC 296bcc 34 0 geode::SettingValueSetter<std::__ndk1::basic_string<char, std::__ndk1::char_traits<char>, std::__ndk1::allocator<char> > >::set(geode::SettingValue*, std::__ndk1::basic_string<char, std::__ndk1::char_traits<char>, std::__ndk1::allocator<char> > const&)
FUNC 296c00 4 0 geode::GeodeSettingValue<geode::FileSetting>::createNode(float)
FUNC 296c04 7c 0 FileSettingNode::create(geode::GeodeSettingValue<geode::FileSetting>*, float)
FUNC 296c80 9c 0 geode::GeodeSettingValue<geode::FileSetting>::setValue(ghc::filesystem::path const&)
FUNC 296d1c 4c 0 geode::GeodeSettingValue<geode::FileSetting>::validate(ghc::filesystem::path const&) const
FUNC 296d68 3c 0 geode::SettingValueSetter<ghc::filesystem::path>::get(geode::SettingValue*)
FUNC 296da4 34 0 geode::SettingValueSetter<ghc::filesystem::path>::set(geode::SettingValue*, ghc::filesystem::path const&)
FUNC 296dd8 68 0 geode::GeodeSettingValue<geode::ColorSetting>::createNode(float)
FUNC 296e40 6c 0 geode::GeodeSettingValue<geode::ColorSetting>::setValue(cocos2d::_ccColor3B const&)
FUNC 296eac 6 0 geode::GeodeSettingValue<geode::ColorSetting>::validate(cocos2d::_ccColor3B const&) const
FUNC 296eb4 34 0 geode::SettingValueSetter<cocos2d::_ccColor3B>::get(geode::SettingValue*)
FUNC 296ee8 90 0 geode::SettingValueSetter<cocos2d::_ccColor3B>::set(geode::SettingValue*, cocos2d::_ccColor3B const&)
FUNC 296f78 68 0 geode::GeodeSettingValue<geode::ColorAlphaSetting>::createNode(float)
FUNC 296fe0 68 0 geode::GeodeSettingValue<geode::ColorAlphaSetting>::setValue(cocos2d::_ccColor4B const&)
FUNC 297048 6 0 geode::GeodeSettingValue<geode::ColorAlphaSetting>::validate(cocos2d::_ccColor4B const&) const
FUNC 297050 30 0 geode::SettingValueSetter<cocos2d::_ccColor4B>::get(geode::SettingValue*)
FUNC 297080 34 0 geode::SettingValueSetter<cocos2d::_ccColor4B>::set(geode::SettingValue*, cocos2d::_ccColor4B const&)
FUNC 2970b4 18 0 geode::SettingChangedEvent::SettingChangedEvent(geode::Mod*, geode::SettingValue*)
FUNC 2970cc 1d8 0 geode::SettingChangedFilter::handle(geode::utils::MiniFunction<void (geode::SettingValue*)>, geode::SettingChangedEvent*)
FUNC 2972a4 84 0 geode::SettingChangedFilter::SettingChangedFilter(std::__ndk1::basic_string<char, std::__ndk1::char_traits<char>, std::__ndk1::allocator<char> > const&, std::__ndk1::optional<std::__ndk1::basic_string<char, std::__ndk1::char_traits<char>, std::__ndk1::allocator<char> > > const&)
FUNC 297328 6c 0 geode::GeodeSettingValue<geode::BoolSetting>::~GeodeSettingValue()
FUNC 297394 74 0 geode::GeodeSettingValue<geode::BoolSetting>::~GeodeSettingValue()
FUNC 297408 6c 0 geode::GeodeSettingValue<geode::IntSetting>::~GeodeSettingValue()
FUNC 297474 74 0 geode::GeodeSettingValue<geode::IntSetting>::~GeodeSettingValue()
FUNC 2974e8 6c 0 geode::GeodeSettingValue<geode::FloatSetting>::~GeodeSettingValue()
FUNC 297554 74 0 geode::GeodeSettingValue<geode::FloatSetting>::~GeodeSettingValue()
FUNC 2975c8 54 0 geode::GeodeSettingValue<geode::StringSetting>::~GeodeSettingValue()
FUNC 29761c 58 0 geode::GeodeSettingValue<geode::StringSetting>::~GeodeSettingValue()
FUNC 297674 6c 0 geode::GeodeSettingValue<geode::ColorSetting>::~GeodeSettingValue()
FUNC 2976e0 74 0 geode::GeodeSettingValue<geode::ColorSetting>::~GeodeSettingValue()
FUNC 297754 6c 0 geode::GeodeSettingValue<geode::ColorAlphaSetting>::~GeodeSettingValue()
FUNC 2977c0 74 0 geode::GeodeSettingValue<geode::ColorAlphaSetting>::~GeodeSettingValue()
FUNC 297834 90 0 geode::GeodeSettingValue<geode::FileSetting>::~GeodeSettingValue()
FUNC 2978c4 10 0 geode::GeodeSettingValue<geode::FileSetting>::~GeodeSettingValue()
FUNC 2978d4 30 0 geode::SettingValue::~SettingValue()
FUNC 297904 2 0 geode::SettingValue::~SettingValue()
FUNC 297906 10 0 geode::SettingChangedEvent::~SettingChangedEvent()
FUNC 297918 210 0 std::__ndk1::vector<geode::utils::file::FilePickOptions::Filter, std::__ndk1::allocator<geode::utils::file::FilePickOptions::Filter> >::__push_back_slow_path<geode::utils::file::FilePickOptions::Filter const&>(geode::utils::file::FilePickOptions::Filter const&)
FUNC 297b28 80 0 std::__ndk1::construct_at[abi:v170000]<geode::utils::file::FilePickOptions::Filter, geode::utils::file::FilePickOptions const&, geode::utils::file::FilePickOptions*>(geode::utils::file::FilePickOptions::Filter, geode::utils::file::FilePickOptions const&)
FUNC 297ba8 1a 0 std::__ndk1::__split_buffer<geode::utils::file::FilePickOptions::Filter, std::__ndk1::allocator<geode::utils::file::FilePickOptions::Filter>&>::~__split_buffer()
FUNC 297bc2 76 0 std::__ndk1::__split_buffer<geode::utils::file::FilePickOptions::Filter, std::__ndk1::allocator<geode::utils::file::FilePickOptions::Filter>&>::__destruct_at_end[abi:v170000](geode::utils::file::FilePickOptions::Filter*)
FUNC 297c38 38 0 std::__ndk1::__variant_detail::__visitation::__base::__dispatcher<(unsigned int)0>::__dispatch[abi:v170000]<std::__ndk1::__variant_detail::__visitation::__variant::__value_visitor<geode::utils::makeVisitor<std::__ndk1::__variant_detail::__visitation::__variant::__value_visitor::Setting::createDefaultValue() const::$_0, geode::utils::makeVisitor::createDefaultValue() const::$_1, geode::utils::makeVisitor::createDefaultValue() const::$_2, geode::utils::makeVisitor::createDefaultValue() const::$_3, geode::utils::makeVisitor::createDefaultValue() const::$_4, geode::utils::makeVisitor::createDefaultValue() const::$_5, geode::utils::makeVisitor::createDefaultValue() const::$_6, geode::utils::makeVisitor::createDefaultValue() const::$_7> >&&, std::__ndk1::__variant_detail::__base<(std::__ndk1::__variant_detail::_Trait)1, std::__ndk1::__variant_detail::__visitation::__variant::__value_visitor::BoolSetting, std::__ndk1::__variant_detail::__visitation::__variant::__value_visitor::IntSetting, std::__ndk1::__variant_detail::__visitation::__variant::__value_visitor::FloatSetting, std::__ndk1::__variant_detail::__visitation::__variant::__value_visitor::StringSetting, std::__ndk1::__variant_detail::__visitation::__variant::__value_visitor::FileSetting, std::__ndk1::__variant_detail::__visitation::__variant::__value_visitor::ColorSetting, std::__ndk1::__variant_detail::__visitation::__variant::__value_visitor::ColorAlphaSetting, std::__ndk1::__variant_detail::__visitation::__variant::__value_visitor::CustomSetting> const&>(std::__ndk1::__variant_detail::__visitation::__variant::__value_visitor<geode::utils::makeVisitor<std::__ndk1::__variant_detail::__visitation::__variant::__value_visitor::Setting::createDefaultValue() const::$_0, geode::utils::makeVisitor::createDefaultValue() const::$_1, geode::utils::makeVisitor::createDefaultValue() const::$_2, geode::utils::makeVisitor::createDefaultValue() const::$_3, geode::utils::makeVisitor::createDefaultValue() const::$_4, geode::utils::makeVisitor::createDefaultValue() const::$_5, geode::utils::makeVisitor::createDefaultValue() const::$_6, geode::utils::makeVisitor::createDefaultValue() const::$_7> >&&, std::__ndk1::__variant_detail::__base<(std::__ndk1::__variant_detail::_Trait)1, std::__ndk1::__variant_detail::__visitation::__variant::__value_visitor::BoolSetting, std::__ndk1::__variant_detail::__visitation::__variant::__value_visitor::IntSetting, std::__ndk1::__variant_detail::__visitation::__variant::__value_visitor::FloatSetting, std::__ndk1::__variant_detail::__visitation::__variant::__value_visitor::StringSetting, std::__ndk1::__variant_detail::__visitation::__variant::__value_visitor::FileSetting, std::__ndk1::__variant_detail::__visitation::__variant::__value_visitor::ColorSetting, std::__ndk1::__variant_detail::__visitation::__variant::__value_visitor::ColorAlphaSetting, std::__ndk1::__variant_detail::__visitation::__variant::__value_visitor::CustomSetting> const&)
FUNC 297c70 38 0 std::__ndk1::__variant_detail::__visitation::__base::__dispatcher<(unsigned int)1>::__dispatch[abi:v170000]<std::__ndk1::__variant_detail::__visitation::__variant::__value_visitor<geode::utils::makeVisitor<std::__ndk1::__variant_detail::__visitation::__variant::__value_visitor::Setting::createDefaultValue() const::$_0, geode::utils::makeVisitor::createDefaultValue() const::$_1, geode::utils::makeVisitor::createDefaultValue() const::$_2, geode::utils::makeVisitor::createDefaultValue() const::$_3, geode::utils::makeVisitor::createDefaultValue() const::$_4, geode::utils::makeVisitor::createDefaultValue() const::$_5, geode::utils::makeVisitor::createDefaultValue() const::$_6, geode::utils::makeVisitor::createDefaultValue() const::$_7> >&&, std::__ndk1::__variant_detail::__base<(std::__ndk1::__variant_detail::_Trait)1, std::__ndk1::__variant_detail::__visitation::__variant::__value_visitor::BoolSetting, std::__ndk1::__variant_detail::__visitation::__variant::__value_visitor::IntSetting, std::__ndk1::__variant_detail::__visitation::__variant::__value_visitor::FloatSetting, std::__ndk1::__variant_detail::__visitation::__variant::__value_visitor::StringSetting, std::__ndk1::__variant_detail::__visitation::__variant::__value_visitor::FileSetting, std::__ndk1::__variant_detail::__visitation::__variant::__value_visitor::ColorSetting, std::__ndk1::__variant_detail::__visitation::__variant::__value_visitor::ColorAlphaSetting, std::__ndk1::__variant_detail::__visitation::__variant::__value_visitor::CustomSetting> const&>(std::__ndk1::__variant_detail::__visitation::__variant::__value_visitor<geode::utils::makeVisitor<std::__ndk1::__variant_detail::__visitation::__variant::__value_visitor::Setting::createDefaultValue() const::$_0, geode::utils::makeVisitor::createDefaultValue() const::$_1, geode::utils::makeVisitor::createDefaultValue() const::$_2, geode::utils::makeVisitor::createDefaultValue() const::$_3, geode::utils::makeVisitor::createDefaultValue() const::$_4, geode::utils::makeVisitor::createDefaultValue() const::$_5, geode::utils::makeVisitor::createDefaultValue() const::$_6, geode::utils::makeVisitor::createDefaultValue() const::$_7> >&&, std::__ndk1::__variant_detail::__base<(std::__ndk1::__variant_detail::_Trait)1, std::__ndk1::__variant_detail::__visitation::__variant::__value_visitor::BoolSetting, std::__ndk1::__variant_detail::__visitation::__variant::__value_visitor::IntSetting, std::__ndk1::__variant_detail::__visitation::__variant::__value_visitor::FloatSetting, std::__ndk1::__variant_detail::__visitation::__variant::__value_visitor::StringSetting, std::__ndk1::__variant_detail::__visitation::__variant::__value_visitor::FileSetting, std::__ndk1::__variant_detail::__visitation::__variant::__value_visitor::ColorSetting, std::__ndk1::__variant_detail::__visitation::__variant::__value_visitor::ColorAlphaSetting, std::__ndk1::__variant_detail::__visitation::__variant::__value_visitor::CustomSetting> const&)
FUNC 297ca8 38 0 std::__ndk1::__variant_detail::__visitation::__base::__dispatcher<(unsigned int)2>::__dispatch[abi:v170000]<std::__ndk1::__variant_detail::__visitation::__variant::__value_visitor<geode::utils::makeVisitor<std::__ndk1::__variant_detail::__visitation::__variant::__value_visitor::Setting::createDefaultValue() const::$_0, geode::utils::makeVisitor::createDefaultValue() const::$_1, geode::utils::makeVisitor::createDefaultValue() const::$_2, geode::utils::makeVisitor::createDefaultValue() const::$_3, geode::utils::makeVisitor::createDefaultValue() const::$_4, geode::utils::makeVisitor::createDefaultValue() const::$_5, geode::utils::makeVisitor::createDefaultValue() const::$_6, geode::utils::makeVisitor::createDefaultValue() const::$_7> >&&, std::__ndk1::__variant_detail::__base<(std::__ndk1::__variant_detail::_Trait)1, std::__ndk1::__variant_detail::__visitation::__variant::__value_visitor::BoolSetting, std::__ndk1::__variant_detail::__visitation::__variant::__value_visitor::IntSetting, std::__ndk1::__variant_detail::__visitation::__variant::__value_visitor::FloatSetting, std::__ndk1::__variant_detail::__visitation::__variant::__value_visitor::StringSetting, std::__ndk1::__variant_detail::__visitation::__variant::__value_visitor::FileSetting, std::__ndk1::__variant_detail::__visitation::__variant::__value_visitor::ColorSetting, std::__ndk1::__variant_detail::__visitation::__variant::__value_visitor::ColorAlphaSetting, std::__ndk1::__variant_detail::__visitation::__variant::__value_visitor::CustomSetting> const&>(std::__ndk1::__variant_detail::__visitation::__variant::__value_visitor<geode::utils::makeVisitor<std::__ndk1::__variant_detail::__visitation::__variant::__value_visitor::Setting::createDefaultValue() const::$_0, geode::utils::makeVisitor::createDefaultValue() const::$_1, geode::utils::makeVisitor::createDefaultValue() const::$_2, geode::utils::makeVisitor::createDefaultValue() const::$_3, geode::utils::makeVisitor::createDefaultValue() const::$_4, geode::utils::makeVisitor::createDefaultValue() const::$_5, geode::utils::makeVisitor::createDefaultValue() const::$_6, geode::utils::makeVisitor::createDefaultValue() const::$_7> >&&, std::__ndk1::__variant_detail::__base<(std::__ndk1::__variant_detail::_Trait)1, std::__ndk1::__variant_detail::__visitation::__variant::__value_visitor::BoolSetting, std::__ndk1::__variant_detail::__visitation::__variant::__value_visitor::IntSetting, std::__ndk1::__variant_detail::__visitation::__variant::__value_visitor::FloatSetting, std::__ndk1::__variant_detail::__visitation::__variant::__value_visitor::StringSetting, std::__ndk1::__variant_detail::__visitation::__variant::__value_visitor::FileSetting, std::__ndk1::__variant_detail::__visitation::__variant::__value_visitor::ColorSetting, std::__ndk1::__variant_detail::__visitation::__variant::__value_visitor::ColorAlphaSetting, std::__ndk1::__variant_detail::__visitation::__variant::__value_visitor::CustomSetting> const&)
