MODULE Linux arm64 4EA3F5B786734182595579073D60B48F0 geode.custom-keybinds.android64.so
INFO CODE_ID B7F5A34E73868241595579073D60B48F2E8AE2EE
INFO GENERATOR mozilla/dump_syms 2.3.3
PUBLIC 41d60 0 __on_dlclose
PUBLIC 41d70 0 __emutls_unregister_key
PUBLIC 41d78 0 __on_dlclose_late
PUBLIC 41d80 0 __atexit_handler_wrapper
PUBLIC 41d94 0 atexit
PUBLIC 41db0 0 pthread_atfork
PUBLIC m 41dc0 0 keybinds::ControllerBind::create(cocos2d::enumKeyCodes)
PUBLIC m 41e48 0 keybinds::ControllerBind::parse(matjson::Value const&)
PUBLIC m 41ee8 0 keybinds::ControllerBind::save() const
PUBLIC 41fbc 0 _ZNSt6__ndk14pairINS_12basic_stringIcNS_11char_traitsIcEENS_9allocatorIcEEEEN7matjson5ValueEEC2B8ne180000IRA7_KciTnNS_9enable_ifIXclsr10_CheckArgsE17__enable_implicitIT_T0_EEEiE4typeELi0EEEOSF_OSG_
PUBLIC 42084 0 std::__ndk1::pair<std::__ndk1::basic_string<char, std::__ndk1::char_traits<char>, std::__ndk1::allocator<char> >, matjson::Value>::~pair()
PUBLIC m 420c0 0 keybinds::ControllerBind::getButton() const
PUBLIC m 420c8 0 keybinds::ControllerBind::getHash() const
PUBLIC m 420d0 0 keybinds::ControllerBind::isEqual(keybinds::Bind*) const
PUBLIC m 42134 0 keybinds::ControllerBind::toString() const
PUBLIC m 4213c 0 keybinds::ControllerBind::createLabel() const
PUBLIC m 423b8 0 keybinds::ControllerBind::getDeviceID() const
PUBLIC 42400 0 cocos2d::CCCopying::copyWithZone(cocos2d::CCZone*)
PUBLIC m 42408 0 keybinds::ControllerBind::~ControllerBind()
PUBLIC 4242c 0 cocos2d::CCObject::update(float)
PUBLIC 42430 0 std::__ndk1::basic_string<char, std::__ndk1::char_traits<char>, std::__ndk1::allocator<char> >::__throw_length_error[abi:ne180000]() const
PUBLIC 42444 0 std::__ndk1::__throw_length_error[abi:ne180000](char const*)
PUBLIC 42494 0 std::length_error::length_error[abi:ne180000](char const*)
PUBLIC 424c4 0 geode::cast::traverseTypeinfoFor(void*, geode::cast::ClassTypeinfoType const*, char const*)
PUBLIC 425c8 0 geodeExecFunction330<(anonymous namespace)::ExecFuncUnique330>()
PUBLIC 4c5d4 0 __cxx_global_var_init.1
PUBLIC 4cb78 0 __cxx_global_var_init.2
PUBLIC 4d04c 0 _GLOBAL__sub_I_EditorUI.cpp
PUBLIC 4d050 0 geode::modifier::ModifyBase<geode::modifier::ModifyDerive<hook38<(anonymous namespace)::hook38Parent>, EditorPauseLayer> >::~ModifyBase()
PUBLIC 4d06c 0 geode::modifier::ModifyBase<geode::modifier::ModifyDerive<hook62<(anonymous namespace)::hook62Parent>, EditorUI> >::~ModifyBase()
PUBLIC 4d088 0 geode::modifier::ModifyDerive<hook38<(anonymous namespace)::hook38Parent>, EditorPauseLayer>::apply()
PUBLIC 4d680 0 std::__ndk1::shared_ptr<geode::Hook>::~shared_ptr[abi:ne180000]()
PUBLIC 4d6d0 0 std::__ndk1::vector<std::__ndk1::basic_string<char, std::__ndk1::char_traits<char>, std::__ndk1::allocator<char> >, std::__ndk1::allocator<std::__ndk1::basic_string<char, std::__ndk1::char_traits<char>, std::__ndk1::allocator<char> > > >::~vector[abi:ne180000]()
PUBLIC 4d74c 0 geode::modifier::ModifyBase<geode::modifier::ModifyDerive<hook38<(anonymous namespace)::hook38Parent>, EditorPauseLayer> >::apply()
PUBLIC 4d750 0 __clang_call_terminate
PUBLIC 4d760 0 geode::Result<geode::Hook*, std::__ndk1::basic_string<char, std::__ndk1::char_traits<char>, std::__ndk1::allocator<char> > >::unwrap() &
PUBLIC 4d82c 0 std::__ndk1::__tree<std::__ndk1::__value_type<std::__ndk1::basic_string<char, std::__ndk1::char_traits<char>, std::__ndk1::allocator<char> >, std::__ndk1::shared_ptr<geode::Hook> >, std::__ndk1::__map_value_compare<std::__ndk1::basic_string<char, std::__ndk1::char_traits<char>, std::__ndk1::allocator<char> >, std::__ndk1::__value_type<std::__ndk1::basic_string<char, std::__ndk1::char_traits<char>, std::__ndk1::allocator<char> >, std::__ndk1::shared_ptr<geode::Hook> >, std::__ndk1::less<std::__ndk1::basic_string<char, std::__ndk1::char_traits<char>, std::__ndk1::allocator<char> > >, true>, std::__ndk1::allocator<std::__ndk1::__value_type<std::__ndk1::basic_string<char, std::__ndk1::char_traits<char>, std::__ndk1::allocator<char> >, std::__ndk1::shared_ptr<geode::Hook> > > >::find<std::__ndk1::basic_string<char, std::__ndk1::char_traits<char>, std::__ndk1::allocator<char> > >(std::__ndk1::basic_string<char, std::__ndk1::char_traits<char>, std::__ndk1::allocator<char> > const&)
PUBLIC 4d94c 0 std::__ndk1::__tree<std::__ndk1::__value_type<std::__ndk1::basic_string<char, std::__ndk1::char_traits<char>, std::__ndk1::allocator<char> >, std::__ndk1::shared_ptr<geode::Hook> >, std::__ndk1::__map_value_compare<std::__ndk1::basic_string<char, std::__ndk1::char_traits<char>, std::__ndk1::allocator<char> >, std::__ndk1::__value_type<std::__ndk1::basic_string<char, std::__ndk1::char_traits<char>, std::__ndk1::allocator<char> >, std::__ndk1::shared_ptr<geode::Hook> >, std::__ndk1::less<std::__ndk1::basic_string<char, std::__ndk1::char_traits<char>, std::__ndk1::allocator<char> > >, true>, std::__ndk1::allocator<std::__ndk1::__value_type<std::__ndk1::basic_string<char, std::__ndk1::char_traits<char>, std::__ndk1::allocator<char> >, std::__ndk1::shared_ptr<geode::Hook> > > >::__emplace_unique_key_args<std::__ndk1::basic_string<char, std::__ndk1::char_traits<char>, std::__ndk1::allocator<char> >, std::__ndk1::piecewise_construct_t const&, std::__ndk1::tuple<std::__ndk1::basic_string<char, std::__ndk1::char_traits<char>, std::__ndk1::allocator<char> > const&>, std::__ndk1::tuple<> >(std::__ndk1::basic_string<char, std::__ndk1::char_traits<char>, std::__ndk1::allocator<char> > const&, std::__ndk1::piecewise_construct_t const&, std::__ndk1::tuple<std::__ndk1::basic_string<char, std::__ndk1::char_traits<char>, std::__ndk1::allocator<char> > const&>, std::__ndk1::tuple<>)
PUBLIC 4db40 0 std::__ndk1::unique_ptr<std::__ndk1::__tree_node<std::__ndk1::__value_type<std::__ndk1::basic_string<char, std::__ndk1::char_traits<char>, std::__ndk1::allocator<char> >, std::__ndk1::shared_ptr<geode::Hook> >, void*>, std::__ndk1::__tree_node_destructor<std::__ndk1::allocator<std::__ndk1::__tree_node<std::__ndk1::__value_type<std::__ndk1::basic_string<char, std::__ndk1::char_traits<char>, std::__ndk1::allocator<char> >, std::__ndk1::shared_ptr<geode::Hook> >, void*> > > >::~unique_ptr[abi:ne180000]()
PUBLIC 4dbbc 0 std::__throw_bad_array_new_length([abi:ne180000], void)
PUBLIC 4dbf0 0 std::__ndk1::basic_string<char, std::__ndk1::char_traits<char>, std::__ndk1::allocator<char> >::__init_copy_ctor_external(char const*, unsigned long)
PUBLIC 4dc70 0 std::__ndk1::__tree_balance_after_insert[abi:ne180000]<std::__ndk1::__tree_node_base<void*>*>(std::__ndk1::__tree_node_base<void*>*, std::__ndk1::__tree_node_base<void*>*)
PUBLIC 4de20 0 cpp::bitwizeshift::bad_result_access<std::__ndk1::basic_string<char, std::__ndk1::char_traits<char>, std::__ndk1::allocator<char> > >::~bad_result_access()
PUBLIC 4de60 0 cpp::bitwizeshift::bad_result_access<std::__ndk1::basic_string<char, std::__ndk1::char_traits<char>, std::__ndk1::allocator<char> > >::~bad_result_access()
PUBLIC 4dea4 0 std::__ndk1::vector<std::__ndk1::basic_string<char, std::__ndk1::char_traits<char>, std::__ndk1::allocator<char> >, std::__ndk1::allocator<std::__ndk1::basic_string<char, std::__ndk1::char_traits<char>, std::__ndk1::allocator<char> > > >::__push_back_slow_path<std::__ndk1::basic_string<char, std::__ndk1::char_traits<char>, std::__ndk1::allocator<char> > const&>(std::__ndk1::basic_string<char, std::__ndk1::char_traits<char>, std::__ndk1::allocator<char> > const&)
PUBLIC 4e0cc 0 std::__ndk1::__split_buffer<std::__ndk1::basic_string<char, std::__ndk1::char_traits<char>, std::__ndk1::allocator<char> >, std::__ndk1::allocator<std::__ndk1::basic_string<char, std::__ndk1::char_traits<char>, std::__ndk1::allocator<char> > >&>::~__split_buffer()
PUBLIC 4e134 0 std::__ndk1::vector<std::__ndk1::basic_string<char, std::__ndk1::char_traits<char>, std::__ndk1::allocator<char> >, std::__ndk1::allocator<std::__ndk1::basic_string<char, std::__ndk1::char_traits<char>, std::__ndk1::allocator<char> > > >::__throw_length_error[abi:ne180000]() const
PUBLIC 4e148 0 std::__ndk1::__tree<std::__ndk1::__value_type<std::__ndk1::basic_string<char, std::__ndk1::char_traits<char>, std::__ndk1::allocator<char> >, std::__ndk1::shared_ptr<geode::Hook> >, std::__ndk1::__map_value_compare<std::__ndk1::basic_string<char, std::__ndk1::char_traits<char>, std::__ndk1::allocator<char> >, std::__ndk1::__value_type<std::__ndk1::basic_string<char, std::__ndk1::char_traits<char>, std::__ndk1::allocator<char> >, std::__ndk1::shared_ptr<geode::Hook> >, std::__ndk1::less<std::__ndk1::basic_string<char, std::__ndk1::char_traits<char>, std::__ndk1::allocator<char> > >, true>, std::__ndk1::allocator<std::__ndk1::__value_type<std::__ndk1::basic_string<char, std::__ndk1::char_traits<char>, std::__ndk1::allocator<char> >, std::__ndk1::shared_ptr<geode::Hook> > > >::erase(std::__ndk1::__tree_const_iterator<std::__ndk1::__value_type<std::__ndk1::basic_string<char, std::__ndk1::char_traits<char>, std::__ndk1::allocator<char> >, std::__ndk1::shared_ptr<geode::Hook> >, std::__ndk1::__tree_node<std::__ndk1::__value_type<std::__ndk1::basic_string<char, std::__ndk1::char_traits<char>, std::__ndk1::allocator<char> >, std::__ndk1::shared_ptr<geode::Hook> >, void*>*, long>)
PUBLIC 4e21c 0 std::__ndk1::__tree_remove[abi:ne180000]<std::__ndk1::__tree_node_base<void*>*>(std::__ndk1::__tree_node_base<void*>*, std::__ndk1::__tree_node_base<void*>*)
PUBLIC 4e5e8 0 std::__ndk1::__tree<std::__ndk1::__value_type<std::__ndk1::basic_string<char, std::__ndk1::char_traits<char>, std::__ndk1::allocator<char> >, std::__ndk1::shared_ptr<geode::Hook> >, std::__ndk1::__map_value_compare<std::__ndk1::basic_string<char, std::__ndk1::char_traits<char>, std::__ndk1::allocator<char> >, std::__ndk1::__value_type<std::__ndk1::basic_string<char, std::__ndk1::char_traits<char>, std::__ndk1::allocator<char> >, std::__ndk1::shared_ptr<geode::Hook> >, std::__ndk1::less<std::__ndk1::basic_string<char, std::__ndk1::char_traits<char>, std::__ndk1::allocator<char> > >, true>, std::__ndk1::allocator<std::__ndk1::__value_type<std::__ndk1::basic_string<char, std::__ndk1::char_traits<char>, std::__ndk1::allocator<char> >, std::__ndk1::shared_ptr<geode::Hook> > > >::destroy(std::__ndk1::__tree_node<std::__ndk1::__value_type<std::__ndk1::basic_string<char, std::__ndk1::char_traits<char>, std::__ndk1::allocator<char> >, std::__ndk1::shared_ptr<geode::Hook> >, void*>*)
PUBLIC 4e674 0 geode::modifier::AsStaticFunction_keyDown<hook38<(anonymous namespace)::hook38Parent>, void (hook38<(anonymous namespace)::hook38Parent>::*)(cocos2d::enumKeyCodes)>::Impl<void (hook38<(anonymous namespace)::hook38Parent>::*)(cocos2d::enumKeyCodes)>::function(hook38<(anonymous namespace)::hook38Parent>*, cocos2d::enumKeyCodes)
PUBLIC 4e684 0 geode::modifier::AsStaticFunction_customSetup<hook38<(anonymous namespace)::hook38Parent>, void (hook38<(anonymous namespace)::hook38Parent>::*)()>::Impl<void (hook38<(anonymous namespace)::hook38Parent>::*)()>::function(hook38<(anonymous namespace)::hook38Parent>*)
PUBLIC 4e740 0 geode::addresser::Addresser::addressOfVirtual<void, EditorPauseLayer, cocos2d::enumKeyCodes>(void (EditorPauseLayer::*)(cocos2d::enumKeyCodes))
PUBLIC 4e82c 0 EditorPauseLayer::EditorPauseLayer(geode::ZeroConstructorType)
PUBLIC 4e8b8 0 std::__ndk1::shared_ptr<tulip::hook::CallingConvention>::~shared_ptr[abi:ne180000]()
PUBLIC 4e908 0 tulip::hook::HandlerMetadata::~HandlerMetadata()
PUBLIC 4e96c 0 std::__ndk1::__tree<std::__ndk1::__value_type<std::__ndk1::basic_string<char, std::__ndk1::char_traits<char>, std::__ndk1::allocator<char> >, std::__ndk1::shared_ptr<geode::Hook> >, std::__ndk1::__map_value_compare<std::__ndk1::basic_string<char, std::__ndk1::char_traits<char>, std::__ndk1::allocator<char> >, std::__ndk1::__value_type<std::__ndk1::basic_string<char, std::__ndk1::char_traits<char>, std::__ndk1::allocator<char> >, std::__ndk1::shared_ptr<geode::Hook> >, std::__ndk1::less<std::__ndk1::basic_string<char, std::__ndk1::char_traits<char>, std::__ndk1::allocator<char> > >, true>, std::__ndk1::allocator<std::__ndk1::__value_type<std::__ndk1::basic_string<char, std::__ndk1::char_traits<char>, std::__ndk1::allocator<char> >, std::__ndk1::shared_ptr<geode::Hook> > > >::__emplace_unique_key_args<std::__ndk1::basic_string<char, std::__ndk1::char_traits<char>, std::__ndk1::allocator<char> >, std::__ndk1::piecewise_construct_t const&, std::__ndk1::tuple<std::__ndk1::basic_string<char, std::__ndk1::char_traits<char>, std::__ndk1::allocator<char> >&&>, std::__ndk1::tuple<> >(std::__ndk1::basic_string<char, std::__ndk1::char_traits<char>, std::__ndk1::allocator<char> > const&, std::__ndk1::piecewise_construct_t const&, std::__ndk1::tuple<std::__ndk1::basic_string<char, std::__ndk1::char_traits<char>, std::__ndk1::allocator<char> >&&>, std::__ndk1::tuple<>)
PUBLIC 4eae4 0 geode::addresser::Addresser::addressOfVirtual<void, EditorPauseLayer, >(void (EditorPauseLayer::*)())
PUBLIC 4ebd0 0 cocos2d::CCNode::addEventListener<keybinds::InvokeBindFilter, char const (&) [35]>(geode::utils::MiniFunction<keybinds::InvokeBindFilter::Callback>, char const (&) [35])
PUBLIC 4ecf0 0 cocos2d::CCNode::addEventListener<keybinds::InvokeBindFilter, char const (&) [35]>(std::__ndk1::basic_string<char, std::__ndk1::char_traits<char>, std::__ndk1::allocator<char> > const&, geode::utils::MiniFunction<keybinds::InvokeBindFilter::Callback>, char const (&) [35])
PUBLIC 4ef50 0 geode::EventListener<keybinds::InvokeBindFilter>::EventListener(geode::utils::MiniFunction<geode::ListenerResult(keybinds::InvokeBindEvent*)>, keybinds::InvokeBindFilter)
PUBLIC 4f050 0 geode::EventListener<keybinds::InvokeBindFilter>::getPool() const
PUBLIC 4f054 0 geode::EventListener<keybinds::InvokeBindFilter>::handle(geode::Event*)
PUBLIC 4f15c 0 geode::EventListener<keybinds::InvokeBindFilter>::~EventListener()
PUBLIC 4f1ac 0 geode::EventListener<keybinds::InvokeBindFilter>::~EventListener()
PUBLIC 4f204 0 geode::utils::MiniFunctionStateBase<geode::ListenerResult, keybinds::InvokeBindEvent*>::~MiniFunctionStateBase()
PUBLIC 4f208 0 geode::utils::MiniFunctionState<hook38<(anonymous namespace)::hook38Parent>::customSetup()::{lambda(keybinds::InvokeBindEvent*)#1}, geode::ListenerResult, keybinds::InvokeBindEvent*>::~MiniFunctionState()
PUBLIC 4f20c 0 geode::utils::MiniFunctionState<hook38<(anonymous namespace)::hook38Parent>::customSetup()::{lambda(keybinds::InvokeBindEvent*)#1}, geode::ListenerResult, keybinds::InvokeBindEvent*>::call(keybinds::InvokeBindEvent*) const
PUBLIC 4f254 0 geode::utils::MiniFunctionState<hook38<(anonymous namespace)::hook38Parent>::customSetup()::{lambda(keybinds::InvokeBindEvent*)#1}, geode::ListenerResult, keybinds::InvokeBindEvent*>::clone() const
PUBLIC 4f288 0 geode::modifier::ModifyDerive<hook62<(anonymous namespace)::hook62Parent>, EditorUI>::apply()
PUBLIC 4fd54 0 geode::modifier::ModifyBase<geode::modifier::ModifyDerive<hook62<(anonymous namespace)::hook62Parent>, EditorUI> >::apply()
PUBLIC 4fd58 0 geode::modifier::ModifyBase<geode::modifier::ModifyDerive<hook62<(anonymous namespace)::hook62Parent>, EditorUI> >::setHookPriority(std::__ndk1::basic_string<char, std::__ndk1::char_traits<char>, std::__ndk1::allocator<char> > const&, int)
PUBLIC 4ff50 0 geode::modifier::AsStaticFunction_init<hook62<(anonymous namespace)::hook62Parent>, bool (hook62<(anonymous namespace)::hook62Parent>::*)(LevelEditorLayer*)>::Impl<bool (hook62<(anonymous namespace)::hook62Parent>::*)(LevelEditorLayer*)>::function(hook62<(anonymous namespace)::hook62Parent>*, LevelEditorLayer*)
PUBLIC 50030 0 geode::Hook::create<void (*)(hook62<(anonymous namespace)::hook62Parent>*, EditCommand)>(void*, void (*)(hook62<(anonymous namespace)::hook62Parent>*, EditCommand), std::__ndk1::basic_string<char, std::__ndk1::char_traits<char>, std::__ndk1::allocator<char> > const&, tulip::hook::TulipConvention, tulip::hook::HookMetadata const&)
PUBLIC 501b4 0 geode::modifier::AsStaticFunction_moveObjectCall<hook62<(anonymous namespace)::hook62Parent>, void (hook62<(anonymous namespace)::hook62Parent>::*)(EditCommand)>::Impl<void (hook62<(anonymous namespace)::hook62Parent>::*)(EditCommand)>::function(hook62<(anonymous namespace)::hook62Parent>*, EditCommand)
PUBLIC 501b8 0 geode::modifier::AsStaticFunction_transformObjectCall<hook62<(anonymous namespace)::hook62Parent>, void (hook62<(anonymous namespace)::hook62Parent>::*)(EditCommand)>::Impl<void (hook62<(anonymous namespace)::hook62Parent>::*)(EditCommand)>::function(hook62<(anonymous namespace)::hook62Parent>*, EditCommand)
PUBLIC 501bc 0 geode::Hook::create<void (*)(hook62<(anonymous namespace)::hook62Parent>*, cocos2d::enumKeyCodes)>(void*, void (*)(hook62<(anonymous namespace)::hook62Parent>*, cocos2d::enumKeyCodes), std::__ndk1::basic_string<char, std::__ndk1::char_traits<char>, std::__ndk1::allocator<char> > const&, tulip::hook::TulipConvention, tulip::hook::HookMetadata const&)
PUBLIC 50340 0 geode::modifier::AsStaticFunction_keyDown<hook62<(anonymous namespace)::hook62Parent>, void (hook62<(anonymous namespace)::hook62Parent>::*)(cocos2d::enumKeyCodes)>::Impl<void (hook62<(anonymous namespace)::hook62Parent>::*)(cocos2d::enumKeyCodes)>::function(hook62<(anonymous namespace)::hook62Parent>*, cocos2d::enumKeyCodes)
PUBLIC 50364 0 geode::modifier::AsStaticFunction_keyUp<hook62<(anonymous namespace)::hook62Parent>, void (hook62<(anonymous namespace)::hook62Parent>::*)(cocos2d::enumKeyCodes)>::Impl<void (hook62<(anonymous namespace)::hook62Parent>::*)(cocos2d::enumKeyCodes)>::function(hook62<(anonymous namespace)::hook62Parent>*, cocos2d::enumKeyCodes)
PUBLIC 50380 0 geode::utils::MiniFunctionStateBase<void, >::~MiniFunctionStateBase()
PUBLIC 50384 0 geode::utils::MiniFunctionState<hook62<(anonymous namespace)::hook62Parent>::init(LevelEditorLayer*)::{lambda()#1}, void, >::~MiniFunctionState()
PUBLIC 50388 0 geode::utils::MiniFunctionState<hook62<(anonymous namespace)::hook62Parent>::init(LevelEditorLayer*)::{lambda()#1}, void, >::call() const
PUBLIC 50390 0 geode::utils::MiniFunctionState<hook62<(anonymous namespace)::hook62Parent>::init(LevelEditorLayer*)::{lambda()#1}, void, >::clone() const
PUBLIC 503c8 0 hook62<(anonymous namespace)::hook62Parent>::init(LevelEditorLayer*)::{lambda()#1}::operator()() const
PUBLIC 52a70 0 hook62<(anonymous namespace)::hook62Parent>::defineKeybind(std::__ndk1::basic_string<char, std::__ndk1::char_traits<char>, std::__ndk1::allocator<char> > const&, std::__ndk1::function<void (bool)>)
PUBLIC 52cf4 0 hook62<(anonymous namespace)::hook62Parent>::defineKeybind(std::__ndk1::basic_string<char, std::__ndk1::char_traits<char>, std::__ndk1::allocator<char> > const&, std::__ndk1::function<void ()>)
PUBLIC 52f78 0 cocos2d::CCNode::addEventListener<keybinds::InvokeBindFilter, std::__ndk1::basic_string<char, std::__ndk1::char_traits<char>, std::__ndk1::allocator<char> > const&>(geode::utils::MiniFunction<keybinds::InvokeBindFilter::Callback>, std::__ndk1::basic_string<char, std::__ndk1::char_traits<char>, std::__ndk1::allocator<char> > const&)
PUBLIC 53098 0 cocos2d::CCNode::addEventListener<keybinds::InvokeBindFilter, std::__ndk1::basic_string<char, std::__ndk1::char_traits<char>, std::__ndk1::allocator<char> > const&>(std::__ndk1::basic_string<char, std::__ndk1::char_traits<char>, std::__ndk1::allocator<char> > const&, geode::utils::MiniFunction<keybinds::InvokeBindFilter::Callback>, std::__ndk1::basic_string<char, std::__ndk1::char_traits<char>, std::__ndk1::allocator<char> > const&)
PUBLIC 53218 0 geode::utils::MiniFunctionState<hook62<(anonymous namespace)::hook62Parent>::defineKeybind(std::__ndk1::basic_string<char, std::__ndk1::char_traits<char>, std::__ndk1::allocator<char> > const&, std::__ndk1::function<void (bool)>)::{lambda(keybinds::InvokeBindEvent*)#1}, geode::ListenerResult, keybinds::InvokeBindEvent*>::~MiniFunctionState()
PUBLIC 53258 0 geode::utils::MiniFunctionState<hook62<(anonymous namespace)::hook62Parent>::defineKeybind(std::__ndk1::basic_string<char, std::__ndk1::char_traits<char>, std::__ndk1::allocator<char> > const&, std::__ndk1::function<void (bool)>)::{lambda(keybinds::InvokeBindEvent*)#1}, geode::ListenerResult, keybinds::InvokeBindEvent*>::~MiniFunctionState()
PUBLIC 532a8 0 geode::utils::MiniFunctionState<hook62<(anonymous namespace)::hook62Parent>::defineKeybind(std::__ndk1::basic_string<char, std::__ndk1::char_traits<char>, std::__ndk1::allocator<char> > const&, std::__ndk1::function<void (bool)>)::{lambda(keybinds::InvokeBindEvent*)#1}, geode::ListenerResult, keybinds::InvokeBindEvent*>::call(keybinds::InvokeBindEvent*) const
PUBLIC 53330 0 geode::utils::MiniFunctionState<hook62<(anonymous namespace)::hook62Parent>::defineKeybind(std::__ndk1::basic_string<char, std::__ndk1::char_traits<char>, std::__ndk1::allocator<char> > const&, std::__ndk1::function<void (bool)>)::{lambda(keybinds::InvokeBindEvent*)#1}, geode::ListenerResult, keybinds::InvokeBindEvent*>::clone() const
PUBLIC 533c4 0 std::__ndk1::__throw_bad_function_call[abi:ne180000]()
PUBLIC 533f8 0 std::__ndk1::bad_function_call::~bad_function_call()
PUBLIC 5341c 0 std::__ndk1::__function::__func<hook62<(anonymous namespace)::hook62Parent>::init(LevelEditorLayer*)::{lambda()#1}::operator()() const::{lambda(bool)#1}, std::__ndk1::allocator<hook62<(anonymous namespace)::hook62Parent>::init(LevelEditorLayer*)::{lambda()#1}::operator()() const::{lambda(bool)#1}>, void (bool)>::~__func()
PUBLIC 53420 0 std::__ndk1::__function::__func<hook62<(anonymous namespace)::hook62Parent>::init(LevelEditorLayer*)::{lambda()#1}::operator()() const::{lambda(bool)#1}, std::__ndk1::allocator<hook62<(anonymous namespace)::hook62Parent>::init(LevelEditorLayer*)::{lambda()#1}::operator()() const::{lambda(bool)#1}>, void (bool)>::__clone() const
PUBLIC 53454 0 std::__ndk1::__function::__func<hook62<(anonymous namespace)::hook62Parent>::init(LevelEditorLayer*)::{lambda()#1}::operator()() const::{lambda(bool)#1}, std::__ndk1::allocator<hook62<(anonymous namespace)::hook62Parent>::init(LevelEditorLayer*)::{lambda()#1}::operator()() const::{lambda(bool)#1}>, void (bool)>::__clone(std::__ndk1::__function::__base<void (bool)>*) const
PUBLIC 53468 0 std::__ndk1::__function::__func<hook62<(anonymous namespace)::hook62Parent>::init(LevelEditorLayer*)::{lambda()#1}::operator()() const::{lambda(bool)#1}, std::__ndk1::allocator<hook62<(anonymous namespace)::hook62Parent>::init(LevelEditorLayer*)::{lambda()#1}::operator()() const::{lambda(bool)#1}>, void (bool)>::destroy()
PUBLIC 5346c 0 std::__ndk1::__function::__func<hook62<(anonymous namespace)::hook62Parent>::init(LevelEditorLayer*)::{lambda()#1}::operator()() const::{lambda(bool)#1}, std::__ndk1::allocator<hook62<(anonymous namespace)::hook62Parent>::init(LevelEditorLayer*)::{lambda()#1}::operator()() const::{lambda(bool)#1}>, void (bool)>::destroy_deallocate()
PUBLIC 53470 0 std::__ndk1::__function::__func<hook62<(anonymous namespace)::hook62Parent>::init(LevelEditorLayer*)::{lambda()#1}::operator()() const::{lambda(bool)#1}, std::__ndk1::allocator<hook62<(anonymous namespace)::hook62Parent>::init(LevelEditorLayer*)::{lambda()#1}::operator()() const::{lambda(bool)#1}>, void (bool)>::operator()(bool&&)
PUBLIC 53494 0 std::__ndk1::__function::__func<hook62<(anonymous namespace)::hook62Parent>::init(LevelEditorLayer*)::{lambda()#1}::operator()() const::{lambda(bool)#1}, std::__ndk1::allocator<hook62<(anonymous namespace)::hook62Parent>::init(LevelEditorLayer*)::{lambda()#1}::operator()() const::{lambda(bool)#1}>, void (bool)>::target(std::type_info const&) const
PUBLIC 534b0 0 std::__ndk1::__function::__func<hook62<(anonymous namespace)::hook62Parent>::init(LevelEditorLayer*)::{lambda()#1}::operator()() const::{lambda(bool)#1}, std::__ndk1::allocator<hook62<(anonymous namespace)::hook62Parent>::init(LevelEditorLayer*)::{lambda()#1}::operator()() const::{lambda(bool)#1}>, void (bool)>::target_type() const
PUBLIC 534bc 0 std::__ndk1::__function::__func<hook62<(anonymous namespace)::hook62Parent>::init(LevelEditorLayer*)::{lambda()#1}::operator()() const::{lambda(bool)#2}, std::__ndk1::allocator<hook62<(anonymous namespace)::hook62Parent>::init(LevelEditorLayer*)::{lambda()#1}::operator()() const::{lambda(bool)#2}>, void (bool)>::~__func()
PUBLIC 534c0 0 std::__ndk1::__function::__func<hook62<(anonymous namespace)::hook62Parent>::init(LevelEditorLayer*)::{lambda()#1}::operator()() const::{lambda(bool)#2}, std::__ndk1::allocator<hook62<(anonymous namespace)::hook62Parent>::init(LevelEditorLayer*)::{lambda()#1}::operator()() const::{lambda(bool)#2}>, void (bool)>::__clone() const
PUBLIC 534f4 0 std::__ndk1::__function::__func<hook62<(anonymous namespace)::hook62Parent>::init(LevelEditorLayer*)::{lambda()#1}::operator()() const::{lambda(bool)#2}, std::__ndk1::allocator<hook62<(anonymous namespace)::hook62Parent>::init(LevelEditorLayer*)::{lambda()#1}::operator()() const::{lambda(bool)#2}>, void (bool)>::__clone(std::__ndk1::__function::__base<void (bool)>*) const
PUBLIC 53508 0 std::__ndk1::__function::__func<hook62<(anonymous namespace)::hook62Parent>::init(LevelEditorLayer*)::{lambda()#1}::operator()() const::{lambda(bool)#2}, std::__ndk1::allocator<hook62<(anonymous namespace)::hook62Parent>::init(LevelEditorLayer*)::{lambda()#1}::operator()() const::{lambda(bool)#2}>, void (bool)>::destroy()
PUBLIC 5350c 0 std::__ndk1::__function::__func<hook62<(anonymous namespace)::hook62Parent>::init(LevelEditorLayer*)::{lambda()#1}::operator()() const::{lambda(bool)#2}, std::__ndk1::allocator<hook62<(anonymous namespace)::hook62Parent>::init(LevelEditorLayer*)::{lambda()#1}::operator()() const::{lambda(bool)#2}>, void (bool)>::destroy_deallocate()
PUBLIC 53510 0 std::__ndk1::__function::__func<hook62<(anonymous namespace)::hook62Parent>::init(LevelEditorLayer*)::{lambda()#1}::operator()() const::{lambda(bool)#2}, std::__ndk1::allocator<hook62<(anonymous namespace)::hook62Parent>::init(LevelEditorLayer*)::{lambda()#1}::operator()() const::{lambda(bool)#2}>, void (bool)>::operator()(bool&&)
PUBLIC 53534 0 std::__ndk1::__function::__func<hook62<(anonymous namespace)::hook62Parent>::init(LevelEditorLayer*)::{lambda()#1}::operator()() const::{lambda(bool)#2}, std::__ndk1::allocator<hook62<(anonymous namespace)::hook62Parent>::init(LevelEditorLayer*)::{lambda()#1}::operator()() const::{lambda(bool)#2}>, void (bool)>::target(std::type_info const&) const
PUBLIC 53550 0 std::__ndk1::__function::__func<hook62<(anonymous namespace)::hook62Parent>::init(LevelEditorLayer*)::{lambda()#1}::operator()() const::{lambda(bool)#2}, std::__ndk1::allocator<hook62<(anonymous namespace)::hook62Parent>::init(LevelEditorLayer*)::{lambda()#1}::operator()() const::{lambda(bool)#2}>, void (bool)>::target_type() const
PUBLIC 5355c 0 std::__ndk1::__function::__func<hook62<(anonymous namespace)::hook62Parent>::init(LevelEditorLayer*)::{lambda()#1}::operator()() const::{lambda(bool)#3}, std::__ndk1::allocator<hook62<(anonymous namespace)::hook62Parent>::init(LevelEditorLayer*)::{lambda()#1}::operator()() const::{lambda(bool)#3}>, void (bool)>::~__func()
PUBLIC 53560 0 std::__ndk1::__function::__func<hook62<(anonymous namespace)::hook62Parent>::init(LevelEditorLayer*)::{lambda()#1}::operator()() const::{lambda(bool)#3}, std::__ndk1::allocator<hook62<(anonymous namespace)::hook62Parent>::init(LevelEditorLayer*)::{lambda()#1}::operator()() const::{lambda(bool)#3}>, void (bool)>::__clone() const
PUBLIC 53594 0 std::__ndk1::__function::__func<hook62<(anonymous namespace)::hook62Parent>::init(LevelEditorLayer*)::{lambda()#1}::operator()() const::{lambda(bool)#3}, std::__ndk1::allocator<hook62<(anonymous namespace)::hook62Parent>::init(LevelEditorLayer*)::{lambda()#1}::operator()() const::{lambda(bool)#3}>, void (bool)>::__clone(std::__ndk1::__function::__base<void (bool)>*) const
PUBLIC 535a8 0 std::__ndk1::__function::__func<hook62<(anonymous namespace)::hook62Parent>::init(LevelEditorLayer*)::{lambda()#1}::operator()() const::{lambda(bool)#3}, std::__ndk1::allocator<hook62<(anonymous namespace)::hook62Parent>::init(LevelEditorLayer*)::{lambda()#1}::operator()() const::{lambda(bool)#3}>, void (bool)>::destroy()
PUBLIC 535ac 0 std::__ndk1::__function::__func<hook62<(anonymous namespace)::hook62Parent>::init(LevelEditorLayer*)::{lambda()#1}::operator()() const::{lambda(bool)#3}, std::__ndk1::allocator<hook62<(anonymous namespace)::hook62Parent>::init(LevelEditorLayer*)::{lambda()#1}::operator()() const::{lambda(bool)#3}>, void (bool)>::destroy_deallocate()
PUBLIC 535b0 0 std::__ndk1::__function::__func<hook62<(anonymous namespace)::hook62Parent>::init(LevelEditorLayer*)::{lambda()#1}::operator()() const::{lambda(bool)#3}, std::__ndk1::allocator<hook62<(anonymous namespace)::hook62Parent>::init(LevelEditorLayer*)::{lambda()#1}::operator()() const::{lambda(bool)#3}>, void (bool)>::operator()(bool&&)
PUBLIC 535d4 0 std::__ndk1::__function::__func<hook62<(anonymous namespace)::hook62Parent>::init(LevelEditorLayer*)::{lambda()#1}::operator()() const::{lambda(bool)#3}, std::__ndk1::allocator<hook62<(anonymous namespace)::hook62Parent>::init(LevelEditorLayer*)::{lambda()#1}::operator()() const::{lambda(bool)#3}>, void (bool)>::target(std::type_info const&) const
PUBLIC 535f0 0 std::__ndk1::__function::__func<hook62<(anonymous namespace)::hook62Parent>::init(LevelEditorLayer*)::{lambda()#1}::operator()() const::{lambda(bool)#3}, std::__ndk1::allocator<hook62<(anonymous namespace)::hook62Parent>::init(LevelEditorLayer*)::{lambda()#1}::operator()() const::{lambda(bool)#3}>, void (bool)>::target_type() const
PUBLIC 535fc 0 std::__ndk1::__function::__func<hook62<(anonymous namespace)::hook62Parent>::init(LevelEditorLayer*)::{lambda()#1}::operator()() const::{lambda(bool)#4}, std::__ndk1::allocator<hook62<(anonymous namespace)::hook62Parent>::init(LevelEditorLayer*)::{lambda()#1}::operator()() const::{lambda(bool)#4}>, void (bool)>::~__func()
PUBLIC 53600 0 std::__ndk1::__function::__func<hook62<(anonymous namespace)::hook62Parent>::init(LevelEditorLayer*)::{lambda()#1}::operator()() const::{lambda(bool)#4}, std::__ndk1::allocator<hook62<(anonymous namespace)::hook62Parent>::init(LevelEditorLayer*)::{lambda()#1}::operator()() const::{lambda(bool)#4}>, void (bool)>::__clone() const
PUBLIC 53634 0 std::__ndk1::__function::__func<hook62<(anonymous namespace)::hook62Parent>::init(LevelEditorLayer*)::{lambda()#1}::operator()() const::{lambda(bool)#4}, std::__ndk1::allocator<hook62<(anonymous namespace)::hook62Parent>::init(LevelEditorLayer*)::{lambda()#1}::operator()() const::{lambda(bool)#4}>, void (bool)>::__clone(std::__ndk1::__function::__base<void (bool)>*) const
PUBLIC 53648 0 std::__ndk1::__function::__func<hook62<(anonymous namespace)::hook62Parent>::init(LevelEditorLayer*)::{lambda()#1}::operator()() const::{lambda(bool)#4}, std::__ndk1::allocator<hook62<(anonymous namespace)::hook62Parent>::init(LevelEditorLayer*)::{lambda()#1}::operator()() const::{lambda(bool)#4}>, void (bool)>::destroy()
PUBLIC 5364c 0 std::__ndk1::__function::__func<hook62<(anonymous namespace)::hook62Parent>::init(LevelEditorLayer*)::{lambda()#1}::operator()() const::{lambda(bool)#4}, std::__ndk1::allocator<hook62<(anonymous namespace)::hook62Parent>::init(LevelEditorLayer*)::{lambda()#1}::operator()() const::{lambda(bool)#4}>, void (bool)>::destroy_deallocate()
PUBLIC 53650 0 std::__ndk1::__function::__func<hook62<(anonymous namespace)::hook62Parent>::init(LevelEditorLayer*)::{lambda()#1}::operator()() const::{lambda(bool)#4}, std::__ndk1::allocator<hook62<(anonymous namespace)::hook62Parent>::init(LevelEditorLayer*)::{lambda()#1}::operator()() const::{lambda(bool)#4}>, void (bool)>::operator()(bool&&)
PUBLIC 53674 0 std::__ndk1::__function::__func<hook62<(anonymous namespace)::hook62Parent>::init(LevelEditorLayer*)::{lambda()#1}::operator()() const::{lambda(bool)#4}, std::__ndk1::allocator<hook62<(anonymous namespace)::hook62Parent>::init(LevelEditorLayer*)::{lambda()#1}::operator()() const::{lambda(bool)#4}>, void (bool)>::target(std::type_info const&) const
PUBLIC 53690 0 std::__ndk1::__function::__func<hook62<(anonymous namespace)::hook62Parent>::init(LevelEditorLayer*)::{lambda()#1}::operator()() const::{lambda(bool)#4}, std::__ndk1::allocator<hook62<(anonymous namespace)::hook62Parent>::init(LevelEditorLayer*)::{lambda()#1}::operator()() const::{lambda(bool)#4}>, void (bool)>::target_type() const
PUBLIC 5369c 0 std::__ndk1::__function::__func<hook62<(anonymous namespace)::hook62Parent>::init(LevelEditorLayer*)::{lambda()#1}::operator()() const::{lambda(bool)#5}, std::__ndk1::allocator<hook62<(anonymous namespace)::hook62Parent>::init(LevelEditorLayer*)::{lambda()#1}::operator()() const::{lambda(bool)#5}>, void (bool)>::~__func()
PUBLIC 536a0 0 std::__ndk1::__function::__func<hook62<(anonymous namespace)::hook62Parent>::init(LevelEditorLayer*)::{lambda()#1}::operator()() const::{lambda(bool)#5}, std::__ndk1::allocator<hook62<(anonymous namespace)::hook62Parent>::init(LevelEditorLayer*)::{lambda()#1}::operator()() const::{lambda(bool)#5}>, void (bool)>::__clone() const
PUBLIC 536d4 0 std::__ndk1::__function::__func<hook62<(anonymous namespace)::hook62Parent>::init(LevelEditorLayer*)::{lambda()#1}::operator()() const::{lambda(bool)#5}, std::__ndk1::allocator<hook62<(anonymous namespace)::hook62Parent>::init(LevelEditorLayer*)::{lambda()#1}::operator()() const::{lambda(bool)#5}>, void (bool)>::__clone(std::__ndk1::__function::__base<void (bool)>*) const
PUBLIC 536e8 0 std::__ndk1::__function::__func<hook62<(anonymous namespace)::hook62Parent>::init(LevelEditorLayer*)::{lambda()#1}::operator()() const::{lambda(bool)#5}, std::__ndk1::allocator<hook62<(anonymous namespace)::hook62Parent>::init(LevelEditorLayer*)::{lambda()#1}::operator()() const::{lambda(bool)#5}>, void (bool)>::destroy()
PUBLIC 536ec 0 std::__ndk1::__function::__func<hook62<(anonymous namespace)::hook62Parent>::init(LevelEditorLayer*)::{lambda()#1}::operator()() const::{lambda(bool)#5}, std::__ndk1::allocator<hook62<(anonymous namespace)::hook62Parent>::init(LevelEditorLayer*)::{lambda()#1}::operator()() const::{lambda(bool)#5}>, void (bool)>::destroy_deallocate()
PUBLIC 536f0 0 std::__ndk1::__function::__func<hook62<(anonymous namespace)::hook62Parent>::init(LevelEditorLayer*)::{lambda()#1}::operator()() const::{lambda(bool)#5}, std::__ndk1::allocator<hook62<(anonymous namespace)::hook62Parent>::init(LevelEditorLayer*)::{lambda()#1}::operator()() const::{lambda(bool)#5}>, void (bool)>::operator()(bool&&)
PUBLIC 53714 0 std::__ndk1::__function::__func<hook62<(anonymous namespace)::hook62Parent>::init(LevelEditorLayer*)::{lambda()#1}::operator()() const::{lambda(bool)#5}, std::__ndk1::allocator<hook62<(anonymous namespace)::hook62Parent>::init(LevelEditorLayer*)::{lambda()#1}::operator()() const::{lambda(bool)#5}>, void (bool)>::target(std::type_info const&) const
PUBLIC 53730 0 std::__ndk1::__function::__func<hook62<(anonymous namespace)::hook62Parent>::init(LevelEditorLayer*)::{lambda()#1}::operator()() const::{lambda(bool)#5}, std::__ndk1::allocator<hook62<(anonymous namespace)::hook62Parent>::init(LevelEditorLayer*)::{lambda()#1}::operator()() const::{lambda(bool)#5}>, void (bool)>::target_type() const
PUBLIC 5373c 0 std::__ndk1::__function::__func<hook62<(anonymous namespace)::hook62Parent>::init(LevelEditorLayer*)::{lambda()#1}::operator()() const::{lambda(bool)#6}, std::__ndk1::allocator<hook62<(anonymous namespace)::hook62Parent>::init(LevelEditorLayer*)::{lambda()#1}::operator()() const::{lambda(bool)#6}>, void (bool)>::~__func()
PUBLIC 53740 0 std::__ndk1::__function::__func<hook62<(anonymous namespace)::hook62Parent>::init(LevelEditorLayer*)::{lambda()#1}::operator()() const::{lambda(bool)#6}, std::__ndk1::allocator<hook62<(anonymous namespace)::hook62Parent>::init(LevelEditorLayer*)::{lambda()#1}::operator()() const::{lambda(bool)#6}>, void (bool)>::__clone() const
PUBLIC 53774 0 std::__ndk1::__function::__func<hook62<(anonymous namespace)::hook62Parent>::init(LevelEditorLayer*)::{lambda()#1}::operator()() const::{lambda(bool)#6}, std::__ndk1::allocator<hook62<(anonymous namespace)::hook62Parent>::init(LevelEditorLayer*)::{lambda()#1}::operator()() const::{lambda(bool)#6}>, void (bool)>::__clone(std::__ndk1::__function::__base<void (bool)>*) const
PUBLIC 53788 0 std::__ndk1::__function::__func<hook62<(anonymous namespace)::hook62Parent>::init(LevelEditorLayer*)::{lambda()#1}::operator()() const::{lambda(bool)#6}, std::__ndk1::allocator<hook62<(anonymous namespace)::hook62Parent>::init(LevelEditorLayer*)::{lambda()#1}::operator()() const::{lambda(bool)#6}>, void (bool)>::destroy()
PUBLIC 5378c 0 std::__ndk1::__function::__func<hook62<(anonymous namespace)::hook62Parent>::init(LevelEditorLayer*)::{lambda()#1}::operator()() const::{lambda(bool)#6}, std::__ndk1::allocator<hook62<(anonymous namespace)::hook62Parent>::init(LevelEditorLayer*)::{lambda()#1}::operator()() const::{lambda(bool)#6}>, void (bool)>::destroy_deallocate()
PUBLIC 53790 0 std::__ndk1::__function::__func<hook62<(anonymous namespace)::hook62Parent>::init(LevelEditorLayer*)::{lambda()#1}::operator()() const::{lambda(bool)#6}, std::__ndk1::allocator<hook62<(anonymous namespace)::hook62Parent>::init(LevelEditorLayer*)::{lambda()#1}::operator()() const::{lambda(bool)#6}>, void (bool)>::operator()(bool&&)
PUBLIC 537b4 0 std::__ndk1::__function::__func<hook62<(anonymous namespace)::hook62Parent>::init(LevelEditorLayer*)::{lambda()#1}::operator()() const::{lambda(bool)#6}, std::__ndk1::allocator<hook62<(anonymous namespace)::hook62Parent>::init(LevelEditorLayer*)::{lambda()#1}::operator()() const::{lambda(bool)#6}>, void (bool)>::target(std::type_info const&) const
PUBLIC 537d0 0 std::__ndk1::__function::__func<hook62<(anonymous namespace)::hook62Parent>::init(LevelEditorLayer*)::{lambda()#1}::operator()() const::{lambda(bool)#6}, std::__ndk1::allocator<hook62<(anonymous namespace)::hook62Parent>::init(LevelEditorLayer*)::{lambda()#1}::operator()() const::{lambda(bool)#6}>, void (bool)>::target_type() const
PUBLIC 537dc 0 geode::utils::MiniFunctionState<hook62<(anonymous namespace)::hook62Parent>::defineKeybind(std::__ndk1::basic_string<char, std::__ndk1::char_traits<char>, std::__ndk1::allocator<char> > const&, std::__ndk1::function<void ()>)::{lambda(keybinds::InvokeBindEvent*)#1}, geode::ListenerResult, keybinds::InvokeBindEvent*>::~MiniFunctionState()
PUBLIC 5381c 0 geode::utils::MiniFunctionState<hook62<(anonymous namespace)::hook62Parent>::defineKeybind(std::__ndk1::basic_string<char, std::__ndk1::char_traits<char>, std::__ndk1::allocator<char> > const&, std::__ndk1::function<void ()>)::{lambda(keybinds::InvokeBindEvent*)#1}, geode::ListenerResult, keybinds::InvokeBindEvent*>::~MiniFunctionState()
PUBLIC 5386c 0 geode::utils::MiniFunctionState<hook62<(anonymous namespace)::hook62Parent>::defineKeybind(std::__ndk1::basic_string<char, std::__ndk1::char_traits<char>, std::__ndk1::allocator<char> > const&, std::__ndk1::function<void ()>)::{lambda(keybinds::InvokeBindEvent*)#1}, geode::ListenerResult, keybinds::InvokeBindEvent*>::call(keybinds::InvokeBindEvent*) const
PUBLIC 538b0 0 geode::utils::MiniFunctionState<hook62<(anonymous namespace)::hook62Parent>::defineKeybind(std::__ndk1::basic_string<char, std::__ndk1::char_traits<char>, std::__ndk1::allocator<char> > const&, std::__ndk1::function<void ()>)::{lambda(keybinds::InvokeBindEvent*)#1}, geode::ListenerResult, keybinds::InvokeBindEvent*>::clone() const
PUBLIC 53944 0 std::__ndk1::__function::__func<hook62<(anonymous namespace)::hook62Parent>::init(LevelEditorLayer*)::{lambda()#1}::operator()() const::{lambda()#1}, std::__ndk1::allocator<hook62<(anonymous namespace)::hook62Parent>::init(LevelEditorLayer*)::{lambda()#1}::operator()() const::{lambda()#1}>, void ()>::~__func()
PUBLIC 53948 0 std::__ndk1::__function::__func<hook62<(anonymous namespace)::hook62Parent>::init(LevelEditorLayer*)::{lambda()#1}::operator()() const::{lambda()#1}, std::__ndk1::allocator<hook62<(anonymous namespace)::hook62Parent>::init(LevelEditorLayer*)::{lambda()#1}::operator()() const::{lambda()#1}>, void ()>::__clone() const
PUBLIC 5397c 0 std::__ndk1::__function::__func<hook62<(anonymous namespace)::hook62Parent>::init(LevelEditorLayer*)::{lambda()#1}::operator()() const::{lambda()#1}, std::__ndk1::allocator<hook62<(anonymous namespace)::hook62Parent>::init(LevelEditorLayer*)::{lambda()#1}::operator()() const::{lambda()#1}>, void ()>::__clone(std::__ndk1::__function::__base<void ()>*) const
PUBLIC 53990 0 std::__ndk1::__function::__func<hook62<(anonymous namespace)::hook62Parent>::init(LevelEditorLayer*)::{lambda()#1}::operator()() const::{lambda()#1}, std::__ndk1::allocator<hook62<(anonymous namespace)::hook62Parent>::init(LevelEditorLayer*)::{lambda()#1}::operator()() const::{lambda()#1}>, void ()>::destroy()
PUBLIC 53994 0 std::__ndk1::__function::__func<hook62<(anonymous namespace)::hook62Parent>::init(LevelEditorLayer*)::{lambda()#1}::operator()() const::{lambda()#1}, std::__ndk1::allocator<hook62<(anonymous namespace)::hook62Parent>::init(LevelEditorLayer*)::{lambda()#1}::operator()() const::{lambda()#1}>, void ()>::destroy_deallocate()
PUBLIC 53998 0 std::__ndk1::__function::__func<hook62<(anonymous namespace)::hook62Parent>::init(LevelEditorLayer*)::{lambda()#1}::operator()() const::{lambda()#1}, std::__ndk1::allocator<hook62<(anonymous namespace)::hook62Parent>::init(LevelEditorLayer*)::{lambda()#1}::operator()() const::{lambda()#1}>, void ()>::operator()()
PUBLIC 53aac 0 std::__ndk1::__function::__func<hook62<(anonymous namespace)::hook62Parent>::init(LevelEditorLayer*)::{lambda()#1}::operator()() const::{lambda()#1}, std::__ndk1::allocator<hook62<(anonymous namespace)::hook62Parent>::init(LevelEditorLayer*)::{lambda()#1}::operator()() const::{lambda()#1}>, void ()>::target(std::type_info const&) const
PUBLIC 53ac8 0 std::__ndk1::__function::__func<hook62<(anonymous namespace)::hook62Parent>::init(LevelEditorLayer*)::{lambda()#1}::operator()() const::{lambda()#1}, std::__ndk1::allocator<hook62<(anonymous namespace)::hook62Parent>::init(LevelEditorLayer*)::{lambda()#1}::operator()() const::{lambda()#1}>, void ()>::target_type() const
PUBLIC 53ad4 0 std::__ndk1::__function::__func<hook62<(anonymous namespace)::hook62Parent>::init(LevelEditorLayer*)::{lambda()#1}::operator()() const::{lambda()#2}, std::__ndk1::allocator<hook62<(anonymous namespace)::hook62Parent>::init(LevelEditorLayer*)::{lambda()#1}::operator()() const::{lambda()#2}>, void ()>::~__func()
PUBLIC 53ad8 0 std::__ndk1::__function::__func<hook62<(anonymous namespace)::hook62Parent>::init(LevelEditorLayer*)::{lambda()#1}::operator()() const::{lambda()#2}, std::__ndk1::allocator<hook62<(anonymous namespace)::hook62Parent>::init(LevelEditorLayer*)::{lambda()#1}::operator()() const::{lambda()#2}>, void ()>::__clone() const
PUBLIC 53b0c 0 std::__ndk1::__function::__func<hook62<(anonymous namespace)::hook62Parent>::init(LevelEditorLayer*)::{lambda()#1}::operator()() const::{lambda()#2}, std::__ndk1::allocator<hook62<(anonymous namespace)::hook62Parent>::init(LevelEditorLayer*)::{lambda()#1}::operator()() const::{lambda()#2}>, void ()>::__clone(std::__ndk1::__function::__base<void ()>*) const
PUBLIC 53b20 0 std::__ndk1::__function::__func<hook62<(anonymous namespace)::hook62Parent>::init(LevelEditorLayer*)::{lambda()#1}::operator()() const::{lambda()#2}, std::__ndk1::allocator<hook62<(anonymous namespace)::hook62Parent>::init(LevelEditorLayer*)::{lambda()#1}::operator()() const::{lambda()#2}>, void ()>::destroy()
PUBLIC 53b24 0 std::__ndk1::__function::__func<hook62<(anonymous namespace)::hook62Parent>::init(LevelEditorLayer*)::{lambda()#1}::operator()() const::{lambda()#2}, std::__ndk1::allocator<hook62<(anonymous namespace)::hook62Parent>::init(LevelEditorLayer*)::{lambda()#1}::operator()() const::{lambda()#2}>, void ()>::destroy_deallocate()
PUBLIC 53b28 0 std::__ndk1::__function::__func<hook62<(anonymous namespace)::hook62Parent>::init(LevelEditorLayer*)::{lambda()#1}::operator()() const::{lambda()#2}, std::__ndk1::allocator<hook62<(anonymous namespace)::hook62Parent>::init(LevelEditorLayer*)::{lambda()#1}::operator()() const::{lambda()#2}>, void ()>::operator()()
PUBLIC 53c3c 0 std::__ndk1::__function::__func<hook62<(anonymous namespace)::hook62Parent>::init(LevelEditorLayer*)::{lambda()#1}::operator()() const::{lambda()#2}, std::__ndk1::allocator<hook62<(anonymous namespace)::hook62Parent>::init(LevelEditorLayer*)::{lambda()#1}::operator()() const::{lambda()#2}>, void ()>::target(std::type_info const&) const
PUBLIC 53c58 0 std::__ndk1::__function::__func<hook62<(anonymous namespace)::hook62Parent>::init(LevelEditorLayer*)::{lambda()#1}::operator()() const::{lambda()#2}, std::__ndk1::allocator<hook62<(anonymous namespace)::hook62Parent>::init(LevelEditorLayer*)::{lambda()#1}::operator()() const::{lambda()#2}>, void ()>::target_type() const
PUBLIC 53c64 0 std::__ndk1::__function::__func<hook62<(anonymous namespace)::hook62Parent>::init(LevelEditorLayer*)::{lambda()#1}::operator()() const::{lambda()#3}, std::__ndk1::allocator<hook62<(anonymous namespace)::hook62Parent>::init(LevelEditorLayer*)::{lambda()#1}::operator()() const::{lambda()#3}>, void ()>::~__func()
PUBLIC 53c68 0 std::__ndk1::__function::__func<hook62<(anonymous namespace)::hook62Parent>::init(LevelEditorLayer*)::{lambda()#1}::operator()() const::{lambda()#3}, std::__ndk1::allocator<hook62<(anonymous namespace)::hook62Parent>::init(LevelEditorLayer*)::{lambda()#1}::operator()() const::{lambda()#3}>, void ()>::__clone() const
PUBLIC 53c9c 0 std::__ndk1::__function::__func<hook62<(anonymous namespace)::hook62Parent>::init(LevelEditorLayer*)::{lambda()#1}::operator()() const::{lambda()#3}, std::__ndk1::allocator<hook62<(anonymous namespace)::hook62Parent>::init(LevelEditorLayer*)::{lambda()#1}::operator()() const::{lambda()#3}>, void ()>::__clone(std::__ndk1::__function::__base<void ()>*) const
PUBLIC 53cb0 0 std::__ndk1::__function::__func<hook62<(anonymous namespace)::hook62Parent>::init(LevelEditorLayer*)::{lambda()#1}::operator()() const::{lambda()#3}, std::__ndk1::allocator<hook62<(anonymous namespace)::hook62Parent>::init(LevelEditorLayer*)::{lambda()#1}::operator()() const::{lambda()#3}>, void ()>::destroy()
PUBLIC 53cb4 0 std::__ndk1::__function::__func<hook62<(anonymous namespace)::hook62Parent>::init(LevelEditorLayer*)::{lambda()#1}::operator()() const::{lambda()#3}, std::__ndk1::allocator<hook62<(anonymous namespace)::hook62Parent>::init(LevelEditorLayer*)::{lambda()#1}::operator()() const::{lambda()#3}>, void ()>::destroy_deallocate()
PUBLIC 53cb8 0 std::__ndk1::__function::__func<hook62<(anonymous namespace)::hook62Parent>::init(LevelEditorLayer*)::{lambda()#1}::operator()() const::{lambda()#3}, std::__ndk1::allocator<hook62<(anonymous namespace)::hook62Parent>::init(LevelEditorLayer*)::{lambda()#1}::operator()() const::{lambda()#3}>, void ()>::operator()()
PUBLIC 53dcc 0 std::__ndk1::__function::__func<hook62<(anonymous namespace)::hook62Parent>::init(LevelEditorLayer*)::{lambda()#1}::operator()() const::{lambda()#3}, std::__ndk1::allocator<hook62<(anonymous namespace)::hook62Parent>::init(LevelEditorLayer*)::{lambda()#1}::operator()() const::{lambda()#3}>, void ()>::target(std::type_info const&) const
PUBLIC 53de8 0 std::__ndk1::__function::__func<hook62<(anonymous namespace)::hook62Parent>::init(LevelEditorLayer*)::{lambda()#1}::operator()() const::{lambda()#3}, std::__ndk1::allocator<hook62<(anonymous namespace)::hook62Parent>::init(LevelEditorLayer*)::{lambda()#1}::operator()() const::{lambda()#3}>, void ()>::target_type() const
PUBLIC 53df4 0 std::__ndk1::__function::__func<hook62<(anonymous namespace)::hook62Parent>::init(LevelEditorLayer*)::{lambda()#1}::operator()() const::{lambda()#4}, std::__ndk1::allocator<hook62<(anonymous namespace)::hook62Parent>::init(LevelEditorLayer*)::{lambda()#1}::operator()() const::{lambda()#4}>, void ()>::~__func()
PUBLIC 53df8 0 std::__ndk1::__function::__func<hook62<(anonymous namespace)::hook62Parent>::init(LevelEditorLayer*)::{lambda()#1}::operator()() const::{lambda()#4}, std::__ndk1::allocator<hook62<(anonymous namespace)::hook62Parent>::init(LevelEditorLayer*)::{lambda()#1}::operator()() const::{lambda()#4}>, void ()>::__clone() const
PUBLIC 53e2c 0 std::__ndk1::__function::__func<hook62<(anonymous namespace)::hook62Parent>::init(LevelEditorLayer*)::{lambda()#1}::operator()() const::{lambda()#4}, std::__ndk1::allocator<hook62<(anonymous namespace)::hook62Parent>::init(LevelEditorLayer*)::{lambda()#1}::operator()() const::{lambda()#4}>, void ()>::__clone(std::__ndk1::__function::__base<void ()>*) const
PUBLIC 53e40 0 std::__ndk1::__function::__func<hook62<(anonymous namespace)::hook62Parent>::init(LevelEditorLayer*)::{lambda()#1}::operator()() const::{lambda()#4}, std::__ndk1::allocator<hook62<(anonymous namespace)::hook62Parent>::init(LevelEditorLayer*)::{lambda()#1}::operator()() const::{lambda()#4}>, void ()>::destroy()
PUBLIC 53e44 0 std::__ndk1::__function::__func<hook62<(anonymous namespace)::hook62Parent>::init(LevelEditorLayer*)::{lambda()#1}::operator()() const::{lambda()#4}, std::__ndk1::allocator<hook62<(anonymous namespace)::hook62Parent>::init(LevelEditorLayer*)::{lambda()#1}::operator()() const::{lambda()#4}>, void ()>::destroy_deallocate()
PUBLIC 53e48 0 std::__ndk1::__function::__func<hook62<(anonymous namespace)::hook62Parent>::init(LevelEditorLayer*)::{lambda()#1}::operator()() const::{lambda()#4}, std::__ndk1::allocator<hook62<(anonymous namespace)::hook62Parent>::init(LevelEditorLayer*)::{lambda()#1}::operator()() const::{lambda()#4}>, void ()>::operator()()
PUBLIC 53f5c 0 std::__ndk1::__function::__func<hook62<(anonymous namespace)::hook62Parent>::init(LevelEditorLayer*)::{lambda()#1}::operator()() const::{lambda()#4}, std::__ndk1::allocator<hook62<(anonymous namespace)::hook62Parent>::init(LevelEditorLayer*)::{lambda()#1}::operator()() const::{lambda()#4}>, void ()>::target(std::type_info const&) const
PUBLIC 53f78 0 std::__ndk1::__function::__func<hook62<(anonymous namespace)::hook62Parent>::init(LevelEditorLayer*)::{lambda()#1}::operator()() const::{lambda()#4}, std::__ndk1::allocator<hook62<(anonymous namespace)::hook62Parent>::init(LevelEditorLayer*)::{lambda()#1}::operator()() const::{lambda()#4}>, void ()>::target_type() const
PUBLIC 53f84 0 std::__ndk1::__function::__func<hook62<(anonymous namespace)::hook62Parent>::init(LevelEditorLayer*)::{lambda()#1}::operator()() const::{lambda()#5}, std::__ndk1::allocator<hook62<(anonymous namespace)::hook62Parent>::init(LevelEditorLayer*)::{lambda()#1}::operator()() const::{lambda()#5}>, void ()>::~__func()
PUBLIC 53f88 0 std::__ndk1::__function::__func<hook62<(anonymous namespace)::hook62Parent>::init(LevelEditorLayer*)::{lambda()#1}::operator()() const::{lambda()#5}, std::__ndk1::allocator<hook62<(anonymous namespace)::hook62Parent>::init(LevelEditorLayer*)::{lambda()#1}::operator()() const::{lambda()#5}>, void ()>::__clone() const
PUBLIC 53fbc 0 std::__ndk1::__function::__func<hook62<(anonymous namespace)::hook62Parent>::init(LevelEditorLayer*)::{lambda()#1}::operator()() const::{lambda()#5}, std::__ndk1::allocator<hook62<(anonymous namespace)::hook62Parent>::init(LevelEditorLayer*)::{lambda()#1}::operator()() const::{lambda()#5}>, void ()>::__clone(std::__ndk1::__function::__base<void ()>*) const
PUBLIC 53fd0 0 std::__ndk1::__function::__func<hook62<(anonymous namespace)::hook62Parent>::init(LevelEditorLayer*)::{lambda()#1}::operator()() const::{lambda()#5}, std::__ndk1::allocator<hook62<(anonymous namespace)::hook62Parent>::init(LevelEditorLayer*)::{lambda()#1}::operator()() const::{lambda()#5}>, void ()>::destroy()
PUBLIC 53fd4 0 std::__ndk1::__function::__func<hook62<(anonymous namespace)::hook62Parent>::init(LevelEditorLayer*)::{lambda()#1}::operator()() const::{lambda()#5}, std::__ndk1::allocator<hook62<(anonymous namespace)::hook62Parent>::init(LevelEditorLayer*)::{lambda()#1}::operator()() const::{lambda()#5}>, void ()>::destroy_deallocate()
PUBLIC 53fd8 0 std::__ndk1::__function::__func<hook62<(anonymous namespace)::hook62Parent>::init(LevelEditorLayer*)::{lambda()#1}::operator()() const::{lambda()#5}, std::__ndk1::allocator<hook62<(anonymous namespace)::hook62Parent>::init(LevelEditorLayer*)::{lambda()#1}::operator()() const::{lambda()#5}>, void ()>::operator()()
PUBLIC 540ec 0 std::__ndk1::__function::__func<hook62<(anonymous namespace)::hook62Parent>::init(LevelEditorLayer*)::{lambda()#1}::operator()() const::{lambda()#5}, std::__ndk1::allocator<hook62<(anonymous namespace)::hook62Parent>::init(LevelEditorLayer*)::{lambda()#1}::operator()() const::{lambda()#5}>, void ()>::target(std::type_info const&) const
PUBLIC 54108 0 std::__ndk1::__function::__func<hook62<(anonymous namespace)::hook62Parent>::init(LevelEditorLayer*)::{lambda()#1}::operator()() const::{lambda()#5}, std::__ndk1::allocator<hook62<(anonymous namespace)::hook62Parent>::init(LevelEditorLayer*)::{lambda()#1}::operator()() const::{lambda()#5}>, void ()>::target_type() const
PUBLIC 54114 0 std::__ndk1::__function::__func<hook62<(anonymous namespace)::hook62Parent>::init(LevelEditorLayer*)::{lambda()#1}::operator()() const::{lambda()#6}, std::__ndk1::allocator<hook62<(anonymous namespace)::hook62Parent>::init(LevelEditorLayer*)::{lambda()#1}::operator()() const::{lambda()#6}>, void ()>::~__func()
PUBLIC 54118 0 std::__ndk1::__function::__func<hook62<(anonymous namespace)::hook62Parent>::init(LevelEditorLayer*)::{lambda()#1}::operator()() const::{lambda()#6}, std::__ndk1::allocator<hook62<(anonymous namespace)::hook62Parent>::init(LevelEditorLayer*)::{lambda()#1}::operator()() const::{lambda()#6}>, void ()>::__clone() const
PUBLIC 5414c 0 std::__ndk1::__function::__func<hook62<(anonymous namespace)::hook62Parent>::init(LevelEditorLayer*)::{lambda()#1}::operator()() const::{lambda()#6}, std::__ndk1::allocator<hook62<(anonymous namespace)::hook62Parent>::init(LevelEditorLayer*)::{lambda()#1}::operator()() const::{lambda()#6}>, void ()>::__clone(std::__ndk1::__function::__base<void ()>*) const
PUBLIC 54160 0 std::__ndk1::__function::__func<hook62<(anonymous namespace)::hook62Parent>::init(LevelEditorLayer*)::{lambda()#1}::operator()() const::{lambda()#6}, std::__ndk1::allocator<hook62<(anonymous namespace)::hook62Parent>::init(LevelEditorLayer*)::{lambda()#1}::operator()() const::{lambda()#6}>, void ()>::destroy()
PUBLIC 54164 0 std::__ndk1::__function::__func<hook62<(anonymous namespace)::hook62Parent>::init(LevelEditorLayer*)::{lambda()#1}::operator()() const::{lambda()#6}, std::__ndk1::allocator<hook62<(anonymous namespace)::hook62Parent>::init(LevelEditorLayer*)::{lambda()#1}::operator()() const::{lambda()#6}>, void ()>::destroy_deallocate()
PUBLIC 54168 0 std::__ndk1::__function::__func<hook62<(anonymous namespace)::hook62Parent>::init(LevelEditorLayer*)::{lambda()#1}::operator()() const::{lambda()#6}, std::__ndk1::allocator<hook62<(anonymous namespace)::hook62Parent>::init(LevelEditorLayer*)::{lambda()#1}::operator()() const::{lambda()#6}>, void ()>::operator()()
PUBLIC 5427c 0 std::__ndk1::__function::__func<hook62<(anonymous namespace)::hook62Parent>::init(LevelEditorLayer*)::{lambda()#1}::operator()() const::{lambda()#6}, std::__ndk1::allocator<hook62<(anonymous namespace)::hook62Parent>::init(LevelEditorLayer*)::{lambda()#1}::operator()() const::{lambda()#6}>, void ()>::target(std::type_info const&) const
PUBLIC 54298 0 std::__ndk1::__function::__func<hook62<(anonymous namespace)::hook62Parent>::init(LevelEditorLayer*)::{lambda()#1}::operator()() const::{lambda()#6}, std::__ndk1::allocator<hook62<(anonymous namespace)::hook62Parent>::init(LevelEditorLayer*)::{lambda()#1}::operator()() const::{lambda()#6}>, void ()>::target_type() const
PUBLIC 542a4 0 std::__ndk1::__function::__func<hook62<(anonymous namespace)::hook62Parent>::init(LevelEditorLayer*)::{lambda()#1}::operator()() const::{lambda()#7}, std::__ndk1::allocator<hook62<(anonymous namespace)::hook62Parent>::init(LevelEditorLayer*)::{lambda()#1}::operator()() const::{lambda()#7}>, void ()>::~__func()
PUBLIC 542a8 0 std::__ndk1::__function::__func<hook62<(anonymous namespace)::hook62Parent>::init(LevelEditorLayer*)::{lambda()#1}::operator()() const::{lambda()#7}, std::__ndk1::allocator<hook62<(anonymous namespace)::hook62Parent>::init(LevelEditorLayer*)::{lambda()#1}::operator()() const::{lambda()#7}>, void ()>::__clone() const
PUBLIC 542dc 0 std::__ndk1::__function::__func<hook62<(anonymous namespace)::hook62Parent>::init(LevelEditorLayer*)::{lambda()#1}::operator()() const::{lambda()#7}, std::__ndk1::allocator<hook62<(anonymous namespace)::hook62Parent>::init(LevelEditorLayer*)::{lambda()#1}::operator()() const::{lambda()#7}>, void ()>::__clone(std::__ndk1::__function::__base<void ()>*) const
PUBLIC 542f0 0 std::__ndk1::__function::__func<hook62<(anonymous namespace)::hook62Parent>::init(LevelEditorLayer*)::{lambda()#1}::operator()() const::{lambda()#7}, std::__ndk1::allocator<hook62<(anonymous namespace)::hook62Parent>::init(LevelEditorLayer*)::{lambda()#1}::operator()() const::{lambda()#7}>, void ()>::destroy()
PUBLIC 542f4 0 std::__ndk1::__function::__func<hook62<(anonymous namespace)::hook62Parent>::init(LevelEditorLayer*)::{lambda()#1}::operator()() const::{lambda()#7}, std::__ndk1::allocator<hook62<(anonymous namespace)::hook62Parent>::init(LevelEditorLayer*)::{lambda()#1}::operator()() const::{lambda()#7}>, void ()>::destroy_deallocate()
PUBLIC 542f8 0 std::__ndk1::__function::__func<hook62<(anonymous namespace)::hook62Parent>::init(LevelEditorLayer*)::{lambda()#1}::operator()() const::{lambda()#7}, std::__ndk1::allocator<hook62<(anonymous namespace)::hook62Parent>::init(LevelEditorLayer*)::{lambda()#1}::operator()() const::{lambda()#7}>, void ()>::operator()()
PUBLIC 5440c 0 std::__ndk1::__function::__func<hook62<(anonymous namespace)::hook62Parent>::init(LevelEditorLayer*)::{lambda()#1}::operator()() const::{lambda()#7}, std::__ndk1::allocator<hook62<(anonymous namespace)::hook62Parent>::init(LevelEditorLayer*)::{lambda()#1}::operator()() const::{lambda()#7}>, void ()>::target(std::type_info const&) const
PUBLIC 54428 0 std::__ndk1::__function::__func<hook62<(anonymous namespace)::hook62Parent>::init(LevelEditorLayer*)::{lambda()#1}::operator()() const::{lambda()#7}, std::__ndk1::allocator<hook62<(anonymous namespace)::hook62Parent>::init(LevelEditorLayer*)::{lambda()#1}::operator()() const::{lambda()#7}>, void ()>::target_type() const
PUBLIC 54434 0 std::__ndk1::__function::__func<hook62<(anonymous namespace)::hook62Parent>::init(LevelEditorLayer*)::{lambda()#1}::operator()() const::{lambda()#8}, std::__ndk1::allocator<hook62<(anonymous namespace)::hook62Parent>::init(LevelEditorLayer*)::{lambda()#1}::operator()() const::{lambda()#8}>, void ()>::~__func()
PUBLIC 54438 0 std::__ndk1::__function::__func<hook62<(anonymous namespace)::hook62Parent>::init(LevelEditorLayer*)::{lambda()#1}::operator()() const::{lambda()#8}, std::__ndk1::allocator<hook62<(anonymous namespace)::hook62Parent>::init(LevelEditorLayer*)::{lambda()#1}::operator()() const::{lambda()#8}>, void ()>::__clone() const
PUBLIC 5446c 0 std::__ndk1::__function::__func<hook62<(anonymous namespace)::hook62Parent>::init(LevelEditorLayer*)::{lambda()#1}::operator()() const::{lambda()#8}, std::__ndk1::allocator<hook62<(anonymous namespace)::hook62Parent>::init(LevelEditorLayer*)::{lambda()#1}::operator()() const::{lambda()#8}>, void ()>::__clone(std::__ndk1::__function::__base<void ()>*) const
PUBLIC 54480 0 std::__ndk1::__function::__func<hook62<(anonymous namespace)::hook62Parent>::init(LevelEditorLayer*)::{lambda()#1}::operator()() const::{lambda()#8}, std::__ndk1::allocator<hook62<(anonymous namespace)::hook62Parent>::init(LevelEditorLayer*)::{lambda()#1}::operator()() const::{lambda()#8}>, void ()>::destroy()
PUBLIC 54484 0 std::__ndk1::__function::__func<hook62<(anonymous namespace)::hook62Parent>::init(LevelEditorLayer*)::{lambda()#1}::operator()() const::{lambda()#8}, std::__ndk1::allocator<hook62<(anonymous namespace)::hook62Parent>::init(LevelEditorLayer*)::{lambda()#1}::operator()() const::{lambda()#8}>, void ()>::destroy_deallocate()
PUBLIC 54488 0 std::__ndk1::__function::__func<hook62<(anonymous namespace)::hook62Parent>::init(LevelEditorLayer*)::{lambda()#1}::operator()() const::{lambda()#8}, std::__ndk1::allocator<hook62<(anonymous namespace)::hook62Parent>::init(LevelEditorLayer*)::{lambda()#1}::operator()() const::{lambda()#8}>, void ()>::operator()()
PUBLIC 5459c 0 std::__ndk1::__function::__func<hook62<(anonymous namespace)::hook62Parent>::init(LevelEditorLayer*)::{lambda()#1}::operator()() const::{lambda()#8}, std::__ndk1::allocator<hook62<(anonymous namespace)::hook62Parent>::init(LevelEditorLayer*)::{lambda()#1}::operator()() const::{lambda()#8}>, void ()>::target(std::type_info const&) const
PUBLIC 545b8 0 std::__ndk1::__function::__func<hook62<(anonymous namespace)::hook62Parent>::init(LevelEditorLayer*)::{lambda()#1}::operator()() const::{lambda()#8}, std::__ndk1::allocator<hook62<(anonymous namespace)::hook62Parent>::init(LevelEditorLayer*)::{lambda()#1}::operator()() const::{lambda()#8}>, void ()>::target_type() const
PUBLIC 545c4 0 std::__ndk1::__function::__func<hook62<(anonymous namespace)::hook62Parent>::init(LevelEditorLayer*)::{lambda()#1}::operator()() const::{lambda()#9}, std::__ndk1::allocator<hook62<(anonymous namespace)::hook62Parent>::init(LevelEditorLayer*)::{lambda()#1}::operator()() const::{lambda()#9}>, void ()>::~__func()
PUBLIC 545c8 0 std::__ndk1::__function::__func<hook62<(anonymous namespace)::hook62Parent>::init(LevelEditorLayer*)::{lambda()#1}::operator()() const::{lambda()#9}, std::__ndk1::allocator<hook62<(anonymous namespace)::hook62Parent>::init(LevelEditorLayer*)::{lambda()#1}::operator()() const::{lambda()#9}>, void ()>::__clone() const
PUBLIC 545fc 0 std::__ndk1::__function::__func<hook62<(anonymous namespace)::hook62Parent>::init(LevelEditorLayer*)::{lambda()#1}::operator()() const::{lambda()#9}, std::__ndk1::allocator<hook62<(anonymous namespace)::hook62Parent>::init(LevelEditorLayer*)::{lambda()#1}::operator()() const::{lambda()#9}>, void ()>::__clone(std::__ndk1::__function::__base<void ()>*) const
PUBLIC 54610 0 std::__ndk1::__function::__func<hook62<(anonymous namespace)::hook62Parent>::init(LevelEditorLayer*)::{lambda()#1}::operator()() const::{lambda()#9}, std::__ndk1::allocator<hook62<(anonymous namespace)::hook62Parent>::init(LevelEditorLayer*)::{lambda()#1}::operator()() const::{lambda()#9}>, void ()>::destroy()
PUBLIC 54614 0 std::__ndk1::__function::__func<hook62<(anonymous namespace)::hook62Parent>::init(LevelEditorLayer*)::{lambda()#1}::operator()() const::{lambda()#9}, std::__ndk1::allocator<hook62<(anonymous namespace)::hook62Parent>::init(LevelEditorLayer*)::{lambda()#1}::operator()() const::{lambda()#9}>, void ()>::destroy_deallocate()
PUBLIC 54618 0 std::__ndk1::__function::__func<hook62<(anonymous namespace)::hook62Parent>::init(LevelEditorLayer*)::{lambda()#1}::operator()() const::{lambda()#9}, std::__ndk1::allocator<hook62<(anonymous namespace)::hook62Parent>::init(LevelEditorLayer*)::{lambda()#1}::operator()() const::{lambda()#9}>, void ()>::operator()()
PUBLIC 5472c 0 std::__ndk1::__function::__func<hook62<(anonymous namespace)::hook62Parent>::init(LevelEditorLayer*)::{lambda()#1}::operator()() const::{lambda()#9}, std::__ndk1::allocator<hook62<(anonymous namespace)::hook62Parent>::init(LevelEditorLayer*)::{lambda()#1}::operator()() const::{lambda()#9}>, void ()>::target(std::type_info const&) const
PUBLIC 54748 0 std::__ndk1::__function::__func<hook62<(anonymous namespace)::hook62Parent>::init(LevelEditorLayer*)::{lambda()#1}::operator()() const::{lambda()#9}, std::__ndk1::allocator<hook62<(anonymous namespace)::hook62Parent>::init(LevelEditorLayer*)::{lambda()#1}::operator()() const::{lambda()#9}>, void ()>::target_type() const
PUBLIC 54754 0 std::__ndk1::__function::__func<hook62<(anonymous namespace)::hook62Parent>::init(LevelEditorLayer*)::{lambda()#1}::operator()() const::{lambda()#10}, std::__ndk1::allocator<hook62<(anonymous namespace)::hook62Parent>::init(LevelEditorLayer*)::{lambda()#1}::operator()() const::{lambda()#10}>, void ()>::~__func()
PUBLIC 54758 0 std::__ndk1::__function::__func<hook62<(anonymous namespace)::hook62Parent>::init(LevelEditorLayer*)::{lambda()#1}::operator()() const::{lambda()#10}, std::__ndk1::allocator<hook62<(anonymous namespace)::hook62Parent>::init(LevelEditorLayer*)::{lambda()#1}::operator()() const::{lambda()#10}>, void ()>::__clone() const
PUBLIC 5478c 0 std::__ndk1::__function::__func<hook62<(anonymous namespace)::hook62Parent>::init(LevelEditorLayer*)::{lambda()#1}::operator()() const::{lambda()#10}, std::__ndk1::allocator<hook62<(anonymous namespace)::hook62Parent>::init(LevelEditorLayer*)::{lambda()#1}::operator()() const::{lambda()#10}>, void ()>::__clone(std::__ndk1::__function::__base<void ()>*) const
PUBLIC 547a0 0 std::__ndk1::__function::__func<hook62<(anonymous namespace)::hook62Parent>::init(LevelEditorLayer*)::{lambda()#1}::operator()() const::{lambda()#10}, std::__ndk1::allocator<hook62<(anonymous namespace)::hook62Parent>::init(LevelEditorLayer*)::{lambda()#1}::operator()() const::{lambda()#10}>, void ()>::destroy()
PUBLIC 547a4 0 std::__ndk1::__function::__func<hook62<(anonymous namespace)::hook62Parent>::init(LevelEditorLayer*)::{lambda()#1}::operator()() const::{lambda()#10}, std::__ndk1::allocator<hook62<(anonymous namespace)::hook62Parent>::init(LevelEditorLayer*)::{lambda()#1}::operator()() const::{lambda()#10}>, void ()>::destroy_deallocate()
PUBLIC 547a8 0 std::__ndk1::__function::__func<hook62<(anonymous namespace)::hook62Parent>::init(LevelEditorLayer*)::{lambda()#1}::operator()() const::{lambda()#10}, std::__ndk1::allocator<hook62<(anonymous namespace)::hook62Parent>::init(LevelEditorLayer*)::{lambda()#1}::operator()() const::{lambda()#10}>, void ()>::operator()()
PUBLIC 548cc 0 std::__ndk1::__function::__func<hook62<(anonymous namespace)::hook62Parent>::init(LevelEditorLayer*)::{lambda()#1}::operator()() const::{lambda()#10}, std::__ndk1::allocator<hook62<(anonymous namespace)::hook62Parent>::init(LevelEditorLayer*)::{lambda()#1}::operator()() const::{lambda()#10}>, void ()>::target(std::type_info const&) const
PUBLIC 548e8 0 std::__ndk1::__function::__func<hook62<(anonymous namespace)::hook62Parent>::init(LevelEditorLayer*)::{lambda()#1}::operator()() const::{lambda()#10}, std::__ndk1::allocator<hook62<(anonymous namespace)::hook62Parent>::init(LevelEditorLayer*)::{lambda()#1}::operator()() const::{lambda()#10}>, void ()>::target_type() const
PUBLIC 548f4 0 std::__ndk1::__function::__func<hook62<(anonymous namespace)::hook62Parent>::init(LevelEditorLayer*)::{lambda()#1}::operator()() const::{lambda()#11}, std::__ndk1::allocator<hook62<(anonymous namespace)::hook62Parent>::init(LevelEditorLayer*)::{lambda()#1}::operator()() const::{lambda()#11}>, void ()>::~__func()
PUBLIC 548f8 0 std::__ndk1::__function::__func<hook62<(anonymous namespace)::hook62Parent>::init(LevelEditorLayer*)::{lambda()#1}::operator()() const::{lambda()#11}, std::__ndk1::allocator<hook62<(anonymous namespace)::hook62Parent>::init(LevelEditorLayer*)::{lambda()#1}::operator()() const::{lambda()#11}>, void ()>::__clone() const
PUBLIC 5492c 0 std::__ndk1::__function::__func<hook62<(anonymous namespace)::hook62Parent>::init(LevelEditorLayer*)::{lambda()#1}::operator()() const::{lambda()#11}, std::__ndk1::allocator<hook62<(anonymous namespace)::hook62Parent>::init(LevelEditorLayer*)::{lambda()#1}::operator()() const::{lambda()#11}>, void ()>::__clone(std::__ndk1::__function::__base<void ()>*) const
PUBLIC 54940 0 std::__ndk1::__function::__func<hook62<(anonymous namespace)::hook62Parent>::init(LevelEditorLayer*)::{lambda()#1}::operator()() const::{lambda()#11}, std::__ndk1::allocator<hook62<(anonymous namespace)::hook62Parent>::init(LevelEditorLayer*)::{lambda()#1}::operator()() const::{lambda()#11}>, void ()>::destroy()
PUBLIC 54944 0 std::__ndk1::__function::__func<hook62<(anonymous namespace)::hook62Parent>::init(LevelEditorLayer*)::{lambda()#1}::operator()() const::{lambda()#11}, std::__ndk1::allocator<hook62<(anonymous namespace)::hook62Parent>::init(LevelEditorLayer*)::{lambda()#1}::operator()() const::{lambda()#11}>, void ()>::destroy_deallocate()
PUBLIC 54948 0 std::__ndk1::__function::__func<hook62<(anonymous namespace)::hook62Parent>::init(LevelEditorLayer*)::{lambda()#1}::operator()() const::{lambda()#11}, std::__ndk1::allocator<hook62<(anonymous namespace)::hook62Parent>::init(LevelEditorLayer*)::{lambda()#1}::operator()() const::{lambda()#11}>, void ()>::operator()()
PUBLIC 54a5c 0 std::__ndk1::__function::__func<hook62<(anonymous namespace)::hook62Parent>::init(LevelEditorLayer*)::{lambda()#1}::operator()() const::{lambda()#11}, std::__ndk1::allocator<hook62<(anonymous namespace)::hook62Parent>::init(LevelEditorLayer*)::{lambda()#1}::operator()() const::{lambda()#11}>, void ()>::target(std::type_info const&) const
PUBLIC 54a78 0 std::__ndk1::__function::__func<hook62<(anonymous namespace)::hook62Parent>::init(LevelEditorLayer*)::{lambda()#1}::operator()() const::{lambda()#11}, std::__ndk1::allocator<hook62<(anonymous namespace)::hook62Parent>::init(LevelEditorLayer*)::{lambda()#1}::operator()() const::{lambda()#11}>, void ()>::target_type() const
PUBLIC 54a84 0 std::__ndk1::__function::__func<hook62<(anonymous namespace)::hook62Parent>::init(LevelEditorLayer*)::{lambda()#1}::operator()() const::{lambda()#12}, std::__ndk1::allocator<hook62<(anonymous namespace)::hook62Parent>::init(LevelEditorLayer*)::{lambda()#1}::operator()() const::{lambda()#12}>, void ()>::~__func()
PUBLIC 54a88 0 std::__ndk1::__function::__func<hook62<(anonymous namespace)::hook62Parent>::init(LevelEditorLayer*)::{lambda()#1}::operator()() const::{lambda()#12}, std::__ndk1::allocator<hook62<(anonymous namespace)::hook62Parent>::init(LevelEditorLayer*)::{lambda()#1}::operator()() const::{lambda()#12}>, void ()>::__clone() const
PUBLIC 54abc 0 std::__ndk1::__function::__func<hook62<(anonymous namespace)::hook62Parent>::init(LevelEditorLayer*)::{lambda()#1}::operator()() const::{lambda()#12}, std::__ndk1::allocator<hook62<(anonymous namespace)::hook62Parent>::init(LevelEditorLayer*)::{lambda()#1}::operator()() const::{lambda()#12}>, void ()>::__clone(std::__ndk1::__function::__base<void ()>*) const
PUBLIC 54ad0 0 std::__ndk1::__function::__func<hook62<(anonymous namespace)::hook62Parent>::init(LevelEditorLayer*)::{lambda()#1}::operator()() const::{lambda()#12}, std::__ndk1::allocator<hook62<(anonymous namespace)::hook62Parent>::init(LevelEditorLayer*)::{lambda()#1}::operator()() const::{lambda()#12}>, void ()>::destroy()
PUBLIC 54ad4 0 std::__ndk1::__function::__func<hook62<(anonymous namespace)::hook62Parent>::init(LevelEditorLayer*)::{lambda()#1}::operator()() const::{lambda()#12}, std::__ndk1::allocator<hook62<(anonymous namespace)::hook62Parent>::init(LevelEditorLayer*)::{lambda()#1}::operator()() const::{lambda()#12}>, void ()>::destroy_deallocate()
PUBLIC 54ad8 0 std::__ndk1::__function::__func<hook62<(anonymous namespace)::hook62Parent>::init(LevelEditorLayer*)::{lambda()#1}::operator()() const::{lambda()#12}, std::__ndk1::allocator<hook62<(anonymous namespace)::hook62Parent>::init(LevelEditorLayer*)::{lambda()#1}::operator()() const::{lambda()#12}>, void ()>::operator()()
PUBLIC 54bec 0 std::__ndk1::__function::__func<hook62<(anonymous namespace)::hook62Parent>::init(LevelEditorLayer*)::{lambda()#1}::operator()() const::{lambda()#12}, std::__ndk1::allocator<hook62<(anonymous namespace)::hook62Parent>::init(LevelEditorLayer*)::{lambda()#1}::operator()() const::{lambda()#12}>, void ()>::target(std::type_info const&) const
PUBLIC 54c08 0 std::__ndk1::__function::__func<hook62<(anonymous namespace)::hook62Parent>::init(LevelEditorLayer*)::{lambda()#1}::operator()() const::{lambda()#12}, std::__ndk1::allocator<hook62<(anonymous namespace)::hook62Parent>::init(LevelEditorLayer*)::{lambda()#1}::operator()() const::{lambda()#12}>, void ()>::target_type() const
PUBLIC 54c14 0 std::__ndk1::__function::__func<hook62<(anonymous namespace)::hook62Parent>::init(LevelEditorLayer*)::{lambda()#1}::operator()() const::{lambda()#13}, std::__ndk1::allocator<hook62<(anonymous namespace)::hook62Parent>::init(LevelEditorLayer*)::{lambda()#1}::operator()() const::{lambda()#13}>, void ()>::~__func()
PUBLIC 54c18 0 std::__ndk1::__function::__func<hook62<(anonymous namespace)::hook62Parent>::init(LevelEditorLayer*)::{lambda()#1}::operator()() const::{lambda()#13}, std::__ndk1::allocator<hook62<(anonymous namespace)::hook62Parent>::init(LevelEditorLayer*)::{lambda()#1}::operator()() const::{lambda()#13}>, void ()>::__clone() const
PUBLIC 54c4c 0 std::__ndk1::__function::__func<hook62<(anonymous namespace)::hook62Parent>::init(LevelEditorLayer*)::{lambda()#1}::operator()() const::{lambda()#13}, std::__ndk1::allocator<hook62<(anonymous namespace)::hook62Parent>::init(LevelEditorLayer*)::{lambda()#1}::operator()() const::{lambda()#13}>, void ()>::__clone(std::__ndk1::__function::__base<void ()>*) const
PUBLIC 54c60 0 std::__ndk1::__function::__func<hook62<(anonymous namespace)::hook62Parent>::init(LevelEditorLayer*)::{lambda()#1}::operator()() const::{lambda()#13}, std::__ndk1::allocator<hook62<(anonymous namespace)::hook62Parent>::init(LevelEditorLayer*)::{lambda()#1}::operator()() const::{lambda()#13}>, void ()>::destroy()
PUBLIC 54c64 0 std::__ndk1::__function::__func<hook62<(anonymous namespace)::hook62Parent>::init(LevelEditorLayer*)::{lambda()#1}::operator()() const::{lambda()#13}, std::__ndk1::allocator<hook62<(anonymous namespace)::hook62Parent>::init(LevelEditorLayer*)::{lambda()#1}::operator()() const::{lambda()#13}>, void ()>::destroy_deallocate()
PUBLIC 54c68 0 std::__ndk1::__function::__func<hook62<(anonymous namespace)::hook62Parent>::init(LevelEditorLayer*)::{lambda()#1}::operator()() const::{lambda()#13}, std::__ndk1::allocator<hook62<(anonymous namespace)::hook62Parent>::init(LevelEditorLayer*)::{lambda()#1}::operator()() const::{lambda()#13}>, void ()>::operator()()
PUBLIC 54d7c 0 std::__ndk1::__function::__func<hook62<(anonymous namespace)::hook62Parent>::init(LevelEditorLayer*)::{lambda()#1}::operator()() const::{lambda()#13}, std::__ndk1::allocator<hook62<(anonymous namespace)::hook62Parent>::init(LevelEditorLayer*)::{lambda()#1}::operator()() const::{lambda()#13}>, void ()>::target(std::type_info const&) const
PUBLIC 54d98 0 std::__ndk1::__function::__func<hook62<(anonymous namespace)::hook62Parent>::init(LevelEditorLayer*)::{lambda()#1}::operator()() const::{lambda()#13}, std::__ndk1::allocator<hook62<(anonymous namespace)::hook62Parent>::init(LevelEditorLayer*)::{lambda()#1}::operator()() const::{lambda()#13}>, void ()>::target_type() const
PUBLIC 54da4 0 std::__ndk1::__function::__func<hook62<(anonymous namespace)::hook62Parent>::init(LevelEditorLayer*)::{lambda()#1}::operator()() const::{lambda()#14}, std::__ndk1::allocator<hook62<(anonymous namespace)::hook62Parent>::init(LevelEditorLayer*)::{lambda()#1}::operator()() const::{lambda()#14}>, void ()>::~__func()
PUBLIC 54da8 0 std::__ndk1::__function::__func<hook62<(anonymous namespace)::hook62Parent>::init(LevelEditorLayer*)::{lambda()#1}::operator()() const::{lambda()#14}, std::__ndk1::allocator<hook62<(anonymous namespace)::hook62Parent>::init(LevelEditorLayer*)::{lambda()#1}::operator()() const::{lambda()#14}>, void ()>::__clone() const
PUBLIC 54ddc 0 std::__ndk1::__function::__func<hook62<(anonymous namespace)::hook62Parent>::init(LevelEditorLayer*)::{lambda()#1}::operator()() const::{lambda()#14}, std::__ndk1::allocator<hook62<(anonymous namespace)::hook62Parent>::init(LevelEditorLayer*)::{lambda()#1}::operator()() const::{lambda()#14}>, void ()>::__clone(std::__ndk1::__function::__base<void ()>*) const
PUBLIC 54df0 0 std::__ndk1::__function::__func<hook62<(anonymous namespace)::hook62Parent>::init(LevelEditorLayer*)::{lambda()#1}::operator()() const::{lambda()#14}, std::__ndk1::allocator<hook62<(anonymous namespace)::hook62Parent>::init(LevelEditorLayer*)::{lambda()#1}::operator()() const::{lambda()#14}>, void ()>::destroy()
PUBLIC 54df4 0 std::__ndk1::__function::__func<hook62<(anonymous namespace)::hook62Parent>::init(LevelEditorLayer*)::{lambda()#1}::operator()() const::{lambda()#14}, std::__ndk1::allocator<hook62<(anonymous namespace)::hook62Parent>::init(LevelEditorLayer*)::{lambda()#1}::operator()() const::{lambda()#14}>, void ()>::destroy_deallocate()
PUBLIC 54df8 0 std::__ndk1::__function::__func<hook62<(anonymous namespace)::hook62Parent>::init(LevelEditorLayer*)::{lambda()#1}::operator()() const::{lambda()#14}, std::__ndk1::allocator<hook62<(anonymous namespace)::hook62Parent>::init(LevelEditorLayer*)::{lambda()#1}::operator()() const::{lambda()#14}>, void ()>::operator()()
PUBLIC 54f0c 0 std::__ndk1::__function::__func<hook62<(anonymous namespace)::hook62Parent>::init(LevelEditorLayer*)::{lambda()#1}::operator()() const::{lambda()#14}, std::__ndk1::allocator<hook62<(anonymous namespace)::hook62Parent>::init(LevelEditorLayer*)::{lambda()#1}::operator()() const::{lambda()#14}>, void ()>::target(std::type_info const&) const
PUBLIC 54f28 0 std::__ndk1::__function::__func<hook62<(anonymous namespace)::hook62Parent>::init(LevelEditorLayer*)::{lambda()#1}::operator()() const::{lambda()#14}, std::__ndk1::allocator<hook62<(anonymous namespace)::hook62Parent>::init(LevelEditorLayer*)::{lambda()#1}::operator()() const::{lambda()#14}>, void ()>::target_type() const
PUBLIC 54f34 0 std::__ndk1::__function::__func<hook62<(anonymous namespace)::hook62Parent>::init(LevelEditorLayer*)::{lambda()#1}::operator()() const::{lambda()#15}, std::__ndk1::allocator<hook62<(anonymous namespace)::hook62Parent>::init(LevelEditorLayer*)::{lambda()#1}::operator()() const::{lambda()#15}>, void ()>::~__func()
PUBLIC 54f38 0 std::__ndk1::__function::__func<hook62<(anonymous namespace)::hook62Parent>::init(LevelEditorLayer*)::{lambda()#1}::operator()() const::{lambda()#15}, std::__ndk1::allocator<hook62<(anonymous namespace)::hook62Parent>::init(LevelEditorLayer*)::{lambda()#1}::operator()() const::{lambda()#15}>, void ()>::__clone() const
PUBLIC 54f6c 0 std::__ndk1::__function::__func<hook62<(anonymous namespace)::hook62Parent>::init(LevelEditorLayer*)::{lambda()#1}::operator()() const::{lambda()#15}, std::__ndk1::allocator<hook62<(anonymous namespace)::hook62Parent>::init(LevelEditorLayer*)::{lambda()#1}::operator()() const::{lambda()#15}>, void ()>::__clone(std::__ndk1::__function::__base<void ()>*) const
PUBLIC 54f80 0 std::__ndk1::__function::__func<hook62<(anonymous namespace)::hook62Parent>::init(LevelEditorLayer*)::{lambda()#1}::operator()() const::{lambda()#15}, std::__ndk1::allocator<hook62<(anonymous namespace)::hook62Parent>::init(LevelEditorLayer*)::{lambda()#1}::operator()() const::{lambda()#15}>, void ()>::destroy()
PUBLIC 54f84 0 std::__ndk1::__function::__func<hook62<(anonymous namespace)::hook62Parent>::init(LevelEditorLayer*)::{lambda()#1}::operator()() const::{lambda()#15}, std::__ndk1::allocator<hook62<(anonymous namespace)::hook62Parent>::init(LevelEditorLayer*)::{lambda()#1}::operator()() const::{lambda()#15}>, void ()>::destroy_deallocate()
PUBLIC 54f88 0 std::__ndk1::__function::__func<hook62<(anonymous namespace)::hook62Parent>::init(LevelEditorLayer*)::{lambda()#1}::operator()() const::{lambda()#15}, std::__ndk1::allocator<hook62<(anonymous namespace)::hook62Parent>::init(LevelEditorLayer*)::{lambda()#1}::operator()() const::{lambda()#15}>, void ()>::operator()()
PUBLIC 5509c 0 std::__ndk1::__function::__func<hook62<(anonymous namespace)::hook62Parent>::init(LevelEditorLayer*)::{lambda()#1}::operator()() const::{lambda()#15}, std::__ndk1::allocator<hook62<(anonymous namespace)::hook62Parent>::init(LevelEditorLayer*)::{lambda()#1}::operator()() const::{lambda()#15}>, void ()>::target(std::type_info const&) const
PUBLIC 550b8 0 std::__ndk1::__function::__func<hook62<(anonymous namespace)::hook62Parent>::init(LevelEditorLayer*)::{lambda()#1}::operator()() const::{lambda()#15}, std::__ndk1::allocator<hook62<(anonymous namespace)::hook62Parent>::init(LevelEditorLayer*)::{lambda()#1}::operator()() const::{lambda()#15}>, void ()>::target_type() const
PUBLIC 550c4 0 std::__ndk1::__function::__func<hook62<(anonymous namespace)::hook62Parent>::init(LevelEditorLayer*)::{lambda()#1}::operator()() const::{lambda()#16}, std::__ndk1::allocator<hook62<(anonymous namespace)::hook62Parent>::init(LevelEditorLayer*)::{lambda()#1}::operator()() const::{lambda()#16}>, void ()>::~__func()
PUBLIC 550c8 0 std::__ndk1::__function::__func<hook62<(anonymous namespace)::hook62Parent>::init(LevelEditorLayer*)::{lambda()#1}::operator()() const::{lambda()#16}, std::__ndk1::allocator<hook62<(anonymous namespace)::hook62Parent>::init(LevelEditorLayer*)::{lambda()#1}::operator()() const::{lambda()#16}>, void ()>::__clone() const
PUBLIC 550fc 0 std::__ndk1::__function::__func<hook62<(anonymous namespace)::hook62Parent>::init(LevelEditorLayer*)::{lambda()#1}::operator()() const::{lambda()#16}, std::__ndk1::allocator<hook62<(anonymous namespace)::hook62Parent>::init(LevelEditorLayer*)::{lambda()#1}::operator()() const::{lambda()#16}>, void ()>::__clone(std::__ndk1::__function::__base<void ()>*) const
PUBLIC 55110 0 std::__ndk1::__function::__func<hook62<(anonymous namespace)::hook62Parent>::init(LevelEditorLayer*)::{lambda()#1}::operator()() const::{lambda()#16}, std::__ndk1::allocator<hook62<(anonymous namespace)::hook62Parent>::init(LevelEditorLayer*)::{lambda()#1}::operator()() const::{lambda()#16}>, void ()>::destroy()
PUBLIC 55114 0 std::__ndk1::__function::__func<hook62<(anonymous namespace)::hook62Parent>::init(LevelEditorLayer*)::{lambda()#1}::operator()() const::{lambda()#16}, std::__ndk1::allocator<hook62<(anonymous namespace)::hook62Parent>::init(LevelEditorLayer*)::{lambda()#1}::operator()() const::{lambda()#16}>, void ()>::destroy_deallocate()
PUBLIC 55118 0 std::__ndk1::__function::__func<hook62<(anonymous namespace)::hook62Parent>::init(LevelEditorLayer*)::{lambda()#1}::operator()() const::{lambda()#16}, std::__ndk1::allocator<hook62<(anonymous namespace)::hook62Parent>::init(LevelEditorLayer*)::{lambda()#1}::operator()() const::{lambda()#16}>, void ()>::operator()()
PUBLIC 5522c 0 std::__ndk1::__function::__func<hook62<(anonymous namespace)::hook62Parent>::init(LevelEditorLayer*)::{lambda()#1}::operator()() const::{lambda()#16}, std::__ndk1::allocator<hook62<(anonymous namespace)::hook62Parent>::init(LevelEditorLayer*)::{lambda()#1}::operator()() const::{lambda()#16}>, void ()>::target(std::type_info const&) const
PUBLIC 55248 0 std::__ndk1::__function::__func<hook62<(anonymous namespace)::hook62Parent>::init(LevelEditorLayer*)::{lambda()#1}::operator()() const::{lambda()#16}, std::__ndk1::allocator<hook62<(anonymous namespace)::hook62Parent>::init(LevelEditorLayer*)::{lambda()#1}::operator()() const::{lambda()#16}>, void ()>::target_type() const
PUBLIC 55254 0 std::__ndk1::__function::__func<hook62<(anonymous namespace)::hook62Parent>::init(LevelEditorLayer*)::{lambda()#1}::operator()() const::{lambda()#17}, std::__ndk1::allocator<hook62<(anonymous namespace)::hook62Parent>::init(LevelEditorLayer*)::{lambda()#1}::operator()() const::{lambda()#17}>, void ()>::~__func()
PUBLIC 55258 0 std::__ndk1::__function::__func<hook62<(anonymous namespace)::hook62Parent>::init(LevelEditorLayer*)::{lambda()#1}::operator()() const::{lambda()#17}, std::__ndk1::allocator<hook62<(anonymous namespace)::hook62Parent>::init(LevelEditorLayer*)::{lambda()#1}::operator()() const::{lambda()#17}>, void ()>::__clone() const
PUBLIC 5528c 0 std::__ndk1::__function::__func<hook62<(anonymous namespace)::hook62Parent>::init(LevelEditorLayer*)::{lambda()#1}::operator()() const::{lambda()#17}, std::__ndk1::allocator<hook62<(anonymous namespace)::hook62Parent>::init(LevelEditorLayer*)::{lambda()#1}::operator()() const::{lambda()#17}>, void ()>::__clone(std::__ndk1::__function::__base<void ()>*) const
PUBLIC 552a0 0 std::__ndk1::__function::__func<hook62<(anonymous namespace)::hook62Parent>::init(LevelEditorLayer*)::{lambda()#1}::operator()() const::{lambda()#17}, std::__ndk1::allocator<hook62<(anonymous namespace)::hook62Parent>::init(LevelEditorLayer*)::{lambda()#1}::operator()() const::{lambda()#17}>, void ()>::destroy()
PUBLIC 552a4 0 std::__ndk1::__function::__func<hook62<(anonymous namespace)::hook62Parent>::init(LevelEditorLayer*)::{lambda()#1}::operator()() const::{lambda()#17}, std::__ndk1::allocator<hook62<(anonymous namespace)::hook62Parent>::init(LevelEditorLayer*)::{lambda()#1}::operator()() const::{lambda()#17}>, void ()>::destroy_deallocate()
PUBLIC 552a8 0 std::__ndk1::__function::__func<hook62<(anonymous namespace)::hook62Parent>::init(LevelEditorLayer*)::{lambda()#1}::operator()() const::{lambda()#17}, std::__ndk1::allocator<hook62<(anonymous namespace)::hook62Parent>::init(LevelEditorLayer*)::{lambda()#1}::operator()() const::{lambda()#17}>, void ()>::operator()()
PUBLIC 553bc 0 std::__ndk1::__function::__func<hook62<(anonymous namespace)::hook62Parent>::init(LevelEditorLayer*)::{lambda()#1}::operator()() const::{lambda()#17}, std::__ndk1::allocator<hook62<(anonymous namespace)::hook62Parent>::init(LevelEditorLayer*)::{lambda()#1}::operator()() const::{lambda()#17}>, void ()>::target(std::type_info const&) const
PUBLIC 553d8 0 std::__ndk1::__function::__func<hook62<(anonymous namespace)::hook62Parent>::init(LevelEditorLayer*)::{lambda()#1}::operator()() const::{lambda()#17}, std::__ndk1::allocator<hook62<(anonymous namespace)::hook62Parent>::init(LevelEditorLayer*)::{lambda()#1}::operator()() const::{lambda()#17}>, void ()>::target_type() const
PUBLIC 553e4 0 std::__ndk1::__function::__func<hook62<(anonymous namespace)::hook62Parent>::init(LevelEditorLayer*)::{lambda()#1}::operator()() const::{lambda()#18}, std::__ndk1::allocator<hook62<(anonymous namespace)::hook62Parent>::init(LevelEditorLayer*)::{lambda()#1}::operator()() const::{lambda()#18}>, void ()>::~__func()
PUBLIC 553e8 0 std::__ndk1::__function::__func<hook62<(anonymous namespace)::hook62Parent>::init(LevelEditorLayer*)::{lambda()#1}::operator()() const::{lambda()#18}, std::__ndk1::allocator<hook62<(anonymous namespace)::hook62Parent>::init(LevelEditorLayer*)::{lambda()#1}::operator()() const::{lambda()#18}>, void ()>::__clone() const
PUBLIC 5541c 0 std::__ndk1::__function::__func<hook62<(anonymous namespace)::hook62Parent>::init(LevelEditorLayer*)::{lambda()#1}::operator()() const::{lambda()#18}, std::__ndk1::allocator<hook62<(anonymous namespace)::hook62Parent>::init(LevelEditorLayer*)::{lambda()#1}::operator()() const::{lambda()#18}>, void ()>::__clone(std::__ndk1::__function::__base<void ()>*) const
PUBLIC 55430 0 std::__ndk1::__function::__func<hook62<(anonymous namespace)::hook62Parent>::init(LevelEditorLayer*)::{lambda()#1}::operator()() const::{lambda()#18}, std::__ndk1::allocator<hook62<(anonymous namespace)::hook62Parent>::init(LevelEditorLayer*)::{lambda()#1}::operator()() const::{lambda()#18}>, void ()>::destroy()
PUBLIC 55434 0 std::__ndk1::__function::__func<hook62<(anonymous namespace)::hook62Parent>::init(LevelEditorLayer*)::{lambda()#1}::operator()() const::{lambda()#18}, std::__ndk1::allocator<hook62<(anonymous namespace)::hook62Parent>::init(LevelEditorLayer*)::{lambda()#1}::operator()() const::{lambda()#18}>, void ()>::destroy_deallocate()
PUBLIC 55438 0 std::__ndk1::__function::__func<hook62<(anonymous namespace)::hook62Parent>::init(LevelEditorLayer*)::{lambda()#1}::operator()() const::{lambda()#18}, std::__ndk1::allocator<hook62<(anonymous namespace)::hook62Parent>::init(LevelEditorLayer*)::{lambda()#1}::operator()() const::{lambda()#18}>, void ()>::operator()()
PUBLIC 5554c 0 std::__ndk1::__function::__func<hook62<(anonymous namespace)::hook62Parent>::init(LevelEditorLayer*)::{lambda()#1}::operator()() const::{lambda()#18}, std::__ndk1::allocator<hook62<(anonymous namespace)::hook62Parent>::init(LevelEditorLayer*)::{lambda()#1}::operator()() const::{lambda()#18}>, void ()>::target(std::type_info const&) const
PUBLIC 55568 0 std::__ndk1::__function::__func<hook62<(anonymous namespace)::hook62Parent>::init(LevelEditorLayer*)::{lambda()#1}::operator()() const::{lambda()#18}, std::__ndk1::allocator<hook62<(anonymous namespace)::hook62Parent>::init(LevelEditorLayer*)::{lambda()#1}::operator()() const::{lambda()#18}>, void ()>::target_type() const
PUBLIC 55574 0 std::__ndk1::__function::__func<hook62<(anonymous namespace)::hook62Parent>::init(LevelEditorLayer*)::{lambda()#1}::operator()() const::{lambda()#19}, std::__ndk1::allocator<hook62<(anonymous namespace)::hook62Parent>::init(LevelEditorLayer*)::{lambda()#1}::operator()() const::{lambda()#19}>, void ()>::~__func()
PUBLIC 55578 0 std::__ndk1::__function::__func<hook62<(anonymous namespace)::hook62Parent>::init(LevelEditorLayer*)::{lambda()#1}::operator()() const::{lambda()#19}, std::__ndk1::allocator<hook62<(anonymous namespace)::hook62Parent>::init(LevelEditorLayer*)::{lambda()#1}::operator()() const::{lambda()#19}>, void ()>::__clone() const
PUBLIC 555ac 0 std::__ndk1::__function::__func<hook62<(anonymous namespace)::hook62Parent>::init(LevelEditorLayer*)::{lambda()#1}::operator()() const::{lambda()#19}, std::__ndk1::allocator<hook62<(anonymous namespace)::hook62Parent>::init(LevelEditorLayer*)::{lambda()#1}::operator()() const::{lambda()#19}>, void ()>::__clone(std::__ndk1::__function::__base<void ()>*) const
PUBLIC 555c0 0 std::__ndk1::__function::__func<hook62<(anonymous namespace)::hook62Parent>::init(LevelEditorLayer*)::{lambda()#1}::operator()() const::{lambda()#19}, std::__ndk1::allocator<hook62<(anonymous namespace)::hook62Parent>::init(LevelEditorLayer*)::{lambda()#1}::operator()() const::{lambda()#19}>, void ()>::destroy()
PUBLIC 555c4 0 std::__ndk1::__function::__func<hook62<(anonymous namespace)::hook62Parent>::init(LevelEditorLayer*)::{lambda()#1}::operator()() const::{lambda()#19}, std::__ndk1::allocator<hook62<(anonymous namespace)::hook62Parent>::init(LevelEditorLayer*)::{lambda()#1}::operator()() const::{lambda()#19}>, void ()>::destroy_deallocate()
PUBLIC 555c8 0 std::__ndk1::__function::__func<hook62<(anonymous namespace)::hook62Parent>::init(LevelEditorLayer*)::{lambda()#1}::operator()() const::{lambda()#19}, std::__ndk1::allocator<hook62<(anonymous namespace)::hook62Parent>::init(LevelEditorLayer*)::{lambda()#1}::operator()() const::{lambda()#19}>, void ()>::operator()()
PUBLIC 556dc 0 std::__ndk1::__function::__func<hook62<(anonymous namespace)::hook62Parent>::init(LevelEditorLayer*)::{lambda()#1}::operator()() const::{lambda()#19}, std::__ndk1::allocator<hook62<(anonymous namespace)::hook62Parent>::init(LevelEditorLayer*)::{lambda()#1}::operator()() const::{lambda()#19}>, void ()>::target(std::type_info const&) const
PUBLIC 556f8 0 std::__ndk1::__function::__func<hook62<(anonymous namespace)::hook62Parent>::init(LevelEditorLayer*)::{lambda()#1}::operator()() const::{lambda()#19}, std::__ndk1::allocator<hook62<(anonymous namespace)::hook62Parent>::init(LevelEditorLayer*)::{lambda()#1}::operator()() const::{lambda()#19}>, void ()>::target_type() const
PUBLIC 55704 0 std::__ndk1::__function::__func<hook62<(anonymous namespace)::hook62Parent>::init(LevelEditorLayer*)::{lambda()#1}::operator()() const::{lambda()#20}, std::__ndk1::allocator<hook62<(anonymous namespace)::hook62Parent>::init(LevelEditorLayer*)::{lambda()#1}::operator()() const::{lambda()#20}>, void ()>::~__func()
PUBLIC 55708 0 std::__ndk1::__function::__func<hook62<(anonymous namespace)::hook62Parent>::init(LevelEditorLayer*)::{lambda()#1}::operator()() const::{lambda()#20}, std::__ndk1::allocator<hook62<(anonymous namespace)::hook62Parent>::init(LevelEditorLayer*)::{lambda()#1}::operator()() const::{lambda()#20}>, void ()>::__clone() const
PUBLIC 5573c 0 std::__ndk1::__function::__func<hook62<(anonymous namespace)::hook62Parent>::init(LevelEditorLayer*)::{lambda()#1}::operator()() const::{lambda()#20}, std::__ndk1::allocator<hook62<(anonymous namespace)::hook62Parent>::init(LevelEditorLayer*)::{lambda()#1}::operator()() const::{lambda()#20}>, void ()>::__clone(std::__ndk1::__function::__base<void ()>*) const
PUBLIC 55750 0 std::__ndk1::__function::__func<hook62<(anonymous namespace)::hook62Parent>::init(LevelEditorLayer*)::{lambda()#1}::operator()() const::{lambda()#20}, std::__ndk1::allocator<hook62<(anonymous namespace)::hook62Parent>::init(LevelEditorLayer*)::{lambda()#1}::operator()() const::{lambda()#20}>, void ()>::destroy()
PUBLIC 55754 0 std::__ndk1::__function::__func<hook62<(anonymous namespace)::hook62Parent>::init(LevelEditorLayer*)::{lambda()#1}::operator()() const::{lambda()#20}, std::__ndk1::allocator<hook62<(anonymous namespace)::hook62Parent>::init(LevelEditorLayer*)::{lambda()#1}::operator()() const::{lambda()#20}>, void ()>::destroy_deallocate()
PUBLIC 55758 0 std::__ndk1::__function::__func<hook62<(anonymous namespace)::hook62Parent>::init(LevelEditorLayer*)::{lambda()#1}::operator()() const::{lambda()#20}, std::__ndk1::allocator<hook62<(anonymous namespace)::hook62Parent>::init(LevelEditorLayer*)::{lambda()#1}::operator()() const::{lambda()#20}>, void ()>::operator()()
PUBLIC 5586c 0 std::__ndk1::__function::__func<hook62<(anonymous namespace)::hook62Parent>::init(LevelEditorLayer*)::{lambda()#1}::operator()() const::{lambda()#20}, std::__ndk1::allocator<hook62<(anonymous namespace)::hook62Parent>::init(LevelEditorLayer*)::{lambda()#1}::operator()() const::{lambda()#20}>, void ()>::target(std::type_info const&) const
PUBLIC 55888 0 std::__ndk1::__function::__func<hook62<(anonymous namespace)::hook62Parent>::init(LevelEditorLayer*)::{lambda()#1}::operator()() const::{lambda()#20}, std::__ndk1::allocator<hook62<(anonymous namespace)::hook62Parent>::init(LevelEditorLayer*)::{lambda()#1}::operator()() const::{lambda()#20}>, void ()>::target_type() const
PUBLIC 55894 0 std::__ndk1::__function::__func<hook62<(anonymous namespace)::hook62Parent>::init(LevelEditorLayer*)::{lambda()#1}::operator()() const::{lambda()#21}, std::__ndk1::allocator<hook62<(anonymous namespace)::hook62Parent>::init(LevelEditorLayer*)::{lambda()#1}::operator()() const::{lambda()#21}>, void ()>::~__func()
PUBLIC 55898 0 std::__ndk1::__function::__func<hook62<(anonymous namespace)::hook62Parent>::init(LevelEditorLayer*)::{lambda()#1}::operator()() const::{lambda()#21}, std::__ndk1::allocator<hook62<(anonymous namespace)::hook62Parent>::init(LevelEditorLayer*)::{lambda()#1}::operator()() const::{lambda()#21}>, void ()>::__clone() const
PUBLIC 558cc 0 std::__ndk1::__function::__func<hook62<(anonymous namespace)::hook62Parent>::init(LevelEditorLayer*)::{lambda()#1}::operator()() const::{lambda()#21}, std::__ndk1::allocator<hook62<(anonymous namespace)::hook62Parent>::init(LevelEditorLayer*)::{lambda()#1}::operator()() const::{lambda()#21}>, void ()>::__clone(std::__ndk1::__function::__base<void ()>*) const
PUBLIC 558e0 0 std::__ndk1::__function::__func<hook62<(anonymous namespace)::hook62Parent>::init(LevelEditorLayer*)::{lambda()#1}::operator()() const::{lambda()#21}, std::__ndk1::allocator<hook62<(anonymous namespace)::hook62Parent>::init(LevelEditorLayer*)::{lambda()#1}::operator()() const::{lambda()#21}>, void ()>::destroy()
PUBLIC 558e4 0 std::__ndk1::__function::__func<hook62<(anonymous namespace)::hook62Parent>::init(LevelEditorLayer*)::{lambda()#1}::operator()() const::{lambda()#21}, std::__ndk1::allocator<hook62<(anonymous namespace)::hook62Parent>::init(LevelEditorLayer*)::{lambda()#1}::operator()() const::{lambda()#21}>, void ()>::destroy_deallocate()
PUBLIC 558e8 0 std::__ndk1::__function::__func<hook62<(anonymous namespace)::hook62Parent>::init(LevelEditorLayer*)::{lambda()#1}::operator()() const::{lambda()#21}, std::__ndk1::allocator<hook62<(anonymous namespace)::hook62Parent>::init(LevelEditorLayer*)::{lambda()#1}::operator()() const::{lambda()#21}>, void ()>::operator()()
PUBLIC 558f4 0 std::__ndk1::__function::__func<hook62<(anonymous namespace)::hook62Parent>::init(LevelEditorLayer*)::{lambda()#1}::operator()() const::{lambda()#21}, std::__ndk1::allocator<hook62<(anonymous namespace)::hook62Parent>::init(LevelEditorLayer*)::{lambda()#1}::operator()() const::{lambda()#21}>, void ()>::target(std::type_info const&) const
PUBLIC 55910 0 std::__ndk1::__function::__func<hook62<(anonymous namespace)::hook62Parent>::init(LevelEditorLayer*)::{lambda()#1}::operator()() const::{lambda()#21}, std::__ndk1::allocator<hook62<(anonymous namespace)::hook62Parent>::init(LevelEditorLayer*)::{lambda()#1}::operator()() const::{lambda()#21}>, void ()>::target_type() const
PUBLIC 5591c 0 std::__ndk1::__function::__func<hook62<(anonymous namespace)::hook62Parent>::init(LevelEditorLayer*)::{lambda()#1}::operator()() const::{lambda()#22}, std::__ndk1::allocator<hook62<(anonymous namespace)::hook62Parent>::init(LevelEditorLayer*)::{lambda()#1}::operator()() const::{lambda()#22}>, void ()>::~__func()
PUBLIC 55920 0 std::__ndk1::__function::__func<hook62<(anonymous namespace)::hook62Parent>::init(LevelEditorLayer*)::{lambda()#1}::operator()() const::{lambda()#22}, std::__ndk1::allocator<hook62<(anonymous namespace)::hook62Parent>::init(LevelEditorLayer*)::{lambda()#1}::operator()() const::{lambda()#22}>, void ()>::__clone() const
PUBLIC 55954 0 std::__ndk1::__function::__func<hook62<(anonymous namespace)::hook62Parent>::init(LevelEditorLayer*)::{lambda()#1}::operator()() const::{lambda()#22}, std::__ndk1::allocator<hook62<(anonymous namespace)::hook62Parent>::init(LevelEditorLayer*)::{lambda()#1}::operator()() const::{lambda()#22}>, void ()>::__clone(std::__ndk1::__function::__base<void ()>*) const
PUBLIC 55968 0 std::__ndk1::__function::__func<hook62<(anonymous namespace)::hook62Parent>::init(LevelEditorLayer*)::{lambda()#1}::operator()() const::{lambda()#22}, std::__ndk1::allocator<hook62<(anonymous namespace)::hook62Parent>::init(LevelEditorLayer*)::{lambda()#1}::operator()() const::{lambda()#22}>, void ()>::destroy()
PUBLIC 5596c 0 std::__ndk1::__function::__func<hook62<(anonymous namespace)::hook62Parent>::init(LevelEditorLayer*)::{lambda()#1}::operator()() const::{lambda()#22}, std::__ndk1::allocator<hook62<(anonymous namespace)::hook62Parent>::init(LevelEditorLayer*)::{lambda()#1}::operator()() const::{lambda()#22}>, void ()>::destroy_deallocate()
PUBLIC 55970 0 std::__ndk1::__function::__func<hook62<(anonymous namespace)::hook62Parent>::init(LevelEditorLayer*)::{lambda()#1}::operator()() const::{lambda()#22}, std::__ndk1::allocator<hook62<(anonymous namespace)::hook62Parent>::init(LevelEditorLayer*)::{lambda()#1}::operator()() const::{lambda()#22}>, void ()>::operator()()
PUBLIC 559bc 0 std::__ndk1::__function::__func<hook62<(anonymous namespace)::hook62Parent>::init(LevelEditorLayer*)::{lambda()#1}::operator()() const::{lambda()#22}, std::__ndk1::allocator<hook62<(anonymous namespace)::hook62Parent>::init(LevelEditorLayer*)::{lambda()#1}::operator()() const::{lambda()#22}>, void ()>::target(std::type_info const&) const
PUBLIC 559d8 0 std::__ndk1::__function::__func<hook62<(anonymous namespace)::hook62Parent>::init(LevelEditorLayer*)::{lambda()#1}::operator()() const::{lambda()#22}, std::__ndk1::allocator<hook62<(anonymous namespace)::hook62Parent>::init(LevelEditorLayer*)::{lambda()#1}::operator()() const::{lambda()#22}>, void ()>::target_type() const
PUBLIC 559e4 0 std::__ndk1::__function::__func<hook62<(anonymous namespace)::hook62Parent>::init(LevelEditorLayer*)::{lambda()#1}::operator()() const::{lambda()#23}, std::__ndk1::allocator<hook62<(anonymous namespace)::hook62Parent>::init(LevelEditorLayer*)::{lambda()#1}::operator()() const::{lambda()#23}>, void ()>::~__func()
PUBLIC 559e8 0 std::__ndk1::__function::__func<hook62<(anonymous namespace)::hook62Parent>::init(LevelEditorLayer*)::{lambda()#1}::operator()() const::{lambda()#23}, std::__ndk1::allocator<hook62<(anonymous namespace)::hook62Parent>::init(LevelEditorLayer*)::{lambda()#1}::operator()() const::{lambda()#23}>, void ()>::__clone() const
PUBLIC 55a1c 0 std::__ndk1::__function::__func<hook62<(anonymous namespace)::hook62Parent>::init(LevelEditorLayer*)::{lambda()#1}::operator()() const::{lambda()#23}, std::__ndk1::allocator<hook62<(anonymous namespace)::hook62Parent>::init(LevelEditorLayer*)::{lambda()#1}::operator()() const::{lambda()#23}>, void ()>::__clone(std::__ndk1::__function::__base<void ()>*) const
PUBLIC 55a30 0 std::__ndk1::__function::__func<hook62<(anonymous namespace)::hook62Parent>::init(LevelEditorLayer*)::{lambda()#1}::operator()() const::{lambda()#23}, std::__ndk1::allocator<hook62<(anonymous namespace)::hook62Parent>::init(LevelEditorLayer*)::{lambda()#1}::operator()() const::{lambda()#23}>, void ()>::destroy()
PUBLIC 55a34 0 std::__ndk1::__function::__func<hook62<(anonymous namespace)::hook62Parent>::init(LevelEditorLayer*)::{lambda()#1}::operator()() const::{lambda()#23}, std::__ndk1::allocator<hook62<(anonymous namespace)::hook62Parent>::init(LevelEditorLayer*)::{lambda()#1}::operator()() const::{lambda()#23}>, void ()>::destroy_deallocate()
PUBLIC 55a38 0 std::__ndk1::__function::__func<hook62<(anonymous namespace)::hook62Parent>::init(LevelEditorLayer*)::{lambda()#1}::operator()() const::{lambda()#23}, std::__ndk1::allocator<hook62<(anonymous namespace)::hook62Parent>::init(LevelEditorLayer*)::{lambda()#1}::operator()() const::{lambda()#23}>, void ()>::operator()()
PUBLIC 55a74 0 std::__ndk1::__function::__func<hook62<(anonymous namespace)::hook62Parent>::init(LevelEditorLayer*)::{lambda()#1}::operator()() const::{lambda()#23}, std::__ndk1::allocator<hook62<(anonymous namespace)::hook62Parent>::init(LevelEditorLayer*)::{lambda()#1}::operator()() const::{lambda()#23}>, void ()>::target(std::type_info const&) const
PUBLIC 55a90 0 std::__ndk1::__function::__func<hook62<(anonymous namespace)::hook62Parent>::init(LevelEditorLayer*)::{lambda()#1}::operator()() const::{lambda()#23}, std::__ndk1::allocator<hook62<(anonymous namespace)::hook62Parent>::init(LevelEditorLayer*)::{lambda()#1}::operator()() const::{lambda()#23}>, void ()>::target_type() const
PUBLIC 55a9c 0 std::__ndk1::__function::__func<hook62<(anonymous namespace)::hook62Parent>::init(LevelEditorLayer*)::{lambda()#1}::operator()() const::{lambda()#24}, std::__ndk1::allocator<hook62<(anonymous namespace)::hook62Parent>::init(LevelEditorLayer*)::{lambda()#1}::operator()() const::{lambda()#24}>, void ()>::~__func()
PUBLIC 55aa0 0 std::__ndk1::__function::__func<hook62<(anonymous namespace)::hook62Parent>::init(LevelEditorLayer*)::{lambda()#1}::operator()() const::{lambda()#24}, std::__ndk1::allocator<hook62<(anonymous namespace)::hook62Parent>::init(LevelEditorLayer*)::{lambda()#1}::operator()() const::{lambda()#24}>, void ()>::__clone() const
PUBLIC 55ad4 0 std::__ndk1::__function::__func<hook62<(anonymous namespace)::hook62Parent>::init(LevelEditorLayer*)::{lambda()#1}::operator()() const::{lambda()#24}, std::__ndk1::allocator<hook62<(anonymous namespace)::hook62Parent>::init(LevelEditorLayer*)::{lambda()#1}::operator()() const::{lambda()#24}>, void ()>::__clone(std::__ndk1::__function::__base<void ()>*) const
PUBLIC 55ae8 0 std::__ndk1::__function::__func<hook62<(anonymous namespace)::hook62Parent>::init(LevelEditorLayer*)::{lambda()#1}::operator()() const::{lambda()#24}, std::__ndk1::allocator<hook62<(anonymous namespace)::hook62Parent>::init(LevelEditorLayer*)::{lambda()#1}::operator()() const::{lambda()#24}>, void ()>::destroy()
PUBLIC 55aec 0 std::__ndk1::__function::__func<hook62<(anonymous namespace)::hook62Parent>::init(LevelEditorLayer*)::{lambda()#1}::operator()() const::{lambda()#24}, std::__ndk1::allocator<hook62<(anonymous namespace)::hook62Parent>::init(LevelEditorLayer*)::{lambda()#1}::operator()() const::{lambda()#24}>, void ()>::destroy_deallocate()
PUBLIC 55af0 0 std::__ndk1::__function::__func<hook62<(anonymous namespace)::hook62Parent>::init(LevelEditorLayer*)::{lambda()#1}::operator()() const::{lambda()#24}, std::__ndk1::allocator<hook62<(anonymous namespace)::hook62Parent>::init(LevelEditorLayer*)::{lambda()#1}::operator()() const::{lambda()#24}>, void ()>::operator()()
PUBLIC 55c04 0 std::__ndk1::__function::__func<hook62<(anonymous namespace)::hook62Parent>::init(LevelEditorLayer*)::{lambda()#1}::operator()() const::{lambda()#24}, std::__ndk1::allocator<hook62<(anonymous namespace)::hook62Parent>::init(LevelEditorLayer*)::{lambda()#1}::operator()() const::{lambda()#24}>, void ()>::target(std::type_info const&) const
PUBLIC 55c20 0 std::__ndk1::__function::__func<hook62<(anonymous namespace)::hook62Parent>::init(LevelEditorLayer*)::{lambda()#1}::operator()() const::{lambda()#24}, std::__ndk1::allocator<hook62<(anonymous namespace)::hook62Parent>::init(LevelEditorLayer*)::{lambda()#1}::operator()() const::{lambda()#24}>, void ()>::target_type() const
PUBLIC 55c2c 0 std::__ndk1::__function::__func<hook62<(anonymous namespace)::hook62Parent>::init(LevelEditorLayer*)::{lambda()#1}::operator()() const::{lambda()#25}, std::__ndk1::allocator<hook62<(anonymous namespace)::hook62Parent>::init(LevelEditorLayer*)::{lambda()#1}::operator()() const::{lambda()#25}>, void ()>::~__func()
PUBLIC 55c30 0 std::__ndk1::__function::__func<hook62<(anonymous namespace)::hook62Parent>::init(LevelEditorLayer*)::{lambda()#1}::operator()() const::{lambda()#25}, std::__ndk1::allocator<hook62<(anonymous namespace)::hook62Parent>::init(LevelEditorLayer*)::{lambda()#1}::operator()() const::{lambda()#25}>, void ()>::__clone() const
PUBLIC 55c64 0 std::__ndk1::__function::__func<hook62<(anonymous namespace)::hook62Parent>::init(LevelEditorLayer*)::{lambda()#1}::operator()() const::{lambda()#25}, std::__ndk1::allocator<hook62<(anonymous namespace)::hook62Parent>::init(LevelEditorLayer*)::{lambda()#1}::operator()() const::{lambda()#25}>, void ()>::__clone(std::__ndk1::__function::__base<void ()>*) const
PUBLIC 55c78 0 std::__ndk1::__function::__func<hook62<(anonymous namespace)::hook62Parent>::init(LevelEditorLayer*)::{lambda()#1}::operator()() const::{lambda()#25}, std::__ndk1::allocator<hook62<(anonymous namespace)::hook62Parent>::init(LevelEditorLayer*)::{lambda()#1}::operator()() const::{lambda()#25}>, void ()>::destroy()
PUBLIC 55c7c 0 std::__ndk1::__function::__func<hook62<(anonymous namespace)::hook62Parent>::init(LevelEditorLayer*)::{lambda()#1}::operator()() const::{lambda()#25}, std::__ndk1::allocator<hook62<(anonymous namespace)::hook62Parent>::init(LevelEditorLayer*)::{lambda()#1}::operator()() const::{lambda()#25}>, void ()>::destroy_deallocate()
PUBLIC 55c80 0 std::__ndk1::__function::__func<hook62<(anonymous namespace)::hook62Parent>::init(LevelEditorLayer*)::{lambda()#1}::operator()() const::{lambda()#25}, std::__ndk1::allocator<hook62<(anonymous namespace)::hook62Parent>::init(LevelEditorLayer*)::{lambda()#1}::operator()() const::{lambda()#25}>, void ()>::operator()()
PUBLIC 55d94 0 std::__ndk1::__function::__func<hook62<(anonymous namespace)::hook62Parent>::init(LevelEditorLayer*)::{lambda()#1}::operator()() const::{lambda()#25}, std::__ndk1::allocator<hook62<(anonymous namespace)::hook62Parent>::init(LevelEditorLayer*)::{lambda()#1}::operator()() const::{lambda()#25}>, void ()>::target(std::type_info const&) const
PUBLIC 55db0 0 std::__ndk1::__function::__func<hook62<(anonymous namespace)::hook62Parent>::init(LevelEditorLayer*)::{lambda()#1}::operator()() const::{lambda()#25}, std::__ndk1::allocator<hook62<(anonymous namespace)::hook62Parent>::init(LevelEditorLayer*)::{lambda()#1}::operator()() const::{lambda()#25}>, void ()>::target_type() const
PUBLIC 55dbc 0 std::__ndk1::__function::__func<hook62<(anonymous namespace)::hook62Parent>::init(LevelEditorLayer*)::{lambda()#1}::operator()() const::{lambda()#26}, std::__ndk1::allocator<hook62<(anonymous namespace)::hook62Parent>::init(LevelEditorLayer*)::{lambda()#1}::operator()() const::{lambda()#26}>, void ()>::~__func()
PUBLIC 55dc0 0 std::__ndk1::__function::__func<hook62<(anonymous namespace)::hook62Parent>::init(LevelEditorLayer*)::{lambda()#1}::operator()() const::{lambda()#26}, std::__ndk1::allocator<hook62<(anonymous namespace)::hook62Parent>::init(LevelEditorLayer*)::{lambda()#1}::operator()() const::{lambda()#26}>, void ()>::__clone() const
PUBLIC 55df4 0 std::__ndk1::__function::__func<hook62<(anonymous namespace)::hook62Parent>::init(LevelEditorLayer*)::{lambda()#1}::operator()() const::{lambda()#26}, std::__ndk1::allocator<hook62<(anonymous namespace)::hook62Parent>::init(LevelEditorLayer*)::{lambda()#1}::operator()() const::{lambda()#26}>, void ()>::__clone(std::__ndk1::__function::__base<void ()>*) const
PUBLIC 55e08 0 std::__ndk1::__function::__func<hook62<(anonymous namespace)::hook62Parent>::init(LevelEditorLayer*)::{lambda()#1}::operator()() const::{lambda()#26}, std::__ndk1::allocator<hook62<(anonymous namespace)::hook62Parent>::init(LevelEditorLayer*)::{lambda()#1}::operator()() const::{lambda()#26}>, void ()>::destroy()
PUBLIC 55e0c 0 std::__ndk1::__function::__func<hook62<(anonymous namespace)::hook62Parent>::init(LevelEditorLayer*)::{lambda()#1}::operator()() const::{lambda()#26}, std::__ndk1::allocator<hook62<(anonymous namespace)::hook62Parent>::init(LevelEditorLayer*)::{lambda()#1}::operator()() const::{lambda()#26}>, void ()>::destroy_deallocate()
PUBLIC 55e10 0 std::__ndk1::__function::__func<hook62<(anonymous namespace)::hook62Parent>::init(LevelEditorLayer*)::{lambda()#1}::operator()() const::{lambda()#26}, std::__ndk1::allocator<hook62<(anonymous namespace)::hook62Parent>::init(LevelEditorLayer*)::{lambda()#1}::operator()() const::{lambda()#26}>, void ()>::operator()()
PUBLIC 55e68 0 std::__ndk1::__function::__func<hook62<(anonymous namespace)::hook62Parent>::init(LevelEditorLayer*)::{lambda()#1}::operator()() const::{lambda()#26}, std::__ndk1::allocator<hook62<(anonymous namespace)::hook62Parent>::init(LevelEditorLayer*)::{lambda()#1}::operator()() const::{lambda()#26}>, void ()>::target(std::type_info const&) const
PUBLIC 55e84 0 std::__ndk1::__function::__func<hook62<(anonymous namespace)::hook62Parent>::init(LevelEditorLayer*)::{lambda()#1}::operator()() const::{lambda()#26}, std::__ndk1::allocator<hook62<(anonymous namespace)::hook62Parent>::init(LevelEditorLayer*)::{lambda()#1}::operator()() const::{lambda()#26}>, void ()>::target_type() const
PUBLIC 55e90 0 std::__ndk1::__function::__func<hook62<(anonymous namespace)::hook62Parent>::init(LevelEditorLayer*)::{lambda()#1}::operator()() const::{lambda()#27}, std::__ndk1::allocator<hook62<(anonymous namespace)::hook62Parent>::init(LevelEditorLayer*)::{lambda()#1}::operator()() const::{lambda()#27}>, void ()>::~__func()
PUBLIC 55e94 0 std::__ndk1::__function::__func<hook62<(anonymous namespace)::hook62Parent>::init(LevelEditorLayer*)::{lambda()#1}::operator()() const::{lambda()#27}, std::__ndk1::allocator<hook62<(anonymous namespace)::hook62Parent>::init(LevelEditorLayer*)::{lambda()#1}::operator()() const::{lambda()#27}>, void ()>::__clone() const
PUBLIC 55ec8 0 std::__ndk1::__function::__func<hook62<(anonymous namespace)::hook62Parent>::init(LevelEditorLayer*)::{lambda()#1}::operator()() const::{lambda()#27}, std::__ndk1::allocator<hook62<(anonymous namespace)::hook62Parent>::init(LevelEditorLayer*)::{lambda()#1}::operator()() const::{lambda()#27}>, void ()>::__clone(std::__ndk1::__function::__base<void ()>*) const
PUBLIC 55edc 0 std::__ndk1::__function::__func<hook62<(anonymous namespace)::hook62Parent>::init(LevelEditorLayer*)::{lambda()#1}::operator()() const::{lambda()#27}, std::__ndk1::allocator<hook62<(anonymous namespace)::hook62Parent>::init(LevelEditorLayer*)::{lambda()#1}::operator()() const::{lambda()#27}>, void ()>::destroy()
PUBLIC 55ee0 0 std::__ndk1::__function::__func<hook62<(anonymous namespace)::hook62Parent>::init(LevelEditorLayer*)::{lambda()#1}::operator()() const::{lambda()#27}, std::__ndk1::allocator<hook62<(anonymous namespace)::hook62Parent>::init(LevelEditorLayer*)::{lambda()#1}::operator()() const::{lambda()#27}>, void ()>::destroy_deallocate()
PUBLIC 55ee4 0 std::__ndk1::__function::__func<hook62<(anonymous namespace)::hook62Parent>::init(LevelEditorLayer*)::{lambda()#1}::operator()() const::{lambda()#27}, std::__ndk1::allocator<hook62<(anonymous namespace)::hook62Parent>::init(LevelEditorLayer*)::{lambda()#1}::operator()() const::{lambda()#27}>, void ()>::operator()()
PUBLIC 55f3c 0 std::__ndk1::__function::__func<hook62<(anonymous namespace)::hook62Parent>::init(LevelEditorLayer*)::{lambda()#1}::operator()() const::{lambda()#27}, std::__ndk1::allocator<hook62<(anonymous namespace)::hook62Parent>::init(LevelEditorLayer*)::{lambda()#1}::operator()() const::{lambda()#27}>, void ()>::target(std::type_info const&) const
PUBLIC 55f58 0 std::__ndk1::__function::__func<hook62<(anonymous namespace)::hook62Parent>::init(LevelEditorLayer*)::{lambda()#1}::operator()() const::{lambda()#27}, std::__ndk1::allocator<hook62<(anonymous namespace)::hook62Parent>::init(LevelEditorLayer*)::{lambda()#1}::operator()() const::{lambda()#27}>, void ()>::target_type() const
PUBLIC 55f64 0 std::__ndk1::__function::__func<hook62<(anonymous namespace)::hook62Parent>::init(LevelEditorLayer*)::{lambda()#1}::operator()() const::{lambda()#28}, std::__ndk1::allocator<hook62<(anonymous namespace)::hook62Parent>::init(LevelEditorLayer*)::{lambda()#1}::operator()() const::{lambda()#28}>, void ()>::~__func()
PUBLIC 55f68 0 std::__ndk1::__function::__func<hook62<(anonymous namespace)::hook62Parent>::init(LevelEditorLayer*)::{lambda()#1}::operator()() const::{lambda()#28}, std::__ndk1::allocator<hook62<(anonymous namespace)::hook62Parent>::init(LevelEditorLayer*)::{lambda()#1}::operator()() const::{lambda()#28}>, void ()>::__clone() const
PUBLIC 55f9c 0 std::__ndk1::__function::__func<hook62<(anonymous namespace)::hook62Parent>::init(LevelEditorLayer*)::{lambda()#1}::operator()() const::{lambda()#28}, std::__ndk1::allocator<hook62<(anonymous namespace)::hook62Parent>::init(LevelEditorLayer*)::{lambda()#1}::operator()() const::{lambda()#28}>, void ()>::__clone(std::__ndk1::__function::__base<void ()>*) const
PUBLIC 55fb0 0 std::__ndk1::__function::__func<hook62<(anonymous namespace)::hook62Parent>::init(LevelEditorLayer*)::{lambda()#1}::operator()() const::{lambda()#28}, std::__ndk1::allocator<hook62<(anonymous namespace)::hook62Parent>::init(LevelEditorLayer*)::{lambda()#1}::operator()() const::{lambda()#28}>, void ()>::destroy()
PUBLIC 55fb4 0 std::__ndk1::__function::__func<hook62<(anonymous namespace)::hook62Parent>::init(LevelEditorLayer*)::{lambda()#1}::operator()() const::{lambda()#28}, std::__ndk1::allocator<hook62<(anonymous namespace)::hook62Parent>::init(LevelEditorLayer*)::{lambda()#1}::operator()() const::{lambda()#28}>, void ()>::destroy_deallocate()
PUBLIC 55fb8 0 std::__ndk1::__function::__func<hook62<(anonymous namespace)::hook62Parent>::init(LevelEditorLayer*)::{lambda()#1}::operator()() const::{lambda()#28}, std::__ndk1::allocator<hook62<(anonymous namespace)::hook62Parent>::init(LevelEditorLayer*)::{lambda()#1}::operator()() const::{lambda()#28}>, void ()>::operator()()
PUBLIC 55fc4 0 std::__ndk1::__function::__func<hook62<(anonymous namespace)::hook62Parent>::init(LevelEditorLayer*)::{lambda()#1}::operator()() const::{lambda()#28}, std::__ndk1::allocator<hook62<(anonymous namespace)::hook62Parent>::init(LevelEditorLayer*)::{lambda()#1}::operator()() const::{lambda()#28}>, void ()>::target(std::type_info const&) const
PUBLIC 55fe0 0 std::__ndk1::__function::__func<hook62<(anonymous namespace)::hook62Parent>::init(LevelEditorLayer*)::{lambda()#1}::operator()() const::{lambda()#28}, std::__ndk1::allocator<hook62<(anonymous namespace)::hook62Parent>::init(LevelEditorLayer*)::{lambda()#1}::operator()() const::{lambda()#28}>, void ()>::target_type() const
PUBLIC 55fec 0 std::__ndk1::__function::__func<hook62<(anonymous namespace)::hook62Parent>::init(LevelEditorLayer*)::{lambda()#1}::operator()() const::{lambda()#29}, std::__ndk1::allocator<hook62<(anonymous namespace)::hook62Parent>::init(LevelEditorLayer*)::{lambda()#1}::operator()() const::{lambda()#29}>, void ()>::~__func()
PUBLIC 55ff0 0 std::__ndk1::__function::__func<hook62<(anonymous namespace)::hook62Parent>::init(LevelEditorLayer*)::{lambda()#1}::operator()() const::{lambda()#29}, std::__ndk1::allocator<hook62<(anonymous namespace)::hook62Parent>::init(LevelEditorLayer*)::{lambda()#1}::operator()() const::{lambda()#29}>, void ()>::__clone() const
PUBLIC 56024 0 std::__ndk1::__function::__func<hook62<(anonymous namespace)::hook62Parent>::init(LevelEditorLayer*)::{lambda()#1}::operator()() const::{lambda()#29}, std::__ndk1::allocator<hook62<(anonymous namespace)::hook62Parent>::init(LevelEditorLayer*)::{lambda()#1}::operator()() const::{lambda()#29}>, void ()>::__clone(std::__ndk1::__function::__base<void ()>*) const
PUBLIC 56038 0 std::__ndk1::__function::__func<hook62<(anonymous namespace)::hook62Parent>::init(LevelEditorLayer*)::{lambda()#1}::operator()() const::{lambda()#29}, std::__ndk1::allocator<hook62<(anonymous namespace)::hook62Parent>::init(LevelEditorLayer*)::{lambda()#1}::operator()() const::{lambda()#29}>, void ()>::destroy()
PUBLIC 5603c 0 std::__ndk1::__function::__func<hook62<(anonymous namespace)::hook62Parent>::init(LevelEditorLayer*)::{lambda()#1}::operator()() const::{lambda()#29}, std::__ndk1::allocator<hook62<(anonymous namespace)::hook62Parent>::init(LevelEditorLayer*)::{lambda()#1}::operator()() const::{lambda()#29}>, void ()>::destroy_deallocate()
PUBLIC 56040 0 std::__ndk1::__function::__func<hook62<(anonymous namespace)::hook62Parent>::init(LevelEditorLayer*)::{lambda()#1}::operator()() const::{lambda()#29}, std::__ndk1::allocator<hook62<(anonymous namespace)::hook62Parent>::init(LevelEditorLayer*)::{lambda()#1}::operator()() const::{lambda()#29}>, void ()>::operator()()
PUBLIC 5604c 0 std::__ndk1::__function::__func<hook62<(anonymous namespace)::hook62Parent>::init(LevelEditorLayer*)::{lambda()#1}::operator()() const::{lambda()#29}, std::__ndk1::allocator<hook62<(anonymous namespace)::hook62Parent>::init(LevelEditorLayer*)::{lambda()#1}::operator()() const::{lambda()#29}>, void ()>::target(std::type_info const&) const
PUBLIC 56068 0 std::__ndk1::__function::__func<hook62<(anonymous namespace)::hook62Parent>::init(LevelEditorLayer*)::{lambda()#1}::operator()() const::{lambda()#29}, std::__ndk1::allocator<hook62<(anonymous namespace)::hook62Parent>::init(LevelEditorLayer*)::{lambda()#1}::operator()() const::{lambda()#29}>, void ()>::target_type() const
PUBLIC 56074 0 std::__ndk1::__function::__func<hook62<(anonymous namespace)::hook62Parent>::init(LevelEditorLayer*)::{lambda()#1}::operator()() const::{lambda()#30}, std::__ndk1::allocator<hook62<(anonymous namespace)::hook62Parent>::init(LevelEditorLayer*)::{lambda()#1}::operator()() const::{lambda()#30}>, void ()>::~__func()
PUBLIC 56078 0 std::__ndk1::__function::__func<hook62<(anonymous namespace)::hook62Parent>::init(LevelEditorLayer*)::{lambda()#1}::operator()() const::{lambda()#30}, std::__ndk1::allocator<hook62<(anonymous namespace)::hook62Parent>::init(LevelEditorLayer*)::{lambda()#1}::operator()() const::{lambda()#30}>, void ()>::__clone() const
PUBLIC 560ac 0 std::__ndk1::__function::__func<hook62<(anonymous namespace)::hook62Parent>::init(LevelEditorLayer*)::{lambda()#1}::operator()() const::{lambda()#30}, std::__ndk1::allocator<hook62<(anonymous namespace)::hook62Parent>::init(LevelEditorLayer*)::{lambda()#1}::operator()() const::{lambda()#30}>, void ()>::__clone(std::__ndk1::__function::__base<void ()>*) const
PUBLIC 560c0 0 std::__ndk1::__function::__func<hook62<(anonymous namespace)::hook62Parent>::init(LevelEditorLayer*)::{lambda()#1}::operator()() const::{lambda()#30}, std::__ndk1::allocator<hook62<(anonymous namespace)::hook62Parent>::init(LevelEditorLayer*)::{lambda()#1}::operator()() const::{lambda()#30}>, void ()>::destroy()
PUBLIC 560c4 0 std::__ndk1::__function::__func<hook62<(anonymous namespace)::hook62Parent>::init(LevelEditorLayer*)::{lambda()#1}::operator()() const::{lambda()#30}, std::__ndk1::allocator<hook62<(anonymous namespace)::hook62Parent>::init(LevelEditorLayer*)::{lambda()#1}::operator()() const::{lambda()#30}>, void ()>::destroy_deallocate()
PUBLIC 560c8 0 std::__ndk1::__function::__func<hook62<(anonymous namespace)::hook62Parent>::init(LevelEditorLayer*)::{lambda()#1}::operator()() const::{lambda()#30}, std::__ndk1::allocator<hook62<(anonymous namespace)::hook62Parent>::init(LevelEditorLayer*)::{lambda()#1}::operator()() const::{lambda()#30}>, void ()>::operator()()
PUBLIC 561dc 0 std::__ndk1::__function::__func<hook62<(anonymous namespace)::hook62Parent>::init(LevelEditorLayer*)::{lambda()#1}::operator()() const::{lambda()#30}, std::__ndk1::allocator<hook62<(anonymous namespace)::hook62Parent>::init(LevelEditorLayer*)::{lambda()#1}::operator()() const::{lambda()#30}>, void ()>::target(std::type_info const&) const
PUBLIC 561f8 0 std::__ndk1::__function::__func<hook62<(anonymous namespace)::hook62Parent>::init(LevelEditorLayer*)::{lambda()#1}::operator()() const::{lambda()#30}, std::__ndk1::allocator<hook62<(anonymous namespace)::hook62Parent>::init(LevelEditorLayer*)::{lambda()#1}::operator()() const::{lambda()#30}>, void ()>::target_type() const
PUBLIC 56204 0 std::__ndk1::__function::__func<hook62<(anonymous namespace)::hook62Parent>::init(LevelEditorLayer*)::{lambda()#1}::operator()() const::{lambda()#31}, std::__ndk1::allocator<hook62<(anonymous namespace)::hook62Parent>::init(LevelEditorLayer*)::{lambda()#1}::operator()() const::{lambda()#31}>, void ()>::~__func()
PUBLIC 56208 0 std::__ndk1::__function::__func<hook62<(anonymous namespace)::hook62Parent>::init(LevelEditorLayer*)::{lambda()#1}::operator()() const::{lambda()#31}, std::__ndk1::allocator<hook62<(anonymous namespace)::hook62Parent>::init(LevelEditorLayer*)::{lambda()#1}::operator()() const::{lambda()#31}>, void ()>::__clone() const
PUBLIC 5623c 0 std::__ndk1::__function::__func<hook62<(anonymous namespace)::hook62Parent>::init(LevelEditorLayer*)::{lambda()#1}::operator()() const::{lambda()#31}, std::__ndk1::allocator<hook62<(anonymous namespace)::hook62Parent>::init(LevelEditorLayer*)::{lambda()#1}::operator()() const::{lambda()#31}>, void ()>::__clone(std::__ndk1::__function::__base<void ()>*) const
PUBLIC 56250 0 std::__ndk1::__function::__func<hook62<(anonymous namespace)::hook62Parent>::init(LevelEditorLayer*)::{lambda()#1}::operator()() const::{lambda()#31}, std::__ndk1::allocator<hook62<(anonymous namespace)::hook62Parent>::init(LevelEditorLayer*)::{lambda()#1}::operator()() const::{lambda()#31}>, void ()>::destroy()
PUBLIC 56254 0 std::__ndk1::__function::__func<hook62<(anonymous namespace)::hook62Parent>::init(LevelEditorLayer*)::{lambda()#1}::operator()() const::{lambda()#31}, std::__ndk1::allocator<hook62<(anonymous namespace)::hook62Parent>::init(LevelEditorLayer*)::{lambda()#1}::operator()() const::{lambda()#31}>, void ()>::destroy_deallocate()
PUBLIC 56258 0 std::__ndk1::__function::__func<hook62<(anonymous namespace)::hook62Parent>::init(LevelEditorLayer*)::{lambda()#1}::operator()() const::{lambda()#31}, std::__ndk1::allocator<hook62<(anonymous namespace)::hook62Parent>::init(LevelEditorLayer*)::{lambda()#1}::operator()() const::{lambda()#31}>, void ()>::operator()()
PUBLIC 5636c 0 std::__ndk1::__function::__func<hook62<(anonymous namespace)::hook62Parent>::init(LevelEditorLayer*)::{lambda()#1}::operator()() const::{lambda()#31}, std::__ndk1::allocator<hook62<(anonymous namespace)::hook62Parent>::init(LevelEditorLayer*)::{lambda()#1}::operator()() const::{lambda()#31}>, void ()>::target(std::type_info const&) const
PUBLIC 56388 0 std::__ndk1::__function::__func<hook62<(anonymous namespace)::hook62Parent>::init(LevelEditorLayer*)::{lambda()#1}::operator()() const::{lambda()#31}, std::__ndk1::allocator<hook62<(anonymous namespace)::hook62Parent>::init(LevelEditorLayer*)::{lambda()#1}::operator()() const::{lambda()#31}>, void ()>::target_type() const
PUBLIC 56394 0 std::__ndk1::__function::__func<hook62<(anonymous namespace)::hook62Parent>::init(LevelEditorLayer*)::{lambda()#1}::operator()() const::{lambda()#32}, std::__ndk1::allocator<hook62<(anonymous namespace)::hook62Parent>::init(LevelEditorLayer*)::{lambda()#1}::operator()() const::{lambda()#32}>, void ()>::~__func()
PUBLIC 56398 0 std::__ndk1::__function::__func<hook62<(anonymous namespace)::hook62Parent>::init(LevelEditorLayer*)::{lambda()#1}::operator()() const::{lambda()#32}, std::__ndk1::allocator<hook62<(anonymous namespace)::hook62Parent>::init(LevelEditorLayer*)::{lambda()#1}::operator()() const::{lambda()#32}>, void ()>::__clone() const
PUBLIC 563cc 0 std::__ndk1::__function::__func<hook62<(anonymous namespace)::hook62Parent>::init(LevelEditorLayer*)::{lambda()#1}::operator()() const::{lambda()#32}, std::__ndk1::allocator<hook62<(anonymous namespace)::hook62Parent>::init(LevelEditorLayer*)::{lambda()#1}::operator()() const::{lambda()#32}>, void ()>::__clone(std::__ndk1::__function::__base<void ()>*) const
PUBLIC 563e0 0 std::__ndk1::__function::__func<hook62<(anonymous namespace)::hook62Parent>::init(LevelEditorLayer*)::{lambda()#1}::operator()() const::{lambda()#32}, std::__ndk1::allocator<hook62<(anonymous namespace)::hook62Parent>::init(LevelEditorLayer*)::{lambda()#1}::operator()() const::{lambda()#32}>, void ()>::destroy()
PUBLIC 563e4 0 std::__ndk1::__function::__func<hook62<(anonymous namespace)::hook62Parent>::init(LevelEditorLayer*)::{lambda()#1}::operator()() const::{lambda()#32}, std::__ndk1::allocator<hook62<(anonymous namespace)::hook62Parent>::init(LevelEditorLayer*)::{lambda()#1}::operator()() const::{lambda()#32}>, void ()>::destroy_deallocate()
PUBLIC 563e8 0 std::__ndk1::__function::__func<hook62<(anonymous namespace)::hook62Parent>::init(LevelEditorLayer*)::{lambda()#1}::operator()() const::{lambda()#32}, std::__ndk1::allocator<hook62<(anonymous namespace)::hook62Parent>::init(LevelEditorLayer*)::{lambda()#1}::operator()() const::{lambda()#32}>, void ()>::operator()()
PUBLIC 564fc 0 std::__ndk1::__function::__func<hook62<(anonymous namespace)::hook62Parent>::init(LevelEditorLayer*)::{lambda()#1}::operator()() const::{lambda()#32}, std::__ndk1::allocator<hook62<(anonymous namespace)::hook62Parent>::init(LevelEditorLayer*)::{lambda()#1}::operator()() const::{lambda()#32}>, void ()>::target(std::type_info const&) const
PUBLIC 56518 0 std::__ndk1::__function::__func<hook62<(anonymous namespace)::hook62Parent>::init(LevelEditorLayer*)::{lambda()#1}::operator()() const::{lambda()#32}, std::__ndk1::allocator<hook62<(anonymous namespace)::hook62Parent>::init(LevelEditorLayer*)::{lambda()#1}::operator()() const::{lambda()#32}>, void ()>::target_type() const
PUBLIC 56524 0 std::__ndk1::__function::__func<hook62<(anonymous namespace)::hook62Parent>::init(LevelEditorLayer*)::{lambda()#1}::operator()() const::{lambda()#33}, std::__ndk1::allocator<hook62<(anonymous namespace)::hook62Parent>::init(LevelEditorLayer*)::{lambda()#1}::operator()() const::{lambda()#33}>, void ()>::~__func()
PUBLIC 56528 0 std::__ndk1::__function::__func<hook62<(anonymous namespace)::hook62Parent>::init(LevelEditorLayer*)::{lambda()#1}::operator()() const::{lambda()#33}, std::__ndk1::allocator<hook62<(anonymous namespace)::hook62Parent>::init(LevelEditorLayer*)::{lambda()#1}::operator()() const::{lambda()#33}>, void ()>::__clone() const
PUBLIC 5655c 0 std::__ndk1::__function::__func<hook62<(anonymous namespace)::hook62Parent>::init(LevelEditorLayer*)::{lambda()#1}::operator()() const::{lambda()#33}, std::__ndk1::allocator<hook62<(anonymous namespace)::hook62Parent>::init(LevelEditorLayer*)::{lambda()#1}::operator()() const::{lambda()#33}>, void ()>::__clone(std::__ndk1::__function::__base<void ()>*) const
PUBLIC 56570 0 std::__ndk1::__function::__func<hook62<(anonymous namespace)::hook62Parent>::init(LevelEditorLayer*)::{lambda()#1}::operator()() const::{lambda()#33}, std::__ndk1::allocator<hook62<(anonymous namespace)::hook62Parent>::init(LevelEditorLayer*)::{lambda()#1}::operator()() const::{lambda()#33}>, void ()>::destroy()
PUBLIC 56574 0 std::__ndk1::__function::__func<hook62<(anonymous namespace)::hook62Parent>::init(LevelEditorLayer*)::{lambda()#1}::operator()() const::{lambda()#33}, std::__ndk1::allocator<hook62<(anonymous namespace)::hook62Parent>::init(LevelEditorLayer*)::{lambda()#1}::operator()() const::{lambda()#33}>, void ()>::destroy_deallocate()
PUBLIC 56578 0 std::__ndk1::__function::__func<hook62<(anonymous namespace)::hook62Parent>::init(LevelEditorLayer*)::{lambda()#1}::operator()() const::{lambda()#33}, std::__ndk1::allocator<hook62<(anonymous namespace)::hook62Parent>::init(LevelEditorLayer*)::{lambda()#1}::operator()() const::{lambda()#33}>, void ()>::operator()()
PUBLIC 5668c 0 std::__ndk1::__function::__func<hook62<(anonymous namespace)::hook62Parent>::init(LevelEditorLayer*)::{lambda()#1}::operator()() const::{lambda()#33}, std::__ndk1::allocator<hook62<(anonymous namespace)::hook62Parent>::init(LevelEditorLayer*)::{lambda()#1}::operator()() const::{lambda()#33}>, void ()>::target(std::type_info const&) const
PUBLIC 566a8 0 std::__ndk1::__function::__func<hook62<(anonymous namespace)::hook62Parent>::init(LevelEditorLayer*)::{lambda()#1}::operator()() const::{lambda()#33}, std::__ndk1::allocator<hook62<(anonymous namespace)::hook62Parent>::init(LevelEditorLayer*)::{lambda()#1}::operator()() const::{lambda()#33}>, void ()>::target_type() const
PUBLIC 566b4 0 std::__ndk1::__function::__func<hook62<(anonymous namespace)::hook62Parent>::init(LevelEditorLayer*)::{lambda()#1}::operator()() const::{lambda()#34}, std::__ndk1::allocator<hook62<(anonymous namespace)::hook62Parent>::init(LevelEditorLayer*)::{lambda()#1}::operator()() const::{lambda()#34}>, void ()>::~__func()
PUBLIC 566b8 0 std::__ndk1::__function::__func<hook62<(anonymous namespace)::hook62Parent>::init(LevelEditorLayer*)::{lambda()#1}::operator()() const::{lambda()#34}, std::__ndk1::allocator<hook62<(anonymous namespace)::hook62Parent>::init(LevelEditorLayer*)::{lambda()#1}::operator()() const::{lambda()#34}>, void ()>::__clone() const
PUBLIC 566ec 0 std::__ndk1::__function::__func<hook62<(anonymous namespace)::hook62Parent>::init(LevelEditorLayer*)::{lambda()#1}::operator()() const::{lambda()#34}, std::__ndk1::allocator<hook62<(anonymous namespace)::hook62Parent>::init(LevelEditorLayer*)::{lambda()#1}::operator()() const::{lambda()#34}>, void ()>::__clone(std::__ndk1::__function::__base<void ()>*) const
PUBLIC 56700 0 std::__ndk1::__function::__func<hook62<(anonymous namespace)::hook62Parent>::init(LevelEditorLayer*)::{lambda()#1}::operator()() const::{lambda()#34}, std::__ndk1::allocator<hook62<(anonymous namespace)::hook62Parent>::init(LevelEditorLayer*)::{lambda()#1}::operator()() const::{lambda()#34}>, void ()>::destroy()
PUBLIC 56704 0 std::__ndk1::__function::__func<hook62<(anonymous namespace)::hook62Parent>::init(LevelEditorLayer*)::{lambda()#1}::operator()() const::{lambda()#34}, std::__ndk1::allocator<hook62<(anonymous namespace)::hook62Parent>::init(LevelEditorLayer*)::{lambda()#1}::operator()() const::{lambda()#34}>, void ()>::destroy_deallocate()
PUBLIC 56708 0 std::__ndk1::__function::__func<hook62<(anonymous namespace)::hook62Parent>::init(LevelEditorLayer*)::{lambda()#1}::operator()() const::{lambda()#34}, std::__ndk1::allocator<hook62<(anonymous namespace)::hook62Parent>::init(LevelEditorLayer*)::{lambda()#1}::operator()() const::{lambda()#34}>, void ()>::operator()()
PUBLIC 5681c 0 std::__ndk1::__function::__func<hook62<(anonymous namespace)::hook62Parent>::init(LevelEditorLayer*)::{lambda()#1}::operator()() const::{lambda()#34}, std::__ndk1::allocator<hook62<(anonymous namespace)::hook62Parent>::init(LevelEditorLayer*)::{lambda()#1}::operator()() const::{lambda()#34}>, void ()>::target(std::type_info const&) const
PUBLIC 56838 0 std::__ndk1::__function::__func<hook62<(anonymous namespace)::hook62Parent>::init(LevelEditorLayer*)::{lambda()#1}::operator()() const::{lambda()#34}, std::__ndk1::allocator<hook62<(anonymous namespace)::hook62Parent>::init(LevelEditorLayer*)::{lambda()#1}::operator()() const::{lambda()#34}>, void ()>::target_type() const
PUBLIC 56844 0 std::__ndk1::__function::__func<hook62<(anonymous namespace)::hook62Parent>::init(LevelEditorLayer*)::{lambda()#1}::operator()() const::{lambda()#35}, std::__ndk1::allocator<hook62<(anonymous namespace)::hook62Parent>::init(LevelEditorLayer*)::{lambda()#1}::operator()() const::{lambda()#35}>, void ()>::~__func()
PUBLIC 56848 0 std::__ndk1::__function::__func<hook62<(anonymous namespace)::hook62Parent>::init(LevelEditorLayer*)::{lambda()#1}::operator()() const::{lambda()#35}, std::__ndk1::allocator<hook62<(anonymous namespace)::hook62Parent>::init(LevelEditorLayer*)::{lambda()#1}::operator()() const::{lambda()#35}>, void ()>::__clone() const
PUBLIC 5687c 0 std::__ndk1::__function::__func<hook62<(anonymous namespace)::hook62Parent>::init(LevelEditorLayer*)::{lambda()#1}::operator()() const::{lambda()#35}, std::__ndk1::allocator<hook62<(anonymous namespace)::hook62Parent>::init(LevelEditorLayer*)::{lambda()#1}::operator()() const::{lambda()#35}>, void ()>::__clone(std::__ndk1::__function::__base<void ()>*) const
PUBLIC 56890 0 std::__ndk1::__function::__func<hook62<(anonymous namespace)::hook62Parent>::init(LevelEditorLayer*)::{lambda()#1}::operator()() const::{lambda()#35}, std::__ndk1::allocator<hook62<(anonymous namespace)::hook62Parent>::init(LevelEditorLayer*)::{lambda()#1}::operator()() const::{lambda()#35}>, void ()>::destroy()
PUBLIC 56894 0 std::__ndk1::__function::__func<hook62<(anonymous namespace)::hook62Parent>::init(LevelEditorLayer*)::{lambda()#1}::operator()() const::{lambda()#35}, std::__ndk1::allocator<hook62<(anonymous namespace)::hook62Parent>::init(LevelEditorLayer*)::{lambda()#1}::operator()() const::{lambda()#35}>, void ()>::destroy_deallocate()
PUBLIC 56898 0 std::__ndk1::__function::__func<hook62<(anonymous namespace)::hook62Parent>::init(LevelEditorLayer*)::{lambda()#1}::operator()() const::{lambda()#35}, std::__ndk1::allocator<hook62<(anonymous namespace)::hook62Parent>::init(LevelEditorLayer*)::{lambda()#1}::operator()() const::{lambda()#35}>, void ()>::operator()()
PUBLIC 569ac 0 std::__ndk1::__function::__func<hook62<(anonymous namespace)::hook62Parent>::init(LevelEditorLayer*)::{lambda()#1}::operator()() const::{lambda()#35}, std::__ndk1::allocator<hook62<(anonymous namespace)::hook62Parent>::init(LevelEditorLayer*)::{lambda()#1}::operator()() const::{lambda()#35}>, void ()>::target(std::type_info const&) const
PUBLIC 569c8 0 std::__ndk1::__function::__func<hook62<(anonymous namespace)::hook62Parent>::init(LevelEditorLayer*)::{lambda()#1}::operator()() const::{lambda()#35}, std::__ndk1::allocator<hook62<(anonymous namespace)::hook62Parent>::init(LevelEditorLayer*)::{lambda()#1}::operator()() const::{lambda()#35}>, void ()>::target_type() const
PUBLIC 569d4 0 std::__ndk1::__function::__func<hook62<(anonymous namespace)::hook62Parent>::init(LevelEditorLayer*)::{lambda()#1}::operator()() const::{lambda()#36}, std::__ndk1::allocator<hook62<(anonymous namespace)::hook62Parent>::init(LevelEditorLayer*)::{lambda()#1}::operator()() const::{lambda()#36}>, void ()>::~__func()
PUBLIC 569d8 0 std::__ndk1::__function::__func<hook62<(anonymous namespace)::hook62Parent>::init(LevelEditorLayer*)::{lambda()#1}::operator()() const::{lambda()#36}, std::__ndk1::allocator<hook62<(anonymous namespace)::hook62Parent>::init(LevelEditorLayer*)::{lambda()#1}::operator()() const::{lambda()#36}>, void ()>::__clone() const
PUBLIC 56a0c 0 std::__ndk1::__function::__func<hook62<(anonymous namespace)::hook62Parent>::init(LevelEditorLayer*)::{lambda()#1}::operator()() const::{lambda()#36}, std::__ndk1::allocator<hook62<(anonymous namespace)::hook62Parent>::init(LevelEditorLayer*)::{lambda()#1}::operator()() const::{lambda()#36}>, void ()>::__clone(std::__ndk1::__function::__base<void ()>*) const
PUBLIC 56a20 0 std::__ndk1::__function::__func<hook62<(anonymous namespace)::hook62Parent>::init(LevelEditorLayer*)::{lambda()#1}::operator()() const::{lambda()#36}, std::__ndk1::allocator<hook62<(anonymous namespace)::hook62Parent>::init(LevelEditorLayer*)::{lambda()#1}::operator()() const::{lambda()#36}>, void ()>::destroy()
PUBLIC 56a24 0 std::__ndk1::__function::__func<hook62<(anonymous namespace)::hook62Parent>::init(LevelEditorLayer*)::{lambda()#1}::operator()() const::{lambda()#36}, std::__ndk1::allocator<hook62<(anonymous namespace)::hook62Parent>::init(LevelEditorLayer*)::{lambda()#1}::operator()() const::{lambda()#36}>, void ()>::destroy_deallocate()
PUBLIC 56a28 0 std::__ndk1::__function::__func<hook62<(anonymous namespace)::hook62Parent>::init(LevelEditorLayer*)::{lambda()#1}::operator()() const::{lambda()#36}, std::__ndk1::allocator<hook62<(anonymous namespace)::hook62Parent>::init(LevelEditorLayer*)::{lambda()#1}::operator()() const::{lambda()#36}>, void ()>::operator()()
PUBLIC 56b3c 0 std::__ndk1::__function::__func<hook62<(anonymous namespace)::hook62Parent>::init(LevelEditorLayer*)::{lambda()#1}::operator()() const::{lambda()#36}, std::__ndk1::allocator<hook62<(anonymous namespace)::hook62Parent>::init(LevelEditorLayer*)::{lambda()#1}::operator()() const::{lambda()#36}>, void ()>::target(std::type_info const&) const
PUBLIC 56b58 0 std::__ndk1::__function::__func<hook62<(anonymous namespace)::hook62Parent>::init(LevelEditorLayer*)::{lambda()#1}::operator()() const::{lambda()#36}, std::__ndk1::allocator<hook62<(anonymous namespace)::hook62Parent>::init(LevelEditorLayer*)::{lambda()#1}::operator()() const::{lambda()#36}>, void ()>::target_type() const
PUBLIC 56b64 0 std::__ndk1::__function::__func<hook62<(anonymous namespace)::hook62Parent>::init(LevelEditorLayer*)::{lambda()#1}::operator()() const::{lambda()#37}, std::__ndk1::allocator<hook62<(anonymous namespace)::hook62Parent>::init(LevelEditorLayer*)::{lambda()#1}::operator()() const::{lambda()#37}>, void ()>::~__func()
PUBLIC 56b68 0 std::__ndk1::__function::__func<hook62<(anonymous namespace)::hook62Parent>::init(LevelEditorLayer*)::{lambda()#1}::operator()() const::{lambda()#37}, std::__ndk1::allocator<hook62<(anonymous namespace)::hook62Parent>::init(LevelEditorLayer*)::{lambda()#1}::operator()() const::{lambda()#37}>, void ()>::__clone() const
PUBLIC 56b9c 0 std::__ndk1::__function::__func<hook62<(anonymous namespace)::hook62Parent>::init(LevelEditorLayer*)::{lambda()#1}::operator()() const::{lambda()#37}, std::__ndk1::allocator<hook62<(anonymous namespace)::hook62Parent>::init(LevelEditorLayer*)::{lambda()#1}::operator()() const::{lambda()#37}>, void ()>::__clone(std::__ndk1::__function::__base<void ()>*) const
PUBLIC 56bb0 0 std::__ndk1::__function::__func<hook62<(anonymous namespace)::hook62Parent>::init(LevelEditorLayer*)::{lambda()#1}::operator()() const::{lambda()#37}, std::__ndk1::allocator<hook62<(anonymous namespace)::hook62Parent>::init(LevelEditorLayer*)::{lambda()#1}::operator()() const::{lambda()#37}>, void ()>::destroy()
PUBLIC 56bb4 0 std::__ndk1::__function::__func<hook62<(anonymous namespace)::hook62Parent>::init(LevelEditorLayer*)::{lambda()#1}::operator()() const::{lambda()#37}, std::__ndk1::allocator<hook62<(anonymous namespace)::hook62Parent>::init(LevelEditorLayer*)::{lambda()#1}::operator()() const::{lambda()#37}>, void ()>::destroy_deallocate()
PUBLIC 56bb8 0 std::__ndk1::__function::__func<hook62<(anonymous namespace)::hook62Parent>::init(LevelEditorLayer*)::{lambda()#1}::operator()() const::{lambda()#37}, std::__ndk1::allocator<hook62<(anonymous namespace)::hook62Parent>::init(LevelEditorLayer*)::{lambda()#1}::operator()() const::{lambda()#37}>, void ()>::operator()()
PUBLIC 56ccc 0 std::__ndk1::__function::__func<hook62<(anonymous namespace)::hook62Parent>::init(LevelEditorLayer*)::{lambda()#1}::operator()() const::{lambda()#37}, std::__ndk1::allocator<hook62<(anonymous namespace)::hook62Parent>::init(LevelEditorLayer*)::{lambda()#1}::operator()() const::{lambda()#37}>, void ()>::target(std::type_info const&) const
PUBLIC 56ce8 0 std::__ndk1::__function::__func<hook62<(anonymous namespace)::hook62Parent>::init(LevelEditorLayer*)::{lambda()#1}::operator()() const::{lambda()#37}, std::__ndk1::allocator<hook62<(anonymous namespace)::hook62Parent>::init(LevelEditorLayer*)::{lambda()#1}::operator()() const::{lambda()#37}>, void ()>::target_type() const
PUBLIC 56cf4 0 std::__ndk1::__function::__func<hook62<(anonymous namespace)::hook62Parent>::init(LevelEditorLayer*)::{lambda()#1}::operator()() const::{lambda()#38}, std::__ndk1::allocator<hook62<(anonymous namespace)::hook62Parent>::init(LevelEditorLayer*)::{lambda()#1}::operator()() const::{lambda()#38}>, void ()>::~__func()
PUBLIC 56cf8 0 std::__ndk1::__function::__func<hook62<(anonymous namespace)::hook62Parent>::init(LevelEditorLayer*)::{lambda()#1}::operator()() const::{lambda()#38}, std::__ndk1::allocator<hook62<(anonymous namespace)::hook62Parent>::init(LevelEditorLayer*)::{lambda()#1}::operator()() const::{lambda()#38}>, void ()>::__clone() const
PUBLIC 56d2c 0 std::__ndk1::__function::__func<hook62<(anonymous namespace)::hook62Parent>::init(LevelEditorLayer*)::{lambda()#1}::operator()() const::{lambda()#38}, std::__ndk1::allocator<hook62<(anonymous namespace)::hook62Parent>::init(LevelEditorLayer*)::{lambda()#1}::operator()() const::{lambda()#38}>, void ()>::__clone(std::__ndk1::__function::__base<void ()>*) const
PUBLIC 56d40 0 std::__ndk1::__function::__func<hook62<(anonymous namespace)::hook62Parent>::init(LevelEditorLayer*)::{lambda()#1}::operator()() const::{lambda()#38}, std::__ndk1::allocator<hook62<(anonymous namespace)::hook62Parent>::init(LevelEditorLayer*)::{lambda()#1}::operator()() const::{lambda()#38}>, void ()>::destroy()
PUBLIC 56d44 0 std::__ndk1::__function::__func<hook62<(anonymous namespace)::hook62Parent>::init(LevelEditorLayer*)::{lambda()#1}::operator()() const::{lambda()#38}, std::__ndk1::allocator<hook62<(anonymous namespace)::hook62Parent>::init(LevelEditorLayer*)::{lambda()#1}::operator()() const::{lambda()#38}>, void ()>::destroy_deallocate()
PUBLIC 56d48 0 std::__ndk1::__function::__func<hook62<(anonymous namespace)::hook62Parent>::init(LevelEditorLayer*)::{lambda()#1}::operator()() const::{lambda()#38}, std::__ndk1::allocator<hook62<(anonymous namespace)::hook62Parent>::init(LevelEditorLayer*)::{lambda()#1}::operator()() const::{lambda()#38}>, void ()>::operator()()
PUBLIC 56e5c 0 std::__ndk1::__function::__func<hook62<(anonymous namespace)::hook62Parent>::init(LevelEditorLayer*)::{lambda()#1}::operator()() const::{lambda()#38}, std::__ndk1::allocator<hook62<(anonymous namespace)::hook62Parent>::init(LevelEditorLayer*)::{lambda()#1}::operator()() const::{lambda()#38}>, void ()>::target(std::type_info const&) const
PUBLIC 56e78 0 std::__ndk1::__function::__func<hook62<(anonymous namespace)::hook62Parent>::init(LevelEditorLayer*)::{lambda()#1}::operator()() const::{lambda()#38}, std::__ndk1::allocator<hook62<(anonymous namespace)::hook62Parent>::init(LevelEditorLayer*)::{lambda()#1}::operator()() const::{lambda()#38}>, void ()>::target_type() const
PUBLIC 56e84 0 std::__ndk1::__function::__func<hook62<(anonymous namespace)::hook62Parent>::init(LevelEditorLayer*)::{lambda()#1}::operator()() const::{lambda()#39}, std::__ndk1::allocator<hook62<(anonymous namespace)::hook62Parent>::init(LevelEditorLayer*)::{lambda()#1}::operator()() const::{lambda()#39}>, void ()>::~__func()
PUBLIC 56e88 0 std::__ndk1::__function::__func<hook62<(anonymous namespace)::hook62Parent>::init(LevelEditorLayer*)::{lambda()#1}::operator()() const::{lambda()#39}, std::__ndk1::allocator<hook62<(anonymous namespace)::hook62Parent>::init(LevelEditorLayer*)::{lambda()#1}::operator()() const::{lambda()#39}>, void ()>::__clone() const
PUBLIC 56ebc 0 std::__ndk1::__function::__func<hook62<(anonymous namespace)::hook62Parent>::init(LevelEditorLayer*)::{lambda()#1}::operator()() const::{lambda()#39}, std::__ndk1::allocator<hook62<(anonymous namespace)::hook62Parent>::init(LevelEditorLayer*)::{lambda()#1}::operator()() const::{lambda()#39}>, void ()>::__clone(std::__ndk1::__function::__base<void ()>*) const
PUBLIC 56ed0 0 std::__ndk1::__function::__func<hook62<(anonymous namespace)::hook62Parent>::init(LevelEditorLayer*)::{lambda()#1}::operator()() const::{lambda()#39}, std::__ndk1::allocator<hook62<(anonymous namespace)::hook62Parent>::init(LevelEditorLayer*)::{lambda()#1}::operator()() const::{lambda()#39}>, void ()>::destroy()
PUBLIC 56ed4 0 std::__ndk1::__function::__func<hook62<(anonymous namespace)::hook62Parent>::init(LevelEditorLayer*)::{lambda()#1}::operator()() const::{lambda()#39}, std::__ndk1::allocator<hook62<(anonymous namespace)::hook62Parent>::init(LevelEditorLayer*)::{lambda()#1}::operator()() const::{lambda()#39}>, void ()>::destroy_deallocate()
PUBLIC 56ed8 0 std::__ndk1::__function::__func<hook62<(anonymous namespace)::hook62Parent>::init(LevelEditorLayer*)::{lambda()#1}::operator()() const::{lambda()#39}, std::__ndk1::allocator<hook62<(anonymous namespace)::hook62Parent>::init(LevelEditorLayer*)::{lambda()#1}::operator()() const::{lambda()#39}>, void ()>::operator()()
PUBLIC 56fec 0 std::__ndk1::__function::__func<hook62<(anonymous namespace)::hook62Parent>::init(LevelEditorLayer*)::{lambda()#1}::operator()() const::{lambda()#39}, std::__ndk1::allocator<hook62<(anonymous namespace)::hook62Parent>::init(LevelEditorLayer*)::{lambda()#1}::operator()() const::{lambda()#39}>, void ()>::target(std::type_info const&) const
PUBLIC 57008 0 std::__ndk1::__function::__func<hook62<(anonymous namespace)::hook62Parent>::init(LevelEditorLayer*)::{lambda()#1}::operator()() const::{lambda()#39}, std::__ndk1::allocator<hook62<(anonymous namespace)::hook62Parent>::init(LevelEditorLayer*)::{lambda()#1}::operator()() const::{lambda()#39}>, void ()>::target_type() const
PUBLIC 57014 0 std::__ndk1::__function::__func<hook62<(anonymous namespace)::hook62Parent>::init(LevelEditorLayer*)::{lambda()#1}::operator()() const::{lambda()#40}, std::__ndk1::allocator<hook62<(anonymous namespace)::hook62Parent>::init(LevelEditorLayer*)::{lambda()#1}::operator()() const::{lambda()#40}>, void ()>::~__func()
PUBLIC 57018 0 std::__ndk1::__function::__func<hook62<(anonymous namespace)::hook62Parent>::init(LevelEditorLayer*)::{lambda()#1}::operator()() const::{lambda()#40}, std::__ndk1::allocator<hook62<(anonymous namespace)::hook62Parent>::init(LevelEditorLayer*)::{lambda()#1}::operator()() const::{lambda()#40}>, void ()>::__clone() const
PUBLIC 5704c 0 std::__ndk1::__function::__func<hook62<(anonymous namespace)::hook62Parent>::init(LevelEditorLayer*)::{lambda()#1}::operator()() const::{lambda()#40}, std::__ndk1::allocator<hook62<(anonymous namespace)::hook62Parent>::init(LevelEditorLayer*)::{lambda()#1}::operator()() const::{lambda()#40}>, void ()>::__clone(std::__ndk1::__function::__base<void ()>*) const
PUBLIC 57060 0 std::__ndk1::__function::__func<hook62<(anonymous namespace)::hook62Parent>::init(LevelEditorLayer*)::{lambda()#1}::operator()() const::{lambda()#40}, std::__ndk1::allocator<hook62<(anonymous namespace)::hook62Parent>::init(LevelEditorLayer*)::{lambda()#1}::operator()() const::{lambda()#40}>, void ()>::destroy()
PUBLIC 57064 0 std::__ndk1::__function::__func<hook62<(anonymous namespace)::hook62Parent>::init(LevelEditorLayer*)::{lambda()#1}::operator()() const::{lambda()#40}, std::__ndk1::allocator<hook62<(anonymous namespace)::hook62Parent>::init(LevelEditorLayer*)::{lambda()#1}::operator()() const::{lambda()#40}>, void ()>::destroy_deallocate()
PUBLIC 57068 0 std::__ndk1::__function::__func<hook62<(anonymous namespace)::hook62Parent>::init(LevelEditorLayer*)::{lambda()#1}::operator()() const::{lambda()#40}, std::__ndk1::allocator<hook62<(anonymous namespace)::hook62Parent>::init(LevelEditorLayer*)::{lambda()#1}::operator()() const::{lambda()#40}>, void ()>::operator()()
PUBLIC 5717c 0 std::__ndk1::__function::__func<hook62<(anonymous namespace)::hook62Parent>::init(LevelEditorLayer*)::{lambda()#1}::operator()() const::{lambda()#40}, std::__ndk1::allocator<hook62<(anonymous namespace)::hook62Parent>::init(LevelEditorLayer*)::{lambda()#1}::operator()() const::{lambda()#40}>, void ()>::target(std::type_info const&) const
PUBLIC 57198 0 std::__ndk1::__function::__func<hook62<(anonymous namespace)::hook62Parent>::init(LevelEditorLayer*)::{lambda()#1}::operator()() const::{lambda()#40}, std::__ndk1::allocator<hook62<(anonymous namespace)::hook62Parent>::init(LevelEditorLayer*)::{lambda()#1}::operator()() const::{lambda()#40}>, void ()>::target_type() const
PUBLIC 571a4 0 std::__ndk1::__function::__func<hook62<(anonymous namespace)::hook62Parent>::init(LevelEditorLayer*)::{lambda()#1}::operator()() const::{lambda()#41}, std::__ndk1::allocator<hook62<(anonymous namespace)::hook62Parent>::init(LevelEditorLayer*)::{lambda()#1}::operator()() const::{lambda()#41}>, void ()>::~__func()
PUBLIC 571a8 0 std::__ndk1::__function::__func<hook62<(anonymous namespace)::hook62Parent>::init(LevelEditorLayer*)::{lambda()#1}::operator()() const::{lambda()#41}, std::__ndk1::allocator<hook62<(anonymous namespace)::hook62Parent>::init(LevelEditorLayer*)::{lambda()#1}::operator()() const::{lambda()#41}>, void ()>::__clone() const
PUBLIC 571dc 0 std::__ndk1::__function::__func<hook62<(anonymous namespace)::hook62Parent>::init(LevelEditorLayer*)::{lambda()#1}::operator()() const::{lambda()#41}, std::__ndk1::allocator<hook62<(anonymous namespace)::hook62Parent>::init(LevelEditorLayer*)::{lambda()#1}::operator()() const::{lambda()#41}>, void ()>::__clone(std::__ndk1::__function::__base<void ()>*) const
PUBLIC 571f0 0 std::__ndk1::__function::__func<hook62<(anonymous namespace)::hook62Parent>::init(LevelEditorLayer*)::{lambda()#1}::operator()() const::{lambda()#41}, std::__ndk1::allocator<hook62<(anonymous namespace)::hook62Parent>::init(LevelEditorLayer*)::{lambda()#1}::operator()() const::{lambda()#41}>, void ()>::destroy()
PUBLIC 571f4 0 std::__ndk1::__function::__func<hook62<(anonymous namespace)::hook62Parent>::init(LevelEditorLayer*)::{lambda()#1}::operator()() const::{lambda()#41}, std::__ndk1::allocator<hook62<(anonymous namespace)::hook62Parent>::init(LevelEditorLayer*)::{lambda()#1}::operator()() const::{lambda()#41}>, void ()>::destroy_deallocate()
PUBLIC 571f8 0 std::__ndk1::__function::__func<hook62<(anonymous namespace)::hook62Parent>::init(LevelEditorLayer*)::{lambda()#1}::operator()() const::{lambda()#41}, std::__ndk1::allocator<hook62<(anonymous namespace)::hook62Parent>::init(LevelEditorLayer*)::{lambda()#1}::operator()() const::{lambda()#41}>, void ()>::operator()()
PUBLIC 5730c 0 std::__ndk1::__function::__func<hook62<(anonymous namespace)::hook62Parent>::init(LevelEditorLayer*)::{lambda()#1}::operator()() const::{lambda()#41}, std::__ndk1::allocator<hook62<(anonymous namespace)::hook62Parent>::init(LevelEditorLayer*)::{lambda()#1}::operator()() const::{lambda()#41}>, void ()>::target(std::type_info const&) const
PUBLIC 57328 0 std::__ndk1::__function::__func<hook62<(anonymous namespace)::hook62Parent>::init(LevelEditorLayer*)::{lambda()#1}::operator()() const::{lambda()#41}, std::__ndk1::allocator<hook62<(anonymous namespace)::hook62Parent>::init(LevelEditorLayer*)::{lambda()#1}::operator()() const::{lambda()#41}>, void ()>::target_type() const
PUBLIC 57334 0 std::__ndk1::__function::__func<hook62<(anonymous namespace)::hook62Parent>::init(LevelEditorLayer*)::{lambda()#1}::operator()() const::{lambda()#42}, std::__ndk1::allocator<hook62<(anonymous namespace)::hook62Parent>::init(LevelEditorLayer*)::{lambda()#1}::operator()() const::{lambda()#42}>, void ()>::~__func()
PUBLIC 57338 0 std::__ndk1::__function::__func<hook62<(anonymous namespace)::hook62Parent>::init(LevelEditorLayer*)::{lambda()#1}::operator()() const::{lambda()#42}, std::__ndk1::allocator<hook62<(anonymous namespace)::hook62Parent>::init(LevelEditorLayer*)::{lambda()#1}::operator()() const::{lambda()#42}>, void ()>::__clone() const
PUBLIC 5736c 0 std::__ndk1::__function::__func<hook62<(anonymous namespace)::hook62Parent>::init(LevelEditorLayer*)::{lambda()#1}::operator()() const::{lambda()#42}, std::__ndk1::allocator<hook62<(anonymous namespace)::hook62Parent>::init(LevelEditorLayer*)::{lambda()#1}::operator()() const::{lambda()#42}>, void ()>::__clone(std::__ndk1::__function::__base<void ()>*) const
PUBLIC 57380 0 std::__ndk1::__function::__func<hook62<(anonymous namespace)::hook62Parent>::init(LevelEditorLayer*)::{lambda()#1}::operator()() const::{lambda()#42}, std::__ndk1::allocator<hook62<(anonymous namespace)::hook62Parent>::init(LevelEditorLayer*)::{lambda()#1}::operator()() const::{lambda()#42}>, void ()>::destroy()
PUBLIC 57384 0 std::__ndk1::__function::__func<hook62<(anonymous namespace)::hook62Parent>::init(LevelEditorLayer*)::{lambda()#1}::operator()() const::{lambda()#42}, std::__ndk1::allocator<hook62<(anonymous namespace)::hook62Parent>::init(LevelEditorLayer*)::{lambda()#1}::operator()() const::{lambda()#42}>, void ()>::destroy_deallocate()
PUBLIC 57388 0 std::__ndk1::__function::__func<hook62<(anonymous namespace)::hook62Parent>::init(LevelEditorLayer*)::{lambda()#1}::operator()() const::{lambda()#42}, std::__ndk1::allocator<hook62<(anonymous namespace)::hook62Parent>::init(LevelEditorLayer*)::{lambda()#1}::operator()() const::{lambda()#42}>, void ()>::operator()()
PUBLIC 5749c 0 std::__ndk1::__function::__func<hook62<(anonymous namespace)::hook62Parent>::init(LevelEditorLayer*)::{lambda()#1}::operator()() const::{lambda()#42}, std::__ndk1::allocator<hook62<(anonymous namespace)::hook62Parent>::init(LevelEditorLayer*)::{lambda()#1}::operator()() const::{lambda()#42}>, void ()>::target(std::type_info const&) const
PUBLIC 574b8 0 std::__ndk1::__function::__func<hook62<(anonymous namespace)::hook62Parent>::init(LevelEditorLayer*)::{lambda()#1}::operator()() const::{lambda()#42}, std::__ndk1::allocator<hook62<(anonymous namespace)::hook62Parent>::init(LevelEditorLayer*)::{lambda()#1}::operator()() const::{lambda()#42}>, void ()>::target_type() const
PUBLIC 574c4 0 std::__ndk1::__function::__func<hook62<(anonymous namespace)::hook62Parent>::init(LevelEditorLayer*)::{lambda()#1}::operator()() const::{lambda()#43}, std::__ndk1::allocator<hook62<(anonymous namespace)::hook62Parent>::init(LevelEditorLayer*)::{lambda()#1}::operator()() const::{lambda()#43}>, void ()>::~__func()
PUBLIC 574c8 0 std::__ndk1::__function::__func<hook62<(anonymous namespace)::hook62Parent>::init(LevelEditorLayer*)::{lambda()#1}::operator()() const::{lambda()#43}, std::__ndk1::allocator<hook62<(anonymous namespace)::hook62Parent>::init(LevelEditorLayer*)::{lambda()#1}::operator()() const::{lambda()#43}>, void ()>::__clone() const
PUBLIC 574fc 0 std::__ndk1::__function::__func<hook62<(anonymous namespace)::hook62Parent>::init(LevelEditorLayer*)::{lambda()#1}::operator()() const::{lambda()#43}, std::__ndk1::allocator<hook62<(anonymous namespace)::hook62Parent>::init(LevelEditorLayer*)::{lambda()#1}::operator()() const::{lambda()#43}>, void ()>::__clone(std::__ndk1::__function::__base<void ()>*) const
PUBLIC 57510 0 std::__ndk1::__function::__func<hook62<(anonymous namespace)::hook62Parent>::init(LevelEditorLayer*)::{lambda()#1}::operator()() const::{lambda()#43}, std::__ndk1::allocator<hook62<(anonymous namespace)::hook62Parent>::init(LevelEditorLayer*)::{lambda()#1}::operator()() const::{lambda()#43}>, void ()>::destroy()
PUBLIC 57514 0 std::__ndk1::__function::__func<hook62<(anonymous namespace)::hook62Parent>::init(LevelEditorLayer*)::{lambda()#1}::operator()() const::{lambda()#43}, std::__ndk1::allocator<hook62<(anonymous namespace)::hook62Parent>::init(LevelEditorLayer*)::{lambda()#1}::operator()() const::{lambda()#43}>, void ()>::destroy_deallocate()
PUBLIC 57518 0 std::__ndk1::__function::__func<hook62<(anonymous namespace)::hook62Parent>::init(LevelEditorLayer*)::{lambda()#1}::operator()() const::{lambda()#43}, std::__ndk1::allocator<hook62<(anonymous namespace)::hook62Parent>::init(LevelEditorLayer*)::{lambda()#1}::operator()() const::{lambda()#43}>, void ()>::operator()()
PUBLIC 5762c 0 std::__ndk1::__function::__func<hook62<(anonymous namespace)::hook62Parent>::init(LevelEditorLayer*)::{lambda()#1}::operator()() const::{lambda()#43}, std::__ndk1::allocator<hook62<(anonymous namespace)::hook62Parent>::init(LevelEditorLayer*)::{lambda()#1}::operator()() const::{lambda()#43}>, void ()>::target(std::type_info const&) const
PUBLIC 57648 0 std::__ndk1::__function::__func<hook62<(anonymous namespace)::hook62Parent>::init(LevelEditorLayer*)::{lambda()#1}::operator()() const::{lambda()#43}, std::__ndk1::allocator<hook62<(anonymous namespace)::hook62Parent>::init(LevelEditorLayer*)::{lambda()#1}::operator()() const::{lambda()#43}>, void ()>::target_type() const
PUBLIC 57654 0 std::__ndk1::__function::__func<hook62<(anonymous namespace)::hook62Parent>::init(LevelEditorLayer*)::{lambda()#1}::operator()() const::{lambda()#44}, std::__ndk1::allocator<hook62<(anonymous namespace)::hook62Parent>::init(LevelEditorLayer*)::{lambda()#1}::operator()() const::{lambda()#44}>, void ()>::~__func()
PUBLIC 57658 0 std::__ndk1::__function::__func<hook62<(anonymous namespace)::hook62Parent>::init(LevelEditorLayer*)::{lambda()#1}::operator()() const::{lambda()#44}, std::__ndk1::allocator<hook62<(anonymous namespace)::hook62Parent>::init(LevelEditorLayer*)::{lambda()#1}::operator()() const::{lambda()#44}>, void ()>::__clone() const
PUBLIC 57690 0 std::__ndk1::__function::__func<hook62<(anonymous namespace)::hook62Parent>::init(LevelEditorLayer*)::{lambda()#1}::operator()() const::{lambda()#44}, std::__ndk1::allocator<hook62<(anonymous namespace)::hook62Parent>::init(LevelEditorLayer*)::{lambda()#1}::operator()() const::{lambda()#44}>, void ()>::__clone(std::__ndk1::__function::__base<void ()>*) const
PUBLIC 576a8 0 std::__ndk1::__function::__func<hook62<(anonymous namespace)::hook62Parent>::init(LevelEditorLayer*)::{lambda()#1}::operator()() const::{lambda()#44}, std::__ndk1::allocator<hook62<(anonymous namespace)::hook62Parent>::init(LevelEditorLayer*)::{lambda()#1}::operator()() const::{lambda()#44}>, void ()>::destroy()
PUBLIC 576ac 0 std::__ndk1::__function::__func<hook62<(anonymous namespace)::hook62Parent>::init(LevelEditorLayer*)::{lambda()#1}::operator()() const::{lambda()#44}, std::__ndk1::allocator<hook62<(anonymous namespace)::hook62Parent>::init(LevelEditorLayer*)::{lambda()#1}::operator()() const::{lambda()#44}>, void ()>::destroy_deallocate()
PUBLIC 576b0 0 std::__ndk1::__function::__func<hook62<(anonymous namespace)::hook62Parent>::init(LevelEditorLayer*)::{lambda()#1}::operator()() const::{lambda()#44}, std::__ndk1::allocator<hook62<(anonymous namespace)::hook62Parent>::init(LevelEditorLayer*)::{lambda()#1}::operator()() const::{lambda()#44}>, void ()>::operator()()
PUBLIC 577c8 0 std::__ndk1::__function::__func<hook62<(anonymous namespace)::hook62Parent>::init(LevelEditorLayer*)::{lambda()#1}::operator()() const::{lambda()#44}, std::__ndk1::allocator<hook62<(anonymous namespace)::hook62Parent>::init(LevelEditorLayer*)::{lambda()#1}::operator()() const::{lambda()#44}>, void ()>::target(std::type_info const&) const
PUBLIC 577e4 0 std::__ndk1::__function::__func<hook62<(anonymous namespace)::hook62Parent>::init(LevelEditorLayer*)::{lambda()#1}::operator()() const::{lambda()#44}, std::__ndk1::allocator<hook62<(anonymous namespace)::hook62Parent>::init(LevelEditorLayer*)::{lambda()#1}::operator()() const::{lambda()#44}>, void ()>::target_type() const
PUBLIC 577f0 0 std::__ndk1::__function::__base<void ()>::~__base()
PUBLIC 577f4 0 std::__ndk1::__function::__func<hook62<(anonymous namespace)::hook62Parent>::init(LevelEditorLayer*)::{lambda()#1}::operator()() const::{lambda()#45}, std::__ndk1::allocator<hook62<(anonymous namespace)::hook62Parent>::init(LevelEditorLayer*)::{lambda()#1}::operator()() const::{lambda()#45}>, void ()>::~__func()
PUBLIC 577f8 0 std::__ndk1::__function::__func<hook62<(anonymous namespace)::hook62Parent>::init(LevelEditorLayer*)::{lambda()#1}::operator()() const::{lambda()#45}, std::__ndk1::allocator<hook62<(anonymous namespace)::hook62Parent>::init(LevelEditorLayer*)::{lambda()#1}::operator()() const::{lambda()#45}>, void ()>::__clone() const
PUBLIC 57830 0 std::__ndk1::__function::__func<hook62<(anonymous namespace)::hook62Parent>::init(LevelEditorLayer*)::{lambda()#1}::operator()() const::{lambda()#45}, std::__ndk1::allocator<hook62<(anonymous namespace)::hook62Parent>::init(LevelEditorLayer*)::{lambda()#1}::operator()() const::{lambda()#45}>, void ()>::__clone(std::__ndk1::__function::__base<void ()>*) const
PUBLIC 57848 0 std::__ndk1::__function::__func<hook62<(anonymous namespace)::hook62Parent>::init(LevelEditorLayer*)::{lambda()#1}::operator()() const::{lambda()#45}, std::__ndk1::allocator<hook62<(anonymous namespace)::hook62Parent>::init(LevelEditorLayer*)::{lambda()#1}::operator()() const::{lambda()#45}>, void ()>::destroy()
PUBLIC 5784c 0 std::__ndk1::__function::__func<hook62<(anonymous namespace)::hook62Parent>::init(LevelEditorLayer*)::{lambda()#1}::operator()() const::{lambda()#45}, std::__ndk1::allocator<hook62<(anonymous namespace)::hook62Parent>::init(LevelEditorLayer*)::{lambda()#1}::operator()() const::{lambda()#45}>, void ()>::destroy_deallocate()
PUBLIC 57850 0 std::__ndk1::__function::__func<hook62<(anonymous namespace)::hook62Parent>::init(LevelEditorLayer*)::{lambda()#1}::operator()() const::{lambda()#45}, std::__ndk1::allocator<hook62<(anonymous namespace)::hook62Parent>::init(LevelEditorLayer*)::{lambda()#1}::operator()() const::{lambda()#45}>, void ()>::operator()()
PUBLIC 57968 0 std::__ndk1::__function::__func<hook62<(anonymous namespace)::hook62Parent>::init(LevelEditorLayer*)::{lambda()#1}::operator()() const::{lambda()#45}, std::__ndk1::allocator<hook62<(anonymous namespace)::hook62Parent>::init(LevelEditorLayer*)::{lambda()#1}::operator()() const::{lambda()#45}>, void ()>::target(std::type_info const&) const
PUBLIC 57984 0 std::__ndk1::__function::__func<hook62<(anonymous namespace)::hook62Parent>::init(LevelEditorLayer*)::{lambda()#1}::operator()() const::{lambda()#45}, std::__ndk1::allocator<hook62<(anonymous namespace)::hook62Parent>::init(LevelEditorLayer*)::{lambda()#1}::operator()() const::{lambda()#45}>, void ()>::target_type() const
PUBLIC 57990 0 std::__ndk1::__function::__base<void (bool)>::~__base()
PUBLIC 57994 0 std::__ndk1::__function::__func<hook62<(anonymous namespace)::hook62Parent>::init(LevelEditorLayer*)::{lambda()#1}::operator()() const::{lambda(bool)#7}, std::__ndk1::allocator<hook62<(anonymous namespace)::hook62Parent>::init(LevelEditorLayer*)::{lambda()#1}::operator()() const::{lambda(bool)#7}>, void (bool)>::~__func()
PUBLIC 57998 0 std::__ndk1::__function::__func<hook62<(anonymous namespace)::hook62Parent>::init(LevelEditorLayer*)::{lambda()#1}::operator()() const::{lambda(bool)#7}, std::__ndk1::allocator<hook62<(anonymous namespace)::hook62Parent>::init(LevelEditorLayer*)::{lambda()#1}::operator()() const::{lambda(bool)#7}>, void (bool)>::__clone() const
PUBLIC 579d0 0 std::__ndk1::__function::__func<hook62<(anonymous namespace)::hook62Parent>::init(LevelEditorLayer*)::{lambda()#1}::operator()() const::{lambda(bool)#7}, std::__ndk1::allocator<hook62<(anonymous namespace)::hook62Parent>::init(LevelEditorLayer*)::{lambda()#1}::operator()() const::{lambda(bool)#7}>, void (bool)>::__clone(std::__ndk1::__function::__base<void (bool)>*) const
PUBLIC 579e8 0 std::__ndk1::__function::__func<hook62<(anonymous namespace)::hook62Parent>::init(LevelEditorLayer*)::{lambda()#1}::operator()() const::{lambda(bool)#7}, std::__ndk1::allocator<hook62<(anonymous namespace)::hook62Parent>::init(LevelEditorLayer*)::{lambda()#1}::operator()() const::{lambda(bool)#7}>, void (bool)>::destroy()
PUBLIC 579ec 0 std::__ndk1::__function::__func<hook62<(anonymous namespace)::hook62Parent>::init(LevelEditorLayer*)::{lambda()#1}::operator()() const::{lambda(bool)#7}, std::__ndk1::allocator<hook62<(anonymous namespace)::hook62Parent>::init(LevelEditorLayer*)::{lambda()#1}::operator()() const::{lambda(bool)#7}>, void (bool)>::destroy_deallocate()
PUBLIC 579f0 0 std::__ndk1::__function::__func<hook62<(anonymous namespace)::hook62Parent>::init(LevelEditorLayer*)::{lambda()#1}::operator()() const::{lambda(bool)#7}, std::__ndk1::allocator<hook62<(anonymous namespace)::hook62Parent>::init(LevelEditorLayer*)::{lambda()#1}::operator()() const::{lambda(bool)#7}>, void (bool)>::operator()(bool&&)
PUBLIC 57a38 0 std::__ndk1::__function::__func<hook62<(anonymous namespace)::hook62Parent>::init(LevelEditorLayer*)::{lambda()#1}::operator()() const::{lambda(bool)#7}, std::__ndk1::allocator<hook62<(anonymous namespace)::hook62Parent>::init(LevelEditorLayer*)::{lambda()#1}::operator()() const::{lambda(bool)#7}>, void (bool)>::target(std::type_info const&) const
PUBLIC 57a54 0 std::__ndk1::__function::__func<hook62<(anonymous namespace)::hook62Parent>::init(LevelEditorLayer*)::{lambda()#1}::operator()() const::{lambda(bool)#7}, std::__ndk1::allocator<hook62<(anonymous namespace)::hook62Parent>::init(LevelEditorLayer*)::{lambda()#1}::operator()() const::{lambda(bool)#7}>, void (bool)>::target_type() const
PUBLIC 57a60 0 geode::addresser::Addresser::addressOfVirtual<void, EditorUI, cocos2d::enumKeyCodes>(void (EditorUI::*)(cocos2d::enumKeyCodes))
PUBLIC 57b4c 0 EditorUI::EditorUI(geode::ZeroConstructorType)
PUBLIC 57c0c 0 geode::Ref<keybinds::Bind>::~Ref()
PUBLIC m 57c2c 0 keybinds::BindableAction::~BindableAction()
PUBLIC 57cf0 0 std::__ndk1::vector<geode::Ref<keybinds::Bind>, std::__ndk1::allocator<geode::Ref<keybinds::Bind> > >::~vector[abi:ne180000]()
PUBLIC 57d74 0 std::__ndk1::__exception_guard_exceptions<std::__ndk1::vector<geode::Ref<keybinds::Bind>, std::__ndk1::allocator<geode::Ref<keybinds::Bind> > >::__destroy_vector>::~__exception_guard_exceptions[abi:ne180000]()
PUBLIC 57e08 0 std::__ndk1::__exception_guard_exceptions<std::__ndk1::_AllocatorDestroyRangeReverse<std::__ndk1::allocator<geode::Ref<keybinds::Bind> >, geode::Ref<keybinds::Bind>*> >::~__exception_guard_exceptions[abi:ne180000]()
PUBLIC m 57e50 0 keybinds::Keybind::create(cocos2d::enumKeyCodes, keybinds::Modifier)
PUBLIC m 57f0c 0 keybinds::Keybind::parse(matjson::Value const&)
PUBLIC m 57ffc 0 keybinds::Keybind::save() const
PUBLIC 5814c 0 _ZNSt6__ndk14pairINS_12basic_stringIcNS_11char_traitsIcEENS_9allocatorIcEEEEN7matjson5ValueEEC2B8ne180000IRA4_KciTnNS_9enable_ifIXclsr10_CheckArgsE17__enable_implicitIT_T0_EEEiE4typeELi0EEEOSF_OSG_
PUBLIC 58214 0 _ZNSt6__ndk14pairINS_12basic_stringIcNS_11char_traitsIcEENS_9allocatorIcEEEEN7matjson5ValueEEC2B8ne180000IRA10_KciTnNS_9enable_ifIXclsr10_CheckArgsE17__enable_implicitIT_T0_EEEiE4typeELi0EEEOSF_OSG_
PUBLIC m 582dc 0 keybinds::Keybind::getKey() const
PUBLIC m 582e4 0 keybinds::Keybind::getModifiers() const
PUBLIC m 582ec 0 keybinds::Keybind::getHash() const
PUBLIC m 582fc 0 keybinds::Keybind::isEqual(keybinds::Bind*) const
PUBLIC m 58380 0 keybinds::Keybind::toString() const
PUBLIC m 5857c 0 keybinds::Keybind::getDeviceID() const
PUBLIC m 585cc 0 keybinds::Keybind::~Keybind()
PUBLIC m 585f0 0 keybinds::operator|=(keybinds::Modifier&, keybinds::Modifier const&)
PUBLIC m 58608 0 keybinds::operator|(keybinds::Modifier const&, keybinds::Modifier const&)
PUBLIC m 58618 0 keybinds::operator&(keybinds::Modifier const&, keybinds::Modifier const&)
PUBLIC m 5862c 0 keybinds::keyToString(cocos2d::enumKeyCodes)
PUBLIC 58920 0 std::__ndk1::basic_string<char, std::__ndk1::char_traits<char>, std::__ndk1::allocator<char> >::basic_string[abi:ne180000]<0>()
PUBLIC m 589bc 0 keybinds::keyIsModifier(cocos2d::enumKeyCodes)
PUBLIC m 589f4 0 keybinds::keyIsController(cocos2d::enumKeyCodes)
PUBLIC m 58a04 0 keybinds::mouseToString(keybinds::MouseButton)
PUBLIC m 58a94 0 keybinds::Bind::isEqual(keybinds::Bind*) const
PUBLIC m 58ad8 0 keybinds::Bind::createLabel() const
PUBLIC m 58b94 0 keybinds::Bind::createBindSprite() const
PUBLIC m 58d3c 0 keybinds::BindHash::BindHash(keybinds::Bind*)
PUBLIC m 58d50 0 keybinds::BindHash::operator==(keybinds::BindHash const&) const
PUBLIC m 58d64 0 std::__ndk1::hash<keybinds::BindHash>::operator()(keybinds::BindHash const&) const
PUBLIC m 58e2c 0 keybinds::Category::Category(char const*)
PUBLIC m 58ec8 0 keybinds::Category::Category(std::__ndk1::basic_string<char, std::__ndk1::char_traits<char>, std::__ndk1::allocator<char> > const&)
PUBLIC m 58ef0 0 keybinds::Category::getPath() const
PUBLIC m 58f80 0 keybinds::Category::getParent() const
PUBLIC m 59124 0 keybinds::Category::hasParent(keybinds::Category const&) const
PUBLIC m 59190 0 keybinds::Category::toString() const
PUBLIC m 591b8 0 keybinds::Category::operator==(keybinds::Category const&) const
PUBLIC m 59268 0 keybinds::BindableAction::getID() const
PUBLIC m 59290 0 keybinds::BindableAction::getName() const
PUBLIC m 592e0 0 keybinds::BindableAction::getDescription() const
PUBLIC m 5930c 0 keybinds::BindableAction::getMod() const
PUBLIC m 59314 0 keybinds::BindableAction::getDefaults() const
PUBLIC m 59330 0 keybinds::BindableAction::getCategory() const
PUBLIC m 5935c 0 keybinds::BindableAction::isRepeatable() const
PUBLIC m 59364 0 keybinds::BindableAction::BindableAction(std::__ndk1::basic_string<char, std::__ndk1::char_traits<char>, std::__ndk1::allocator<char> > const&, std::__ndk1::basic_string<char, std::__ndk1::char_traits<char>, std::__ndk1::allocator<char> > const&, std::__ndk1::basic_string<char, std::__ndk1::char_traits<char>, std::__ndk1::allocator<char> > const&, std::__ndk1::vector<geode::Ref<keybinds::Bind>, std::__ndk1::allocator<geode::Ref<keybinds::Bind> > > const&, keybinds::Category const&, bool, geode::Mod*)
PUBLIC m 5950c 0 keybinds::InvokeBindEvent::InvokeBindEvent(std::__ndk1::basic_string<char, std::__ndk1::char_traits<char>, std::__ndk1::allocator<char> > const&, bool)
PUBLIC m 59590 0 keybinds::InvokeBindEvent::getID() const
PUBLIC m 595bc 0 keybinds::InvokeBindEvent::isDown() const
PUBLIC m 595c4 0 keybinds::InvokeBindFilter::handle(geode::utils::MiniFunction<geode::ListenerResult(keybinds::InvokeBindEvent*)>, keybinds::InvokeBindEvent*)
PUBLIC m 597b0 0 keybinds::InvokeBindFilter::InvokeBindFilter(cocos2d::CCNode*, std::__ndk1::basic_string<char, std::__ndk1::char_traits<char>, std::__ndk1::allocator<char> > const&)
PUBLIC m 59904 0 keybinds::BindManager::get()
PUBLIC m 599b0 0 keybinds::BindManager::stopAllRepeats()
PUBLIC m 59a48 0 keybinds::PressBindEvent::PressBindEvent(keybinds::Bind*, bool)
PUBLIC m 59a64 0 keybinds::PressBindEvent::getBind() const
PUBLIC m 59a6c 0 keybinds::PressBindEvent::isDown() const
PUBLIC m 59a74 0 keybinds::PressBindFilter::handle(geode::utils::MiniFunction<geode::ListenerResult(keybinds::PressBindEvent*)>, keybinds::PressBindEvent*)
PUBLIC m 59b34 0 keybinds::PressBindFilter::PressBindFilter()
PUBLIC m 59b3c 0 keybinds::DeviceEvent::DeviceEvent(std::__ndk1::basic_string<char, std::__ndk1::char_traits<char>, std::__ndk1::allocator<char> > const&, bool)
PUBLIC m 59bc0 0 keybinds::DeviceEvent::getID() const
PUBLIC m 59bec 0 keybinds::DeviceEvent::wasAttached() const
PUBLIC m 59bf4 0 keybinds::DeviceEvent::wasDetached() const
PUBLIC m 59c04 0 keybinds::DeviceFilter::handle(geode::utils::MiniFunction<void (keybinds::DeviceEvent*)>, keybinds::DeviceEvent*)
PUBLIC m 59dd8 0 keybinds::DeviceFilter::DeviceFilter(std::__ndk1::optional<std::__ndk1::basic_string<char, std::__ndk1::char_traits<char>, std::__ndk1::allocator<char> > >)
PUBLIC m 59e6c 0 keybinds::BindManager::BindManager()
PUBLIC m 5a240 0 keybinds::BindManager::onDispatch(keybinds::PressBindEvent*)
PUBLIC 5a548 0 geode::EventListener<keybinds::PressBindFilter>::EventListener<keybinds::BindManager>(geode::to_member<keybinds::BindManager, geode::ListenerResult(keybinds::PressBindEvent*)>::value, keybinds::PressBindFilter)
PUBLIC m 5a664 0 keybinds::BindManager::addCategory(keybinds::Category const&)
PUBLIC m 5a8fc 0 keybinds::BindManager::attachDevice(std::__ndk1::basic_string<char, std::__ndk1::char_traits<char>, std::__ndk1::allocator<char> > const&, std::__ndk1::function<keybinds::Bind* (matjson::Value const&)>)
PUBLIC 5abe4 0 std::__ndk1::unordered_map<std::__ndk1::basic_string<char, std::__ndk1::char_traits<char>, std::__ndk1::allocator<char> >, float, std::__ndk1::hash<std::__ndk1::basic_string<char, std::__ndk1::char_traits<char>, std::__ndk1::allocator<char> > >, std::__ndk1::equal_to<std::__ndk1::basic_string<char, std::__ndk1::char_traits<char>, std::__ndk1::allocator<char> > >, std::__ndk1::allocator<std::__ndk1::pair<std::__ndk1::basic_string<char, std::__ndk1::char_traits<char>, std::__ndk1::allocator<char> > const, float> > >::~unordered_map[abi:ne180000]()
PUBLIC 5ac54 0 geode::EventListener<keybinds::PressBindFilter>::~EventListener()
PUBLIC 5ac98 0 std::__ndk1::vector<keybinds::Category, std::__ndk1::allocator<keybinds::Category> >::~vector[abi:ne180000]()
PUBLIC 5ad14 0 std::__ndk1::vector<std::__ndk1::pair<std::__ndk1::basic_string<char, std::__ndk1::char_traits<char>, std::__ndk1::allocator<char> >, keybinds::BindManager::ActionData>, std::__ndk1::allocator<std::__ndk1::pair<std::__ndk1::basic_string<char, std::__ndk1::char_traits<char>, std::__ndk1::allocator<char> >, keybinds::BindManager::ActionData> > >::~vector[abi:ne180000]()
PUBLIC 5ad98 0 std::__ndk1::unordered_map<std::__ndk1::basic_string<char, std::__ndk1::char_traits<char>, std::__ndk1::allocator<char> >, std::__ndk1::function<keybinds::Bind* (matjson::Value const&)>, std::__ndk1::hash<std::__ndk1::basic_string<char, std::__ndk1::char_traits<char>, std::__ndk1::allocator<char> > >, std::__ndk1::equal_to<std::__ndk1::basic_string<char, std::__ndk1::char_traits<char>, std::__ndk1::allocator<char> > >, std::__ndk1::allocator<std::__ndk1::pair<std::__ndk1::basic_string<char, std::__ndk1::char_traits<char>, std::__ndk1::allocator<char> > const, std::__ndk1::function<keybinds::Bind* (matjson::Value const&)> > > >::~unordered_map[abi:ne180000]()
PUBLIC 5ae38 0 std::__ndk1::unordered_map<std::__ndk1::basic_string<char, std::__ndk1::char_traits<char>, std::__ndk1::allocator<char> >, std::__ndk1::unordered_map<std::__ndk1::basic_string<char, std::__ndk1::char_traits<char>, std::__ndk1::allocator<char> >, std::__ndk1::set<matjson::Value, std::__ndk1::less<matjson::Value>, std::__ndk1::allocator<matjson::Value> >, std::__ndk1::hash<std::__ndk1::basic_string<char, std::__ndk1::char_traits<char>, std::__ndk1::allocator<char> > >, std::__ndk1::equal_to<std::__ndk1::basic_string<char, std::__ndk1::char_traits<char>, std::__ndk1::allocator<char> > >, std::__ndk1::allocator<std::__ndk1::pair<std::__ndk1::basic_string<char, std::__ndk1::char_traits<char>, std::__ndk1::allocator<char> > const, std::__ndk1::set<matjson::Value, std::__ndk1::less<matjson::Value>, std::__ndk1::allocator<matjson::Value> > > > >, std::__ndk1::hash<std::__ndk1::basic_string<char, std::__ndk1::char_traits<char>, std::__ndk1::allocator<char> > >, std::__ndk1::equal_to<std::__ndk1::basic_string<char, std::__ndk1::char_traits<char>, std::__ndk1::allocator<char> > >, std::__ndk1::allocator<std::__ndk1::pair<std::__ndk1::basic_string<char, std::__ndk1::char_traits<char>, std::__ndk1::allocator<char> > const, std::__ndk1::unordered_map<std::__ndk1::basic_string<char, std::__ndk1::char_traits<char>, std::__ndk1::allocator<char> >, std::__ndk1::set<matjson::Value, std::__ndk1::less<matjson::Value>, std::__ndk1::allocator<matjson::Value> >, std::__ndk1::hash<std::__ndk1::basic_string<char, std::__ndk1::char_traits<char>, std::__ndk1::allocator<char> > >, std::__ndk1::equal_to<std::__ndk1::basic_string<char, std::__ndk1::char_traits<char>, std::__ndk1::allocator<char> > >, std::__ndk1::allocator<std::__ndk1::pair<std::__ndk1::basic_string<char, std::__ndk1::char_traits<char>, std::__ndk1::allocator<char> > const, std::__ndk1::set<matjson::Value, std::__ndk1::less<matjson::Value>, std::__ndk1::allocator<matjson::Value> > > > > > > >::~unordered_map[abi:ne180000]()
PUBLIC 5ae9c 0 std::__ndk1::unordered_map<keybinds::BindHash, std::__ndk1::vector<std::__ndk1::basic_string<char, std::__ndk1::char_traits<char>, std::__ndk1::allocator<char> >, std::__ndk1::allocator<std::__ndk1::basic_string<char, std::__ndk1::char_traits<char>, std::__ndk1::allocator<char> > > >, std::__ndk1::hash<keybinds::BindHash>, std::__ndk1::equal_to<keybinds::BindHash>, std::__ndk1::allocator<std::__ndk1::pair<keybinds::BindHash const, std::__ndk1::vector<std::__ndk1::basic_string<char, std::__ndk1::char_traits<char>, std::__ndk1::allocator<char> >, std::__ndk1::allocator<std::__ndk1::basic_string<char, std::__ndk1::char_traits<char>, std::__ndk1::allocator<char> > > > > > >::~unordered_map[abi:ne180000]()
PUBLIC 5aed8 0 std::__ndk1::pair<std::__ndk1::basic_string<char, std::__ndk1::char_traits<char>, std::__ndk1::allocator<char> > const, std::__ndk1::function<keybinds::Bind* (matjson::Value const&)> >::~pair()
PUBLIC m 5af3c 0 keybinds::BindManager::addBindTo(std::__ndk1::basic_string<char, std::__ndk1::char_traits<char>, std::__ndk1::allocator<char> > const&, keybinds::Bind*)
PUBLIC m 5b1ec 0 keybinds::DeviceEvent::~DeviceEvent()
PUBLIC m 5b230 0 keybinds::BindManager::detachDevice(std::__ndk1::basic_string<char, std::__ndk1::char_traits<char>, std::__ndk1::allocator<char> > const&)
PUBLIC m 5b7c4 0 keybinds::BindManager::saveBind(keybinds::Bind*) const
PUBLIC m 5b8fc 0 keybinds::BindManager::removeBindFrom(std::__ndk1::basic_string<char, std::__ndk1::char_traits<char>, std::__ndk1::allocator<char> > const&, keybinds::Bind*)
PUBLIC m 5bb90 0 keybinds::BindManager::loadBind(matjson::Value const&) const
PUBLIC m 5bcbc 0 keybinds::BindManager::loadActionBinds(std::__ndk1::basic_string<char, std::__ndk1::char_traits<char>, std::__ndk1::allocator<char> > const&)
PUBLIC 5bfb4 0 geode::Mod::getSavedValue<matjson::Object>(std::__ndk1::basic_string_view<char, std::__ndk1::char_traits<char> >)
PUBLIC m 5c0dc 0 keybinds::BindManager::setRepeatOptionsFor(std::__ndk1::basic_string<char, std::__ndk1::char_traits<char>, std::__ndk1::allocator<char> > const&, keybinds::RepeatOptions const&)
PUBLIC m 5c238 0 keybinds::BindManager::saveActionBinds(std::__ndk1::basic_string<char, std::__ndk1::char_traits<char>, std::__ndk1::allocator<char> > const&)
PUBLIC m 5c7ec 0 keybinds::BindManager::getBindsFor(std::__ndk1::basic_string<char, std::__ndk1::char_traits<char>, std::__ndk1::allocator<char> > const&) const
PUBLIC 5c964 0 std::__ndk1::vector<matjson::Value, std::__ndk1::allocator<matjson::Value> >::~vector[abi:ne180000]()
PUBLIC m 5c9cc 0 keybinds::BindManager::getRepeatOptionsFor(std::__ndk1::basic_string<char, std::__ndk1::char_traits<char>, std::__ndk1::allocator<char> > const&)
PUBLIC 5cacc 0 geode::Mod::setSavedValue<matjson::Object>(std::__ndk1::basic_string_view<char, std::__ndk1::char_traits<char> >, matjson::Object const&)
PUBLIC m 5cbd8 0 keybinds::BindManager::registerBindable(keybinds::BindableAction const&, std::__ndk1::basic_string<char, std::__ndk1::char_traits<char>, std::__ndk1::allocator<char> > const&)
PUBLIC 5d598 0 std::__ndk1::vector<std::__ndk1::pair<std::__ndk1::basic_string<char, std::__ndk1::char_traits<char>, std::__ndk1::allocator<char> >, keybinds::BindManager::ActionData>, std::__ndk1::allocator<std::__ndk1::pair<std::__ndk1::basic_string<char, std::__ndk1::char_traits<char>, std::__ndk1::allocator<char> >, keybinds::BindManager::ActionData> > >::insert(std::__ndk1::__wrap_iter<std::__ndk1::pair<std::__ndk1::basic_string<char, std::__ndk1::char_traits<char>, std::__ndk1::allocator<char> >, keybinds::BindManager::ActionData> const*>, std::__ndk1::pair<std::__ndk1::basic_string<char, std::__ndk1::char_traits<char>, std::__ndk1::allocator<char> >, keybinds::BindManager::ActionData>&&)
PUBLIC m 5d9c8 0 keybinds::BindableAction::BindableAction(keybinds::BindableAction const&)
PUBLIC 5db74 0 std::__ndk1::pair<std::__ndk1::basic_string<char, std::__ndk1::char_traits<char>, std::__ndk1::allocator<char> >, keybinds::BindManager::ActionData>::~pair()
PUBLIC m 5dbb0 0 keybinds::BindManager::removeBindable(std::__ndk1::basic_string<char, std::__ndk1::char_traits<char>, std::__ndk1::allocator<char> > const&)
PUBLIC m 5de98 0 keybinds::BindManager::removeAllBindsFrom(std::__ndk1::basic_string<char, std::__ndk1::char_traits<char>, std::__ndk1::allocator<char> > const&)
PUBLIC m 5dfec 0 keybinds::BindManager::getBindable(std::__ndk1::basic_string<char, std::__ndk1::char_traits<char>, std::__ndk1::allocator<char> > const&) const
PUBLIC m 5e0d8 0 keybinds::BindManager::getAllBindables() const
PUBLIC 5e18c 0 std::__ndk1::vector<keybinds::BindableAction, std::__ndk1::allocator<keybinds::BindableAction> >::~vector[abi:ne180000]()
PUBLIC m 5e1f4 0 keybinds::BindManager::getBindablesIn(keybinds::Category const&, bool) const
PUBLIC m 5e4b8 0 keybinds::BindManager::getBindablesFor(keybinds::Bind*) const
PUBLIC m 5e7fc 0 keybinds::BindHash::~BindHash()
PUBLIC m 5e81c 0 keybinds::BindManager::getAllCategories() const
PUBLIC 5e844 0 std::__ndk1::vector<keybinds::Category, std::__ndk1::allocator<keybinds::Category> >::insert(std::__ndk1::__wrap_iter<keybinds::Category const*>, keybinds::Category const&)
PUBLIC m 5ec34 0 keybinds::BindManager::removeCategory(keybinds::Category const&)
PUBLIC m 5efe8 0 keybinds::BindManager::resetBindsToDefault(std::__ndk1::basic_string<char, std::__ndk1::char_traits<char>, std::__ndk1::allocator<char> > const&)
PUBLIC m 5f3a4 0 keybinds::BindManager::hasDefaultBinds(std::__ndk1::basic_string<char, std::__ndk1::char_traits<char>, std::__ndk1::allocator<char> > const&) const
PUBLIC m 5f844 0 keybinds::BindManager::isActionBindHeld(std::__ndk1::basic_string<char, std::__ndk1::char_traits<char>, std::__ndk1::allocator<char> > const&, keybinds::Bind*)
PUBLIC m 5f994 0 keybinds::BindManager::repeat(std::__ndk1::basic_string<char, std::__ndk1::char_traits<char>, std::__ndk1::allocator<char> > const&)
PUBLIC m 5fb68 0 keybinds::BindManager::unrepeat(std::__ndk1::basic_string<char, std::__ndk1::char_traits<char>, std::__ndk1::allocator<char> > const&)
PUBLIC m 5fc68 0 keybinds::BindManager::markActionBindHeld(std::__ndk1::basic_string<char, std::__ndk1::char_traits<char>, std::__ndk1::allocator<char> > const&, keybinds::Bind*)
PUBLIC m 600e8 0 keybinds::BindManager::unmarkActionBindHeld(std::__ndk1::basic_string<char, std::__ndk1::char_traits<char>, std::__ndk1::allocator<char> > const&, keybinds::Bind*)
PUBLIC m 6045c 0 keybinds::InvokeBindEvent::~InvokeBindEvent()
PUBLIC 604a0 0 std::__ndk1::pair<std::__ndk1::basic_string<char, std::__ndk1::char_traits<char>, std::__ndk1::allocator<char> >, std::__ndk1::unordered_set<unsigned long, std::__ndk1::hash<unsigned long>, std::__ndk1::equal_to<unsigned long>, std::__ndk1::allocator<unsigned long> > >::~pair()
PUBLIC 604fc 0 std::__ndk1::unordered_set<unsigned long, std::__ndk1::hash<unsigned long>, std::__ndk1::equal_to<unsigned long>, std::__ndk1::allocator<unsigned long> >::~unordered_set[abi:ne180000]()
PUBLIC m 60548 0 keybinds::BindManager::onRepeat(float)
PUBLIC m 60720 0 keybinds::BindManager::save()
PUBLIC 60994 0 geodeExecFunction734<(anonymous namespace)::ExecFuncUnique734>(geode::ModStateEvent*)
PUBLIC m 60a30 0 keybinds::Bind::~Bind()
PUBLIC m 60a34 0 keybinds::InvokeBindEvent::~InvokeBindEvent()
PUBLIC m 60a7c 0 keybinds::PressBindEvent::~PressBindEvent()
PUBLIC m 60aa0 0 keybinds::DeviceEvent::~DeviceEvent()
PUBLIC m 60ae8 0 keybinds::BindManager::~BindManager()
PUBLIC m 60cf4 0 keybinds::BindManager::~BindManager()
PUBLIC 60d18 0 std::__ndk1::__throw_out_of_range[abi:ne180000](char const*)
PUBLIC 60d68 0 std::out_of_range::out_of_range[abi:ne180000](char const*)
PUBLIC 60d98 0 std::__ndk1::vector<geode::Ref<keybinds::Bind>, std::__ndk1::allocator<geode::Ref<keybinds::Bind> > >::__init_with_size[abi:ne180000]<geode::Ref<keybinds::Bind>*, std::__ndk1::vector<geode::Ref<keybinds::Bind>, std::__ndk1::allocator<geode::Ref<keybinds::Bind> > >::__init_with_size[abi:ne180000]>(geode::Ref<keybinds::Bind>*, std::__ndk1::vector<geode::Ref<keybinds::Bind>, std::__ndk1::allocator<geode::Ref<keybinds::Bind> > >::__init_with_size[abi:ne180000], unsigned long)
PUBLIC 60ed4 0 std::__ndk1::vector<geode::Ref<keybinds::Bind>, std::__ndk1::allocator<geode::Ref<keybinds::Bind> > >::__throw_length_error[abi:ne180000]() const
PUBLIC 60ee8 0 geode::EventListener<keybinds::PressBindFilter>::getPool() const
PUBLIC 60eec 0 geode::EventListener<keybinds::PressBindFilter>::handle(geode::Event*)
PUBLIC 61034 0 geode::EventListener<keybinds::PressBindFilter>::~EventListener()
PUBLIC 6107c 0 std::__ndk1::vector<matjson::Value, std::__ndk1::allocator<matjson::Value> >::__push_back_slow_path<matjson::Value>(matjson::Value&&)
PUBLIC 61240 0 std::__ndk1::__split_buffer<matjson::Value, std::__ndk1::allocator<matjson::Value>&>::~__split_buffer()
PUBLIC 61294 0 std::__ndk1::vector<matjson::Value, std::__ndk1::allocator<matjson::Value> >::__throw_length_error[abi:ne180000]() const
PUBLIC 612a8 0 std::__ndk1::vector<matjson::Value, std::__ndk1::allocator<matjson::Value> >::__push_back_slow_path<matjson::Value const&>(matjson::Value const&)
PUBLIC 6146c 0 std::__ndk1::vector<matjson::Value, std::__ndk1::allocator<matjson::Value> >::__init_with_size[abi:ne180000]<matjson::Value*, std::__ndk1::vector<matjson::Value, std::__ndk1::allocator<matjson::Value> >::__init_with_size[abi:ne180000]>(matjson::Value*, std::__ndk1::vector<matjson::Value, std::__ndk1::allocator<matjson::Value> >::__init_with_size[abi:ne180000], unsigned long)
PUBLIC 61588 0 std::__ndk1::__exception_guard_exceptions<std::__ndk1::vector<matjson::Value, std::__ndk1::allocator<matjson::Value> >::__destroy_vector>::~__exception_guard_exceptions[abi:ne180000]()
PUBLIC 61604 0 std::__ndk1::__split_buffer<std::__ndk1::pair<std::__ndk1::basic_string<char, std::__ndk1::char_traits<char>, std::__ndk1::allocator<char> >, keybinds::BindManager::ActionData>, std::__ndk1::allocator<std::__ndk1::pair<std::__ndk1::basic_string<char, std::__ndk1::char_traits<char>, std::__ndk1::allocator<char> >, keybinds::BindManager::ActionData> >&>::push_back(std::__ndk1::pair<std::__ndk1::basic_string<char, std::__ndk1::char_traits<char>, std::__ndk1::allocator<char> >, keybinds::BindManager::ActionData>&&)
PUBLIC 61978 0 std::__ndk1::vector<std::__ndk1::pair<std::__ndk1::basic_string<char, std::__ndk1::char_traits<char>, std::__ndk1::allocator<char> >, keybinds::BindManager::ActionData>, std::__ndk1::allocator<std::__ndk1::pair<std::__ndk1::basic_string<char, std::__ndk1::char_traits<char>, std::__ndk1::allocator<char> >, keybinds::BindManager::ActionData> > >::__swap_out_circular_buffer(std::__ndk1::__split_buffer<std::__ndk1::pair<std::__ndk1::basic_string<char, std::__ndk1::char_traits<char>, std::__ndk1::allocator<char> >, keybinds::BindManager::ActionData>, std::__ndk1::allocator<std::__ndk1::pair<std::__ndk1::basic_string<char, std::__ndk1::char_traits<char>, std::__ndk1::allocator<char> >, keybinds::BindManager::ActionData> >&>&, std::__ndk1::pair<std::__ndk1::basic_string<char, std::__ndk1::char_traits<char>, std::__ndk1::allocator<char> >, keybinds::BindManager::ActionData>*)
PUBLIC 61b7c 0 std::__ndk1::__split_buffer<std::__ndk1::pair<std::__ndk1::basic_string<char, std::__ndk1::char_traits<char>, std::__ndk1::allocator<char> >, keybinds::BindManager::ActionData>, std::__ndk1::allocator<std::__ndk1::pair<std::__ndk1::basic_string<char, std::__ndk1::char_traits<char>, std::__ndk1::allocator<char> >, keybinds::BindManager::ActionData> >&>::~__split_buffer()
PUBLIC m 61bf0 0 keybinds::BindableAction::operator=(keybinds::BindableAction&&)
PUBLIC 61d38 0 std::__ndk1::vector<std::__ndk1::pair<std::__ndk1::basic_string<char, std::__ndk1::char_traits<char>, std::__ndk1::allocator<char> >, keybinds::BindManager::ActionData>, std::__ndk1::allocator<std::__ndk1::pair<std::__ndk1::basic_string<char, std::__ndk1::char_traits<char>, std::__ndk1::allocator<char> >, keybinds::BindManager::ActionData> > >::__throw_length_error[abi:ne180000]() const
PUBLIC 61d4c 0 std::__ndk1::vector<std::__ndk1::pair<std::__ndk1::basic_string<char, std::__ndk1::char_traits<char>, std::__ndk1::allocator<char> >, keybinds::BindManager::ActionData>, std::__ndk1::allocator<std::__ndk1::pair<std::__ndk1::basic_string<char, std::__ndk1::char_traits<char>, std::__ndk1::allocator<char> >, keybinds::BindManager::ActionData> > >::__push_back_slow_path<std::__ndk1::pair<std::__ndk1::basic_string<char, std::__ndk1::char_traits<char>, std::__ndk1::allocator<char> >, keybinds::BindManager::ActionData> >(std::__ndk1::pair<std::__ndk1::basic_string<char, std::__ndk1::char_traits<char>, std::__ndk1::allocator<char> >, keybinds::BindManager::ActionData>&&)
PUBLIC 62008 0 std::__ndk1::vector<keybinds::BindableAction, std::__ndk1::allocator<keybinds::BindableAction> >::__push_back_slow_path<keybinds::BindableAction const&>(keybinds::BindableAction const&)
PUBLIC 6226c 0 std::__ndk1::__split_buffer<keybinds::BindableAction, std::__ndk1::allocator<keybinds::BindableAction>&>::~__split_buffer()
PUBLIC 622c0 0 std::__ndk1::vector<keybinds::BindableAction, std::__ndk1::allocator<keybinds::BindableAction> >::__throw_length_error[abi:ne180000]() const
PUBLIC 622d4 0 std::__ndk1::vector<keybinds::Category, std::__ndk1::allocator<keybinds::Category> >::__init_with_size[abi:ne180000]<keybinds::Category*, std::__ndk1::vector<keybinds::Category, std::__ndk1::allocator<keybinds::Category> >::__init_with_size[abi:ne180000]>(keybinds::Category*, std::__ndk1::vector<keybinds::Category, std::__ndk1::allocator<keybinds::Category> >::__init_with_size[abi:ne180000], unsigned long)
PUBLIC 62440 0 std::__ndk1::__exception_guard_exceptions<std::__ndk1::vector<keybinds::Category, std::__ndk1::allocator<keybinds::Category> >::__destroy_vector>::~__exception_guard_exceptions[abi:ne180000]()
PUBLIC 624cc 0 std::__ndk1::vector<keybinds::Category, std::__ndk1::allocator<keybinds::Category> >::__throw_length_error[abi:ne180000]() const
PUBLIC 624e0 0 std::__ndk1::__exception_guard_exceptions<std::__ndk1::_AllocatorDestroyRangeReverse<std::__ndk1::allocator<keybinds::Category>, keybinds::Category*> >::~__exception_guard_exceptions[abi:ne180000]()
PUBLIC 62540 0 std::__ndk1::__split_buffer<keybinds::Category, std::__ndk1::allocator<keybinds::Category>&>::push_back[abi:ne180000](keybinds::Category const&)
PUBLIC 6274c 0 std::__ndk1::__split_buffer<keybinds::Category, std::__ndk1::allocator<keybinds::Category>&>::~__split_buffer()
PUBLIC 627b4 0 std::__ndk1::basic_string<char, std::__ndk1::char_traits<char>, std::__ndk1::allocator<char> >::__assign_no_alias<true>(char const*, unsigned long)
PUBLIC 62860 0 std::__ndk1::basic_string<char, std::__ndk1::char_traits<char>, std::__ndk1::allocator<char> >::__assign_no_alias<false>(char const*, unsigned long)
PUBLIC 62970 0 std::__ndk1::vector<geode::Ref<keybinds::Bind>, std::__ndk1::allocator<geode::Ref<keybinds::Bind> > >::__push_back_slow_path<geode::Ref<keybinds::Bind> const&>(geode::Ref<keybinds::Bind> const&)
PUBLIC 62bc8 0 std::__ndk1::__split_buffer<geode::Ref<keybinds::Bind>, std::__ndk1::allocator<geode::Ref<keybinds::Bind> >&>::~__split_buffer()
PUBLIC 62c20 0 std::__ndk1::vector<geode::Ref<keybinds::Bind>, std::__ndk1::allocator<geode::Ref<keybinds::Bind> > >::__throw_out_of_range[abi:ne180000]() const
PUBLIC 62c34 0 std::__ndk1::unordered_set<unsigned long, std::__ndk1::hash<unsigned long>, std::__ndk1::equal_to<unsigned long>, std::__ndk1::allocator<unsigned long> >::unordered_set(std::__ndk1::unordered_set<unsigned long, std::__ndk1::hash<unsigned long>, std::__ndk1::equal_to<unsigned long>, std::__ndk1::allocator<unsigned long> > const&)
PUBLIC 62d70 0 std::__ndk1::__hash_table<unsigned long, std::__ndk1::hash<unsigned long>, std::__ndk1::equal_to<unsigned long>, std::__ndk1::allocator<unsigned long> >::~__hash_table()
PUBLIC 62dbc 0 std::__ndk1::__hash_table<unsigned long, std::__ndk1::hash<unsigned long>, std::__ndk1::equal_to<unsigned long>, std::__ndk1::allocator<unsigned long> >::__do_rehash<true>(unsigned long)
PUBLIC 62f94 0 std::__ndk1::__hash_table<unsigned long, std::__ndk1::hash<unsigned long>, std::__ndk1::equal_to<unsigned long>, std::__ndk1::allocator<unsigned long> >::__emplace_unique_key_args<unsigned long, unsigned long const&>(unsigned long const&, unsigned long const&)
PUBLIC 632b8 0 std::__ndk1::__murmur2_or_cityhash<unsigned long, (unsigned long)64>::operator()[abi:ne180000](void const*, unsigned long) const
PUBLIC 63704 0 geode::utils::terminate<void>(std::__ndk1::basic_string<char, std::__ndk1::char_traits<char>, std::__ndk1::allocator<char> > const&, geode::Mod*, unsigned long)
PUBLIC 63724 0 geode::utils::MiniFunctionStateBase<geode::ListenerResult, keybinds::PressBindEvent*>::~MiniFunctionStateBase()
PUBLIC 63728 0 geode::utils::MiniFunctionState<std::__ndk1::__bind<geode::ListenerResult (keybinds::BindManager&::*)(keybinds::PressBindEvent*), keybinds::BindManager*&, std::__ndk1::placeholders::__ph<1> const&>, geode::ListenerResult, keybinds::PressBindEvent*>::~MiniFunctionState()
PUBLIC 6372c 0 geode::utils::MiniFunctionState<std::__ndk1::__bind<geode::ListenerResult (keybinds::BindManager&::*)(keybinds::PressBindEvent*), keybinds::BindManager*&, std::__ndk1::placeholders::__ph<1> const&>, geode::ListenerResult, keybinds::PressBindEvent*>::call(keybinds::PressBindEvent*) const
PUBLIC 63748 0 geode::utils::MiniFunctionState<std::__ndk1::__bind<geode::ListenerResult (keybinds::BindManager&::*)(keybinds::PressBindEvent*), keybinds::BindManager*&, std::__ndk1::placeholders::__ph<1> const&>, geode::ListenerResult, keybinds::PressBindEvent*>::clone() const
PUBLIC 63788 0 std::__ndk1::__hash_table<std::__ndk1::__hash_value_type<keybinds::BindHash, std::__ndk1::vector<std::__ndk1::basic_string<char, std::__ndk1::char_traits<char>, std::__ndk1::allocator<char> >, std::__ndk1::allocator<std::__ndk1::basic_string<char, std::__ndk1::char_traits<char>, std::__ndk1::allocator<char> > > > >, std::__ndk1::__unordered_map_hasher<keybinds::BindHash, std::__ndk1::__hash_value_type<keybinds::BindHash, std::__ndk1::vector<std::__ndk1::basic_string<char, std::__ndk1::char_traits<char>, std::__ndk1::allocator<char> >, std::__ndk1::allocator<std::__ndk1::basic_string<char, std::__ndk1::char_traits<char>, std::__ndk1::allocator<char> > > > >, std::__ndk1::hash<keybinds::BindHash>, std::__ndk1::equal_to<keybinds::BindHash>, true>, std::__ndk1::__unordered_map_equal<keybinds::BindHash, std::__ndk1::__hash_value_type<keybinds::BindHash, std::__ndk1::vector<std::__ndk1::basic_string<char, std::__ndk1::char_traits<char>, std::__ndk1::allocator<char> >, std::__ndk1::allocator<std::__ndk1::basic_string<char, std::__ndk1::char_traits<char>, std::__ndk1::allocator<char> > > > >, std::__ndk1::equal_to<keybinds::BindHash>, std::__ndk1::hash<keybinds::BindHash>, true>, std::__ndk1::allocator<std::__ndk1::__hash_value_type<keybinds::BindHash, std::__ndk1::vector<std::__ndk1::basic_string<char, std::__ndk1::char_traits<char>, std::__ndk1::allocator<char> >, std::__ndk1::allocator<std::__ndk1::basic_string<char, std::__ndk1::char_traits<char>, std::__ndk1::allocator<char> > > > > > >::__deallocate_node(std::__ndk1::__hash_node_base<std::__ndk1::__hash_node<std::__ndk1::__hash_value_type<keybinds::BindHash, std::__ndk1::vector<std::__ndk1::basic_string<char, std::__ndk1::char_traits<char>, std::__ndk1::allocator<char> >, std::__ndk1::allocator<std::__ndk1::basic_string<char, std::__ndk1::char_traits<char>, std::__ndk1::allocator<char> > > > >, void*>*>*)
PUBLIC 63828 0 _ZNSt6__ndk112__destroy_atB8ne180000INS_4pairIKNS_12basic_stringIcNS_11char_traitsIcEENS_9allocatorIcEEEENS_13unordered_mapIS7_NS_3setIN7matjson5ValueENS_4lessISC_EENS5_ISC_EEEENS_4hashIS7_EENS_8equal_toIS7_EENS5_INS1_IS8_SG_EEEEEEEETnNS_9enable_ifIXntsr8is_arrayIT_EE5valueEiE4typeELi0EEEvPSQ_
PUBLIC 638b4 0 std::__ndk1::__tree<matjson::Value, std::__ndk1::less<matjson::Value>, std::__ndk1::allocator<matjson::Value> >::destroy(std::__ndk1::__tree_node<matjson::Value, void*>*)
PUBLIC 63900 0 std::__ndk1::__hash_table<std::__ndk1::__hash_value_type<std::__ndk1::basic_string<char, std::__ndk1::char_traits<char>, std::__ndk1::allocator<char> >, std::__ndk1::unordered_set<unsigned long, std::__ndk1::hash<unsigned long>, std::__ndk1::equal_to<unsigned long>, std::__ndk1::allocator<unsigned long> > >, std::__ndk1::__unordered_map_hasher<std::__ndk1::basic_string<char, std::__ndk1::char_traits<char>, std::__ndk1::allocator<char> >, std::__ndk1::__hash_value_type<std::__ndk1::basic_string<char, std::__ndk1::char_traits<char>, std::__ndk1::allocator<char> >, std::__ndk1::unordered_set<unsigned long, std::__ndk1::hash<unsigned long>, std::__ndk1::equal_to<unsigned long>, std::__ndk1::allocator<unsigned long> > >, std::__ndk1::hash<std::__ndk1::basic_string<char, std::__ndk1::char_traits<char>, std::__ndk1::allocator<char> > >, std::__ndk1::equal_to<std::__ndk1::basic_string<char, std::__ndk1::char_traits<char>, std::__ndk1::allocator<char> > >, true>, std::__ndk1::__unordered_map_equal<std::__ndk1::basic_string<char, std::__ndk1::char_traits<char>, std::__ndk1::allocator<char> >, std::__ndk1::__hash_value_type<std::__ndk1::basic_string<char, std::__ndk1::char_traits<char>, std::__ndk1::allocator<char> >, std::__ndk1::unordered_set<unsigned long, std::__ndk1::hash<unsigned long>, std::__ndk1::equal_to<unsigned long>, std::__ndk1::allocator<unsigned long> > >, std::__ndk1::equal_to<std::__ndk1::basic_string<char, std::__ndk1::char_traits<char>, std::__ndk1::allocator<char> > >, std::__ndk1::hash<std::__ndk1::basic_string<char, std::__ndk1::char_traits<char>, std::__ndk1::allocator<char> > >, true>, std::__ndk1::allocator<std::__ndk1::__hash_value_type<std::__ndk1::basic_string<char, std::__ndk1::char_traits<char>, std::__ndk1::allocator<char> >, std::__ndk1::unordered_set<unsigned long, std::__ndk1::hash<unsigned long>, std::__ndk1::equal_to<unsigned long>, std::__ndk1::allocator<unsigned long> > > > >::~__hash_table()
PUBLIC 63998 0 std::__ndk1::__function::__func<keybinds::Keybind* (*)(matjson::Value const&), std::__ndk1::allocator<keybinds::Keybind* (*)(matjson::Value const&)>, keybinds::Bind* (matjson::Value const&)>::~__func()
PUBLIC 6399c 0 std::__ndk1::__function::__func<keybinds::Keybind* (*)(matjson::Value const&), std::__ndk1::allocator<keybinds::Keybind* (*)(matjson::Value const&)>, keybinds::Bind* (matjson::Value const&)>::__clone() const
PUBLIC 639d0 0 std::__ndk1::__function::__func<keybinds::Keybind* (*)(matjson::Value const&), std::__ndk1::allocator<keybinds::Keybind* (*)(matjson::Value const&)>, keybinds::Bind* (matjson::Value const&)>::__clone(std::__ndk1::__function::__base<keybinds::Bind* (matjson::Value const&)>*) const
PUBLIC 639e4 0 std::__ndk1::__function::__func<keybinds::Keybind* (*)(matjson::Value const&), std::__ndk1::allocator<keybinds::Keybind* (*)(matjson::Value const&)>, keybinds::Bind* (matjson::Value const&)>::destroy()
PUBLIC 639e8 0 std::__ndk1::__function::__func<keybinds::Keybind* (*)(matjson::Value const&), std::__ndk1::allocator<keybinds::Keybind* (*)(matjson::Value const&)>, keybinds::Bind* (matjson::Value const&)>::destroy_deallocate()
PUBLIC 639ec 0 std::__ndk1::__function::__func<keybinds::Keybind* (*)(matjson::Value const&), std::__ndk1::allocator<keybinds::Keybind* (*)(matjson::Value const&)>, keybinds::Bind* (matjson::Value const&)>::operator()(matjson::Value const&)
PUBLIC 639f8 0 std::__ndk1::__function::__func<keybinds::Keybind* (*)(matjson::Value const&), std::__ndk1::allocator<keybinds::Keybind* (*)(matjson::Value const&)>, keybinds::Bind* (matjson::Value const&)>::target(std::type_info const&) const
PUBLIC 63a14 0 std::__ndk1::__function::__func<keybinds::Keybind* (*)(matjson::Value const&), std::__ndk1::allocator<keybinds::Keybind* (*)(matjson::Value const&)>, keybinds::Bind* (matjson::Value const&)>::target_type() const
PUBLIC 63a20 0 std::__ndk1::__function::__base<keybinds::Bind* (matjson::Value const&)>::~__base()
PUBLIC 63a24 0 std::__ndk1::__function::__func<keybinds::MouseBind* (*)(matjson::Value const&), std::__ndk1::allocator<keybinds::MouseBind* (*)(matjson::Value const&)>, keybinds::Bind* (matjson::Value const&)>::~__func()
PUBLIC 63a28 0 std::__ndk1::__function::__func<keybinds::MouseBind* (*)(matjson::Value const&), std::__ndk1::allocator<keybinds::MouseBind* (*)(matjson::Value const&)>, keybinds::Bind* (matjson::Value const&)>::__clone() const
PUBLIC 63a5c 0 std::__ndk1::__function::__func<keybinds::MouseBind* (*)(matjson::Value const&), std::__ndk1::allocator<keybinds::MouseBind* (*)(matjson::Value const&)>, keybinds::Bind* (matjson::Value const&)>::__clone(std::__ndk1::__function::__base<keybinds::Bind* (matjson::Value const&)>*) const
PUBLIC 63a70 0 std::__ndk1::__function::__func<keybinds::MouseBind* (*)(matjson::Value const&), std::__ndk1::allocator<keybinds::MouseBind* (*)(matjson::Value const&)>, keybinds::Bind* (matjson::Value const&)>::destroy()
PUBLIC 63a74 0 std::__ndk1::__function::__func<keybinds::MouseBind* (*)(matjson::Value const&), std::__ndk1::allocator<keybinds::MouseBind* (*)(matjson::Value const&)>, keybinds::Bind* (matjson::Value const&)>::destroy_deallocate()
PUBLIC 63a78 0 std::__ndk1::__function::__func<keybinds::MouseBind* (*)(matjson::Value const&), std::__ndk1::allocator<keybinds::MouseBind* (*)(matjson::Value const&)>, keybinds::Bind* (matjson::Value const&)>::operator()(matjson::Value const&)
PUBLIC 63a84 0 std::__ndk1::__function::__func<keybinds::MouseBind* (*)(matjson::Value const&), std::__ndk1::allocator<keybinds::MouseBind* (*)(matjson::Value const&)>, keybinds::Bind* (matjson::Value const&)>::target(std::type_info const&) const
PUBLIC 63aa0 0 std::__ndk1::__function::__func<keybinds::MouseBind* (*)(matjson::Value const&), std::__ndk1::allocator<keybinds::MouseBind* (*)(matjson::Value const&)>, keybinds::Bind* (matjson::Value const&)>::target_type() const
PUBLIC 63aac 0 std::__ndk1::__hash_table<std::__ndk1::__hash_value_type<std::__ndk1::basic_string<char, std::__ndk1::char_traits<char>, std::__ndk1::allocator<char> >, std::__ndk1::function<keybinds::Bind* (matjson::Value const&)> >, std::__ndk1::__unordered_map_hasher<std::__ndk1::basic_string<char, std::__ndk1::char_traits<char>, std::__ndk1::allocator<char> >, std::__ndk1::__hash_value_type<std::__ndk1::basic_string<char, std::__ndk1::char_traits<char>, std::__ndk1::allocator<char> >, std::__ndk1::function<keybinds::Bind* (matjson::Value const&)> >, std::__ndk1::hash<std::__ndk1::basic_string<char, std::__ndk1::char_traits<char>, std::__ndk1::allocator<char> > >, std::__ndk1::equal_to<std::__ndk1::basic_string<char, std::__ndk1::char_traits<char>, std::__ndk1::allocator<char> > >, true>, std::__ndk1::__unordered_map_equal<std::__ndk1::basic_string<char, std::__ndk1::char_traits<char>, std::__ndk1::allocator<char> >, std::__ndk1::__hash_value_type<std::__ndk1::basic_string<char, std::__ndk1::char_traits<char>, std::__ndk1::allocator<char> >, std::__ndk1::function<keybinds::Bind* (matjson::Value const&)> >, std::__ndk1::equal_to<std::__ndk1::basic_string<char, std::__ndk1::char_traits<char>, std::__ndk1::allocator<char> > >, std::__ndk1::hash<std::__ndk1::basic_string<char, std::__ndk1::char_traits<char>, std::__ndk1::allocator<char> > >, true>, std::__ndk1::allocator<std::__ndk1::__hash_value_type<std::__ndk1::basic_string<char, std::__ndk1::char_traits<char>, std::__ndk1::allocator<char> >, std::__ndk1::function<keybinds::Bind* (matjson::Value const&)> > > >::find<std::__ndk1::basic_string<char, std::__ndk1::char_traits<char>, std::__ndk1::allocator<char> > >(std::__ndk1::basic_string<char, std::__ndk1::char_traits<char>, std::__ndk1::allocator<char> > const&) const
PUBLIC 63d00 0 std::__ndk1::__hash_table<std::__ndk1::__hash_value_type<std::__ndk1::basic_string<char, std::__ndk1::char_traits<char>, std::__ndk1::allocator<char> >, std::__ndk1::function<keybinds::Bind* (matjson::Value const&)> >, std::__ndk1::__unordered_map_hasher<std::__ndk1::basic_string<char, std::__ndk1::char_traits<char>, std::__ndk1::allocator<char> >, std::__ndk1::__hash_value_type<std::__ndk1::basic_string<char, std::__ndk1::char_traits<char>, std::__ndk1::allocator<char> >, std::__ndk1::function<keybinds::Bind* (matjson::Value const&)> >, std::__ndk1::hash<std::__ndk1::basic_string<char, std::__ndk1::char_traits<char>, std::__ndk1::allocator<char> > >, std::__ndk1::equal_to<std::__ndk1::basic_string<char, std::__ndk1::char_traits<char>, std::__ndk1::allocator<char> > >, true>, std::__ndk1::__unordered_map_equal<std::__ndk1::basic_string<char, std::__ndk1::char_traits<char>, std::__ndk1::allocator<char> >, std::__ndk1::__hash_value_type<std::__ndk1::basic_string<char, std::__ndk1::char_traits<char>, std::__ndk1::allocator<char> >, std::__ndk1::function<keybinds::Bind* (matjson::Value const&)> >, std::__ndk1::equal_to<std::__ndk1::basic_string<char, std::__ndk1::char_traits<char>, std::__ndk1::allocator<char> > >, std::__ndk1::hash<std::__ndk1::basic_string<char, std::__ndk1::char_traits<char>, std::__ndk1::allocator<char> > >, true>, std::__ndk1::allocator<std::__ndk1::__hash_value_type<std::__ndk1::basic_string<char, std::__ndk1::char_traits<char>, std::__ndk1::allocator<char> >, std::__ndk1::function<keybinds::Bind* (matjson::Value const&)> > > >::__emplace_unique_key_args<std::__ndk1::basic_string<char, std::__ndk1::char_traits<char>, std::__ndk1::allocator<char> >, std::__ndk1::pair<std::__ndk1::basic_string<char, std::__ndk1::char_traits<char>, std::__ndk1::allocator<char> > const, std::__ndk1::function<keybinds::Bind* (matjson::Value const&)> > >(std::__ndk1::basic_string<char, std::__ndk1::char_traits<char>, std::__ndk1::allocator<char> > const&, std::__ndk1::pair<std::__ndk1::basic_string<char, std::__ndk1::char_traits<char>, std::__ndk1::allocator<char> > const, std::__ndk1::function<keybinds::Bind* (matjson::Value const&)> >&&)
PUBLIC 64200 0 std::__ndk1::unique_ptr<std::__ndk1::__hash_node<std::__ndk1::__hash_value_type<std::__ndk1::basic_string<char, std::__ndk1::char_traits<char>, std::__ndk1::allocator<char> >, std::__ndk1::function<keybinds::Bind* (matjson::Value const&)> >, void*>, std::__ndk1::__hash_node_destructor<std::__ndk1::allocator<std::__ndk1::__hash_node<std::__ndk1::__hash_value_type<std::__ndk1::basic_string<char, std::__ndk1::char_traits<char>, std::__ndk1::allocator<char> >, std::__ndk1::function<keybinds::Bind* (matjson::Value const&)> >, void*> > > >::~unique_ptr[abi:ne180000]()
PUBLIC 6427c 0 std::__ndk1::__hash_table<std::__ndk1::__hash_value_type<std::__ndk1::basic_string<char, std::__ndk1::char_traits<char>, std::__ndk1::allocator<char> >, std::__ndk1::function<keybinds::Bind* (matjson::Value const&)> >, std::__ndk1::__unordered_map_hasher<std::__ndk1::basic_string<char, std::__ndk1::char_traits<char>, std::__ndk1::allocator<char> >, std::__ndk1::__hash_value_type<std::__ndk1::basic_string<char, std::__ndk1::char_traits<char>, std::__ndk1::allocator<char> >, std::__ndk1::function<keybinds::Bind* (matjson::Value const&)> >, std::__ndk1::hash<std::__ndk1::basic_string<char, std::__ndk1::char_traits<char>, std::__ndk1::allocator<char> > >, std::__ndk1::equal_to<std::__ndk1::basic_string<char, std::__ndk1::char_traits<char>, std::__ndk1::allocator<char> > >, true>, std::__ndk1::__unordered_map_equal<std::__ndk1::basic_string<char, std::__ndk1::char_traits<char>, std::__ndk1::allocator<char> >, std::__ndk1::__hash_value_type<std::__ndk1::basic_string<char, std::__ndk1::char_traits<char>, std::__ndk1::allocator<char> >, std::__ndk1::function<keybinds::Bind* (matjson::Value const&)> >, std::__ndk1::equal_to<std::__ndk1::basic_string<char, std::__ndk1::char_traits<char>, std::__ndk1::allocator<char> > >, std::__ndk1::hash<std::__ndk1::basic_string<char, std::__ndk1::char_traits<char>, std::__ndk1::allocator<char> > >, true>, std::__ndk1::allocator<std::__ndk1::__hash_value_type<std::__ndk1::basic_string<char, std::__ndk1::char_traits<char>, std::__ndk1::allocator<char> >, std::__ndk1::function<keybinds::Bind* (matjson::Value const&)> > > >::__do_rehash<true>(unsigned long)
PUBLIC 64454 0 _ZNSt6__ndk112__hash_tableINS_17__hash_value_typeINS_12basic_stringIcNS_11char_traitsIcEENS_9allocatorIcEEEENS_13unordered_mapIS7_NS_3setIN7matjson5ValueENS_4lessISB_EENS5_ISB_EEEENS_4hashIS7_EENS_8equal_toIS7_EENS5_INS_4pairIKS7_SF_EEEEEEEENS_22__unordered_map_hasherIS7_SP_SH_SJ_Lb1EEENS_21__unordered_map_equalIS7_SP_SJ_SH_Lb1EEENS5_ISP_EEE25__emplace_unique_key_argsIS7_JRKNS_21piecewise_construct_tENS_5tupleIJRSL_EEENS10_IJEEEEEENSK_INS_15__hash_iteratorIPNS_11__hash_nodeISP_PvEEEEbEERKT_DpOT0_
PUBLIC 64924 0 std::__ndk1::unique_ptr<std::__ndk1::__hash_node<std::__ndk1::__hash_value_type<std::__ndk1::basic_string<char, std::__ndk1::char_traits<char>, std::__ndk1::allocator<char> >, std::__ndk1::unordered_map<std::__ndk1::basic_string<char, std::__ndk1::char_traits<char>, std::__ndk1::allocator<char> >, std::__ndk1::set<matjson::Value, std::__ndk1::less<matjson::Value>, std::__ndk1::allocator<matjson::Value> >, std::__ndk1::hash<std::__ndk1::basic_string<char, std::__ndk1::char_traits<char>, std::__ndk1::allocator<char> > >, std::__ndk1::equal_to<std::__ndk1::basic_string<char, std::__ndk1::char_traits<char>, std::__ndk1::allocator<char> > >, std::__ndk1::allocator<std::__ndk1::pair<std::__ndk1::basic_string<char, std::__ndk1::char_traits<char>, std::__ndk1::allocator<char> > const, std::__ndk1::set<matjson::Value, std::__ndk1::less<matjson::Value>, std::__ndk1::allocator<matjson::Value> > > > > >, void*>, std::__ndk1::__hash_node_destructor<std::__ndk1::allocator<std::__ndk1::__hash_node<std::__ndk1::__hash_value_type<std::__ndk1::basic_string<char, std::__ndk1::char_traits<char>, std::__ndk1::allocator<char> >, std::__ndk1::unordered_map<std::__ndk1::basic_string<char, std::__ndk1::char_traits<char>, std::__ndk1::allocator<char> >, std::__ndk1::set<matjson::Value, std::__ndk1::less<matjson::Value>, std::__ndk1::allocator<matjson::Value> >, std::__ndk1::hash<std::__ndk1::basic_string<char, std::__ndk1::char_traits<char>, std::__ndk1::allocator<char> > >, std::__ndk1::equal_to<std::__ndk1::basic_string<char, std::__ndk1::char_traits<char>, std::__ndk1::allocator<char> > >, std::__ndk1::allocator<std::__ndk1::pair<std::__ndk1::basic_string<char, std::__ndk1::char_traits<char>, std::__ndk1::allocator<char> > const, std::__ndk1::set<matjson::Value, std::__ndk1::less<matjson::Value>, std::__ndk1::allocator<matjson::Value> > > > > >, void*> > > >::~unique_ptr[abi:ne180000]()
PUBLIC 64968 0 _ZNSt6__ndk112__hash_tableINS_17__hash_value_typeINS_12basic_stringIcNS_11char_traitsIcEENS_9allocatorIcEEEENS_13unordered_mapIS7_NS_3setIN7matjson5ValueENS_4lessISB_EENS5_ISB_EEEENS_4hashIS7_EENS_8equal_toIS7_EENS5_INS_4pairIKS7_SF_EEEEEEEENS_22__unordered_map_hasherIS7_SP_SH_SJ_Lb1EEENS_21__unordered_map_equalIS7_SP_SJ_SH_Lb1EEENS5_ISP_EEE11__do_rehashILb1EEEvm
PUBLIC 64b40 0 _ZNSt6__ndk112__hash_tableINS_17__hash_value_typeINS_12basic_stringIcNS_11char_traitsIcEENS_9allocatorIcEEEENS_13unordered_mapIS7_NS_3setIN7matjson5ValueENS_4lessISB_EENS5_ISB_EEEENS_4hashIS7_EENS_8equal_toIS7_EENS5_INS_4pairIKS7_SF_EEEEEEEENS_22__unordered_map_hasherIS7_SP_SH_SJ_Lb1EEENS_21__unordered_map_equalIS7_SP_SJ_SH_Lb1EEENS5_ISP_EEE4findIS7_EENS_15__hash_iteratorIPNS_11__hash_nodeISP_PvEEEERKT_
PUBLIC 64d94 0 _ZNSt6__ndk112__hash_tableINS_17__hash_value_typeINS_12basic_stringIcNS_11char_traitsIcEENS_9allocatorIcEEEENS_13unordered_mapIS7_NS_3setIN7matjson5ValueENS_4lessISB_EENS5_ISB_EEEENS_4hashIS7_EENS_8equal_toIS7_EENS5_INS_4pairIKS7_SF_EEEEEEEENS_22__unordered_map_hasherIS7_SP_SH_SJ_Lb1EEENS_21__unordered_map_equalIS7_SP_SJ_SH_Lb1EEENS5_ISP_EEE6removeENS_21__hash_const_iteratorIPNS_11__hash_nodeISP_PvEEEE
PUBLIC 64ec8 0 std::__ndk1::__hash_table<std::__ndk1::__hash_value_type<std::__ndk1::basic_string<char, std::__ndk1::char_traits<char>, std::__ndk1::allocator<char> >, std::__ndk1::set<matjson::Value, std::__ndk1::less<matjson::Value>, std::__ndk1::allocator<matjson::Value> > >, std::__ndk1::__unordered_map_hasher<std::__ndk1::basic_string<char, std::__ndk1::char_traits<char>, std::__ndk1::allocator<char> >, std::__ndk1::__hash_value_type<std::__ndk1::basic_string<char, std::__ndk1::char_traits<char>, std::__ndk1::allocator<char> >, std::__ndk1::set<matjson::Value, std::__ndk1::less<matjson::Value>, std::__ndk1::allocator<matjson::Value> > >, std::__ndk1::hash<std::__ndk1::basic_string<char, std::__ndk1::char_traits<char>, std::__ndk1::allocator<char> > >, std::__ndk1::equal_to<std::__ndk1::basic_string<char, std::__ndk1::char_traits<char>, std::__ndk1::allocator<char> > >, true>, std::__ndk1::__unordered_map_equal<std::__ndk1::basic_string<char, std::__ndk1::char_traits<char>, std::__ndk1::allocator<char> >, std::__ndk1::__hash_value_type<std::__ndk1::basic_string<char, std::__ndk1::char_traits<char>, std::__ndk1::allocator<char> >, std::__ndk1::set<matjson::Value, std::__ndk1::less<matjson::Value>, std::__ndk1::allocator<matjson::Value> > >, std::__ndk1::equal_to<std::__ndk1::basic_string<char, std::__ndk1::char_traits<char>, std::__ndk1::allocator<char> > >, std::__ndk1::hash<std::__ndk1::basic_string<char, std::__ndk1::char_traits<char>, std::__ndk1::allocator<char> > >, true>, std::__ndk1::allocator<std::__ndk1::__hash_value_type<std::__ndk1::basic_string<char, std::__ndk1::char_traits<char>, std::__ndk1::allocator<char> >, std::__ndk1::set<matjson::Value, std::__ndk1::less<matjson::Value>, std::__ndk1::allocator<matjson::Value> > > > >::__emplace_unique_key_args<std::__ndk1::basic_string<char, std::__ndk1::char_traits<char>, std::__ndk1::allocator<char> >, std::__ndk1::piecewise_construct_t const&, std::__ndk1::tuple<std::__ndk1::basic_string<char, std::__ndk1::char_traits<char>, std::__ndk1::allocator<char> > const&>, std::__ndk1::tuple<> >(std::__ndk1::basic_string<char, std::__ndk1::char_traits<char>, std::__ndk1::allocator<char> > const&, std::__ndk1::piecewise_construct_t const&, std::__ndk1::tuple<std::__ndk1::basic_string<char, std::__ndk1::char_traits<char>, std::__ndk1::allocator<char> > const&>, std::__ndk1::tuple<>)
PUBLIC 6538c 0 std::__ndk1::unique_ptr<std::__ndk1::__hash_node<std::__ndk1::__hash_value_type<std::__ndk1::basic_string<char, std::__ndk1::char_traits<char>, std::__ndk1::allocator<char> >, std::__ndk1::set<matjson::Value, std::__ndk1::less<matjson::Value>, std::__ndk1::allocator<matjson::Value> > >, void*>, std::__ndk1::__hash_node_destructor<std::__ndk1::allocator<std::__ndk1::__hash_node<std::__ndk1::__hash_value_type<std::__ndk1::basic_string<char, std::__ndk1::char_traits<char>, std::__ndk1::allocator<char> >, std::__ndk1::set<matjson::Value, std::__ndk1::less<matjson::Value>, std::__ndk1::allocator<matjson::Value> > >, void*> > > >::~unique_ptr[abi:ne180000]()
PUBLIC 653e4 0 std::__ndk1::__hash_table<std::__ndk1::__hash_value_type<std::__ndk1::basic_string<char, std::__ndk1::char_traits<char>, std::__ndk1::allocator<char> >, std::__ndk1::set<matjson::Value, std::__ndk1::less<matjson::Value>, std::__ndk1::allocator<matjson::Value> > >, std::__ndk1::__unordered_map_hasher<std::__ndk1::basic_string<char, std::__ndk1::char_traits<char>, std::__ndk1::allocator<char> >, std::__ndk1::__hash_value_type<std::__ndk1::basic_string<char, std::__ndk1::char_traits<char>, std::__ndk1::allocator<char> >, std::__ndk1::set<matjson::Value, std::__ndk1::less<matjson::Value>, std::__ndk1::allocator<matjson::Value> > >, std::__ndk1::hash<std::__ndk1::basic_string<char, std::__ndk1::char_traits<char>, std::__ndk1::allocator<char> > >, std::__ndk1::equal_to<std::__ndk1::basic_string<char, std::__ndk1::char_traits<char>, std::__ndk1::allocator<char> > >, true>, std::__ndk1::__unordered_map_equal<std::__ndk1::basic_string<char, std::__ndk1::char_traits<char>, std::__ndk1::allocator<char> >, std::__ndk1::__hash_value_type<std::__ndk1::basic_string<char, std::__ndk1::char_traits<char>, std::__ndk1::allocator<char> >, std::__ndk1::set<matjson::Value, std::__ndk1::less<matjson::Value>, std::__ndk1::allocator<matjson::Value> > >, std::__ndk1::equal_to<std::__ndk1::basic_string<char, std::__ndk1::char_traits<char>, std::__ndk1::allocator<char> > >, std::__ndk1::hash<std::__ndk1::basic_string<char, std::__ndk1::char_traits<char>, std::__ndk1::allocator<char> > >, true>, std::__ndk1::allocator<std::__ndk1::__hash_value_type<std::__ndk1::basic_string<char, std::__ndk1::char_traits<char>, std::__ndk1::allocator<char> >, std::__ndk1::set<matjson::Value, std::__ndk1::less<matjson::Value>, std::__ndk1::allocator<matjson::Value> > > > >::__do_rehash<true>(unsigned long)
PUBLIC 655bc 0 std::__ndk1::__tree<matjson::Value, std::__ndk1::less<matjson::Value>, std::__ndk1::allocator<matjson::Value> >::__emplace_unique_key_args<matjson::Value, matjson::Value>(matjson::Value const&, matjson::Value&&)
PUBLIC 65710 0 std::__ndk1::unique_ptr<std::__ndk1::__tree_node<matjson::Value, void*>, std::__ndk1::__tree_node_destructor<std::__ndk1::allocator<std::__ndk1::__tree_node<matjson::Value, void*> > > >::~unique_ptr[abi:ne180000]()
PUBLIC 65754 0 std::__ndk1::__hash_table<std::__ndk1::__hash_value_type<std::__ndk1::basic_string<char, std::__ndk1::char_traits<char>, std::__ndk1::allocator<char> >, std::__ndk1::function<keybinds::Bind* (matjson::Value const&)> >, std::__ndk1::__unordered_map_hasher<std::__ndk1::basic_string<char, std::__ndk1::char_traits<char>, std::__ndk1::allocator<char> >, std::__ndk1::__hash_value_type<std::__ndk1::basic_string<char, std::__ndk1::char_traits<char>, std::__ndk1::allocator<char> >, std::__ndk1::function<keybinds::Bind* (matjson::Value const&)> >, std::__ndk1::hash<std::__ndk1::basic_string<char, std::__ndk1::char_traits<char>, std::__ndk1::allocator<char> > >, std::__ndk1::equal_to<std::__ndk1::basic_string<char, std::__ndk1::char_traits<char>, std::__ndk1::allocator<char> > >, true>, std::__ndk1::__unordered_map_equal<std::__ndk1::basic_string<char, std::__ndk1::char_traits<char>, std::__ndk1::allocator<char> >, std::__ndk1::__hash_value_type<std::__ndk1::basic_string<char, std::__ndk1::char_traits<char>, std::__ndk1::allocator<char> >, std::__ndk1::function<keybinds::Bind* (matjson::Value const&)> >, std::__ndk1::equal_to<std::__ndk1::basic_string<char, std::__ndk1::char_traits<char>, std::__ndk1::allocator<char> > >, std::__ndk1::hash<std::__ndk1::basic_string<char, std::__ndk1::char_traits<char>, std::__ndk1::allocator<char> > >, true>, std::__ndk1::allocator<std::__ndk1::__hash_value_type<std::__ndk1::basic_string<char, std::__ndk1::char_traits<char>, std::__ndk1::allocator<char> >, std::__ndk1::function<keybinds::Bind* (matjson::Value const&)> > > >::find<std::__ndk1::basic_string<char, std::__ndk1::char_traits<char>, std::__ndk1::allocator<char> > >(std::__ndk1::basic_string<char, std::__ndk1::char_traits<char>, std::__ndk1::allocator<char> > const&)
PUBLIC 659a8 0 std::__ndk1::__hash_table<std::__ndk1::__hash_value_type<std::__ndk1::basic_string<char, std::__ndk1::char_traits<char>, std::__ndk1::allocator<char> >, std::__ndk1::function<keybinds::Bind* (matjson::Value const&)> >, std::__ndk1::__unordered_map_hasher<std::__ndk1::basic_string<char, std::__ndk1::char_traits<char>, std::__ndk1::allocator<char> >, std::__ndk1::__hash_value_type<std::__ndk1::basic_string<char, std::__ndk1::char_traits<char>, std::__ndk1::allocator<char> >, std::__ndk1::function<keybinds::Bind* (matjson::Value const&)> >, std::__ndk1::hash<std::__ndk1::basic_string<char, std::__ndk1::char_traits<char>, std::__ndk1::allocator<char> > >, std::__ndk1::equal_to<std::__ndk1::basic_string<char, std::__ndk1::char_traits<char>, std::__ndk1::allocator<char> > >, true>, std::__ndk1::__unordered_map_equal<std::__ndk1::basic_string<char, std::__ndk1::char_traits<char>, std::__ndk1::allocator<char> >, std::__ndk1::__hash_value_type<std::__ndk1::basic_string<char, std::__ndk1::char_traits<char>, std::__ndk1::allocator<char> >, std::__ndk1::function<keybinds::Bind* (matjson::Value const&)> >, std::__ndk1::equal_to<std::__ndk1::basic_string<char, std::__ndk1::char_traits<char>, std::__ndk1::allocator<char> > >, std::__ndk1::hash<std::__ndk1::basic_string<char, std::__ndk1::char_traits<char>, std::__ndk1::allocator<char> > >, true>, std::__ndk1::allocator<std::__ndk1::__hash_value_type<std::__ndk1::basic_string<char, std::__ndk1::char_traits<char>, std::__ndk1::allocator<char> >, std::__ndk1::function<keybinds::Bind* (matjson::Value const&)> > > >::remove(std::__ndk1::__hash_const_iterator<std::__ndk1::__hash_node<std::__ndk1::__hash_value_type<std::__ndk1::basic_string<char, std::__ndk1::char_traits<char>, std::__ndk1::allocator<char> >, std::__ndk1::function<keybinds::Bind* (matjson::Value const&)> >, void*>*>)
PUBLIC 65adc 0 _ZNSt6__ndk112__hash_tableINS_17__hash_value_typeINS_12basic_stringIcNS_11char_traitsIcEENS_9allocatorIcEEEENS_13unordered_mapIS7_NS_3setIN7matjson5ValueENS_4lessISB_EENS5_ISB_EEEENS_4hashIS7_EENS_8equal_toIS7_EENS5_INS_4pairIKS7_SF_EEEEEEEENS_22__unordered_map_hasherIS7_SP_SH_SJ_Lb1EEENS_21__unordered_map_equalIS7_SP_SJ_SH_Lb1EEENS5_ISP_EEE25__emplace_unique_key_argsIS7_JRKNS_21piecewise_construct_tENS_5tupleIJOS7_EEENS10_IJEEEEEENSK_INS_15__hash_iteratorIPNS_11__hash_nodeISP_PvEEEEbEERKT_DpOT0_
PUBLIC 65f54 0 std::__ndk1::__tree<matjson::Value, std::__ndk1::less<matjson::Value>, std::__ndk1::allocator<matjson::Value> >::__emplace_unique_key_args<matjson::Value, matjson::Value const&>(matjson::Value const&, matjson::Value const&)
PUBLIC 660a8 0 std::__ndk1::__hash_table<std::__ndk1::__hash_value_type<std::__ndk1::basic_string<char, std::__ndk1::char_traits<char>, std::__ndk1::allocator<char> >, std::__ndk1::set<matjson::Value, std::__ndk1::less<matjson::Value>, std::__ndk1::allocator<matjson::Value> > >, std::__ndk1::__unordered_map_hasher<std::__ndk1::basic_string<char, std::__ndk1::char_traits<char>, std::__ndk1::allocator<char> >, std::__ndk1::__hash_value_type<std::__ndk1::basic_string<char, std::__ndk1::char_traits<char>, std::__ndk1::allocator<char> >, std::__ndk1::set<matjson::Value, std::__ndk1::less<matjson::Value>, std::__ndk1::allocator<matjson::Value> > >, std::__ndk1::hash<std::__ndk1::basic_string<char, std::__ndk1::char_traits<char>, std::__ndk1::allocator<char> > >, std::__ndk1::equal_to<std::__ndk1::basic_string<char, std::__ndk1::char_traits<char>, std::__ndk1::allocator<char> > >, true>, std::__ndk1::__unordered_map_equal<std::__ndk1::basic_string<char, std::__ndk1::char_traits<char>, std::__ndk1::allocator<char> >, std::__ndk1::__hash_value_type<std::__ndk1::basic_string<char, std::__ndk1::char_traits<char>, std::__ndk1::allocator<char> >, std::__ndk1::set<matjson::Value, std::__ndk1::less<matjson::Value>, std::__ndk1::allocator<matjson::Value> > >, std::__ndk1::equal_to<std::__ndk1::basic_string<char, std::__ndk1::char_traits<char>, std::__ndk1::allocator<char> > >, std::__ndk1::hash<std::__ndk1::basic_string<char, std::__ndk1::char_traits<char>, std::__ndk1::allocator<char> > >, true>, std::__ndk1::allocator<std::__ndk1::__hash_value_type<std::__ndk1::basic_string<char, std::__ndk1::char_traits<char>, std::__ndk1::allocator<char> >, std::__ndk1::set<matjson::Value, std::__ndk1::less<matjson::Value>, std::__ndk1::allocator<matjson::Value> > > > >::find<std::__ndk1::basic_string<char, std::__ndk1::char_traits<char>, std::__ndk1::allocator<char> > >(std::__ndk1::basic_string<char, std::__ndk1::char_traits<char>, std::__ndk1::allocator<char> > const&) const
PUBLIC 662fc 0 std::__ndk1::__hash_table<std::__ndk1::__hash_value_type<std::__ndk1::basic_string<char, std::__ndk1::char_traits<char>, std::__ndk1::allocator<char> >, std::__ndk1::set<matjson::Value, std::__ndk1::less<matjson::Value>, std::__ndk1::allocator<matjson::Value> > >, std::__ndk1::__unordered_map_hasher<std::__ndk1::basic_string<char, std::__ndk1::char_traits<char>, std::__ndk1::allocator<char> >, std::__ndk1::__hash_value_type<std::__ndk1::basic_string<char, std::__ndk1::char_traits<char>, std::__ndk1::allocator<char> >, std::__ndk1::set<matjson::Value, std::__ndk1::less<matjson::Value>, std::__ndk1::allocator<matjson::Value> > >, std::__ndk1::hash<std::__ndk1::basic_string<char, std::__ndk1::char_traits<char>, std::__ndk1::allocator<char> > >, std::__ndk1::equal_to<std::__ndk1::basic_string<char, std::__ndk1::char_traits<char>, std::__ndk1::allocator<char> > >, true>, std::__ndk1::__unordered_map_equal<std::__ndk1::basic_string<char, std::__ndk1::char_traits<char>, std::__ndk1::allocator<char> >, std::__ndk1::__hash_value_type<std::__ndk1::basic_string<char, std::__ndk1::char_traits<char>, std::__ndk1::allocator<char> >, std::__ndk1::set<matjson::Value, std::__ndk1::less<matjson::Value>, std::__ndk1::allocator<matjson::Value> > >, std::__ndk1::equal_to<std::__ndk1::basic_string<char, std::__ndk1::char_traits<char>, std::__ndk1::allocator<char> > >, std::__ndk1::hash<std::__ndk1::basic_string<char, std::__ndk1::char_traits<char>, std::__ndk1::allocator<char> > >, true>, std::__ndk1::allocator<std::__ndk1::__hash_value_type<std::__ndk1::basic_string<char, std::__ndk1::char_traits<char>, std::__ndk1::allocator<char> >, std::__ndk1::set<matjson::Value, std::__ndk1::less<matjson::Value>, std::__ndk1::allocator<matjson::Value> > > > >::find<std::__ndk1::basic_string<char, std::__ndk1::char_traits<char>, std::__ndk1::allocator<char> > >(std::__ndk1::basic_string<char, std::__ndk1::char_traits<char>, std::__ndk1::allocator<char> > const&)
PUBLIC 66550 0 std::__ndk1::vector<std::__ndk1::pair<std::__ndk1::basic_string<char, std::__ndk1::char_traits<char>, std::__ndk1::allocator<char> >, keybinds::BindManager::ActionData>, std::__ndk1::allocator<std::__ndk1::pair<std::__ndk1::basic_string<char, std::__ndk1::char_traits<char>, std::__ndk1::allocator<char> >, keybinds::BindManager::ActionData> > >::erase(std::__ndk1::__wrap_iter<std::__ndk1::pair<std::__ndk1::basic_string<char, std::__ndk1::char_traits<char>, std::__ndk1::allocator<char> >, keybinds::BindManager::ActionData> const*>, std::__ndk1::__wrap_iter<std::__ndk1::pair<std::__ndk1::basic_string<char, std::__ndk1::char_traits<char>, std::__ndk1::allocator<char> >, keybinds::BindManager::ActionData> const*>)
PUBLIC 66678 0 std::__ndk1::__hash_table<std::__ndk1::__hash_value_type<keybinds::BindHash, std::__ndk1::vector<std::__ndk1::basic_string<char, std::__ndk1::char_traits<char>, std::__ndk1::allocator<char> >, std::__ndk1::allocator<std::__ndk1::basic_string<char, std::__ndk1::char_traits<char>, std::__ndk1::allocator<char> > > > >, std::__ndk1::__unordered_map_hasher<keybinds::BindHash, std::__ndk1::__hash_value_type<keybinds::BindHash, std::__ndk1::vector<std::__ndk1::basic_string<char, std::__ndk1::char_traits<char>, std::__ndk1::allocator<char> >, std::__ndk1::allocator<std::__ndk1::basic_string<char, std::__ndk1::char_traits<char>, std::__ndk1::allocator<char> > > > >, std::__ndk1::hash<keybinds::BindHash>, std::__ndk1::equal_to<keybinds::BindHash>, true>, std::__ndk1::__unordered_map_equal<keybinds::BindHash, std::__ndk1::__hash_value_type<keybinds::BindHash, std::__ndk1::vector<std::__ndk1::basic_string<char, std::__ndk1::char_traits<char>, std::__ndk1::allocator<char> >, std::__ndk1::allocator<std::__ndk1::basic_string<char, std::__ndk1::char_traits<char>, std::__ndk1::allocator<char> > > > >, std::__ndk1::equal_to<keybinds::BindHash>, std::__ndk1::hash<keybinds::BindHash>, true>, std::__ndk1::allocator<std::__ndk1::__hash_value_type<keybinds::BindHash, std::__ndk1::vector<std::__ndk1::basic_string<char, std::__ndk1::char_traits<char>, std::__ndk1::allocator<char> >, std::__ndk1::allocator<std::__ndk1::basic_string<char, std::__ndk1::char_traits<char>, std::__ndk1::allocator<char> > > > > > >::find<keybinds::BindHash>(keybinds::BindHash const&) const
PUBLIC 66840 0 std::__ndk1::__hash_table<std::__ndk1::__hash_value_type<keybinds::BindHash, std::__ndk1::vector<std::__ndk1::basic_string<char, std::__ndk1::char_traits<char>, std::__ndk1::allocator<char> >, std::__ndk1::allocator<std::__ndk1::basic_string<char, std::__ndk1::char_traits<char>, std::__ndk1::allocator<char> > > > >, std::__ndk1::__unordered_map_hasher<keybinds::BindHash, std::__ndk1::__hash_value_type<keybinds::BindHash, std::__ndk1::vector<std::__ndk1::basic_string<char, std::__ndk1::char_traits<char>, std::__ndk1::allocator<char> >, std::__ndk1::allocator<std::__ndk1::basic_string<char, std::__ndk1::char_traits<char>, std::__ndk1::allocator<char> > > > >, std::__ndk1::hash<keybinds::BindHash>, std::__ndk1::equal_to<keybinds::BindHash>, true>, std::__ndk1::__unordered_map_equal<keybinds::BindHash, std::__ndk1::__hash_value_type<keybinds::BindHash, std::__ndk1::vector<std::__ndk1::basic_string<char, std::__ndk1::char_traits<char>, std::__ndk1::allocator<char> >, std::__ndk1::allocator<std::__ndk1::basic_string<char, std::__ndk1::char_traits<char>, std::__ndk1::allocator<char> > > > >, std::__ndk1::equal_to<keybinds::BindHash>, std::__ndk1::hash<keybinds::BindHash>, true>, std::__ndk1::allocator<std::__ndk1::__hash_value_type<keybinds::BindHash, std::__ndk1::vector<std::__ndk1::basic_string<char, std::__ndk1::char_traits<char>, std::__ndk1::allocator<char> >, std::__ndk1::allocator<std::__ndk1::basic_string<char, std::__ndk1::char_traits<char>, std::__ndk1::allocator<char> > > > > > >::__emplace_unique_key_args<keybinds::BindHash, std::__ndk1::piecewise_construct_t const&, std::__ndk1::tuple<keybinds::BindHash&&>, std::__ndk1::tuple<> >(keybinds::BindHash const&, std::__ndk1::piecewise_construct_t const&, std::__ndk1::tuple<keybinds::BindHash&&>, std::__ndk1::tuple<>)
PUBLIC 66c90 0 std::__ndk1::__hash_table<std::__ndk1::__hash_value_type<keybinds::BindHash, std::__ndk1::vector<std::__ndk1::basic_string<char, std::__ndk1::char_traits<char>, std::__ndk1::allocator<char> >, std::__ndk1::allocator<std::__ndk1::basic_string<char, std::__ndk1::char_traits<char>, std::__ndk1::allocator<char> > > > >, std::__ndk1::__unordered_map_hasher<keybinds::BindHash, std::__ndk1::__hash_value_type<keybinds::BindHash, std::__ndk1::vector<std::__ndk1::basic_string<char, std::__ndk1::char_traits<char>, std::__ndk1::allocator<char> >, std::__ndk1::allocator<std::__ndk1::basic_string<char, std::__ndk1::char_traits<char>, std::__ndk1::allocator<char> > > > >, std::__ndk1::hash<keybinds::BindHash>, std::__ndk1::equal_to<keybinds::BindHash>, true>, std::__ndk1::__unordered_map_equal<keybinds::BindHash, std::__ndk1::__hash_value_type<keybinds::BindHash, std::__ndk1::vector<std::__ndk1::basic_string<char, std::__ndk1::char_traits<char>, std::__ndk1::allocator<char> >, std::__ndk1::allocator<std::__ndk1::basic_string<char, std::__ndk1::char_traits<char>, std::__ndk1::allocator<char> > > > >, std::__ndk1::equal_to<keybinds::BindHash>, std::__ndk1::hash<keybinds::BindHash>, true>, std::__ndk1::allocator<std::__ndk1::__hash_value_type<keybinds::BindHash, std::__ndk1::vector<std::__ndk1::basic_string<char, std::__ndk1::char_traits<char>, std::__ndk1::allocator<char> >, std::__ndk1::allocator<std::__ndk1::basic_string<char, std::__ndk1::char_traits<char>, std::__ndk1::allocator<char> > > > > > >::__do_rehash<true>(unsigned long)
PUBLIC 66e68 0 std::__ndk1::unique_ptr<std::__ndk1::__hash_node<std::__ndk1::__hash_value_type<keybinds::BindHash, std::__ndk1::vector<std::__ndk1::basic_string<char, std::__ndk1::char_traits<char>, std::__ndk1::allocator<char> >, std::__ndk1::allocator<std::__ndk1::basic_string<char, std::__ndk1::char_traits<char>, std::__ndk1::allocator<char> > > > >, void*>, std::__ndk1::__hash_node_destructor<std::__ndk1::allocator<std::__ndk1::__hash_node<std::__ndk1::__hash_value_type<keybinds::BindHash, std::__ndk1::vector<std::__ndk1::basic_string<char, std::__ndk1::char_traits<char>, std::__ndk1::allocator<char> >, std::__ndk1::allocator<std::__ndk1::basic_string<char, std::__ndk1::char_traits<char>, std::__ndk1::allocator<char> > > > >, void*> > > >::reset[abi:ne180000](std::__ndk1::__hash_node<std::__ndk1::__hash_value_type<keybinds::BindHash, std::__ndk1::vector<std::__ndk1::basic_string<char, std::__ndk1::char_traits<char>, std::__ndk1::allocator<char> >, std::__ndk1::allocator<std::__ndk1::basic_string<char, std::__ndk1::char_traits<char>, std::__ndk1::allocator<char> > > > >, void*>*)
PUBLIC 66f0c 0 std::__ndk1::remove[abi:ne180000]<std::__ndk1::__wrap_iter<std::__ndk1::basic_string<char, std::__ndk1::char_traits<char>, std::__ndk1::allocator<char> >*>, std::__ndk1::allocator<char> >(std::__ndk1::__wrap_iter<std::__ndk1::basic_string<char, std::__ndk1::char_traits<char>, std::__ndk1::allocator<char> >*>, std::__ndk1::__wrap_iter<std::__ndk1::basic_string<char, std::__ndk1::char_traits<char>, std::__ndk1::allocator<char> >*>, std::__ndk1::allocator<char> const&)
PUBLIC 670d4 0 std::__ndk1::__hash_table<std::__ndk1::__hash_value_type<keybinds::BindHash, std::__ndk1::vector<std::__ndk1::basic_string<char, std::__ndk1::char_traits<char>, std::__ndk1::allocator<char> >, std::__ndk1::allocator<std::__ndk1::basic_string<char, std::__ndk1::char_traits<char>, std::__ndk1::allocator<char> > > > >, std::__ndk1::__unordered_map_hasher<keybinds::BindHash, std::__ndk1::__hash_value_type<keybinds::BindHash, std::__ndk1::vector<std::__ndk1::basic_string<char, std::__ndk1::char_traits<char>, std::__ndk1::allocator<char> >, std::__ndk1::allocator<std::__ndk1::basic_string<char, std::__ndk1::char_traits<char>, std::__ndk1::allocator<char> > > > >, std::__ndk1::hash<keybinds::BindHash>, std::__ndk1::equal_to<keybinds::BindHash>, true>, std::__ndk1::__unordered_map_equal<keybinds::BindHash, std::__ndk1::__hash_value_type<keybinds::BindHash, std::__ndk1::vector<std::__ndk1::basic_string<char, std::__ndk1::char_traits<char>, std::__ndk1::allocator<char> >, std::__ndk1::allocator<std::__ndk1::basic_string<char, std::__ndk1::char_traits<char>, std::__ndk1::allocator<char> > > > >, std::__ndk1::equal_to<keybinds::BindHash>, std::__ndk1::hash<keybinds::BindHash>, true>, std::__ndk1::allocator<std::__ndk1::__hash_value_type<keybinds::BindHash, std::__ndk1::vector<std::__ndk1::basic_string<char, std::__ndk1::char_traits<char>, std::__ndk1::allocator<char> >, std::__ndk1::allocator<std::__ndk1::basic_string<char, std::__ndk1::char_traits<char>, std::__ndk1::allocator<char> > > > > > >::find<keybinds::BindHash>(keybinds::BindHash const&)
PUBLIC 6729c 0 std::__ndk1::__hash_table<std::__ndk1::__hash_value_type<keybinds::BindHash, std::__ndk1::vector<std::__ndk1::basic_string<char, std::__ndk1::char_traits<char>, std::__ndk1::allocator<char> >, std::__ndk1::allocator<std::__ndk1::basic_string<char, std::__ndk1::char_traits<char>, std::__ndk1::allocator<char> > > > >, std::__ndk1::__unordered_map_hasher<keybinds::BindHash, std::__ndk1::__hash_value_type<keybinds::BindHash, std::__ndk1::vector<std::__ndk1::basic_string<char, std::__ndk1::char_traits<char>, std::__ndk1::allocator<char> >, std::__ndk1::allocator<std::__ndk1::basic_string<char, std::__ndk1::char_traits<char>, std::__ndk1::allocator<char> > > > >, std::__ndk1::hash<keybinds::BindHash>, std::__ndk1::equal_to<keybinds::BindHash>, true>, std::__ndk1::__unordered_map_equal<keybinds::BindHash, std::__ndk1::__hash_value_type<keybinds::BindHash, std::__ndk1::vector<std::__ndk1::basic_string<char, std::__ndk1::char_traits<char>, std::__ndk1::allocator<char> >, std::__ndk1::allocator<std::__ndk1::basic_string<char, std::__ndk1::char_traits<char>, std::__ndk1::allocator<char> > > > >, std::__ndk1::equal_to<keybinds::BindHash>, std::__ndk1::hash<keybinds::BindHash>, true>, std::__ndk1::allocator<std::__ndk1::__hash_value_type<keybinds::BindHash, std::__ndk1::vector<std::__ndk1::basic_string<char, std::__ndk1::char_traits<char>, std::__ndk1::allocator<char> >, std::__ndk1::allocator<std::__ndk1::basic_string<char, std::__ndk1::char_traits<char>, std::__ndk1::allocator<char> > > > > > >::remove(std::__ndk1::__hash_const_iterator<std::__ndk1::__hash_node<std::__ndk1::__hash_value_type<keybinds::BindHash, std::__ndk1::vector<std::__ndk1::basic_string<char, std::__ndk1::char_traits<char>, std::__ndk1::allocator<char> >, std::__ndk1::allocator<std::__ndk1::basic_string<char, std::__ndk1::char_traits<char>, std::__ndk1::allocator<char> > > > >, void*>*>)
PUBLIC 673d0 0 std::__ndk1::__hash_table<std::__ndk1::__hash_value_type<std::__ndk1::basic_string<char, std::__ndk1::char_traits<char>, std::__ndk1::allocator<char> >, float>, std::__ndk1::__unordered_map_hasher<std::__ndk1::basic_string<char, std::__ndk1::char_traits<char>, std::__ndk1::allocator<char> >, std::__ndk1::__hash_value_type<std::__ndk1::basic_string<char, std::__ndk1::char_traits<char>, std::__ndk1::allocator<char> >, float>, std::__ndk1::hash<std::__ndk1::basic_string<char, std::__ndk1::char_traits<char>, std::__ndk1::allocator<char> > >, std::__ndk1::equal_to<std::__ndk1::basic_string<char, std::__ndk1::char_traits<char>, std::__ndk1::allocator<char> > >, true>, std::__ndk1::__unordered_map_equal<std::__ndk1::basic_string<char, std::__ndk1::char_traits<char>, std::__ndk1::allocator<char> >, std::__ndk1::__hash_value_type<std::__ndk1::basic_string<char, std::__ndk1::char_traits<char>, std::__ndk1::allocator<char> >, float>, std::__ndk1::equal_to<std::__ndk1::basic_string<char, std::__ndk1::char_traits<char>, std::__ndk1::allocator<char> > >, std::__ndk1::hash<std::__ndk1::basic_string<char, std::__ndk1::char_traits<char>, std::__ndk1::allocator<char> > >, true>, std::__ndk1::allocator<std::__ndk1::__hash_value_type<std::__ndk1::basic_string<char, std::__ndk1::char_traits<char>, std::__ndk1::allocator<char> >, float> > >::find<std::__ndk1::basic_string<char, std::__ndk1::char_traits<char>, std::__ndk1::allocator<char> > >(std::__ndk1::basic_string<char, std::__ndk1::char_traits<char>, std::__ndk1::allocator<char> > const&) const
PUBLIC 67624 0 std::__ndk1::__hash_table<std::__ndk1::__hash_value_type<std::__ndk1::basic_string<char, std::__ndk1::char_traits<char>, std::__ndk1::allocator<char> >, std::__ndk1::unordered_set<unsigned long, std::__ndk1::hash<unsigned long>, std::__ndk1::equal_to<unsigned long>, std::__ndk1::allocator<unsigned long> > >, std::__ndk1::__unordered_map_hasher<std::__ndk1::basic_string<char, std::__ndk1::char_traits<char>, std::__ndk1::allocator<char> >, std::__ndk1::__hash_value_type<std::__ndk1::basic_string<char, std::__ndk1::char_traits<char>, std::__ndk1::allocator<char> >, std::__ndk1::unordered_set<unsigned long, std::__ndk1::hash<unsigned long>, std::__ndk1::equal_to<unsigned long>, std::__ndk1::allocator<unsigned long> > >, std::__ndk1::hash<std::__ndk1::basic_string<char, std::__ndk1::char_traits<char>, std::__ndk1::allocator<char> > >, std::__ndk1::equal_to<std::__ndk1::basic_string<char, std::__ndk1::char_traits<char>, std::__ndk1::allocator<char> > >, true>, std::__ndk1::__unordered_map_equal<std::__ndk1::basic_string<char, std::__ndk1::char_traits<char>, std::__ndk1::allocator<char> >, std::__ndk1::__hash_value_type<std::__ndk1::basic_string<char, std::__ndk1::char_traits<char>, std::__ndk1::allocator<char> >, std::__ndk1::unordered_set<unsigned long, std::__ndk1::hash<unsigned long>, std::__ndk1::equal_to<unsigned long>, std::__ndk1::allocator<unsigned long> > >, std::__ndk1::equal_to<std::__ndk1::basic_string<char, std::__ndk1::char_traits<char>, std::__ndk1::allocator<char> > >, std::__ndk1::hash<std::__ndk1::basic_string<char, std::__ndk1::char_traits<char>, std::__ndk1::allocator<char> > >, true>, std::__ndk1::allocator<std::__ndk1::__hash_value_type<std::__ndk1::basic_string<char, std::__ndk1::char_traits<char>, std::__ndk1::allocator<char> >, std::__ndk1::unordered_set<unsigned long, std::__ndk1::hash<unsigned long>, std::__ndk1::equal_to<unsigned long>, std::__ndk1::allocator<unsigned long> > > > >::find<std::__ndk1::basic_string<char, std::__ndk1::char_traits<char>, std::__ndk1::allocator<char> > >(std::__ndk1::basic_string<char, std::__ndk1::char_traits<char>, std::__ndk1::allocator<char> > const&) const
PUBLIC 67878 0 std::__ndk1::__hash_table<std::__ndk1::__hash_value_type<std::__ndk1::basic_string<char, std::__ndk1::char_traits<char>, std::__ndk1::allocator<char> >, std::__ndk1::unordered_set<unsigned long, std::__ndk1::hash<unsigned long>, std::__ndk1::equal_to<unsigned long>, std::__ndk1::allocator<unsigned long> > >, std::__ndk1::__unordered_map_hasher<std::__ndk1::basic_string<char, std::__ndk1::char_traits<char>, std::__ndk1::allocator<char> >, std::__ndk1::__hash_value_type<std::__ndk1::basic_string<char, std::__ndk1::char_traits<char>, std::__ndk1::allocator<char> >, std::__ndk1::unordered_set<unsigned long, std::__ndk1::hash<unsigned long>, std::__ndk1::equal_to<unsigned long>, std::__ndk1::allocator<unsigned long> > >, std::__ndk1::hash<std::__ndk1::basic_string<char, std::__ndk1::char_traits<char>, std::__ndk1::allocator<char> > >, std::__ndk1::equal_to<std::__ndk1::basic_string<char, std::__ndk1::char_traits<char>, std::__ndk1::allocator<char> > >, true>, std::__ndk1::__unordered_map_equal<std::__ndk1::basic_string<char, std::__ndk1::char_traits<char>, std::__ndk1::allocator<char> >, std::__ndk1::__hash_value_type<std::__ndk1::basic_string<char, std::__ndk1::char_traits<char>, std::__ndk1::allocator<char> >, std::__ndk1::unordered_set<unsigned long, std::__ndk1::hash<unsigned long>, std::__ndk1::equal_to<unsigned long>, std::__ndk1::allocator<unsigned long> > >, std::__ndk1::equal_to<std::__ndk1::basic_string<char, std::__ndk1::char_traits<char>, std::__ndk1::allocator<char> > >, std::__ndk1::hash<std::__ndk1::basic_string<char, std::__ndk1::char_traits<char>, std::__ndk1::allocator<char> > >, true>, std::__ndk1::allocator<std::__ndk1::__hash_value_type<std::__ndk1::basic_string<char, std::__ndk1::char_traits<char>, std::__ndk1::allocator<char> >, std::__ndk1::unordered_set<unsigned long, std::__ndk1::hash<unsigned long>, std::__ndk1::equal_to<unsigned long>, std::__ndk1::allocator<unsigned long> > > > >::find<std::__ndk1::basic_string<char, std::__ndk1::char_traits<char>, std::__ndk1::allocator<char> > >(std::__ndk1::basic_string<char, std::__ndk1::char_traits<char>, std::__ndk1::allocator<char> > const&)
PUBLIC 67acc 0 std::__ndk1::__hash_table<std::__ndk1::__hash_value_type<std::__ndk1::basic_string<char, std::__ndk1::char_traits<char>, std::__ndk1::allocator<char> >, std::__ndk1::unordered_set<unsigned long, std::__ndk1::hash<unsigned long>, std::__ndk1::equal_to<unsigned long>, std::__ndk1::allocator<unsigned long> > >, std::__ndk1::__unordered_map_hasher<std::__ndk1::basic_string<char, std::__ndk1::char_traits<char>, std::__ndk1::allocator<char> >, std::__ndk1::__hash_value_type<std::__ndk1::basic_string<char, std::__ndk1::char_traits<char>, std::__ndk1::allocator<char> >, std::__ndk1::unordered_set<unsigned long, std::__ndk1::hash<unsigned long>, std::__ndk1::equal_to<unsigned long>, std::__ndk1::allocator<unsigned long> > >, std::__ndk1::hash<std::__ndk1::basic_string<char, std::__ndk1::char_traits<char>, std::__ndk1::allocator<char> > >, std::__ndk1::equal_to<std::__ndk1::basic_string<char, std::__ndk1::char_traits<char>, std::__ndk1::allocator<char> > >, true>, std::__ndk1::__unordered_map_equal<std::__ndk1::basic_string<char, std::__ndk1::char_traits<char>, std::__ndk1::allocator<char> >, std::__ndk1::__hash_value_type<std::__ndk1::basic_string<char, std::__ndk1::char_traits<char>, std::__ndk1::allocator<char> >, std::__ndk1::unordered_set<unsigned long, std::__ndk1::hash<unsigned long>, std::__ndk1::equal_to<unsigned long>, std::__ndk1::allocator<unsigned long> > >, std::__ndk1::equal_to<std::__ndk1::basic_string<char, std::__ndk1::char_traits<char>, std::__ndk1::allocator<char> > >, std::__ndk1::hash<std::__ndk1::basic_string<char, std::__ndk1::char_traits<char>, std::__ndk1::allocator<char> > >, true>, std::__ndk1::allocator<std::__ndk1::__hash_value_type<std::__ndk1::basic_string<char, std::__ndk1::char_traits<char>, std::__ndk1::allocator<char> >, std::__ndk1::unordered_set<unsigned long, std::__ndk1::hash<unsigned long>, std::__ndk1::equal_to<unsigned long>, std::__ndk1::allocator<unsigned long> > > > >::__emplace_unique_key_args<std::__ndk1::basic_string<char, std::__ndk1::char_traits<char>, std::__ndk1::allocator<char> >, std::__ndk1::pair<std::__ndk1::basic_string<char, std::__ndk1::char_traits<char>, std::__ndk1::allocator<char> >, std::__ndk1::unordered_set<unsigned long, std::__ndk1::hash<unsigned long>, std::__ndk1::equal_to<unsigned long>, std::__ndk1::allocator<unsigned long> > > >(std::__ndk1::basic_string<char, std::__ndk1::char_traits<char>, std::__ndk1::allocator<char> > const&, std::__ndk1::pair<std::__ndk1::basic_string<char, std::__ndk1::char_traits<char>, std::__ndk1::allocator<char> >, std::__ndk1::unordered_set<unsigned long, std::__ndk1::hash<unsigned long>, std::__ndk1::equal_to<unsigned long>, std::__ndk1::allocator<unsigned long> > >&&)
PUBLIC 67f8c 0 std::__ndk1::unique_ptr<std::__ndk1::__hash_node<std::__ndk1::__hash_value_type<std::__ndk1::basic_string<char, std::__ndk1::char_traits<char>, std::__ndk1::allocator<char> >, std::__ndk1::unordered_set<unsigned long, std::__ndk1::hash<unsigned long>, std::__ndk1::equal_to<unsigned long>, std::__ndk1::allocator<unsigned long> > >, void*>, std::__ndk1::__hash_node_destructor<std::__ndk1::allocator<std::__ndk1::__hash_node<std::__ndk1::__hash_value_type<std::__ndk1::basic_string<char, std::__ndk1::char_traits<char>, std::__ndk1::allocator<char> >, std::__ndk1::unordered_set<unsigned long, std::__ndk1::hash<unsigned long>, std::__ndk1::equal_to<unsigned long>, std::__ndk1::allocator<unsigned long> > >, void*> > > >::~unique_ptr[abi:ne180000]()
PUBLIC 68000 0 std::__ndk1::__hash_table<std::__ndk1::__hash_value_type<std::__ndk1::basic_string<char, std::__ndk1::char_traits<char>, std::__ndk1::allocator<char> >, std::__ndk1::unordered_set<unsigned long, std::__ndk1::hash<unsigned long>, std::__ndk1::equal_to<unsigned long>, std::__ndk1::allocator<unsigned long> > >, std::__ndk1::__unordered_map_hasher<std::__ndk1::basic_string<char, std::__ndk1::char_traits<char>, std::__ndk1::allocator<char> >, std::__ndk1::__hash_value_type<std::__ndk1::basic_string<char, std::__ndk1::char_traits<char>, std::__ndk1::allocator<char> >, std::__ndk1::unordered_set<unsigned long, std::__ndk1::hash<unsigned long>, std::__ndk1::equal_to<unsigned long>, std::__ndk1::allocator<unsigned long> > >, std::__ndk1::hash<std::__ndk1::basic_string<char, std::__ndk1::char_traits<char>, std::__ndk1::allocator<char> > >, std::__ndk1::equal_to<std::__ndk1::basic_string<char, std::__ndk1::char_traits<char>, std::__ndk1::allocator<char> > >, true>, std::__ndk1::__unordered_map_equal<std::__ndk1::basic_string<char, std::__ndk1::char_traits<char>, std::__ndk1::allocator<char> >, std::__ndk1::__hash_value_type<std::__ndk1::basic_string<char, std::__ndk1::char_traits<char>, std::__ndk1::allocator<char> >, std::__ndk1::unordered_set<unsigned long, std::__ndk1::hash<unsigned long>, std::__ndk1::equal_to<unsigned long>, std::__ndk1::allocator<unsigned long> > >, std::__ndk1::equal_to<std::__ndk1::basic_string<char, std::__ndk1::char_traits<char>, std::__ndk1::allocator<char> > >, std::__ndk1::hash<std::__ndk1::basic_string<char, std::__ndk1::char_traits<char>, std::__ndk1::allocator<char> > >, true>, std::__ndk1::allocator<std::__ndk1::__hash_value_type<std::__ndk1::basic_string<char, std::__ndk1::char_traits<char>, std::__ndk1::allocator<char> >, std::__ndk1::unordered_set<unsigned long, std::__ndk1::hash<unsigned long>, std::__ndk1::equal_to<unsigned long>, std::__ndk1::allocator<unsigned long> > > > >::__do_rehash<true>(unsigned long)
PUBLIC 681d8 0 std::__ndk1::__hash_table<unsigned long, std::__ndk1::hash<unsigned long>, std::__ndk1::equal_to<unsigned long>, std::__ndk1::allocator<unsigned long> >::__emplace_unique_key_args<unsigned long, unsigned long>(unsigned long const&, unsigned long&&)
PUBLIC 684fc 0 std::__ndk1::__hash_table<unsigned long, std::__ndk1::hash<unsigned long>, std::__ndk1::equal_to<unsigned long>, std::__ndk1::allocator<unsigned long> >::__erase_unique<unsigned long>(unsigned long const&)
PUBLIC 6863c 0 std::__ndk1::__hash_table<unsigned long, std::__ndk1::hash<unsigned long>, std::__ndk1::equal_to<unsigned long>, std::__ndk1::allocator<unsigned long> >::remove(std::__ndk1::__hash_const_iterator<std::__ndk1::__hash_node<unsigned long, void*>*>)
PUBLIC 68770 0 std::__ndk1::__hash_table<std::__ndk1::__hash_value_type<std::__ndk1::basic_string<char, std::__ndk1::char_traits<char>, std::__ndk1::allocator<char> >, std::__ndk1::unordered_set<unsigned long, std::__ndk1::hash<unsigned long>, std::__ndk1::equal_to<unsigned long>, std::__ndk1::allocator<unsigned long> > >, std::__ndk1::__unordered_map_hasher<std::__ndk1::basic_string<char, std::__ndk1::char_traits<char>, std::__ndk1::allocator<char> >, std::__ndk1::__hash_value_type<std::__ndk1::basic_string<char, std::__ndk1::char_traits<char>, std::__ndk1::allocator<char> >, std::__ndk1::unordered_set<unsigned long, std::__ndk1::hash<unsigned long>, std::__ndk1::equal_to<unsigned long>, std::__ndk1::allocator<unsigned long> > >, std::__ndk1::hash<std::__ndk1::basic_string<char, std::__ndk1::char_traits<char>, std::__ndk1::allocator<char> > >, std::__ndk1::equal_to<std::__ndk1::basic_string<char, std::__ndk1::char_traits<char>, std::__ndk1::allocator<char> > >, true>, std::__ndk1::__unordered_map_equal<std::__ndk1::basic_string<char, std::__ndk1::char_traits<char>, std::__ndk1::allocator<char> >, std::__ndk1::__hash_value_type<std::__ndk1::basic_string<char, std::__ndk1::char_traits<char>, std::__ndk1::allocator<char> >, std::__ndk1::unordered_set<unsigned long, std::__ndk1::hash<unsigned long>, std::__ndk1::equal_to<unsigned long>, std::__ndk1::allocator<unsigned long> > >, std::__ndk1::equal_to<std::__ndk1::basic_string<char, std::__ndk1::char_traits<char>, std::__ndk1::allocator<char> > >, std::__ndk1::hash<std::__ndk1::basic_string<char, std::__ndk1::char_traits<char>, std::__ndk1::allocator<char> > >, true>, std::__ndk1::allocator<std::__ndk1::__hash_value_type<std::__ndk1::basic_string<char, std::__ndk1::char_traits<char>, std::__ndk1::allocator<char> >, std::__ndk1::unordered_set<unsigned long, std::__ndk1::hash<unsigned long>, std::__ndk1::equal_to<unsigned long>, std::__ndk1::allocator<unsigned long> > > > >::erase(std::__ndk1::__hash_const_iterator<std::__ndk1::__hash_node<std::__ndk1::__hash_value_type<std::__ndk1::basic_string<char, std::__ndk1::char_traits<char>, std::__ndk1::allocator<char> >, std::__ndk1::unordered_set<unsigned long, std::__ndk1::hash<unsigned long>, std::__ndk1::equal_to<unsigned long>, std::__ndk1::allocator<unsigned long> > >, void*>*>)
PUBLIC 6881c 0 std::__ndk1::__hash_table<std::__ndk1::__hash_value_type<std::__ndk1::basic_string<char, std::__ndk1::char_traits<char>, std::__ndk1::allocator<char> >, std::__ndk1::unordered_set<unsigned long, std::__ndk1::hash<unsigned long>, std::__ndk1::equal_to<unsigned long>, std::__ndk1::allocator<unsigned long> > >, std::__ndk1::__unordered_map_hasher<std::__ndk1::basic_string<char, std::__ndk1::char_traits<char>, std::__ndk1::allocator<char> >, std::__ndk1::__hash_value_type<std::__ndk1::basic_string<char, std::__ndk1::char_traits<char>, std::__ndk1::allocator<char> >, std::__ndk1::unordered_set<unsigned long, std::__ndk1::hash<unsigned long>, std::__ndk1::equal_to<unsigned long>, std::__ndk1::allocator<unsigned long> > >, std::__ndk1::hash<std::__ndk1::basic_string<char, std::__ndk1::char_traits<char>, std::__ndk1::allocator<char> > >, std::__ndk1::equal_to<std::__ndk1::basic_string<char, std::__ndk1::char_traits<char>, std::__ndk1::allocator<char> > >, true>, std::__ndk1::__unordered_map_equal<std::__ndk1::basic_string<char, std::__ndk1::char_traits<char>, std::__ndk1::allocator<char> >, std::__ndk1::__hash_value_type<std::__ndk1::basic_string<char, std::__ndk1::char_traits<char>, std::__ndk1::allocator<char> >, std::__ndk1::unordered_set<unsigned long, std::__ndk1::hash<unsigned long>, std::__ndk1::equal_to<unsigned long>, std::__ndk1::allocator<unsigned long> > >, std::__ndk1::equal_to<std::__ndk1::basic_string<char, std::__ndk1::char_traits<char>, std::__ndk1::allocator<char> > >, std::__ndk1::hash<std::__ndk1::basic_string<char, std::__ndk1::char_traits<char>, std::__ndk1::allocator<char> > >, true>, std::__ndk1::allocator<std::__ndk1::__hash_value_type<std::__ndk1::basic_string<char, std::__ndk1::char_traits<char>, std::__ndk1::allocator<char> >, std::__ndk1::unordered_set<unsigned long, std::__ndk1::hash<unsigned long>, std::__ndk1::equal_to<unsigned long>, std::__ndk1::allocator<unsigned long> > > > >::remove(std::__ndk1::__hash_const_iterator<std::__ndk1::__hash_node<std::__ndk1::__hash_value_type<std::__ndk1::basic_string<char, std::__ndk1::char_traits<char>, std::__ndk1::allocator<char> >, std::__ndk1::unordered_set<unsigned long, std::__ndk1::hash<unsigned long>, std::__ndk1::equal_to<unsigned long>, std::__ndk1::allocator<unsigned long> > >, void*>*>)
PUBLIC 68950 0 std::__ndk1::__hash_table<std::__ndk1::__hash_value_type<std::__ndk1::basic_string<char, std::__ndk1::char_traits<char>, std::__ndk1::allocator<char> >, float>, std::__ndk1::__unordered_map_hasher<std::__ndk1::basic_string<char, std::__ndk1::char_traits<char>, std::__ndk1::allocator<char> >, std::__ndk1::__hash_value_type<std::__ndk1::basic_string<char, std::__ndk1::char_traits<char>, std::__ndk1::allocator<char> >, float>, std::__ndk1::hash<std::__ndk1::basic_string<char, std::__ndk1::char_traits<char>, std::__ndk1::allocator<char> > >, std::__ndk1::equal_to<std::__ndk1::basic_string<char, std::__ndk1::char_traits<char>, std::__ndk1::allocator<char> > >, true>, std::__ndk1::__unordered_map_equal<std::__ndk1::basic_string<char, std::__ndk1::char_traits<char>, std::__ndk1::allocator<char> >, std::__ndk1::__hash_value_type<std::__ndk1::basic_string<char, std::__ndk1::char_traits<char>, std::__ndk1::allocator<char> >, float>, std::__ndk1::equal_to<std::__ndk1::basic_string<char, std::__ndk1::char_traits<char>, std::__ndk1::allocator<char> > >, std::__ndk1::hash<std::__ndk1::basic_string<char, std::__ndk1::char_traits<char>, std::__ndk1::allocator<char> > >, true>, std::__ndk1::allocator<std::__ndk1::__hash_value_type<std::__ndk1::basic_string<char, std::__ndk1::char_traits<char>, std::__ndk1::allocator<char> >, float> > >::find<std::__ndk1::basic_string<char, std::__ndk1::char_traits<char>, std::__ndk1::allocator<char> > >(std::__ndk1::basic_string<char, std::__ndk1::char_traits<char>, std::__ndk1::allocator<char> > const&)
PUBLIC 68ba4 0 std::__ndk1::__hash_table<std::__ndk1::__hash_value_type<std::__ndk1::basic_string<char, std::__ndk1::char_traits<char>, std::__ndk1::allocator<char> >, float>, std::__ndk1::__unordered_map_hasher<std::__ndk1::basic_string<char, std::__ndk1::char_traits<char>, std::__ndk1::allocator<char> >, std::__ndk1::__hash_value_type<std::__ndk1::basic_string<char, std::__ndk1::char_traits<char>, std::__ndk1::allocator<char> >, float>, std::__ndk1::hash<std::__ndk1::basic_string<char, std::__ndk1::char_traits<char>, std::__ndk1::allocator<char> > >, std::__ndk1::equal_to<std::__ndk1::basic_string<char, std::__ndk1::char_traits<char>, std::__ndk1::allocator<char> > >, true>, std::__ndk1::__unordered_map_equal<std::__ndk1::basic_string<char, std::__ndk1::char_traits<char>, std::__ndk1::allocator<char> >, std::__ndk1::__hash_value_type<std::__ndk1::basic_string<char, std::__ndk1::char_traits<char>, std::__ndk1::allocator<char> >, float>, std::__ndk1::equal_to<std::__ndk1::basic_string<char, std::__ndk1::char_traits<char>, std::__ndk1::allocator<char> > >, std::__ndk1::hash<std::__ndk1::basic_string<char, std::__ndk1::char_traits<char>, std::__ndk1::allocator<char> > >, true>, std::__ndk1::allocator<std::__ndk1::__hash_value_type<std::__ndk1::basic_string<char, std::__ndk1::char_traits<char>, std::__ndk1::allocator<char> >, float> > >::remove(std::__ndk1::__hash_const_iterator<std::__ndk1::__hash_node<std::__ndk1::__hash_value_type<std::__ndk1::basic_string<char, std::__ndk1::char_traits<char>, std::__ndk1::allocator<char> >, float>, void*>*>)
PUBLIC 68cd8 0 std::__ndk1::unique_ptr<std::__ndk1::__hash_node<std::__ndk1::__hash_value_type<std::__ndk1::basic_string<char, std::__ndk1::char_traits<char>, std::__ndk1::allocator<char> >, float>, void*>, std::__ndk1::__hash_node_destructor<std::__ndk1::allocator<std::__ndk1::__hash_node<std::__ndk1::__hash_value_type<std::__ndk1::basic_string<char, std::__ndk1::char_traits<char>, std::__ndk1::allocator<char> >, float>, void*> > > >::~unique_ptr[abi:ne180000]()
PUBLIC 68d28 0 std::__ndk1::__hash_table<std::__ndk1::__hash_value_type<std::__ndk1::basic_string<char, std::__ndk1::char_traits<char>, std::__ndk1::allocator<char> >, float>, std::__ndk1::__unordered_map_hasher<std::__ndk1::basic_string<char, std::__ndk1::char_traits<char>, std::__ndk1::allocator<char> >, std::__ndk1::__hash_value_type<std::__ndk1::basic_string<char, std::__ndk1::char_traits<char>, std::__ndk1::allocator<char> >, float>, std::__ndk1::hash<std::__ndk1::basic_string<char, std::__ndk1::char_traits<char>, std::__ndk1::allocator<char> > >, std::__ndk1::equal_to<std::__ndk1::basic_string<char, std::__ndk1::char_traits<char>, std::__ndk1::allocator<char> > >, true>, std::__ndk1::__unordered_map_equal<std::__ndk1::basic_string<char, std::__ndk1::char_traits<char>, std::__ndk1::allocator<char> >, std::__ndk1::__hash_value_type<std::__ndk1::basic_string<char, std::__ndk1::char_traits<char>, std::__ndk1::allocator<char> >, float>, std::__ndk1::equal_to<std::__ndk1::basic_string<char, std::__ndk1::char_traits<char>, std::__ndk1::allocator<char> > >, std::__ndk1::hash<std::__ndk1::basic_string<char, std::__ndk1::char_traits<char>, std::__ndk1::allocator<char> > >, true>, std::__ndk1::allocator<std::__ndk1::__hash_value_type<std::__ndk1::basic_string<char, std::__ndk1::char_traits<char>, std::__ndk1::allocator<char> >, float> > >::__emplace_unique_key_args<std::__ndk1::basic_string<char, std::__ndk1::char_traits<char>, std::__ndk1::allocator<char> >, std::__ndk1::pair<std::__ndk1::basic_string<char, std::__ndk1::char_traits<char>, std::__ndk1::allocator<char> >, float> >(std::__ndk1::basic_string<char, std::__ndk1::char_traits<char>, std::__ndk1::allocator<char> > const&, std::__ndk1::pair<std::__ndk1::basic_string<char, std::__ndk1::char_traits<char>, std::__ndk1::allocator<char> >, float>&&)
PUBLIC 69190 0 std::__ndk1::__hash_table<std::__ndk1::__hash_value_type<std::__ndk1::basic_string<char, std::__ndk1::char_traits<char>, std::__ndk1::allocator<char> >, float>, std::__ndk1::__unordered_map_hasher<std::__ndk1::basic_string<char, std::__ndk1::char_traits<char>, std::__ndk1::allocator<char> >, std::__ndk1::__hash_value_type<std::__ndk1::basic_string<char, std::__ndk1::char_traits<char>, std::__ndk1::allocator<char> >, float>, std::__ndk1::hash<std::__ndk1::basic_string<char, std::__ndk1::char_traits<char>, std::__ndk1::allocator<char> > >, std::__ndk1::equal_to<std::__ndk1::basic_string<char, std::__ndk1::char_traits<char>, std::__ndk1::allocator<char> > >, true>, std::__ndk1::__unordered_map_equal<std::__ndk1::basic_string<char, std::__ndk1::char_traits<char>, std::__ndk1::allocator<char> >, std::__ndk1::__hash_value_type<std::__ndk1::basic_string<char, std::__ndk1::char_traits<char>, std::__ndk1::allocator<char> >, float>, std::__ndk1::equal_to<std::__ndk1::basic_string<char, std::__ndk1::char_traits<char>, std::__ndk1::allocator<char> > >, std::__ndk1::hash<std::__ndk1::basic_string<char, std::__ndk1::char_traits<char>, std::__ndk1::allocator<char> > >, true>, std::__ndk1::allocator<std::__ndk1::__hash_value_type<std::__ndk1::basic_string<char, std::__ndk1::char_traits<char>, std::__ndk1::allocator<char> >, float> > >::__do_rehash<true>(unsigned long)
PUBLIC 69368 0 geode::EventListener<geode::ModStateFilter>::getPool() const
PUBLIC 6936c 0 geode::EventListener<geode::ModStateFilter>::handle(geode::Event*)
PUBLIC 69474 0 geode::EventListener<geode::ModStateFilter>::~EventListener()
PUBLIC 694b8 0 geode::EventListener<geode::ModStateFilter>::~EventListener()
PUBLIC 69500 0 geode::utils::MiniFunctionStateBase<void, geode::ModStateEvent*>::~MiniFunctionStateBase()
PUBLIC 69504 0 geode::utils::MiniFunctionState<void (*)(geode::ModStateEvent*), void, geode::ModStateEvent*>::~MiniFunctionState()
PUBLIC 69508 0 geode::utils::MiniFunctionState<void (*)(geode::ModStateEvent*), void, geode::ModStateEvent*>::call(geode::ModStateEvent*) const
PUBLIC 69514 0 geode::utils::MiniFunctionState<void (*)(geode::ModStateEvent*), void, geode::ModStateEvent*>::clone() const
PUBLIC 69548 0 _GLOBAL__sub_I_Keybinds.cpp
PUBLIC 69648 0 EnterBindLayer::setup(BindableNode*, keybinds::Bind*)
PUBLIC 69b10 0 geode::Popup<BindableNode*, keybinds::Bind*>::setTitle(std::__ndk1::basic_string<char, std::__ndk1::char_traits<char>, std::__ndk1::allocator<char> > const&, char const*, float, float)
PUBLIC 69c5c 0 EnterBindLayer::updateUsedBy()
PUBLIC 69fa8 0 EnterBindLayer::onSet(cocos2d::CCObject*)
PUBLIC 6a0d0 0 EnterBindLayer::onRemove(cocos2d::CCObject*)
PUBLIC 6a1a8 0 BindableNode::updateMenu(bool)
PUBLIC 6aa30 0 EnterBindLayer::onPressed(keybinds::PressBindEvent*)
PUBLIC 6ab78 0 EnterBindLayer::create(BindableNode*, keybinds::Bind*)
PUBLIC 6ad00 0 EditRepeatPopup::setup(BindableNode*)
PUBLIC 6b448 0 geode::Popup<BindableNode*>::setTitle(std::__ndk1::basic_string<char, std::__ndk1::char_traits<char>, std::__ndk1::allocator<char> > const&, char const*, float, float)
PUBLIC 6b594 0 EditRepeatPopup::onEnabled(cocos2d::CCObject*)
PUBLIC 6b5c4 0 EditRepeatPopup::onClose(cocos2d::CCObject*)
PUBLIC 6b6bc 0 geode::Popup<BindableNode*>::onClose(cocos2d::CCObject*)
PUBLIC 6b70c 0 EditRepeatPopup::create(BindableNode*)
PUBLIC 6b84c 0 BindableNode::init(KeybindsLayer*, keybinds::BindableAction const&, float, unsigned long, bool)
PUBLIC m 6bd70 0 keybinds::BindableAction::operator=(keybinds::BindableAction const&)
PUBLIC 6bf9c 0 BindableNode::onInfo(cocos2d::CCObject*)
PUBLIC 6c30c 0 BindableNode::onEditBind(cocos2d::CCObject*)
PUBLIC 6c36c 0 BindableNode::onExpand(cocos2d::CCObject*)
PUBLIC 6c37c 0 BindableNode::onAddBind(cocos2d::CCObject*)
PUBLIC 6c3d0 0 BindableNode::onEditRepeat(cocos2d::CCObject*)
PUBLIC 6c418 0 BindableNode::onResetToDefault(cocos2d::CCObject*)
PUBLIC 6c5f0 0 KeybindsLayer::updateVisibility()
PUBLIC 6cac8 0 BindableNode::getMatchString() const
PUBLIC 6d008 0 KeybindsLayer::setup()
PUBLIC 6db90 0 geode::Popup<>::setTitle(std::__ndk1::basic_string<char, std::__ndk1::char_traits<char>, std::__ndk1::allocator<char> > const&, char const*, float, float)
PUBLIC 6dcdc 0 std::__ndk1::vector<cocos2d::CCNode*, std::__ndk1::allocator<cocos2d::CCNode*> >::insert(std::__ndk1::__wrap_iter<cocos2d::CCNode* const*>, cocos2d::CCNode* const&)
PUBLIC 6df80 0 KeybindsLayer::onResetAll(cocos2d::CCObject*)
PUBLIC 6e0d0 0 geode::cocos::CCArrayExt<cocos2d::CCNode*>::~CCArrayExt()
PUBLIC 6e0f0 0 KeybindsLayer::search(std::__ndk1::basic_string<char, std::__ndk1::char_traits<char>, std::__ndk1::allocator<char> > const&)
PUBLIC 6e324 0 KeybindsLayer::textChanged(CCTextInputNode*)
PUBLIC 6e3e0 0 {virtual override thunk({offset(-672)}, KeybindsLayer::textChanged(CCTextInputNode*))}
PUBLIC 6e3e8 0 KeybindsLayer::onDevice(keybinds::DeviceEvent*)
PUBLIC 6e424 0 KeybindsLayer::create()
PUBLIC 6e4f4 0 KeybindsLayer::KeybindsLayer()
PUBLIC 6e6c8 0 EnterBindLayer::~EnterBindLayer()
PUBLIC 6e7c8 0 EnterBindLayer::~EnterBindLayer()
PUBLIC 6e7ec 0 geode::Popup<BindableNode*, keybinds::Bind*>::registerWithTouchDispatcher()
PUBLIC 6e818 0 geode::Popup<BindableNode*, keybinds::Bind*>::keyDown(cocos2d::enumKeyCodes)
PUBLIC 6e840 0 cocos2d::CCLayerRGBA::setOpacityModifyRGB(bool)
PUBLIC 6e844 0 cocos2d::CCLayerRGBA::isOpacityModifyRGB()
PUBLIC 6e84c 0 geode::Popup<BindableNode*, keybinds::Bind*>::onClose(cocos2d::CCObject*)
PUBLIC 6e89c 0 {virtual override thunk({offset(-320)}, EnterBindLayer::~EnterBindLayer())}
PUBLIC 6e8a4 0 {virtual override thunk({offset(-320)}, EnterBindLayer::~EnterBindLayer())}
PUBLIC 6e8cc 0 {virtual override thunk({offset(-344)}, geode::Popup<BindableNode*, keybinds::Bind*>::keyDown(cocos2d::enumKeyCodes))}
PUBLIC 6e8f8 0 cocos2d::CCKeyboardDelegate::keyUp(cocos2d::enumKeyCodes)
PUBLIC 6e8fc 0 cocos2d::CCMouseDelegate::rightKeyDown()
PUBLIC 6e900 0 cocos2d::CCMouseDelegate::rightKeyUp()
PUBLIC 6e904 0 cocos2d::CCMouseDelegate::scrollWheel(float, float)
PUBLIC 6e908 0 {virtual override thunk({offset(-408)}, cocos2d::CCLayerRGBA::setOpacityModifyRGB(bool))}
PUBLIC 6e90c 0 {virtual override thunk({offset(-408)}, cocos2d::CCLayerRGBA::isOpacityModifyRGB())}
PUBLIC 6e914 0 EditRepeatPopup::~EditRepeatPopup()
PUBLIC 6e9cc 0 EditRepeatPopup::~EditRepeatPopup()
PUBLIC 6ea8c 0 geode::Popup<BindableNode*>::registerWithTouchDispatcher()
PUBLIC 6eab8 0 geode::Popup<BindableNode*>::keyDown(cocos2d::enumKeyCodes)
PUBLIC 6eae0 0 {virtual override thunk({offset(-320)}, EditRepeatPopup::~EditRepeatPopup())}
PUBLIC 6eb9c 0 {virtual override thunk({offset(-320)}, EditRepeatPopup::~EditRepeatPopup())}
PUBLIC 6ec60 0 {virtual override thunk({offset(-344)}, geode::Popup<BindableNode*>::keyDown(cocos2d::enumKeyCodes))}
PUBLIC 6ec8c 0 KeybindsLayer::~KeybindsLayer()
PUBLIC 6edac 0 KeybindsLayer::~KeybindsLayer()
PUBLIC 6edd0 0 geode::Popup<>::registerWithTouchDispatcher()
PUBLIC 6edfc 0 geode::Popup<>::keyDown(cocos2d::enumKeyCodes)
PUBLIC 6ee24 0 geode::Popup<>::onClose(cocos2d::CCObject*)
PUBLIC 6ee74 0 {virtual override thunk({offset(-320)}, KeybindsLayer::~KeybindsLayer())}
PUBLIC 6ee7c 0 {virtual override thunk({offset(-320)}, KeybindsLayer::~KeybindsLayer())}
PUBLIC 6eea4 0 {virtual override thunk({offset(-344)}, geode::Popup<>::keyDown(cocos2d::enumKeyCodes))}
PUBLIC 6eed0 0 geode::EventListener<keybinds::PressBindFilter>::EventListener<EnterBindLayer>(geode::to_member<EnterBindLayer, geode::ListenerResult(keybinds::PressBindEvent*)>::value, keybinds::PressBindFilter)
PUBLIC 6efec 0 geode::Ref<BindableNode>::~Ref()
PUBLIC 6f00c 0 geode::Popup<BindableNode*, keybinds::Bind*>::~Popup()
PUBLIC 6f078 0 geode::Popup<BindableNode*, keybinds::Bind*>::~Popup()
PUBLIC 6f07c 0 {virtual override thunk({offset(-320)}, geode::Popup<BindableNode*, keybinds::Bind*>::~Popup())}
PUBLIC 6f0e8 0 {virtual override thunk({offset(-320)}, geode::Popup<BindableNode*, keybinds::Bind*>::~Popup())}
PUBLIC 6f0ec 0 geode::utils::MiniFunctionState<std::__ndk1::__bind<geode::ListenerResult (EnterBindLayer::*&)(keybinds::PressBindEvent*), EnterBindLayer*&, std::__ndk1::placeholders::__ph<1> const&>, geode::ListenerResult, keybinds::PressBindEvent*>::~MiniFunctionState()
PUBLIC 6f0f0 0 geode::utils::MiniFunctionState<std::__ndk1::__bind<geode::ListenerResult (EnterBindLayer::*&)(keybinds::PressBindEvent*), EnterBindLayer*&, std::__ndk1::placeholders::__ph<1> const&>, geode::ListenerResult, keybinds::PressBindEvent*>::call(keybinds::PressBindEvent*) const
PUBLIC 6f10c 0 geode::utils::MiniFunctionState<std::__ndk1::__bind<geode::ListenerResult (EnterBindLayer::*&)(keybinds::PressBindEvent*), EnterBindLayer*&, std::__ndk1::placeholders::__ph<1> const&>, geode::ListenerResult, keybinds::PressBindEvent*>::clone() const
PUBLIC 6f14c 0 geode::Popup<BindableNode*>::~Popup()
PUBLIC 6f1b8 0 geode::Popup<BindableNode*>::~Popup()
PUBLIC 6f1bc 0 {virtual override thunk({offset(-320)}, geode::Popup<BindableNode*>::~Popup())}
PUBLIC 6f228 0 {virtual override thunk({offset(-320)}, geode::Popup<BindableNode*>::~Popup())}
PUBLIC 6f22c 0 std::__ndk1::vector<geode::Ref<keybinds::Bind>, std::__ndk1::allocator<geode::Ref<keybinds::Bind> > >::__assign_with_size[abi:ne180000]<geode::Ref<keybinds::Bind>*, std::__ndk1::vector<geode::Ref<keybinds::Bind>, std::__ndk1::allocator<geode::Ref<keybinds::Bind> > >::__assign_with_size[abi:ne180000]>(geode::Ref<keybinds::Bind>*, std::__ndk1::vector<geode::Ref<keybinds::Bind>, std::__ndk1::allocator<geode::Ref<keybinds::Bind> > >::__assign_with_size[abi:ne180000], long)
PUBLIC 6f554 0 std::__ndk1::__throw_bad_optional_access[abi:ne180000]()
PUBLIC 6f588 0 BindableNode::~BindableNode()
PUBLIC 6f5bc 0 BindableNode::~BindableNode()
PUBLIC 6f5f8 0 std::__ndk1::vector<cocos2d::CCNode*, std::__ndk1::allocator<cocos2d::CCNode*> >::__throw_length_error[abi:ne180000]() const
PUBLIC 6f60c 0 FoldableLayer::init(KeybindsLayer*, std::__ndk1::basic_string<char, std::__ndk1::char_traits<char>, std::__ndk1::allocator<char> > const&, float, unsigned long)
PUBLIC 6fa84 0 FoldableLayer::~FoldableLayer()
PUBLIC 6faa8 0 FoldableLayer::onFold(cocos2d::CCObject*)
PUBLIC 6fc4c 0 std::__ndk1::vector<BindableNode*, std::__ndk1::allocator<BindableNode*> >::__throw_length_error[abi:ne180000]() const
PUBLIC 6fc60 0 geode::EventListener<keybinds::DeviceFilter>::EventListener<KeybindsLayer>(geode::to_member<KeybindsLayer, void (keybinds::DeviceEvent*)>::value, keybinds::DeviceFilter)
PUBLIC 6fdcc 0 geode::Popup<>::~Popup()
PUBLIC 6fe38 0 geode::Popup<>::~Popup()
PUBLIC 6fe3c 0 {virtual override thunk({offset(-320)}, geode::Popup<>::~Popup())}
PUBLIC 6fea8 0 {virtual override thunk({offset(-320)}, geode::Popup<>::~Popup())}
PUBLIC 6feac 0 geode::EventListener<keybinds::DeviceFilter>::EventListener(geode::utils::MiniFunction<void (keybinds::DeviceEvent*)>, keybinds::DeviceFilter)
PUBLIC 6ffa8 0 geode::utils::MiniFunctionStateBase<void, keybinds::DeviceEvent*>::~MiniFunctionStateBase()
PUBLIC 6ffac 0 geode::utils::MiniFunctionState<std::__ndk1::__bind<void (KeybindsLayer::*&)(keybinds::DeviceEvent*), KeybindsLayer*&, std::__ndk1::placeholders::__ph<1> const&>, void, keybinds::DeviceEvent*>::~MiniFunctionState()
PUBLIC 6ffb0 0 geode::utils::MiniFunctionState<std::__ndk1::__bind<void (KeybindsLayer::*&)(keybinds::DeviceEvent*), KeybindsLayer*&, std::__ndk1::placeholders::__ph<1> const&>, void, keybinds::DeviceEvent*>::call(keybinds::DeviceEvent*) const
PUBLIC 6ffcc 0 geode::utils::MiniFunctionState<std::__ndk1::__bind<void (KeybindsLayer::*&)(keybinds::DeviceEvent*), KeybindsLayer*&, std::__ndk1::placeholders::__ph<1> const&>, void, keybinds::DeviceEvent*>::clone() const
PUBLIC 7000c 0 geode::EventListener<keybinds::DeviceFilter>::getPool() const
PUBLIC 70010 0 geode::EventListener<keybinds::DeviceFilter>::handle(geode::Event*)
PUBLIC 70118 0 geode::EventListener<keybinds::DeviceFilter>::~EventListener()
PUBLIC 70170 0 geode::EventListener<keybinds::DeviceFilter>::~EventListener()
PUBLIC 701d0 0 geode::Popup<BindableNode*, keybinds::Bind*>::initBase(float, float, BindableNode*, keybinds::Bind*, char const*, cocos2d::CCRect, bool)
PUBLIC 704d0 0 std::__ndk1::__function::__func<EditRepeatPopup::setup(BindableNode*)::$_0, std::__ndk1::allocator<EditRepeatPopup::setup(BindableNode*)::$_0>, void (std::__ndk1::basic_string<char, std::__ndk1::char_traits<char>, std::__ndk1::allocator<char> > const&)>::~__func()
PUBLIC 704d4 0 std::__ndk1::__function::__func<EditRepeatPopup::setup(BindableNode*)::$_0, std::__ndk1::allocator<EditRepeatPopup::setup(BindableNode*)::$_0>, void (std::__ndk1::basic_string<char, std::__ndk1::char_traits<char>, std::__ndk1::allocator<char> > const&)>::__clone() const
PUBLIC 70508 0 std::__ndk1::__function::__func<EditRepeatPopup::setup(BindableNode*)::$_0, std::__ndk1::allocator<EditRepeatPopup::setup(BindableNode*)::$_0>, void (std::__ndk1::basic_string<char, std::__ndk1::char_traits<char>, std::__ndk1::allocator<char> > const&)>::__clone(std::__ndk1::__function::__base<void (std::__ndk1::basic_string<char, std::__ndk1::char_traits<char>, std::__ndk1::allocator<char> > const&)>*) const
PUBLIC 7051c 0 std::__ndk1::__function::__func<EditRepeatPopup::setup(BindableNode*)::$_0, std::__ndk1::allocator<EditRepeatPopup::setup(BindableNode*)::$_0>, void (std::__ndk1::basic_string<char, std::__ndk1::char_traits<char>, std::__ndk1::allocator<char> > const&)>::destroy()
PUBLIC 70520 0 std::__ndk1::__function::__func<EditRepeatPopup::setup(BindableNode*)::$_0, std::__ndk1::allocator<EditRepeatPopup::setup(BindableNode*)::$_0>, void (std::__ndk1::basic_string<char, std::__ndk1::char_traits<char>, std::__ndk1::allocator<char> > const&)>::destroy_deallocate()
PUBLIC 70524 0 std::__ndk1::__function::__func<EditRepeatPopup::setup(BindableNode*)::$_0, std::__ndk1::allocator<EditRepeatPopup::setup(BindableNode*)::$_0>, void (std::__ndk1::basic_string<char, std::__ndk1::char_traits<char>, std::__ndk1::allocator<char> > const&)>::operator()(std::__ndk1::basic_string<char, std::__ndk1::char_traits<char>, std::__ndk1::allocator<char> > const&)
PUBLIC 707c4 0 std::__ndk1::__function::__func<EditRepeatPopup::setup(BindableNode*)::$_0, std::__ndk1::allocator<EditRepeatPopup::setup(BindableNode*)::$_0>, void (std::__ndk1::basic_string<char, std::__ndk1::char_traits<char>, std::__ndk1::allocator<char> > const&)>::target(std::type_info const&) const
PUBLIC 707e0 0 std::__ndk1::__function::__func<EditRepeatPopup::setup(BindableNode*)::$_0, std::__ndk1::allocator<EditRepeatPopup::setup(BindableNode*)::$_0>, void (std::__ndk1::basic_string<char, std::__ndk1::char_traits<char>, std::__ndk1::allocator<char> > const&)>::target_type() const
PUBLIC 707ec 0 std::__ndk1::__function::__base<void (std::__ndk1::basic_string<char, std::__ndk1::char_traits<char>, std::__ndk1::allocator<char> > const&)>::~__base()
PUBLIC 707f0 0 std::__ndk1::__function::__func<EditRepeatPopup::setup(BindableNode*)::$_1, std::__ndk1::allocator<EditRepeatPopup::setup(BindableNode*)::$_1>, void (std::__ndk1::basic_string<char, std::__ndk1::char_traits<char>, std::__ndk1::allocator<char> > const&)>::~__func()
PUBLIC 707f4 0 std::__ndk1::__function::__func<EditRepeatPopup::setup(BindableNode*)::$_1, std::__ndk1::allocator<EditRepeatPopup::setup(BindableNode*)::$_1>, void (std::__ndk1::basic_string<char, std::__ndk1::char_traits<char>, std::__ndk1::allocator<char> > const&)>::__clone() const
PUBLIC 70828 0 std::__ndk1::__function::__func<EditRepeatPopup::setup(BindableNode*)::$_1, std::__ndk1::allocator<EditRepeatPopup::setup(BindableNode*)::$_1>, void (std::__ndk1::basic_string<char, std::__ndk1::char_traits<char>, std::__ndk1::allocator<char> > const&)>::__clone(std::__ndk1::__function::__base<void (std::__ndk1::basic_string<char, std::__ndk1::char_traits<char>, std::__ndk1::allocator<char> > const&)>*) const
PUBLIC 7083c 0 std::__ndk1::__function::__func<EditRepeatPopup::setup(BindableNode*)::$_1, std::__ndk1::allocator<EditRepeatPopup::setup(BindableNode*)::$_1>, void (std::__ndk1::basic_string<char, std::__ndk1::char_traits<char>, std::__ndk1::allocator<char> > const&)>::destroy()
PUBLIC 70840 0 std::__ndk1::__function::__func<EditRepeatPopup::setup(BindableNode*)::$_1, std::__ndk1::allocator<EditRepeatPopup::setup(BindableNode*)::$_1>, void (std::__ndk1::basic_string<char, std::__ndk1::char_traits<char>, std::__ndk1::allocator<char> > const&)>::destroy_deallocate()
PUBLIC 70844 0 std::__ndk1::__function::__func<EditRepeatPopup::setup(BindableNode*)::$_1, std::__ndk1::allocator<EditRepeatPopup::setup(BindableNode*)::$_1>, void (std::__ndk1::basic_string<char, std::__ndk1::char_traits<char>, std::__ndk1::allocator<char> > const&)>::operator()(std::__ndk1::basic_string<char, std::__ndk1::char_traits<char>, std::__ndk1::allocator<char> > const&)
PUBLIC 70ae4 0 std::__ndk1::__function::__func<EditRepeatPopup::setup(BindableNode*)::$_1, std::__ndk1::allocator<EditRepeatPopup::setup(BindableNode*)::$_1>, void (std::__ndk1::basic_string<char, std::__ndk1::char_traits<char>, std::__ndk1::allocator<char> > const&)>::target(std::type_info const&) const
PUBLIC 70b00 0 std::__ndk1::__function::__func<EditRepeatPopup::setup(BindableNode*)::$_1, std::__ndk1::allocator<EditRepeatPopup::setup(BindableNode*)::$_1>, void (std::__ndk1::basic_string<char, std::__ndk1::char_traits<char>, std::__ndk1::allocator<char> > const&)>::target_type() const
PUBLIC 70b0c 0 geode::Popup<BindableNode*>::initBase(float, float, BindableNode*, char const*, cocos2d::CCRect, bool)
PUBLIC 70e1c 0 geode::utils::MiniFunctionState<BindableNode::onResetToDefault(cocos2d::CCObject*)::$_0, void, FLAlertLayer*, bool>::~MiniFunctionState()
PUBLIC 70e20 0 geode::utils::MiniFunctionState<BindableNode::onResetToDefault(cocos2d::CCObject*)::$_0, void, FLAlertLayer*, bool>::call(FLAlertLayer*, bool) const
PUBLIC 70ed8 0 geode::utils::MiniFunctionState<BindableNode::onResetToDefault(cocos2d::CCObject*)::$_0, void, FLAlertLayer*, bool>::clone() const
PUBLIC 70f0c 0 geode::utils::MiniFunctionStateBase<void, FLAlertLayer*, bool>::~MiniFunctionStateBase()
PUBLIC 70f10 0 geode::utils::MiniFunctionState<KeybindsLayer::onResetAll(cocos2d::CCObject*)::$_0, void, FLAlertLayer*, bool>::~MiniFunctionState()
PUBLIC 70f14 0 geode::utils::MiniFunctionState<KeybindsLayer::onResetAll(cocos2d::CCObject*)::$_0, void, FLAlertLayer*, bool>::call(FLAlertLayer*, bool) const
PUBLIC 7106c 0 geode::utils::MiniFunctionState<KeybindsLayer::onResetAll(cocos2d::CCObject*)::$_0, void, FLAlertLayer*, bool>::clone() const
PUBLIC 710a0 0 geode::Popup<>::initBase(float, float, char const*, cocos2d::CCRect, bool)
PUBLIC m 713a4 0 keybinds::MouseBind::create(keybinds::MouseButton, keybinds::Modifier)
PUBLIC m 7141c 0 keybinds::MouseBind::parse(matjson::Value const&)
PUBLIC m 714c4 0 keybinds::MouseBind::getButton() const
PUBLIC m 714cc 0 keybinds::MouseBind::getModifiers() const
PUBLIC m 714d4 0 keybinds::MouseBind::getHash() const
PUBLIC m 714e4 0 keybinds::MouseBind::isEqual(keybinds::Bind*) const
PUBLIC m 71568 0 keybinds::MouseBind::toString() const
PUBLIC m 71764 0 keybinds::MouseBind::getDeviceID() const
PUBLIC m 717b4 0 keybinds::MouseBind::save() const
PUBLIC m 71904 0 keybinds::MouseBind::~MouseBind()
PUBLIC 71928 0 geodeExecFunction293<(anonymous namespace)::ExecFuncUnique293>()
PUBLIC 74f60 0 __cxx_global_var_init.1
PUBLIC 7534c 0 __cxx_global_var_init.2
PUBLIC 758f0 0 _GLOBAL__sub_I_UILayer.cpp
PUBLIC 758f4 0 geode::modifier::ModifyBase<geode::modifier::ModifyDerive<hook41<(anonymous namespace)::hook41Parent>, PauseLayer> >::~ModifyBase()
PUBLIC 75910 0 geode::modifier::ModifyBase<geode::modifier::ModifyDerive<hook88<(anonymous namespace)::hook88Parent>, UILayer> >::~ModifyBase()
PUBLIC 7592c 0 geode::modifier::ModifyDerive<hook41<(anonymous namespace)::hook41Parent>, PauseLayer>::apply()
PUBLIC 75efc 0 geode::modifier::ModifyBase<geode::modifier::ModifyDerive<hook41<(anonymous namespace)::hook41Parent>, PauseLayer> >::apply()
PUBLIC 75f00 0 geode::modifier::AsStaticFunction_keyDown<hook41<(anonymous namespace)::hook41Parent>, void (hook41<(anonymous namespace)::hook41Parent>::*)(cocos2d::enumKeyCodes)>::Impl<void (hook41<(anonymous namespace)::hook41Parent>::*)(cocos2d::enumKeyCodes)>::function(hook41<(anonymous namespace)::hook41Parent>*, cocos2d::enumKeyCodes)
PUBLIC 75f10 0 geode::modifier::AsStaticFunction_customSetup<hook41<(anonymous namespace)::hook41Parent>, void (hook41<(anonymous namespace)::hook41Parent>::*)()>::Impl<void (hook41<(anonymous namespace)::hook41Parent>::*)()>::function(hook41<(anonymous namespace)::hook41Parent>*)
PUBLIC 7605c 0 geode::addresser::Addresser::addressOfVirtual<void, PauseLayer, cocos2d::enumKeyCodes>(void (PauseLayer::*)(cocos2d::enumKeyCodes))
PUBLIC 76148 0 PauseLayer::PauseLayer(geode::ZeroConstructorType)
PUBLIC 761d4 0 geode::addresser::Addresser::addressOfVirtual<void, PauseLayer, >(void (PauseLayer::*)())
PUBLIC 762c0 0 cocos2d::CCNode::addEventListener<keybinds::InvokeBindFilter, char const (&) [32]>(geode::utils::MiniFunction<keybinds::InvokeBindFilter::Callback>, char const (&) [32])
PUBLIC 763e0 0 cocos2d::CCNode::addEventListener<keybinds::InvokeBindFilter, char const (&) [36]>(geode::utils::MiniFunction<keybinds::InvokeBindFilter::Callback>, char const (&) [36])
PUBLIC 76500 0 geode::utils::MiniFunctionState<hook41<(anonymous namespace)::hook41Parent>::customSetup()::{lambda(keybinds::InvokeBindEvent*)#1}, geode::ListenerResult, keybinds::InvokeBindEvent*>::~MiniFunctionState()
PUBLIC 76504 0 geode::utils::MiniFunctionState<hook41<(anonymous namespace)::hook41Parent>::customSetup()::{lambda(keybinds::InvokeBindEvent*)#1}, geode::ListenerResult, keybinds::InvokeBindEvent*>::call(keybinds::InvokeBindEvent*) const
PUBLIC 765f4 0 geode::utils::MiniFunctionState<hook41<(anonymous namespace)::hook41Parent>::customSetup()::{lambda(keybinds::InvokeBindEvent*)#1}, geode::ListenerResult, keybinds::InvokeBindEvent*>::clone() const
PUBLIC 76628 0 cocos2d::CCNode::addEventListener<keybinds::InvokeBindFilter, char const (&) [32]>(std::__ndk1::basic_string<char, std::__ndk1::char_traits<char>, std::__ndk1::allocator<char> > const&, geode::utils::MiniFunction<keybinds::InvokeBindFilter::Callback>, char const (&) [32])
PUBLIC 76888 0 geode::utils::MiniFunctionState<hook41<(anonymous namespace)::hook41Parent>::customSetup()::{lambda(keybinds::InvokeBindEvent*)#2}, geode::ListenerResult, keybinds::InvokeBindEvent*>::~MiniFunctionState()
PUBLIC 7688c 0 geode::utils::MiniFunctionState<hook41<(anonymous namespace)::hook41Parent>::customSetup()::{lambda(keybinds::InvokeBindEvent*)#2}, geode::ListenerResult, keybinds::InvokeBindEvent*>::call(keybinds::InvokeBindEvent*) const
PUBLIC 768d4 0 geode::utils::MiniFunctionState<hook41<(anonymous namespace)::hook41Parent>::customSetup()::{lambda(keybinds::InvokeBindEvent*)#2}, geode::ListenerResult, keybinds::InvokeBindEvent*>::clone() const
PUBLIC 76908 0 cocos2d::CCNode::addEventListener<keybinds::InvokeBindFilter, char const (&) [36]>(std::__ndk1::basic_string<char, std::__ndk1::char_traits<char>, std::__ndk1::allocator<char> > const&, geode::utils::MiniFunction<keybinds::InvokeBindFilter::Callback>, char const (&) [36])
PUBLIC 76b68 0 geode::utils::MiniFunctionState<hook41<(anonymous namespace)::hook41Parent>::customSetup()::{lambda(keybinds::InvokeBindEvent*)#3}, geode::ListenerResult, keybinds::InvokeBindEvent*>::~MiniFunctionState()
PUBLIC 76b6c 0 geode::utils::MiniFunctionState<hook41<(anonymous namespace)::hook41Parent>::customSetup()::{lambda(keybinds::InvokeBindEvent*)#3}, geode::ListenerResult, keybinds::InvokeBindEvent*>::call(keybinds::InvokeBindEvent*) const
PUBLIC 76be8 0 geode::utils::MiniFunctionState<hook41<(anonymous namespace)::hook41Parent>::customSetup()::{lambda(keybinds::InvokeBindEvent*)#3}, geode::ListenerResult, keybinds::InvokeBindEvent*>::clone() const
PUBLIC 76c1c 0 geode::modifier::ModifyDerive<hook88<(anonymous namespace)::hook88Parent>, UILayer>::apply()
PUBLIC 77278 0 geode::modifier::ModifyBase<geode::modifier::ModifyDerive<hook88<(anonymous namespace)::hook88Parent>, UILayer> >::apply()
PUBLIC 7727c 0 geode::modifier::AsStaticFunction_handleKeypress<hook88<(anonymous namespace)::hook88Parent>, void (hook88<(anonymous namespace)::hook88Parent>::*)(cocos2d::enumKeyCodes, bool)>::Impl<void (hook88<(anonymous namespace)::hook88Parent>::*)(cocos2d::enumKeyCodes, bool)>::function(hook88<(anonymous namespace)::hook88Parent>*, cocos2d::enumKeyCodes, bool)
PUBLIC 772b8 0 geode::modifier::AsStaticFunction_init<hook88<(anonymous namespace)::hook88Parent>, bool (hook88<(anonymous namespace)::hook88Parent>::*)(GJBaseGameLayer*)>::Impl<bool (hook88<(anonymous namespace)::hook88Parent>::*)(GJBaseGameLayer*)>::function(hook88<(anonymous namespace)::hook88Parent>*, GJBaseGameLayer*)
PUBLIC 77388 0 geode::utils::MiniFunctionState<hook88<(anonymous namespace)::hook88Parent>::init(GJBaseGameLayer*)::{lambda()#1}, void, >::~MiniFunctionState()
PUBLIC 7738c 0 geode::utils::MiniFunctionState<hook88<(anonymous namespace)::hook88Parent>::init(GJBaseGameLayer*)::{lambda()#1}, void, >::call() const
PUBLIC 77a98 0 geode::utils::MiniFunctionState<hook88<(anonymous namespace)::hook88Parent>::init(GJBaseGameLayer*)::{lambda()#1}, void, >::clone() const
PUBLIC 77acc 0 hook88<(anonymous namespace)::hook88Parent>::defineKeybind(char const*, std::__ndk1::function<geode::ListenerResult(bool)>)
PUBLIC 77d78 0 addBindSprites(cocos2d::CCNode*, char const*)
PUBLIC 780f4 0 cocos2d::CCNode::addEventListener<keybinds::InvokeBindFilter, char const*&>(geode::utils::MiniFunction<keybinds::InvokeBindFilter::Callback>, char const*&)
PUBLIC 78214 0 cocos2d::CCNode::addEventListener<keybinds::InvokeBindFilter, char const*&>(std::__ndk1::basic_string<char, std::__ndk1::char_traits<char>, std::__ndk1::allocator<char> > const&, geode::utils::MiniFunction<keybinds::InvokeBindFilter::Callback>, char const*&)
PUBLIC 7847c 0 geode::utils::MiniFunctionState<hook88<(anonymous namespace)::hook88Parent>::defineKeybind(char const*, std::__ndk1::function<geode::ListenerResult(bool)>)::{lambda(keybinds::InvokeBindEvent*)#1}, geode::ListenerResult, keybinds::InvokeBindEvent*>::~MiniFunctionState()
PUBLIC 784bc 0 geode::utils::MiniFunctionState<hook88<(anonymous namespace)::hook88Parent>::defineKeybind(char const*, std::__ndk1::function<geode::ListenerResult(bool)>)::{lambda(keybinds::InvokeBindEvent*)#1}, geode::ListenerResult, keybinds::InvokeBindEvent*>::~MiniFunctionState()
PUBLIC 7850c 0 geode::utils::MiniFunctionState<hook88<(anonymous namespace)::hook88Parent>::defineKeybind(char const*, std::__ndk1::function<geode::ListenerResult(bool)>)::{lambda(keybinds::InvokeBindEvent*)#1}, geode::ListenerResult, keybinds::InvokeBindEvent*>::call(keybinds::InvokeBindEvent*) const
PUBLIC 78590 0 geode::utils::MiniFunctionState<hook88<(anonymous namespace)::hook88Parent>::defineKeybind(char const*, std::__ndk1::function<geode::ListenerResult(bool)>)::{lambda(keybinds::InvokeBindEvent*)#1}, geode::ListenerResult, keybinds::InvokeBindEvent*>::clone() const
PUBLIC 7862c 0 std::__ndk1::__function::__func<hook88<(anonymous namespace)::hook88Parent>::init(GJBaseGameLayer*)::{lambda()#1}::operator()() const::{lambda(bool)#1}, std::__ndk1::allocator<hook88<(anonymous namespace)::hook88Parent>::init(GJBaseGameLayer*)::{lambda()#1}::operator()() const::{lambda(bool)#1}>, geode::ListenerResult(bool)>::~__func()
PUBLIC 78630 0 std::__ndk1::__function::__func<hook88<(anonymous namespace)::hook88Parent>::init(GJBaseGameLayer*)::{lambda()#1}::operator()() const::{lambda(bool)#1}, std::__ndk1::allocator<hook88<(anonymous namespace)::hook88Parent>::init(GJBaseGameLayer*)::{lambda()#1}::operator()() const::{lambda(bool)#1}>, geode::ListenerResult(bool)>::__clone() const
PUBLIC 78664 0 std::__ndk1::__function::__func<hook88<(anonymous namespace)::hook88Parent>::init(GJBaseGameLayer*)::{lambda()#1}::operator()() const::{lambda(bool)#1}, std::__ndk1::allocator<hook88<(anonymous namespace)::hook88Parent>::init(GJBaseGameLayer*)::{lambda()#1}::operator()() const::{lambda(bool)#1}>, geode::ListenerResult(bool)>::__clone(std::__ndk1::__function::__base<geode::ListenerResult(bool)>*) const
PUBLIC 78678 0 std::__ndk1::__function::__func<hook88<(anonymous namespace)::hook88Parent>::init(GJBaseGameLayer*)::{lambda()#1}::operator()() const::{lambda(bool)#1}, std::__ndk1::allocator<hook88<(anonymous namespace)::hook88Parent>::init(GJBaseGameLayer*)::{lambda()#1}::operator()() const::{lambda(bool)#1}>, geode::ListenerResult(bool)>::destroy()
PUBLIC 7867c 0 std::__ndk1::__function::__func<hook88<(anonymous namespace)::hook88Parent>::init(GJBaseGameLayer*)::{lambda()#1}::operator()() const::{lambda(bool)#1}, std::__ndk1::allocator<hook88<(anonymous namespace)::hook88Parent>::init(GJBaseGameLayer*)::{lambda()#1}::operator()() const::{lambda(bool)#1}>, geode::ListenerResult(bool)>::destroy_deallocate()
PUBLIC 78680 0 std::__ndk1::__function::__func<hook88<(anonymous namespace)::hook88Parent>::init(GJBaseGameLayer*)::{lambda()#1}::operator()() const::{lambda(bool)#1}, std::__ndk1::allocator<hook88<(anonymous namespace)::hook88Parent>::init(GJBaseGameLayer*)::{lambda()#1}::operator()() const::{lambda(bool)#1}>, geode::ListenerResult(bool)>::operator()(bool&&)
PUBLIC 786f4 0 std::__ndk1::__function::__func<hook88<(anonymous namespace)::hook88Parent>::init(GJBaseGameLayer*)::{lambda()#1}::operator()() const::{lambda(bool)#1}, std::__ndk1::allocator<hook88<(anonymous namespace)::hook88Parent>::init(GJBaseGameLayer*)::{lambda()#1}::operator()() const::{lambda(bool)#1}>, geode::ListenerResult(bool)>::target(std::type_info const&) const
PUBLIC 78710 0 std::__ndk1::__function::__func<hook88<(anonymous namespace)::hook88Parent>::init(GJBaseGameLayer*)::{lambda()#1}::operator()() const::{lambda(bool)#1}, std::__ndk1::allocator<hook88<(anonymous namespace)::hook88Parent>::init(GJBaseGameLayer*)::{lambda()#1}::operator()() const::{lambda(bool)#1}>, geode::ListenerResult(bool)>::target_type() const
PUBLIC 7871c 0 hook88<(anonymous namespace)::hook88Parent>::isPaused()
PUBLIC 788b0 0 hook88<(anonymous namespace)::hook88Parent>::isCurrentPlayLayer()
PUBLIC 78a48 0 std::__ndk1::__function::__func<hook88<(anonymous namespace)::hook88Parent>::init(GJBaseGameLayer*)::{lambda()#1}::operator()() const::{lambda(bool)#2}, std::__ndk1::allocator<hook88<(anonymous namespace)::hook88Parent>::init(GJBaseGameLayer*)::{lambda()#1}::operator()() const::{lambda(bool)#2}>, geode::ListenerResult(bool)>::~__func()
PUBLIC 78a4c 0 std::__ndk1::__function::__func<hook88<(anonymous namespace)::hook88Parent>::init(GJBaseGameLayer*)::{lambda()#1}::operator()() const::{lambda(bool)#2}, std::__ndk1::allocator<hook88<(anonymous namespace)::hook88Parent>::init(GJBaseGameLayer*)::{lambda()#1}::operator()() const::{lambda(bool)#2}>, geode::ListenerResult(bool)>::__clone() const
PUBLIC 78a80 0 std::__ndk1::__function::__func<hook88<(anonymous namespace)::hook88Parent>::init(GJBaseGameLayer*)::{lambda()#1}::operator()() const::{lambda(bool)#2}, std::__ndk1::allocator<hook88<(anonymous namespace)::hook88Parent>::init(GJBaseGameLayer*)::{lambda()#1}::operator()() const::{lambda(bool)#2}>, geode::ListenerResult(bool)>::__clone(std::__ndk1::__function::__base<geode::ListenerResult(bool)>*) const
PUBLIC 78a94 0 std::__ndk1::__function::__func<hook88<(anonymous namespace)::hook88Parent>::init(GJBaseGameLayer*)::{lambda()#1}::operator()() const::{lambda(bool)#2}, std::__ndk1::allocator<hook88<(anonymous namespace)::hook88Parent>::init(GJBaseGameLayer*)::{lambda()#1}::operator()() const::{lambda(bool)#2}>, geode::ListenerResult(bool)>::destroy()
PUBLIC 78a98 0 std::__ndk1::__function::__func<hook88<(anonymous namespace)::hook88Parent>::init(GJBaseGameLayer*)::{lambda()#1}::operator()() const::{lambda(bool)#2}, std::__ndk1::allocator<hook88<(anonymous namespace)::hook88Parent>::init(GJBaseGameLayer*)::{lambda()#1}::operator()() const::{lambda(bool)#2}>, geode::ListenerResult(bool)>::destroy_deallocate()
PUBLIC 78a9c 0 std::__ndk1::__function::__func<hook88<(anonymous namespace)::hook88Parent>::init(GJBaseGameLayer*)::{lambda()#1}::operator()() const::{lambda(bool)#2}, std::__ndk1::allocator<hook88<(anonymous namespace)::hook88Parent>::init(GJBaseGameLayer*)::{lambda()#1}::operator()() const::{lambda(bool)#2}>, geode::ListenerResult(bool)>::operator()(bool&&)
PUBLIC 78b10 0 std::__ndk1::__function::__func<hook88<(anonymous namespace)::hook88Parent>::init(GJBaseGameLayer*)::{lambda()#1}::operator()() const::{lambda(bool)#2}, std::__ndk1::allocator<hook88<(anonymous namespace)::hook88Parent>::init(GJBaseGameLayer*)::{lambda()#1}::operator()() const::{lambda(bool)#2}>, geode::ListenerResult(bool)>::target(std::type_info const&) const
PUBLIC 78b2c 0 std::__ndk1::__function::__func<hook88<(anonymous namespace)::hook88Parent>::init(GJBaseGameLayer*)::{lambda()#1}::operator()() const::{lambda(bool)#2}, std::__ndk1::allocator<hook88<(anonymous namespace)::hook88Parent>::init(GJBaseGameLayer*)::{lambda()#1}::operator()() const::{lambda(bool)#2}>, geode::ListenerResult(bool)>::target_type() const
PUBLIC 78b38 0 std::__ndk1::__function::__func<hook88<(anonymous namespace)::hook88Parent>::init(GJBaseGameLayer*)::{lambda()#1}::operator()() const::{lambda(bool)#3}, std::__ndk1::allocator<hook88<(anonymous namespace)::hook88Parent>::init(GJBaseGameLayer*)::{lambda()#1}::operator()() const::{lambda(bool)#3}>, geode::ListenerResult(bool)>::~__func()
PUBLIC 78b3c 0 std::__ndk1::__function::__func<hook88<(anonymous namespace)::hook88Parent>::init(GJBaseGameLayer*)::{lambda()#1}::operator()() const::{lambda(bool)#3}, std::__ndk1::allocator<hook88<(anonymous namespace)::hook88Parent>::init(GJBaseGameLayer*)::{lambda()#1}::operator()() const::{lambda(bool)#3}>, geode::ListenerResult(bool)>::__clone() const
PUBLIC 78b70 0 std::__ndk1::__function::__func<hook88<(anonymous namespace)::hook88Parent>::init(GJBaseGameLayer*)::{lambda()#1}::operator()() const::{lambda(bool)#3}, std::__ndk1::allocator<hook88<(anonymous namespace)::hook88Parent>::init(GJBaseGameLayer*)::{lambda()#1}::operator()() const::{lambda(bool)#3}>, geode::ListenerResult(bool)>::__clone(std::__ndk1::__function::__base<geode::ListenerResult(bool)>*) const
PUBLIC 78b84 0 std::__ndk1::__function::__func<hook88<(anonymous namespace)::hook88Parent>::init(GJBaseGameLayer*)::{lambda()#1}::operator()() const::{lambda(bool)#3}, std::__ndk1::allocator<hook88<(anonymous namespace)::hook88Parent>::init(GJBaseGameLayer*)::{lambda()#1}::operator()() const::{lambda(bool)#3}>, geode::ListenerResult(bool)>::destroy()
PUBLIC 78b88 0 std::__ndk1::__function::__func<hook88<(anonymous namespace)::hook88Parent>::init(GJBaseGameLayer*)::{lambda()#1}::operator()() const::{lambda(bool)#3}, std::__ndk1::allocator<hook88<(anonymous namespace)::hook88Parent>::init(GJBaseGameLayer*)::{lambda()#1}::operator()() const::{lambda(bool)#3}>, geode::ListenerResult(bool)>::destroy_deallocate()
PUBLIC 78b8c 0 std::__ndk1::__function::__func<hook88<(anonymous namespace)::hook88Parent>::init(GJBaseGameLayer*)::{lambda()#1}::operator()() const::{lambda(bool)#3}, std::__ndk1::allocator<hook88<(anonymous namespace)::hook88Parent>::init(GJBaseGameLayer*)::{lambda()#1}::operator()() const::{lambda(bool)#3}>, geode::ListenerResult(bool)>::operator()(bool&&)
PUBLIC 78c04 0 std::__ndk1::__function::__func<hook88<(anonymous namespace)::hook88Parent>::init(GJBaseGameLayer*)::{lambda()#1}::operator()() const::{lambda(bool)#3}, std::__ndk1::allocator<hook88<(anonymous namespace)::hook88Parent>::init(GJBaseGameLayer*)::{lambda()#1}::operator()() const::{lambda(bool)#3}>, geode::ListenerResult(bool)>::target(std::type_info const&) const
PUBLIC 78c20 0 std::__ndk1::__function::__func<hook88<(anonymous namespace)::hook88Parent>::init(GJBaseGameLayer*)::{lambda()#1}::operator()() const::{lambda(bool)#3}, std::__ndk1::allocator<hook88<(anonymous namespace)::hook88Parent>::init(GJBaseGameLayer*)::{lambda()#1}::operator()() const::{lambda(bool)#3}>, geode::ListenerResult(bool)>::target_type() const
PUBLIC 78c2c 0 hook88<(anonymous namespace)::hook88Parent>::pressKeyFallthrough(cocos2d::enumKeyCodes, bool, bool, bool, bool, bool)
PUBLIC 78d78 0 std::__ndk1::__function::__func<hook88<(anonymous namespace)::hook88Parent>::init(GJBaseGameLayer*)::{lambda()#1}::operator()() const::{lambda(bool)#4}, std::__ndk1::allocator<hook88<(anonymous namespace)::hook88Parent>::init(GJBaseGameLayer*)::{lambda()#1}::operator()() const::{lambda(bool)#4}>, geode::ListenerResult(bool)>::~__func()
PUBLIC 78d7c 0 std::__ndk1::__function::__func<hook88<(anonymous namespace)::hook88Parent>::init(GJBaseGameLayer*)::{lambda()#1}::operator()() const::{lambda(bool)#4}, std::__ndk1::allocator<hook88<(anonymous namespace)::hook88Parent>::init(GJBaseGameLayer*)::{lambda()#1}::operator()() const::{lambda(bool)#4}>, geode::ListenerResult(bool)>::__clone() const
PUBLIC 78db0 0 std::__ndk1::__function::__func<hook88<(anonymous namespace)::hook88Parent>::init(GJBaseGameLayer*)::{lambda()#1}::operator()() const::{lambda(bool)#4}, std::__ndk1::allocator<hook88<(anonymous namespace)::hook88Parent>::init(GJBaseGameLayer*)::{lambda()#1}::operator()() const::{lambda(bool)#4}>, geode::ListenerResult(bool)>::__clone(std::__ndk1::__function::__base<geode::ListenerResult(bool)>*) const
PUBLIC 78dc4 0 std::__ndk1::__function::__func<hook88<(anonymous namespace)::hook88Parent>::init(GJBaseGameLayer*)::{lambda()#1}::operator()() const::{lambda(bool)#4}, std::__ndk1::allocator<hook88<(anonymous namespace)::hook88Parent>::init(GJBaseGameLayer*)::{lambda()#1}::operator()() const::{lambda(bool)#4}>, geode::ListenerResult(bool)>::destroy()
PUBLIC 78dc8 0 std::__ndk1::__function::__func<hook88<(anonymous namespace)::hook88Parent>::init(GJBaseGameLayer*)::{lambda()#1}::operator()() const::{lambda(bool)#4}, std::__ndk1::allocator<hook88<(anonymous namespace)::hook88Parent>::init(GJBaseGameLayer*)::{lambda()#1}::operator()() const::{lambda(bool)#4}>, geode::ListenerResult(bool)>::destroy_deallocate()
PUBLIC 78dcc 0 std::__ndk1::__function::__func<hook88<(anonymous namespace)::hook88Parent>::init(GJBaseGameLayer*)::{lambda()#1}::operator()() const::{lambda(bool)#4}, std::__ndk1::allocator<hook88<(anonymous namespace)::hook88Parent>::init(GJBaseGameLayer*)::{lambda()#1}::operator()() const::{lambda(bool)#4}>, geode::ListenerResult(bool)>::operator()(bool&&)
PUBLIC 78e44 0 std::__ndk1::__function::__func<hook88<(anonymous namespace)::hook88Parent>::init(GJBaseGameLayer*)::{lambda()#1}::operator()() const::{lambda(bool)#4}, std::__ndk1::allocator<hook88<(anonymous namespace)::hook88Parent>::init(GJBaseGameLayer*)::{lambda()#1}::operator()() const::{lambda(bool)#4}>, geode::ListenerResult(bool)>::target(std::type_info const&) const
PUBLIC 78e60 0 std::__ndk1::__function::__func<hook88<(anonymous namespace)::hook88Parent>::init(GJBaseGameLayer*)::{lambda()#1}::operator()() const::{lambda(bool)#4}, std::__ndk1::allocator<hook88<(anonymous namespace)::hook88Parent>::init(GJBaseGameLayer*)::{lambda()#1}::operator()() const::{lambda(bool)#4}>, geode::ListenerResult(bool)>::target_type() const
PUBLIC 78e6c 0 std::__ndk1::__function::__func<hook88<(anonymous namespace)::hook88Parent>::init(GJBaseGameLayer*)::{lambda()#1}::operator()() const::{lambda(bool)#5}, std::__ndk1::allocator<hook88<(anonymous namespace)::hook88Parent>::init(GJBaseGameLayer*)::{lambda()#1}::operator()() const::{lambda(bool)#5}>, geode::ListenerResult(bool)>::~__func()
PUBLIC 78e70 0 std::__ndk1::__function::__func<hook88<(anonymous namespace)::hook88Parent>::init(GJBaseGameLayer*)::{lambda()#1}::operator()() const::{lambda(bool)#5}, std::__ndk1::allocator<hook88<(anonymous namespace)::hook88Parent>::init(GJBaseGameLayer*)::{lambda()#1}::operator()() const::{lambda(bool)#5}>, geode::ListenerResult(bool)>::__clone() const
PUBLIC 78ea4 0 std::__ndk1::__function::__func<hook88<(anonymous namespace)::hook88Parent>::init(GJBaseGameLayer*)::{lambda()#1}::operator()() const::{lambda(bool)#5}, std::__ndk1::allocator<hook88<(anonymous namespace)::hook88Parent>::init(GJBaseGameLayer*)::{lambda()#1}::operator()() const::{lambda(bool)#5}>, geode::ListenerResult(bool)>::__clone(std::__ndk1::__function::__base<geode::ListenerResult(bool)>*) const
PUBLIC 78eb8 0 std::__ndk1::__function::__func<hook88<(anonymous namespace)::hook88Parent>::init(GJBaseGameLayer*)::{lambda()#1}::operator()() const::{lambda(bool)#5}, std::__ndk1::allocator<hook88<(anonymous namespace)::hook88Parent>::init(GJBaseGameLayer*)::{lambda()#1}::operator()() const::{lambda(bool)#5}>, geode::ListenerResult(bool)>::destroy()
PUBLIC 78ebc 0 std::__ndk1::__function::__func<hook88<(anonymous namespace)::hook88Parent>::init(GJBaseGameLayer*)::{lambda()#1}::operator()() const::{lambda(bool)#5}, std::__ndk1::allocator<hook88<(anonymous namespace)::hook88Parent>::init(GJBaseGameLayer*)::{lambda()#1}::operator()() const::{lambda(bool)#5}>, geode::ListenerResult(bool)>::destroy_deallocate()
PUBLIC 78ec0 0 std::__ndk1::__function::__func<hook88<(anonymous namespace)::hook88Parent>::init(GJBaseGameLayer*)::{lambda()#1}::operator()() const::{lambda(bool)#5}, std::__ndk1::allocator<hook88<(anonymous namespace)::hook88Parent>::init(GJBaseGameLayer*)::{lambda()#1}::operator()() const::{lambda(bool)#5}>, geode::ListenerResult(bool)>::operator()(bool&&)
PUBLIC 78f0c 0 std::__ndk1::__function::__func<hook88<(anonymous namespace)::hook88Parent>::init(GJBaseGameLayer*)::{lambda()#1}::operator()() const::{lambda(bool)#5}, std::__ndk1::allocator<hook88<(anonymous namespace)::hook88Parent>::init(GJBaseGameLayer*)::{lambda()#1}::operator()() const::{lambda(bool)#5}>, geode::ListenerResult(bool)>::target(std::type_info const&) const
PUBLIC 78f28 0 std::__ndk1::__function::__func<hook88<(anonymous namespace)::hook88Parent>::init(GJBaseGameLayer*)::{lambda()#1}::operator()() const::{lambda(bool)#5}, std::__ndk1::allocator<hook88<(anonymous namespace)::hook88Parent>::init(GJBaseGameLayer*)::{lambda()#1}::operator()() const::{lambda(bool)#5}>, geode::ListenerResult(bool)>::target_type() const
PUBLIC 78f34 0 std::__ndk1::__function::__func<hook88<(anonymous namespace)::hook88Parent>::init(GJBaseGameLayer*)::{lambda()#1}::operator()() const::{lambda(bool)#6}, std::__ndk1::allocator<hook88<(anonymous namespace)::hook88Parent>::init(GJBaseGameLayer*)::{lambda()#1}::operator()() const::{lambda(bool)#6}>, geode::ListenerResult(bool)>::~__func()
PUBLIC 78f38 0 std::__ndk1::__function::__func<hook88<(anonymous namespace)::hook88Parent>::init(GJBaseGameLayer*)::{lambda()#1}::operator()() const::{lambda(bool)#6}, std::__ndk1::allocator<hook88<(anonymous namespace)::hook88Parent>::init(GJBaseGameLayer*)::{lambda()#1}::operator()() const::{lambda(bool)#6}>, geode::ListenerResult(bool)>::__clone() const
PUBLIC 78f6c 0 std::__ndk1::__function::__func<hook88<(anonymous namespace)::hook88Parent>::init(GJBaseGameLayer*)::{lambda()#1}::operator()() const::{lambda(bool)#6}, std::__ndk1::allocator<hook88<(anonymous namespace)::hook88Parent>::init(GJBaseGameLayer*)::{lambda()#1}::operator()() const::{lambda(bool)#6}>, geode::ListenerResult(bool)>::__clone(std::__ndk1::__function::__base<geode::ListenerResult(bool)>*) const
PUBLIC 78f80 0 std::__ndk1::__function::__func<hook88<(anonymous namespace)::hook88Parent>::init(GJBaseGameLayer*)::{lambda()#1}::operator()() const::{lambda(bool)#6}, std::__ndk1::allocator<hook88<(anonymous namespace)::hook88Parent>::init(GJBaseGameLayer*)::{lambda()#1}::operator()() const::{lambda(bool)#6}>, geode::ListenerResult(bool)>::destroy()
PUBLIC 78f84 0 std::__ndk1::__function::__func<hook88<(anonymous namespace)::hook88Parent>::init(GJBaseGameLayer*)::{lambda()#1}::operator()() const::{lambda(bool)#6}, std::__ndk1::allocator<hook88<(anonymous namespace)::hook88Parent>::init(GJBaseGameLayer*)::{lambda()#1}::operator()() const::{lambda(bool)#6}>, geode::ListenerResult(bool)>::destroy_deallocate()
PUBLIC 78f88 0 std::__ndk1::__function::__func<hook88<(anonymous namespace)::hook88Parent>::init(GJBaseGameLayer*)::{lambda()#1}::operator()() const::{lambda(bool)#6}, std::__ndk1::allocator<hook88<(anonymous namespace)::hook88Parent>::init(GJBaseGameLayer*)::{lambda()#1}::operator()() const::{lambda(bool)#6}>, geode::ListenerResult(bool)>::operator()(bool&&)
PUBLIC 78fe8 0 std::__ndk1::__function::__func<hook88<(anonymous namespace)::hook88Parent>::init(GJBaseGameLayer*)::{lambda()#1}::operator()() const::{lambda(bool)#6}, std::__ndk1::allocator<hook88<(anonymous namespace)::hook88Parent>::init(GJBaseGameLayer*)::{lambda()#1}::operator()() const::{lambda(bool)#6}>, geode::ListenerResult(bool)>::target(std::type_info const&) const
PUBLIC 79004 0 std::__ndk1::__function::__func<hook88<(anonymous namespace)::hook88Parent>::init(GJBaseGameLayer*)::{lambda()#1}::operator()() const::{lambda(bool)#6}, std::__ndk1::allocator<hook88<(anonymous namespace)::hook88Parent>::init(GJBaseGameLayer*)::{lambda()#1}::operator()() const::{lambda(bool)#6}>, geode::ListenerResult(bool)>::target_type() const
PUBLIC 79010 0 std::__ndk1::__function::__func<hook88<(anonymous namespace)::hook88Parent>::init(GJBaseGameLayer*)::{lambda()#1}::operator()() const::{lambda(bool)#7}, std::__ndk1::allocator<hook88<(anonymous namespace)::hook88Parent>::init(GJBaseGameLayer*)::{lambda()#1}::operator()() const::{lambda(bool)#7}>, geode::ListenerResult(bool)>::~__func()
PUBLIC 79014 0 std::__ndk1::__function::__func<hook88<(anonymous namespace)::hook88Parent>::init(GJBaseGameLayer*)::{lambda()#1}::operator()() const::{lambda(bool)#7}, std::__ndk1::allocator<hook88<(anonymous namespace)::hook88Parent>::init(GJBaseGameLayer*)::{lambda()#1}::operator()() const::{lambda(bool)#7}>, geode::ListenerResult(bool)>::__clone() const
PUBLIC 79048 0 std::__ndk1::__function::__func<hook88<(anonymous namespace)::hook88Parent>::init(GJBaseGameLayer*)::{lambda()#1}::operator()() const::{lambda(bool)#7}, std::__ndk1::allocator<hook88<(anonymous namespace)::hook88Parent>::init(GJBaseGameLayer*)::{lambda()#1}::operator()() const::{lambda(bool)#7}>, geode::ListenerResult(bool)>::__clone(std::__ndk1::__function::__base<geode::ListenerResult(bool)>*) const
PUBLIC 7905c 0 std::__ndk1::__function::__func<hook88<(anonymous namespace)::hook88Parent>::init(GJBaseGameLayer*)::{lambda()#1}::operator()() const::{lambda(bool)#7}, std::__ndk1::allocator<hook88<(anonymous namespace)::hook88Parent>::init(GJBaseGameLayer*)::{lambda()#1}::operator()() const::{lambda(bool)#7}>, geode::ListenerResult(bool)>::destroy()
PUBLIC 79060 0 std::__ndk1::__function::__func<hook88<(anonymous namespace)::hook88Parent>::init(GJBaseGameLayer*)::{lambda()#1}::operator()() const::{lambda(bool)#7}, std::__ndk1::allocator<hook88<(anonymous namespace)::hook88Parent>::init(GJBaseGameLayer*)::{lambda()#1}::operator()() const::{lambda(bool)#7}>, geode::ListenerResult(bool)>::destroy_deallocate()
PUBLIC 79064 0 std::__ndk1::__function::__func<hook88<(anonymous namespace)::hook88Parent>::init(GJBaseGameLayer*)::{lambda()#1}::operator()() const::{lambda(bool)#7}, std::__ndk1::allocator<hook88<(anonymous namespace)::hook88Parent>::init(GJBaseGameLayer*)::{lambda()#1}::operator()() const::{lambda(bool)#7}>, geode::ListenerResult(bool)>::operator()(bool&&)
PUBLIC 790c4 0 std::__ndk1::__function::__func<hook88<(anonymous namespace)::hook88Parent>::init(GJBaseGameLayer*)::{lambda()#1}::operator()() const::{lambda(bool)#7}, std::__ndk1::allocator<hook88<(anonymous namespace)::hook88Parent>::init(GJBaseGameLayer*)::{lambda()#1}::operator()() const::{lambda(bool)#7}>, geode::ListenerResult(bool)>::target(std::type_info const&) const
PUBLIC 790e0 0 std::__ndk1::__function::__func<hook88<(anonymous namespace)::hook88Parent>::init(GJBaseGameLayer*)::{lambda()#1}::operator()() const::{lambda(bool)#7}, std::__ndk1::allocator<hook88<(anonymous namespace)::hook88Parent>::init(GJBaseGameLayer*)::{lambda()#1}::operator()() const::{lambda(bool)#7}>, geode::ListenerResult(bool)>::target_type() const
PUBLIC 790ec 0 std::__ndk1::__function::__func<hook88<(anonymous namespace)::hook88Parent>::init(GJBaseGameLayer*)::{lambda()#1}::operator()() const::{lambda(bool)#8}, std::__ndk1::allocator<hook88<(anonymous namespace)::hook88Parent>::init(GJBaseGameLayer*)::{lambda()#1}::operator()() const::{lambda(bool)#8}>, geode::ListenerResult(bool)>::~__func()
PUBLIC 790f0 0 std::__ndk1::__function::__func<hook88<(anonymous namespace)::hook88Parent>::init(GJBaseGameLayer*)::{lambda()#1}::operator()() const::{lambda(bool)#8}, std::__ndk1::allocator<hook88<(anonymous namespace)::hook88Parent>::init(GJBaseGameLayer*)::{lambda()#1}::operator()() const::{lambda(bool)#8}>, geode::ListenerResult(bool)>::__clone() const
PUBLIC 79124 0 std::__ndk1::__function::__func<hook88<(anonymous namespace)::hook88Parent>::init(GJBaseGameLayer*)::{lambda()#1}::operator()() const::{lambda(bool)#8}, std::__ndk1::allocator<hook88<(anonymous namespace)::hook88Parent>::init(GJBaseGameLayer*)::{lambda()#1}::operator()() const::{lambda(bool)#8}>, geode::ListenerResult(bool)>::__clone(std::__ndk1::__function::__base<geode::ListenerResult(bool)>*) const
PUBLIC 79138 0 std::__ndk1::__function::__func<hook88<(anonymous namespace)::hook88Parent>::init(GJBaseGameLayer*)::{lambda()#1}::operator()() const::{lambda(bool)#8}, std::__ndk1::allocator<hook88<(anonymous namespace)::hook88Parent>::init(GJBaseGameLayer*)::{lambda()#1}::operator()() const::{lambda(bool)#8}>, geode::ListenerResult(bool)>::destroy()
PUBLIC 7913c 0 std::__ndk1::__function::__func<hook88<(anonymous namespace)::hook88Parent>::init(GJBaseGameLayer*)::{lambda()#1}::operator()() const::{lambda(bool)#8}, std::__ndk1::allocator<hook88<(anonymous namespace)::hook88Parent>::init(GJBaseGameLayer*)::{lambda()#1}::operator()() const::{lambda(bool)#8}>, geode::ListenerResult(bool)>::destroy_deallocate()
PUBLIC 79140 0 std::__ndk1::__function::__func<hook88<(anonymous namespace)::hook88Parent>::init(GJBaseGameLayer*)::{lambda()#1}::operator()() const::{lambda(bool)#8}, std::__ndk1::allocator<hook88<(anonymous namespace)::hook88Parent>::init(GJBaseGameLayer*)::{lambda()#1}::operator()() const::{lambda(bool)#8}>, geode::ListenerResult(bool)>::operator()(bool&&)
PUBLIC 791b8 0 std::__ndk1::__function::__func<hook88<(anonymous namespace)::hook88Parent>::init(GJBaseGameLayer*)::{lambda()#1}::operator()() const::{lambda(bool)#8}, std::__ndk1::allocator<hook88<(anonymous namespace)::hook88Parent>::init(GJBaseGameLayer*)::{lambda()#1}::operator()() const::{lambda(bool)#8}>, geode::ListenerResult(bool)>::target(std::type_info const&) const
PUBLIC 791d4 0 std::__ndk1::__function::__func<hook88<(anonymous namespace)::hook88Parent>::init(GJBaseGameLayer*)::{lambda()#1}::operator()() const::{lambda(bool)#8}, std::__ndk1::allocator<hook88<(anonymous namespace)::hook88Parent>::init(GJBaseGameLayer*)::{lambda()#1}::operator()() const::{lambda(bool)#8}>, geode::ListenerResult(bool)>::target_type() const
PUBLIC 791e0 0 std::__ndk1::__function::__func<hook88<(anonymous namespace)::hook88Parent>::init(GJBaseGameLayer*)::{lambda()#1}::operator()() const::{lambda(bool)#9}, std::__ndk1::allocator<hook88<(anonymous namespace)::hook88Parent>::init(GJBaseGameLayer*)::{lambda()#1}::operator()() const::{lambda(bool)#9}>, geode::ListenerResult(bool)>::~__func()
PUBLIC 791e4 0 std::__ndk1::__function::__func<hook88<(anonymous namespace)::hook88Parent>::init(GJBaseGameLayer*)::{lambda()#1}::operator()() const::{lambda(bool)#9}, std::__ndk1::allocator<hook88<(anonymous namespace)::hook88Parent>::init(GJBaseGameLayer*)::{lambda()#1}::operator()() const::{lambda(bool)#9}>, geode::ListenerResult(bool)>::__clone() const
PUBLIC 79218 0 std::__ndk1::__function::__func<hook88<(anonymous namespace)::hook88Parent>::init(GJBaseGameLayer*)::{lambda()#1}::operator()() const::{lambda(bool)#9}, std::__ndk1::allocator<hook88<(anonymous namespace)::hook88Parent>::init(GJBaseGameLayer*)::{lambda()#1}::operator()() const::{lambda(bool)#9}>, geode::ListenerResult(bool)>::__clone(std::__ndk1::__function::__base<geode::ListenerResult(bool)>*) const
PUBLIC 7922c 0 std::__ndk1::__function::__func<hook88<(anonymous namespace)::hook88Parent>::init(GJBaseGameLayer*)::{lambda()#1}::operator()() const::{lambda(bool)#9}, std::__ndk1::allocator<hook88<(anonymous namespace)::hook88Parent>::init(GJBaseGameLayer*)::{lambda()#1}::operator()() const::{lambda(bool)#9}>, geode::ListenerResult(bool)>::destroy()
PUBLIC 79230 0 std::__ndk1::__function::__func<hook88<(anonymous namespace)::hook88Parent>::init(GJBaseGameLayer*)::{lambda()#1}::operator()() const::{lambda(bool)#9}, std::__ndk1::allocator<hook88<(anonymous namespace)::hook88Parent>::init(GJBaseGameLayer*)::{lambda()#1}::operator()() const::{lambda(bool)#9}>, geode::ListenerResult(bool)>::destroy_deallocate()
PUBLIC 79234 0 std::__ndk1::__function::__func<hook88<(anonymous namespace)::hook88Parent>::init(GJBaseGameLayer*)::{lambda()#1}::operator()() const::{lambda(bool)#9}, std::__ndk1::allocator<hook88<(anonymous namespace)::hook88Parent>::init(GJBaseGameLayer*)::{lambda()#1}::operator()() const::{lambda(bool)#9}>, geode::ListenerResult(bool)>::operator()(bool&&)
PUBLIC 792ac 0 std::__ndk1::__function::__func<hook88<(anonymous namespace)::hook88Parent>::init(GJBaseGameLayer*)::{lambda()#1}::operator()() const::{lambda(bool)#9}, std::__ndk1::allocator<hook88<(anonymous namespace)::hook88Parent>::init(GJBaseGameLayer*)::{lambda()#1}::operator()() const::{lambda(bool)#9}>, geode::ListenerResult(bool)>::target(std::type_info const&) const
PUBLIC 792c8 0 std::__ndk1::__function::__func<hook88<(anonymous namespace)::hook88Parent>::init(GJBaseGameLayer*)::{lambda()#1}::operator()() const::{lambda(bool)#9}, std::__ndk1::allocator<hook88<(anonymous namespace)::hook88Parent>::init(GJBaseGameLayer*)::{lambda()#1}::operator()() const::{lambda(bool)#9}>, geode::ListenerResult(bool)>::target_type() const
PUBLIC 792d4 0 std::__ndk1::__function::__func<hook88<(anonymous namespace)::hook88Parent>::init(GJBaseGameLayer*)::{lambda()#1}::operator()() const::{lambda(bool)#10}, std::__ndk1::allocator<hook88<(anonymous namespace)::hook88Parent>::init(GJBaseGameLayer*)::{lambda()#1}::operator()() const::{lambda(bool)#10}>, geode::ListenerResult(bool)>::~__func()
PUBLIC 792d8 0 std::__ndk1::__function::__func<hook88<(anonymous namespace)::hook88Parent>::init(GJBaseGameLayer*)::{lambda()#1}::operator()() const::{lambda(bool)#10}, std::__ndk1::allocator<hook88<(anonymous namespace)::hook88Parent>::init(GJBaseGameLayer*)::{lambda()#1}::operator()() const::{lambda(bool)#10}>, geode::ListenerResult(bool)>::__clone() const
PUBLIC 7930c 0 std::__ndk1::__function::__func<hook88<(anonymous namespace)::hook88Parent>::init(GJBaseGameLayer*)::{lambda()#1}::operator()() const::{lambda(bool)#10}, std::__ndk1::allocator<hook88<(anonymous namespace)::hook88Parent>::init(GJBaseGameLayer*)::{lambda()#1}::operator()() const::{lambda(bool)#10}>, geode::ListenerResult(bool)>::__clone(std::__ndk1::__function::__base<geode::ListenerResult(bool)>*) const
PUBLIC 79320 0 std::__ndk1::__function::__func<hook88<(anonymous namespace)::hook88Parent>::init(GJBaseGameLayer*)::{lambda()#1}::operator()() const::{lambda(bool)#10}, std::__ndk1::allocator<hook88<(anonymous namespace)::hook88Parent>::init(GJBaseGameLayer*)::{lambda()#1}::operator()() const::{lambda(bool)#10}>, geode::ListenerResult(bool)>::destroy()
PUBLIC 79324 0 std::__ndk1::__function::__func<hook88<(anonymous namespace)::hook88Parent>::init(GJBaseGameLayer*)::{lambda()#1}::operator()() const::{lambda(bool)#10}, std::__ndk1::allocator<hook88<(anonymous namespace)::hook88Parent>::init(GJBaseGameLayer*)::{lambda()#1}::operator()() const::{lambda(bool)#10}>, geode::ListenerResult(bool)>::destroy_deallocate()
PUBLIC 79328 0 std::__ndk1::__function::__func<hook88<(anonymous namespace)::hook88Parent>::init(GJBaseGameLayer*)::{lambda()#1}::operator()() const::{lambda(bool)#10}, std::__ndk1::allocator<hook88<(anonymous namespace)::hook88Parent>::init(GJBaseGameLayer*)::{lambda()#1}::operator()() const::{lambda(bool)#10}>, geode::ListenerResult(bool)>::operator()(bool&&)
PUBLIC 793a0 0 std::__ndk1::__function::__func<hook88<(anonymous namespace)::hook88Parent>::init(GJBaseGameLayer*)::{lambda()#1}::operator()() const::{lambda(bool)#10}, std::__ndk1::allocator<hook88<(anonymous namespace)::hook88Parent>::init(GJBaseGameLayer*)::{lambda()#1}::operator()() const::{lambda(bool)#10}>, geode::ListenerResult(bool)>::target(std::type_info const&) const
PUBLIC 793bc 0 std::__ndk1::__function::__func<hook88<(anonymous namespace)::hook88Parent>::init(GJBaseGameLayer*)::{lambda()#1}::operator()() const::{lambda(bool)#10}, std::__ndk1::allocator<hook88<(anonymous namespace)::hook88Parent>::init(GJBaseGameLayer*)::{lambda()#1}::operator()() const::{lambda(bool)#10}>, geode::ListenerResult(bool)>::target_type() const
PUBLIC 793c8 0 std::__ndk1::__function::__func<hook88<(anonymous namespace)::hook88Parent>::init(GJBaseGameLayer*)::{lambda()#1}::operator()() const::{lambda(bool)#11}, std::__ndk1::allocator<hook88<(anonymous namespace)::hook88Parent>::init(GJBaseGameLayer*)::{lambda()#1}::operator()() const::{lambda(bool)#11}>, geode::ListenerResult(bool)>::~__func()
PUBLIC 793cc 0 std::__ndk1::__function::__func<hook88<(anonymous namespace)::hook88Parent>::init(GJBaseGameLayer*)::{lambda()#1}::operator()() const::{lambda(bool)#11}, std::__ndk1::allocator<hook88<(anonymous namespace)::hook88Parent>::init(GJBaseGameLayer*)::{lambda()#1}::operator()() const::{lambda(bool)#11}>, geode::ListenerResult(bool)>::__clone() const
PUBLIC 79400 0 std::__ndk1::__function::__func<hook88<(anonymous namespace)::hook88Parent>::init(GJBaseGameLayer*)::{lambda()#1}::operator()() const::{lambda(bool)#11}, std::__ndk1::allocator<hook88<(anonymous namespace)::hook88Parent>::init(GJBaseGameLayer*)::{lambda()#1}::operator()() const::{lambda(bool)#11}>, geode::ListenerResult(bool)>::__clone(std::__ndk1::__function::__base<geode::ListenerResult(bool)>*) const
PUBLIC 79414 0 std::__ndk1::__function::__func<hook88<(anonymous namespace)::hook88Parent>::init(GJBaseGameLayer*)::{lambda()#1}::operator()() const::{lambda(bool)#11}, std::__ndk1::allocator<hook88<(anonymous namespace)::hook88Parent>::init(GJBaseGameLayer*)::{lambda()#1}::operator()() const::{lambda(bool)#11}>, geode::ListenerResult(bool)>::destroy()
PUBLIC 79418 0 std::__ndk1::__function::__func<hook88<(anonymous namespace)::hook88Parent>::init(GJBaseGameLayer*)::{lambda()#1}::operator()() const::{lambda(bool)#11}, std::__ndk1::allocator<hook88<(anonymous namespace)::hook88Parent>::init(GJBaseGameLayer*)::{lambda()#1}::operator()() const::{lambda(bool)#11}>, geode::ListenerResult(bool)>::destroy_deallocate()
PUBLIC 7941c 0 std::__ndk1::__function::__func<hook88<(anonymous namespace)::hook88Parent>::init(GJBaseGameLayer*)::{lambda()#1}::operator()() const::{lambda(bool)#11}, std::__ndk1::allocator<hook88<(anonymous namespace)::hook88Parent>::init(GJBaseGameLayer*)::{lambda()#1}::operator()() const::{lambda(bool)#11}>, geode::ListenerResult(bool)>::operator()(bool&&)
PUBLIC 79494 0 std::__ndk1::__function::__func<hook88<(anonymous namespace)::hook88Parent>::init(GJBaseGameLayer*)::{lambda()#1}::operator()() const::{lambda(bool)#11}, std::__ndk1::allocator<hook88<(anonymous namespace)::hook88Parent>::init(GJBaseGameLayer*)::{lambda()#1}::operator()() const::{lambda(bool)#11}>, geode::ListenerResult(bool)>::target(std::type_info const&) const
PUBLIC 794b0 0 std::__ndk1::__function::__func<hook88<(anonymous namespace)::hook88Parent>::init(GJBaseGameLayer*)::{lambda()#1}::operator()() const::{lambda(bool)#11}, std::__ndk1::allocator<hook88<(anonymous namespace)::hook88Parent>::init(GJBaseGameLayer*)::{lambda()#1}::operator()() const::{lambda(bool)#11}>, geode::ListenerResult(bool)>::target_type() const
PUBLIC 794bc 0 std::__ndk1::__function::__base<geode::ListenerResult(bool)>::~__base()
PUBLIC 794c0 0 std::__ndk1::__function::__func<hook88<(anonymous namespace)::hook88Parent>::init(GJBaseGameLayer*)::{lambda()#1}::operator()() const::{lambda(bool)#12}, std::__ndk1::allocator<hook88<(anonymous namespace)::hook88Parent>::init(GJBaseGameLayer*)::{lambda()#1}::operator()() const::{lambda(bool)#12}>, geode::ListenerResult(bool)>::~__func()
PUBLIC 794c4 0 std::__ndk1::__function::__func<hook88<(anonymous namespace)::hook88Parent>::init(GJBaseGameLayer*)::{lambda()#1}::operator()() const::{lambda(bool)#12}, std::__ndk1::allocator<hook88<(anonymous namespace)::hook88Parent>::init(GJBaseGameLayer*)::{lambda()#1}::operator()() const::{lambda(bool)#12}>, geode::ListenerResult(bool)>::__clone() const
PUBLIC 794f8 0 std::__ndk1::__function::__func<hook88<(anonymous namespace)::hook88Parent>::init(GJBaseGameLayer*)::{lambda()#1}::operator()() const::{lambda(bool)#12}, std::__ndk1::allocator<hook88<(anonymous namespace)::hook88Parent>::init(GJBaseGameLayer*)::{lambda()#1}::operator()() const::{lambda(bool)#12}>, geode::ListenerResult(bool)>::__clone(std::__ndk1::__function::__base<geode::ListenerResult(bool)>*) const
PUBLIC 7950c 0 std::__ndk1::__function::__func<hook88<(anonymous namespace)::hook88Parent>::init(GJBaseGameLayer*)::{lambda()#1}::operator()() const::{lambda(bool)#12}, std::__ndk1::allocator<hook88<(anonymous namespace)::hook88Parent>::init(GJBaseGameLayer*)::{lambda()#1}::operator()() const::{lambda(bool)#12}>, geode::ListenerResult(bool)>::destroy()
PUBLIC 79510 0 std::__ndk1::__function::__func<hook88<(anonymous namespace)::hook88Parent>::init(GJBaseGameLayer*)::{lambda()#1}::operator()() const::{lambda(bool)#12}, std::__ndk1::allocator<hook88<(anonymous namespace)::hook88Parent>::init(GJBaseGameLayer*)::{lambda()#1}::operator()() const::{lambda(bool)#12}>, geode::ListenerResult(bool)>::destroy_deallocate()
PUBLIC 79514 0 std::__ndk1::__function::__func<hook88<(anonymous namespace)::hook88Parent>::init(GJBaseGameLayer*)::{lambda()#1}::operator()() const::{lambda(bool)#12}, std::__ndk1::allocator<hook88<(anonymous namespace)::hook88Parent>::init(GJBaseGameLayer*)::{lambda()#1}::operator()() const::{lambda(bool)#12}>, geode::ListenerResult(bool)>::operator()(bool&&)
PUBLIC 79584 0 std::__ndk1::__function::__func<hook88<(anonymous namespace)::hook88Parent>::init(GJBaseGameLayer*)::{lambda()#1}::operator()() const::{lambda(bool)#12}, std::__ndk1::allocator<hook88<(anonymous namespace)::hook88Parent>::init(GJBaseGameLayer*)::{lambda()#1}::operator()() const::{lambda(bool)#12}>, geode::ListenerResult(bool)>::target(std::type_info const&) const
PUBLIC 795a0 0 std::__ndk1::__function::__func<hook88<(anonymous namespace)::hook88Parent>::init(GJBaseGameLayer*)::{lambda()#1}::operator()() const::{lambda(bool)#12}, std::__ndk1::allocator<hook88<(anonymous namespace)::hook88Parent>::init(GJBaseGameLayer*)::{lambda()#1}::operator()() const::{lambda(bool)#12}>, geode::ListenerResult(bool)>::target_type() const
PUBLIC 795ac 0 std::__ndk1::unordered_set<cocos2d::enumKeyCodes, std::__ndk1::hash<cocos2d::enumKeyCodes>, std::__ndk1::equal_to<cocos2d::enumKeyCodes>, std::__ndk1::allocator<cocos2d::enumKeyCodes> >::~unordered_set[abi:ne180000]()
PUBLIC 795f8 0 DummySettingValue::createNode(float)
PUBLIC 796cc 0 DummySettingValue::~DummySettingValue()
PUBLIC 79730 0 DummySettingValue::load(matjson::Value const&)
PUBLIC 79738 0 DummySettingValue::save(matjson::Value&) const
PUBLIC 79740 0 __cxx_global_var_init.3
PUBLIC 79cec 0 __cxx_global_var_init.4
PUBLIC 7a0d8 0 _GLOBAL__sub_I_main.cpp
PUBLIC 7a360 0 geode::modifier::ModifyBase<geode::modifier::ModifyDerive<hook78<(anonymous namespace)::hook78Parent>, cocos2d::CCKeyboardDispatcher> >::~ModifyBase()
PUBLIC 7a37c 0 geode::modifier::ModifyBase<geode::modifier::ModifyDerive<hook231<(anonymous namespace)::hook231Parent>, MoreOptionsLayer> >::~ModifyBase()
PUBLIC 7a398 0 ButtonSettingNode::init(geode::SettingValue*, float)
PUBLIC 7a4cc 0 ButtonSettingNode::~ButtonSettingNode()
PUBLIC 7a4f0 0 ButtonSettingNode::commit()
PUBLIC 7a4f4 0 ButtonSettingNode::hasUncommittedChanges()
PUBLIC 7a4fc 0 ButtonSettingNode::hasNonDefaultValue()
PUBLIC 7a504 0 ButtonSettingNode::resetToDefault()
PUBLIC 7a508 0 ButtonSettingNode::onOpen(cocos2d::CCObject*)
PUBLIC 7a524 0 geode::SettingValue::~SettingValue()
PUBLIC 7a574 0 geode::SettingValue::~SettingValue()
PUBLIC 7a578 0 geode::modifier::ModifyDerive<hook78<(anonymous namespace)::hook78Parent>, cocos2d::CCKeyboardDispatcher>::apply()
PUBLIC 7aca8 0 geode::modifier::ModifyBase<geode::modifier::ModifyDerive<hook78<(anonymous namespace)::hook78Parent>, cocos2d::CCKeyboardDispatcher> >::apply()
PUBLIC 7acac 0 geode::modifier::AsStaticFunction_dispatchKeyboardMSG<hook78<(anonymous namespace)::hook78Parent>, bool (hook78<(anonymous namespace)::hook78Parent>::*)(cocos2d::enumKeyCodes, bool, bool)>::Impl<bool (hook78<(anonymous namespace)::hook78Parent>::*)(cocos2d::enumKeyCodes, bool, bool)>::function(hook78<(anonymous namespace)::hook78Parent>*, cocos2d::enumKeyCodes, bool, bool)
PUBLIC 7b354 0 geode::modifier::AsStaticFunction_updateModifierKeys<hook78<(anonymous namespace)::hook78Parent>, void (hook78<(anonymous namespace)::hook78Parent>::*)(bool, bool, bool, bool)>::Impl<void (hook78<(anonymous namespace)::hook78Parent>::*)(bool, bool, bool, bool)>::function(hook78<(anonymous namespace)::hook78Parent>*, bool, bool, bool, bool)
PUBLIC 7b368 0 std::__ndk1::unordered_set<keybinds::Modifier, std::__ndk1::hash<keybinds::Modifier>, std::__ndk1::equal_to<keybinds::Modifier>, std::__ndk1::allocator<keybinds::Modifier> >::~unordered_set[abi:ne180000]()
PUBLIC 7b3b4 0 std::__ndk1::__hash_table<cocos2d::enumKeyCodes, std::__ndk1::hash<cocos2d::enumKeyCodes>, std::__ndk1::equal_to<cocos2d::enumKeyCodes>, std::__ndk1::allocator<cocos2d::enumKeyCodes> >::__emplace_unique_key_args<cocos2d::enumKeyCodes, cocos2d::enumKeyCodes const&>(cocos2d::enumKeyCodes const&, cocos2d::enumKeyCodes const&)
PUBLIC 7b6d8 0 std::__ndk1::__hash_table<cocos2d::enumKeyCodes, std::__ndk1::hash<cocos2d::enumKeyCodes>, std::__ndk1::equal_to<cocos2d::enumKeyCodes>, std::__ndk1::allocator<cocos2d::enumKeyCodes> >::__do_rehash<true>(unsigned long)
PUBLIC 7b8b0 0 std::__ndk1::__hash_table<cocos2d::enumKeyCodes, std::__ndk1::hash<cocos2d::enumKeyCodes>, std::__ndk1::equal_to<cocos2d::enumKeyCodes>, std::__ndk1::allocator<cocos2d::enumKeyCodes> >::__erase_unique<cocos2d::enumKeyCodes>(cocos2d::enumKeyCodes const&)
PUBLIC 7b9f0 0 std::__ndk1::__hash_table<cocos2d::enumKeyCodes, std::__ndk1::hash<cocos2d::enumKeyCodes>, std::__ndk1::equal_to<cocos2d::enumKeyCodes>, std::__ndk1::allocator<cocos2d::enumKeyCodes> >::remove(std::__ndk1::__hash_const_iterator<std::__ndk1::__hash_node<cocos2d::enumKeyCodes, void*>*>)
PUBLIC 7bb24 0 std::__ndk1::__hash_table<keybinds::Modifier, std::__ndk1::hash<keybinds::Modifier>, std::__ndk1::equal_to<keybinds::Modifier>, std::__ndk1::allocator<keybinds::Modifier> >::__emplace_unique_key_args<keybinds::Modifier, keybinds::Modifier const&>(keybinds::Modifier const&, keybinds::Modifier const&)
PUBLIC 7be28 0 std::__ndk1::__hash_table<keybinds::Modifier, std::__ndk1::hash<keybinds::Modifier>, std::__ndk1::equal_to<keybinds::Modifier>, std::__ndk1::allocator<keybinds::Modifier> >::__do_rehash<true>(unsigned long)
PUBLIC 7c000 0 std::__ndk1::__hash_table<keybinds::Modifier, std::__ndk1::hash<keybinds::Modifier>, std::__ndk1::equal_to<keybinds::Modifier>, std::__ndk1::allocator<keybinds::Modifier> >::__emplace_unique_key_args<keybinds::Modifier, keybinds::Modifier>(keybinds::Modifier const&, keybinds::Modifier&&)
PUBLIC 7c304 0 geode::modifier::ModifyDerive<hook231<(anonymous namespace)::hook231Parent>, MoreOptionsLayer>::apply()
PUBLIC 7c678 0 geode::modifier::ModifyBase<geode::modifier::ModifyDerive<hook231<(anonymous namespace)::hook231Parent>, MoreOptionsLayer> >::apply()
PUBLIC 7c67c 0 geode::modifier::AsStaticFunction_onKeybindings<hook231<(anonymous namespace)::hook231Parent>, void (hook231<(anonymous namespace)::hook231Parent>::*)(cocos2d::CCObject*)>::Impl<void (hook231<(anonymous namespace)::hook231Parent>::*)(cocos2d::CCObject*)>::function(hook231<(anonymous namespace)::hook231Parent>*, cocos2d::CCObject*)
PUBLIC 7c698 0 geode::utils::MiniFunctionState<geodeExecFunction271<(anonymous namespace)::ExecFuncUnique271>()::{lambda()#1}, void, >::~MiniFunctionState()
PUBLIC 7c69c 0 geode::utils::MiniFunctionState<geodeExecFunction271<(anonymous namespace)::ExecFuncUnique271>()::{lambda()#1}, void, >::call() const
PUBLIC 7c730 0 geode::utils::MiniFunctionState<geodeExecFunction271<(anonymous namespace)::ExecFuncUnique271>()::{lambda()#1}, void, >::clone() const
PUBLIC 7c754 0 ControllerChecker::checkController(float)
PUBLIC 7c8bc 0 std::__ndk1::__function::__func<keybinds::ControllerBind* (*)(matjson::Value const&), std::__ndk1::allocator<keybinds::ControllerBind* (*)(matjson::Value const&)>, keybinds::Bind* (matjson::Value const&)>::~__func()
PUBLIC 7c8c0 0 std::__ndk1::__function::__func<keybinds::ControllerBind* (*)(matjson::Value const&), std::__ndk1::allocator<keybinds::ControllerBind* (*)(matjson::Value const&)>, keybinds::Bind* (matjson::Value const&)>::__clone() const
PUBLIC 7c8f4 0 std::__ndk1::__function::__func<keybinds::ControllerBind* (*)(matjson::Value const&), std::__ndk1::allocator<keybinds::ControllerBind* (*)(matjson::Value const&)>, keybinds::Bind* (matjson::Value const&)>::__clone(std::__ndk1::__function::__base<keybinds::Bind* (matjson::Value const&)>*) const
PUBLIC 7c908 0 std::__ndk1::__function::__func<keybinds::ControllerBind* (*)(matjson::Value const&), std::__ndk1::allocator<keybinds::ControllerBind* (*)(matjson::Value const&)>, keybinds::Bind* (matjson::Value const&)>::destroy()
PUBLIC 7c90c 0 std::__ndk1::__function::__func<keybinds::ControllerBind* (*)(matjson::Value const&), std::__ndk1::allocator<keybinds::ControllerBind* (*)(matjson::Value const&)>, keybinds::Bind* (matjson::Value const&)>::destroy_deallocate()
PUBLIC 7c910 0 std::__ndk1::__function::__func<keybinds::ControllerBind* (*)(matjson::Value const&), std::__ndk1::allocator<keybinds::ControllerBind* (*)(matjson::Value const&)>, keybinds::Bind* (matjson::Value const&)>::operator()(matjson::Value const&)
PUBLIC 7c91c 0 std::__ndk1::__function::__func<keybinds::ControllerBind* (*)(matjson::Value const&), std::__ndk1::allocator<keybinds::ControllerBind* (*)(matjson::Value const&)>, keybinds::Bind* (matjson::Value const&)>::target(std::type_info const&) const
PUBLIC 7c938 0 std::__ndk1::__function::__func<keybinds::ControllerBind* (*)(matjson::Value const&), std::__ndk1::allocator<keybinds::ControllerBind* (*)(matjson::Value const&)>, keybinds::Bind* (matjson::Value const&)>::target_type() const
PUBLIC 7c944 0 ControllerChecker::~ControllerChecker()
PUBLIC 7c968 0 geode::getMod()
PUBLIC m 7c9a4 0 geodeImplicitEntry
PUBLIC 7c9e0 0 unwind_phase2
PUBLIC 7cb14 0 _Unwind_Resume
PUBLIC 7cb98 0 unwind_phase2_forced
PUBLIC m 7cc8c 0 __unw_init_local
PUBLIC m 7cd34 0 __unw_get_reg
PUBLIC 7cdb0 0 __unw_step_stage2
PUBLIC m 7cdc4 0 __unw_get_proc_info
PUBLIC m 7ce04 0 __unw_resume
PUBLIC 7ce2c 0 libunwind::CFI_Parser<libunwind::LocalAddressSpace>::decodeFDE(libunwind::LocalAddressSpace&, unsigned long, libunwind::CFI_Parser<libunwind::LocalAddressSpace>::FDE_Info*, libunwind::CFI_Parser<libunwind::LocalAddressSpace>::CIE_Info*, bool)
PUBLIC 7cfbc 0 libunwind::CFI_Parser<libunwind::LocalAddressSpace>::parseCIE(libunwind::LocalAddressSpace&, unsigned long, libunwind::CFI_Parser<libunwind::LocalAddressSpace>::CIE_Info*)
PUBLIC 7d284 0 libunwind::AbstractUnwindCursor::~AbstractUnwindCursor()
PUBLIC 7d28c 0 libunwind::UnwindCursor<libunwind::LocalAddressSpace, libunwind::Registers_arm64>::~UnwindCursor()
PUBLIC 7d294 0 libunwind::UnwindCursor<libunwind::LocalAddressSpace, libunwind::Registers_arm64>::validReg(int)
PUBLIC 7d2d8 0 libunwind::UnwindCursor<libunwind::LocalAddressSpace, libunwind::Registers_arm64>::getReg(int)
PUBLIC 7d3c0 0 libunwind::UnwindCursor<libunwind::LocalAddressSpace, libunwind::Registers_arm64>::setReg(int, unsigned long)
PUBLIC 7d4a8 0 libunwind::UnwindCursor<libunwind::LocalAddressSpace, libunwind::Registers_arm64>::validFloatReg(int)
PUBLIC 7d4bc 0 libunwind::UnwindCursor<libunwind::LocalAddressSpace, libunwind::Registers_arm64>::getFloatReg(int)
PUBLIC 7d4cc 0 libunwind::UnwindCursor<libunwind::LocalAddressSpace, libunwind::Registers_arm64>::setFloatReg(int, double)
PUBLIC 7d4dc 0 libunwind::UnwindCursor<libunwind::LocalAddressSpace, libunwind::Registers_arm64>::step(bool)
PUBLIC 7d5cc 0 libunwind::UnwindCursor<libunwind::LocalAddressSpace, libunwind::Registers_arm64>::getInfo(unw_proc_info_t*)
PUBLIC 7d610 0 libunwind::UnwindCursor<libunwind::LocalAddressSpace, libunwind::Registers_arm64>::jumpto()
PUBLIC 7d61c 0 libunwind::UnwindCursor<libunwind::LocalAddressSpace, libunwind::Registers_arm64>::isSignalFrame()
PUBLIC 7d628 0 libunwind::UnwindCursor<libunwind::LocalAddressSpace, libunwind::Registers_arm64>::getFunctionName(char*, unsigned long, unsigned long*)
PUBLIC 7d654 0 libunwind::UnwindCursor<libunwind::LocalAddressSpace, libunwind::Registers_arm64>::setInfoBasedOnIPRegister(bool)
PUBLIC 7d8d4 0 libunwind::UnwindCursor<libunwind::LocalAddressSpace, libunwind::Registers_arm64>::getRegisterName(int)
PUBLIC 7d8e0 0 libunwind::UnwindCursor<libunwind::LocalAddressSpace, libunwind::Registers_arm64>::stepThroughSigReturn(libunwind::Registers_arm64&)
PUBLIC 7da00 0 libunwind::DwarfInstructions<libunwind::LocalAddressSpace, libunwind::Registers_arm64>::stepWithDwarf(libunwind::LocalAddressSpace&, unsigned long, unsigned long, libunwind::Registers_arm64&, bool&, bool)
PUBLIC 7de88 0 libunwind::CFI_Parser<libunwind::LocalAddressSpace>::parseFDEInstructions(libunwind::LocalAddressSpace&, libunwind::CFI_Parser<libunwind::LocalAddressSpace>::FDE_Info const&, libunwind::CFI_Parser<libunwind::LocalAddressSpace>::CIE_Info const&, unsigned long, int, libunwind::CFI_Parser<libunwind::LocalAddressSpace>::PrologInfo*)
PUBLIC 7ead0 0 libunwind::DwarfInstructions<libunwind::LocalAddressSpace, libunwind::Registers_arm64>::getCFA(libunwind::LocalAddressSpace&, libunwind::CFI_Parser<libunwind::LocalAddressSpace>::PrologInfo const&, libunwind::Registers_arm64 const&)
PUBLIC 7ec04 0 libunwind::DwarfInstructions<libunwind::LocalAddressSpace, libunwind::Registers_arm64>::getSavedRegister(libunwind::LocalAddressSpace&, libunwind::Registers_arm64 const&, unsigned long, libunwind::CFI_Parser<libunwind::LocalAddressSpace>::RegisterLocation const&)
PUBLIC 7ee14 0 libunwind::LocalAddressSpace::getEncodedP(unsigned long&, unsigned long, unsigned char, unsigned long)
PUBLIC 7f1a0 0 libunwind::LocalAddressSpace::getULEB128(unsigned long&, unsigned long)
PUBLIC 7f368 0 libunwind::DwarfInstructions<libunwind::LocalAddressSpace, libunwind::Registers_arm64>::evaluateExpression(unsigned long, libunwind::LocalAddressSpace&, libunwind::Registers_arm64 const&, unsigned long)
PUBLIC 7fd24 0 libunwind::UnwindCursor<libunwind::LocalAddressSpace, libunwind::Registers_arm64>::getInfoFromDwarfSection(unsigned long, libunwind::UnwindInfoSections const&, unsigned int)
PUBLIC 7fff8 0 libunwind::findUnwindSectionsByPhdr(dl_phdr_info*, unsigned long, void*)
PUBLIC 8012c 0 libunwind::EHHeaderParser<libunwind::LocalAddressSpace>::decodeEHHdr(libunwind::LocalAddressSpace&, unsigned long, unsigned long, libunwind::EHHeaderParser<libunwind::LocalAddressSpace>::EHHeaderInfo&)
PUBLIC 8024c 0 libunwind::CFI_Parser<libunwind::LocalAddressSpace>::findFDE(libunwind::LocalAddressSpace&, unsigned long, unsigned long, unsigned long, unsigned long, libunwind::CFI_Parser<libunwind::LocalAddressSpace>::FDE_Info*, libunwind::CFI_Parser<libunwind::LocalAddressSpace>::CIE_Info*)
PUBLIC 80414 0 libunwind::EHHeaderParser<libunwind::LocalAddressSpace>::findFDE(libunwind::LocalAddressSpace&, unsigned long, unsigned long, unsigned int, libunwind::CFI_Parser<libunwind::LocalAddressSpace>::FDE_Info*, libunwind::CFI_Parser<libunwind::LocalAddressSpace>::CIE_Info*)
PUBLIC 8057c 0 libunwind::EHHeaderParser<libunwind::LocalAddressSpace>::getTableEntrySize(unsigned char)
PUBLIC 80678 0 libunwind::Registers_arm64::getRegisterName(int)
PUBLIC 806a8 0 __libunwind_Registers_arm64_jumpto
PUBLIC m 80738 0 __unw_getcontext
PUBLIC 807e0 0 __aarch64_ldadd8_relax
PUBLIC 80810 0 init_have_lse_atomics
PUBLIC 808a8 0 __init_cpu_features_constructor
PUBLIC 80e44 0 __init_cpu_features
PUBLIC 80ed0 0 __aarch64_ldadd8_acq_rel
PUBLIC 80f00 0 cocos2d::CCDestructor::~CCDestructor()
PUBLIC 811bc 0 wrapFunction(unsigned long, tulip::hook::WrapperMetadata const&)
PUBLIC 81308 0 tulip::hook::WrapperMetadata::~WrapperMetadata()
PUBLIC 8136c 0 cocos2d::CCObject::CCObject()
PUBLIC 814e0 0 cocos2d::CCNode::CCNode()
PUBLIC 81674 0 cocos2d::CCNode::~CCNode()
PUBLIC 81698 0 {virtual override thunk({offset(-320)}, cocos2d::CCLayer::~CCLayer())}
PUBLIC 816a0 0 cocos2d::CCLayer::~CCLayer()
PUBLIC 816c4 0 {virtual override thunk({offset(-320)}, cocos2d::CCLayer::~CCLayer())}
PUBLIC 816ec 0 cocos2d::CCObject::~CCObject()
PUBLIC 81710 0 cocos2d::CCLayerRGBA::~CCLayerRGBA()
PUBLIC 819e4 0 {virtual override thunk({offset(-320)}, cocos2d::CCLayerColor::~CCLayerColor())}
PUBLIC 819ec 0 cocos2d::CCLayerColor::~CCLayerColor()
PUBLIC 81a10 0 {virtual override thunk({offset(-320)}, cocos2d::CCLayerColor::~CCLayerColor())}
PUBLIC 81a38 0 {virtual override thunk({offset(-320)}, cocos2d::CCLayerRGBA::~CCLayerRGBA())}
PUBLIC 81a40 0 cocos2d::CCLayerRGBA::~CCLayerRGBA()
PUBLIC 81a64 0 {virtual override thunk({offset(-320)}, cocos2d::CCLayerRGBA::~CCLayerRGBA())}
PUBLIC 81a8c 0 {virtual override thunk({offset(-320)}, FLAlertLayer::~FLAlertLayer())}
PUBLIC 81a94 0 FLAlertLayer::~FLAlertLayer()
PUBLIC 81ab8 0 {virtual override thunk({offset(-320)}, FLAlertLayer::~FLAlertLayer())}
PUBLIC 81ae0 0 FLAlertLayer::FLAlertLayer()
PUBLIC 81f74 0 FLAlertLayer::create(FLAlertLayerProtocol*, char const*, gd::string, char const*, char const*, float)
PUBLIC 82128 0 tulip::hook::AbstractFunction::from<FLAlertLayer*, FLAlertLayerProtocol*, char const*, gd::string, char const*, char const*, float>(FLAlertLayer* (*)(FLAlertLayerProtocol*, char const*, gd::string, char const*, char const*, float))
PUBLIC 82270 0 TextInputDelegate::textInputOpened(CCTextInputNode*)
PUBLIC 82274 0 TextInputDelegate::textInputClosed(CCTextInputNode*)
PUBLIC 82278 0 TextInputDelegate::textInputShouldOffset(CCTextInputNode*, float)
PUBLIC 8227c 0 TextInputDelegate::textInputReturn(CCTextInputNode*)
PUBLIC 82280 0 TextInputDelegate::allowTextInput(CCTextInputNode*)
PUBLIC 82288 0 TextInputDelegate::enterPressed(CCTextInputNode*)
PUBLIC 8228c 0 ButtonSprite::create(cocos2d::CCSprite*, int, bool, float, char const*, float)
PUBLIC 822a0 0 ButtonSprite::create(char const*, int, bool, char const*, char const*, float, float)
PUBLIC 822c0 0 ButtonSprite::create(char const*, char const*, char const*, float)
PUBLIC 822dc 0 CCMenuItemSpriteExtra::create(cocos2d::CCNode*, cocos2d::CCObject*, void (cocos2d::CCObject::*)(cocos2d::CCObject*))
PUBLIC 822f0 0 CCMenuItemToggler::createWithStandardSprites(cocos2d::CCObject*, void (cocos2d::CCObject::*)(cocos2d::CCObject*), float)
PUBLIC 824e8 0 CCMenuItemToggler::isToggled()
PUBLIC 824f0 0 CCTextInputNode::setDelegate(TextInputDelegate*)
PUBLIC 824f8 0 tulip::hook::AbstractFunction::from<void, CCTextInputNode*, gd::string>(void (*)(CCTextInputNode*, gd::string))
PUBLIC 8259c 0 CCTextInputNode::getPlaceholderLabel()
PUBLIC 825a4 0 CCTextInputNode::setString(gd::string)
PUBLIC 82718 0 CCTextInputNode::updateLabel(gd::string)
PUBLIC 8288c 0 PlayLayer::get()
PUBLIC 828a4 0 cocos2d::CCLayer::~CCLayer()
PUBLIC 82b68 0 cocos2d::CCLayerColor::~CCLayerColor()
PUBLIC 82e20 0 FLAlertLayer::~FLAlertLayer()
PUBLIC 830d8 0 cocos2d::CCObject::~CCObject()
PUBLIC 83314 0 cocos2d::CCNode::~CCNode()
PUBLIC 83588 0 std::__ndk1::__hash_table<std::__ndk1::__hash_value_type<void*, bool>, std::__ndk1::__unordered_map_hasher<void*, std::__ndk1::__hash_value_type<void*, bool>, std::__ndk1::hash<void*>, std::__ndk1::equal_to<void*>, true>, std::__ndk1::__unordered_map_equal<void*, std::__ndk1::__hash_value_type<void*, bool>, std::__ndk1::equal_to<void*>, std::__ndk1::hash<void*>, true>, std::__ndk1::allocator<std::__ndk1::__hash_value_type<void*, bool> > >::__emplace_unique_key_args<void*, std::__ndk1::piecewise_construct_t const&, std::__ndk1::tuple<void* const&>, std::__ndk1::tuple<> >(void* const&, std::__ndk1::piecewise_construct_t const&, std::__ndk1::tuple<void* const&>, std::__ndk1::tuple<>)
PUBLIC 83a2c 0 __udivti3
PUBLIC 83a38 0 __udivmodti4
PUBLIC m 83c84 0 __eqtf2
PUBLIC 83d24 0 __unordtf2
PUBLIC 83d5c 0 fmt::v10::detail::throw_format_error(char const*)
PUBLIC 83dac 0 fmt::v10::format_error::runtime_error(char const*)
PUBLIC 83dd8 0 fmt::v10::detail::write_loc(fmt::v10::appender, fmt::v10::loc_value, fmt::v10::format_specs<char> const&, fmt::v10::detail::locale_ref)
PUBLIC 8406c 0 fmt::v10::format_facet<std::__ndk1::locale>::~format_facet()
PUBLIC 840dc 0 fmt::v10::format_facet<std::__ndk1::locale>::do_put(fmt::v10::appender, fmt::v10::loc_value, fmt::v10::format_specs<char> const&) const
PUBLIC 8482c 0 fmt::v10::detail::loc_writer<char>::~loc_writer()
PUBLIC 84890 0 fmt::v10::vformat(fmt::v10::basic_string_view<char>, fmt::v10::basic_format_args<fmt::v10::basic_format_context<fmt::v10::appender, char> >)
PUBLIC 84d70 0 fmt::v10::detail::is_printable(unsigned int)
PUBLIC 84f98 0 fmt::v10::detail::dragonbox::to_decimal<float>(float)
PUBLIC 8524c 0 fmt::v10::detail::dragonbox::to_decimal<double>(double)
PUBLIC 8577c 0 fmt::v10::format_error::~format_error()
PUBLIC 857a0 0 fmt::v10::basic_memory_buffer<char, (unsigned long)500, std::__ndk1::allocator<char> >::grow(unsigned long)
PUBLIC 858d8 0 fmt::v10::format_facet<std::__ndk1::locale>::~format_facet()
PUBLIC 85950 0 fmt::v10::detail::default_arg_formatter<char>::operator()<bool>(bool)
PUBLIC 859bc 0 fmt::v10::detail::default_arg_formatter<char>::operator()<float>(float)
PUBLIC 85ab0 0 fmt::v10::detail::default_arg_formatter<char>::operator()<double>(double)
PUBLIC 85ba0 0 fmt::v10::detail::default_arg_formatter<char>::operator()<char const*>(char const*)
PUBLIC 85be8 0 fmt::v10::detail::default_arg_formatter<char>::operator()<void const*>(void const*)
PUBLIC 85c80 0 _ZN3fmt3v106detail5writeIcNS0_8appenderEiTnNSt6__ndk19enable_ifIXaaaasr11is_integralIT1_EE5valuentsr3std7is_sameIS6_bEE5valuentsr3std7is_sameIS6_T_EE5valueEiE4typeELi0EEET0_SA_S6_
PUBLIC 85e78 0 fmt::v10::detail::copy_str_noinline<char, char*, fmt::v10::appender>(char*, char*, fmt::v10::appender)
PUBLIC 85fe4 0 _ZN3fmt3v106detail5writeIcNS0_8appenderEjTnNSt6__ndk19enable_ifIXaaaasr11is_integralIT1_EE5valuentsr3std7is_sameIS6_bEE5valuentsr3std7is_sameIS6_T_EE5valueEiE4typeELi0EEET0_SA_S6_
PUBLIC 8617c 0 _ZN3fmt3v106detail5writeIcNS0_8appenderExTnNSt6__ndk19enable_ifIXaaaasr11is_integralIT1_EE5valuentsr3std7is_sameIS6_bEE5valuentsr3std7is_sameIS6_T_EE5valueEiE4typeELi0EEET0_SA_S6_
PUBLIC 86398 0 _ZN3fmt3v106detail5writeIcNS0_8appenderEyTnNSt6__ndk19enable_ifIXaaaasr11is_integralIT1_EE5valuentsr3std7is_sameIS6_bEE5valuentsr3std7is_sameIS6_T_EE5valueEiE4typeELi0EEET0_SA_S6_
PUBLIC 86558 0 _ZN3fmt3v106detail5writeIcNS0_8appenderEnTnNSt6__ndk19enable_ifIXaaaasr11is_integralIT1_EE5valuentsr3std7is_sameIS6_bEE5valuentsr3std7is_sameIS6_T_EE5valueEiE4typeELi0EEET0_SA_S6_
PUBLIC 86848 0 _ZN3fmt3v106detail5writeIcNS0_8appenderEoTnNSt6__ndk19enable_ifIXaaaasr11is_integralIT1_EE5valuentsr3std7is_sameIS6_bEE5valuentsr3std7is_sameIS6_T_EE5valueEiE4typeELi0EEET0_SA_S6_
PUBLIC 86ad0 0 _ZN3fmt3v106detail5writeIcNS0_8appenderEbTnNSt6__ndk19enable_ifIXsr3std7is_sameIT1_bEE5valueEiE4typeELi0EEET0_S9_S6_RKNS0_12format_specsIT_EENS1_10locale_refE
PUBLIC 86d58 0 fmt::v10::detail::write_int_noinline<char, fmt::v10::appender, unsigned int>(fmt::v10::appender, fmt::v10::detail::write_int_arg<unsigned int>, fmt::v10::format_specs<char> const&, fmt::v10::detail::locale_ref)
PUBLIC 87a54 0 fmt::v10::detail::fill<fmt::v10::appender, char>(fmt::v10::appender, unsigned long, fmt::v10::detail::fill_t<char> const&)
PUBLIC 87c44 0 fmt::v10::detail::write_escaped_cp<fmt::v10::appender, char>(fmt::v10::appender, fmt::v10::detail::find_escape_result<char> const&)
PUBLIC 87f70 0 fmt::v10::detail::write_codepoint<(unsigned long)2, char, fmt::v10::appender>(fmt::v10::appender, char, unsigned int)
PUBLIC 880f4 0 fmt::v10::detail::write_codepoint<(unsigned long)8, char, fmt::v10::appender>(fmt::v10::appender, char, unsigned int)
PUBLIC 88278 0 fmt::v10::detail::write_padded<(fmt::v10::align::type)1, fmt::v10::appender, char, fmt::v10::detail::write_nonfinite<char, fmt::v10::appender>(fmt::v10::appender, bool, fmt::v10::format_specs<char>, fmt::v10::detail::float_specs const&)::{lambda(fmt::v10::appender&)#1}>(fmt::v10::appender, fmt::v10::format_specs<char> const&, unsigned long, unsigned long, fmt::v10::detail::write_nonfinite<char, fmt::v10::appender>(fmt::v10::appender, bool, fmt::v10::format_specs<char>, fmt::v10::detail::float_specs const&)::{lambda(fmt::v10::appender&)#1})
PUBLIC 884a4 0 fmt::v10::detail::do_write_float<fmt::v10::appender, fmt::v10::detail::dragonbox::decimal_fp<float>, char, fmt::v10::detail::digit_grouping<char> >(fmt::v10::appender, fmt::v10::detail::dragonbox::decimal_fp<float> const&, fmt::v10::format_specs<char> const&, fmt::v10::detail::float_specs, fmt::v10::detail::locale_ref)
PUBLIC 89064 0 fmt::v10::detail::do_write_float<fmt::v10::appender, fmt::v10::detail::dragonbox::decimal_fp<float>, char, fmt::v10::detail::digit_grouping<char> >(fmt::v10::appender, fmt::v10::detail::dragonbox::decimal_fp<float> const&, fmt::v10::format_specs<char> const&, fmt::v10::detail::float_specs, fmt::v10::detail::locale_ref)::{lambda(fmt::v10::appender(fmt::v10::appender))#1}::operator() const
PUBLIC 891b8 0 fmt::v10::detail::digit_grouping<char>::digit_grouping(fmt::v10::detail::locale_ref, bool)
PUBLIC 893f0 0 fmt::v10::detail::digit_grouping<char>::~digit_grouping()
PUBLIC 89434 0 fmt::v10::detail::write_exponent<char, fmt::v10::appender>(int, fmt::v10::appender)
PUBLIC 895f0 0 _ZN3fmt3v106detail17write_significandIcjTnNSt6__ndk19enable_ifIXsr3std11is_integralIT0_EE5valueEiE4typeELi0EEEPT_S9_S5_iiS8_
PUBLIC 8976c 0 fmt::v10::detail::digit_grouping<char>::apply<fmt::v10::appender, char>(fmt::v10::appender, fmt::v10::basic_string_view<char>) const
PUBLIC 89b30 0 fmt::v10::basic_memory_buffer<int, (unsigned long)500, std::__ndk1::allocator<int> >::grow(unsigned long)
PUBLIC 89c40 0 fmt::v10::detail::do_write_float<fmt::v10::appender, fmt::v10::detail::dragonbox::decimal_fp<double>, char, fmt::v10::detail::digit_grouping<char> >(fmt::v10::appender, fmt::v10::detail::dragonbox::decimal_fp<double> const&, fmt::v10::format_specs<char> const&, fmt::v10::detail::float_specs, fmt::v10::detail::locale_ref)
PUBLIC 8a83c 0 fmt::v10::detail::do_write_float<fmt::v10::appender, fmt::v10::detail::dragonbox::decimal_fp<double>, char, fmt::v10::detail::digit_grouping<char> >(fmt::v10::appender, fmt::v10::detail::dragonbox::decimal_fp<double> const&, fmt::v10::format_specs<char> const&, fmt::v10::detail::float_specs, fmt::v10::detail::locale_ref)::{lambda(fmt::v10::appender(fmt::v10::appender))#1}::operator() const
PUBLIC 8a994 0 _ZN3fmt3v106detail17write_significandIcmTnNSt6__ndk19enable_ifIXsr3std11is_integralIT0_EE5valueEiE4typeELi0EEEPT_S9_S5_iiS8_
PUBLIC 8ab24 0 fmt::v10::detail::write_float<char, fmt::v10::appender, long double>(fmt::v10::appender, long double, fmt::v10::format_specs<char>, fmt::v10::detail::locale_ref)
PUBLIC 8b5c8 0 fmt::v10::detail::parse_float_type_spec<char>(fmt::v10::format_specs<char> const&)
PUBLIC 8b6cc 0 fmt::v10::detail::write_bytes<(fmt::v10::align::type)2, char, fmt::v10::appender>(fmt::v10::appender, fmt::v10::basic_string_view<char>, fmt::v10::format_specs<char> const&)
PUBLIC 8b89c 0 fmt::v10::detail::format_dragon(fmt::v10::detail::basic_fp<unsigned __int128>, unsigned int, int, fmt::v10::detail::buffer<char>&, int&)
PUBLIC 8cc34 0 fmt::v10::detail::bigint::operator<<=(int)
PUBLIC 8cd5c 0 fmt::v10::detail::bigint::assign_pow10(int)
PUBLIC 8d4bc 0 fmt::v10::detail::bigint::divmod_assign(fmt::v10::detail::bigint const&)
PUBLIC 8d7d0 0 fmt::v10::basic_memory_buffer<unsigned int, (unsigned long)32, std::__ndk1::allocator<unsigned int> >::grow(unsigned long)
PUBLIC 8d8e0 0 fmt::v10::detail::do_write_float<fmt::v10::appender, fmt::v10::detail::big_decimal_fp, char, fmt::v10::detail::digit_grouping<char> >(fmt::v10::appender, fmt::v10::detail::big_decimal_fp const&, fmt::v10::format_specs<char> const&, fmt::v10::detail::float_specs, fmt::v10::detail::locale_ref)
PUBLIC 8e72c 0 fmt::v10::detail::do_write_float<fmt::v10::appender, fmt::v10::detail::big_decimal_fp, char, fmt::v10::detail::digit_grouping<char> >(fmt::v10::appender, fmt::v10::detail::big_decimal_fp const&, fmt::v10::format_specs<char> const&, fmt::v10::detail::float_specs, fmt::v10::detail::locale_ref)::{lambda(fmt::v10::appender(fmt::v10::appender))#1}::operator() const
PUBLIC 8e898 0 fmt::v10::detail::copy_str_noinline<char, char const*, fmt::v10::appender>(char const*, char const*, fmt::v10::appender)
PUBLIC 8ea04 0 fmt::v10::detail::write_padded<(fmt::v10::align::type)2, fmt::v10::appender, char, fmt::v10::detail::write_ptr<char, fmt::v10::appender, unsigned long>(fmt::v10::appender, unsigned long, fmt::v10::format_specs<char> const*)::{lambda(fmt::v10::appender&)#1}>(fmt::v10::appender, fmt::v10::format_specs<char> const&, unsigned long, unsigned long, fmt::v10::detail::write_ptr<char, fmt::v10::appender, unsigned long>(fmt::v10::appender, unsigned long, fmt::v10::format_specs<char> const*)::{lambda(fmt::v10::appender&)#1})
PUBLIC 8ebd0 0 fmt::v10::detail::parse_replacement_field<char, fmt::v10::detail::vformat_to<char>(fmt::v10::detail::buffer<char>&, fmt::v10::basic_string_view<char>, fmt::v10::detail::vformat_args<char>::type, fmt::v10::detail::locale_ref)::format_handler&>(char const*, char const*, fmt::v10::detail::vformat_to<char>(fmt::v10::detail::buffer<char>&, fmt::v10::basic_string_view<char>, fmt::v10::detail::vformat_args<char>::type, fmt::v10::detail::locale_ref)::format_handler&)
PUBLIC 90a4c 0 fmt::v10::detail::parse_dynamic_spec<char>(char const*, char const*, int&, fmt::v10::detail::arg_ref<char>&, fmt::v10::basic_format_parse_context<char>&)
PUBLIC 90cc8 0 fmt::v10::basic_format_args<fmt::v10::basic_format_context<fmt::v10::appender, char> >::get<char>(fmt::v10::basic_string_view<char>) const
PUBLIC 90e20 0 fmt::v10::detail::write_int_noinline<char, fmt::v10::appender, unsigned long>(fmt::v10::appender, fmt::v10::detail::write_int_arg<unsigned long>, fmt::v10::format_specs<char> const&, fmt::v10::detail::locale_ref)
PUBLIC 91b64 0 fmt::v10::detail::write_int_noinline<char, fmt::v10::appender, unsigned __int128>(fmt::v10::appender, fmt::v10::detail::write_int_arg<unsigned __int128>, fmt::v10::format_specs<char> const&, fmt::v10::detail::locale_ref)
PUBLIC 92a58 0 _ZN3fmt3v106detail15format_hexfloatIdTnNSt6__ndk19enable_ifIXntsr16is_double_doubleIT_EE5valueEiE4typeELi0EEEvS5_iNS1_11float_specsERNS1_6bufferIcEE
PUBLIC 92fa8 0 fmt::v10::detail::format_float<double>(double, int, fmt::v10::detail::float_specs, fmt::v10::detail::buffer<char>&)
PUBLIC 93920 0 fmt::v10::detail::write<char, fmt::v10::appender>(fmt::v10::appender, fmt::v10::basic_string_view<char>, fmt::v10::format_specs<char> const&)
PUBLIC 947f8 0 fmt::v10::detail::for_each_codepoint<fmt::v10::detail::compute_width(fmt::v10::basic_string_view<char>)::count_code_points>(fmt::v10::basic_string_view<char>, fmt::v10::detail::compute_width(fmt::v10::basic_string_view<char>)::count_code_points)::{lambda(char const*, char const*)#1}::operator()(char const*, char const*) const
PUBLIC 949b0 0 fmt::v10::detail::write_int<fmt::v10::appender, unsigned long, char>(fmt::v10::appender, unsigned long, unsigned int, fmt::v10::format_specs<char> const&, fmt::v10::detail::digit_grouping<char> const&)
PUBLIC 95018 0 fmt::v10::detail::write_int<fmt::v10::appender, unsigned __int128, char>(fmt::v10::appender, unsigned __int128, unsigned int, fmt::v10::format_specs<char> const&, fmt::v10::detail::digit_grouping<char> const&)
PUBLIC 957f0 0 <.plt ELF section in geode.custom-keybinds.android64.so>
STACK CFI INIT 41d60 10 .cfa: sp 0 +
STACK CFI INIT 41d70 8 .cfa: sp 0 +
STACK CFI INIT 41d78 8 .cfa: sp 0 +
STACK CFI INIT 41d80 14 .cfa: sp 0 +
STACK CFI INIT 41d94 1c .cfa: sp 0 +
STACK CFI INIT 41db0 10 .cfa: sp 0 +
STACK CFI INIT 42084 3c .cfa: sp 0 +
STACK CFI 42088 .cfa: sp 32 +
STACK CFI 42090 .cfa: x29 32 + x19: .cfa -16 + ^ .ra: .cfa -24 + ^ x29: .cfa -32 + ^
STACK CFI 420a4 .cfa: sp 32 +
STACK CFI 420ac .cfa: sp 0 +
STACK CFI 420b0 .cfa: x29 32 +
STACK CFI 420b4 .cfa: sp 32 +
STACK CFI 420bc .cfa: sp 0 +
STACK CFI INIT 420c0 8 .cfa: sp 0 +
STACK CFI INIT 420c8 8 .cfa: sp 0 +
STACK CFI INIT 420d0 64 .cfa: sp 0 +
STACK CFI 420d8 .cfa: sp 32 +
STACK CFI 420e0 .cfa: x29 32 + x19: .cfa -16 + ^ .ra: .cfa -24 + ^ x29: .cfa -32 + ^
STACK CFI 42120 .cfa: sp 32 +
STACK CFI 42128 .cfa: sp 0 +
STACK CFI INIT 42134 8 .cfa: sp 0 +
STACK CFI INIT 4213c 27c .cfa: sp 0 +
STACK CFI 42140 .cfa: sp 64 +
STACK CFI 42150 .cfa: x29 48 + x19: .cfa -8 + ^ x20: .cfa -16 + ^ x21: .cfa -32 + ^ .ra: .cfa -40 + ^ x29: .cfa -48 + ^
STACK CFI 4219c .cfa: sp 64 +
STACK CFI 421ac .cfa: sp 0 +
STACK CFI 421b0 .cfa: x29 48 +
STACK CFI 423a0 .cfa: sp 64 +
STACK CFI 423b0 .cfa: sp 0 +
STACK CFI 423b4 .cfa: x29 48 +
STACK CFI INIT 423b8 48 .cfa: sp 0 +
STACK CFI 423bc .cfa: sp 32 +
STACK CFI 423c4 .cfa: x29 32 + x19: .cfa -16 + ^ .ra: .cfa -24 + ^ x29: .cfa -32 + ^
STACK CFI 423f4 .cfa: sp 32 +
STACK CFI 423fc .cfa: sp 0 +
STACK CFI INIT 42400 8 .cfa: sp 0 +
STACK CFI INIT 42408 24 .cfa: sp 0 +
STACK CFI 4240c .cfa: sp 32 +
STACK CFI 42414 .cfa: x29 32 + x19: .cfa -16 + ^ .ra: .cfa -24 + ^ x29: .cfa -32 + ^
STACK CFI 42420 .cfa: sp 32 +
STACK CFI 42428 .cfa: sp 0 +
STACK CFI INIT 4242c 4 .cfa: sp 0 +
STACK CFI INIT 42430 14 .cfa: sp 0 +
STACK CFI 42434 .cfa: sp 16 +
STACK CFI 42438 .cfa: x29 16 + .ra: .cfa -8 + ^ x29: .cfa -16 + ^
STACK CFI INIT 42494 30 .cfa: sp 0 +
STACK CFI 42498 .cfa: sp 32 +
STACK CFI 424a0 .cfa: x29 32 + x19: .cfa -16 + ^ .ra: .cfa -24 + ^ x29: .cfa -32 + ^
STACK CFI 424b8 .cfa: sp 32 +
STACK CFI 424c0 .cfa: sp 0 +
STACK CFI INIT 424c4 104 .cfa: sp 0 +
STACK CFI 424c8 .cfa: sp 64 +
STACK CFI 424d8 .cfa: x29 64 + x19: .cfa -8 + ^ x20: .cfa -16 + ^ x21: .cfa -24 + ^ x22: .cfa -32 + ^ x23: .cfa -48 + ^ .ra: .cfa -56 + ^ x29: .cfa -64 + ^
STACK CFI 42534 .cfa: sp 64 +
STACK CFI 42544 .cfa: sp 0 +
STACK CFI 42548 .cfa: x29 64 +
STACK CFI 42564 .cfa: sp 64 +
STACK CFI 42574 .cfa: sp 0 +
STACK CFI 42578 .cfa: x29 64 +
STACK CFI 425b4 .cfa: sp 64 +
STACK CFI 425c4 .cfa: sp 0 +
STACK CFI INIT 4d050 1c .cfa: sp 0 +
STACK CFI INIT 4d06c 1c .cfa: sp 0 +
STACK CFI INIT 4d680 50 .cfa: sp 0 +
STACK CFI 4d684 .cfa: sp 32 +
STACK CFI 4d68c .cfa: x29 32 + x19: .cfa -16 + ^ .ra: .cfa -24 + ^ x29: .cfa -32 + ^
STACK CFI 4d6a4 .cfa: sp 32 +
STACK CFI 4d6ac .cfa: sp 0 +
STACK CFI 4d6b0 .cfa: x29 32 +
STACK CFI 4d6c4 .cfa: sp 32 +
STACK CFI 4d6cc .cfa: sp 0 +
STACK CFI INIT 4d6d0 7c .cfa: sp 0 +
STACK CFI 4d6d4 .cfa: sp 48 +
STACK CFI 4d6e0 .cfa: x29 48 + x19: .cfa -8 + ^ x20: .cfa -16 + ^ x21: .cfa -32 + ^ .ra: .cfa -40 + ^ x29: .cfa -48 + ^
STACK CFI 4d72c .cfa: sp 48 +
STACK CFI 4d738 .cfa: sp 0 +
STACK CFI 4d73c .cfa: sp 48 +
STACK CFI 4d748 .cfa: sp 0 +
STACK CFI INIT 4d74c 4 .cfa: sp 0 +
STACK CFI INIT 4d750 10 .cfa: sp 0 +
STACK CFI 4d754 .cfa: sp 16 +
STACK CFI 4d758 .cfa: x29 16 + .ra: .cfa -8 + ^ x29: .cfa -16 + ^
STACK CFI INIT 4d82c 120 .cfa: sp 0 +
STACK CFI 4d830 .cfa: sp 64 +
STACK CFI 4d840 .cfa: x29 64 + x19: .cfa -8 + ^ x20: .cfa -16 + ^ x21: .cfa -24 + ^ x22: .cfa -32 + ^ x23: .cfa -40 + ^ x24: .cfa -48 + ^ .ra: .cfa -56 + ^ x29: .cfa -64 + ^
STACK CFI 4d938 .cfa: sp 64 +
STACK CFI 4d948 .cfa: sp 0 +
STACK CFI INIT 4db40 7c .cfa: sp 0 +
STACK CFI 4db44 .cfa: sp 32 +
STACK CFI 4db4c .cfa: x29 32 + x19: .cfa -8 + ^ x20: .cfa -16 + ^ .ra: .cfa -24 + ^ x29: .cfa -32 + ^
STACK CFI 4dba4 .cfa: sp 32 +
STACK CFI 4dbac .cfa: sp 0 +
STACK CFI 4dbb0 .cfa: sp 32 +
STACK CFI 4dbb8 .cfa: sp 0 +
STACK CFI INIT 4dbbc 34 .cfa: sp 0 +
STACK CFI 4dbc0 .cfa: sp 32 +
STACK CFI 4dbc8 .cfa: x29 32 + x19: .cfa -16 + ^ .ra: .cfa -24 + ^ x29: .cfa -32 + ^
STACK CFI INIT 4dbf0 80 .cfa: sp 0 +
STACK CFI 4dbf4 .cfa: sp 48 +
STACK CFI 4dc00 .cfa: x29 48 + x19: .cfa -8 + ^ x20: .cfa -16 + ^ x21: .cfa -24 + ^ x22: .cfa -32 + ^ .ra: .cfa -40 + ^ x29: .cfa -48 + ^
STACK CFI 4dc18 .cfa: sp 48 +
STACK CFI 4dc24 .cfa: sp 0 +
STACK CFI 4dc28 .cfa: x29 48 +
STACK CFI 4dc58 .cfa: sp 48 +
STACK CFI 4dc64 .cfa: sp 0 +
STACK CFI 4dc68 .cfa: x29 48 +
STACK CFI INIT 4dc70 1b0 .cfa: sp 0 +
STACK CFI INIT 4de20 40 .cfa: sp 0 +
STACK CFI 4de38 .cfa: sp 32 +
STACK CFI 4de40 .cfa: x29 32 + x19: .cfa -16 + ^ .ra: .cfa -24 + ^ x29: .cfa -32 + ^
STACK CFI 4de54 .cfa: sp 32 +
STACK CFI 4de5c .cfa: sp 0 +
STACK CFI INIT 4de60 44 .cfa: sp 0 +
STACK CFI 4de64 .cfa: sp 32 +
STACK CFI 4de6c .cfa: x29 32 + x19: .cfa -16 + ^ .ra: .cfa -24 + ^ x29: .cfa -32 + ^
STACK CFI 4de98 .cfa: sp 32 +
STACK CFI 4dea0 .cfa: sp 0 +
STACK CFI INIT 4e0cc 68 .cfa: sp 0 +
STACK CFI 4e0d0 .cfa: sp 32 +
STACK CFI 4e0d8 .cfa: x29 32 + x19: .cfa -8 + ^ x20: .cfa -16 + ^ .ra: .cfa -24 + ^ x29: .cfa -32 + ^
STACK CFI 4e0f0 .cfa: sp 32 +
STACK CFI 4e0f8 .cfa: sp 0 +
STACK CFI 4e0fc .cfa: x29 32 +
STACK CFI 4e128 .cfa: sp 32 +
STACK CFI 4e130 .cfa: sp 0 +
STACK CFI INIT 4e134 14 .cfa: sp 0 +
STACK CFI 4e138 .cfa: sp 16 +
STACK CFI 4e13c .cfa: x29 16 + .ra: .cfa -8 + ^ x29: .cfa -16 + ^
STACK CFI INIT 4e148 d4 .cfa: sp 0 +
STACK CFI 4e14c .cfa: sp 48 +
STACK CFI 4e158 .cfa: x29 48 + x19: .cfa -8 + ^ x20: .cfa -16 + ^ x21: .cfa -32 + ^ .ra: .cfa -40 + ^ x29: .cfa -48 + ^
STACK CFI 4e1e8 .cfa: sp 48 +
STACK CFI 4e1f4 .cfa: sp 0 +
STACK CFI 4e1f8 .cfa: x29 48 +
STACK CFI INIT 4e21c 3cc .cfa: sp 0 +
STACK CFI INIT 4e5e8 8c .cfa: sp 0 +
STACK CFI 4e5f0 .cfa: sp 32 +
STACK CFI 4e5f8 .cfa: x29 32 + x19: .cfa -8 + ^ x20: .cfa -16 + ^ .ra: .cfa -24 + ^ x29: .cfa -32 + ^
STACK CFI 4e640 .cfa: sp 32 +
STACK CFI 4e648 .cfa: sp 0 +
STACK CFI 4e650 .cfa: x29 32 +
STACK CFI INIT 4e674 10 .cfa: sp 0 +
STACK CFI INIT 4e82c 8c .cfa: sp 0 +
STACK CFI 4e830 .cfa: sp 32 +
STACK CFI 4e838 .cfa: x29 32 + x19: .cfa -16 + ^ .ra: .cfa -24 + ^ x29: .cfa -32 + ^
STACK CFI 4e8ac .cfa: sp 32 +
STACK CFI 4e8b4 .cfa: sp 0 +
STACK CFI INIT 4e8b8 50 .cfa: sp 0 +
STACK CFI 4e8bc .cfa: sp 32 +
STACK CFI 4e8c4 .cfa: x29 32 + x19: .cfa -16 + ^ .ra: .cfa -24 + ^ x29: .cfa -32 + ^
STACK CFI 4e8dc .cfa: sp 32 +
STACK CFI 4e8e4 .cfa: sp 0 +
STACK CFI 4e8e8 .cfa: x29 32 +
STACK CFI 4e8fc .cfa: sp 32 +
STACK CFI 4e904 .cfa: sp 0 +
STACK CFI INIT 4e908 64 .cfa: sp 0 +
STACK CFI 4e90c .cfa: sp 32 +
STACK CFI 4e914 .cfa: x29 32 + x19: .cfa -16 + ^ .ra: .cfa -24 + ^ x29: .cfa -32 + ^
STACK CFI 4e940 .cfa: sp 32 +
STACK CFI 4e948 .cfa: sp 0 +
STACK CFI 4e94c .cfa: x29 32 +
STACK CFI 4e960 .cfa: sp 32 +
STACK CFI 4e968 .cfa: sp 0 +
STACK CFI INIT 4e96c 178 .cfa: sp 0 +
STACK CFI 4e970 .cfa: sp 80 +
STACK CFI 4e984 .cfa: x29 80 + x19: .cfa -8 + ^ x20: .cfa -16 + ^ x21: .cfa -24 + ^ x22: .cfa -32 + ^ x23: .cfa -40 + ^ x24: .cfa -48 + ^ x25: .cfa -56 + ^ x26: .cfa -64 + ^ .ra: .cfa -72 + ^ x29: .cfa -80 + ^
STACK CFI 4eacc .cfa: sp 80 +
STACK CFI 4eae0 .cfa: sp 0 +
STACK CFI INIT 4f050 4 .cfa: sp 0 +
STACK CFI INIT 4f15c 50 .cfa: sp 0 +
STACK CFI 4f160 .cfa: sp 32 +
STACK CFI 4f168 .cfa: x29 32 + x19: .cfa -16 + ^ .ra: .cfa -24 + ^ x29: .cfa -32 + ^
STACK CFI 4f1a0 .cfa: sp 32 +
STACK CFI 4f1a8 .cfa: sp 0 +
STACK CFI INIT 4f1ac 58 .cfa: sp 0 +
STACK CFI 4f1b0 .cfa: sp 32 +
STACK CFI 4f1b8 .cfa: x29 32 + x19: .cfa -16 + ^ .ra: .cfa -24 + ^ x29: .cfa -32 + ^
STACK CFI 4f1f8 .cfa: sp 32 +
STACK CFI 4f200 .cfa: sp 0 +
STACK CFI INIT 4f204 4 .cfa: sp 0 +
STACK CFI INIT 4f208 4 .cfa: sp 0 +
STACK CFI INIT 4f20c 48 .cfa: sp 0 +
STACK CFI 4f210 .cfa: sp 32 +
STACK CFI 4f218 .cfa: x29 32 + x19: .cfa -16 + ^ .ra: .cfa -24 + ^ x29: .cfa -32 + ^
STACK CFI 4f238 .cfa: sp 32 +
STACK CFI 4f240 .cfa: sp 0 +
STACK CFI 4f244 .cfa: x29 32 +
STACK CFI 4f248 .cfa: sp 32 +
STACK CFI 4f250 .cfa: sp 0 +
STACK CFI INIT 4f254 34 .cfa: sp 0 +
STACK CFI 4f258 .cfa: sp 32 +
STACK CFI 4f260 .cfa: x29 32 + x19: .cfa -16 + ^ .ra: .cfa -24 + ^ x29: .cfa -32 + ^
STACK CFI 4f27c .cfa: sp 32 +
STACK CFI 4f284 .cfa: sp 0 +
STACK CFI INIT 4fd54 4 .cfa: sp 0 +
STACK CFI INIT 501b4 4 .cfa: sp 0 +
STACK CFI INIT 501b8 4 .cfa: sp 0 +
STACK CFI INIT 50340 24 .cfa: sp 0 +
STACK CFI INIT 50364 1c .cfa: sp 0 +
STACK CFI INIT 50380 4 .cfa: sp 0 +
STACK CFI INIT 50384 4 .cfa: sp 0 +
STACK CFI INIT 50388 8 .cfa: sp 0 +
STACK CFI INIT 50390 38 .cfa: sp 0 +
STACK CFI 50394 .cfa: sp 32 +
STACK CFI 5039c .cfa: x29 32 + x19: .cfa -16 + ^ .ra: .cfa -24 + ^ x29: .cfa -32 + ^
STACK CFI 503bc .cfa: sp 32 +
STACK CFI 503c4 .cfa: sp 0 +
STACK CFI INIT 53218 40 .cfa: sp 0 +
STACK CFI INIT 53258 50 .cfa: sp 0 +
STACK CFI 5325c .cfa: sp 32 +
STACK CFI 53264 .cfa: x29 32 + x19: .cfa -16 + ^ .ra: .cfa -24 + ^ x29: .cfa -32 + ^
STACK CFI 5329c .cfa: sp 32 +
STACK CFI 532a4 .cfa: sp 0 +
STACK CFI INIT 532a8 88 .cfa: sp 0 +
STACK CFI 532ac .cfa: sp 48 +
STACK CFI 532b8 .cfa: x29 32 + x19: .cfa -8 + ^ x20: .cfa -16 + ^ .ra: .cfa -24 + ^ x29: .cfa -32 + ^
STACK CFI 53308 .cfa: sp 48 +
STACK CFI 53314 .cfa: sp 0 +
STACK CFI 53318 .cfa: x29 32 +
STACK CFI INIT 533c4 34 .cfa: sp 0 +
STACK CFI 533c8 .cfa: sp 16 +
STACK CFI 533cc .cfa: x29 16 + .ra: .cfa -8 + ^ x29: .cfa -16 + ^
STACK CFI INIT 533f8 24 .cfa: sp 0 +
STACK CFI 533fc .cfa: sp 32 +
STACK CFI 53404 .cfa: x29 32 + x19: .cfa -16 + ^ .ra: .cfa -24 + ^ x29: .cfa -32 + ^
STACK CFI 53410 .cfa: sp 32 +
STACK CFI 53418 .cfa: sp 0 +
STACK CFI INIT 5341c 4 .cfa: sp 0 +
STACK CFI INIT 53420 34 .cfa: sp 0 +
STACK CFI 53424 .cfa: sp 32 +
STACK CFI 5342c .cfa: x29 32 + x19: .cfa -16 + ^ .ra: .cfa -24 + ^ x29: .cfa -32 + ^
STACK CFI 53448 .cfa: sp 32 +
STACK CFI 53450 .cfa: sp 0 +
STACK CFI INIT 53454 14 .cfa: sp 0 +
STACK CFI INIT 53468 4 .cfa: sp 0 +
STACK CFI INIT 5346c 4 .cfa: sp 0 +
STACK CFI INIT 53470 24 .cfa: sp 0 +
STACK CFI INIT 53494 1c .cfa: sp 0 +
STACK CFI INIT 534b0 c .cfa: sp 0 +
STACK CFI INIT 534bc 4 .cfa: sp 0 +
STACK CFI INIT 534c0 34 .cfa: sp 0 +
STACK CFI 534c4 .cfa: sp 32 +
STACK CFI 534cc .cfa: x29 32 + x19: .cfa -16 + ^ .ra: .cfa -24 + ^ x29: .cfa -32 + ^
STACK CFI 534e8 .cfa: sp 32 +
STACK CFI 534f0 .cfa: sp 0 +
STACK CFI INIT 534f4 14 .cfa: sp 0 +
STACK CFI INIT 53508 4 .cfa: sp 0 +
STACK CFI INIT 5350c 4 .cfa: sp 0 +
STACK CFI INIT 53510 24 .cfa: sp 0 +
STACK CFI INIT 53534 1c .cfa: sp 0 +
STACK CFI INIT 53550 c .cfa: sp 0 +
STACK CFI INIT 5355c 4 .cfa: sp 0 +
STACK CFI INIT 53560 34 .cfa: sp 0 +
STACK CFI 53564 .cfa: sp 32 +
STACK CFI 5356c .cfa: x29 32 + x19: .cfa -16 + ^ .ra: .cfa -24 + ^ x29: .cfa -32 + ^
STACK CFI 53588 .cfa: sp 32 +
STACK CFI 53590 .cfa: sp 0 +
STACK CFI INIT 53594 14 .cfa: sp 0 +
STACK CFI INIT 535a8 4 .cfa: sp 0 +
STACK CFI INIT 535ac 4 .cfa: sp 0 +
STACK CFI INIT 535b0 24 .cfa: sp 0 +
STACK CFI INIT 535d4 1c .cfa: sp 0 +
STACK CFI INIT 535f0 c .cfa: sp 0 +
STACK CFI INIT 535fc 4 .cfa: sp 0 +
STACK CFI INIT 53600 34 .cfa: sp 0 +
STACK CFI 53604 .cfa: sp 32 +
STACK CFI 5360c .cfa: x29 32 + x19: .cfa -16 + ^ .ra: .cfa -24 + ^ x29: .cfa -32 + ^
STACK CFI 53628 .cfa: sp 32 +
STACK CFI 53630 .cfa: sp 0 +
STACK CFI INIT 53634 14 .cfa: sp 0 +
STACK CFI INIT 53648 4 .cfa: sp 0 +
STACK CFI INIT 5364c 4 .cfa: sp 0 +
STACK CFI INIT 53650 24 .cfa: sp 0 +
STACK CFI INIT 53674 1c .cfa: sp 0 +
STACK CFI INIT 53690 c .cfa: sp 0 +
STACK CFI INIT 5369c 4 .cfa: sp 0 +
STACK CFI INIT 536a0 34 .cfa: sp 0 +
STACK CFI 536a4 .cfa: sp 32 +
STACK CFI 536ac .cfa: x29 32 + x19: .cfa -16 + ^ .ra: .cfa -24 + ^ x29: .cfa -32 + ^
STACK CFI 536c8 .cfa: sp 32 +
STACK CFI 536d0 .cfa: sp 0 +
STACK CFI INIT 536d4 14 .cfa: sp 0 +
STACK CFI INIT 536e8 4 .cfa: sp 0 +
STACK CFI INIT 536ec 4 .cfa: sp 0 +
STACK CFI INIT 536f0 24 .cfa: sp 0 +
STACK CFI INIT 53714 1c .cfa: sp 0 +
STACK CFI INIT 53730 c .cfa: sp 0 +
STACK CFI INIT 5373c 4 .cfa: sp 0 +
STACK CFI INIT 53740 34 .cfa: sp 0 +
STACK CFI 53744 .cfa: sp 32 +
STACK CFI 5374c .cfa: x29 32 + x19: .cfa -16 + ^ .ra: .cfa -24 + ^ x29: .cfa -32 + ^
STACK CFI 53768 .cfa: sp 32 +
STACK CFI 53770 .cfa: sp 0 +
STACK CFI INIT 53774 14 .cfa: sp 0 +
STACK CFI INIT 53788 4 .cfa: sp 0 +
STACK CFI INIT 5378c 4 .cfa: sp 0 +
STACK CFI INIT 53790 24 .cfa: sp 0 +
STACK CFI INIT 537b4 1c .cfa: sp 0 +
STACK CFI INIT 537d0 c .cfa: sp 0 +
STACK CFI INIT 537dc 40 .cfa: sp 0 +
STACK CFI INIT 5381c 50 .cfa: sp 0 +
STACK CFI 53820 .cfa: sp 32 +
STACK CFI 53828 .cfa: x29 32 + x19: .cfa -16 + ^ .ra: .cfa -24 + ^ x29: .cfa -32 + ^
STACK CFI 53860 .cfa: sp 32 +
STACK CFI 53868 .cfa: sp 0 +
STACK CFI INIT 5386c 44 .cfa: sp 0 +
STACK CFI 53870 .cfa: sp 32 +
STACK CFI 53878 .cfa: x29 32 + x19: .cfa -16 + ^ .ra: .cfa -24 + ^ x29: .cfa -32 + ^
STACK CFI 538a0 .cfa: sp 32 +
STACK CFI 538a8 .cfa: sp 0 +
STACK CFI 538ac .cfa: x29 32 +
STACK CFI INIT 53944 4 .cfa: sp 0 +
STACK CFI INIT 53948 34 .cfa: sp 0 +
STACK CFI 5394c .cfa: sp 32 +
STACK CFI 53954 .cfa: x29 32 + x19: .cfa -16 + ^ .ra: .cfa -24 + ^ x29: .cfa -32 + ^
STACK CFI 53970 .cfa: sp 32 +
STACK CFI 53978 .cfa: sp 0 +
STACK CFI INIT 5397c 14 .cfa: sp 0 +
STACK CFI INIT 53990 4 .cfa: sp 0 +
STACK CFI INIT 53994 4 .cfa: sp 0 +
STACK CFI INIT 53998 114 .cfa: sp 0 +
STACK CFI 5399c .cfa: sp 96 +
STACK CFI 539b4 .cfa: x29 80 + x19: .cfa -8 + ^ x20: .cfa -16 + ^ x21: .cfa -24 + ^ x22: .cfa -32 + ^ x23: .cfa -40 + ^ x24: .cfa -48 + ^ x25: .cfa -64 + ^ .ra: .cfa -72 + ^ x29: .cfa -80 + ^
STACK CFI 53a8c .cfa: sp 96 +
STACK CFI 53aa4 .cfa: sp 0 +
STACK CFI 53aa8 .cfa: x29 80 +
STACK CFI INIT 53aac 1c .cfa: sp 0 +
STACK CFI INIT 53ac8 c .cfa: sp 0 +
STACK CFI INIT 53ad4 4 .cfa: sp 0 +
STACK CFI INIT 53ad8 34 .cfa: sp 0 +
STACK CFI 53adc .cfa: sp 32 +
STACK CFI 53ae4 .cfa: x29 32 + x19: .cfa -16 + ^ .ra: .cfa -24 + ^ x29: .cfa -32 + ^
STACK CFI 53b00 .cfa: sp 32 +
STACK CFI 53b08 .cfa: sp 0 +
STACK CFI INIT 53b0c 14 .cfa: sp 0 +
STACK CFI INIT 53b20 4 .cfa: sp 0 +
STACK CFI INIT 53b24 4 .cfa: sp 0 +
STACK CFI INIT 53b28 114 .cfa: sp 0 +
STACK CFI 53b2c .cfa: sp 96 +
STACK CFI 53b44 .cfa: x29 80 + x19: .cfa -8 + ^ x20: .cfa -16 + ^ x21: .cfa -24 + ^ x22: .cfa -32 + ^ x23: .cfa -40 + ^ x24: .cfa -48 + ^ x25: .cfa -64 + ^ .ra: .cfa -72 + ^ x29: .cfa -80 + ^
STACK CFI 53c1c .cfa: sp 96 +
STACK CFI 53c34 .cfa: sp 0 +
STACK CFI 53c38 .cfa: x29 80 +
STACK CFI INIT 53c3c 1c .cfa: sp 0 +
STACK CFI INIT 53c58 c .cfa: sp 0 +
STACK CFI INIT 53c64 4 .cfa: sp 0 +
STACK CFI INIT 53c68 34 .cfa: sp 0 +
STACK CFI 53c6c .cfa: sp 32 +
STACK CFI 53c74 .cfa: x29 32 + x19: .cfa -16 + ^ .ra: .cfa -24 + ^ x29: .cfa -32 + ^
STACK CFI 53c90 .cfa: sp 32 +
STACK CFI 53c98 .cfa: sp 0 +
STACK CFI INIT 53c9c 14 .cfa: sp 0 +
STACK CFI INIT 53cb0 4 .cfa: sp 0 +
STACK CFI INIT 53cb4 4 .cfa: sp 0 +
STACK CFI INIT 53cb8 114 .cfa: sp 0 +
STACK CFI 53cbc .cfa: sp 96 +
STACK CFI 53cd4 .cfa: x29 80 + x19: .cfa -8 + ^ x20: .cfa -16 + ^ x21: .cfa -24 + ^ x22: .cfa -32 + ^ x23: .cfa -40 + ^ x24: .cfa -48 + ^ x25: .cfa -64 + ^ .ra: .cfa -72 + ^ x29: .cfa -80 + ^
STACK CFI 53dac .cfa: sp 96 +
STACK CFI 53dc4 .cfa: sp 0 +
STACK CFI 53dc8 .cfa: x29 80 +
STACK CFI INIT 53dcc 1c .cfa: sp 0 +
STACK CFI INIT 53de8 c .cfa: sp 0 +
STACK CFI INIT 53df4 4 .cfa: sp 0 +
STACK CFI INIT 53df8 34 .cfa: sp 0 +
STACK CFI 53dfc .cfa: sp 32 +
STACK CFI 53e04 .cfa: x29 32 + x19: .cfa -16 + ^ .ra: .cfa -24 + ^ x29: .cfa -32 + ^
STACK CFI 53e20 .cfa: sp 32 +
STACK CFI 53e28 .cfa: sp 0 +
STACK CFI INIT 53e2c 14 .cfa: sp 0 +
STACK CFI INIT 53e40 4 .cfa: sp 0 +
STACK CFI INIT 53e44 4 .cfa: sp 0 +
STACK CFI INIT 53e48 114 .cfa: sp 0 +
STACK CFI 53e4c .cfa: sp 96 +
STACK CFI 53e64 .cfa: x29 80 + x19: .cfa -8 + ^ x20: .cfa -16 + ^ x21: .cfa -24 + ^ x22: .cfa -32 + ^ x23: .cfa -40 + ^ x24: .cfa -48 + ^ x25: .cfa -64 + ^ .ra: .cfa -72 + ^ x29: .cfa -80 + ^
STACK CFI 53f3c .cfa: sp 96 +
STACK CFI 53f54 .cfa: sp 0 +
STACK CFI 53f58 .cfa: x29 80 +
STACK CFI INIT 53f5c 1c .cfa: sp 0 +
STACK CFI INIT 53f78 c .cfa: sp 0 +
STACK CFI INIT 53f84 4 .cfa: sp 0 +
STACK CFI INIT 53f88 34 .cfa: sp 0 +
STACK CFI 53f8c .cfa: sp 32 +
STACK CFI 53f94 .cfa: x29 32 + x19: .cfa -16 + ^ .ra: .cfa -24 + ^ x29: .cfa -32 + ^
STACK CFI 53fb0 .cfa: sp 32 +
STACK CFI 53fb8 .cfa: sp 0 +
STACK CFI INIT 53fbc 14 .cfa: sp 0 +
STACK CFI INIT 53fd0 4 .cfa: sp 0 +
STACK CFI INIT 53fd4 4 .cfa: sp 0 +
STACK CFI INIT 53fd8 114 .cfa: sp 0 +
STACK CFI 53fdc .cfa: sp 96 +
STACK CFI 53ff4 .cfa: x29 80 + x19: .cfa -8 + ^ x20: .cfa -16 + ^ x21: .cfa -24 + ^ x22: .cfa -32 + ^ x23: .cfa -40 + ^ x24: .cfa -48 + ^ x25: .cfa -64 + ^ .ra: .cfa -72 + ^ x29: .cfa -80 + ^
STACK CFI 540cc .cfa: sp 96 +
STACK CFI 540e4 .cfa: sp 0 +
STACK CFI 540e8 .cfa: x29 80 +
STACK CFI INIT 540ec 1c .cfa: sp 0 +
STACK CFI INIT 54108 c .cfa: sp 0 +
STACK CFI INIT 54114 4 .cfa: sp 0 +
STACK CFI INIT 54118 34 .cfa: sp 0 +
STACK CFI 5411c .cfa: sp 32 +
STACK CFI 54124 .cfa: x29 32 + x19: .cfa -16 + ^ .ra: .cfa -24 + ^ x29: .cfa -32 + ^
STACK CFI 54140 .cfa: sp 32 +
STACK CFI 54148 .cfa: sp 0 +
STACK CFI INIT 5414c 14 .cfa: sp 0 +
STACK CFI INIT 54160 4 .cfa: sp 0 +
STACK CFI INIT 54164 4 .cfa: sp 0 +
STACK CFI INIT 54168 114 .cfa: sp 0 +
STACK CFI 5416c .cfa: sp 96 +
STACK CFI 54184 .cfa: x29 80 + x19: .cfa -8 + ^ x20: .cfa -16 + ^ x21: .cfa -24 + ^ x22: .cfa -32 + ^ x23: .cfa -40 + ^ x24: .cfa -48 + ^ x25: .cfa -64 + ^ .ra: .cfa -72 + ^ x29: .cfa -80 + ^
STACK CFI 5425c .cfa: sp 96 +
STACK CFI 54274 .cfa: sp 0 +
STACK CFI 54278 .cfa: x29 80 +
STACK CFI INIT 5427c 1c .cfa: sp 0 +
STACK CFI INIT 54298 c .cfa: sp 0 +
STACK CFI INIT 542a4 4 .cfa: sp 0 +
STACK CFI INIT 542a8 34 .cfa: sp 0 +
STACK CFI 542ac .cfa: sp 32 +
STACK CFI 542b4 .cfa: x29 32 + x19: .cfa -16 + ^ .ra: .cfa -24 + ^ x29: .cfa -32 + ^
STACK CFI 542d0 .cfa: sp 32 +
STACK CFI 542d8 .cfa: sp 0 +
STACK CFI INIT 542dc 14 .cfa: sp 0 +
STACK CFI INIT 542f0 4 .cfa: sp 0 +
STACK CFI INIT 542f4 4 .cfa: sp 0 +
STACK CFI INIT 542f8 114 .cfa: sp 0 +
STACK CFI 542fc .cfa: sp 96 +
STACK CFI 54314 .cfa: x29 80 + x19: .cfa -8 + ^ x20: .cfa -16 + ^ x21: .cfa -24 + ^ x22: .cfa -32 + ^ x23: .cfa -40 + ^ x24: .cfa -48 + ^ x25: .cfa -64 + ^ .ra: .cfa -72 + ^ x29: .cfa -80 + ^
STACK CFI 543ec .cfa: sp 96 +
STACK CFI 54404 .cfa: sp 0 +
STACK CFI 54408 .cfa: x29 80 +
STACK CFI INIT 5440c 1c .cfa: sp 0 +
STACK CFI INIT 54428 c .cfa: sp 0 +
STACK CFI INIT 54434 4 .cfa: sp 0 +
STACK CFI INIT 54438 34 .cfa: sp 0 +
STACK CFI 5443c .cfa: sp 32 +
STACK CFI 54444 .cfa: x29 32 + x19: .cfa -16 + ^ .ra: .cfa -24 + ^ x29: .cfa -32 + ^
STACK CFI 54460 .cfa: sp 32 +
STACK CFI 54468 .cfa: sp 0 +
STACK CFI INIT 5446c 14 .cfa: sp 0 +
STACK CFI INIT 54480 4 .cfa: sp 0 +
STACK CFI INIT 54484 4 .cfa: sp 0 +
STACK CFI INIT 54488 114 .cfa: sp 0 +
STACK CFI 5448c .cfa: sp 96 +
STACK CFI 544a4 .cfa: x29 80 + x19: .cfa -8 + ^ x20: .cfa -16 + ^ x21: .cfa -24 + ^ x22: .cfa -32 + ^ x23: .cfa -40 + ^ x24: .cfa -48 + ^ x25: .cfa -64 + ^ .ra: .cfa -72 + ^ x29: .cfa -80 + ^
STACK CFI 5457c .cfa: sp 96 +
STACK CFI 54594 .cfa: sp 0 +
STACK CFI 54598 .cfa: x29 80 +
STACK CFI INIT 5459c 1c .cfa: sp 0 +
STACK CFI INIT 545b8 c .cfa: sp 0 +
STACK CFI INIT 545c4 4 .cfa: sp 0 +
STACK CFI INIT 545c8 34 .cfa: sp 0 +
STACK CFI 545cc .cfa: sp 32 +
STACK CFI 545d4 .cfa: x29 32 + x19: .cfa -16 + ^ .ra: .cfa -24 + ^ x29: .cfa -32 + ^
STACK CFI 545f0 .cfa: sp 32 +
STACK CFI 545f8 .cfa: sp 0 +
STACK CFI INIT 545fc 14 .cfa: sp 0 +
STACK CFI INIT 54610 4 .cfa: sp 0 +
STACK CFI INIT 54614 4 .cfa: sp 0 +
STACK CFI INIT 54618 114 .cfa: sp 0 +
STACK CFI 5461c .cfa: sp 96 +
STACK CFI 54634 .cfa: x29 80 + x19: .cfa -8 + ^ x20: .cfa -16 + ^ x21: .cfa -24 + ^ x22: .cfa -32 + ^ x23: .cfa -40 + ^ x24: .cfa -48 + ^ x25: .cfa -64 + ^ .ra: .cfa -72 + ^ x29: .cfa -80 + ^
STACK CFI 5470c .cfa: sp 96 +
STACK CFI 54724 .cfa: sp 0 +
STACK CFI 54728 .cfa: x29 80 +
STACK CFI INIT 5472c 1c .cfa: sp 0 +
STACK CFI INIT 54748 c .cfa: sp 0 +
STACK CFI INIT 54754 4 .cfa: sp 0 +
STACK CFI INIT 54758 34 .cfa: sp 0 +
STACK CFI 5475c .cfa: sp 32 +
STACK CFI 54764 .cfa: x29 32 + x19: .cfa -16 + ^ .ra: .cfa -24 + ^ x29: .cfa -32 + ^
STACK CFI 54780 .cfa: sp 32 +
STACK CFI 54788 .cfa: sp 0 +
STACK CFI INIT 5478c 14 .cfa: sp 0 +
STACK CFI INIT 547a0 4 .cfa: sp 0 +
STACK CFI INIT 547a4 4 .cfa: sp 0 +
STACK CFI INIT 547a8 124 .cfa: sp 0 +
STACK CFI 547ac .cfa: sp 112 +
STACK CFI 547c4 .cfa: x29 80 + x19: .cfa -8 + ^ x20: .cfa -16 + ^ x21: .cfa -24 + ^ x22: .cfa -32 + ^ x23: .cfa -40 + ^ x24: .cfa -48 + ^ x25: .cfa -64 + ^ .ra: .cfa -72 + ^ x29: .cfa -80 + ^
STACK CFI 548ac .cfa: sp 112 +
STACK CFI 548c4 .cfa: sp 0 +
STACK CFI 548c8 .cfa: x29 80 +
STACK CFI INIT 548cc 1c .cfa: sp 0 +
STACK CFI INIT 548e8 c .cfa: sp 0 +
STACK CFI INIT 548f4 4 .cfa: sp 0 +
STACK CFI INIT 548f8 34 .cfa: sp 0 +
STACK CFI 548fc .cfa: sp 32 +
STACK CFI 54904 .cfa: x29 32 + x19: .cfa -16 + ^ .ra: .cfa -24 + ^ x29: .cfa -32 + ^
STACK CFI 54920 .cfa: sp 32 +
STACK CFI 54928 .cfa: sp 0 +
STACK CFI INIT 5492c 14 .cfa: sp 0 +
STACK CFI INIT 54940 4 .cfa: sp 0 +
STACK CFI INIT 54944 4 .cfa: sp 0 +
STACK CFI INIT 54948 114 .cfa: sp 0 +
STACK CFI 5494c .cfa: sp 96 +
STACK CFI 54964 .cfa: x29 80 + x19: .cfa -8 + ^ x20: .cfa -16 + ^ x21: .cfa -24 + ^ x22: .cfa -32 + ^ x23: .cfa -40 + ^ x24: .cfa -48 + ^ x25: .cfa -64 + ^ .ra: .cfa -72 + ^ x29: .cfa -80 + ^
STACK CFI 54a3c .cfa: sp 96 +
STACK CFI 54a54 .cfa: sp 0 +
STACK CFI 54a58 .cfa: x29 80 +
STACK CFI INIT 54a5c 1c .cfa: sp 0 +
STACK CFI INIT 54a78 c .cfa: sp 0 +
STACK CFI INIT 54a84 4 .cfa: sp 0 +
STACK CFI INIT 54a88 34 .cfa: sp 0 +
STACK CFI 54a8c .cfa: sp 32 +
STACK CFI 54a94 .cfa: x29 32 + x19: .cfa -16 + ^ .ra: .cfa -24 + ^ x29: .cfa -32 + ^
STACK CFI 54ab0 .cfa: sp 32 +
STACK CFI 54ab8 .cfa: sp 0 +
STACK CFI INIT 54abc 14 .cfa: sp 0 +
STACK CFI INIT 54ad0 4 .cfa: sp 0 +
STACK CFI INIT 54ad4 4 .cfa: sp 0 +
STACK CFI INIT 54ad8 114 .cfa: sp 0 +
STACK CFI 54adc .cfa: sp 96 +
STACK CFI 54af4 .cfa: x29 80 + x19: .cfa -8 + ^ x20: .cfa -16 + ^ x21: .cfa -24 + ^ x22: .cfa -32 + ^ x23: .cfa -40 + ^ x24: .cfa -48 + ^ x25: .cfa -64 + ^ .ra: .cfa -72 + ^ x29: .cfa -80 + ^
STACK CFI 54bcc .cfa: sp 96 +
STACK CFI 54be4 .cfa: sp 0 +
STACK CFI 54be8 .cfa: x29 80 +
STACK CFI INIT 54bec 1c .cfa: sp 0 +
STACK CFI INIT 54c08 c .cfa: sp 0 +
STACK CFI INIT 54c14 4 .cfa: sp 0 +
STACK CFI INIT 54c18 34 .cfa: sp 0 +
STACK CFI 54c1c .cfa: sp 32 +
STACK CFI 54c24 .cfa: x29 32 + x19: .cfa -16 + ^ .ra: .cfa -24 + ^ x29: .cfa -32 + ^
STACK CFI 54c40 .cfa: sp 32 +
STACK CFI 54c48 .cfa: sp 0 +
STACK CFI INIT 54c4c 14 .cfa: sp 0 +
STACK CFI INIT 54c60 4 .cfa: sp 0 +
STACK CFI INIT 54c64 4 .cfa: sp 0 +
STACK CFI INIT 54c68 114 .cfa: sp 0 +
STACK CFI 54c6c .cfa: sp 96 +
STACK CFI 54c84 .cfa: x29 80 + x19: .cfa -8 + ^ x20: .cfa -16 + ^ x21: .cfa -24 + ^ x22: .cfa -32 + ^ x23: .cfa -40 + ^ x24: .cfa -48 + ^ x25: .cfa -64 + ^ .ra: .cfa -72 + ^ x29: .cfa -80 + ^
STACK CFI 54d5c .cfa: sp 96 +
STACK CFI 54d74 .cfa: sp 0 +
STACK CFI 54d78 .cfa: x29 80 +
STACK CFI INIT 54d7c 1c .cfa: sp 0 +
STACK CFI INIT 54d98 c .cfa: sp 0 +
STACK CFI INIT 54da4 4 .cfa: sp 0 +
STACK CFI INIT 54da8 34 .cfa: sp 0 +
STACK CFI 54dac .cfa: sp 32 +
STACK CFI 54db4 .cfa: x29 32 + x19: .cfa -16 + ^ .ra: .cfa -24 + ^ x29: .cfa -32 + ^
STACK CFI 54dd0 .cfa: sp 32 +
STACK CFI 54dd8 .cfa: sp 0 +
STACK CFI INIT 54ddc 14 .cfa: sp 0 +
STACK CFI INIT 54df0 4 .cfa: sp 0 +
STACK CFI INIT 54df4 4 .cfa: sp 0 +
STACK CFI INIT 54df8 114 .cfa: sp 0 +
STACK CFI 54dfc .cfa: sp 96 +
STACK CFI 54e14 .cfa: x29 80 + x19: .cfa -8 + ^ x20: .cfa -16 + ^ x21: .cfa -24 + ^ x22: .cfa -32 + ^ x23: .cfa -40 + ^ x24: .cfa -48 + ^ x25: .cfa -64 + ^ .ra: .cfa -72 + ^ x29: .cfa -80 + ^
STACK CFI 54eec .cfa: sp 96 +
STACK CFI 54f04 .cfa: sp 0 +
STACK CFI 54f08 .cfa: x29 80 +
STACK CFI INIT 54f0c 1c .cfa: sp 0 +
STACK CFI INIT 54f28 c .cfa: sp 0 +
STACK CFI INIT 54f34 4 .cfa: sp 0 +
STACK CFI INIT 54f38 34 .cfa: sp 0 +
STACK CFI 54f3c .cfa: sp 32 +
STACK CFI 54f44 .cfa: x29 32 + x19: .cfa -16 + ^ .ra: .cfa -24 + ^ x29: .cfa -32 + ^
STACK CFI 54f60 .cfa: sp 32 +
STACK CFI 54f68 .cfa: sp 0 +
STACK CFI INIT 54f6c 14 .cfa: sp 0 +
STACK CFI INIT 54f80 4 .cfa: sp 0 +
STACK CFI INIT 54f84 4 .cfa: sp 0 +
STACK CFI INIT 54f88 114 .cfa: sp 0 +
STACK CFI 54f8c .cfa: sp 96 +
STACK CFI 54fa4 .cfa: x29 80 + x19: .cfa -8 + ^ x20: .cfa -16 + ^ x21: .cfa -24 + ^ x22: .cfa -32 + ^ x23: .cfa -40 + ^ x24: .cfa -48 + ^ x25: .cfa -64 + ^ .ra: .cfa -72 + ^ x29: .cfa -80 + ^
STACK CFI 5507c .cfa: sp 96 +
STACK CFI 55094 .cfa: sp 0 +
STACK CFI 55098 .cfa: x29 80 +
STACK CFI INIT 5509c 1c .cfa: sp 0 +
STACK CFI INIT 550b8 c .cfa: sp 0 +
STACK CFI INIT 550c4 4 .cfa: sp 0 +
STACK CFI INIT 550c8 34 .cfa: sp 0 +
STACK CFI 550cc .cfa: sp 32 +
STACK CFI 550d4 .cfa: x29 32 + x19: .cfa -16 + ^ .ra: .cfa -24 + ^ x29: .cfa -32 + ^
STACK CFI 550f0 .cfa: sp 32 +
STACK CFI 550f8 .cfa: sp 0 +
STACK CFI INIT 550fc 14 .cfa: sp 0 +
STACK CFI INIT 55110 4 .cfa: sp 0 +
STACK CFI INIT 55114 4 .cfa: sp 0 +
STACK CFI INIT 55118 114 .cfa: sp 0 +
STACK CFI 5511c .cfa: sp 96 +
STACK CFI 55134 .cfa: x29 80 + x19: .cfa -8 + ^ x20: .cfa -16 + ^ x21: .cfa -24 + ^ x22: .cfa -32 + ^ x23: .cfa -40 + ^ x24: .cfa -48 + ^ x25: .cfa -64 + ^ .ra: .cfa -72 + ^ x29: .cfa -80 + ^
STACK CFI 5520c .cfa: sp 96 +
STACK CFI 55224 .cfa: sp 0 +
STACK CFI 55228 .cfa: x29 80 +
STACK CFI INIT 5522c 1c .cfa: sp 0 +
STACK CFI INIT 55248 c .cfa: sp 0 +
STACK CFI INIT 55254 4 .cfa: sp 0 +
STACK CFI INIT 55258 34 .cfa: sp 0 +
STACK CFI 5525c .cfa: sp 32 +
STACK CFI 55264 .cfa: x29 32 + x19: .cfa -16 + ^ .ra: .cfa -24 + ^ x29: .cfa -32 + ^
STACK CFI 55280 .cfa: sp 32 +
STACK CFI 55288 .cfa: sp 0 +
STACK CFI INIT 5528c 14 .cfa: sp 0 +
STACK CFI INIT 552a0 4 .cfa: sp 0 +
STACK CFI INIT 552a4 4 .cfa: sp 0 +
STACK CFI INIT 552a8 114 .cfa: sp 0 +
STACK CFI 552ac .cfa: sp 96 +
STACK CFI 552c4 .cfa: x29 80 + x19: .cfa -8 + ^ x20: .cfa -16 + ^ x21: .cfa -24 + ^ x22: .cfa -32 + ^ x23: .cfa -40 + ^ x24: .cfa -48 + ^ x25: .cfa -64 + ^ .ra: .cfa -72 + ^ x29: .cfa -80 + ^
STACK CFI 5539c .cfa: sp 96 +
STACK CFI 553b4 .cfa: sp 0 +
STACK CFI 553b8 .cfa: x29 80 +
STACK CFI INIT 553bc 1c .cfa: sp 0 +
STACK CFI INIT 553d8 c .cfa: sp 0 +
STACK CFI INIT 553e4 4 .cfa: sp 0 +
STACK CFI INIT 553e8 34 .cfa: sp 0 +
STACK CFI 553ec .cfa: sp 32 +
STACK CFI 553f4 .cfa: x29 32 + x19: .cfa -16 + ^ .ra: .cfa -24 + ^ x29: .cfa -32 + ^
STACK CFI 55410 .cfa: sp 32 +
STACK CFI 55418 .cfa: sp 0 +
STACK CFI INIT 5541c 14 .cfa: sp 0 +
STACK CFI INIT 55430 4 .cfa: sp 0 +
STACK CFI INIT 55434 4 .cfa: sp 0 +
STACK CFI INIT 55438 114 .cfa: sp 0 +
STACK CFI 5543c .cfa: sp 96 +
STACK CFI 55454 .cfa: x29 80 + x19: .cfa -8 + ^ x20: .cfa -16 + ^ x21: .cfa -24 + ^ x22: .cfa -32 + ^ x23: .cfa -40 + ^ x24: .cfa -48 + ^ x25: .cfa -64 + ^ .ra: .cfa -72 + ^ x29: .cfa -80 + ^
STACK CFI 5552c .cfa: sp 96 +
STACK CFI 55544 .cfa: sp 0 +
STACK CFI 55548 .cfa: x29 80 +
STACK CFI INIT 5554c 1c .cfa: sp 0 +
STACK CFI INIT 55568 c .cfa: sp 0 +
STACK CFI INIT 55574 4 .cfa: sp 0 +
STACK CFI INIT 55578 34 .cfa: sp 0 +
STACK CFI 5557c .cfa: sp 32 +
STACK CFI 55584 .cfa: x29 32 + x19: .cfa -16 + ^ .ra: .cfa -24 + ^ x29: .cfa -32 + ^
STACK CFI 555a0 .cfa: sp 32 +
STACK CFI 555a8 .cfa: sp 0 +
STACK CFI INIT 555ac 14 .cfa: sp 0 +
STACK CFI INIT 555c0 4 .cfa: sp 0 +
STACK CFI INIT 555c4 4 .cfa: sp 0 +
STACK CFI INIT 555c8 114 .cfa: sp 0 +
STACK CFI 555cc .cfa: sp 96 +
STACK CFI 555e4 .cfa: x29 80 + x19: .cfa -8 + ^ x20: .cfa -16 + ^ x21: .cfa -24 + ^ x22: .cfa -32 + ^ x23: .cfa -40 + ^ x24: .cfa -48 + ^ x25: .cfa -64 + ^ .ra: .cfa -72 + ^ x29: .cfa -80 + ^
STACK CFI 556bc .cfa: sp 96 +
STACK CFI 556d4 .cfa: sp 0 +
STACK CFI 556d8 .cfa: x29 80 +
STACK CFI INIT 556dc 1c .cfa: sp 0 +
STACK CFI INIT 556f8 c .cfa: sp 0 +
STACK CFI INIT 55704 4 .cfa: sp 0 +
STACK CFI INIT 55708 34 .cfa: sp 0 +
STACK CFI 5570c .cfa: sp 32 +
STACK CFI 55714 .cfa: x29 32 + x19: .cfa -16 + ^ .ra: .cfa -24 + ^ x29: .cfa -32 + ^
STACK CFI 55730 .cfa: sp 32 +
STACK CFI 55738 .cfa: sp 0 +
STACK CFI INIT 5573c 14 .cfa: sp 0 +
STACK CFI INIT 55750 4 .cfa: sp 0 +
STACK CFI INIT 55754 4 .cfa: sp 0 +
STACK CFI INIT 55758 114 .cfa: sp 0 +
STACK CFI 5575c .cfa: sp 96 +
STACK CFI 55774 .cfa: x29 80 + x19: .cfa -8 + ^ x20: .cfa -16 + ^ x21: .cfa -24 + ^ x22: .cfa -32 + ^ x23: .cfa -40 + ^ x24: .cfa -48 + ^ x25: .cfa -64 + ^ .ra: .cfa -72 + ^ x29: .cfa -80 + ^
STACK CFI 5584c .cfa: sp 96 +
STACK CFI 55864 .cfa: sp 0 +
STACK CFI 55868 .cfa: x29 80 +
STACK CFI INIT 5586c 1c .cfa: sp 0 +
STACK CFI INIT 55888 c .cfa: sp 0 +
STACK CFI INIT 55894 4 .cfa: sp 0 +
STACK CFI INIT 55898 34 .cfa: sp 0 +
STACK CFI 5589c .cfa: sp 32 +
STACK CFI 558a4 .cfa: x29 32 + x19: .cfa -16 + ^ .ra: .cfa -24 + ^ x29: .cfa -32 + ^
STACK CFI 558c0 .cfa: sp 32 +
STACK CFI 558c8 .cfa: sp 0 +
STACK CFI INIT 558cc 14 .cfa: sp 0 +
STACK CFI INIT 558e0 4 .cfa: sp 0 +
STACK CFI INIT 558e4 4 .cfa: sp 0 +
STACK CFI INIT 558e8 c .cfa: sp 0 +
STACK CFI INIT 558f4 1c .cfa: sp 0 +
STACK CFI INIT 55910 c .cfa: sp 0 +
STACK CFI INIT 5591c 4 .cfa: sp 0 +
STACK CFI INIT 55920 34 .cfa: sp 0 +
STACK CFI 55924 .cfa: sp 32 +
STACK CFI 5592c .cfa: x29 32 + x19: .cfa -16 + ^ .ra: .cfa -24 + ^ x29: .cfa -32 + ^
STACK CFI 55948 .cfa: sp 32 +
STACK CFI 55950 .cfa: sp 0 +
STACK CFI INIT 55954 14 .cfa: sp 0 +
STACK CFI INIT 55968 4 .cfa: sp 0 +
STACK CFI INIT 5596c 4 .cfa: sp 0 +
STACK CFI INIT 55970 4c .cfa: sp 0 +
STACK CFI 55974 .cfa: sp 32 +
STACK CFI 5597c .cfa: x29 32 + x19: .cfa -16 + ^ .ra: .cfa -24 + ^ x29: .cfa -32 + ^
STACK CFI 55994 .cfa: sp 32 +
STACK CFI 5599c .cfa: sp 0 +
STACK CFI 559a0 .cfa: x29 32 +
STACK CFI 559b0 .cfa: sp 32 +
STACK CFI 559b8 .cfa: sp 0 +
STACK CFI INIT 559bc 1c .cfa: sp 0 +
STACK CFI INIT 559d8 c .cfa: sp 0 +
STACK CFI INIT 559e4 4 .cfa: sp 0 +
STACK CFI INIT 559e8 34 .cfa: sp 0 +
STACK CFI 559ec .cfa: sp 32 +
STACK CFI 559f4 .cfa: x29 32 + x19: .cfa -16 + ^ .ra: .cfa -24 + ^ x29: .cfa -32 + ^
STACK CFI 55a10 .cfa: sp 32 +
STACK CFI 55a18 .cfa: sp 0 +
STACK CFI INIT 55a1c 14 .cfa: sp 0 +
STACK CFI INIT 55a30 4 .cfa: sp 0 +
STACK CFI INIT 55a34 4 .cfa: sp 0 +
STACK CFI INIT 55a38 3c .cfa: sp 0 +
STACK CFI 55a3c .cfa: sp 32 +
STACK CFI 55a44 .cfa: x29 32 + x19: .cfa -8 + ^ x20: .cfa -16 + ^ .ra: .cfa -24 + ^ x29: .cfa -32 + ^
STACK CFI 55a68 .cfa: sp 32 +
STACK CFI 55a70 .cfa: sp 0 +
STACK CFI INIT 55a74 1c .cfa: sp 0 +
STACK CFI INIT 55a90 c .cfa: sp 0 +
STACK CFI INIT 55a9c 4 .cfa: sp 0 +
STACK CFI INIT 55aa0 34 .cfa: sp 0 +
STACK CFI 55aa4 .cfa: sp 32 +
STACK CFI 55aac .cfa: x29 32 + x19: .cfa -16 + ^ .ra: .cfa -24 + ^ x29: .cfa -32 + ^
STACK CFI 55ac8 .cfa: sp 32 +
STACK CFI 55ad0 .cfa: sp 0 +
STACK CFI INIT 55ad4 14 .cfa: sp 0 +
STACK CFI INIT 55ae8 4 .cfa: sp 0 +
STACK CFI INIT 55aec 4 .cfa: sp 0 +
STACK CFI INIT 55af0 114 .cfa: sp 0 +
STACK CFI 55af4 .cfa: sp 96 +
STACK CFI 55b0c .cfa: x29 80 + x19: .cfa -8 + ^ x20: .cfa -16 + ^ x21: .cfa -24 + ^ x22: .cfa -32 + ^ x23: .cfa -40 + ^ x24: .cfa -48 + ^ x25: .cfa -64 + ^ .ra: .cfa -72 + ^ x29: .cfa -80 + ^
STACK CFI 55be4 .cfa: sp 96 +
STACK CFI 55bfc .cfa: sp 0 +
STACK CFI 55c00 .cfa: x29 80 +
STACK CFI INIT 55c04 1c .cfa: sp 0 +
STACK CFI INIT 55c20 c .cfa: sp 0 +
STACK CFI INIT 55c2c 4 .cfa: sp 0 +
STACK CFI INIT 55c30 34 .cfa: sp 0 +
STACK CFI 55c34 .cfa: sp 32 +
STACK CFI 55c3c .cfa: x29 32 + x19: .cfa -16 + ^ .ra: .cfa -24 + ^ x29: .cfa -32 + ^
STACK CFI 55c58 .cfa: sp 32 +
STACK CFI 55c60 .cfa: sp 0 +
STACK CFI INIT 55c64 14 .cfa: sp 0 +
STACK CFI INIT 55c78 4 .cfa: sp 0 +
STACK CFI INIT 55c7c 4 .cfa: sp 0 +
STACK CFI INIT 55c80 114 .cfa: sp 0 +
STACK CFI 55c84 .cfa: sp 96 +
STACK CFI 55c9c .cfa: x29 80 + x19: .cfa -8 + ^ x20: .cfa -16 + ^ x21: .cfa -24 + ^ x22: .cfa -32 + ^ x23: .cfa -40 + ^ x24: .cfa -48 + ^ x25: .cfa -64 + ^ .ra: .cfa -72 + ^ x29: .cfa -80 + ^
STACK CFI 55d74 .cfa: sp 96 +
STACK CFI 55d8c .cfa: sp 0 +
STACK CFI 55d90 .cfa: x29 80 +
STACK CFI INIT 55d94 1c .cfa: sp 0 +
STACK CFI INIT 55db0 c .cfa: sp 0 +
STACK CFI INIT 55dbc 4 .cfa: sp 0 +
STACK CFI INIT 55dc0 34 .cfa: sp 0 +
STACK CFI 55dc4 .cfa: sp 32 +
STACK CFI 55dcc .cfa: x29 32 + x19: .cfa -16 + ^ .ra: .cfa -24 + ^ x29: .cfa -32 + ^
STACK CFI 55de8 .cfa: sp 32 +
STACK CFI 55df0 .cfa: sp 0 +
STACK CFI INIT 55df4 14 .cfa: sp 0 +
STACK CFI INIT 55e08 4 .cfa: sp 0 +
STACK CFI INIT 55e0c 4 .cfa: sp 0 +
STACK CFI INIT 55e10 58 .cfa: sp 0 +
STACK CFI 55e14 .cfa: sp 48 +
STACK CFI 55e20 .cfa: x29 32 + x19: .cfa -16 + ^ .ra: .cfa -24 + ^ x29: .cfa -32 + ^
STACK CFI 55e54 .cfa: sp 48 +
STACK CFI 55e60 .cfa: sp 0 +
STACK CFI 55e64 .cfa: x29 32 +
STACK CFI INIT 55e68 1c .cfa: sp 0 +
STACK CFI INIT 55e84 c .cfa: sp 0 +
STACK CFI INIT 55e90 4 .cfa: sp 0 +
STACK CFI INIT 55e94 34 .cfa: sp 0 +
STACK CFI 55e98 .cfa: sp 32 +
STACK CFI 55ea0 .cfa: x29 32 + x19: .cfa -16 + ^ .ra: .cfa -24 + ^ x29: .cfa -32 + ^
STACK CFI 55ebc .cfa: sp 32 +
STACK CFI 55ec4 .cfa: sp 0 +
STACK CFI INIT 55ec8 14 .cfa: sp 0 +
STACK CFI INIT 55edc 4 .cfa: sp 0 +
STACK CFI INIT 55ee0 4 .cfa: sp 0 +
STACK CFI INIT 55ee4 58 .cfa: sp 0 +
STACK CFI 55ee8 .cfa: sp 48 +
STACK CFI 55ef4 .cfa: x29 32 + x19: .cfa -16 + ^ .ra: .cfa -24 + ^ x29: .cfa -32 + ^
STACK CFI 55f28 .cfa: sp 48 +
STACK CFI 55f34 .cfa: sp 0 +
STACK CFI 55f38 .cfa: x29 32 +
STACK CFI INIT 55f3c 1c .cfa: sp 0 +
STACK CFI INIT 55f58 c .cfa: sp 0 +
STACK CFI INIT 55f64 4 .cfa: sp 0 +
STACK CFI INIT 55f68 34 .cfa: sp 0 +
STACK CFI 55f6c .cfa: sp 32 +
STACK CFI 55f74 .cfa: x29 32 + x19: .cfa -16 + ^ .ra: .cfa -24 + ^ x29: .cfa -32 + ^
STACK CFI 55f90 .cfa: sp 32 +
STACK CFI 55f98 .cfa: sp 0 +
STACK CFI INIT 55f9c 14 .cfa: sp 0 +
STACK CFI INIT 55fb0 4 .cfa: sp 0 +
STACK CFI INIT 55fb4 4 .cfa: sp 0 +
STACK CFI INIT 55fb8 c .cfa: sp 0 +
STACK CFI INIT 55fc4 1c .cfa: sp 0 +
STACK CFI INIT 55fe0 c .cfa: sp 0 +
STACK CFI INIT 55fec 4 .cfa: sp 0 +
STACK CFI INIT 55ff0 34 .cfa: sp 0 +
STACK CFI 55ff4 .cfa: sp 32 +
STACK CFI 55ffc .cfa: x29 32 + x19: .cfa -16 + ^ .ra: .cfa -24 + ^ x29: .cfa -32 + ^
STACK CFI 56018 .cfa: sp 32 +
STACK CFI 56020 .cfa: sp 0 +
STACK CFI INIT 56024 14 .cfa: sp 0 +
STACK CFI INIT 56038 4 .cfa: sp 0 +
STACK CFI INIT 5603c 4 .cfa: sp 0 +
STACK CFI INIT 56040 c .cfa: sp 0 +
STACK CFI INIT 5604c 1c .cfa: sp 0 +
STACK CFI INIT 56068 c .cfa: sp 0 +
STACK CFI INIT 56074 4 .cfa: sp 0 +
STACK CFI INIT 56078 34 .cfa: sp 0 +
STACK CFI 5607c .cfa: sp 32 +
STACK CFI 56084 .cfa: x29 32 + x19: .cfa -16 + ^ .ra: .cfa -24 + ^ x29: .cfa -32 + ^
STACK CFI 560a0 .cfa: sp 32 +
STACK CFI 560a8 .cfa: sp 0 +
STACK CFI INIT 560ac 14 .cfa: sp 0 +
STACK CFI INIT 560c0 4 .cfa: sp 0 +
STACK CFI INIT 560c4 4 .cfa: sp 0 +
STACK CFI INIT 560c8 114 .cfa: sp 0 +
STACK CFI 560cc .cfa: sp 96 +
STACK CFI 560e4 .cfa: x29 80 + x19: .cfa -8 + ^ x20: .cfa -16 + ^ x21: .cfa -24 + ^ x22: .cfa -32 + ^ x23: .cfa -40 + ^ x24: .cfa -48 + ^ x25: .cfa -64 + ^ .ra: .cfa -72 + ^ x29: .cfa -80 + ^
STACK CFI 561bc .cfa: sp 96 +
STACK CFI 561d4 .cfa: sp 0 +
STACK CFI 561d8 .cfa: x29 80 +
STACK CFI INIT 561dc 1c .cfa: sp 0 +
STACK CFI INIT 561f8 c .cfa: sp 0 +
STACK CFI INIT 56204 4 .cfa: sp 0 +
STACK CFI INIT 56208 34 .cfa: sp 0 +
STACK CFI 5620c .cfa: sp 32 +
STACK CFI 56214 .cfa: x29 32 + x19: .cfa -16 + ^ .ra: .cfa -24 + ^ x29: .cfa -32 + ^
STACK CFI 56230 .cfa: sp 32 +
STACK CFI 56238 .cfa: sp 0 +
STACK CFI INIT 5623c 14 .cfa: sp 0 +
STACK CFI INIT 56250 4 .cfa: sp 0 +
STACK CFI INIT 56254 4 .cfa: sp 0 +
STACK CFI INIT 56258 114 .cfa: sp 0 +
STACK CFI 5625c .cfa: sp 96 +
STACK CFI 56274 .cfa: x29 80 + x19: .cfa -8 + ^ x20: .cfa -16 + ^ x21: .cfa -24 + ^ x22: .cfa -32 + ^ x23: .cfa -40 + ^ x24: .cfa -48 + ^ x25: .cfa -64 + ^ .ra: .cfa -72 + ^ x29: .cfa -80 + ^
STACK CFI 5634c .cfa: sp 96 +
STACK CFI 56364 .cfa: sp 0 +
STACK CFI 56368 .cfa: x29 80 +
STACK CFI INIT 5636c 1c .cfa: sp 0 +
STACK CFI INIT 56388 c .cfa: sp 0 +
STACK CFI INIT 56394 4 .cfa: sp 0 +
STACK CFI INIT 56398 34 .cfa: sp 0 +
STACK CFI 5639c .cfa: sp 32 +
STACK CFI 563a4 .cfa: x29 32 + x19: .cfa -16 + ^ .ra: .cfa -24 + ^ x29: .cfa -32 + ^
STACK CFI 563c0 .cfa: sp 32 +
STACK CFI 563c8 .cfa: sp 0 +
STACK CFI INIT 563cc 14 .cfa: sp 0 +
STACK CFI INIT 563e0 4 .cfa: sp 0 +
STACK CFI INIT 563e4 4 .cfa: sp 0 +
STACK CFI INIT 563e8 114 .cfa: sp 0 +
STACK CFI 563ec .cfa: sp 96 +
STACK CFI 56404 .cfa: x29 80 + x19: .cfa -8 + ^ x20: .cfa -16 + ^ x21: .cfa -24 + ^ x22: .cfa -32 + ^ x23: .cfa -40 + ^ x24: .cfa -48 + ^ x25: .cfa -64 + ^ .ra: .cfa -72 + ^ x29: .cfa -80 + ^
STACK CFI 564dc .cfa: sp 96 +
STACK CFI 564f4 .cfa: sp 0 +
STACK CFI 564f8 .cfa: x29 80 +
STACK CFI INIT 564fc 1c .cfa: sp 0 +
STACK CFI INIT 56518 c .cfa: sp 0 +
STACK CFI INIT 56524 4 .cfa: sp 0 +
STACK CFI INIT 56528 34 .cfa: sp 0 +
STACK CFI 5652c .cfa: sp 32 +
STACK CFI 56534 .cfa: x29 32 + x19: .cfa -16 + ^ .ra: .cfa -24 + ^ x29: .cfa -32 + ^
STACK CFI 56550 .cfa: sp 32 +
STACK CFI 56558 .cfa: sp 0 +
STACK CFI INIT 5655c 14 .cfa: sp 0 +
STACK CFI INIT 56570 4 .cfa: sp 0 +
STACK CFI INIT 56574 4 .cfa: sp 0 +
STACK CFI INIT 56578 114 .cfa: sp 0 +
STACK CFI 5657c .cfa: sp 96 +
STACK CFI 56594 .cfa: x29 80 + x19: .cfa -8 + ^ x20: .cfa -16 + ^ x21: .cfa -24 + ^ x22: .cfa -32 + ^ x23: .cfa -40 + ^ x24: .cfa -48 + ^ x25: .cfa -64 + ^ .ra: .cfa -72 + ^ x29: .cfa -80 + ^
STACK CFI 5666c .cfa: sp 96 +
STACK CFI 56684 .cfa: sp 0 +
STACK CFI 56688 .cfa: x29 80 +
STACK CFI INIT 5668c 1c .cfa: sp 0 +
STACK CFI INIT 566a8 c .cfa: sp 0 +
STACK CFI INIT 566b4 4 .cfa: sp 0 +
STACK CFI INIT 566b8 34 .cfa: sp 0 +
STACK CFI 566bc .cfa: sp 32 +
STACK CFI 566c4 .cfa: x29 32 + x19: .cfa -16 + ^ .ra: .cfa -24 + ^ x29: .cfa -32 + ^
STACK CFI 566e0 .cfa: sp 32 +
STACK CFI 566e8 .cfa: sp 0 +
STACK CFI INIT 566ec 14 .cfa: sp 0 +
STACK CFI INIT 56700 4 .cfa: sp 0 +
STACK CFI INIT 56704 4 .cfa: sp 0 +
STACK CFI INIT 56708 114 .cfa: sp 0 +
STACK CFI 5670c .cfa: sp 96 +
STACK CFI 56724 .cfa: x29 80 + x19: .cfa -8 + ^ x20: .cfa -16 + ^ x21: .cfa -24 + ^ x22: .cfa -32 + ^ x23: .cfa -40 + ^ x24: .cfa -48 + ^ x25: .cfa -64 + ^ .ra: .cfa -72 + ^ x29: .cfa -80 + ^
STACK CFI 567fc .cfa: sp 96 +
STACK CFI 56814 .cfa: sp 0 +
STACK CFI 56818 .cfa: x29 80 +
STACK CFI INIT 5681c 1c .cfa: sp 0 +
STACK CFI INIT 56838 c .cfa: sp 0 +
STACK CFI INIT 56844 4 .cfa: sp 0 +
STACK CFI INIT 56848 34 .cfa: sp 0 +
STACK CFI 5684c .cfa: sp 32 +
STACK CFI 56854 .cfa: x29 32 + x19: .cfa -16 + ^ .ra: .cfa -24 + ^ x29: .cfa -32 + ^
STACK CFI 56870 .cfa: sp 32 +
STACK CFI 56878 .cfa: sp 0 +
STACK CFI INIT 5687c 14 .cfa: sp 0 +
STACK CFI INIT 56890 4 .cfa: sp 0 +
STACK CFI INIT 56894 4 .cfa: sp 0 +
STACK CFI INIT 56898 114 .cfa: sp 0 +
STACK CFI 5689c .cfa: sp 96 +
STACK CFI 568b4 .cfa: x29 80 + x19: .cfa -8 + ^ x20: .cfa -16 + ^ x21: .cfa -24 + ^ x22: .cfa -32 + ^ x23: .cfa -40 + ^ x24: .cfa -48 + ^ x25: .cfa -64 + ^ .ra: .cfa -72 + ^ x29: .cfa -80 + ^
STACK CFI 5698c .cfa: sp 96 +
STACK CFI 569a4 .cfa: sp 0 +
STACK CFI 569a8 .cfa: x29 80 +
STACK CFI INIT 569ac 1c .cfa: sp 0 +
STACK CFI INIT 569c8 c .cfa: sp 0 +
STACK CFI INIT 569d4 4 .cfa: sp 0 +
STACK CFI INIT 569d8 34 .cfa: sp 0 +
STACK CFI 569dc .cfa: sp 32 +
STACK CFI 569e4 .cfa: x29 32 + x19: .cfa -16 + ^ .ra: .cfa -24 + ^ x29: .cfa -32 + ^
STACK CFI 56a00 .cfa: sp 32 +
STACK CFI 56a08 .cfa: sp 0 +
STACK CFI INIT 56a0c 14 .cfa: sp 0 +
STACK CFI INIT 56a20 4 .cfa: sp 0 +
STACK CFI INIT 56a24 4 .cfa: sp 0 +
STACK CFI INIT 56a28 114 .cfa: sp 0 +
STACK CFI 56a2c .cfa: sp 96 +
STACK CFI 56a44 .cfa: x29 80 + x19: .cfa -8 + ^ x20: .cfa -16 + ^ x21: .cfa -24 + ^ x22: .cfa -32 + ^ x23: .cfa -40 + ^ x24: .cfa -48 + ^ x25: .cfa -64 + ^ .ra: .cfa -72 + ^ x29: .cfa -80 + ^
STACK CFI 56b1c .cfa: sp 96 +
STACK CFI 56b34 .cfa: sp 0 +
STACK CFI 56b38 .cfa: x29 80 +
STACK CFI INIT 56b3c 1c .cfa: sp 0 +
STACK CFI INIT 56b58 c .cfa: sp 0 +
STACK CFI INIT 56b64 4 .cfa: sp 0 +
STACK CFI INIT 56b68 34 .cfa: sp 0 +
STACK CFI 56b6c .cfa: sp 32 +
STACK CFI 56b74 .cfa: x29 32 + x19: .cfa -16 + ^ .ra: .cfa -24 + ^ x29: .cfa -32 + ^
STACK CFI 56b90 .cfa: sp 32 +
STACK CFI 56b98 .cfa: sp 0 +
STACK CFI INIT 56b9c 14 .cfa: sp 0 +
STACK CFI INIT 56bb0 4 .cfa: sp 0 +
STACK CFI INIT 56bb4 4 .cfa: sp 0 +
STACK CFI INIT 56bb8 114 .cfa: sp 0 +
STACK CFI 56bbc .cfa: sp 96 +
STACK CFI 56bd4 .cfa: x29 80 + x19: .cfa -8 + ^ x20: .cfa -16 + ^ x21: .cfa -24 + ^ x22: .cfa -32 + ^ x23: .cfa -40 + ^ x24: .cfa -48 + ^ x25: .cfa -64 + ^ .ra: .cfa -72 + ^ x29: .cfa -80 + ^
STACK CFI 56cac .cfa: sp 96 +
STACK CFI 56cc4 .cfa: sp 0 +
STACK CFI 56cc8 .cfa: x29 80 +
STACK CFI INIT 56ccc 1c .cfa: sp 0 +
STACK CFI INIT 56ce8 c .cfa: sp 0 +
STACK CFI INIT 56cf4 4 .cfa: sp 0 +
STACK CFI INIT 56cf8 34 .cfa: sp 0 +
STACK CFI 56cfc .cfa: sp 32 +
STACK CFI 56d04 .cfa: x29 32 + x19: .cfa -16 + ^ .ra: .cfa -24 + ^ x29: .cfa -32 + ^
STACK CFI 56d20 .cfa: sp 32 +
STACK CFI 56d28 .cfa: sp 0 +
STACK CFI INIT 56d2c 14 .cfa: sp 0 +
STACK CFI INIT 56d40 4 .cfa: sp 0 +
STACK CFI INIT 56d44 4 .cfa: sp 0 +
STACK CFI INIT 56d48 114 .cfa: sp 0 +
STACK CFI 56d4c .cfa: sp 96 +
STACK CFI 56d64 .cfa: x29 80 + x19: .cfa -8 + ^ x20: .cfa -16 + ^ x21: .cfa -24 + ^ x22: .cfa -32 + ^ x23: .cfa -40 + ^ x24: .cfa -48 + ^ x25: .cfa -64 + ^ .ra: .cfa -72 + ^ x29: .cfa -80 + ^
STACK CFI 56e3c .cfa: sp 96 +
STACK CFI 56e54 .cfa: sp 0 +
STACK CFI 56e58 .cfa: x29 80 +
STACK CFI INIT 56e5c 1c .cfa: sp 0 +
STACK CFI INIT 56e78 c .cfa: sp 0 +
STACK CFI INIT 56e84 4 .cfa: sp 0 +
STACK CFI INIT 56e88 34 .cfa: sp 0 +
STACK CFI 56e8c .cfa: sp 32 +
STACK CFI 56e94 .cfa: x29 32 + x19: .cfa -16 + ^ .ra: .cfa -24 + ^ x29: .cfa -32 + ^
STACK CFI 56eb0 .cfa: sp 32 +
STACK CFI 56eb8 .cfa: sp 0 +
STACK CFI INIT 56ebc 14 .cfa: sp 0 +
STACK CFI INIT 56ed0 4 .cfa: sp 0 +
STACK CFI INIT 56ed4 4 .cfa: sp 0 +
STACK CFI INIT 56ed8 114 .cfa: sp 0 +
STACK CFI 56edc .cfa: sp 96 +
STACK CFI 56ef4 .cfa: x29 80 + x19: .cfa -8 + ^ x20: .cfa -16 + ^ x21: .cfa -24 + ^ x22: .cfa -32 + ^ x23: .cfa -40 + ^ x24: .cfa -48 + ^ x25: .cfa -64 + ^ .ra: .cfa -72 + ^ x29: .cfa -80 + ^
STACK CFI 56fcc .cfa: sp 96 +
STACK CFI 56fe4 .cfa: sp 0 +
STACK CFI 56fe8 .cfa: x29 80 +
STACK CFI INIT 56fec 1c .cfa: sp 0 +
STACK CFI INIT 57008 c .cfa: sp 0 +
STACK CFI INIT 57014 4 .cfa: sp 0 +
STACK CFI INIT 57018 34 .cfa: sp 0 +
STACK CFI 5701c .cfa: sp 32 +
STACK CFI 57024 .cfa: x29 32 + x19: .cfa -16 + ^ .ra: .cfa -24 + ^ x29: .cfa -32 + ^
STACK CFI 57040 .cfa: sp 32 +
STACK CFI 57048 .cfa: sp 0 +
STACK CFI INIT 5704c 14 .cfa: sp 0 +
STACK CFI INIT 57060 4 .cfa: sp 0 +
STACK CFI INIT 57064 4 .cfa: sp 0 +
STACK CFI INIT 57068 114 .cfa: sp 0 +
STACK CFI 5706c .cfa: sp 96 +
STACK CFI 57084 .cfa: x29 80 + x19: .cfa -8 + ^ x20: .cfa -16 + ^ x21: .cfa -24 + ^ x22: .cfa -32 + ^ x23: .cfa -40 + ^ x24: .cfa -48 + ^ x25: .cfa -64 + ^ .ra: .cfa -72 + ^ x29: .cfa -80 + ^
STACK CFI 5715c .cfa: sp 96 +
STACK CFI 57174 .cfa: sp 0 +
STACK CFI 57178 .cfa: x29 80 +
STACK CFI INIT 5717c 1c .cfa: sp 0 +
STACK CFI INIT 57198 c .cfa: sp 0 +
STACK CFI INIT 571a4 4 .cfa: sp 0 +
STACK CFI INIT 571a8 34 .cfa: sp 0 +
STACK CFI 571ac .cfa: sp 32 +
STACK CFI 571b4 .cfa: x29 32 + x19: .cfa -16 + ^ .ra: .cfa -24 + ^ x29: .cfa -32 + ^
STACK CFI 571d0 .cfa: sp 32 +
STACK CFI 571d8 .cfa: sp 0 +
STACK CFI INIT 571dc 14 .cfa: sp 0 +
STACK CFI INIT 571f0 4 .cfa: sp 0 +
STACK CFI INIT 571f4 4 .cfa: sp 0 +
STACK CFI INIT 571f8 114 .cfa: sp 0 +
STACK CFI 571fc .cfa: sp 96 +
STACK CFI 57214 .cfa: x29 80 + x19: .cfa -8 + ^ x20: .cfa -16 + ^ x21: .cfa -24 + ^ x22: .cfa -32 + ^ x23: .cfa -40 + ^ x24: .cfa -48 + ^ x25: .cfa -64 + ^ .ra: .cfa -72 + ^ x29: .cfa -80 + ^
STACK CFI 572ec .cfa: sp 96 +
STACK CFI 57304 .cfa: sp 0 +
STACK CFI 57308 .cfa: x29 80 +
STACK CFI INIT 5730c 1c .cfa: sp 0 +
STACK CFI INIT 57328 c .cfa: sp 0 +
STACK CFI INIT 57334 4 .cfa: sp 0 +
STACK CFI INIT 57338 34 .cfa: sp 0 +
STACK CFI 5733c .cfa: sp 32 +
STACK CFI 57344 .cfa: x29 32 + x19: .cfa -16 + ^ .ra: .cfa -24 + ^ x29: .cfa -32 + ^
STACK CFI 57360 .cfa: sp 32 +
STACK CFI 57368 .cfa: sp 0 +
STACK CFI INIT 5736c 14 .cfa: sp 0 +
STACK CFI INIT 57380 4 .cfa: sp 0 +
STACK CFI INIT 57384 4 .cfa: sp 0 +
STACK CFI INIT 57388 114 .cfa: sp 0 +
STACK CFI 5738c .cfa: sp 96 +
STACK CFI 573a4 .cfa: x29 80 + x19: .cfa -8 + ^ x20: .cfa -16 + ^ x21: .cfa -24 + ^ x22: .cfa -32 + ^ x23: .cfa -40 + ^ x24: .cfa -48 + ^ x25: .cfa -64 + ^ .ra: .cfa -72 + ^ x29: .cfa -80 + ^
STACK CFI 5747c .cfa: sp 96 +
STACK CFI 57494 .cfa: sp 0 +
STACK CFI 57498 .cfa: x29 80 +
STACK CFI INIT 5749c 1c .cfa: sp 0 +
STACK CFI INIT 574b8 c .cfa: sp 0 +
STACK CFI INIT 574c4 4 .cfa: sp 0 +
STACK CFI INIT 574c8 34 .cfa: sp 0 +
STACK CFI 574cc .cfa: sp 32 +
STACK CFI 574d4 .cfa: x29 32 + x19: .cfa -16 + ^ .ra: .cfa -24 + ^ x29: .cfa -32 + ^
STACK CFI 574f0 .cfa: sp 32 +
STACK CFI 574f8 .cfa: sp 0 +
STACK CFI INIT 574fc 14 .cfa: sp 0 +
STACK CFI INIT 57510 4 .cfa: sp 0 +
STACK CFI INIT 57514 4 .cfa: sp 0 +
STACK CFI INIT 57518 114 .cfa: sp 0 +
STACK CFI 5751c .cfa: sp 96 +
STACK CFI 57534 .cfa: x29 80 + x19: .cfa -8 + ^ x20: .cfa -16 + ^ x21: .cfa -24 + ^ x22: .cfa -32 + ^ x23: .cfa -40 + ^ x24: .cfa -48 + ^ x25: .cfa -64 + ^ .ra: .cfa -72 + ^ x29: .cfa -80 + ^
STACK CFI 5760c .cfa: sp 96 +
STACK CFI 57624 .cfa: sp 0 +
STACK CFI 57628 .cfa: x29 80 +
STACK CFI INIT 5762c 1c .cfa: sp 0 +
STACK CFI INIT 57648 c .cfa: sp 0 +
STACK CFI INIT 57654 4 .cfa: sp 0 +
STACK CFI INIT 57658 38 .cfa: sp 0 +
STACK CFI 5765c .cfa: sp 32 +
STACK CFI 57664 .cfa: x29 32 + x19: .cfa -16 + ^ .ra: .cfa -24 + ^ x29: .cfa -32 + ^
STACK CFI 57684 .cfa: sp 32 +
STACK CFI 5768c .cfa: sp 0 +
STACK CFI INIT 57690 18 .cfa: sp 0 +
STACK CFI INIT 576a8 4 .cfa: sp 0 +
STACK CFI INIT 576ac 4 .cfa: sp 0 +
STACK CFI INIT 576b0 118 .cfa: sp 0 +
STACK CFI 576b4 .cfa: sp 96 +
STACK CFI 576cc .cfa: x29 80 + x19: .cfa -8 + ^ x20: .cfa -16 + ^ x21: .cfa -24 + ^ x22: .cfa -32 + ^ x23: .cfa -40 + ^ x24: .cfa -48 + ^ x25: .cfa -56 + ^ x26: .cfa -64 + ^ .ra: .cfa -72 + ^ x29: .cfa -80 + ^
STACK CFI 577a8 .cfa: sp 96 +
STACK CFI 577c0 .cfa: sp 0 +
STACK CFI 577c4 .cfa: x29 80 +
STACK CFI INIT 577c8 1c .cfa: sp 0 +
STACK CFI INIT 577e4 c .cfa: sp 0 +
STACK CFI INIT 577f0 4 .cfa: sp 0 +
STACK CFI INIT 577f4 4 .cfa: sp 0 +
STACK CFI INIT 577f8 38 .cfa: sp 0 +
STACK CFI 577fc .cfa: sp 32 +
STACK CFI 57804 .cfa: x29 32 + x19: .cfa -16 + ^ .ra: .cfa -24 + ^ x29: .cfa -32 + ^
STACK CFI 57824 .cfa: sp 32 +
STACK CFI 5782c .cfa: sp 0 +
STACK CFI INIT 57830 18 .cfa: sp 0 +
STACK CFI INIT 57848 4 .cfa: sp 0 +
STACK CFI INIT 5784c 4 .cfa: sp 0 +
STACK CFI INIT 57850 118 .cfa: sp 0 +
STACK CFI 57854 .cfa: sp 96 +
STACK CFI 5786c .cfa: x29 80 + x19: .cfa -8 + ^ x20: .cfa -16 + ^ x21: .cfa -24 + ^ x22: .cfa -32 + ^ x23: .cfa -40 + ^ x24: .cfa -48 + ^ x25: .cfa -56 + ^ x26: .cfa -64 + ^ .ra: .cfa -72 + ^ x29: .cfa -80 + ^
STACK CFI 57948 .cfa: sp 96 +
STACK CFI 57960 .cfa: sp 0 +
STACK CFI 57964 .cfa: x29 80 +
STACK CFI INIT 57968 1c .cfa: sp 0 +
STACK CFI INIT 57984 c .cfa: sp 0 +
STACK CFI INIT 57990 4 .cfa: sp 0 +
STACK CFI INIT 57994 4 .cfa: sp 0 +
STACK CFI INIT 57998 38 .cfa: sp 0 +
STACK CFI 5799c .cfa: sp 32 +
STACK CFI 579a4 .cfa: x29 32 + x19: .cfa -16 + ^ .ra: .cfa -24 + ^ x29: .cfa -32 + ^
STACK CFI 579c4 .cfa: sp 32 +
STACK CFI 579cc .cfa: sp 0 +
STACK CFI INIT 579d0 18 .cfa: sp 0 +
STACK CFI INIT 579e8 4 .cfa: sp 0 +
STACK CFI INIT 579ec 4 .cfa: sp 0 +
STACK CFI INIT 579f0 48 .cfa: sp 0 +
STACK CFI INIT 57a38 1c .cfa: sp 0 +
STACK CFI INIT 57a54 c .cfa: sp 0 +
STACK CFI INIT 57b4c c0 .cfa: sp 0 +
STACK CFI 57b50 .cfa: sp 32 +
STACK CFI 57b58 .cfa: x29 32 + x19: .cfa -16 + ^ .ra: .cfa -24 + ^ x29: .cfa -32 + ^
STACK CFI 57c00 .cfa: sp 32 +
STACK CFI 57c08 .cfa: sp 0 +
STACK CFI INIT 4d04c 4 .cfa: sp 0 +
STACK CFI INIT 582dc 8 .cfa: sp 0 +
STACK CFI INIT 582e4 8 .cfa: sp 0 +
STACK CFI INIT 582ec 10 .cfa: sp 0 +
STACK CFI INIT 582fc 84 .cfa: sp 0 +
STACK CFI 58304 .cfa: sp 32 +
STACK CFI 5830c .cfa: x29 32 + x19: .cfa -16 + ^ .ra: .cfa -24 + ^ x29: .cfa -32 + ^
STACK CFI 5835c .cfa: sp 32 +
STACK CFI 58364 .cfa: sp 0 +
STACK CFI 58370 .cfa: x29 32 +
STACK CFI 58374 .cfa: sp 32 +
STACK CFI 5837c .cfa: sp 0 +
STACK CFI INIT 5857c 50 .cfa: sp 0 +
STACK CFI 58580 .cfa: sp 32 +
STACK CFI 58588 .cfa: x29 32 + x19: .cfa -16 + ^ .ra: .cfa -24 + ^ x29: .cfa -32 + ^
STACK CFI 585c0 .cfa: sp 32 +
STACK CFI 585c8 .cfa: sp 0 +
STACK CFI INIT 585cc 24 .cfa: sp 0 +
STACK CFI 585d0 .cfa: sp 32 +
STACK CFI 585d8 .cfa: x29 32 + x19: .cfa -16 + ^ .ra: .cfa -24 + ^ x29: .cfa -32 + ^
STACK CFI 585e4 .cfa: sp 32 +
STACK CFI 585ec .cfa: sp 0 +
STACK CFI INIT 585f0 18 .cfa: sp 0 +
STACK CFI INIT 58608 10 .cfa: sp 0 +
STACK CFI INIT 58618 14 .cfa: sp 0 +
STACK CFI INIT 5862c 2f4 .cfa: sp 0 +
STACK CFI 58630 .cfa: sp 48 +
STACK CFI 5863c .cfa: x29 48 + x19: .cfa -8 + ^ x20: .cfa -16 + ^ x21: .cfa -24 + ^ x22: .cfa -32 + ^ .ra: .cfa -40 + ^ x29: .cfa -48 + ^
STACK CFI 586e8 .cfa: sp 48 +
STACK CFI 586f4 .cfa: sp 0 +
STACK CFI 586f8 .cfa: x29 48 +
STACK CFI 58728 .cfa: sp 48 +
STACK CFI 58734 .cfa: sp 0 +
STACK CFI 58738 .cfa: x29 48 +
STACK CFI 58790 .cfa: sp 48 +
STACK CFI 5879c .cfa: sp 0 +
STACK CFI 587a0 .cfa: x29 48 +
STACK CFI 587c4 .cfa: sp 48 +
STACK CFI 587d0 .cfa: sp 0 +
STACK CFI 587d4 .cfa: x29 48 +
STACK CFI 58800 .cfa: sp 48 +
STACK CFI 5880c .cfa: sp 0 +
STACK CFI 58810 .cfa: x29 48 +
STACK CFI 58818 .cfa: sp 48 +
STACK CFI 58824 .cfa: sp 0 +
STACK CFI 58828 .cfa: x29 48 +
STACK CFI 5884c .cfa: sp 48 +
STACK CFI 58858 .cfa: sp 0 +
STACK CFI 5885c .cfa: x29 48 +
STACK CFI 588bc .cfa: sp 48 +
STACK CFI 588c8 .cfa: sp 0 +
STACK CFI 588cc .cfa: x29 48 +
STACK CFI 58908 .cfa: sp 48 +
STACK CFI 58914 .cfa: sp 0 +
STACK CFI 58918 .cfa: x29 48 +
STACK CFI INIT 58920 9c .cfa: sp 0 +
STACK CFI 58924 .cfa: sp 48 +
STACK CFI 58930 .cfa: x29 48 + x19: .cfa -8 + ^ x20: .cfa -16 + ^ x21: .cfa -24 + ^ x22: .cfa -32 + ^ .ra: .cfa -40 + ^ x29: .cfa -48 + ^
STACK CFI 58964 .cfa: sp 48 +
STACK CFI 58970 .cfa: sp 0 +
STACK CFI 58974 .cfa: x29 48 +
STACK CFI 589a4 .cfa: sp 48 +
STACK CFI 589b0 .cfa: sp 0 +
STACK CFI 589b4 .cfa: x29 48 +
STACK CFI INIT 589bc 38 .cfa: sp 0 +
STACK CFI INIT 589f4 10 .cfa: sp 0 +
STACK CFI INIT 58a04 90 .cfa: sp 0 +
STACK CFI INIT 58a94 44 .cfa: sp 0 +
STACK CFI 58a98 .cfa: sp 32 +
STACK CFI 58aa0 .cfa: x29 32 + x19: .cfa -8 + ^ x20: .cfa -16 + ^ .ra: .cfa -24 + ^ x29: .cfa -32 + ^
STACK CFI 58acc .cfa: sp 32 +
STACK CFI 58ad4 .cfa: sp 0 +
STACK CFI INIT 58b94 1a8 .cfa: sp 0 +
STACK CFI 58b98 .cfa: sp 96 +
STACK CFI 58bac .cfa: x29 48 + x19: .cfa -8 + ^ x20: .cfa -16 + ^ x21: .cfa -32 + ^ .ra: .cfa -40 + ^ x29: .cfa -48 + ^ v8: .cfa -56 + ^ v9: .cfa -64 + ^
STACK CFI 58d20 .cfa: sp 96 +
STACK CFI 58d34 .cfa: sp 0 +
STACK CFI 58d38 .cfa: x29 48 +
STACK CFI INIT 58d3c 14 .cfa: sp 0 +
STACK CFI INIT 58d50 14 .cfa: sp 0 +
STACK CFI INIT 58e2c 9c .cfa: sp 0 +
STACK CFI 58e30 .cfa: sp 48 +
STACK CFI 58e3c .cfa: x29 48 + x19: .cfa -8 + ^ x20: .cfa -16 + ^ x21: .cfa -24 + ^ x22: .cfa -32 + ^ .ra: .cfa -40 + ^ x29: .cfa -48 + ^
STACK CFI 58e70 .cfa: sp 48 +
STACK CFI 58e7c .cfa: sp 0 +
STACK CFI 58e80 .cfa: x29 48 +
STACK CFI 58eb0 .cfa: sp 48 +
STACK CFI 58ebc .cfa: sp 0 +
STACK CFI 58ec0 .cfa: x29 48 +
STACK CFI INIT 58ec8 28 .cfa: sp 0 +
STACK CFI INIT 59124 6c .cfa: sp 0 +
STACK CFI 59160 .cfa: sp 16 +
STACK CFI 59164 .cfa: x29 16 + .ra: .cfa -8 + ^ x29: .cfa -16 + ^
STACK CFI 59188 .cfa: sp 16 +
STACK CFI 5918c .cfa: sp 0 +
STACK CFI INIT 59190 28 .cfa: sp 0 +
STACK CFI INIT 591b8 b0 .cfa: sp 0 +
STACK CFI 591bc .cfa: sp 16 +
STACK CFI 591c0 .cfa: x29 16 + .ra: .cfa -8 + ^ x29: .cfa -16 + ^
STACK CFI 5920c .cfa: sp 16 +
STACK CFI 59210 .cfa: sp 0 +
STACK CFI 59214 .cfa: x29 16 +
STACK CFI 59218 .cfa: sp 16 +
STACK CFI 5921c .cfa: sp 0 +
STACK CFI 59220 .cfa: x29 16 +
STACK CFI 59230 .cfa: sp 16 +
STACK CFI 59234 .cfa: sp 0 +
STACK CFI 59238 .cfa: x29 16 +
STACK CFI 59260 .cfa: sp 16 +
STACK CFI 59264 .cfa: sp 0 +
STACK CFI INIT 59268 28 .cfa: sp 0 +
STACK CFI INIT 59290 50 .cfa: sp 0 +
STACK CFI INIT 592e0 2c .cfa: sp 0 +
STACK CFI INIT 5930c 8 .cfa: sp 0 +
STACK CFI INIT 59314 1c .cfa: sp 0 +
STACK CFI INIT 59330 2c .cfa: sp 0 +
STACK CFI INIT 5935c 8 .cfa: sp 0 +
STACK CFI INIT 59590 2c .cfa: sp 0 +
STACK CFI INIT 595bc 8 .cfa: sp 0 +
STACK CFI INIT 599b0 98 .cfa: sp 0 +
STACK CFI 599b4 .cfa: sp 48 +
STACK CFI 599c0 .cfa: x29 48 + x19: .cfa -8 + ^ x20: .cfa -16 + ^ x21: .cfa -32 + ^ .ra: .cfa -40 + ^ x29: .cfa -48 + ^
STACK CFI 59a10 .cfa: sp 48 +
STACK CFI 59a1c .cfa: sp 0 +
STACK CFI 59a20 .cfa: x29 48 +
STACK CFI INIT 59a48 1c .cfa: sp 0 +
STACK CFI INIT 59a64 8 .cfa: sp 0 +
STACK CFI INIT 59a6c 8 .cfa: sp 0 +
STACK CFI INIT 59b34 8 .cfa: sp 0 +
STACK CFI INIT 59bc0 2c .cfa: sp 0 +
STACK CFI INIT 59bec 8 .cfa: sp 0 +
STACK CFI INIT 59bf4 10 .cfa: sp 0 +
STACK CFI INIT 5abe4 70 .cfa: sp 0 +
STACK CFI 5abe8 .cfa: sp 48 +
STACK CFI 5abf4 .cfa: x29 48 + x19: .cfa -8 + ^ x20: .cfa -16 + ^ x21: .cfa -32 + ^ .ra: .cfa -40 + ^ x29: .cfa -48 + ^
STACK CFI 5ac0c .cfa: sp 48 +
STACK CFI 5ac18 .cfa: sp 0 +
STACK CFI 5ac1c .cfa: x29 48 +
STACK CFI 5ac44 .cfa: sp 48 +
STACK CFI 5ac50 .cfa: sp 0 +
STACK CFI INIT 5ac54 44 .cfa: sp 0 +
STACK CFI 5ac6c .cfa: sp 32 +
STACK CFI 5ac74 .cfa: x29 32 + x19: .cfa -16 + ^ .ra: .cfa -24 + ^ x29: .cfa -32 + ^
STACK CFI 5ac8c .cfa: sp 32 +
STACK CFI 5ac94 .cfa: sp 0 +
STACK CFI INIT 5ac98 7c .cfa: sp 0 +
STACK CFI 5ac9c .cfa: sp 48 +
STACK CFI 5aca8 .cfa: x29 48 + x19: .cfa -8 + ^ x20: .cfa -16 + ^ x21: .cfa -32 + ^ .ra: .cfa -40 + ^ x29: .cfa -48 + ^
STACK CFI 5acf4 .cfa: sp 48 +
STACK CFI 5ad00 .cfa: sp 0 +
STACK CFI 5ad04 .cfa: sp 48 +
STACK CFI 5ad10 .cfa: sp 0 +
STACK CFI INIT 5ad14 84 .cfa: sp 0 +
STACK CFI 5ad18 .cfa: sp 48 +
STACK CFI 5ad24 .cfa: x29 48 + x19: .cfa -8 + ^ x20: .cfa -16 + ^ x21: .cfa -24 + ^ x22: .cfa -32 + ^ .ra: .cfa -40 + ^ x29: .cfa -48 + ^
STACK CFI 5ad78 .cfa: sp 48 +
STACK CFI 5ad84 .cfa: sp 0 +
STACK CFI 5ad88 .cfa: sp 48 +
STACK CFI 5ad94 .cfa: sp 0 +
STACK CFI INIT 5ad98 a0 .cfa: sp 0 +
STACK CFI 5ad9c .cfa: sp 48 +
STACK CFI 5ada8 .cfa: x29 48 + x19: .cfa -8 + ^ x20: .cfa -16 + ^ x21: .cfa -32 + ^ .ra: .cfa -40 + ^ x29: .cfa -48 + ^
STACK CFI 5adc0 .cfa: sp 48 +
STACK CFI 5adcc .cfa: sp 0 +
STACK CFI 5add0 .cfa: x29 48 +
STACK CFI 5ae28 .cfa: sp 48 +
STACK CFI 5ae34 .cfa: sp 0 +
STACK CFI INIT 5ae38 64 .cfa: sp 0 +
STACK CFI 5ae3c .cfa: sp 48 +
STACK CFI 5ae48 .cfa: x29 48 + x19: .cfa -8 + ^ x20: .cfa -16 + ^ x21: .cfa -32 + ^ .ra: .cfa -40 + ^ x29: .cfa -48 + ^
STACK CFI 5ae7c .cfa: sp 48 +
STACK CFI 5ae88 .cfa: sp 0 +
STACK CFI 5ae8c .cfa: sp 48 +
STACK CFI 5ae98 .cfa: sp 0 +
STACK CFI INIT 5ae9c 3c .cfa: sp 0 +
STACK CFI 5aea0 .cfa: sp 32 +
STACK CFI 5aea8 .cfa: x29 32 + x19: .cfa -16 + ^ .ra: .cfa -24 + ^ x29: .cfa -32 + ^
STACK CFI 5aec0 .cfa: sp 32 +
STACK CFI 5aec8 .cfa: sp 0 +
STACK CFI 5aecc .cfa: sp 32 +
STACK CFI 5aed4 .cfa: sp 0 +
STACK CFI INIT 5aed8 64 .cfa: sp 0 +
STACK CFI 5aedc .cfa: sp 32 +
STACK CFI 5aee4 .cfa: x29 32 + x19: .cfa -16 + ^ .ra: .cfa -24 + ^ x29: .cfa -32 + ^
STACK CFI 5af20 .cfa: sp 32 +
STACK CFI 5af28 .cfa: sp 0 +
STACK CFI 5af2c .cfa: x29 32 +
STACK CFI 5af30 .cfa: sp 32 +
STACK CFI 5af38 .cfa: sp 0 +
STACK CFI INIT 5b1ec 44 .cfa: sp 0 +
STACK CFI 5b208 .cfa: sp 32 +
STACK CFI 5b210 .cfa: x29 32 + x19: .cfa -16 + ^ .ra: .cfa -24 + ^ x29: .cfa -32 + ^
STACK CFI 5b224 .cfa: sp 32 +
STACK CFI 5b22c .cfa: sp 0 +
STACK CFI INIT 5c0dc 15c .cfa: sp 0 +
STACK CFI 5c0e0 .cfa: sp 64 +
STACK CFI 5c0f0 .cfa: x29 64 + x19: .cfa -8 + ^ x20: .cfa -16 + ^ x21: .cfa -24 + ^ x22: .cfa -32 + ^ x23: .cfa -48 + ^ .ra: .cfa -56 + ^ x29: .cfa -64 + ^
STACK CFI 5c224 .cfa: sp 64 +
STACK CFI 5c234 .cfa: sp 0 +
STACK CFI INIT 5c964 68 .cfa: sp 0 +
STACK CFI 5c968 .cfa: sp 48 +
STACK CFI 5c974 .cfa: x29 48 + x19: .cfa -8 + ^ x20: .cfa -16 + ^ x21: .cfa -32 + ^ .ra: .cfa -40 + ^ x29: .cfa -48 + ^
STACK CFI 5c9ac .cfa: sp 48 +
STACK CFI 5c9b8 .cfa: sp 0 +
STACK CFI 5c9bc .cfa: sp 48 +
STACK CFI 5c9c8 .cfa: sp 0 +
STACK CFI INIT 5c9cc 100 .cfa: sp 0 +
STACK CFI 5c9d0 .cfa: sp 64 +
STACK CFI 5c9e0 .cfa: x29 64 + x19: .cfa -8 + ^ x20: .cfa -16 + ^ x21: .cfa -24 + ^ x22: .cfa -32 + ^ x23: .cfa -48 + ^ .ra: .cfa -56 + ^ x29: .cfa -64 + ^
STACK CFI 5ca8c .cfa: sp 64 +
STACK CFI 5ca9c .cfa: sp 0 +
STACK CFI 5caa0 .cfa: x29 64 +
STACK CFI 5cab8 .cfa: sp 64 +
STACK CFI 5cac8 .cfa: sp 0 +
STACK CFI INIT 5db74 3c .cfa: sp 0 +
STACK CFI 5db78 .cfa: sp 32 +
STACK CFI 5db80 .cfa: x29 32 + x19: .cfa -16 + ^ .ra: .cfa -24 + ^ x29: .cfa -32 + ^
STACK CFI 5db94 .cfa: sp 32 +
STACK CFI 5db9c .cfa: sp 0 +
STACK CFI 5dba0 .cfa: x29 32 +
STACK CFI 5dba4 .cfa: sp 32 +
STACK CFI 5dbac .cfa: sp 0 +
STACK CFI INIT 5dbb0 2e8 .cfa: sp 0 +
STACK CFI 5dbb4 .cfa: sp 80 +
STACK CFI 5dbc8 .cfa: x29 80 + x19: .cfa -8 + ^ x20: .cfa -16 + ^ x21: .cfa -24 + ^ x22: .cfa -32 + ^ x23: .cfa -40 + ^ x24: .cfa -48 + ^ x25: .cfa -56 + ^ x26: .cfa -64 + ^ .ra: .cfa -72 + ^ x29: .cfa -80 + ^
STACK CFI 5de80 .cfa: sp 80 +
STACK CFI 5de94 .cfa: sp 0 +
STACK CFI INIT 5de98 154 .cfa: sp 0 +
STACK CFI 5de9c .cfa: sp 64 +
STACK CFI 5deac .cfa: x29 64 + x19: .cfa -8 + ^ x20: .cfa -16 + ^ x21: .cfa -24 + ^ x22: .cfa -32 + ^ x23: .cfa -48 + ^ .ra: .cfa -56 + ^ x29: .cfa -64 + ^
STACK CFI 5df0c .cfa: sp 64 +
STACK CFI 5df1c .cfa: sp 0 +
STACK CFI 5df20 .cfa: x29 64 +
STACK CFI INIT 5dfec ec .cfa: sp 0 +
STACK CFI 5dff0 .cfa: sp 64 +
STACK CFI 5e000 .cfa: x29 64 + x19: .cfa -8 + ^ x20: .cfa -16 + ^ x21: .cfa -24 + ^ x22: .cfa -32 + ^ x23: .cfa -48 + ^ .ra: .cfa -56 + ^ x29: .cfa -64 + ^
STACK CFI 5e0a8 .cfa: sp 64 +
STACK CFI 5e0b8 .cfa: sp 0 +
STACK CFI 5e0bc .cfa: x29 64 +
STACK CFI 5e0c4 .cfa: sp 64 +
STACK CFI 5e0d4 .cfa: sp 0 +
STACK CFI INIT 5e18c 68 .cfa: sp 0 +
STACK CFI 5e190 .cfa: sp 48 +
STACK CFI 5e19c .cfa: x29 48 + x19: .cfa -8 + ^ x20: .cfa -16 + ^ x21: .cfa -32 + ^ .ra: .cfa -40 + ^ x29: .cfa -48 + ^
STACK CFI 5e1d4 .cfa: sp 48 +
STACK CFI 5e1e0 .cfa: sp 0 +
STACK CFI 5e1e4 .cfa: sp 48 +
STACK CFI 5e1f0 .cfa: sp 0 +
STACK CFI INIT 5e81c 28 .cfa: sp 0 +
STACK CFI INIT 5f844 150 .cfa: sp 0 +
STACK CFI 5f848 .cfa: sp 48 +
STACK CFI 5f854 .cfa: x29 48 + x19: .cfa -8 + ^ x20: .cfa -16 + ^ x21: .cfa -32 + ^ .ra: .cfa -40 + ^ x29: .cfa -48 + ^
STACK CFI 5f924 .cfa: sp 48 +
STACK CFI 5f930 .cfa: sp 0 +
STACK CFI 5f934 .cfa: x29 48 +
STACK CFI 5f978 .cfa: sp 48 +
STACK CFI 5f984 .cfa: sp 0 +
STACK CFI 5f988 .cfa: x29 48 +
STACK CFI INIT 6045c 44 .cfa: sp 0 +
STACK CFI 60478 .cfa: sp 32 +
STACK CFI 60480 .cfa: x29 32 + x19: .cfa -16 + ^ .ra: .cfa -24 + ^ x29: .cfa -32 + ^
STACK CFI 60494 .cfa: sp 32 +
STACK CFI 6049c .cfa: sp 0 +
STACK CFI INIT 604a0 5c .cfa: sp 0 +
STACK CFI 604a4 .cfa: sp 32 +
STACK CFI 604ac .cfa: x29 32 + x19: .cfa -8 + ^ x20: .cfa -16 + ^ .ra: .cfa -24 + ^ x29: .cfa -32 + ^
STACK CFI 604e0 .cfa: sp 32 +
STACK CFI 604e8 .cfa: sp 0 +
STACK CFI 604ec .cfa: x29 32 +
STACK CFI 604f0 .cfa: sp 32 +
STACK CFI 604f8 .cfa: sp 0 +
STACK CFI INIT 604fc 4c .cfa: sp 0 +
STACK CFI 60500 .cfa: sp 32 +
STACK CFI 60508 .cfa: x29 32 + x19: .cfa -8 + ^ x20: .cfa -16 + ^ .ra: .cfa -24 + ^ x29: .cfa -32 + ^
STACK CFI 60530 .cfa: sp 32 +
STACK CFI 60538 .cfa: sp 0 +
STACK CFI 6053c .cfa: sp 32 +
STACK CFI 60544 .cfa: sp 0 +
STACK CFI INIT 60a30 4 .cfa: sp 0 +
STACK CFI INIT 60a34 48 .cfa: sp 0 +
STACK CFI 60a38 .cfa: sp 32 +
STACK CFI 60a40 .cfa: x29 32 + x19: .cfa -16 + ^ .ra: .cfa -24 + ^ x29: .cfa -32 + ^
STACK CFI 60a70 .cfa: sp 32 +
STACK CFI 60a78 .cfa: sp 0 +
STACK CFI INIT 60a7c 24 .cfa: sp 0 +
STACK CFI 60a80 .cfa: sp 32 +
STACK CFI 60a88 .cfa: x29 32 + x19: .cfa -16 + ^ .ra: .cfa -24 + ^ x29: .cfa -32 + ^
STACK CFI 60a94 .cfa: sp 32 +
STACK CFI 60a9c .cfa: sp 0 +
STACK CFI INIT 60aa0 48 .cfa: sp 0 +
STACK CFI 60aa4 .cfa: sp 32 +
STACK CFI 60aac .cfa: x29 32 + x19: .cfa -16 + ^ .ra: .cfa -24 + ^ x29: .cfa -32 + ^
STACK CFI 60adc .cfa: sp 32 +
STACK CFI 60ae4 .cfa: sp 0 +
STACK CFI INIT 60ae8 20c .cfa: sp 0 +
STACK CFI 60aec .cfa: sp 48 +
STACK CFI 60af8 .cfa: x29 48 + x19: .cfa -8 + ^ x20: .cfa -16 + ^ x21: .cfa -24 + ^ x22: .cfa -32 + ^ .ra: .cfa -40 + ^ x29: .cfa -48 + ^
STACK CFI 60c8c .cfa: sp 48 +
STACK CFI 60c98 .cfa: sp 0 +
STACK CFI 60c9c .cfa: x29 48 +
STACK CFI INIT 60cf4 24 .cfa: sp 0 +
STACK CFI 60cf8 .cfa: sp 32 +
STACK CFI 60d00 .cfa: x29 32 + x19: .cfa -16 + ^ .ra: .cfa -24 + ^ x29: .cfa -32 + ^
STACK CFI 60d0c .cfa: sp 32 +
STACK CFI 60d14 .cfa: sp 0 +
STACK CFI INIT 60d68 30 .cfa: sp 0 +
STACK CFI 60d6c .cfa: sp 32 +
STACK CFI 60d74 .cfa: x29 32 + x19: .cfa -16 + ^ .ra: .cfa -24 + ^ x29: .cfa -32 + ^
STACK CFI 60d8c .cfa: sp 32 +
STACK CFI 60d94 .cfa: sp 0 +
STACK CFI INIT 60ed4 14 .cfa: sp 0 +
STACK CFI 60ed8 .cfa: sp 16 +
STACK CFI 60edc .cfa: x29 16 + .ra: .cfa -8 + ^ x29: .cfa -16 + ^
STACK CFI INIT 60ee8 4 .cfa: sp 0 +
STACK CFI INIT 61034 48 .cfa: sp 0 +
STACK CFI 61038 .cfa: sp 32 +
STACK CFI 61040 .cfa: x29 32 + x19: .cfa -16 + ^ .ra: .cfa -24 + ^ x29: .cfa -32 + ^
STACK CFI 61070 .cfa: sp 32 +
STACK CFI 61078 .cfa: sp 0 +
STACK CFI INIT 61240 54 .cfa: sp 0 +
STACK CFI 61244 .cfa: sp 32 +
STACK CFI 6124c .cfa: x29 32 + x19: .cfa -8 + ^ x20: .cfa -16 + ^ .ra: .cfa -24 + ^ x29: .cfa -32 + ^
STACK CFI 6127c .cfa: sp 32 +
STACK CFI 61284 .cfa: sp 0 +
STACK CFI 61288 .cfa: sp 32 +
STACK CFI 61290 .cfa: sp 0 +
STACK CFI INIT 61294 14 .cfa: sp 0 +
STACK CFI 61298 .cfa: sp 16 +
STACK CFI 6129c .cfa: x29 16 + .ra: .cfa -8 + ^ x29: .cfa -16 + ^
STACK CFI INIT 61588 7c .cfa: sp 0 +
STACK CFI 6158c .cfa: sp 48 +
STACK CFI 61598 .cfa: x29 48 + x19: .cfa -8 + ^ x20: .cfa -16 + ^ x21: .cfa -24 + ^ x22: .cfa -32 + ^ .ra: .cfa -40 + ^ x29: .cfa -48 + ^
STACK CFI 615a0 .cfa: sp 48 +
STACK CFI 615ac .cfa: sp 0 +
STACK CFI 615b0 .cfa: x29 48 +
STACK CFI 615f4 .cfa: sp 48 +
STACK CFI 61600 .cfa: sp 0 +
STACK CFI INIT 61604 374 .cfa: sp 0 +
STACK CFI 61608 .cfa: sp 80 +
STACK CFI 6161c .cfa: x29 80 + x19: .cfa -8 + ^ x20: .cfa -16 + ^ x21: .cfa -24 + ^ x22: .cfa -32 + ^ x23: .cfa -40 + ^ x24: .cfa -48 + ^ x25: .cfa -56 + ^ x26: .cfa -64 + ^ .ra: .cfa -72 + ^ x29: .cfa -80 + ^
STACK CFI 6195c .cfa: sp 80 +
STACK CFI 61970 .cfa: sp 0 +
STACK CFI 61974 .cfa: x29 80 +
STACK CFI INIT 61978 204 .cfa: sp 0 +
STACK CFI INIT 61b7c 74 .cfa: sp 0 +
STACK CFI 61b80 .cfa: sp 48 +
STACK CFI 61b8c .cfa: x29 48 + x19: .cfa -8 + ^ x20: .cfa -16 + ^ x21: .cfa -32 + ^ .ra: .cfa -40 + ^ x29: .cfa -48 + ^
STACK CFI 61bd0 .cfa: sp 48 +
STACK CFI 61bdc .cfa: sp 0 +
STACK CFI 61be0 .cfa: sp 48 +
STACK CFI 61bec .cfa: sp 0 +
STACK CFI INIT 61d38 14 .cfa: sp 0 +
STACK CFI 61d3c .cfa: sp 16 +
STACK CFI 61d40 .cfa: x29 16 + .ra: .cfa -8 + ^ x29: .cfa -16 + ^
STACK CFI INIT 61d4c 2bc .cfa: sp 0 +
STACK CFI 61d50 .cfa: sp 48 +
STACK CFI 61d5c .cfa: x29 48 + x19: .cfa -8 + ^ x20: .cfa -16 + ^ x21: .cfa -24 + ^ x22: .cfa -32 + ^ .ra: .cfa -40 + ^ x29: .cfa -48 + ^
STACK CFI 61fdc .cfa: sp 48 +
STACK CFI 61fe8 .cfa: sp 0 +
STACK CFI 61fec .cfa: x29 48 +
STACK CFI INIT 6226c 54 .cfa: sp 0 +
STACK CFI 62270 .cfa: sp 32 +
STACK CFI 62278 .cfa: x29 32 + x19: .cfa -8 + ^ x20: .cfa -16 + ^ .ra: .cfa -24 + ^ x29: .cfa -32 + ^
STACK CFI 622a8 .cfa: sp 32 +
STACK CFI 622b0 .cfa: sp 0 +
STACK CFI 622b4 .cfa: sp 32 +
STACK CFI 622bc .cfa: sp 0 +
STACK CFI INIT 622c0 14 .cfa: sp 0 +
STACK CFI 622c4 .cfa: sp 16 +
STACK CFI 622c8 .cfa: x29 16 + .ra: .cfa -8 + ^ x29: .cfa -16 + ^
STACK CFI INIT 62440 8c .cfa: sp 0 +
STACK CFI 62444 .cfa: sp 48 +
STACK CFI 62450 .cfa: x29 48 + x19: .cfa -8 + ^ x20: .cfa -16 + ^ x21: .cfa -24 + ^ x22: .cfa -32 + ^ .ra: .cfa -40 + ^ x29: .cfa -48 + ^
STACK CFI 62458 .cfa: sp 48 +
STACK CFI 62464 .cfa: sp 0 +
STACK CFI 62468 .cfa: x29 48 +
STACK CFI 624bc .cfa: sp 48 +
STACK CFI 624c8 .cfa: sp 0 +
STACK CFI INIT 624cc 14 .cfa: sp 0 +
STACK CFI 624d0 .cfa: sp 16 +
STACK CFI 624d4 .cfa: x29 16 + .ra: .cfa -8 + ^ x29: .cfa -16 + ^
STACK CFI INIT 624e0 60 .cfa: sp 0 +
STACK CFI 624f0 .cfa: sp 32 +
STACK CFI 624f8 .cfa: x29 32 + x19: .cfa -8 + ^ x20: .cfa -16 + ^ .ra: .cfa -24 + ^ x29: .cfa -32 + ^
STACK CFI 62534 .cfa: sp 32 +
STACK CFI 6253c .cfa: sp 0 +
STACK CFI INIT 62540 20c .cfa: sp 0 +
STACK CFI 62544 .cfa: sp 80 +
STACK CFI 62558 .cfa: x29 80 + x19: .cfa -8 + ^ x20: .cfa -16 + ^ x21: .cfa -24 + ^ x22: .cfa -32 + ^ x23: .cfa -40 + ^ x24: .cfa -48 + ^ x25: .cfa -64 + ^ .ra: .cfa -72 + ^ x29: .cfa -80 + ^
STACK CFI 62730 .cfa: sp 80 +
STACK CFI 62744 .cfa: sp 0 +
STACK CFI 62748 .cfa: x29 80 +
STACK CFI INIT 6274c 68 .cfa: sp 0 +
STACK CFI 62750 .cfa: sp 32 +
STACK CFI 62758 .cfa: x29 32 + x19: .cfa -8 + ^ x20: .cfa -16 + ^ .ra: .cfa -24 + ^ x29: .cfa -32 + ^
STACK CFI 62770 .cfa: sp 32 +
STACK CFI 62778 .cfa: sp 0 +
STACK CFI 6277c .cfa: x29 32 +
STACK CFI 627a8 .cfa: sp 32 +
STACK CFI 627b0 .cfa: sp 0 +
STACK CFI INIT 627b4 ac .cfa: sp 0 +
STACK CFI 627b8 .cfa: sp 64 +
STACK CFI 627c8 .cfa: x29 64 + x19: .cfa -8 + ^ x20: .cfa -16 + ^ x21: .cfa -24 + ^ x22: .cfa -32 + ^ x23: .cfa -48 + ^ .ra: .cfa -56 + ^ x29: .cfa -64 + ^
STACK CFI 62844 .cfa: sp 64 +
STACK CFI 62854 .cfa: sp 0 +
STACK CFI 62858 .cfa: x29 64 +
STACK CFI INIT 62860 110 .cfa: sp 0 +
STACK CFI 62864 .cfa: sp 64 +
STACK CFI 62874 .cfa: x29 64 + x19: .cfa -8 + ^ x20: .cfa -16 + ^ x21: .cfa -24 + ^ x22: .cfa -32 + ^ x23: .cfa -40 + ^ x24: .cfa -48 + ^ .ra: .cfa -56 + ^ x29: .cfa -64 + ^
STACK CFI 62954 .cfa: sp 64 +
STACK CFI 62964 .cfa: sp 0 +
STACK CFI 62968 .cfa: x29 64 +
STACK CFI INIT 62c20 14 .cfa: sp 0 +
STACK CFI 62c24 .cfa: sp 16 +
STACK CFI 62c28 .cfa: x29 16 + .ra: .cfa -8 + ^ x29: .cfa -16 + ^
STACK CFI INIT 62d70 4c .cfa: sp 0 +
STACK CFI 62d74 .cfa: sp 32 +
STACK CFI 62d7c .cfa: x29 32 + x19: .cfa -8 + ^ x20: .cfa -16 + ^ .ra: .cfa -24 + ^ x29: .cfa -32 + ^
STACK CFI 62da4 .cfa: sp 32 +
STACK CFI 62dac .cfa: sp 0 +
STACK CFI 62db0 .cfa: sp 32 +
STACK CFI 62db8 .cfa: sp 0 +
STACK CFI INIT 62dbc 1d8 .cfa: sp 0 +
STACK CFI 62dc0 .cfa: sp 32 +
STACK CFI 62dc8 .cfa: x29 32 + x19: .cfa -8 + ^ x20: .cfa -16 + ^ .ra: .cfa -24 + ^ x29: .cfa -32 + ^
STACK CFI 62e54 .cfa: sp 32 +
STACK CFI 62e5c .cfa: sp 0 +
STACK CFI 62e60 .cfa: x29 32 +
STACK CFI 62e74 .cfa: sp 32 +
STACK CFI 62e7c .cfa: sp 0 +
STACK CFI 62e80 .cfa: x29 32 +
STACK CFI INIT 632b8 44c .cfa: sp 0 +
STACK CFI INIT 63704 20 .cfa: sp 0 +
STACK CFI 63708 .cfa: sp 16 +
STACK CFI 6370c .cfa: x29 16 + .ra: .cfa -8 + ^ x29: .cfa -16 + ^
STACK CFI INIT 63724 4 .cfa: sp 0 +
STACK CFI INIT 63728 4 .cfa: sp 0 +
STACK CFI INIT 6372c 1c .cfa: sp 0 +
STACK CFI INIT 63748 40 .cfa: sp 0 +
STACK CFI 6374c .cfa: sp 32 +
STACK CFI 63754 .cfa: x29 32 + x19: .cfa -16 + ^ .ra: .cfa -24 + ^ x29: .cfa -32 + ^
STACK CFI 6377c .cfa: sp 32 +
STACK CFI 63784 .cfa: sp 0 +
STACK CFI INIT 63828 8c .cfa: sp 0 +
STACK CFI 6382c .cfa: sp 48 +
STACK CFI 63838 .cfa: x29 48 + x19: .cfa -8 + ^ x20: .cfa -16 + ^ x21: .cfa -32 + ^ .ra: .cfa -40 + ^ x29: .cfa -48 + ^
STACK CFI 6385c .cfa: sp 48 +
STACK CFI 63868 .cfa: sp 0 +
STACK CFI 6386c .cfa: x29 48 +
STACK CFI 638a4 .cfa: sp 48 +
STACK CFI 638b0 .cfa: sp 0 +
STACK CFI INIT 638b4 4c .cfa: sp 0 +
STACK CFI 638bc .cfa: sp 32 +
STACK CFI 638c4 .cfa: x29 32 + x19: .cfa -8 + ^ x20: .cfa -16 + ^ .ra: .cfa -24 + ^ x29: .cfa -32 + ^
STACK CFI 638f0 .cfa: sp 32 +
STACK CFI 638f8 .cfa: sp 0 +
STACK CFI INIT 63900 98 .cfa: sp 0 +
STACK CFI 63904 .cfa: sp 48 +
STACK CFI 63910 .cfa: x29 48 + x19: .cfa -8 + ^ x20: .cfa -16 + ^ x21: .cfa -24 + ^ x22: .cfa -32 + ^ .ra: .cfa -40 + ^ x29: .cfa -48 + ^
STACK CFI 63928 .cfa: sp 48 +
STACK CFI 63934 .cfa: sp 0 +
STACK CFI 63938 .cfa: x29 48 +
STACK CFI 63988 .cfa: sp 48 +
STACK CFI 63994 .cfa: sp 0 +
STACK CFI INIT 63998 4 .cfa: sp 0 +
STACK CFI INIT 6399c 34 .cfa: sp 0 +
STACK CFI 639a0 .cfa: sp 32 +
STACK CFI 639a8 .cfa: x29 32 + x19: .cfa -16 + ^ .ra: .cfa -24 + ^ x29: .cfa -32 + ^
STACK CFI 639c4 .cfa: sp 32 +
STACK CFI 639cc .cfa: sp 0 +
STACK CFI INIT 639d0 14 .cfa: sp 0 +
STACK CFI INIT 639e4 4 .cfa: sp 0 +
STACK CFI INIT 639e8 4 .cfa: sp 0 +
STACK CFI INIT 639ec c .cfa: sp 0 +
STACK CFI INIT 639f8 1c .cfa: sp 0 +
STACK CFI INIT 63a14 c .cfa: sp 0 +
STACK CFI INIT 63a20 4 .cfa: sp 0 +
STACK CFI INIT 63a24 4 .cfa: sp 0 +
STACK CFI INIT 63a28 34 .cfa: sp 0 +
STACK CFI 63a2c .cfa: sp 32 +
STACK CFI 63a34 .cfa: x29 32 + x19: .cfa -16 + ^ .ra: .cfa -24 + ^ x29: .cfa -32 + ^
STACK CFI 63a50 .cfa: sp 32 +
STACK CFI 63a58 .cfa: sp 0 +
STACK CFI INIT 63a5c 14 .cfa: sp 0 +
STACK CFI INIT 63a70 4 .cfa: sp 0 +
STACK CFI INIT 63a74 4 .cfa: sp 0 +
STACK CFI INIT 63a78 c .cfa: sp 0 +
STACK CFI INIT 63a84 1c .cfa: sp 0 +
STACK CFI INIT 63aa0 c .cfa: sp 0 +
STACK CFI INIT 64200 7c .cfa: sp 0 +
STACK CFI 64204 .cfa: sp 32 +
STACK CFI 6420c .cfa: x29 32 + x19: .cfa -16 + ^ .ra: .cfa -24 + ^ x29: .cfa -32 + ^
STACK CFI 6423c .cfa: sp 32 +
STACK CFI 64244 .cfa: sp 0 +
STACK CFI 64248 .cfa: x29 32 +
STACK CFI 64270 .cfa: sp 32 +
STACK CFI 64278 .cfa: sp 0 +
STACK CFI INIT 6427c 1d8 .cfa: sp 0 +
STACK CFI 64280 .cfa: sp 32 +
STACK CFI 64288 .cfa: x29 32 + x19: .cfa -8 + ^ x20: .cfa -16 + ^ .ra: .cfa -24 + ^ x29: .cfa -32 + ^
STACK CFI 64314 .cfa: sp 32 +
STACK CFI 6431c .cfa: sp 0 +
STACK CFI 64320 .cfa: x29 32 +
STACK CFI 64334 .cfa: sp 32 +
STACK CFI 6433c .cfa: sp 0 +
STACK CFI 64340 .cfa: x29 32 +
STACK CFI INIT 64924 44 .cfa: sp 0 +
STACK CFI 64928 .cfa: sp 32 +
STACK CFI 64930 .cfa: x29 32 + x19: .cfa -16 + ^ .ra: .cfa -24 + ^ x29: .cfa -32 + ^
STACK CFI 64950 .cfa: sp 32 +
STACK CFI 64958 .cfa: sp 0 +
STACK CFI 6495c .cfa: sp 32 +
STACK CFI 64964 .cfa: sp 0 +
STACK CFI INIT 64968 1d8 .cfa: sp 0 +
STACK CFI 6496c .cfa: sp 32 +
STACK CFI 64974 .cfa: x29 32 + x19: .cfa -8 + ^ x20: .cfa -16 + ^ .ra: .cfa -24 + ^ x29: .cfa -32 + ^
STACK CFI 64a00 .cfa: sp 32 +
STACK CFI 64a08 .cfa: sp 0 +
STACK CFI 64a0c .cfa: x29 32 +
STACK CFI 64a20 .cfa: sp 32 +
STACK CFI 64a28 .cfa: sp 0 +
STACK CFI 64a2c .cfa: x29 32 +
STACK CFI INIT 64d94 134 .cfa: sp 0 +
STACK CFI INIT 6538c 58 .cfa: sp 0 +
STACK CFI 65390 .cfa: sp 32 +
STACK CFI 65398 .cfa: x29 32 + x19: .cfa -16 + ^ .ra: .cfa -24 + ^ x29: .cfa -32 + ^
STACK CFI 653cc .cfa: sp 32 +
STACK CFI 653d4 .cfa: sp 0 +
STACK CFI 653d8 .cfa: sp 32 +
STACK CFI 653e0 .cfa: sp 0 +
STACK CFI INIT 653e4 1d8 .cfa: sp 0 +
STACK CFI 653e8 .cfa: sp 32 +
STACK CFI 653f0 .cfa: x29 32 + x19: .cfa -8 + ^ x20: .cfa -16 + ^ .ra: .cfa -24 + ^ x29: .cfa -32 + ^
STACK CFI 6547c .cfa: sp 32 +
STACK CFI 65484 .cfa: sp 0 +
STACK CFI 65488 .cfa: x29 32 +
STACK CFI 6549c .cfa: sp 32 +
STACK CFI 654a4 .cfa: sp 0 +
STACK CFI 654a8 .cfa: x29 32 +
STACK CFI INIT 65710 44 .cfa: sp 0 +
STACK CFI 65714 .cfa: sp 32 +
STACK CFI 6571c .cfa: x29 32 + x19: .cfa -16 + ^ .ra: .cfa -24 + ^ x29: .cfa -32 + ^
STACK CFI 6573c .cfa: sp 32 +
STACK CFI 65744 .cfa: sp 0 +
STACK CFI 65748 .cfa: sp 32 +
STACK CFI 65750 .cfa: sp 0 +
STACK CFI INIT 659a8 134 .cfa: sp 0 +
STACK CFI INIT 66550 128 .cfa: sp 0 +
STACK CFI 66554 .cfa: sp 96 +
STACK CFI 6656c .cfa: x29 96 + x19: .cfa -8 + ^ x20: .cfa -16 + ^ x21: .cfa -24 + ^ x22: .cfa -32 + ^ x23: .cfa -40 + ^ x24: .cfa -48 + ^ x25: .cfa -56 + ^ x26: .cfa -64 + ^ x27: .cfa -80 + ^ .ra: .cfa -88 + ^ x29: .cfa -96 + ^
STACK CFI 6665c .cfa: sp 96 +
STACK CFI 66674 .cfa: sp 0 +
STACK CFI INIT 66c90 1d8 .cfa: sp 0 +
STACK CFI 66c94 .cfa: sp 32 +
STACK CFI 66c9c .cfa: x29 32 + x19: .cfa -8 + ^ x20: .cfa -16 + ^ .ra: .cfa -24 + ^ x29: .cfa -32 + ^
STACK CFI 66d28 .cfa: sp 32 +
STACK CFI 66d30 .cfa: sp 0 +
STACK CFI 66d34 .cfa: x29 32 +
STACK CFI 66d48 .cfa: sp 32 +
STACK CFI 66d50 .cfa: sp 0 +
STACK CFI 66d54 .cfa: x29 32 +
STACK CFI INIT 66f0c 1c8 .cfa: sp 0 +
STACK CFI 66f10 .cfa: sp 64 +
STACK CFI 66f20 .cfa: x29 64 + x19: .cfa -8 + ^ x20: .cfa -16 + ^ x21: .cfa -24 + ^ x22: .cfa -32 + ^ x23: .cfa -40 + ^ x24: .cfa -48 + ^ .ra: .cfa -56 + ^ x29: .cfa -64 + ^
STACK CFI 670a4 .cfa: sp 64 +
STACK CFI 670b4 .cfa: sp 0 +
STACK CFI 670b8 .cfa: x29 64 +
STACK CFI 670c0 .cfa: sp 64 +
STACK CFI 670d0 .cfa: sp 0 +
STACK CFI INIT 6729c 134 .cfa: sp 0 +
STACK CFI INIT 67f8c 74 .cfa: sp 0 +
STACK CFI 67f90 .cfa: sp 32 +
STACK CFI 67f98 .cfa: x29 32 + x19: .cfa -8 + ^ x20: .cfa -16 + ^ .ra: .cfa -24 + ^ x29: .cfa -32 + ^
STACK CFI 67fe8 .cfa: sp 32 +
STACK CFI 67ff0 .cfa: sp 0 +
STACK CFI 67ff4 .cfa: sp 32 +
STACK CFI 67ffc .cfa: sp 0 +
STACK CFI INIT 68000 1d8 .cfa: sp 0 +
STACK CFI 68004 .cfa: sp 32 +
STACK CFI 6800c .cfa: x29 32 + x19: .cfa -8 + ^ x20: .cfa -16 + ^ .ra: .cfa -24 + ^ x29: .cfa -32 + ^
STACK CFI 68098 .cfa: sp 32 +
STACK CFI 680a0 .cfa: sp 0 +
STACK CFI 680a4 .cfa: x29 32 +
STACK CFI 680b8 .cfa: sp 32 +
STACK CFI 680c0 .cfa: sp 0 +
STACK CFI 680c4 .cfa: x29 32 +
STACK CFI INIT 684fc 140 .cfa: sp 0 +
STACK CFI 68500 .cfa: sp 64 +
STACK CFI 6850c .cfa: x29 32 + x19: .cfa -16 + ^ .ra: .cfa -24 + ^ x29: .cfa -32 + ^
STACK CFI 685fc .cfa: sp 64 +
STACK CFI 68608 .cfa: sp 0 +
STACK CFI 6860c .cfa: x29 32 +
STACK CFI INIT 6863c 134 .cfa: sp 0 +
STACK CFI INIT 68770 ac .cfa: sp 0 +
STACK CFI 68774 .cfa: sp 80 +
STACK CFI 68784 .cfa: x29 48 + x19: .cfa -8 + ^ x20: .cfa -16 + ^ x21: .cfa -24 + ^ x22: .cfa -32 + ^ .ra: .cfa -40 + ^ x29: .cfa -48 + ^
STACK CFI 68804 .cfa: sp 80 +
STACK CFI 68814 .cfa: sp 0 +
STACK CFI 68818 .cfa: x29 48 +
STACK CFI INIT 6881c 134 .cfa: sp 0 +
STACK CFI INIT 68ba4 134 .cfa: sp 0 +
STACK CFI INIT 68cd8 50 .cfa: sp 0 +
STACK CFI 68cfc .cfa: sp 32 +
STACK CFI 68d04 .cfa: x29 32 + x19: .cfa -16 + ^ .ra: .cfa -24 + ^ x29: .cfa -32 + ^
STACK CFI 68d18 .cfa: sp 32 +
STACK CFI 68d20 .cfa: sp 0 +
STACK CFI INIT 69190 1d8 .cfa: sp 0 +
STACK CFI 69194 .cfa: sp 32 +
STACK CFI 6919c .cfa: x29 32 + x19: .cfa -8 + ^ x20: .cfa -16 + ^ .ra: .cfa -24 + ^ x29: .cfa -32 + ^
STACK CFI 69228 .cfa: sp 32 +
STACK CFI 69230 .cfa: sp 0 +
STACK CFI 69234 .cfa: x29 32 +
STACK CFI 69248 .cfa: sp 32 +
STACK CFI 69250 .cfa: sp 0 +
STACK CFI 69254 .cfa: x29 32 +
STACK CFI INIT 69368 4 .cfa: sp 0 +
STACK CFI INIT 69474 44 .cfa: sp 0 +
STACK CFI 6948c .cfa: sp 32 +
STACK CFI 69494 .cfa: x29 32 + x19: .cfa -16 + ^ .ra: .cfa -24 + ^ x29: .cfa -32 + ^
STACK CFI 694ac .cfa: sp 32 +
STACK CFI 694b4 .cfa: sp 0 +
STACK CFI INIT 694b8 48 .cfa: sp 0 +
STACK CFI 694bc .cfa: sp 32 +
STACK CFI 694c4 .cfa: x29 32 + x19: .cfa -16 + ^ .ra: .cfa -24 + ^ x29: .cfa -32 + ^
STACK CFI 694f4 .cfa: sp 32 +
STACK CFI 694fc .cfa: sp 0 +
STACK CFI INIT 69500 4 .cfa: sp 0 +
STACK CFI INIT 69504 4 .cfa: sp 0 +
STACK CFI INIT 69508 c .cfa: sp 0 +
STACK CFI INIT 69514 34 .cfa: sp 0 +
STACK CFI 69518 .cfa: sp 32 +
STACK CFI 69520 .cfa: x29 32 + x19: .cfa -16 + ^ .ra: .cfa -24 + ^ x29: .cfa -32 + ^
STACK CFI 6953c .cfa: sp 32 +
STACK CFI 69544 .cfa: sp 0 +
STACK CFI INIT 69b10 14c .cfa: sp 0 +
STACK CFI 69b14 .cfa: sp 80 +
STACK CFI 69b24 .cfa: x29 32 + x19: .cfa -8 + ^ x20: .cfa -16 + ^ .ra: .cfa -24 + ^ x29: .cfa -32 + ^ v8: .cfa -40 + ^ v9: .cfa -48 + ^
STACK CFI 69be4 .cfa: sp 80 +
STACK CFI 69bf4 .cfa: sp 0 +
STACK CFI 69bf8 .cfa: x29 32 +
STACK CFI INIT 6aa30 148 .cfa: sp 0 +
STACK CFI 6aa34 .cfa: sp 80 +
STACK CFI 6aa48 .cfa: x29 64 + x19: .cfa -8 + ^ x20: .cfa -16 + ^ x21: .cfa -24 + ^ x22: .cfa -32 + ^ x23: .cfa -48 + ^ .ra: .cfa -56 + ^ x29: .cfa -64 + ^
STACK CFI 6ab5c .cfa: sp 80 +
STACK CFI 6ab70 .cfa: sp 0 +
STACK CFI 6ab74 .cfa: x29 64 +
STACK CFI INIT 6b448 14c .cfa: sp 0 +
STACK CFI 6b44c .cfa: sp 80 +
STACK CFI 6b45c .cfa: x29 32 + x19: .cfa -8 + ^ x20: .cfa -16 + ^ .ra: .cfa -24 + ^ x29: .cfa -32 + ^ v8: .cfa -40 + ^ v9: .cfa -48 + ^
STACK CFI 6b51c .cfa: sp 80 +
STACK CFI 6b52c .cfa: sp 0 +
STACK CFI 6b530 .cfa: x29 32 +
STACK CFI INIT 6b594 30 .cfa: sp 0 +
STACK CFI 6b598 .cfa: sp 32 +
STACK CFI 6b5a0 .cfa: x29 32 + x19: .cfa -16 + ^ .ra: .cfa -24 + ^ x29: .cfa -32 + ^
STACK CFI 6b5b8 .cfa: sp 32 +
STACK CFI 6b5c0 .cfa: sp 0 +
STACK CFI INIT 6b6bc 50 .cfa: sp 0 +
STACK CFI 6b6c0 .cfa: sp 32 +
STACK CFI 6b6c8 .cfa: x29 32 + x19: .cfa -16 + ^ .ra: .cfa -24 + ^ x29: .cfa -32 + ^
STACK CFI 6b700 .cfa: sp 32 +
STACK CFI 6b708 .cfa: sp 0 +
STACK CFI INIT 6bd70 22c .cfa: sp 0 +
STACK CFI 6bd74 .cfa: sp 32 +
STACK CFI 6bd7c .cfa: x29 32 + x19: .cfa -8 + ^ x20: .cfa -16 + ^ .ra: .cfa -24 + ^ x29: .cfa -32 + ^
STACK CFI 6bdd8 .cfa: sp 32 +
STACK CFI 6bde0 .cfa: sp 0 +
STACK CFI 6bde4 .cfa: x29 32 +
STACK CFI 6bf3c .cfa: sp 32 +
STACK CFI 6bf44 .cfa: sp 0 +
STACK CFI 6bf48 .cfa: x29 32 +
STACK CFI 6bf70 .cfa: sp 32 +
STACK CFI 6bf78 .cfa: sp 0 +
STACK CFI 6bf7c .cfa: x29 32 +
STACK CFI 6bf90 .cfa: sp 32 +
STACK CFI 6bf98 .cfa: sp 0 +
STACK CFI INIT 6c30c 60 .cfa: sp 0 +
STACK CFI 6c310 .cfa: sp 32 +
STACK CFI 6c318 .cfa: x29 32 + x19: .cfa -8 + ^ x20: .cfa -16 + ^ .ra: .cfa -24 + ^ x29: .cfa -32 + ^
STACK CFI 6c360 .cfa: sp 32 +
STACK CFI 6c368 .cfa: sp 0 +
STACK CFI INIT 6c36c 10 .cfa: sp 0 +
STACK CFI INIT 6c37c 54 .cfa: sp 0 +
STACK CFI 6c380 .cfa: sp 32 +
STACK CFI 6c388 .cfa: x29 32 + x19: .cfa -16 + ^ .ra: .cfa -24 + ^ x29: .cfa -32 + ^
STACK CFI 6c3c4 .cfa: sp 32 +
STACK CFI 6c3cc .cfa: sp 0 +
STACK CFI INIT 6c3d0 48 .cfa: sp 0 +
STACK CFI 6c3d4 .cfa: sp 32 +
STACK CFI 6c3dc .cfa: x29 32 + x19: .cfa -16 + ^ .ra: .cfa -24 + ^ x29: .cfa -32 + ^
STACK CFI 6c40c .cfa: sp 32 +
STACK CFI 6c414 .cfa: sp 0 +
STACK CFI INIT 6db90 14c .cfa: sp 0 +
STACK CFI 6db94 .cfa: sp 80 +
STACK CFI 6dba4 .cfa: x29 32 + x19: .cfa -8 + ^ x20: .cfa -16 + ^ .ra: .cfa -24 + ^ x29: .cfa -32 + ^ v8: .cfa -40 + ^ v9: .cfa -48 + ^
STACK CFI 6dc64 .cfa: sp 80 +
STACK CFI 6dc74 .cfa: sp 0 +
STACK CFI 6dc78 .cfa: x29 32 +
STACK CFI INIT 6e3e0 8 .cfa: sp 0 +
STACK CFI INIT 6e3e8 3c .cfa: sp 0 +
STACK CFI 6e3ec .cfa: sp 32 +
STACK CFI 6e3f4 .cfa: x29 32 + x19: .cfa -8 + ^ x20: .cfa -16 + ^ .ra: .cfa -24 + ^ x29: .cfa -32 + ^
STACK CFI 6e418 .cfa: sp 32 +
STACK CFI 6e420 .cfa: sp 0 +
STACK CFI INIT 6e7c8 24 .cfa: sp 0 +
STACK CFI 6e7cc .cfa: sp 32 +
STACK CFI 6e7d4 .cfa: x29 32 + x19: .cfa -16 + ^ .ra: .cfa -24 + ^ x29: .cfa -32 + ^
STACK CFI 6e7e0 .cfa: sp 32 +
STACK CFI 6e7e8 .cfa: sp 0 +
STACK CFI INIT 6e7ec 2c .cfa: sp 0 +
STACK CFI 6e7f0 .cfa: sp 32 +
STACK CFI 6e7f8 .cfa: x29 32 + x19: .cfa -16 + ^ .ra: .cfa -24 + ^ x29: .cfa -32 + ^
STACK CFI 6e80c .cfa: sp 32 +
STACK CFI 6e814 .cfa: sp 0 +
STACK CFI INIT 6e818 28 .cfa: sp 0 +
STACK CFI INIT 6e840 4 .cfa: sp 0 +
STACK CFI INIT 6e844 8 .cfa: sp 0 +
STACK CFI INIT 6e84c 50 .cfa: sp 0 +
STACK CFI 6e850 .cfa: sp 32 +
STACK CFI 6e858 .cfa: x29 32 + x19: .cfa -16 + ^ .ra: .cfa -24 + ^ x29: .cfa -32 + ^
STACK CFI 6e890 .cfa: sp 32 +
STACK CFI 6e898 .cfa: sp 0 +
STACK CFI INIT 6e89c 8 .cfa: sp 0 +
STACK CFI INIT 6e8a4 28 .cfa: sp 0 +
STACK CFI 6e8a8 .cfa: sp 32 +
STACK CFI 6e8b0 .cfa: x29 32 + x19: .cfa -16 + ^ .ra: .cfa -24 + ^ x29: .cfa -32 + ^
STACK CFI 6e8c0 .cfa: sp 32 +
STACK CFI 6e8c8 .cfa: sp 0 +
STACK CFI INIT 6e8cc 2c .cfa: sp 0 +
STACK CFI INIT 6e8f8 4 .cfa: sp 0 +
STACK CFI INIT 6e8fc 4 .cfa: sp 0 +
STACK CFI INIT 6e900 4 .cfa: sp 0 +
STACK CFI INIT 6e904 4 .cfa: sp 0 +
STACK CFI INIT 6e908 4 .cfa: sp 0 +
STACK CFI INIT 6e90c 8 .cfa: sp 0 +
STACK CFI INIT 6ea8c 2c .cfa: sp 0 +
STACK CFI 6ea90 .cfa: sp 32 +
STACK CFI 6ea98 .cfa: x29 32 + x19: .cfa -16 + ^ .ra: .cfa -24 + ^ x29: .cfa -32 + ^
STACK CFI 6eaac .cfa: sp 32 +
STACK CFI 6eab4 .cfa: sp 0 +
STACK CFI INIT 6eab8 28 .cfa: sp 0 +
STACK CFI INIT 6ec60 2c .cfa: sp 0 +
STACK CFI INIT 6edac 24 .cfa: sp 0 +
STACK CFI 6edb0 .cfa: sp 32 +
STACK CFI 6edb8 .cfa: x29 32 + x19: .cfa -16 + ^ .ra: .cfa -24 + ^ x29: .cfa -32 + ^
STACK CFI 6edc4 .cfa: sp 32 +
STACK CFI 6edcc .cfa: sp 0 +
STACK CFI INIT 6edd0 2c .cfa: sp 0 +
STACK CFI 6edd4 .cfa: sp 32 +
STACK CFI 6eddc .cfa: x29 32 + x19: .cfa -16 + ^ .ra: .cfa -24 + ^ x29: .cfa -32 + ^
STACK CFI 6edf0 .cfa: sp 32 +
STACK CFI 6edf8 .cfa: sp 0 +
STACK CFI INIT 6edfc 28 .cfa: sp 0 +
STACK CFI INIT 6ee24 50 .cfa: sp 0 +
STACK CFI 6ee28 .cfa: sp 32 +
STACK CFI 6ee30 .cfa: x29 32 + x19: .cfa -16 + ^ .ra: .cfa -24 + ^ x29: .cfa -32 + ^
STACK CFI 6ee68 .cfa: sp 32 +
STACK CFI 6ee70 .cfa: sp 0 +
STACK CFI INIT 6ee74 8 .cfa: sp 0 +
STACK CFI INIT 6ee7c 28 .cfa: sp 0 +
STACK CFI 6ee80 .cfa: sp 32 +
STACK CFI 6ee88 .cfa: x29 32 + x19: .cfa -16 + ^ .ra: .cfa -24 + ^ x29: .cfa -32 + ^
STACK CFI 6ee98 .cfa: sp 32 +
STACK CFI 6eea0 .cfa: sp 0 +
STACK CFI INIT 6eea4 2c .cfa: sp 0 +
STACK CFI INIT 6f078 4 .cfa: sp 0 +
STACK CFI INIT 6f0e8 4 .cfa: sp 0 +
STACK CFI INIT 6f0ec 4 .cfa: sp 0 +
STACK CFI INIT 6f0f0 1c .cfa: sp 0 +
STACK CFI INIT 6f10c 40 .cfa: sp 0 +
STACK CFI 6f110 .cfa: sp 32 +
STACK CFI 6f118 .cfa: x29 32 + x19: .cfa -16 + ^ .ra: .cfa -24 + ^ x29: .cfa -32 + ^
STACK CFI 6f140 .cfa: sp 32 +
STACK CFI 6f148 .cfa: sp 0 +
STACK CFI INIT 6f1b8 4 .cfa: sp 0 +
STACK CFI INIT 6f228 4 .cfa: sp 0 +
STACK CFI INIT 6f554 34 .cfa: sp 0 +
STACK CFI 6f558 .cfa: sp 16 +
STACK CFI 6f55c .cfa: x29 16 + .ra: .cfa -8 + ^ x29: .cfa -16 + ^
STACK CFI INIT 6f588 34 .cfa: sp 0 +
STACK CFI 6f58c .cfa: sp 32 +
STACK CFI 6f594 .cfa: x29 32 + x19: .cfa -16 + ^ .ra: .cfa -24 + ^ x29: .cfa -32 + ^
STACK CFI 6f5b0 .cfa: sp 32 +
STACK CFI 6f5b8 .cfa: sp 0 +
STACK CFI INIT 6f5bc 3c .cfa: sp 0 +
STACK CFI 6f5c0 .cfa: sp 32 +
STACK CFI 6f5c8 .cfa: x29 32 + x19: .cfa -16 + ^ .ra: .cfa -24 + ^ x29: .cfa -32 + ^
STACK CFI 6f5ec .cfa: sp 32 +
STACK CFI 6f5f4 .cfa: sp 0 +
STACK CFI INIT 6f5f8 14 .cfa: sp 0 +
STACK CFI 6f5fc .cfa: sp 16 +
STACK CFI 6f600 .cfa: x29 16 + .ra: .cfa -8 + ^ x29: .cfa -16 + ^
STACK CFI INIT 6fa84 24 .cfa: sp 0 +
STACK CFI 6fa88 .cfa: sp 32 +
STACK CFI 6fa90 .cfa: x29 32 + x19: .cfa -16 + ^ .ra: .cfa -24 + ^ x29: .cfa -32 + ^
STACK CFI 6fa9c .cfa: sp 32 +
STACK CFI 6faa4 .cfa: sp 0 +
STACK CFI INIT 6fc4c 14 .cfa: sp 0 +
STACK CFI 6fc50 .cfa: sp 16 +
STACK CFI 6fc54 .cfa: x29 16 + .ra: .cfa -8 + ^ x29: .cfa -16 + ^
STACK CFI INIT 6fe38 4 .cfa: sp 0 +
STACK CFI INIT 6fea8 4 .cfa: sp 0 +
STACK CFI INIT 6ffa8 4 .cfa: sp 0 +
STACK CFI INIT 6ffac 4 .cfa: sp 0 +
STACK CFI INIT 6ffb0 1c .cfa: sp 0 +
STACK CFI INIT 6ffcc 40 .cfa: sp 0 +
STACK CFI 6ffd0 .cfa: sp 32 +
STACK CFI 6ffd8 .cfa: x29 32 + x19: .cfa -16 + ^ .ra: .cfa -24 + ^ x29: .cfa -32 + ^
STACK CFI 70000 .cfa: sp 32 +
STACK CFI 70008 .cfa: sp 0 +
STACK CFI INIT 7000c 4 .cfa: sp 0 +
STACK CFI INIT 70118 58 .cfa: sp 0 +
STACK CFI 7011c .cfa: sp 32 +
STACK CFI 70124 .cfa: x29 32 + x19: .cfa -16 + ^ .ra: .cfa -24 + ^ x29: .cfa -32 + ^
STACK CFI 70164 .cfa: sp 32 +
STACK CFI 7016c .cfa: sp 0 +
STACK CFI INIT 70170 60 .cfa: sp 0 +
STACK CFI 70174 .cfa: sp 32 +
STACK CFI 7017c .cfa: x29 32 + x19: .cfa -16 + ^ .ra: .cfa -24 + ^ x29: .cfa -32 + ^
STACK CFI 701c4 .cfa: sp 32 +
STACK CFI 701cc .cfa: sp 0 +
STACK CFI INIT 701d0 300 .cfa: sp 0 +
STACK CFI 701d4 .cfa: sp 144 +
STACK CFI 701f0 .cfa: x29 80 + x19: .cfa -8 + ^ x20: .cfa -16 + ^ x21: .cfa -24 + ^ x22: .cfa -32 + ^ x23: .cfa -40 + ^ x24: .cfa -48 + ^ x25: .cfa -64 + ^ .ra: .cfa -72 + ^ x29: .cfa -80 + ^ v8: .cfa -88 + ^ v9: .cfa -96 + ^
STACK CFI 704ac .cfa: sp 144 +
STACK CFI 704c8 .cfa: sp 0 +
STACK CFI 704cc .cfa: x29 80 +
STACK CFI INIT 704d0 4 .cfa: sp 0 +
STACK CFI INIT 704d4 34 .cfa: sp 0 +
STACK CFI 704d8 .cfa: sp 32 +
STACK CFI 704e0 .cfa: x29 32 + x19: .cfa -16 + ^ .ra: .cfa -24 + ^ x29: .cfa -32 + ^
STACK CFI 704fc .cfa: sp 32 +
STACK CFI 70504 .cfa: sp 0 +
STACK CFI INIT 70508 14 .cfa: sp 0 +
STACK CFI INIT 7051c 4 .cfa: sp 0 +
STACK CFI INIT 70520 4 .cfa: sp 0 +
STACK CFI INIT 70524 2a0 .cfa: sp 0 +
STACK CFI 70528 .cfa: sp 64 +
STACK CFI 70530 .cfa: x29 16 + .ra: .cfa -8 + ^ x29: .cfa -16 + ^
STACK CFI 70678 .cfa: sp 64 +
STACK CFI 70680 .cfa: sp 0 +
STACK CFI 70684 .cfa: x29 16 +
STACK CFI INIT 707c4 1c .cfa: sp 0 +
STACK CFI INIT 707e0 c .cfa: sp 0 +
STACK CFI INIT 707ec 4 .cfa: sp 0 +
STACK CFI INIT 707f0 4 .cfa: sp 0 +
STACK CFI INIT 707f4 34 .cfa: sp 0 +
STACK CFI 707f8 .cfa: sp 32 +
STACK CFI 70800 .cfa: x29 32 + x19: .cfa -16 + ^ .ra: .cfa -24 + ^ x29: .cfa -32 + ^
STACK CFI 7081c .cfa: sp 32 +
STACK CFI 70824 .cfa: sp 0 +
STACK CFI INIT 70828 14 .cfa: sp 0 +
STACK CFI INIT 7083c 4 .cfa: sp 0 +
STACK CFI INIT 70840 4 .cfa: sp 0 +
STACK CFI INIT 70844 2a0 .cfa: sp 0 +
STACK CFI 70848 .cfa: sp 64 +
STACK CFI 70850 .cfa: x29 16 + .ra: .cfa -8 + ^ x29: .cfa -16 + ^
STACK CFI 70998 .cfa: sp 64 +
STACK CFI 709a0 .cfa: sp 0 +
STACK CFI 709a4 .cfa: x29 16 +
STACK CFI INIT 70ae4 1c .cfa: sp 0 +
STACK CFI INIT 70b00 c .cfa: sp 0 +
STACK CFI INIT 70b0c 310 .cfa: sp 0 +
STACK CFI 70b10 .cfa: sp 128 +
STACK CFI 70b28 .cfa: x29 64 + x19: .cfa -8 + ^ x20: .cfa -16 + ^ x21: .cfa -24 + ^ x22: .cfa -32 + ^ x23: .cfa -40 + ^ x24: .cfa -48 + ^ .ra: .cfa -56 + ^ x29: .cfa -64 + ^ v8: .cfa -72 + ^ v9: .cfa -80 + ^
STACK CFI 70d60 .cfa: sp 128 +
STACK CFI 70d78 .cfa: sp 0 +
STACK CFI 70d7c .cfa: x29 64 +
STACK CFI INIT 70e1c 4 .cfa: sp 0 +
STACK CFI INIT 70ed8 34 .cfa: sp 0 +
STACK CFI 70edc .cfa: sp 32 +
STACK CFI 70ee4 .cfa: x29 32 + x19: .cfa -16 + ^ .ra: .cfa -24 + ^ x29: .cfa -32 + ^
STACK CFI 70f00 .cfa: sp 32 +
STACK CFI 70f08 .cfa: sp 0 +
STACK CFI INIT 70f0c 4 .cfa: sp 0 +
STACK CFI INIT 70f10 4 .cfa: sp 0 +
STACK CFI INIT 7106c 34 .cfa: sp 0 +
STACK CFI 71070 .cfa: sp 32 +
STACK CFI 71078 .cfa: x29 32 + x19: .cfa -16 + ^ .ra: .cfa -24 + ^ x29: .cfa -32 + ^
STACK CFI 71094 .cfa: sp 32 +
STACK CFI 7109c .cfa: sp 0 +
STACK CFI INIT 710a0 304 .cfa: sp 0 +
STACK CFI 710a4 .cfa: sp 128 +
STACK CFI 710bc .cfa: x29 64 + x19: .cfa -8 + ^ x20: .cfa -16 + ^ x21: .cfa -24 + ^ x22: .cfa -32 + ^ x23: .cfa -48 + ^ .ra: .cfa -56 + ^ x29: .cfa -64 + ^ v8: .cfa -72 + ^ v9: .cfa -80 + ^
STACK CFI 712ec .cfa: sp 128 +
STACK CFI 71304 .cfa: sp 0 +
STACK CFI 71308 .cfa: x29 64 +
STACK CFI INIT 714c4 8 .cfa: sp 0 +
STACK CFI INIT 714cc 8 .cfa: sp 0 +
STACK CFI INIT 714d4 10 .cfa: sp 0 +
STACK CFI INIT 714e4 84 .cfa: sp 0 +
STACK CFI 714ec .cfa: sp 32 +
STACK CFI 714f4 .cfa: x29 32 + x19: .cfa -16 + ^ .ra: .cfa -24 + ^ x29: .cfa -32 + ^
STACK CFI 71544 .cfa: sp 32 +
STACK CFI 7154c .cfa: sp 0 +
STACK CFI 71558 .cfa: x29 32 +
STACK CFI 7155c .cfa: sp 32 +
STACK CFI 71564 .cfa: sp 0 +
STACK CFI INIT 71764 50 .cfa: sp 0 +
STACK CFI 71768 .cfa: sp 32 +
STACK CFI 71770 .cfa: x29 32 + x19: .cfa -16 + ^ .ra: .cfa -24 + ^ x29: .cfa -32 + ^
STACK CFI 717a8 .cfa: sp 32 +
STACK CFI 717b0 .cfa: sp 0 +
STACK CFI INIT 71904 24 .cfa: sp 0 +
STACK CFI 71908 .cfa: sp 32 +
STACK CFI 71910 .cfa: x29 32 + x19: .cfa -16 + ^ .ra: .cfa -24 + ^ x29: .cfa -32 + ^
STACK CFI 7191c .cfa: sp 32 +
STACK CFI 71924 .cfa: sp 0 +
STACK CFI INIT 758f4 1c .cfa: sp 0 +
STACK CFI INIT 75910 1c .cfa: sp 0 +
STACK CFI INIT 75efc 4 .cfa: sp 0 +
STACK CFI INIT 75f00 10 .cfa: sp 0 +
STACK CFI INIT 76148 8c .cfa: sp 0 +
STACK CFI 7614c .cfa: sp 32 +
STACK CFI 76154 .cfa: x29 32 + x19: .cfa -16 + ^ .ra: .cfa -24 + ^ x29: .cfa -32 + ^
STACK CFI 761c8 .cfa: sp 32 +
STACK CFI 761d0 .cfa: sp 0 +
STACK CFI INIT 76500 4 .cfa: sp 0 +
STACK CFI INIT 76504 f0 .cfa: sp 0 +
STACK CFI 76508 .cfa: sp 48 +
STACK CFI 76514 .cfa: x29 48 + x19: .cfa -8 + ^ x20: .cfa -16 + ^ x21: .cfa -24 + ^ x22: .cfa -32 + ^ .ra: .cfa -40 + ^ x29: .cfa -48 + ^
STACK CFI 765c4 .cfa: sp 48 +
STACK CFI 765d0 .cfa: sp 0 +
STACK CFI 765d4 .cfa: x29 48 +
STACK CFI 765e4 .cfa: sp 48 +
STACK CFI 765f0 .cfa: sp 0 +
STACK CFI INIT 765f4 34 .cfa: sp 0 +
STACK CFI 765f8 .cfa: sp 32 +
STACK CFI 76600 .cfa: x29 32 + x19: .cfa -16 + ^ .ra: .cfa -24 + ^ x29: .cfa -32 + ^
STACK CFI 7661c .cfa: sp 32 +
STACK CFI 76624 .cfa: sp 0 +
STACK CFI INIT 76888 4 .cfa: sp 0 +
STACK CFI INIT 7688c 48 .cfa: sp 0 +
STACK CFI 76890 .cfa: sp 32 +
STACK CFI 76898 .cfa: x29 32 + x19: .cfa -16 + ^ .ra: .cfa -24 + ^ x29: .cfa -32 + ^
STACK CFI 768b8 .cfa: sp 32 +
STACK CFI 768c0 .cfa: sp 0 +
STACK CFI 768c4 .cfa: x29 32 +
STACK CFI 768c8 .cfa: sp 32 +
STACK CFI 768d0 .cfa: sp 0 +
STACK CFI INIT 768d4 34 .cfa: sp 0 +
STACK CFI 768d8 .cfa: sp 32 +
STACK CFI 768e0 .cfa: x29 32 + x19: .cfa -16 + ^ .ra: .cfa -24 + ^ x29: .cfa -32 + ^
STACK CFI 768fc .cfa: sp 32 +
STACK CFI 76904 .cfa: sp 0 +
STACK CFI INIT 76b68 4 .cfa: sp 0 +
STACK CFI INIT 76b6c 7c .cfa: sp 0 +
STACK CFI 76b70 .cfa: sp 32 +
STACK CFI 76b78 .cfa: x29 32 + x19: .cfa -16 + ^ .ra: .cfa -24 + ^ x29: .cfa -32 + ^
STACK CFI 76bb0 .cfa: sp 32 +
STACK CFI 76bb8 .cfa: sp 0 +
STACK CFI 76bbc .cfa: x29 32 +
STACK CFI 76bc0 .cfa: sp 32 +
STACK CFI 76bc8 .cfa: sp 0 +
STACK CFI 76bcc .cfa: x29 32 +
STACK CFI 76bdc .cfa: sp 32 +
STACK CFI 76be4 .cfa: sp 0 +
STACK CFI INIT 76be8 34 .cfa: sp 0 +
STACK CFI 76bec .cfa: sp 32 +
STACK CFI 76bf4 .cfa: x29 32 + x19: .cfa -16 + ^ .ra: .cfa -24 + ^ x29: .cfa -32 + ^
STACK CFI 76c10 .cfa: sp 32 +
STACK CFI 76c18 .cfa: sp 0 +
STACK CFI INIT 77278 4 .cfa: sp 0 +
STACK CFI INIT 7727c 3c .cfa: sp 0 +
STACK CFI 77280 .cfa: sp 32 +
STACK CFI 77288 .cfa: x29 32 + x19: .cfa -16 + ^ .ra: .cfa -24 + ^ x29: .cfa -32 + ^
STACK CFI 772ac .cfa: sp 32 +
STACK CFI 772b4 .cfa: sp 0 +
STACK CFI INIT 77388 4 .cfa: sp 0 +
STACK CFI INIT 77a98 34 .cfa: sp 0 +
STACK CFI 77a9c .cfa: sp 32 +
STACK CFI 77aa4 .cfa: x29 32 + x19: .cfa -16 + ^ .ra: .cfa -24 + ^ x29: .cfa -32 + ^
STACK CFI 77ac0 .cfa: sp 32 +
STACK CFI 77ac8 .cfa: sp 0 +
STACK CFI INIT 7847c 40 .cfa: sp 0 +
STACK CFI INIT 784bc 50 .cfa: sp 0 +
STACK CFI 784c0 .cfa: sp 32 +
STACK CFI 784c8 .cfa: x29 32 + x19: .cfa -16 + ^ .ra: .cfa -24 + ^ x29: .cfa -32 + ^
STACK CFI 78500 .cfa: sp 32 +
STACK CFI 78508 .cfa: sp 0 +
STACK CFI INIT 7850c 84 .cfa: sp 0 +
STACK CFI 78510 .cfa: sp 48 +
STACK CFI 7851c .cfa: x29 32 + x19: .cfa -8 + ^ x20: .cfa -16 + ^ .ra: .cfa -24 + ^ x29: .cfa -32 + ^
STACK CFI 78568 .cfa: sp 48 +
STACK CFI 78574 .cfa: sp 0 +
STACK CFI 78578 .cfa: x29 32 +
STACK CFI INIT 7862c 4 .cfa: sp 0 +
STACK CFI INIT 78630 34 .cfa: sp 0 +
STACK CFI 78634 .cfa: sp 32 +
STACK CFI 7863c .cfa: x29 32 + x19: .cfa -16 + ^ .ra: .cfa -24 + ^ x29: .cfa -32 + ^
STACK CFI 78658 .cfa: sp 32 +
STACK CFI 78660 .cfa: sp 0 +
STACK CFI INIT 78664 14 .cfa: sp 0 +
STACK CFI INIT 78678 4 .cfa: sp 0 +
STACK CFI INIT 7867c 4 .cfa: sp 0 +
STACK CFI INIT 78680 74 .cfa: sp 0 +
STACK CFI 78684 .cfa: sp 48 +
STACK CFI 78690 .cfa: x29 48 + x19: .cfa -8 + ^ x20: .cfa -16 + ^ x21: .cfa -32 + ^ .ra: .cfa -40 + ^ x29: .cfa -48 + ^
STACK CFI 786ac .cfa: sp 48 +
STACK CFI 786b8 .cfa: sp 0 +
STACK CFI 786bc .cfa: x29 48 +
STACK CFI 786e4 .cfa: sp 48 +
STACK CFI 786f0 .cfa: sp 0 +
STACK CFI INIT 786f4 1c .cfa: sp 0 +
STACK CFI INIT 78710 c .cfa: sp 0 +
STACK CFI INIT 7871c 194 .cfa: sp 0 +
STACK CFI 78720 .cfa: sp 48 +
STACK CFI 7872c .cfa: x29 48 + x19: .cfa -8 + ^ x20: .cfa -16 + ^ x21: .cfa -32 + ^ .ra: .cfa -40 + ^ x29: .cfa -48 + ^
STACK CFI 7887c .cfa: sp 48 +
STACK CFI 78888 .cfa: sp 0 +
STACK CFI 7888c .cfa: sp 48 +
STACK CFI 78898 .cfa: sp 0 +
STACK CFI 7889c .cfa: x29 48 +
STACK CFI 788a0 .cfa: sp 48 +
STACK CFI 788ac .cfa: sp 0 +
STACK CFI INIT 788b0 198 .cfa: sp 0 +
STACK CFI 788b4 .cfa: sp 48 +
STACK CFI 788c0 .cfa: x29 48 + x19: .cfa -8 + ^ x20: .cfa -16 + ^ x21: .cfa -24 + ^ x22: .cfa -32 + ^ .ra: .cfa -40 + ^ x29: .cfa -48 + ^
STACK CFI 78970 .cfa: sp 48 +
STACK CFI 7897c .cfa: sp 0 +
STACK CFI 78980 .cfa: x29 48 +
STACK CFI 78984 .cfa: sp 48 +
STACK CFI 78990 .cfa: sp 0 +
STACK CFI 78994 .cfa: x29 48 +
STACK CFI 78a38 .cfa: sp 48 +
STACK CFI 78a44 .cfa: sp 0 +
STACK CFI INIT 78a48 4 .cfa: sp 0 +
STACK CFI INIT 78a4c 34 .cfa: sp 0 +
STACK CFI 78a50 .cfa: sp 32 +
STACK CFI 78a58 .cfa: x29 32 + x19: .cfa -16 + ^ .ra: .cfa -24 + ^ x29: .cfa -32 + ^
STACK CFI 78a74 .cfa: sp 32 +
STACK CFI 78a7c .cfa: sp 0 +
STACK CFI INIT 78a80 14 .cfa: sp 0 +
STACK CFI INIT 78a94 4 .cfa: sp 0 +
STACK CFI INIT 78a98 4 .cfa: sp 0 +
STACK CFI INIT 78a9c 74 .cfa: sp 0 +
STACK CFI 78aa0 .cfa: sp 48 +
STACK CFI 78aac .cfa: x29 48 + x19: .cfa -8 + ^ x20: .cfa -16 + ^ x21: .cfa -32 + ^ .ra: .cfa -40 + ^ x29: .cfa -48 + ^
STACK CFI 78ac8 .cfa: sp 48 +
STACK CFI 78ad4 .cfa: sp 0 +
STACK CFI 78ad8 .cfa: x29 48 +
STACK CFI 78b00 .cfa: sp 48 +
STACK CFI 78b0c .cfa: sp 0 +
STACK CFI INIT 78b10 1c .cfa: sp 0 +
STACK CFI INIT 78b2c c .cfa: sp 0 +
STACK CFI INIT 78b38 4 .cfa: sp 0 +
STACK CFI INIT 78b3c 34 .cfa: sp 0 +
STACK CFI 78b40 .cfa: sp 32 +
STACK CFI 78b48 .cfa: x29 32 + x19: .cfa -16 + ^ .ra: .cfa -24 + ^ x29: .cfa -32 + ^
STACK CFI 78b64 .cfa: sp 32 +
STACK CFI 78b6c .cfa: sp 0 +
STACK CFI INIT 78b70 14 .cfa: sp 0 +
STACK CFI INIT 78b84 4 .cfa: sp 0 +
STACK CFI INIT 78b88 4 .cfa: sp 0 +
STACK CFI INIT 78b8c 78 .cfa: sp 0 +
STACK CFI 78b90 .cfa: sp 32 +
STACK CFI 78b98 .cfa: x29 32 + x19: .cfa -8 + ^ x20: .cfa -16 + ^ .ra: .cfa -24 + ^ x29: .cfa -32 + ^
STACK CFI 78bb0 .cfa: sp 32 +
STACK CFI 78bb8 .cfa: sp 0 +
STACK CFI 78bbc .cfa: x29 32 +
STACK CFI 78bf8 .cfa: sp 32 +
STACK CFI 78c00 .cfa: sp 0 +
STACK CFI INIT 78c04 1c .cfa: sp 0 +
STACK CFI INIT 78c20 c .cfa: sp 0 +
STACK CFI INIT 78c2c 14c .cfa: sp 0 +
STACK CFI 78c30 .cfa: sp 112 +
STACK CFI 78c4c .cfa: x29 96 + x19: .cfa -8 + ^ x20: .cfa -16 + ^ x21: .cfa -24 + ^ x22: .cfa -32 + ^ x23: .cfa -40 + ^ x24: .cfa -48 + ^ x25: .cfa -56 + ^ x26: .cfa -64 + ^ x27: .cfa -72 + ^ x28: .cfa -80 + ^ .ra: .cfa -88 + ^ x29: .cfa -96 + ^
STACK CFI 78c70 .cfa: sp 112 +
STACK CFI 78c8c .cfa: sp 0 +
STACK CFI 78c90 .cfa: x29 96 +
STACK CFI 78d58 .cfa: sp 112 +
STACK CFI 78d74 .cfa: sp 0 +
STACK CFI INIT 78d78 4 .cfa: sp 0 +
STACK CFI INIT 78d7c 34 .cfa: sp 0 +
STACK CFI 78d80 .cfa: sp 32 +
STACK CFI 78d88 .cfa: x29 32 + x19: .cfa -16 + ^ .ra: .cfa -24 + ^ x29: .cfa -32 + ^
STACK CFI 78da4 .cfa: sp 32 +
STACK CFI 78dac .cfa: sp 0 +
STACK CFI INIT 78db0 14 .cfa: sp 0 +
STACK CFI INIT 78dc4 4 .cfa: sp 0 +
STACK CFI INIT 78dc8 4 .cfa: sp 0 +
STACK CFI INIT 78dcc 78 .cfa: sp 0 +
STACK CFI 78dd0 .cfa: sp 32 +
STACK CFI 78dd8 .cfa: x29 32 + x19: .cfa -8 + ^ x20: .cfa -16 + ^ .ra: .cfa -24 + ^ x29: .cfa -32 + ^
STACK CFI 78df0 .cfa: sp 32 +
STACK CFI 78df8 .cfa: sp 0 +
STACK CFI 78dfc .cfa: x29 32 +
STACK CFI 78e38 .cfa: sp 32 +
STACK CFI 78e40 .cfa: sp 0 +
STACK CFI INIT 78e44 1c .cfa: sp 0 +
STACK CFI INIT 78e60 c .cfa: sp 0 +
STACK CFI INIT 78e6c 4 .cfa: sp 0 +
STACK CFI INIT 78e70 34 .cfa: sp 0 +
STACK CFI 78e74 .cfa: sp 32 +
STACK CFI 78e7c .cfa: x29 32 + x19: .cfa -16 + ^ .ra: .cfa -24 + ^ x29: .cfa -32 + ^
STACK CFI 78e98 .cfa: sp 32 +
STACK CFI 78ea0 .cfa: sp 0 +
STACK CFI INIT 78ea4 14 .cfa: sp 0 +
STACK CFI INIT 78eb8 4 .cfa: sp 0 +
STACK CFI INIT 78ebc 4 .cfa: sp 0 +
STACK CFI INIT 78ec0 4c .cfa: sp 0 +
STACK CFI 78ecc .cfa: sp 32 +
STACK CFI 78ed4 .cfa: x29 32 + x19: .cfa -16 + ^ .ra: .cfa -24 + ^ x29: .cfa -32 + ^
STACK CFI 78efc .cfa: sp 32 +
STACK CFI 78f04 .cfa: sp 0 +
STACK CFI INIT 78f0c 1c .cfa: sp 0 +
STACK CFI INIT 78f28 c .cfa: sp 0 +
STACK CFI INIT 78f34 4 .cfa: sp 0 +
STACK CFI INIT 78f38 34 .cfa: sp 0 +
STACK CFI 78f3c .cfa: sp 32 +
STACK CFI 78f44 .cfa: x29 32 + x19: .cfa -16 + ^ .ra: .cfa -24 + ^ x29: .cfa -32 + ^
STACK CFI 78f60 .cfa: sp 32 +
STACK CFI 78f68 .cfa: sp 0 +
STACK CFI INIT 78f6c 14 .cfa: sp 0 +
STACK CFI INIT 78f80 4 .cfa: sp 0 +
STACK CFI INIT 78f84 4 .cfa: sp 0 +
STACK CFI INIT 78f88 60 .cfa: sp 0 +
STACK CFI 78f8c .cfa: sp 32 +
STACK CFI 78f94 .cfa: x29 32 + x19: .cfa -8 + ^ x20: .cfa -16 + ^ .ra: .cfa -24 + ^ x29: .cfa -32 + ^
STACK CFI 78fdc .cfa: sp 32 +
STACK CFI 78fe4 .cfa: sp 0 +
STACK CFI INIT 78fe8 1c .cfa: sp 0 +
STACK CFI INIT 79004 c .cfa: sp 0 +
STACK CFI INIT 79010 4 .cfa: sp 0 +
STACK CFI INIT 79014 34 .cfa: sp 0 +
STACK CFI 79018 .cfa: sp 32 +
STACK CFI 79020 .cfa: x29 32 + x19: .cfa -16 + ^ .ra: .cfa -24 + ^ x29: .cfa -32 + ^
STACK CFI 7903c .cfa: sp 32 +
STACK CFI 79044 .cfa: sp 0 +
STACK CFI INIT 79048 14 .cfa: sp 0 +
STACK CFI INIT 7905c 4 .cfa: sp 0 +
STACK CFI INIT 79060 4 .cfa: sp 0 +
STACK CFI INIT 79064 60 .cfa: sp 0 +
STACK CFI 79068 .cfa: sp 32 +
STACK CFI 79070 .cfa: x29 32 + x19: .cfa -8 + ^ x20: .cfa -16 + ^ .ra: .cfa -24 + ^ x29: .cfa -32 + ^
STACK CFI 790b8 .cfa: sp 32 +
STACK CFI 790c0 .cfa: sp 0 +
STACK CFI INIT 790c4 1c .cfa: sp 0 +
STACK CFI INIT 790e0 c .cfa: sp 0 +
STACK CFI INIT 790ec 4 .cfa: sp 0 +
STACK CFI INIT 790f0 34 .cfa: sp 0 +
STACK CFI 790f4 .cfa: sp 32 +
STACK CFI 790fc .cfa: x29 32 + x19: .cfa -16 + ^ .ra: .cfa -24 + ^ x29: .cfa -32 + ^
STACK CFI 79118 .cfa: sp 32 +
STACK CFI 79120 .cfa: sp 0 +
STACK CFI INIT 79124 14 .cfa: sp 0 +
STACK CFI INIT 79138 4 .cfa: sp 0 +
STACK CFI INIT 7913c 4 .cfa: sp 0 +
STACK CFI INIT 79140 78 .cfa: sp 0 +
STACK CFI 79144 .cfa: sp 32 +
STACK CFI 7914c .cfa: x29 32 + x19: .cfa -8 + ^ x20: .cfa -16 + ^ .ra: .cfa -24 + ^ x29: .cfa -32 + ^
STACK CFI 79164 .cfa: sp 32 +
STACK CFI 7916c .cfa: sp 0 +
STACK CFI 79170 .cfa: x29 32 +
STACK CFI 791ac .cfa: sp 32 +
STACK CFI 791b4 .cfa: sp 0 +
STACK CFI INIT 791b8 1c .cfa: sp 0 +
STACK CFI INIT 791d4 c .cfa: sp 0 +
STACK CFI INIT 791e0 4 .cfa: sp 0 +
STACK CFI INIT 791e4 34 .cfa: sp 0 +
STACK CFI 791e8 .cfa: sp 32 +
STACK CFI 791f0 .cfa: x29 32 + x19: .cfa -16 + ^ .ra: .cfa -24 + ^ x29: .cfa -32 + ^
STACK CFI 7920c .cfa: sp 32 +
STACK CFI 79214 .cfa: sp 0 +
STACK CFI INIT 79218 14 .cfa: sp 0 +
STACK CFI INIT 7922c 4 .cfa: sp 0 +
STACK CFI INIT 79230 4 .cfa: sp 0 +
STACK CFI INIT 79234 78 .cfa: sp 0 +
STACK CFI 79238 .cfa: sp 32 +
STACK CFI 79240 .cfa: x29 32 + x19: .cfa -8 + ^ x20: .cfa -16 + ^ .ra: .cfa -24 + ^ x29: .cfa -32 + ^
STACK CFI 79258 .cfa: sp 32 +
STACK CFI 79260 .cfa: sp 0 +
STACK CFI 79264 .cfa: x29 32 +
STACK CFI 792a0 .cfa: sp 32 +
STACK CFI 792a8 .cfa: sp 0 +
STACK CFI INIT 792ac 1c .cfa: sp 0 +
STACK CFI INIT 792c8 c .cfa: sp 0 +
STACK CFI INIT 792d4 4 .cfa: sp 0 +
STACK CFI INIT 792d8 34 .cfa: sp 0 +
STACK CFI 792dc .cfa: sp 32 +
STACK CFI 792e4 .cfa: x29 32 + x19: .cfa -16 + ^ .ra: .cfa -24 + ^ x29: .cfa -32 + ^
STACK CFI 79300 .cfa: sp 32 +
STACK CFI 79308 .cfa: sp 0 +
STACK CFI INIT 7930c 14 .cfa: sp 0 +
STACK CFI INIT 79320 4 .cfa: sp 0 +
STACK CFI INIT 79324 4 .cfa: sp 0 +
STACK CFI INIT 79328 78 .cfa: sp 0 +
STACK CFI 7932c .cfa: sp 32 +
STACK CFI 79334 .cfa: x29 32 + x19: .cfa -8 + ^ x20: .cfa -16 + ^ .ra: .cfa -24 + ^ x29: .cfa -32 + ^
STACK CFI 7934c .cfa: sp 32 +
STACK CFI 79354 .cfa: sp 0 +
STACK CFI 79358 .cfa: x29 32 +
STACK CFI 79394 .cfa: sp 32 +
STACK CFI 7939c .cfa: sp 0 +
STACK CFI INIT 793a0 1c .cfa: sp 0 +
STACK CFI INIT 793bc c .cfa: sp 0 +
STACK CFI INIT 793c8 4 .cfa: sp 0 +
STACK CFI INIT 793cc 34 .cfa: sp 0 +
STACK CFI 793d0 .cfa: sp 32 +
STACK CFI 793d8 .cfa: x29 32 + x19: .cfa -16 + ^ .ra: .cfa -24 + ^ x29: .cfa -32 + ^
STACK CFI 793f4 .cfa: sp 32 +
STACK CFI 793fc .cfa: sp 0 +
STACK CFI INIT 79400 14 .cfa: sp 0 +
STACK CFI INIT 79414 4 .cfa: sp 0 +
STACK CFI INIT 79418 4 .cfa: sp 0 +
STACK CFI INIT 7941c 78 .cfa: sp 0 +
STACK CFI 79420 .cfa: sp 32 +
STACK CFI 79428 .cfa: x29 32 + x19: .cfa -8 + ^ x20: .cfa -16 + ^ .ra: .cfa -24 + ^ x29: .cfa -32 + ^
STACK CFI 79440 .cfa: sp 32 +
STACK CFI 79448 .cfa: sp 0 +
STACK CFI 7944c .cfa: x29 32 +
STACK CFI 79488 .cfa: sp 32 +
STACK CFI 79490 .cfa: sp 0 +
STACK CFI INIT 79494 1c .cfa: sp 0 +
STACK CFI INIT 794b0 c .cfa: sp 0 +
STACK CFI INIT 794bc 4 .cfa: sp 0 +
STACK CFI INIT 794c0 4 .cfa: sp 0 +
STACK CFI INIT 794c4 34 .cfa: sp 0 +
STACK CFI 794c8 .cfa: sp 32 +
STACK CFI 794d0 .cfa: x29 32 + x19: .cfa -16 + ^ .ra: .cfa -24 + ^ x29: .cfa -32 + ^
STACK CFI 794ec .cfa: sp 32 +
STACK CFI 794f4 .cfa: sp 0 +
STACK CFI INIT 794f8 14 .cfa: sp 0 +
STACK CFI INIT 7950c 4 .cfa: sp 0 +
STACK CFI INIT 79510 4 .cfa: sp 0 +
STACK CFI INIT 79514 70 .cfa: sp 0 +
STACK CFI 79520 .cfa: sp 32 +
STACK CFI 79528 .cfa: x29 32 + x19: .cfa -16 + ^ .ra: .cfa -24 + ^ x29: .cfa -32 + ^
STACK CFI 79574 .cfa: sp 32 +
STACK CFI 7957c .cfa: sp 0 +
STACK CFI INIT 79584 1c .cfa: sp 0 +
STACK CFI INIT 795a0 c .cfa: sp 0 +
STACK CFI INIT 758f0 4 .cfa: sp 0 +
STACK CFI INIT 795ac 4c .cfa: sp 0 +
STACK CFI 795b0 .cfa: sp 32 +
STACK CFI 795b8 .cfa: x29 32 + x19: .cfa -8 + ^ x20: .cfa -16 + ^ .ra: .cfa -24 + ^ x29: .cfa -32 + ^
STACK CFI 795e0 .cfa: sp 32 +
STACK CFI 795e8 .cfa: sp 0 +
STACK CFI 795ec .cfa: sp 32 +
STACK CFI 795f4 .cfa: sp 0 +
STACK CFI INIT 796cc 64 .cfa: sp 0 +
STACK CFI 796d0 .cfa: sp 32 +
STACK CFI 796d8 .cfa: x29 32 + x19: .cfa -16 + ^ .ra: .cfa -24 + ^ x29: .cfa -32 + ^
STACK CFI 796fc .cfa: sp 32 +
STACK CFI 79704 .cfa: sp 0 +
STACK CFI 79708 .cfa: x29 32 +
STACK CFI 79724 .cfa: sp 32 +
STACK CFI 7972c .cfa: sp 0 +
STACK CFI INIT 79730 8 .cfa: sp 0 +
STACK CFI INIT 79738 8 .cfa: sp 0 +
STACK CFI INIT 7a360 1c .cfa: sp 0 +
STACK CFI INIT 7a37c 1c .cfa: sp 0 +
STACK CFI INIT 7a398 134 .cfa: sp 0 +
STACK CFI 7a39c .cfa: sp 80 +
STACK CFI 7a3b4 .cfa: x29 56 + x19: .cfa -8 + ^ x20: .cfa -16 + ^ x21: .cfa -24 + ^ x22: .cfa -32 + ^ x23: .cfa -40 + ^ .ra: .cfa -48 + ^ x29: .cfa -56 + ^ v8: .cfa -64 + ^
STACK CFI 7a4ac .cfa: sp 80 +
STACK CFI 7a4c4 .cfa: sp 0 +
STACK CFI 7a4c8 .cfa: x29 56 +
STACK CFI INIT 7a4cc 24 .cfa: sp 0 +
STACK CFI 7a4d0 .cfa: sp 32 +
STACK CFI 7a4d8 .cfa: x29 32 + x19: .cfa -16 + ^ .ra: .cfa -24 + ^ x29: .cfa -32 + ^
STACK CFI 7a4e4 .cfa: sp 32 +
STACK CFI 7a4ec .cfa: sp 0 +
STACK CFI INIT 7a4f0 4 .cfa: sp 0 +
STACK CFI INIT 7a4f4 8 .cfa: sp 0 +
STACK CFI INIT 7a4fc 8 .cfa: sp 0 +
STACK CFI INIT 7a504 4 .cfa: sp 0 +
STACK CFI INIT 7a508 1c .cfa: sp 0 +
STACK CFI 7a50c .cfa: sp 16 +
STACK CFI 7a510 .cfa: x29 16 + .ra: .cfa -8 + ^ x29: .cfa -16 + ^
STACK CFI 7a51c .cfa: sp 16 +
STACK CFI 7a520 .cfa: sp 0 +
STACK CFI INIT 7a524 50 .cfa: sp 0 +
STACK CFI 7a528 .cfa: sp 32 +
STACK CFI 7a530 .cfa: x29 32 + x19: .cfa -16 + ^ .ra: .cfa -24 + ^ x29: .cfa -32 + ^
STACK CFI 7a558 .cfa: sp 32 +
STACK CFI 7a560 .cfa: sp 0 +
STACK CFI 7a564 .cfa: x29 32 +
STACK CFI 7a568 .cfa: sp 32 +
STACK CFI 7a570 .cfa: sp 0 +
STACK CFI INIT 7a574 4 .cfa: sp 0 +
STACK CFI INIT 7aca8 4 .cfa: sp 0 +
STACK CFI INIT 7b354 14 .cfa: sp 0 +
STACK CFI INIT 7b368 4c .cfa: sp 0 +
STACK CFI 7b36c .cfa: sp 32 +
STACK CFI 7b374 .cfa: x29 32 + x19: .cfa -8 + ^ x20: .cfa -16 + ^ .ra: .cfa -24 + ^ x29: .cfa -32 + ^
STACK CFI 7b39c .cfa: sp 32 +
STACK CFI 7b3a4 .cfa: sp 0 +
STACK CFI 7b3a8 .cfa: sp 32 +
STACK CFI 7b3b0 .cfa: sp 0 +
STACK CFI INIT 7b6d8 1d8 .cfa: sp 0 +
STACK CFI 7b6dc .cfa: sp 32 +
STACK CFI 7b6e4 .cfa: x29 32 + x19: .cfa -8 + ^ x20: .cfa -16 + ^ .ra: .cfa -24 + ^ x29: .cfa -32 + ^
STACK CFI 7b770 .cfa: sp 32 +
STACK CFI 7b778 .cfa: sp 0 +
STACK CFI 7b77c .cfa: x29 32 +
STACK CFI 7b790 .cfa: sp 32 +
STACK CFI 7b798 .cfa: sp 0 +
STACK CFI 7b79c .cfa: x29 32 +
STACK CFI INIT 7b8b0 140 .cfa: sp 0 +
STACK CFI 7b8b4 .cfa: sp 64 +
STACK CFI 7b8c0 .cfa: x29 32 + x19: .cfa -16 + ^ .ra: .cfa -24 + ^ x29: .cfa -32 + ^
STACK CFI 7b9b0 .cfa: sp 64 +
STACK CFI 7b9bc .cfa: sp 0 +
STACK CFI 7b9c0 .cfa: x29 32 +
STACK CFI INIT 7b9f0 134 .cfa: sp 0 +
STACK CFI INIT 7be28 1d8 .cfa: sp 0 +
STACK CFI 7be2c .cfa: sp 32 +
STACK CFI 7be34 .cfa: x29 32 + x19: .cfa -8 + ^ x20: .cfa -16 + ^ .ra: .cfa -24 + ^ x29: .cfa -32 + ^
STACK CFI 7bec0 .cfa: sp 32 +
STACK CFI 7bec8 .cfa: sp 0 +
STACK CFI 7becc .cfa: x29 32 +
STACK CFI 7bee0 .cfa: sp 32 +
STACK CFI 7bee8 .cfa: sp 0 +
STACK CFI 7beec .cfa: x29 32 +
STACK CFI INIT 7c678 4 .cfa: sp 0 +
STACK CFI INIT 7c67c 1c .cfa: sp 0 +
STACK CFI 7c680 .cfa: sp 16 +
STACK CFI 7c684 .cfa: x29 16 + .ra: .cfa -8 + ^ x29: .cfa -16 + ^
STACK CFI 7c690 .cfa: sp 16 +
STACK CFI 7c694 .cfa: sp 0 +
STACK CFI INIT 7c698 4 .cfa: sp 0 +
STACK CFI INIT 7c730 24 .cfa: sp 0 +
STACK CFI 7c734 .cfa: sp 16 +
STACK CFI 7c738 .cfa: x29 16 + .ra: .cfa -8 + ^ x29: .cfa -16 + ^
STACK CFI 7c74c .cfa: sp 16 +
STACK CFI 7c750 .cfa: sp 0 +
STACK CFI INIT 7c8bc 4 .cfa: sp 0 +
STACK CFI INIT 7c8c0 34 .cfa: sp 0 +
STACK CFI 7c8c4 .cfa: sp 32 +
STACK CFI 7c8cc .cfa: x29 32 + x19: .cfa -16 + ^ .ra: .cfa -24 + ^ x29: .cfa -32 + ^
STACK CFI 7c8e8 .cfa: sp 32 +
STACK CFI 7c8f0 .cfa: sp 0 +
STACK CFI INIT 7c8f4 14 .cfa: sp 0 +
STACK CFI INIT 7c908 4 .cfa: sp 0 +
STACK CFI INIT 7c90c 4 .cfa: sp 0 +
STACK CFI INIT 7c910 c .cfa: sp 0 +
STACK CFI INIT 7c91c 1c .cfa: sp 0 +
STACK CFI INIT 7c938 c .cfa: sp 0 +
STACK CFI INIT 7c944 24 .cfa: sp 0 +
STACK CFI 7c948 .cfa: sp 32 +
STACK CFI 7c950 .cfa: x29 32 + x19: .cfa -16 + ^ .ra: .cfa -24 + ^ x29: .cfa -32 + ^
STACK CFI 7c95c .cfa: sp 32 +
STACK CFI 7c964 .cfa: sp 0 +
STACK CFI INIT 7c968 3c .cfa: sp 0 +
STACK CFI 7c96c .cfa: sp 32 +
STACK CFI 7c974 .cfa: x29 32 + x19: .cfa -16 + ^ .ra: .cfa -24 + ^ x29: .cfa -32 + ^
STACK CFI 7c980 .cfa: sp 32 +
STACK CFI 7c988 .cfa: sp 0 +
STACK CFI 7c98c .cfa: x29 32 +
STACK CFI 7c998 .cfa: sp 32 +
STACK CFI 7c9a0 .cfa: sp 0 +
STACK CFI INIT 7c9a4 3c .cfa: sp 0 +
STACK CFI 7c9a8 .cfa: sp 32 +
STACK CFI 7c9b0 .cfa: x29 32 + x19: .cfa -16 + ^ .ra: .cfa -24 + ^ x29: .cfa -32 + ^
STACK CFI 7c9bc .cfa: sp 32 +
STACK CFI 7c9c4 .cfa: sp 0 +
STACK CFI 7c9c8 .cfa: x29 32 +
STACK CFI 7c9d4 .cfa: sp 32 +
STACK CFI 7c9dc .cfa: sp 0 +
STACK CFI INIT 7c9e0 134 .cfa: sp 0 +
STACK CFI INIT 7cb14 84 .cfa: sp 0 +
STACK CFI INIT 7cb98 f4 .cfa: sp 0 +
STACK CFI INIT 7cc8c a8 .cfa: sp 0 +
STACK CFI INIT 7cd34 7c .cfa: sp 0 +
STACK CFI INIT 7cdb0 14 .cfa: sp 0 +
STACK CFI INIT 7cdc4 40 .cfa: sp 0 +
STACK CFI INIT 7ce04 28 .cfa: sp 0 +
STACK CFI INIT 7ce2c 190 .cfa: sp 0 +
STACK CFI INIT 7cfbc 2c8 .cfa: sp 0 +
STACK CFI INIT 7d284 8 .cfa: sp 0 +
STACK CFI INIT 7d28c 8 .cfa: sp 0 +
STACK CFI INIT 7d294 44 .cfa: sp 0 +
STACK CFI INIT 7d2d8 e8 .cfa: sp 0 +
STACK CFI INIT 7d3c0 e8 .cfa: sp 0 +
STACK CFI INIT 7d4a8 14 .cfa: sp 0 +
STACK CFI INIT 7d4bc 10 .cfa: sp 0 +
STACK CFI INIT 7d4cc 10 .cfa: sp 0 +
STACK CFI INIT 7d4dc f0 .cfa: sp 0 +
STACK CFI INIT 7d5cc 44 .cfa: sp 0 +
STACK CFI INIT 7d610 c .cfa: sp 0 +
STACK CFI INIT 7d61c c .cfa: sp 0 +
STACK CFI INIT 7d628 2c .cfa: sp 0 +
STACK CFI INIT 7d654 280 .cfa: sp 0 +
STACK CFI INIT 7d8d4 c .cfa: sp 0 +
STACK CFI INIT 7d8e0 120 .cfa: sp 0 +
STACK CFI INIT 7da00 488 .cfa: sp 0 +
STACK CFI INIT 7de88 c48 .cfa: sp 0 +
STACK CFI INIT 7ead0 134 .cfa: sp 0 +
STACK CFI INIT 7ec04 210 .cfa: sp 0 +
STACK CFI INIT 7ee14 38c .cfa: sp 0 +
STACK CFI INIT 7f1a0 1c8 .cfa: sp 0 +
STACK CFI INIT 7f368 9bc .cfa: sp 0 +
STACK CFI INIT 7fd24 2d4 .cfa: sp 0 +
STACK CFI INIT 7fff8 134 .cfa: sp 0 +
STACK CFI INIT 8012c 120 .cfa: sp 0 +
STACK CFI INIT 8024c 1c8 .cfa: sp 0 +
STACK CFI INIT 80414 168 .cfa: sp 0 +
STACK CFI INIT 8057c fc .cfa: sp 0 +
STACK CFI INIT 80678 30 .cfa: sp 0 +
STACK CFI INIT 807e0 30 .cfa: sp 0 +
STACK CFI INIT 80810 98 .cfa: sp 0 +
STACK CFI INIT 808a8 59c .cfa: sp 0 +
STACK CFI INIT 80e44 8c .cfa: sp 0 +
STACK CFI INIT 80ed0 30 .cfa: sp 0 +
STACK CFI INIT 81308 64 .cfa: sp 0 +
STACK CFI 8130c .cfa: sp 32 +
STACK CFI 81314 .cfa: x29 32 + x19: .cfa -16 + ^ .ra: .cfa -24 + ^ x29: .cfa -32 + ^
STACK CFI 81340 .cfa: sp 32 +
STACK CFI 81348 .cfa: sp 0 +
STACK CFI 8134c .cfa: x29 32 +
STACK CFI 81360 .cfa: sp 32 +
STACK CFI 81368 .cfa: sp 0 +
STACK CFI INIT 81674 24 .cfa: sp 0 +
STACK CFI 81678 .cfa: sp 32 +
STACK CFI 81680 .cfa: x29 32 + x19: .cfa -16 + ^ .ra: .cfa -24 + ^ x29: .cfa -32 + ^
STACK CFI 8168c .cfa: sp 32 +
STACK CFI 81694 .cfa: sp 0 +
STACK CFI INIT 81698 8 .cfa: sp 0 +
STACK CFI INIT 816a0 24 .cfa: sp 0 +
STACK CFI 816a4 .cfa: sp 32 +
STACK CFI 816ac .cfa: x29 32 + x19: .cfa -16 + ^ .ra: .cfa -24 + ^ x29: .cfa -32 + ^
STACK CFI 816b8 .cfa: sp 32 +
STACK CFI 816c0 .cfa: sp 0 +
STACK CFI INIT 816c4 28 .cfa: sp 0 +
STACK CFI 816c8 .cfa: sp 32 +
STACK CFI 816d0 .cfa: x29 32 + x19: .cfa -16 + ^ .ra: .cfa -24 + ^ x29: .cfa -32 + ^
STACK CFI 816e0 .cfa: sp 32 +
STACK CFI 816e8 .cfa: sp 0 +
STACK CFI INIT 816ec 24 .cfa: sp 0 +
STACK CFI 816f0 .cfa: sp 32 +
STACK CFI 816f8 .cfa: x29 32 + x19: .cfa -16 + ^ .ra: .cfa -24 + ^ x29: .cfa -32 + ^
STACK CFI 81704 .cfa: sp 32 +
STACK CFI 8170c .cfa: sp 0 +
STACK CFI INIT 819e4 8 .cfa: sp 0 +
STACK CFI INIT 819ec 24 .cfa: sp 0 +
STACK CFI 819f0 .cfa: sp 32 +
STACK CFI 819f8 .cfa: x29 32 + x19: .cfa -16 + ^ .ra: .cfa -24 + ^ x29: .cfa -32 + ^
STACK CFI 81a04 .cfa: sp 32 +
STACK CFI 81a0c .cfa: sp 0 +
STACK CFI INIT 81a10 28 .cfa: sp 0 +
STACK CFI 81a14 .cfa: sp 32 +
STACK CFI 81a1c .cfa: x29 32 + x19: .cfa -16 + ^ .ra: .cfa -24 + ^ x29: .cfa -32 + ^
STACK CFI 81a2c .cfa: sp 32 +
STACK CFI 81a34 .cfa: sp 0 +
STACK CFI INIT 81a38 8 .cfa: sp 0 +
STACK CFI INIT 81a40 24 .cfa: sp 0 +
STACK CFI 81a44 .cfa: sp 32 +
STACK CFI 81a4c .cfa: x29 32 + x19: .cfa -16 + ^ .ra: .cfa -24 + ^ x29: .cfa -32 + ^
STACK CFI 81a58 .cfa: sp 32 +
STACK CFI 81a60 .cfa: sp 0 +
STACK CFI INIT 81a64 28 .cfa: sp 0 +
STACK CFI 81a68 .cfa: sp 32 +
STACK CFI 81a70 .cfa: x29 32 + x19: .cfa -16 + ^ .ra: .cfa -24 + ^ x29: .cfa -32 + ^
STACK CFI 81a80 .cfa: sp 32 +
STACK CFI 81a88 .cfa: sp 0 +
STACK CFI INIT 81a8c 8 .cfa: sp 0 +
STACK CFI INIT 81a94 24 .cfa: sp 0 +
STACK CFI 81a98 .cfa: sp 32 +
STACK CFI 81aa0 .cfa: x29 32 + x19: .cfa -16 + ^ .ra: .cfa -24 + ^ x29: .cfa -32 + ^
STACK CFI 81aac .cfa: sp 32 +
STACK CFI 81ab4 .cfa: sp 0 +
STACK CFI INIT 81ab8 28 .cfa: sp 0 +
STACK CFI 81abc .cfa: sp 32 +
STACK CFI 81ac4 .cfa: x29 32 + x19: .cfa -16 + ^ .ra: .cfa -24 + ^ x29: .cfa -32 + ^
STACK CFI 81ad4 .cfa: sp 32 +
STACK CFI 81adc .cfa: sp 0 +
STACK CFI INIT 82270 4 .cfa: sp 0 +
STACK CFI INIT 82274 4 .cfa: sp 0 +
STACK CFI INIT 82278 4 .cfa: sp 0 +
STACK CFI INIT 8227c 4 .cfa: sp 0 +
STACK CFI INIT 82280 8 .cfa: sp 0 +
STACK CFI INIT 82288 4 .cfa: sp 0 +
STACK CFI INIT 8228c 14 .cfa: sp 0 +
STACK CFI INIT 822a0 20 .cfa: sp 0 +
STACK CFI INIT 822c0 1c .cfa: sp 0 +
STACK CFI INIT 822dc 14 .cfa: sp 0 +
STACK CFI INIT 822f0 1f8 .cfa: sp 0 +
STACK CFI 822f4 .cfa: sp 112 +
STACK CFI 82314 .cfa: x29 72 + x19: .cfa -8 + ^ x20: .cfa -16 + ^ x21: .cfa -24 + ^ x22: .cfa -32 + ^ x23: .cfa -40 + ^ x24: .cfa -48 + ^ x25: .cfa -56 + ^ .ra: .cfa -64 + ^ x29: .cfa -72 + ^ v8: .cfa -80 + ^ v9: .cfa -88 + ^ v10: .cfa -96 + ^
STACK CFI 824c0 .cfa: sp 112 +
STACK CFI 824e0 .cfa: sp 0 +
STACK CFI 824e4 .cfa: x29 72 +
STACK CFI INIT 824e8 8 .cfa: sp 0 +
STACK CFI INIT 824f0 8 .cfa: sp 0 +
STACK CFI INIT 8259c 8 .cfa: sp 0 +
STACK CFI INIT 8288c 18 .cfa: sp 0 +
STACK CFI 82890 .cfa: sp 16 +
STACK CFI 82894 .cfa: x29 16 + .ra: .cfa -8 + ^ x29: .cfa -16 + ^
STACK CFI 8289c .cfa: sp 16 +
STACK CFI 828a0 .cfa: sp 0 +
STACK CFI INIT 83a2c c .cfa: sp 0 +
STACK CFI INIT 83a38 24c .cfa: sp 0 +
STACK CFI INIT 83c84 a0 .cfa: sp 0 +
STACK CFI 83c90 .cfa: sp 32 +
STACK CFI 83ce8 .cfa: sp 0 +
STACK CFI 83cec .cfa: sp 32 +
STACK CFI 83cf4 .cfa: sp 0 +
STACK CFI 83cf8 .cfa: sp 32 +
STACK CFI 83d0c .cfa: sp 0 +
STACK CFI 83d10 .cfa: sp 32 +
STACK CFI 83d20 .cfa: sp 0 +
STACK CFI INIT 83d24 38 .cfa: sp 0 +
STACK CFI 83d30 .cfa: sp 32 +
STACK CFI 83d58 .cfa: sp 0 +
STACK CFI INIT 83dac 2c .cfa: sp 0 +
STACK CFI 83db0 .cfa: sp 32 +
STACK CFI 83db8 .cfa: x29 32 + x19: .cfa -16 + ^ .ra: .cfa -24 + ^ x29: .cfa -32 + ^
STACK CFI 83dcc .cfa: sp 32 +
STACK CFI 83dd4 .cfa: sp 0 +
STACK CFI INIT 8406c 70 .cfa: sp 0 +
STACK CFI 84070 .cfa: sp 32 +
STACK CFI 84078 .cfa: x29 32 + x19: .cfa -16 + ^ .ra: .cfa -24 + ^ x29: .cfa -32 + ^
STACK CFI 840ac .cfa: sp 32 +
STACK CFI 840b4 .cfa: sp 0 +
STACK CFI 840b8 .cfa: x29 32 +
STACK CFI INIT 8482c 64 .cfa: sp 0 +
STACK CFI 84830 .cfa: sp 32 +
STACK CFI 84838 .cfa: x29 32 + x19: .cfa -16 + ^ .ra: .cfa -24 + ^ x29: .cfa -32 + ^
STACK CFI 84854 .cfa: sp 32 +
STACK CFI 8485c .cfa: sp 0 +
STACK CFI 84860 .cfa: x29 32 +
STACK CFI 84884 .cfa: sp 32 +
STACK CFI 8488c .cfa: sp 0 +
STACK CFI INIT 84d70 228 .cfa: sp 0 +
STACK CFI INIT 84f98 2b4 .cfa: sp 0 +
STACK CFI INIT 8524c 530 .cfa: sp 0 +
STACK CFI INIT 8577c 24 .cfa: sp 0 +
STACK CFI 85780 .cfa: sp 32 +
STACK CFI 85788 .cfa: x29 32 + x19: .cfa -16 + ^ .ra: .cfa -24 + ^ x29: .cfa -32 + ^
STACK CFI 85794 .cfa: sp 32 +
STACK CFI 8579c .cfa: sp 0 +
STACK CFI INIT 857a0 138 .cfa: sp 0 +
STACK CFI 857a4 .cfa: sp 48 +
STACK CFI 857b0 .cfa: x29 48 + x19: .cfa -8 + ^ x20: .cfa -16 + ^ x21: .cfa -32 + ^ .ra: .cfa -40 + ^ x29: .cfa -48 + ^
STACK CFI 858b8 .cfa: sp 48 +
STACK CFI 858c4 .cfa: sp 0 +
STACK CFI 858c8 .cfa: sp 48 +
STACK CFI 858d4 .cfa: sp 0 +
STACK CFI INIT 858d8 78 .cfa: sp 0 +
STACK CFI 858dc .cfa: sp 32 +
STACK CFI 858e4 .cfa: x29 32 + x19: .cfa -16 + ^ .ra: .cfa -24 + ^ x29: .cfa -32 + ^
STACK CFI 85920 .cfa: sp 32 +
STACK CFI 85928 .cfa: sp 0 +
STACK CFI 8592c .cfa: x29 32 +
STACK CFI INIT 85950 6c .cfa: sp 0 +
STACK CFI 85954 .cfa: sp 64 +
STACK CFI 85960 .cfa: x29 32 + x19: .cfa -16 + ^ .ra: .cfa -24 + ^ x29: .cfa -32 + ^
STACK CFI 859a8 .cfa: sp 64 +
STACK CFI 859b4 .cfa: sp 0 +
STACK CFI 859b8 .cfa: x29 32 +
STACK CFI INIT 859bc f4 .cfa: sp 0 +
STACK CFI 859c0 .cfa: sp 112 +
STACK CFI 859d0 .cfa: x29 48 + x19: .cfa -8 + ^ x20: .cfa -16 + ^ x21: .cfa -32 + ^ .ra: .cfa -40 + ^ x29: .cfa -48 + ^
STACK CFI 85a98 .cfa: sp 112 +
STACK CFI 85aa8 .cfa: sp 0 +
STACK CFI 85aac .cfa: x29 48 +
STACK CFI INIT 85ab0 f0 .cfa: sp 0 +
STACK CFI 85ab4 .cfa: sp 112 +
STACK CFI 85ac4 .cfa: x29 48 + x19: .cfa -8 + ^ x20: .cfa -16 + ^ x21: .cfa -32 + ^ .ra: .cfa -40 + ^ x29: .cfa -48 + ^
STACK CFI 85b88 .cfa: sp 112 +
STACK CFI 85b98 .cfa: sp 0 +
STACK CFI 85b9c .cfa: x29 48 +
STACK CFI INIT 85ba0 48 .cfa: sp 0 +
STACK CFI 85ba4 .cfa: sp 32 +
STACK CFI 85bac .cfa: x29 32 + x19: .cfa -8 + ^ x20: .cfa -16 + ^ .ra: .cfa -24 + ^ x29: .cfa -32 + ^
STACK CFI 85bd0 .cfa: sp 32 +
STACK CFI 85bd8 .cfa: sp 0 +
STACK CFI 85bdc .cfa: x29 32 +
STACK CFI INIT 85be8 98 .cfa: sp 0 +
STACK CFI 85bec .cfa: sp 80 +
STACK CFI 85bf8 .cfa: x29 32 + x19: .cfa -16 + ^ .ra: .cfa -24 + ^ x29: .cfa -32 + ^
STACK CFI 85c6c .cfa: sp 80 +
STACK CFI 85c78 .cfa: sp 0 +
STACK CFI 85c7c .cfa: x29 32 +
STACK CFI INIT 85c80 1f8 .cfa: sp 0 +
STACK CFI 85c84 .cfa: sp 80 +
STACK CFI 85c94 .cfa: x29 48 + x19: .cfa -8 + ^ x20: .cfa -16 + ^ x21: .cfa -24 + ^ x22: .cfa -32 + ^ .ra: .cfa -40 + ^ x29: .cfa -48 + ^
STACK CFI 85e40 .cfa: sp 80 +
STACK CFI 85e50 .cfa: sp 0 +
STACK CFI 85e54 .cfa: x29 48 +
STACK CFI INIT 85e78 16c .cfa: sp 0 +
STACK CFI 85e7c .cfa: sp 48 +
STACK CFI 85e88 .cfa: x29 48 + x19: .cfa -8 + ^ x20: .cfa -16 + ^ x21: .cfa -24 + ^ x22: .cfa -32 + ^ .ra: .cfa -40 + ^ x29: .cfa -48 + ^
STACK CFI 85fd4 .cfa: sp 48 +
STACK CFI 85fe0 .cfa: sp 0 +
STACK CFI INIT 85fe4 198 .cfa: sp 0 +
STACK CFI 85fe8 .cfa: sp 64 +
STACK CFI 85ff4 .cfa: x29 32 + x19: .cfa -8 + ^ x20: .cfa -16 + ^ .ra: .cfa -24 + ^ x29: .cfa -32 + ^
STACK CFI 86148 .cfa: sp 64 +
STACK CFI 86154 .cfa: sp 0 +
STACK CFI 86158 .cfa: x29 32 +
STACK CFI INIT 8617c 21c .cfa: sp 0 +
STACK CFI 86180 .cfa: sp 80 +
STACK CFI 86190 .cfa: x29 48 + x19: .cfa -8 + ^ x20: .cfa -16 + ^ x21: .cfa -24 + ^ x22: .cfa -32 + ^ .ra: .cfa -40 + ^ x29: .cfa -48 + ^
STACK CFI 86360 .cfa: sp 80 +
STACK CFI 86370 .cfa: sp 0 +
STACK CFI 86374 .cfa: x29 48 +
STACK CFI INIT 86398 1c0 .cfa: sp 0 +
STACK CFI 8639c .cfa: sp 64 +
STACK CFI 863a8 .cfa: x29 32 + x19: .cfa -8 + ^ x20: .cfa -16 + ^ .ra: .cfa -24 + ^ x29: .cfa -32 + ^
STACK CFI 86524 .cfa: sp 64 +
STACK CFI 86530 .cfa: sp 0 +
STACK CFI 86534 .cfa: x29 32 +
STACK CFI INIT 86558 2f0 .cfa: sp 0 +
STACK CFI 8655c .cfa: sp 160 +
STACK CFI 86578 .cfa: x29 96 + x19: .cfa -8 + ^ x20: .cfa -16 + ^ x21: .cfa -24 + ^ x22: .cfa -32 + ^ x23: .cfa -40 + ^ x24: .cfa -48 + ^ x25: .cfa -56 + ^ x26: .cfa -64 + ^ x27: .cfa -72 + ^ x28: .cfa -80 + ^ .ra: .cfa -88 + ^ x29: .cfa -96 + ^
STACK CFI 867ec .cfa: sp 160 +
STACK CFI 86808 .cfa: sp 0 +
STACK CFI 8680c .cfa: x29 96 +
STACK CFI INIT 86848 288 .cfa: sp 0 +
STACK CFI 8684c .cfa: sp 144 +
STACK CFI 86868 .cfa: x29 96 + x19: .cfa -8 + ^ x20: .cfa -16 + ^ x21: .cfa -24 + ^ x22: .cfa -32 + ^ x23: .cfa -40 + ^ x24: .cfa -48 + ^ x25: .cfa -56 + ^ x26: .cfa -64 + ^ x27: .cfa -72 + ^ x28: .cfa -80 + ^ .ra: .cfa -88 + ^ x29: .cfa -96 + ^
STACK CFI 86a74 .cfa: sp 144 +
STACK CFI 86a90 .cfa: sp 0 +
STACK CFI 86a94 .cfa: x29 96 +
STACK CFI INIT 86ad0 288 .cfa: sp 0 +
STACK CFI 86ad4 .cfa: sp 128 +
STACK CFI 86aec .cfa: x29 80 + x19: .cfa -8 + ^ x20: .cfa -16 + ^ x21: .cfa -24 + ^ x22: .cfa -32 + ^ x23: .cfa -40 + ^ x24: .cfa -48 + ^ x25: .cfa -56 + ^ x26: .cfa -64 + ^ .ra: .cfa -72 + ^ x29: .cfa -80 + ^
STACK CFI 86d38 .cfa: sp 128 +
STACK CFI 86d50 .cfa: sp 0 +
STACK CFI 86d54 .cfa: x29 80 +
STACK CFI INIT 86d58 cfc .cfa: sp 0 +
STACK CFI 86d5c .cfa: sp 144 +
STACK CFI 86d78 .cfa: x29 96 + x19: .cfa -8 + ^ x20: .cfa -16 + ^ x21: .cfa -24 + ^ x22: .cfa -32 + ^ x23: .cfa -40 + ^ x24: .cfa -48 + ^ x25: .cfa -56 + ^ x26: .cfa -64 + ^ x27: .cfa -72 + ^ x28: .cfa -80 + ^ .ra: .cfa -88 + ^ x29: .cfa -96 + ^
STACK CFI 87a14 .cfa: sp 144 +
STACK CFI 87a30 .cfa: sp 0 +
STACK CFI 87a34 .cfa: x29 96 +
STACK CFI INIT 87a54 1f0 .cfa: sp 0 +
STACK CFI 87a58 .cfa: sp 80 +
STACK CFI 87a6c .cfa: x29 80 + x19: .cfa -8 + ^ x20: .cfa -16 + ^ x21: .cfa -24 + ^ x22: .cfa -32 + ^ x23: .cfa -40 + ^ x24: .cfa -48 + ^ x25: .cfa -64 + ^ .ra: .cfa -72 + ^ x29: .cfa -80 + ^
STACK CFI 87c2c .cfa: sp 80 +
STACK CFI 87c40 .cfa: sp 0 +
STACK CFI INIT 87c44 32c .cfa: sp 0 +
STACK CFI 87c48 .cfa: sp 80 +
STACK CFI 87c5c .cfa: x29 64 + x19: .cfa -8 + ^ x20: .cfa -16 + ^ x21: .cfa -24 + ^ x22: .cfa -32 + ^ x23: .cfa -40 + ^ x24: .cfa -48 + ^ .ra: .cfa -56 + ^ x29: .cfa -64 + ^
STACK CFI 87dec .cfa: sp 80 +
STACK CFI 87e00 .cfa: sp 0 +
STACK CFI 87e04 .cfa: x29 64 +
STACK CFI INIT 87f70 184 .cfa: sp 0 +
STACK CFI 87f74 .cfa: sp 80 +
STACK CFI 87f88 .cfa: x29 64 + x19: .cfa -8 + ^ x20: .cfa -16 + ^ x21: .cfa -24 + ^ x22: .cfa -32 + ^ x23: .cfa -40 + ^ x24: .cfa -48 + ^ .ra: .cfa -56 + ^ x29: .cfa -64 + ^
STACK CFI 880d8 .cfa: sp 80 +
STACK CFI 880ec .cfa: sp 0 +
STACK CFI 880f0 .cfa: x29 64 +
STACK CFI INIT 880f4 184 .cfa: sp 0 +
STACK CFI 880f8 .cfa: sp 80 +
STACK CFI 8810c .cfa: x29 64 + x19: .cfa -8 + ^ x20: .cfa -16 + ^ x21: .cfa -24 + ^ x22: .cfa -32 + ^ x23: .cfa -40 + ^ x24: .cfa -48 + ^ .ra: .cfa -56 + ^ x29: .cfa -64 + ^
STACK CFI 8825c .cfa: sp 80 +
STACK CFI 88270 .cfa: sp 0 +
STACK CFI 88274 .cfa: x29 64 +
STACK CFI INIT 88278 22c .cfa: sp 0 +
STACK CFI 8827c .cfa: sp 96 +
STACK CFI 88294 .cfa: x29 96 + x19: .cfa -8 + ^ x20: .cfa -16 + ^ x21: .cfa -24 + ^ x22: .cfa -32 + ^ x23: .cfa -40 + ^ x24: .cfa -48 + ^ x25: .cfa -56 + ^ x26: .cfa -64 + ^ x27: .cfa -72 + ^ x28: .cfa -80 + ^ .ra: .cfa -88 + ^ x29: .cfa -96 + ^
STACK CFI 88488 .cfa: sp 96 +
STACK CFI 884a0 .cfa: sp 0 +
STACK CFI INIT 89064 154 .cfa: sp 0 +
STACK CFI 89068 .cfa: sp 80 +
STACK CFI 89078 .cfa: x29 48 + x19: .cfa -8 + ^ x20: .cfa -16 + ^ x21: .cfa -24 + ^ x22: .cfa -32 + ^ .ra: .cfa -40 + ^ x29: .cfa -48 + ^
STACK CFI 8915c .cfa: sp 80 +
STACK CFI 8916c .cfa: sp 0 +
STACK CFI 89170 .cfa: x29 48 +
STACK CFI INIT 893f0 44 .cfa: sp 0 +
STACK CFI 893f4 .cfa: sp 32 +
STACK CFI 893fc .cfa: x29 32 + x19: .cfa -16 + ^ .ra: .cfa -24 + ^ x29: .cfa -32 + ^
STACK CFI 89418 .cfa: sp 32 +
STACK CFI 89420 .cfa: sp 0 +
STACK CFI 89424 .cfa: x29 32 +
STACK CFI 89428 .cfa: sp 32 +
STACK CFI 89430 .cfa: sp 0 +
STACK CFI INIT 89434 1bc .cfa: sp 0 +
STACK CFI 89438 .cfa: sp 64 +
STACK CFI 89448 .cfa: x29 64 + x19: .cfa -8 + ^ x20: .cfa -16 + ^ x21: .cfa -24 + ^ x22: .cfa -32 + ^ x23: .cfa -40 + ^ x24: .cfa -48 + ^ .ra: .cfa -56 + ^ x29: .cfa -64 + ^
STACK CFI 895dc .cfa: sp 64 +
STACK CFI 895ec .cfa: sp 0 +
STACK CFI INIT 895f0 17c .cfa: sp 0 +
STACK CFI INIT 89b30 110 .cfa: sp 0 +
STACK CFI 89b34 .cfa: sp 48 +
STACK CFI 89b40 .cfa: x29 48 + x19: .cfa -8 + ^ x20: .cfa -16 + ^ x21: .cfa -32 + ^ .ra: .cfa -40 + ^ x29: .cfa -48 + ^
STACK CFI 89c1c .cfa: sp 48 +
STACK CFI 89c28 .cfa: sp 0 +
STACK CFI 89c2c .cfa: sp 48 +
STACK CFI 89c38 .cfa: sp 0 +
STACK CFI 89c3c .cfa: x29 48 +
STACK CFI INIT 8a83c 158 .cfa: sp 0 +
STACK CFI 8a840 .cfa: sp 80 +
STACK CFI 8a850 .cfa: x29 48 + x19: .cfa -8 + ^ x20: .cfa -16 + ^ x21: .cfa -24 + ^ x22: .cfa -32 + ^ .ra: .cfa -40 + ^ x29: .cfa -48 + ^
STACK CFI 8a938 .cfa: sp 80 +
STACK CFI 8a948 .cfa: sp 0 +
STACK CFI 8a94c .cfa: x29 48 +
STACK CFI INIT 8a994 190 .cfa: sp 0 +
STACK CFI INIT 8b5c8 104 .cfa: sp 0 +
STACK CFI 8b658 .cfa: sp 16 +
STACK CFI 8b65c .cfa: x29 16 + .ra: .cfa -8 + ^ x29: .cfa -16 + ^
STACK CFI 8b668 .cfa: sp 0 + .ra: x30 x29: x29
STACK CFI INIT 8b6cc 1d0 .cfa: sp 0 +
STACK CFI 8b6d0 .cfa: sp 80 +
STACK CFI 8b6e4 .cfa: x29 80 + x19: .cfa -8 + ^ x20: .cfa -16 + ^ x21: .cfa -24 + ^ x22: .cfa -32 + ^ x23: .cfa -40 + ^ x24: .cfa -48 + ^ x25: .cfa -64 + ^ .ra: .cfa -72 + ^ x29: .cfa -80 + ^
STACK CFI 8b884 .cfa: sp 80 +
STACK CFI 8b898 .cfa: sp 0 +
STACK CFI INIT 8cc34 128 .cfa: sp 0 +
STACK CFI 8cc64 .cfa: sp 32 +
STACK CFI 8cc6c .cfa: x29 32 + x19: .cfa -8 + ^ x20: .cfa -16 + ^ .ra: .cfa -24 + ^ x29: .cfa -32 + ^
STACK CFI 8cd50 .cfa: sp 32 +
STACK CFI 8cd58 .cfa: sp 0 +
STACK CFI INIT 8d4bc 314 .cfa: sp 0 +
STACK CFI 8d4c0 .cfa: sp 80 +
STACK CFI 8d4d4 .cfa: x29 80 + x19: .cfa -8 + ^ x20: .cfa -16 + ^ x21: .cfa -24 + ^ x22: .cfa -32 + ^ x23: .cfa -40 + ^ x24: .cfa -48 + ^ x25: .cfa -64 + ^ .ra: .cfa -72 + ^ x29: .cfa -80 + ^
STACK CFI 8d748 .cfa: sp 80 +
STACK CFI 8d75c .cfa: sp 0 +
STACK CFI 8d760 .cfa: x29 80 +
STACK CFI INIT 8d7d0 110 .cfa: sp 0 +
STACK CFI 8d7d4 .cfa: sp 48 +
STACK CFI 8d7e0 .cfa: x29 48 + x19: .cfa -8 + ^ x20: .cfa -16 + ^ x21: .cfa -32 + ^ .ra: .cfa -40 + ^ x29: .cfa -48 + ^
STACK CFI 8d8bc .cfa: sp 48 +
STACK CFI 8d8c8 .cfa: sp 0 +
STACK CFI 8d8cc .cfa: sp 48 +
STACK CFI 8d8d8 .cfa: sp 0 +
STACK CFI 8d8dc .cfa: x29 48 +
STACK CFI INIT 8e72c 16c .cfa: sp 0 +
STACK CFI 8e730 .cfa: sp 64 +
STACK CFI 8e740 .cfa: x29 64 + x19: .cfa -8 + ^ x20: .cfa -16 + ^ x21: .cfa -24 + ^ x22: .cfa -32 + ^ x23: .cfa -48 + ^ .ra: .cfa -56 + ^ x29: .cfa -64 + ^
STACK CFI 8e840 .cfa: sp 64 +
STACK CFI 8e850 .cfa: sp 0 +
STACK CFI 8e854 .cfa: x29 64 +
STACK CFI INIT 8e898 16c .cfa: sp 0 +
STACK CFI 8e89c .cfa: sp 48 +
STACK CFI 8e8a8 .cfa: x29 48 + x19: .cfa -8 + ^ x20: .cfa -16 + ^ x21: .cfa -24 + ^ x22: .cfa -32 + ^ .ra: .cfa -40 + ^ x29: .cfa -48 + ^
STACK CFI 8e9f4 .cfa: sp 48 +
STACK CFI 8ea00 .cfa: sp 0 +
STACK CFI INIT 8ea04 1cc .cfa: sp 0 +
STACK CFI 8ea08 .cfa: sp 96 +
STACK CFI 8ea1c .cfa: x29 64 + x19: .cfa -8 + ^ x20: .cfa -16 + ^ x21: .cfa -24 + ^ x22: .cfa -32 + ^ x23: .cfa -40 + ^ x24: .cfa -48 + ^ .ra: .cfa -56 + ^ x29: .cfa -64 + ^
STACK CFI 8eb60 .cfa: sp 96 +
STACK CFI 8eb74 .cfa: sp 0 +
STACK CFI 8eb78 .cfa: x29 64 +
STACK CFI INIT 90a4c 27c .cfa: sp 0 +
STACK CFI 90a50 .cfa: sp 16 +
STACK CFI 90a54 .cfa: x29 16 + .ra: .cfa -8 + ^ x29: .cfa -16 + ^
STACK CFI 90b4c .cfa: sp 16 +
STACK CFI 90b50 .cfa: sp 0 +
STACK CFI 90b54 .cfa: x29 16 +
STACK CFI INIT 90cc8 158 .cfa: sp 0 +
STACK CFI 90ccc .cfa: sp 112 +
STACK CFI 90ce8 .cfa: x29 96 + x19: .cfa -8 + ^ x20: .cfa -16 + ^ x21: .cfa -24 + ^ x22: .cfa -32 + ^ x23: .cfa -40 + ^ x24: .cfa -48 + ^ x25: .cfa -56 + ^ x26: .cfa -64 + ^ x27: .cfa -72 + ^ x28: .cfa -80 + ^ .ra: .cfa -88 + ^ x29: .cfa -96 + ^
STACK CFI 90dd0 .cfa: sp 112 +
STACK CFI 90dd4 .cfa: x29 96 +
STACK CFI 90ddc .cfa: sp 112 +
STACK CFI 90df8 .cfa: sp 0 +
STACK CFI 90dfc .cfa: x29 96 +
STACK CFI 90e1c .cfa: sp 112 +
STACK CFI INIT 90e20 d44 .cfa: sp 0 +
STACK CFI 90e24 .cfa: sp 192 +
STACK CFI 90e40 .cfa: x29 96 + x19: .cfa -8 + ^ x20: .cfa -16 + ^ x21: .cfa -24 + ^ x22: .cfa -32 + ^ x23: .cfa -40 + ^ x24: .cfa -48 + ^ x25: .cfa -56 + ^ x26: .cfa -64 + ^ x27: .cfa -72 + ^ x28: .cfa -80 + ^ .ra: .cfa -88 + ^ x29: .cfa -96 + ^
STACK CFI 91b24 .cfa: sp 192 +
STACK CFI 91b40 .cfa: sp 0 +
STACK CFI 91b44 .cfa: x29 96 +
STACK CFI INIT 91b64 ef4 .cfa: sp 0 +
STACK CFI 91b68 .cfa: sp 288 +
STACK CFI 91b84 .cfa: x29 96 + x19: .cfa -8 + ^ x20: .cfa -16 + ^ x21: .cfa -24 + ^ x22: .cfa -32 + ^ x23: .cfa -40 + ^ x24: .cfa -48 + ^ x25: .cfa -56 + ^ x26: .cfa -64 + ^ x27: .cfa -72 + ^ x28: .cfa -80 + ^ .ra: .cfa -88 + ^ x29: .cfa -96 + ^
STACK CFI 92a18 .cfa: sp 288 +
STACK CFI 92a34 .cfa: sp 0 +
STACK CFI 92a38 .cfa: x29 96 +
STACK CFI INIT 92a58 550 .cfa: sp 0 +
STACK CFI 92a5c .cfa: sp 144 +
STACK CFI 92a78 .cfa: x29 96 + x19: .cfa -8 + ^ x20: .cfa -16 + ^ x21: .cfa -24 + ^ x22: .cfa -32 + ^ x23: .cfa -40 + ^ x24: .cfa -48 + ^ x25: .cfa -56 + ^ x26: .cfa -64 + ^ x27: .cfa -72 + ^ x28: .cfa -80 + ^ .ra: .cfa -88 + ^ x29: .cfa -96 + ^
STACK CFI 92f84 .cfa: sp 144 +
STACK CFI 92fa0 .cfa: sp 0 +
STACK CFI 92fa4 .cfa: x29 96 +
STACK CFI INIT 93920 ed8 .cfa: sp 0 +
STACK CFI 93924 .cfa: sp 224 +
STACK CFI 93940 .cfa: x29 96 + x19: .cfa -8 + ^ x20: .cfa -16 + ^ x21: .cfa -24 + ^ x22: .cfa -32 + ^ x23: .cfa -40 + ^ x24: .cfa -48 + ^ x25: .cfa -56 + ^ x26: .cfa -64 + ^ x27: .cfa -72 + ^ x28: .cfa -80 + ^ .ra: .cfa -88 + ^ x29: .cfa -96 + ^
STACK CFI 947d4 .cfa: sp 224 +
STACK CFI 947f0 .cfa: sp 0 +
STACK CFI 947f4 .cfa: x29 96 +
STACK CFI INIT 947f8 1b8 .cfa: sp 0 +
STACK CFI INIT 41dc0 88 .cfa: sp 0 +
STACK CFI 41dc4 .cfa: sp 32 +
STACK CFI 41dcc .cfa: x29 32 + x19: .cfa -8 + ^ x20: .cfa -16 + ^ .ra: .cfa -24 + ^ x29: .cfa -32 + ^
STACK CFI 41e14 .cfa: sp 32 +
STACK CFI 41e1c .cfa: sp 0 +
STACK CFI 41e20 .cfa: x29 32 +
STACK CFI 41e28 .cfa: sp 32 +
STACK CFI 41e30 .cfa: sp 0 +
STACK CFI 41e34 .cfa: x29 32 +
STACK CFI INIT 41e48 a0 .cfa: sp 0 +
STACK CFI 41e4c .cfa: sp 32 +
STACK CFI 41e54 .cfa: x29 32 + x19: .cfa -8 + ^ x20: .cfa -16 + ^ .ra: .cfa -24 + ^ x29: .cfa -32 + ^
STACK CFI 41eb4 .cfa: sp 32 +
STACK CFI 41ebc .cfa: sp 0 +
STACK CFI 41ec0 .cfa: x29 32 +
STACK CFI 41ec8 .cfa: sp 32 +
STACK CFI 41ed0 .cfa: sp 0 +
STACK CFI 41ed4 .cfa: x29 32 +
STACK CFI INIT 41ee8 d4 .cfa: sp 0 +
STACK CFI 41eec .cfa: sp 96 +
STACK CFI 41ef8 .cfa: x29 32 + x19: .cfa -8 + ^ x20: .cfa -16 + ^ .ra: .cfa -24 + ^ x29: .cfa -32 + ^
STACK CFI 41f74 .cfa: sp 96 +
STACK CFI 41f80 .cfa: sp 0 +
STACK CFI 41f84 .cfa: x29 32 +
STACK CFI INIT 41fbc c8 .cfa: sp 0 +
STACK CFI 41fc0 .cfa: sp 64 +
STACK CFI 41fd0 .cfa: x29 64 + x19: .cfa -8 + ^ x20: .cfa -16 + ^ x21: .cfa -24 + ^ x22: .cfa -32 + ^ x23: .cfa -40 + ^ x24: .cfa -48 + ^ .ra: .cfa -56 + ^ x29: .cfa -64 + ^
STACK CFI 4204c .cfa: sp 64 +
STACK CFI 4205c .cfa: sp 0 +
STACK CFI 42060 .cfa: x29 64 +
STACK CFI INIT 42444 50 .cfa: sp 0 +
STACK CFI 42448 .cfa: sp 32 +
STACK CFI 42450 .cfa: x29 32 + x19: .cfa -8 + ^ x20: .cfa -16 + ^ .ra: .cfa -24 + ^ x29: .cfa -32 + ^
STACK CFI INIT 425c8 a00c .cfa: sp 0 +
STACK CFI 425cc .cfa: sp 96 +
STACK CFI 425e4 .cfa: x29 96 + x19: .cfa -8 + ^ x20: .cfa -16 + ^ x21: .cfa -24 + ^ x22: .cfa -32 + ^ x23: .cfa -40 + ^ x24: .cfa -48 + ^ x25: .cfa -56 + ^ x26: .cfa -64 + ^ x27: .cfa -72 + ^ x28: .cfa -80 + ^ .ra: .cfa -88 + ^ x29: .cfa -96 + ^
STACK CFI 4b350 .cfa: sp 96 +
STACK CFI 4b368 .cfa: sp 0 +
STACK CFI 4b36c .cfa: x29 96 +
STACK CFI INIT 4c5d4 5a4 .cfa: sp 0 +
STACK CFI 4c5d8 .cfa: sp 240 +
STACK CFI 4c5f4 .cfa: x29 96 + x19: .cfa -8 + ^ x20: .cfa -16 + ^ x21: .cfa -24 + ^ x22: .cfa -32 + ^ x23: .cfa -40 + ^ x24: .cfa -48 + ^ x25: .cfa -56 + ^ x26: .cfa -64 + ^ x27: .cfa -80 + ^ .ra: .cfa -88 + ^ x29: .cfa -96 + ^
STACK CFI 4ca60 .cfa: sp 240 +
STACK CFI 4ca7c .cfa: sp 0 +
STACK CFI 4ca80 .cfa: x29 96 +
STACK CFI INIT 4cb78 4d4 .cfa: sp 0 +
STACK CFI 4cb7c .cfa: sp 240 +
STACK CFI 4cb98 .cfa: x29 96 + x19: .cfa -8 + ^ x20: .cfa -16 + ^ x21: .cfa -24 + ^ x22: .cfa -32 + ^ x23: .cfa -40 + ^ x24: .cfa -48 + ^ x25: .cfa -56 + ^ x26: .cfa -64 + ^ x27: .cfa -80 + ^ .ra: .cfa -88 + ^ x29: .cfa -96 + ^
STACK CFI 4cf5c .cfa: sp 240 +
STACK CFI 4cf78 .cfa: sp 0 +
STACK CFI 4cf7c .cfa: x29 96 +
STACK CFI INIT 4d088 5f8 .cfa: sp 0 +
STACK CFI 4d08c .cfa: sp 256 +
STACK CFI 4d0a4 .cfa: x29 80 + x19: .cfa -8 + ^ x20: .cfa -16 + ^ x21: .cfa -24 + ^ x22: .cfa -32 + ^ x23: .cfa -40 + ^ x24: .cfa -48 + ^ x25: .cfa -56 + ^ x26: .cfa -64 + ^ .ra: .cfa -72 + ^ x29: .cfa -80 + ^
STACK CFI 4d4b0 .cfa: sp 256 +
STACK CFI 4d4c8 .cfa: sp 0 +
STACK CFI 4d4cc .cfa: x29 80 +
STACK CFI INIT 4d760 cc .cfa: sp 0 +
STACK CFI 4d764 .cfa: sp 32 +
STACK CFI 4d76c .cfa: x29 32 + x19: .cfa -8 + ^ x20: .cfa -16 + ^ .ra: .cfa -24 + ^ x29: .cfa -32 + ^
STACK CFI 4d774 .cfa: sp 32 +
STACK CFI 4d77c .cfa: sp 0 +
STACK CFI 4d780 .cfa: x29 32 +
STACK CFI INIT 4d94c 1f4 .cfa: sp 0 +
STACK CFI 4d950 .cfa: sp 128 +
STACK CFI 4d96c .cfa: x29 96 + x19: .cfa -8 + ^ x20: .cfa -16 + ^ x21: .cfa -24 + ^ x22: .cfa -32 + ^ x23: .cfa -40 + ^ x24: .cfa -48 + ^ x25: .cfa -56 + ^ x26: .cfa -64 + ^ x27: .cfa -72 + ^ x28: .cfa -80 + ^ .ra: .cfa -88 + ^ x29: .cfa -96 + ^
STACK CFI 4daf8 .cfa: sp 128 +
STACK CFI 4db14 .cfa: sp 0 +
STACK CFI 4db18 .cfa: x29 96 +
STACK CFI INIT 4dea4 228 .cfa: sp 0 +
STACK CFI 4dea8 .cfa: sp 128 +
STACK CFI 4dec0 .cfa: x29 80 + x19: .cfa -8 + ^ x20: .cfa -16 + ^ x21: .cfa -24 + ^ x22: .cfa -32 + ^ x23: .cfa -40 + ^ x24: .cfa -48 + ^ x25: .cfa -64 + ^ .ra: .cfa -72 + ^ x29: .cfa -80 + ^
STACK CFI 4e05c .cfa: sp 128 +
STACK CFI 4e074 .cfa: sp 0 +
STACK CFI 4e078 .cfa: x29 80 +
STACK CFI INIT 4e684 bc .cfa: sp 0 +
STACK CFI 4e688 .cfa: sp 48 +
STACK CFI 4e694 .cfa: x29 32 + x19: .cfa -8 + ^ x20: .cfa -16 + ^ .ra: .cfa -24 + ^ x29: .cfa -32 + ^
STACK CFI 4e6f8 .cfa: sp 48 +
STACK CFI 4e704 .cfa: sp 0 +
STACK CFI 4e708 .cfa: x29 32 +
STACK CFI INIT 4e740 ec .cfa: sp 0 +
STACK CFI 4e744 .cfa: sp 48 +
STACK CFI 4e750 .cfa: x29 48 + x19: .cfa -8 + ^ x20: .cfa -16 + ^ x21: .cfa -24 + ^ x22: .cfa -32 + ^ .ra: .cfa -40 + ^ x29: .cfa -48 + ^
STACK CFI 4e79c .cfa: sp 48 +
STACK CFI 4e7a8 .cfa: sp 0 +
STACK CFI 4e7ac .cfa: x29 48 +
STACK CFI 4e7b0 .cfa: sp 48 +
STACK CFI 4e7bc .cfa: sp 0 +
STACK CFI 4e7c0 .cfa: x29 48 +
STACK CFI INIT 4eae4 ec .cfa: sp 0 +
STACK CFI 4eae8 .cfa: sp 48 +
STACK CFI 4eaf4 .cfa: x29 48 + x19: .cfa -8 + ^ x20: .cfa -16 + ^ x21: .cfa -24 + ^ x22: .cfa -32 + ^ .ra: .cfa -40 + ^ x29: .cfa -48 + ^
STACK CFI 4eb40 .cfa: sp 48 +
STACK CFI 4eb4c .cfa: sp 0 +
STACK CFI 4eb50 .cfa: x29 48 +
STACK CFI 4eb54 .cfa: sp 48 +
STACK CFI 4eb60 .cfa: sp 0 +
STACK CFI 4eb64 .cfa: x29 48 +
STACK CFI INIT 4ebd0 120 .cfa: sp 0 +
STACK CFI 4ebd4 .cfa: sp 96 +
STACK CFI 4ebe4 .cfa: x29 48 + x19: .cfa -8 + ^ x20: .cfa -16 + ^ x21: .cfa -32 + ^ .ra: .cfa -40 + ^ x29: .cfa -48 + ^
STACK CFI 4ec6c .cfa: sp 96 +
STACK CFI 4ec7c .cfa: sp 0 +
STACK CFI 4ec80 .cfa: x29 48 +
STACK CFI INIT 4ecf0 260 .cfa: sp 0 +
STACK CFI 4ecf4 .cfa: sp 160 +
STACK CFI 4ed0c .cfa: x29 80 + x19: .cfa -8 + ^ x20: .cfa -16 + ^ x21: .cfa -24 + ^ x22: .cfa -32 + ^ x23: .cfa -40 + ^ x24: .cfa -48 + ^ x25: .cfa -56 + ^ x26: .cfa -64 + ^ .ra: .cfa -72 + ^ x29: .cfa -80 + ^
STACK CFI 4ee20 .cfa: sp 160 +
STACK CFI 4ee38 .cfa: sp 0 +
STACK CFI 4ee3c .cfa: x29 80 +
STACK CFI INIT 4ef50 100 .cfa: sp 0 +
STACK CFI 4ef54 .cfa: sp 32 +
STACK CFI 4ef5c .cfa: x29 32 + x19: .cfa -8 + ^ x20: .cfa -16 + ^ .ra: .cfa -24 + ^ x29: .cfa -32 + ^
STACK CFI 4efd0 .cfa: sp 32 +
STACK CFI 4efd8 .cfa: sp 0 +
STACK CFI 4efdc .cfa: x29 32 +
STACK CFI INIT 4f054 108 .cfa: sp 0 +
STACK CFI 4f058 .cfa: sp 64 +
STACK CFI 4f068 .cfa: x29 48 + x19: .cfa -8 + ^ x20: .cfa -16 + ^ x21: .cfa -32 + ^ .ra: .cfa -40 + ^ x29: .cfa -48 + ^
STACK CFI 4f110 .cfa: sp 64 +
STACK CFI 4f120 .cfa: sp 0 +
STACK CFI 4f124 .cfa: x29 48 +
STACK CFI INIT 4f288 acc .cfa: sp 0 +
STACK CFI 4f28c .cfa: sp 240 +
STACK CFI 4f2a4 .cfa: x29 80 + x19: .cfa -8 + ^ x20: .cfa -16 + ^ x21: .cfa -24 + ^ x22: .cfa -32 + ^ x23: .cfa -40 + ^ x24: .cfa -48 + ^ x25: .cfa -64 + ^ .ra: .cfa -72 + ^ x29: .cfa -80 + ^
STACK CFI 4fa28 .cfa: sp 240 +
STACK CFI 4fa40 .cfa: sp 0 +
STACK CFI 4fa44 .cfa: x29 80 +
STACK CFI INIT 4fd58 1f8 .cfa: sp 0 +
STACK CFI 4fd5c .cfa: sp 192 +
STACK CFI 4fd70 .cfa: x29 64 + x19: .cfa -8 + ^ x20: .cfa -16 + ^ x21: .cfa -24 + ^ x22: .cfa -32 + ^ x23: .cfa -48 + ^ .ra: .cfa -56 + ^ x29: .cfa -64 + ^
STACK CFI 4fee0 .cfa: sp 192 +
STACK CFI 4fef4 .cfa: sp 0 +
STACK CFI 4fef8 .cfa: x29 64 +
STACK CFI INIT 4ff50 e0 .cfa: sp 0 +
STACK CFI 4ff54 .cfa: sp 80 +
STACK CFI 4ff68 .cfa: x29 64 + x19: .cfa -8 + ^ x20: .cfa -16 + ^ x21: .cfa -24 + ^ x22: .cfa -32 + ^ x23: .cfa -48 + ^ .ra: .cfa -56 + ^ x29: .cfa -64 + ^
STACK CFI 4ffe0 .cfa: sp 80 +
STACK CFI 4fff4 .cfa: sp 0 +
STACK CFI 4fff8 .cfa: x29 64 +
STACK CFI INIT 50030 184 .cfa: sp 0 +
STACK CFI 50034 .cfa: sp 144 +
STACK CFI 5004c .cfa: x29 80 + x19: .cfa -8 + ^ x20: .cfa -16 + ^ x21: .cfa -24 + ^ x22: .cfa -32 + ^ x23: .cfa -40 + ^ x24: .cfa -48 + ^ x25: .cfa -56 + ^ x26: .cfa -64 + ^ .ra: .cfa -72 + ^ x29: .cfa -80 + ^
STACK CFI 5014c .cfa: sp 144 +
STACK CFI 50164 .cfa: sp 0 +
STACK CFI 50168 .cfa: x29 80 +
STACK CFI INIT 501bc 184 .cfa: sp 0 +
STACK CFI 501c0 .cfa: sp 144 +
STACK CFI 501d8 .cfa: x29 80 + x19: .cfa -8 + ^ x20: .cfa -16 + ^ x21: .cfa -24 + ^ x22: .cfa -32 + ^ x23: .cfa -40 + ^ x24: .cfa -48 + ^ x25: .cfa -56 + ^ x26: .cfa -64 + ^ .ra: .cfa -72 + ^ x29: .cfa -80 + ^
STACK CFI 502d8 .cfa: sp 144 +
STACK CFI 502f0 .cfa: sp 0 +
STACK CFI 502f4 .cfa: x29 80 +
STACK CFI INIT 503c8 26a8 .cfa: sp 0 +
STACK CFI 503cc .cfa: sp 96 +
STACK CFI 503e4 .cfa: x29 96 + x19: .cfa -8 + ^ x20: .cfa -16 + ^ x21: .cfa -24 + ^ x22: .cfa -32 + ^ x23: .cfa -40 + ^ x24: .cfa -48 + ^ x25: .cfa -56 + ^ x26: .cfa -64 + ^ x27: .cfa -72 + ^ x28: .cfa -80 + ^ .ra: .cfa -88 + ^ x29: .cfa -96 + ^
STACK CFI 523dc .cfa: sp 96 +
STACK CFI 523f4 .cfa: sp 0 +
STACK CFI 523f8 .cfa: x29 96 +
STACK CFI INIT 52a70 284 .cfa: sp 0 +
STACK CFI 52a74 .cfa: sp 176 +
STACK CFI 52a84 .cfa: x29 48 + x19: .cfa -8 + ^ x20: .cfa -16 + ^ x21: .cfa -24 + ^ x22: .cfa -32 + ^ .ra: .cfa -40 + ^ x29: .cfa -48 + ^
STACK CFI 52c28 .cfa: sp 176 +
STACK CFI 52c38 .cfa: sp 0 +
STACK CFI 52c3c .cfa: x29 48 +
STACK CFI INIT 52cf4 284 .cfa: sp 0 +
STACK CFI 52cf8 .cfa: sp 176 +
STACK CFI 52d08 .cfa: x29 48 + x19: .cfa -8 + ^ x20: .cfa -16 + ^ x21: .cfa -24 + ^ x22: .cfa -32 + ^ .ra: .cfa -40 + ^ x29: .cfa -48 + ^
STACK CFI 52eac .cfa: sp 176 +
STACK CFI 52ebc .cfa: sp 0 +
STACK CFI 52ec0 .cfa: x29 48 +
STACK CFI INIT 52f78 120 .cfa: sp 0 +
STACK CFI 52f7c .cfa: sp 96 +
STACK CFI 52f8c .cfa: x29 48 + x19: .cfa -8 + ^ x20: .cfa -16 + ^ x21: .cfa -32 + ^ .ra: .cfa -40 + ^ x29: .cfa -48 + ^
STACK CFI 53014 .cfa: sp 96 +
STACK CFI 53024 .cfa: sp 0 +
STACK CFI 53028 .cfa: x29 48 +
STACK CFI INIT 53098 180 .cfa: sp 0 +
STACK CFI 5309c .cfa: sp 128 +
STACK CFI 530b0 .cfa: x29 64 + x19: .cfa -8 + ^ x20: .cfa -16 + ^ x21: .cfa -24 + ^ x22: .cfa -32 + ^ x23: .cfa -48 + ^ .ra: .cfa -56 + ^ x29: .cfa -64 + ^
STACK CFI 53164 .cfa: sp 128 +
STACK CFI 53178 .cfa: sp 0 +
STACK CFI 5317c .cfa: x29 64 +
STACK CFI INIT 53330 94 .cfa: sp 0 +
STACK CFI 53334 .cfa: sp 32 +
STACK CFI 5333c .cfa: x29 32 + x19: .cfa -8 + ^ x20: .cfa -16 + ^ .ra: .cfa -24 + ^ x29: .cfa -32 + ^
STACK CFI 53384 .cfa: sp 32 +
STACK CFI 5338c .cfa: sp 0 +
STACK CFI 53390 .cfa: x29 32 +
STACK CFI 533a4 .cfa: sp 32 +
STACK CFI 533ac .cfa: sp 0 +
STACK CFI 533b0 .cfa: x29 32 +
STACK CFI INIT 538b0 94 .cfa: sp 0 +
STACK CFI 538b4 .cfa: sp 32 +
STACK CFI 538bc .cfa: x29 32 + x19: .cfa -8 + ^ x20: .cfa -16 + ^ .ra: .cfa -24 + ^ x29: .cfa -32 + ^
STACK CFI 53904 .cfa: sp 32 +
STACK CFI 5390c .cfa: sp 0 +
STACK CFI 53910 .cfa: x29 32 +
STACK CFI 53924 .cfa: sp 32 +
STACK CFI 5392c .cfa: sp 0 +
STACK CFI 53930 .cfa: x29 32 +
STACK CFI INIT 57a60 ec .cfa: sp 0 +
STACK CFI 57a64 .cfa: sp 48 +
STACK CFI 57a70 .cfa: x29 48 + x19: .cfa -8 + ^ x20: .cfa -16 + ^ x21: .cfa -24 + ^ x22: .cfa -32 + ^ .ra: .cfa -40 + ^ x29: .cfa -48 + ^
STACK CFI 57abc .cfa: sp 48 +
STACK CFI 57ac8 .cfa: sp 0 +
STACK CFI 57acc .cfa: x29 48 +
STACK CFI 57ad0 .cfa: sp 48 +
STACK CFI 57adc .cfa: sp 0 +
STACK CFI 57ae0 .cfa: x29 48 +
STACK CFI INIT 57c0c 20 .cfa: sp 0 +
STACK CFI 57c10 .cfa: sp 16 +
STACK CFI 57c14 .cfa: x29 16 + .ra: .cfa -8 + ^ x29: .cfa -16 + ^
STACK CFI 57c20 .cfa: sp 16 +
STACK CFI 57c24 .cfa: sp 0 +
STACK CFI 57c28 .cfa: x29 16 +
STACK CFI INIT 57c2c c4 .cfa: sp 0 +
STACK CFI 57c30 .cfa: sp 48 +
STACK CFI 57c3c .cfa: x29 48 + x19: .cfa -8 + ^ x20: .cfa -16 + ^ x21: .cfa -32 + ^ .ra: .cfa -40 + ^ x29: .cfa -48 + ^
STACK CFI 57ca8 .cfa: sp 48 +
STACK CFI 57cb4 .cfa: sp 0 +
STACK CFI 57cb8 .cfa: x29 48 +
STACK CFI 57cdc .cfa: sp 48 +
STACK CFI 57ce8 .cfa: sp 0 +
STACK CFI 57cec .cfa: x29 48 +
STACK CFI INIT 57cf0 84 .cfa: sp 0 +
STACK CFI 57cf4 .cfa: sp 48 +
STACK CFI 57d00 .cfa: x29 48 + x19: .cfa -8 + ^ x20: .cfa -16 + ^ x21: .cfa -32 + ^ .ra: .cfa -40 + ^ x29: .cfa -48 + ^
STACK CFI 57d20 .cfa: sp 48 +
STACK CFI 57d2c .cfa: sp 0 +
STACK CFI 57d30 .cfa: x29 48 +
STACK CFI 57d50 .cfa: sp 48 +
STACK CFI 57d5c .cfa: sp 0 +
STACK CFI 57d60 .cfa: sp 48 +
STACK CFI 57d6c .cfa: sp 0 +
STACK CFI 57d70 .cfa: x29 48 +
STACK CFI INIT 57d74 94 .cfa: sp 0 +
STACK CFI 57d78 .cfa: sp 48 +
STACK CFI 57d84 .cfa: x29 48 + x19: .cfa -8 + ^ x20: .cfa -16 + ^ x21: .cfa -24 + ^ x22: .cfa -32 + ^ .ra: .cfa -40 + ^ x29: .cfa -48 + ^
STACK CFI 57d8c .cfa: sp 48 +
STACK CFI 57d98 .cfa: sp 0 +
STACK CFI 57d9c .cfa: x29 48 +
STACK CFI 57dc0 .cfa: sp 48 +
STACK CFI 57dcc .cfa: sp 0 +
STACK CFI 57dd0 .cfa: x29 48 +
STACK CFI 57df4 .cfa: sp 48 +
STACK CFI 57e00 .cfa: sp 0 +
STACK CFI 57e04 .cfa: x29 48 +
STACK CFI INIT 57e08 48 .cfa: sp 0 +
STACK CFI 57e0c .cfa: sp 32 +
STACK CFI 57e14 .cfa: x29 32 + x19: .cfa -8 + ^ x20: .cfa -16 + ^ .ra: .cfa -24 + ^ x29: .cfa -32 + ^
STACK CFI 57e1c .cfa: sp 32 +
STACK CFI 57e24 .cfa: sp 0 +
STACK CFI 57e28 .cfa: x29 32 +
STACK CFI INIT 57e50 bc .cfa: sp 0 +
STACK CFI 57e54 .cfa: sp 48 +
STACK CFI 57e60 .cfa: x29 48 + x19: .cfa -8 + ^ x20: .cfa -16 + ^ x21: .cfa -32 + ^ .ra: .cfa -40 + ^ x29: .cfa -48 + ^
STACK CFI 57e74 .cfa: sp 48 +
STACK CFI 57e80 .cfa: sp 0 +
STACK CFI 57e84 .cfa: x29 48 +
STACK CFI 57e9c .cfa: sp 48 +
STACK CFI 57ea8 .cfa: sp 0 +
STACK CFI 57eac .cfa: x29 48 +
STACK CFI 57ee8 .cfa: sp 48 +
STACK CFI 57ef4 .cfa: sp 0 +
STACK CFI 57ef8 .cfa: x29 48 +
STACK CFI INIT 57f0c f0 .cfa: sp 0 +
STACK CFI 57f10 .cfa: sp 48 +
STACK CFI 57f1c .cfa: x29 48 + x19: .cfa -8 + ^ x20: .cfa -16 + ^ x21: .cfa -32 + ^ .ra: .cfa -40 + ^ x29: .cfa -48 + ^
STACK CFI 57f64 .cfa: sp 48 +
STACK CFI 57f70 .cfa: sp 0 +
STACK CFI 57f74 .cfa: x29 48 +
STACK CFI 57f8c .cfa: sp 48 +
STACK CFI 57f98 .cfa: sp 0 +
STACK CFI 57f9c .cfa: x29 48 +
STACK CFI 57fd8 .cfa: sp 48 +
STACK CFI 57fe4 .cfa: sp 0 +
STACK CFI 57fe8 .cfa: x29 48 +
STACK CFI INIT 57ffc 150 .cfa: sp 0 +
STACK CFI 58000 .cfa: sp 144 +
STACK CFI 58010 .cfa: x29 48 + x19: .cfa -8 + ^ x20: .cfa -16 + ^ x21: .cfa -24 + ^ x22: .cfa -32 + ^ .ra: .cfa -40 + ^ x29: .cfa -48 + ^
STACK CFI 580ec .cfa: sp 144 +
STACK CFI 580fc .cfa: sp 0 +
STACK CFI 58100 .cfa: x29 48 +
STACK CFI INIT 5814c c8 .cfa: sp 0 +
STACK CFI 58150 .cfa: sp 64 +
STACK CFI 58160 .cfa: x29 64 + x19: .cfa -8 + ^ x20: .cfa -16 + ^ x21: .cfa -24 + ^ x22: .cfa -32 + ^ x23: .cfa -40 + ^ x24: .cfa -48 + ^ .ra: .cfa -56 + ^ x29: .cfa -64 + ^
STACK CFI 581dc .cfa: sp 64 +
STACK CFI 581ec .cfa: sp 0 +
STACK CFI 581f0 .cfa: x29 64 +
STACK CFI INIT 58214 c8 .cfa: sp 0 +
STACK CFI 58218 .cfa: sp 64 +
STACK CFI 58228 .cfa: x29 64 + x19: .cfa -8 + ^ x20: .cfa -16 + ^ x21: .cfa -24 + ^ x22: .cfa -32 + ^ x23: .cfa -40 + ^ x24: .cfa -48 + ^ .ra: .cfa -56 + ^ x29: .cfa -64 + ^
STACK CFI 582a4 .cfa: sp 64 +
STACK CFI 582b4 .cfa: sp 0 +
STACK CFI 582b8 .cfa: x29 64 +
STACK CFI INIT 58380 1fc .cfa: sp 0 +
STACK CFI 58384 .cfa: sp 80 +
STACK CFI 58394 .cfa: x29 48 + x19: .cfa -8 + ^ x20: .cfa -16 + ^ x21: .cfa -32 + ^ .ra: .cfa -40 + ^ x29: .cfa -48 + ^
STACK CFI 584b0 .cfa: sp 80 +
STACK CFI 584c0 .cfa: sp 0 +
STACK CFI 584c4 .cfa: x29 48 +
STACK CFI INIT 58ad8 bc .cfa: sp 0 +
STACK CFI 58adc .cfa: sp 64 +
STACK CFI 58ae8 .cfa: x29 32 + x19: .cfa -8 + ^ x20: .cfa -16 + ^ .ra: .cfa -24 + ^ x29: .cfa -32 + ^
STACK CFI 58b54 .cfa: sp 64 +
STACK CFI 58b60 .cfa: sp 0 +
STACK CFI 58b64 .cfa: x29 32 +
STACK CFI INIT 58d64 c8 .cfa: sp 0 +
STACK CFI 58d68 .cfa: sp 96 +
STACK CFI 58d78 .cfa: x29 48 + x19: .cfa -8 + ^ x20: .cfa -16 + ^ x21: .cfa -32 + ^ .ra: .cfa -40 + ^ x29: .cfa -48 + ^
STACK CFI 58e10 .cfa: sp 96 +
STACK CFI 58e20 .cfa: sp 0 +
STACK CFI 58e24 .cfa: x29 48 +
STACK CFI INIT 58ef0 90 .cfa: sp 0 +
STACK CFI 58ef4 .cfa: sp 64 +
STACK CFI 58f00 .cfa: x29 32 + x19: .cfa -8 + ^ x20: .cfa -16 + ^ .ra: .cfa -24 + ^ x29: .cfa -32 + ^
STACK CFI 58f40 .cfa: sp 64 +
STACK CFI 58f4c .cfa: sp 0 +
STACK CFI 58f50 .cfa: x29 32 +
STACK CFI INIT 58f80 1a4 .cfa: sp 0 +
STACK CFI 58f84 .cfa: sp 128 +
STACK CFI 58f98 .cfa: x29 64 + x19: .cfa -8 + ^ x20: .cfa -16 + ^ x21: .cfa -24 + ^ x22: .cfa -32 + ^ x23: .cfa -40 + ^ x24: .cfa -48 + ^ .ra: .cfa -56 + ^ x29: .cfa -64 + ^
STACK CFI 590b0 .cfa: sp 128 +
STACK CFI 590c4 .cfa: sp 0 +
STACK CFI 590c8 .cfa: x29 64 +
STACK CFI INIT 59364 1a8 .cfa: sp 0 +
STACK CFI 59368 .cfa: sp 80 +
STACK CFI 5937c .cfa: x29 80 + x19: .cfa -8 + ^ x20: .cfa -16 + ^ x21: .cfa -24 + ^ x22: .cfa -32 + ^ x23: .cfa -40 + ^ x24: .cfa -48 + ^ x25: .cfa -64 + ^ .ra: .cfa -72 + ^ x29: .cfa -80 + ^
STACK CFI 59470 .cfa: sp 80 +
STACK CFI 59484 .cfa: sp 0 +
STACK CFI 59488 .cfa: x29 80 +
STACK CFI INIT 5950c 84 .cfa: sp 0 +
STACK CFI 59510 .cfa: sp 32 +
STACK CFI 59518 .cfa: x29 32 + x19: .cfa -8 + ^ x20: .cfa -16 + ^ .ra: .cfa -24 + ^ x29: .cfa -32 + ^
STACK CFI 59550 .cfa: sp 32 +
STACK CFI 59558 .cfa: sp 0 +
STACK CFI 5955c .cfa: x29 32 +
STACK CFI 59570 .cfa: sp 32 +
STACK CFI 59578 .cfa: sp 0 +
STACK CFI 5957c .cfa: x29 32 +
STACK CFI INIT 595c4 1ec .cfa: sp 0 +
STACK CFI 595c8 .cfa: sp 96 +
STACK CFI 595dc .cfa: x29 64 + x19: .cfa -8 + ^ x20: .cfa -16 + ^ x21: .cfa -24 + ^ x22: .cfa -32 + ^ x23: .cfa -48 + ^ .ra: .cfa -56 + ^ x29: .cfa -64 + ^
STACK CFI 59734 .cfa: sp 96 +
STACK CFI 59748 .cfa: sp 0 +
STACK CFI 5974c .cfa: x29 64 +
STACK CFI INIT 597b0 154 .cfa: sp 0 +
STACK CFI 597b4 .cfa: sp 48 +
STACK CFI 597c0 .cfa: x29 48 + x19: .cfa -8 + ^ x20: .cfa -16 + ^ x21: .cfa -24 + ^ x22: .cfa -32 + ^ .ra: .cfa -40 + ^ x29: .cfa -48 + ^
STACK CFI 59858 .cfa: sp 48 +
STACK CFI 59864 .cfa: sp 0 +
STACK CFI 59868 .cfa: x29 48 +
STACK CFI INIT 59904 ac .cfa: sp 0 +
STACK CFI 59908 .cfa: sp 32 +
STACK CFI 59910 .cfa: x29 32 + x19: .cfa -8 + ^ x20: .cfa -16 + ^ .ra: .cfa -24 + ^ x29: .cfa -32 + ^
STACK CFI 59928 .cfa: sp 32 +
STACK CFI 59930 .cfa: sp 0 +
STACK CFI 59934 .cfa: x29 32 +
STACK CFI 5996c .cfa: sp 32 +
STACK CFI 59974 .cfa: sp 0 +
STACK CFI 59978 .cfa: x29 32 +
STACK CFI INIT 59a74 c0 .cfa: sp 0 +
STACK CFI 59a78 .cfa: sp 80 +
STACK CFI 59a84 .cfa: x29 32 + x19: .cfa -16 + ^ .ra: .cfa -24 + ^ x29: .cfa -32 + ^
STACK CFI 59ab4 .cfa: sp 80 +
STACK CFI 59ac0 .cfa: sp 0 +
STACK CFI 59ac4 .cfa: x29 32 +
STACK CFI INIT 59b3c 84 .cfa: sp 0 +
STACK CFI 59b40 .cfa: sp 32 +
STACK CFI 59b48 .cfa: x29 32 + x19: .cfa -8 + ^ x20: .cfa -16 + ^ .ra: .cfa -24 + ^ x29: .cfa -32 + ^
STACK CFI 59b80 .cfa: sp 32 +
STACK CFI 59b88 .cfa: sp 0 +
STACK CFI 59b8c .cfa: x29 32 +
STACK CFI 59ba0 .cfa: sp 32 +
STACK CFI 59ba8 .cfa: sp 0 +
STACK CFI 59bac .cfa: x29 32 +
STACK CFI INIT 59c04 1d4 .cfa: sp 0 +
STACK CFI 59c08 .cfa: sp 96 +
STACK CFI 59c1c .cfa: x29 64 + x19: .cfa -8 + ^ x20: .cfa -16 + ^ x21: .cfa -24 + ^ x22: .cfa -32 + ^ x23: .cfa -48 + ^ .ra: .cfa -56 + ^ x29: .cfa -64 + ^
STACK CFI 59d5c .cfa: sp 96 +
STACK CFI 59d70 .cfa: sp 0 +
STACK CFI 59d74 .cfa: x29 64 +
STACK CFI INIT 59dd8 94 .cfa: sp 0 +
STACK CFI 59ddc .cfa: sp 48 +
STACK CFI 59de8 .cfa: x29 48 + x19: .cfa -8 + ^ x20: .cfa -16 + ^ x21: .cfa -32 + ^ .ra: .cfa -40 + ^ x29: .cfa -48 + ^
STACK CFI 59e38 .cfa: sp 48 +
STACK CFI 59e44 .cfa: sp 0 +
STACK CFI 59e48 .cfa: x29 48 +
STACK CFI INIT 59e6c 3d4 .cfa: sp 0 +
STACK CFI 59e70 .cfa: sp 224 +
STACK CFI 59e88 .cfa: x29 80 + x19: .cfa -8 + ^ x20: .cfa -16 + ^ x21: .cfa -24 + ^ x22: .cfa -32 + ^ x23: .cfa -40 + ^ x24: .cfa -48 + ^ x25: .cfa -56 + ^ x26: .cfa -64 + ^ .ra: .cfa -72 + ^ x29: .cfa -80 + ^
STACK CFI 5a104 .cfa: sp 224 +
STACK CFI 5a11c .cfa: sp 0 +
STACK CFI 5a120 .cfa: x29 80 +
STACK CFI INIT 5a240 308 .cfa: sp 0 +
STACK CFI 5a244 .cfa: sp 160 +
STACK CFI 5a260 .cfa: x29 96 + x19: .cfa -8 + ^ x20: .cfa -16 + ^ x21: .cfa -24 + ^ x22: .cfa -32 + ^ x23: .cfa -40 + ^ x24: .cfa -48 + ^ x25: .cfa -56 + ^ x26: .cfa -64 + ^ x27: .cfa -72 + ^ x28: .cfa -80 + ^ .ra: .cfa -88 + ^ x29: .cfa -96 + ^
STACK CFI 5a4c0 .cfa: sp 160 +
STACK CFI 5a4dc .cfa: sp 0 +
STACK CFI 5a4e0 .cfa: x29 96 +
STACK CFI INIT 5a548 11c .cfa: sp 0 +
STACK CFI 5a54c .cfa: sp 64 +
STACK CFI 5a55c .cfa: x29 64 + x19: .cfa -8 + ^ x20: .cfa -16 + ^ x21: .cfa -24 + ^ x22: .cfa -32 + ^ x23: .cfa -40 + ^ x24: .cfa -48 + ^ .ra: .cfa -56 + ^ x29: .cfa -64 + ^
STACK CFI 5a5e0 .cfa: sp 64 +
STACK CFI 5a5f0 .cfa: sp 0 +
STACK CFI 5a5f4 .cfa: x29 64 +
STACK CFI INIT 5a664 298 .cfa: sp 0 +
STACK CFI 5a668 .cfa: sp 128 +
STACK CFI 5a680 .cfa: x29 80 + x19: .cfa -8 + ^ x20: .cfa -16 + ^ x21: .cfa -24 + ^ x22: .cfa -32 + ^ x23: .cfa -40 + ^ x24: .cfa -48 + ^ x25: .cfa -56 + ^ x26: .cfa -64 + ^ .ra: .cfa -72 + ^ x29: .cfa -80 + ^
STACK CFI 5a898 .cfa: sp 128 +
STACK CFI 5a8b0 .cfa: sp 0 +
STACK CFI 5a8b4 .cfa: x29 80 +
STACK CFI INIT 5a8fc 2e8 .cfa: sp 0 +
STACK CFI 5a900 .cfa: sp 192 +
STACK CFI 5a918 .cfa: x29 80 + x19: .cfa -8 + ^ x20: .cfa -16 + ^ x21: .cfa -24 + ^ x22: .cfa -32 + ^ x23: .cfa -40 + ^ x24: .cfa -48 + ^ x25: .cfa -64 + ^ .ra: .cfa -72 + ^ x29: .cfa -80 + ^
STACK CFI 5aacc .cfa: sp 192 +
STACK CFI 5aae4 .cfa: sp 0 +
STACK CFI 5aae8 .cfa: x29 80 +
STACK CFI INIT 5af3c 2b0 .cfa: sp 0 +
STACK CFI 5af40 .cfa: sp 112 +
STACK CFI 5af54 .cfa: x29 64 + x19: .cfa -8 + ^ x20: .cfa -16 + ^ x21: .cfa -24 + ^ x22: .cfa -32 + ^ x23: .cfa -40 + ^ x24: .cfa -48 + ^ .ra: .cfa -56 + ^ x29: .cfa -64 + ^
STACK CFI 5b160 .cfa: sp 112 +
STACK CFI 5b174 .cfa: sp 0 +
STACK CFI 5b178 .cfa: x29 64 +
STACK CFI INIT 5b230 594 .cfa: sp 0 +
STACK CFI 5b234 .cfa: sp 240 +
STACK CFI 5b250 .cfa: x29 96 + x19: .cfa -8 + ^ x20: .cfa -16 + ^ x21: .cfa -24 + ^ x22: .cfa -32 + ^ x23: .cfa -40 + ^ x24: .cfa -48 + ^ x25: .cfa -56 + ^ x26: .cfa -64 + ^ x27: .cfa -72 + ^ x28: .cfa -80 + ^ .ra: .cfa -88 + ^ x29: .cfa -96 + ^
STACK CFI 5b778 .cfa: sp 240 +
STACK CFI 5b794 .cfa: sp 0 +
STACK CFI 5b798 .cfa: x29 96 +
STACK CFI INIT 5b7c4 138 .cfa: sp 0 +
STACK CFI 5b7c8 .cfa: sp 96 +
STACK CFI 5b7d8 .cfa: x29 48 + x19: .cfa -8 + ^ x20: .cfa -16 + ^ x21: .cfa -32 + ^ .ra: .cfa -40 + ^ x29: .cfa -48 + ^
STACK CFI 5b860 .cfa: sp 96 +
STACK CFI 5b870 .cfa: sp 0 +
STACK CFI 5b874 .cfa: x29 48 +
STACK CFI INIT 5b8fc 294 .cfa: sp 0 +
STACK CFI 5b900 .cfa: sp 128 +
STACK CFI 5b918 .cfa: x29 80 + x19: .cfa -8 + ^ x20: .cfa -16 + ^ x21: .cfa -24 + ^ x22: .cfa -32 + ^ x23: .cfa -40 + ^ x24: .cfa -48 + ^ x25: .cfa -64 + ^ .ra: .cfa -72 + ^ x29: .cfa -80 + ^
STACK CFI 5bb14 .cfa: sp 128 +
STACK CFI 5bb2c .cfa: sp 0 +
STACK CFI 5bb30 .cfa: x29 80 +
STACK CFI INIT 5bb90 12c .cfa: sp 0 +
STACK CFI 5bb94 .cfa: sp 80 +
STACK CFI 5bba4 .cfa: x29 48 + x19: .cfa -8 + ^ x20: .cfa -16 + ^ x21: .cfa -32 + ^ .ra: .cfa -40 + ^ x29: .cfa -48 + ^
STACK CFI 5bc38 .cfa: sp 80 +
STACK CFI 5bc48 .cfa: sp 0 +
STACK CFI 5bc4c .cfa: x29 48 +
STACK CFI INIT 5bcbc 2f8 .cfa: sp 0 +
STACK CFI 5bcc0 .cfa: sp 176 +
STACK CFI 5bcdc .cfa: x29 96 + x19: .cfa -8 + ^ x20: .cfa -16 + ^ x21: .cfa -24 + ^ x22: .cfa -32 + ^ x23: .cfa -40 + ^ x24: .cfa -48 + ^ x25: .cfa -56 + ^ x26: .cfa -64 + ^ x27: .cfa -80 + ^ .ra: .cfa -88 + ^ x29: .cfa -96 + ^
STACK CFI 5bf30 .cfa: sp 176 +
STACK CFI 5bf4c .cfa: sp 0 +
STACK CFI 5bf50 .cfa: x29 96 +
STACK CFI INIT 5bfb4 128 .cfa: sp 0 +
STACK CFI 5bfb8 .cfa: sp 96 +
STACK CFI 5bfcc .cfa: x29 64 + x19: .cfa -8 + ^ x20: .cfa -16 + ^ x21: .cfa -24 + ^ x22: .cfa -32 + ^ x23: .cfa -48 + ^ .ra: .cfa -56 + ^ x29: .cfa -64 + ^
STACK CFI 5c034 .cfa: sp 96 +
STACK CFI 5c048 .cfa: sp 0 +
STACK CFI 5c04c .cfa: x29 64 +
STACK CFI 5c094 .cfa: sp 96 +
STACK CFI 5c0a8 .cfa: sp 0 +
STACK CFI 5c0ac .cfa: x29 64 +
STACK CFI INIT 5c238 5b4 .cfa: sp 0 +
STACK CFI 5c23c .cfa: sp 240 +
STACK CFI 5c254 .cfa: x29 80 + x19: .cfa -8 + ^ x20: .cfa -16 + ^ x21: .cfa -24 + ^ x22: .cfa -32 + ^ x23: .cfa -40 + ^ x24: .cfa -48 + ^ x25: .cfa -64 + ^ .ra: .cfa -72 + ^ x29: .cfa -80 + ^
STACK CFI 5c6b0 .cfa: sp 240 +
STACK CFI 5c6c8 .cfa: sp 0 +
STACK CFI 5c6cc .cfa: x29 80 +
STACK CFI INIT 5c7ec 178 .cfa: sp 0 +
STACK CFI 5c7f0 .cfa: sp 96 +
STACK CFI 5c808 .cfa: x29 96 + x19: .cfa -8 + ^ x20: .cfa -16 + ^ x21: .cfa -24 + ^ x22: .cfa -32 + ^ x23: .cfa -40 + ^ x24: .cfa -48 + ^ x25: .cfa -56 + ^ x26: .cfa -64 + ^ x27: .cfa -80 + ^ .ra: .cfa -88 + ^ x29: .cfa -96 + ^
STACK CFI 5c91c .cfa: sp 96 +
STACK CFI 5c934 .cfa: sp 0 +
STACK CFI 5c938 .cfa: x29 96 +
STACK CFI INIT 5cacc 10c .cfa: sp 0 +
STACK CFI 5cad0 .cfa: sp 112 +
STACK CFI 5cae8 .cfa: x29 80 + x19: .cfa -8 + ^ x20: .cfa -16 + ^ x21: .cfa -24 + ^ x22: .cfa -32 + ^ x23: .cfa -40 + ^ x24: .cfa -48 + ^ x25: .cfa -64 + ^ .ra: .cfa -72 + ^ x29: .cfa -80 + ^
STACK CFI 5cb74 .cfa: sp 112 +
STACK CFI 5cb8c .cfa: sp 0 +
STACK CFI 5cb90 .cfa: x29 80 +
STACK CFI INIT 5cbd8 9c0 .cfa: sp 0 +
STACK CFI 5cbdc .cfa: sp 496 +
STACK CFI 5cbf8 .cfa: x29 96 + x19: .cfa -8 + ^ x20: .cfa -16 + ^ x21: .cfa -24 + ^ x22: .cfa -32 + ^ x23: .cfa -40 + ^ x24: .cfa -48 + ^ x25: .cfa -56 + ^ x26: .cfa -64 + ^ x27: .cfa -72 + ^ x28: .cfa -80 + ^ .ra: .cfa -88 + ^ x29: .cfa -96 + ^
STACK CFI 5d4a4 .cfa: sp 496 +
STACK CFI 5d4c0 .cfa: sp 0 +
STACK CFI 5d4c4 .cfa: x29 96 +
STACK CFI INIT 5d598 430 .cfa: sp 0 +
STACK CFI 5d59c .cfa: sp 128 +
STACK CFI 5d5b4 .cfa: x29 80 + x19: .cfa -8 + ^ x20: .cfa -16 + ^ x21: .cfa -24 + ^ x22: .cfa -32 + ^ x23: .cfa -40 + ^ x24: .cfa -48 + ^ x25: .cfa -56 + ^ x26: .cfa -64 + ^ .ra: .cfa -72 + ^ x29: .cfa -80 + ^
STACK CFI 5d95c .cfa: sp 128 +
STACK CFI 5d974 .cfa: sp 0 +
STACK CFI 5d978 .cfa: x29 80 +
STACK CFI INIT 5d9c8 1ac .cfa: sp 0 +
STACK CFI 5d9cc .cfa: sp 48 +
STACK CFI 5d9d8 .cfa: x29 48 + x19: .cfa -8 + ^ x20: .cfa -16 + ^ x21: .cfa -32 + ^ .ra: .cfa -40 + ^ x29: .cfa -48 + ^
STACK CFI 5dabc .cfa: sp 48 +
STACK CFI 5dac8 .cfa: sp 0 +
STACK CFI 5dacc .cfa: x29 48 +
STACK CFI 5dae0 .cfa: sp 48 +
STACK CFI 5daec .cfa: sp 0 +
STACK CFI 5daf0 .cfa: x29 48 +
STACK CFI INIT 5e0d8 b4 .cfa: sp 0 +
STACK CFI 5e0dc .cfa: sp 48 +
STACK CFI 5e0e8 .cfa: x29 48 + x19: .cfa -8 + ^ x20: .cfa -16 + ^ x21: .cfa -24 + ^ x22: .cfa -32 + ^ .ra: .cfa -40 + ^ x29: .cfa -48 + ^
STACK CFI 5e150 .cfa: sp 48 +
STACK CFI 5e15c .cfa: sp 0 +
STACK CFI 5e160 .cfa: x29 48 +
STACK CFI INIT 5e1f4 2c4 .cfa: sp 0 +
STACK CFI 5e1f8 .cfa: sp 128 +
