MODULE Linux arm64 2BBDE49C7D9FECB25A5C1B2B824E74CC0 Geode.android64.so
INFO CODE_ID 9CE4BD2B9F7DB2EC5A5C1B2B824E74CC2EDF045D
INFO GENERATOR mozilla/dump_syms 2.2.2
PUBLIC 208f50 0 __on_dlclose
PUBLIC 208f68 0 __on_dlclose_late
PUBLIC 208f70 0 __atexit_handler_wrapper
PUBLIC 208f84 0 atexit
PUBLIC 208fa0 0 pthread_atfork
FUNC 208fb0 48 0 SHA3::SHA3(SHA3::Bits)
FUNC 208ff8 28 0 SHA3::reset()
FUNC 209020 398 0 SHA3::processBlock(void const*)
FUNC 2093b8 e4 0 SHA3::add(void const*, unsigned long)
FUNC 20949c 54 0 SHA3::processBuffer()
FUNC 2094f0 360 0 SHA3::getHash()
FUNC 209850 50 0 SHA3::operator()(void const*, unsigned long)
FUNC 2098a0 68 0 SHA3::operator()(std::__ndk1::basic_string<char, std::__ndk1::char_traits<char>, std::__ndk1::allocator<char> > const&)
FUNC 209908 1c4 0 calculateSHA3_256(ghc::filesystem::path const&)
FUNC 209acc 104 0 std::__ndk1::basic_ifstream<char, std::__ndk1::char_traits<char> >::basic_ifstream(std::__ndk1::basic_string<char, std::__ndk1::char_traits<char>, std::__ndk1::allocator<char> > const&, unsigned int)
FUNC 209bd0 54 0 std::__ndk1::basic_ifstream<char, std::__ndk1::char_traits<char> >::~basic_ifstream()
FUNC 209c24 18c 0 calculateSHA256(ghc::filesystem::path const&)
FUNC 209db0 318 0 calculateSHA256Text(ghc::filesystem::path const&)
FUNC 20a0c8 4 0 calculateHash(ghc::filesystem::path const&)
PUBLIC 20a0cc 0 __clang_call_terminate
FUNC 20a0dc 14 0 std::__ndk1::basic_string<char, std::__ndk1::char_traits<char>, std::__ndk1::allocator<char> >::__throw_length_error[abi:v170000]() const
FUNC 20a0f0 f4 0 std::__ndk1::basic_string<char, std::__ndk1::char_traits<char>, std::__ndk1::allocator<char> >::__shrink_or_extend[abi:v170000](unsigned long)
FUNC 20a1e4 50 0 std::__ndk1::__throw_length_error[abi:v170000](char const*)
FUNC 20a234 30 0 std::length_error::length_error[abi:v170000](char const*)
FUNC 20a264 60 0 {virtual override thunk({virtual offset(0, -24)}, std::__ndk1::basic_ifstream<char, std::__ndk1::char_traits<char> >::~basic_ifstream())}
FUNC 20a2c4 5c 0 std::__ndk1::basic_ifstream<char, std::__ndk1::char_traits<char> >::~basic_ifstream()
FUNC 20a320 68 0 {virtual override thunk({virtual offset(0, -24)}, std::__ndk1::basic_ifstream<char, std::__ndk1::char_traits<char> >::~basic_ifstream())}
FUNC 20a388 bc 0 std::__ndk1::basic_filebuf<char, std::__ndk1::char_traits<char> >::~basic_filebuf()
FUNC 20a444 24 0 std::__ndk1::basic_filebuf<char, std::__ndk1::char_traits<char> >::~basic_filebuf()
FUNC 20a468 f0 0 std::__ndk1::basic_filebuf<char, std::__ndk1::char_traits<char> >::imbue(std::__ndk1::locale const&)
FUNC 20a558 f8 0 std::__ndk1::basic_filebuf<char, std::__ndk1::char_traits<char> >::setbuf(char*, long)
FUNC 20a650 c0 0 std::__ndk1::basic_filebuf<char, std::__ndk1::char_traits<char> >::seekoff(long long, std::__ndk1::ios_base::seekdir, unsigned int)
FUNC 20a710 70 0 std::__ndk1::basic_filebuf<char, std::__ndk1::char_traits<char> >::seekpos(std::__ndk1::fpos<mbstate_t>, unsigned int)
FUNC 20a780 208 0 std::__ndk1::basic_filebuf<char, std::__ndk1::char_traits<char> >::sync()
FUNC 20a988 27c 0 std::__ndk1::basic_filebuf<char, std::__ndk1::char_traits<char> >::underflow()
FUNC 20ac04 60 0 std::__ndk1::basic_filebuf<char, std::__ndk1::char_traits<char> >::pbackfail(int)
FUNC 20ac64 21c 0 std::__ndk1::basic_filebuf<char, std::__ndk1::char_traits<char> >::overflow(int)
FUNC 20ae80 34 0 std::__ndk1::__throw_bad_cast[abi:v170000]()
FUNC 20aeb4 14 0 std::__ndk1::vector<unsigned char, std::__ndk1::allocator<unsigned char> >::__throw_length_error[abi:v170000]() const
FUNC 20aec8 138 0 std::__ndk1::basic_filebuf<char, std::__ndk1::char_traits<char> >::basic_filebuf()
FUNC 20b000 128 0 std::__ndk1::basic_filebuf<char, std::__ndk1::char_traits<char> >::open(char const*, unsigned int)
FUNC 20b128 328 0 picosha2::impl::hash256_impl<std::__ndk1::istreambuf_iterator<char, std::__ndk1::char_traits<char> >, std::__ndk1::__wrap_iter<unsigned char*> >(std::__ndk1::istreambuf_iterator<char, std::__ndk1::char_traits<char> >, std::__ndk1::istreambuf_iterator<char, std::__ndk1::char_traits<char> >, std::__ndk1::__wrap_iter<unsigned char*>, std::__ndk1::__wrap_iter<unsigned char*>, int, std::__ndk1::input_iterator_tag)
FUNC 20b450 144 0 picosha2::hash256_one_by_one::process<std::__ndk1::__wrap_iter<unsigned char*> >(std::__ndk1::__wrap_iter<unsigned char*>, std::__ndk1::__wrap_iter<unsigned char*>)
FUNC 20b594 14c 0 picosha2::hash256_one_by_one::finish()
FUNC 20b6e0 304 0 picosha2::hash256_one_by_one::get_hash_bytes<std::__ndk1::__wrap_iter<unsigned char*> >(std::__ndk1::__wrap_iter<unsigned char*>, std::__ndk1::__wrap_iter<unsigned char*>) const
FUNC 20b9e4 3a0 0 picosha2::detail::hash256_block<unsigned long*, std::__ndk1::__wrap_iter<unsigned char*> >(unsigned long*, std::__ndk1::__wrap_iter<unsigned char*>, std::__ndk1::__wrap_iter<unsigned char*>)
FUNC 20bd84 1a4 0 std::__ndk1::back_insert_iterator<std::__ndk1::vector<unsigned char, std::__ndk1::allocator<unsigned char> > >::operator=[abi:v170000](unsigned char const&)
FUNC 20bf28 3a0 0 picosha2::detail::hash256_block<unsigned long*, unsigned char*>(unsigned long*, unsigned char*, unsigned char*)
FUNC 20c2c8 1c4 0 picosha2::bytes_to_hex_string<std::__ndk1::__wrap_iter<unsigned char*> >(std::__ndk1::__wrap_iter<unsigned char*>, std::__ndk1::__wrap_iter<unsigned char*>, std::__ndk1::basic_string<char, std::__ndk1::char_traits<char>, std::__ndk1::allocator<char> >&)
FUNC 20c48c 164 0 picosha2::output_hex<std::__ndk1::__wrap_iter<unsigned char*> >(std::__ndk1::__wrap_iter<unsigned char*>, std::__ndk1::__wrap_iter<unsigned char*>, std::__ndk1::basic_ostream<char, std::__ndk1::char_traits<char> >&)
FUNC 20c5f0 84 0 std::__ndk1::basic_ostringstream<char, std::__ndk1::char_traits<char>, std::__ndk1::allocator<char> >::~basic_ostringstream()
FUNC 20c674 8c 0 std::__ndk1::basic_ostringstream<char, std::__ndk1::char_traits<char>, std::__ndk1::allocator<char> >::~basic_ostringstream()
FUNC 20c700 8c 0 {virtual override thunk({virtual offset(0, -24)}, std::__ndk1::basic_ostringstream<char, std::__ndk1::char_traits<char>, std::__ndk1::allocator<char> >::~basic_ostringstream())}
FUNC 20c78c 94 0 {virtual override thunk({virtual offset(0, -24)}, std::__ndk1::basic_ostringstream<char, std::__ndk1::char_traits<char>, std::__ndk1::allocator<char> >::~basic_ostringstream())}
FUNC 20c820 40 0 std::__ndk1::basic_stringbuf<char, std::__ndk1::char_traits<char>, std::__ndk1::allocator<char> >::~basic_stringbuf()
FUNC 20c860 48 0 std::__ndk1::basic_stringbuf<char, std::__ndk1::char_traits<char>, std::__ndk1::allocator<char> >::~basic_stringbuf()
FUNC 20c8a8 100 0 std::__ndk1::basic_stringbuf<char, std::__ndk1::char_traits<char>, std::__ndk1::allocator<char> >::seekoff(long long, std::__ndk1::ios_base::seekdir, unsigned int)
FUNC 20c9a8 14 0 std::__ndk1::basic_stringbuf<char, std::__ndk1::char_traits<char>, std::__ndk1::allocator<char> >::seekpos(std::__ndk1::fpos<mbstate_t>, unsigned int)
FUNC 20c9bc 50 0 std::__ndk1::basic_stringbuf<char, std::__ndk1::char_traits<char>, std::__ndk1::allocator<char> >::underflow()
FUNC 20ca0c 70 0 std::__ndk1::basic_stringbuf<char, std::__ndk1::char_traits<char>, std::__ndk1::allocator<char> >::pbackfail(int)
FUNC 20ca7c 1a8 0 std::__ndk1::basic_stringbuf<char, std::__ndk1::char_traits<char>, std::__ndk1::allocator<char> >::overflow(int)
FUNC 20cc24 200 0 std::__ndk1::basic_stringbuf<char, std::__ndk1::char_traits<char>, std::__ndk1::allocator<char> >::str() const
FUNC 20ce24 1b8 0 std::__ndk1::getline[abi:v170000]<char, std::__ndk1::char_traits<char>, std::__ndk1::allocator<char> >(std::__ndk1::basic_istream<char, std::__ndk1::char_traits<char> >, std::__ndk1::basic_string<std::__ndk1::basic_istream, char, std::__ndk1::allocator<char> >&, std::__ndk1::basic_istream)
FUNC 20cfdc 124 0 picosha2::hash256_one_by_one::process<std::__ndk1::__wrap_iter<char*> >(std::__ndk1::__wrap_iter<char*>, std::__ndk1::__wrap_iter<char*>)
FUNC 20d100 1c0 0 std::__ndk1::__copy_loop<std::__ndk1::_ClassicAlgPolicy>::operator()[abi:v170000]<char*, std::__ndk1::__copy_loop<std::__ndk1::_ClassicAlgPolicy>::operator()[abi:v170000], std::__ndk1::back_insert_iterator<std::__ndk1::vector<unsigned char, std::__ndk1::allocator<unsigned char> > > >(std::__ndk1::pair, std::__ndk1::__copy_loop<std::__ndk1::_ClassicAlgPolicy>::operator()[abi:v170000], char*) const
FUNC 20d2c0 50 0 gd::string::string()
FUNC 20d310 7c 0 gd::string::string(gd::string const&)
FUNC 20d38c 70 0 gd::string::operator std::__ndk1::basic_string_view<char, std::__ndk1::char_traits<char> >() const
FUNC 20d3fc 64 0 gd::string::string(char const*)
FUNC 20d460 68 0 gd::string::string(std::__ndk1::basic_string<char, std::__ndk1::char_traits<char>, std::__ndk1::allocator<char> > const&)
FUNC 20d4c8 60 0 gd::string::~string()
FUNC 20d528 5c 0 gd::string::clear()
FUNC 20d584 94 0 gd::string::operator=(gd::string const&)
FUNC 20d618 a4 0 gd::string::operator=(gd::string&&)
FUNC 20d6bc 7c 0 gd::string::operator=(char const*)
FUNC 20d738 84 0 gd::string::operator=(std::__ndk1::basic_string<char, std::__ndk1::char_traits<char>, std::__ndk1::allocator<char> > const&)
FUNC 20d7bc d8 0 gd::string::at(unsigned long)
FUNC 20d894 4c 0 gd::string::size() const
FUNC 20d8e0 30 0 std::out_of_range::out_of_range[abi:v170000](char const*)
FUNC 20d910 4 0 gd::string::at(unsigned long) const
FUNC 20d914 54 0 gd::string::operator[](unsigned long)
FUNC 20d968 54 0 gd::string::operator[](unsigned long) const
FUNC 20d9bc 4c 0 gd::string::data()
FUNC 20da08 4c 0 gd::string::data() const
FUNC 20da54 4c 0 gd::string::c_str() const
FUNC 20daa0 4c 0 gd::string::capacity() const
FUNC 20daec 54 0 gd::string::empty() const
FUNC 20db40 c8 0 gd::string::operator==(gd::string const&) const
FUNC 20dc08 ac 0 gd::string::operator==(std::__ndk1::basic_string_view<char, std::__ndk1::char_traits<char> >) const
FUNC 20dcb4 bc 0 gd::string::operator<=>(std::__ndk1::basic_string_view<char, std::__ndk1::char_traits<char> >) const
FUNC 20dd70 d8 0 gd::string::operator<=>(gd::string const&) const
FUNC 20de48 dc 0 gd::string::operator std::__ndk1::basic_string<char, std::__ndk1::char_traits<char>, std::__ndk1::allocator<char> >() const
FUNC 20df24 70 0 cocos2d::AnchorLayoutOptions::create()
FUNC 20df94 8 0 cocos2d::AnchorLayoutOptions::getAnchor() const
FUNC 20df9c c 0 cocos2d::AnchorLayoutOptions::getOffset() const
FUNC 20dfa8 8 0 cocos2d::AnchorLayoutOptions::setAnchor(cocos2d::Anchor)
FUNC 20dfb0 c 0 cocos2d::AnchorLayoutOptions::setOffset(cocos2d::CCPoint const&)
FUNC 20dfbc 68 0 cocos2d::AnchorLayout::create()
FUNC 20e024 234 0 cocos2d::AnchorLayout::apply(cocos2d::CCNode*)
FUNC 20e258 20 0 geode::cocos::CCArrayExt<cocos2d::CCNode*>::~CCArrayExt()
FUNC 20e278 34 0 cocos2d::AnchorLayout::getSizeHint(cocos2d::CCNode*) const
FUNC 20e2ac cc 0 cocos2d::AnchorLayout::getAnchoredPosition(cocos2d::CCNode*, cocos2d::Anchor, cocos2d::CCPoint const&)
FUNC 20e378 8 0 cocos2d::CCCopying::copyWithZone(cocos2d::CCZone*)
FUNC 20e380 24 0 cocos2d::AnchorLayout::~AnchorLayout()
FUNC 20e3a4 4 0 cocos2d::CCObject::update(float)
FUNC 20e3a8 24 0 cocos2d::AnchorLayoutOptions::~AnchorLayoutOptions()
FUNC 20e3cc e0 0 geode::cast::traverseTypeinfoFor(void*, geode::cast::ClassTypeinfoType const*, char const*)
FUNC 20e4ac 5c 0 cocos2d::AxisLayout::nextGap(cocos2d::AxisLayoutOptions const*, cocos2d::AxisLayoutOptions const*) const
FUNC 20e508 8 0 cocos2d::AxisLayoutOptions::getNextGap() const
FUNC 20e510 8 0 cocos2d::AxisLayoutOptions::getPrevGap() const
FUNC 20e518 28 0 cocos2d::AxisLayout::shouldAutoScale(cocos2d::AxisLayoutOptions const*) const
FUNC 20e540 8 0 cocos2d::AxisLayoutOptions::getAutoScale() const
FUNC 20e548 1b8 0 cocos2d::AxisLayout::minScaleForPrio(cocos2d::CCArray*, int) const
FUNC 20e700 18c 0 cocos2d::AxisLayout::maxScaleForPrio(cocos2d::CCArray*, int) const
FUNC 20e88c 4c0 0 cocos2d::AxisLayout::fitInRow(cocos2d::CCNode*, cocos2d::CCArray*, std::__ndk1::pair<int, int> const&, bool, float, float, int) const
FUNC 20ed4c 140 0 nodeAxis(cocos2d::CCNode*, cocos2d::Axis, float)
FUNC 20ee8c 4a0 0 cocos2d::AxisLayout::fitInRow(cocos2d::CCNode*, cocos2d::CCArray*, std::__ndk1::pair<int, int> const&, bool, float, float, int) const::$_0::operator()(cocos2d::CCArray*) const
FUNC 20f32c a8 0 cocos2d::AxisLayout::canTryScalingDown(cocos2d::CCArray*, int&, float&, float, std::__ndk1::pair<int, int> const&) const
FUNC 20f3d4 b40 0 cocos2d::AxisLayout::tryFitLayout(cocos2d::CCNode*, cocos2d::CCArray*, std::__ndk1::pair<int, int> const&, bool, float, float, int, unsigned long) const
FUNC 20ff14 3c8 0 cocos2d::AxisLayout::Row::accountSpacers(cocos2d::Axis, float, float)
FUNC 2102dc 20 0 geode::cocos::CCArrayExt<cocos2d::AxisLayout::Row*>::~CCArrayExt()
FUNC 2102fc 31c 0 cocos2d::AxisLayout::apply(cocos2d::CCNode*)
FUNC 210618 8 0 cocos2d::AxisLayoutOptions::getScalePriority() const
FUNC 210620 130 0 cocos2d::AxisLayout::getSizeHint(cocos2d::CCNode*) const
FUNC 210750 68 0 cocos2d::AxisLayout::AxisLayout(cocos2d::Axis)
FUNC 2107b8 8 0 cocos2d::AxisLayout::getAxis() const
FUNC 2107c0 8 0 cocos2d::AxisLayout::getCrossAxisAlignment() const
FUNC 2107c8 8 0 cocos2d::AxisLayout::getCrossAxisLineAlignment() const
FUNC 2107d0 8 0 cocos2d::AxisLayout::getAxisAlignment() const
FUNC 2107d8 8 0 cocos2d::AxisLayout::getGap() const
FUNC 2107e0 8 0 cocos2d::AxisLayout::getAxisReverse() const
FUNC 2107e8 8 0 cocos2d::AxisLayout::getCrossAxisReverse() const
FUNC 2107f0 8 0 cocos2d::AxisLayout::getAutoScale() const
FUNC 2107f8 8 0 cocos2d::AxisLayout::getGrowCrossAxis() const
FUNC 210800 8 0 cocos2d::AxisLayout::getCrossAxisOverflow() const
FUNC 210808 8 0 cocos2d::AxisLayout::getAutoGrowAxis() const
FUNC 210810 8 0 cocos2d::AxisLayout::setAxis(cocos2d::Axis)
FUNC 210818 8 0 cocos2d::AxisLayout::setCrossAxisAlignment(cocos2d::AxisAlignment)
FUNC 210820 8 0 cocos2d::AxisLayout::setCrossAxisLineAlignment(cocos2d::AxisAlignment)
FUNC 210828 8 0 cocos2d::AxisLayout::setAxisAlignment(cocos2d::AxisAlignment)
FUNC 210830 8 0 cocos2d::AxisLayout::setGap(float)
FUNC 210838 8 0 cocos2d::AxisLayout::setAxisReverse(bool)
FUNC 210840 8 0 cocos2d::AxisLayout::setCrossAxisReverse(bool)
FUNC 210848 8 0 cocos2d::AxisLayout::setCrossAxisOverflow(bool)
FUNC 210850 8 0 cocos2d::AxisLayout::setAutoScale(bool)
FUNC 210858 8 0 cocos2d::AxisLayout::setGrowCrossAxis(bool)
FUNC 210860 10 0 cocos2d::AxisLayout::setAutoGrowAxis(std::__ndk1::optional<float>)
FUNC 210870 50 0 cocos2d::AxisLayout::create(cocos2d::Axis)
FUNC 2108c0 5c 0 cocos2d::RowLayout::RowLayout()
FUNC 21091c 48 0 cocos2d::RowLayout::create()
FUNC 210964 58 0 cocos2d::ColumnLayout::ColumnLayout()
FUNC 2109bc 48 0 cocos2d::ColumnLayout::create()
FUNC 210a04 a4 0 cocos2d::AxisLayoutOptions::create()
FUNC 210aa8 8 0 cocos2d::AxisLayoutOptions::getMaxScale() const
FUNC 210ab0 8 0 cocos2d::AxisLayoutOptions::getMinScale() const
FUNC 210ab8 8 0 cocos2d::AxisLayoutOptions::getRelativeScale() const
FUNC 210ac0 8 0 cocos2d::AxisLayoutOptions::getLength() const
FUNC 210ac8 8 0 cocos2d::AxisLayoutOptions::getBreakLine() const
FUNC 210ad0 8 0 cocos2d::AxisLayoutOptions::getSameLine() const
FUNC 210ad8 8 0 cocos2d::AxisLayoutOptions::setMaxScale(float)
FUNC 210ae0 8 0 cocos2d::AxisLayoutOptions::setMinScale(float)
FUNC 210ae8 8 0 cocos2d::AxisLayoutOptions::setRelativeScale(float)
FUNC 210af0 8 0 cocos2d::AxisLayoutOptions::setAutoScale(std::__ndk1::optional<bool>)
FUNC 210af8 10 0 cocos2d::AxisLayoutOptions::setLength(std::__ndk1::optional<float>)
FUNC 210b08 10 0 cocos2d::AxisLayoutOptions::setPrevGap(std::__ndk1::optional<float>)
FUNC 210b18 10 0 cocos2d::AxisLayoutOptions::setNextGap(std::__ndk1::optional<float>)
FUNC 210b28 8 0 cocos2d::AxisLayoutOptions::setBreakLine(bool)
FUNC 210b30 8 0 cocos2d::AxisLayoutOptions::setSameLine(bool)
FUNC 210b38 8 0 cocos2d::AxisLayoutOptions::setScalePriority(int)
FUNC 210b40 24 0 cocos2d::AxisLayout::~AxisLayout()
FUNC 210b64 24 0 cocos2d::RowLayout::~RowLayout()
FUNC 210b88 24 0 cocos2d::ColumnLayout::~ColumnLayout()
FUNC 210bac 24 0 cocos2d::AxisLayout::Row::~Row()
FUNC 210bd0 14 0 std::__ndk1::vector<cocos2d::SpacerNode*, std::__ndk1::allocator<cocos2d::SpacerNode*> >::__throw_length_error[abi:v170000]() const
FUNC 210be4 34 0 std::__throw_bad_array_new_length([abi:v170000], void)
FUNC 210c18 24 0 cocos2d::AxisLayoutOptions::~AxisLayoutOptions()
FUNC 210c3c 20 0 cocos2d::CCArray::firstObject()
FUNC 210c5c c 0 cocos2d::CCArray::removeFirstObject(bool)
FUNC 210c68 34 0 cocos2d::CCArray::shallowCopy()
FUNC 210c9c 50 0 std::__ndk1::vector<cocos2d::CCTexturePack, std::__ndk1::allocator<cocos2d::CCTexturePack> >::~vector[abi:v170000]()
FUNC 210cec 7c 0 std::__ndk1::vector<std::__ndk1::basic_string<char, std::__ndk1::char_traits<char>, std::__ndk1::allocator<char> >, std::__ndk1::allocator<std::__ndk1::basic_string<char, std::__ndk1::char_traits<char>, std::__ndk1::allocator<char> > > >::~vector[abi:v170000]()
FUNC 210d68 594 0 cocos2d::CCFileUtils::addTexturePack(cocos2d::CCTexturePack const&)
FUNC 2112fc 8c 0 cocos2d::CCFileUtils::addTexturePack(cocos2d::CCTexturePack const&)::$_0::~$_0()
FUNC 211388 354 0 std::__ndk1::vector<cocos2d::CCTexturePack, std::__ndk1::allocator<cocos2d::CCTexturePack> >::insert(std::__ndk1::__wrap_iter<cocos2d::CCTexturePack const*>, cocos2d::CCTexturePack const&)
FUNC 2116dc 604 0 cocos2d::CCFileUtils::updatePaths()
FUNC 211ce0 418 0 cocos2d::CCFileUtils::removeTexturePack(std::__ndk1::basic_string<char, std::__ndk1::char_traits<char>, std::__ndk1::allocator<char> > const&)
FUNC 2120f8 138 0 cocos2d::CCFileUtils::addPriorityPath(char const*)
FUNC 212230 374 0 std::__ndk1::vector<std::__ndk1::basic_string<char, std::__ndk1::char_traits<char>, std::__ndk1::allocator<char> >, std::__ndk1::allocator<std::__ndk1::basic_string<char, std::__ndk1::char_traits<char>, std::__ndk1::allocator<char> > > >::insert(std::__ndk1::__wrap_iter<std::__ndk1::basic_string<char, std::__ndk1::char_traits<char>, std::__ndk1::allocator<char> > const*>, std::__ndk1::basic_string<char, std::__ndk1::char_traits<char>, std::__ndk1::allocator<char> >&&)
FUNC 2125a4 70 0 __cxx_global_var_init.2
FUNC 212614 20 0 geode::modifier::ModifyBase<geode::modifier::ModifyDerive<FileUtilsUpdatePaths, cocos2d::CCFileUtils> >::~ModifyBase()
FUNC 212634 e8 0 std::__ndk1::vector<cocos2d::CCTexturePack, std::__ndk1::allocator<cocos2d::CCTexturePack> >::__destroy_vector::operator()[abi:v170000]()
FUNC 21271c 110 0 std::__ndk1::vector<std::__ndk1::basic_string<char, std::__ndk1::char_traits<char>, std::__ndk1::allocator<char> >, std::__ndk1::allocator<std::__ndk1::basic_string<char, std::__ndk1::char_traits<char>, std::__ndk1::allocator<char> > > >::vector(std::__ndk1::vector<std::__ndk1::basic_string<char, std::__ndk1::char_traits<char>, std::__ndk1::allocator<char> >, std::__ndk1::allocator<std::__ndk1::basic_string<char, std::__ndk1::char_traits<char>, std::__ndk1::allocator<char> > > > const&)
FUNC 21282c 8c 0 std::__ndk1::__exception_guard<std::__ndk1::vector<std::__ndk1::basic_string<char, std::__ndk1::char_traits<char>, std::__ndk1::allocator<char> >, std::__ndk1::allocator<std::__ndk1::basic_string<char, std::__ndk1::char_traits<char>, std::__ndk1::allocator<char> > > >::__destroy_vector>::~__exception_guard[abi:v170000]()
FUNC 2128b8 14 0 std::__ndk1::vector<std::__ndk1::basic_string<char, std::__ndk1::char_traits<char>, std::__ndk1::allocator<char> >, std::__ndk1::allocator<std::__ndk1::basic_string<char, std::__ndk1::char_traits<char>, std::__ndk1::allocator<char> > > >::__throw_length_error[abi:v170000]() const
FUNC 2128cc 150 0 std::__ndk1::__uninitialized_allocator_copy[abi:v170000]<std::__ndk1::allocator<std::__ndk1::basic_string<char, std::__ndk1::char_traits<char>, std::__ndk1::__uninitialized_allocator_copy[abi:v170000]<char> > >, std::__ndk1::__uninitialized_allocator_copy[abi:v170000]<char>*, std::__ndk1::allocator<std::__ndk1::basic_string<char, std::__ndk1::char_traits<char>, std::__ndk1::__uninitialized_allocator_copy[abi:v170000]<char> > >, std::__ndk1::allocator<std::__ndk1::basic_string<char, std::__ndk1::char_traits<char>, std::__ndk1::__uninitialized_allocator_copy[abi:v170000]<char> > > >(std::__ndk1::allocator<std::__ndk1::basic_string<char, std::__ndk1::char_traits<char>, std::__ndk1::__uninitialized_allocator_copy[abi:v170000]<char> > >&, std::__ndk1::__uninitialized_allocator_copy[abi:v170000]<char>*, std::__ndk1::allocator<std::__ndk1::basic_string<char, std::__ndk1::char_traits<char>, std::__ndk1::__uninitialized_allocator_copy[abi:v170000]<char> > >, std::__ndk1::__uninitialized_allocator_copy[abi:v170000]<char>*)
FUNC 212a1c 5c 0 std::__ndk1::__exception_guard<std::__ndk1::_AllocatorDestroyRangeReverse<std::__ndk1::allocator<std::__ndk1::basic_string<char, std::__ndk1::char_traits<char>, std::__ndk1::allocator<char> > >, std::__ndk1::basic_string<char, std::__ndk1::char_traits<char>, std::__ndk1::allocator<char> >*> >::~__exception_guard[abi:v170000]()
FUNC 212a78 1dc 0 std::__ndk1::__split_buffer<cocos2d::CCTexturePack, std::__ndk1::allocator<cocos2d::CCTexturePack>&>::push_back[abi:v170000](cocos2d::CCTexturePack const&)
FUNC 212c54 c4 0 std::__ndk1::__split_buffer<cocos2d::CCTexturePack, std::__ndk1::allocator<cocos2d::CCTexturePack>&>::~__split_buffer()
FUNC 212d18 c8 0 std::__ndk1::construct_at[abi:v170000]<cocos2d::CCTexturePack, cocos2d const&, cocos2d*>(cocos2d::CCTexturePack, cocos2d const&)
FUNC 212de0 10c 0 std::__ndk1::__move_backward_loop<std::__ndk1::_ClassicAlgPolicy>::operator()[abi:v170000]<cocos2d::CCTexturePack*, cocos2d::CCTexturePack, cocos2d::CCTexturePack>(std::__ndk1::pair, cocos2d::CCTexturePack, cocos2d::CCTexturePack*) const
FUNC 212eec 20c 0 std::__ndk1::vector<std::__ndk1::basic_string<char, std::__ndk1::char_traits<char>, std::__ndk1::allocator<char> >, std::__ndk1::allocator<std::__ndk1::basic_string<char, std::__ndk1::char_traits<char>, std::__ndk1::allocator<char> > > >::assign<std::__ndk1::basic_string<char, std::__ndk1::char_traits<char>, std::__ndk1::allocator<char> >*, 0>(std::__ndk1::basic_string<char, std::__ndk1::char_traits<char>, std::__ndk1::allocator<char> >*, std::__ndk1::basic_string<char, std::__ndk1::char_traits<char>, std::__ndk1::allocator<char> >*)
FUNC 2130f8 14 0 std::__ndk1::vector<cocos2d::CCTexturePack, std::__ndk1::allocator<cocos2d::CCTexturePack> >::__throw_length_error[abi:v170000]() const
FUNC 21310c f0 0 std::__ndk1::__move_loop<std::__ndk1::_ClassicAlgPolicy>::operator()[abi:v170000]<cocos2d::CCTexturePack*, cocos2d::CCTexturePack, cocos2d::CCTexturePack>(std::__ndk1::pair, cocos2d::CCTexturePack, cocos2d::CCTexturePack*) const
FUNC 2131fc 21c 0 std::__ndk1::__split_buffer<std::__ndk1::basic_string<char, std::__ndk1::char_traits<char>, std::__ndk1::allocator<char> >, std::__ndk1::allocator<std::__ndk1::basic_string<char, std::__ndk1::char_traits<char>, std::__ndk1::allocator<char> > >&>::push_back(std::__ndk1::basic_string<char, std::__ndk1::char_traits<char>, std::__ndk1::allocator<char> >&&)
FUNC 213418 68 0 std::__ndk1::__split_buffer<std::__ndk1::basic_string<char, std::__ndk1::char_traits<char>, std::__ndk1::allocator<char> >, std::__ndk1::allocator<std::__ndk1::basic_string<char, std::__ndk1::char_traits<char>, std::__ndk1::allocator<char> > >&>::~__split_buffer()
FUNC 213480 178 0 std::__ndk1::vector<std::__ndk1::basic_string<char, std::__ndk1::char_traits<char>, std::__ndk1::allocator<char> >, std::__ndk1::allocator<std::__ndk1::basic_string<char, std::__ndk1::char_traits<char>, std::__ndk1::allocator<char> > > >::__push_back_slow_path<std::__ndk1::basic_string<char, std::__ndk1::char_traits<char>, std::__ndk1::allocator<char> > >(std::__ndk1::basic_string<char, std::__ndk1::char_traits<char>, std::__ndk1::allocator<char> >&&)
FUNC 2135f8 108 0 std::__ndk1::vector<cocos2d::CCTexturePack, std::__ndk1::allocator<cocos2d::CCTexturePack> >::erase(std::__ndk1::__wrap_iter<cocos2d::CCTexturePack const*>, std::__ndk1::__wrap_iter<cocos2d::CCTexturePack const*>)
FUNC 213700 480 0 geode::modifier::ModifyBase<geode::modifier::ModifyDerive<FileUtilsUpdatePaths, cocos2d::CCFileUtils> >::ModifyBase()
FUNC 213b80 540 0 geode::modifier::ModifyDerive<FileUtilsUpdatePaths, cocos2d::CCFileUtils>::apply()
FUNC 2140c0 50 0 std::__ndk1::shared_ptr<geode::Hook>::~shared_ptr[abi:v170000]()
FUNC 214110 4 0 geode::modifier::ModifyBase<geode::modifier::ModifyDerive<FileUtilsUpdatePaths, cocos2d::CCFileUtils> >::apply()
FUNC 214114 284 0 std::__ndk1::vector<std::__ndk1::basic_string<char, std::__ndk1::char_traits<char>, std::__ndk1::allocator<char> >, std::__ndk1::allocator<std::__ndk1::basic_string<char, std::__ndk1::char_traits<char>, std::__ndk1::allocator<char> > > >::__push_back_slow_path<std::__ndk1::basic_string<char, std::__ndk1::char_traits<char>, std::__ndk1::allocator<char> > const&>(std::__ndk1::basic_string<char, std::__ndk1::char_traits<char>, std::__ndk1::allocator<char> > const&)
FUNC 214398 10c 0 std::__ndk1::__tree<std::__ndk1::__value_type<std::__ndk1::basic_string<char, std::__ndk1::char_traits<char>, std::__ndk1::allocator<char> >, std::__ndk1::shared_ptr<geode::Hook> >, std::__ndk1::__map_value_compare<std::__ndk1::basic_string<char, std::__ndk1::char_traits<char>, std::__ndk1::allocator<char> >, std::__ndk1::__value_type<std::__ndk1::basic_string<char, std::__ndk1::char_traits<char>, std::__ndk1::allocator<char> >, std::__ndk1::shared_ptr<geode::Hook> >, std::__ndk1::less<std::__ndk1::basic_string<char, std::__ndk1::char_traits<char>, std::__ndk1::allocator<char> > >, true>, std::__ndk1::allocator<std::__ndk1::__value_type<std::__ndk1::basic_string<char, std::__ndk1::char_traits<char>, std::__ndk1::allocator<char> >, std::__ndk1::shared_ptr<geode::Hook> > > >::find<std::__ndk1::basic_string<char, std::__ndk1::char_traits<char>, std::__ndk1::allocator<char> > >(std::__ndk1::basic_string<char, std::__ndk1::char_traits<char>, std::__ndk1::allocator<char> > const&)
FUNC 2144a4 d4 0 std::__ndk1::__tree<std::__ndk1::__value_type<std::__ndk1::basic_string<char, std::__ndk1::char_traits<char>, std::__ndk1::allocator<char> >, std::__ndk1::shared_ptr<geode::Hook> >, std::__ndk1::__map_value_compare<std::__ndk1::basic_string<char, std::__ndk1::char_traits<char>, std::__ndk1::allocator<char> >, std::__ndk1::__value_type<std::__ndk1::basic_string<char, std::__ndk1::char_traits<char>, std::__ndk1::allocator<char> >, std::__ndk1::shared_ptr<geode::Hook> >, std::__ndk1::less<std::__ndk1::basic_string<char, std::__ndk1::char_traits<char>, std::__ndk1::allocator<char> > >, true>, std::__ndk1::allocator<std::__ndk1::__value_type<std::__ndk1::basic_string<char, std::__ndk1::char_traits<char>, std::__ndk1::allocator<char> >, std::__ndk1::shared_ptr<geode::Hook> > > >::erase(std::__ndk1::__tree_const_iterator<std::__ndk1::__value_type<std::__ndk1::basic_string<char, std::__ndk1::char_traits<char>, std::__ndk1::allocator<char> >, std::__ndk1::shared_ptr<geode::Hook> >, std::__ndk1::__tree_node<std::__ndk1::__value_type<std::__ndk1::basic_string<char, std::__ndk1::char_traits<char>, std::__ndk1::allocator<char> >, std::__ndk1::shared_ptr<geode::Hook> >, void*>*, long>)
FUNC 214578 3a8 0 std::__ndk1::__tree_remove[abi:v170000]<std::__ndk1::__tree_node_base<void*>*>(std::__ndk1::__tree_node_base<void*>*, std::__ndk1::__tree_node_base<void*>*)
FUNC 214920 8c 0 std::__ndk1::__tree<std::__ndk1::__value_type<std::__ndk1::basic_string<char, std::__ndk1::char_traits<char>, std::__ndk1::allocator<char> >, std::__ndk1::shared_ptr<geode::Hook> >, std::__ndk1::__map_value_compare<std::__ndk1::basic_string<char, std::__ndk1::char_traits<char>, std::__ndk1::allocator<char> >, std::__ndk1::__value_type<std::__ndk1::basic_string<char, std::__ndk1::char_traits<char>, std::__ndk1::allocator<char> >, std::__ndk1::shared_ptr<geode::Hook> >, std::__ndk1::less<std::__ndk1::basic_string<char, std::__ndk1::char_traits<char>, std::__ndk1::allocator<char> > >, true>, std::__ndk1::allocator<std::__ndk1::__value_type<std::__ndk1::basic_string<char, std::__ndk1::char_traits<char>, std::__ndk1::allocator<char> >, std::__ndk1::shared_ptr<geode::Hook> > > >::destroy(std::__ndk1::__tree_node<std::__ndk1::__value_type<std::__ndk1::basic_string<char, std::__ndk1::char_traits<char>, std::__ndk1::allocator<char> >, std::__ndk1::shared_ptr<geode::Hook> >, void*>*)
FUNC 2149ac 6c 0 geode::addresser::getVirtual<gd::string (cocos2d::CCFileUtils::*)(char const*, bool)>(gd::string (cocos2d::CCFileUtils::*)(char const*, bool))
FUNC 214a18 118 0 geode::Hook::create<gd::string (*)(FileUtilsUpdatePaths*, char const*, bool)>(void*, gd::string (*)(FileUtilsUpdatePaths*, char const*, bool), std::__ndk1::basic_string<char, std::__ndk1::char_traits<char>, std::__ndk1::allocator<char> > const&, tulip::hook::TulipConvention, tulip::hook::HookMetadata const&)
FUNC 214b30 f4 0 geode::modifier::AsStaticFunction_fullPathForFilename<FileUtilsUpdatePaths, gd::string (FileUtilsUpdatePaths::*)(char const*, bool)>::Impl<gd::string (FileUtilsUpdatePaths::*)(char const*, bool)>::function(FileUtilsUpdatePaths*, char const*, bool)
FUNC 214c24 104 0 geode::Hook::create<cocos2d::CCFileUtils* (*)()>(void*, cocos2d::CCFileUtils* (*)(), std::__ndk1::basic_string<char, std::__ndk1::char_traits<char>, std::__ndk1::allocator<char> > const&, tulip::hook::TulipConvention, tulip::hook::HookMetadata const&)
FUNC 214d28 40 0 geode::modifier::AsStaticFunction_sharedFileUtils<FileUtilsUpdatePaths, cocos2d::CCFileUtils* (*)()>::Impl<cocos2d::CCFileUtils* (*)()>::function()
FUNC 214d68 94 0 geode::addresser::Addresser::cachedInstance<cocos2d::CCFileUtils>()
FUNC 214dfc f0 0 cocos2d::CCFileUtils::CCFileUtils(geode::ZeroConstructorType, void*)
FUNC 214eec 70 0 gd::vector<gd::string>::~vector()
FUNC 214f5c 174 0 gd::map<gd::string, gd::string>::map(std::__ndk1::map<gd::string, gd::string, std::__ndk1::less<gd::string>, std::__ndk1::allocator<std::__ndk1::pair<gd::string const, gd::string> > >)
FUNC 2150d0 120 0 gd::map<gd::string, gd::string>::insert_pair(std::__ndk1::pair<gd::string, gd::string> const&)
FUNC 2151f0 f4 0 gd::map<gd::string, gd::string>::insert(geode::stl::_rb_tree_node<std::__ndk1::pair<gd::string, gd::string> >*, geode::stl::_rb_tree_node<std::__ndk1::pair<gd::string, gd::string> >*, std::__ndk1::pair<gd::string, gd::string> const&)
FUNC 2152e4 264 0 geode::stl::_rb_insert_rebalance(bool, geode::stl::_rb_tree_base*, geode::stl::_rb_tree_base*, geode::stl::_rb_tree_base&)
FUNC 215548 54 0 std::__ndk1::__tree<std::__ndk1::__value_type<gd::string, gd::string>, std::__ndk1::__map_value_compare<gd::string, std::__ndk1::__value_type<gd::string, gd::string>, std::__ndk1::less<gd::string>, true>, std::__ndk1::allocator<std::__ndk1::__value_type<gd::string, gd::string> > >::destroy(std::__ndk1::__tree_node<std::__ndk1::__value_type<gd::string, gd::string>, void*>*)
FUNC 21559c 1a0 0 tulip::hook::AbstractFunction::from<gd::string, FileUtilsUpdatePaths*, char const*, bool>(gd::string (*)(FileUtilsUpdatePaths*, char const*, bool))
FUNC 21573c 50 0 std::__ndk1::shared_ptr<tulip::hook::CallingConvention>::~shared_ptr[abi:v170000]()
FUNC 21578c 64 0 tulip::hook::HandlerMetadata::~HandlerMetadata()
FUNC 2157f0 14 0 std::__ndk1::vector<tulip::hook::AbstractType, std::__ndk1::allocator<tulip::hook::AbstractType> >::__throw_length_error[abi:v170000]() const
FUNC 215804 104 0 std::__ndk1::__tree<std::__ndk1::__value_type<std::__ndk1::basic_string<char, std::__ndk1::char_traits<char>, std::__ndk1::allocator<char> >, std::__ndk1::shared_ptr<geode::Hook> >, std::__ndk1::__map_value_compare<std::__ndk1::basic_string<char, std::__ndk1::char_traits<char>, std::__ndk1::allocator<char> >, std::__ndk1::__value_type<std::__ndk1::basic_string<char, std::__ndk1::char_traits<char>, std::__ndk1::allocator<char> >, std::__ndk1::shared_ptr<geode::Hook> >, std::__ndk1::less<std::__ndk1::basic_string<char, std::__ndk1::char_traits<char>, std::__ndk1::allocator<char> > >, true>, std::__ndk1::allocator<std::__ndk1::__value_type<std::__ndk1::basic_string<char, std::__ndk1::char_traits<char>, std::__ndk1::allocator<char> >, std::__ndk1::shared_ptr<geode::Hook> > > >::__find_equal<std::__ndk1::basic_string<char, std::__ndk1::char_traits<char>, std::__ndk1::allocator<char> > >(std::__ndk1::__tree_end_node<std::__ndk1::__tree_node_base<void*>*>*&, std::__ndk1::basic_string<char, std::__ndk1::char_traits<char>, std::__ndk1::allocator<char> > const&)
FUNC 215908 1a0 0 std::__ndk1::__tree_balance_after_insert[abi:v170000]<std::__ndk1::__tree_node_base<void*>*>(std::__ndk1::__tree_node_base<void*>*, std::__ndk1::__tree_node_base<void*>*)
FUNC 215aa8 4c 0 _GLOBAL__sub_I_CCFileUtils.cpp
FUNC 215af4 78 0 cocos2d::CopySizeLayout::create()
FUNC 215b6c 3c 0 cocos2d::CopySizeLayout::~CopySizeLayout()
FUNC 215ba8 24 0 cocos2d::CopySizeLayout::~CopySizeLayout()
FUNC 215bcc 28 0 cocos2d::CopySizeLayout::add(cocos2d::CCNode*)
FUNC 215bf4 2c 0 cocos2d::CopySizeLayout::remove(cocos2d::CCNode*)
FUNC 215c20 1c0 0 cocos2d::CopySizeLayout::apply(cocos2d::CCNode*)
FUNC 215de0 34 0 cocos2d::CopySizeLayout::getSizeHint(cocos2d::CCNode*) const
FUNC 215e14 1c 0 cocos2d::CCKeyboardDispatcher::get()
FUNC 215e30 4 0 cocos2d::CCDirector::get()
FUNC 215e34 1c 0 cocos2d::CCTouchDispatcher::get()
FUNC 215e50 4 0 cocos2d::CCApplication::get()
FUNC 215e54 18 0 cocos2d::CCEGLView::get()
FUNC 215e6c 4 0 cocos2d::CCFileUtils::get()
FUNC 215e70 4 0 cocos2d::CCSpriteFrameCache::get()
FUNC 215e74 4 0 cocos2d::CCTextureCache::get()
FUNC 215e78 18 0 cocos2d::CCScene::get()
FUNC 215e90 1c 0 cocos2d::CCScheduler::get()
FUNC 215eac 48 0 cocos2d::CCNode::swapChildIndices(cocos2d::CCNode*, cocos2d::CCNode*)
FUNC 215ef4 b0 0 cocos2d::CCNode::insertBefore(cocos2d::CCNode*, cocos2d::CCNode*)
FUNC 215fa4 9c 0 cocos2d::CCNode::insertAfter(cocos2d::CCNode*, cocos2d::CCNode*)
FUNC 216040 40 0 cocos2d::CCNode::hasAncestor(cocos2d::CCNode*)
FUNC 216080 58 0 cocos2d::CCNode::setContentWidth(float)
FUNC 2160d8 58 0 cocos2d::CCNode::setContentHeight(float)
FUNC 216130 20 0 cocos2d::CCNode::getContentWidth() const
FUNC 216150 20 0 cocos2d::CCNode::getContentHeight() const
FUNC 216170 120 0 cocos2d::Layout::getNodesToPosition(cocos2d::CCNode*) const
FUNC 216290 8 0 cocos2d::Layout::ignoreInvisibleChildren(bool)
FUNC 216298 8 0 cocos2d::Layout::isIgnoreInvisibleChildren() const
FUNC 2162a0 30 0 cocos2d::SpacerNode::init(unsigned long)
FUNC 2162d0 84 0 cocos2d::SpacerNode::create(unsigned long)
FUNC 216354 8 0 cocos2d::SpacerNode::setGrow(unsigned long)
FUNC 21635c 8 0 cocos2d::SpacerNode::getGrow() const
FUNC 216364 5c 0 cocos2d::SpacerNodeChild::init(cocos2d::CCNode*, unsigned long)
FUNC 2163c0 b0 0 cocos2d::SpacerNodeChild::create(cocos2d::CCNode*, unsigned long)
FUNC 216470 a8 0 cocos2d::SpacerNodeChild::setContentSize(cocos2d::CCSize const&)
FUNC 216518 24 0 cocos2d::SpacerNodeChild::~SpacerNodeChild()
FUNC 21653c 24 0 cocos2d::SpacerNode::~SpacerNode()
FUNC 216560 140 0 cocos2d::ZipUtils::ccInflateMemoryWithHint(unsigned char*, unsigned int, unsigned char**, unsigned int*, unsigned int)
FUNC 2166a0 80 0 cocos2d::ZipUtils::ccInflateMemoryWithHint(unsigned char*, unsigned int, unsigned char**, unsigned int)
FUNC 216720 80 0 cocos2d::ZipUtils::ccInflateMemory(unsigned char*, unsigned int, unsigned char**)
FUNC 2167a0 bc 0 cocos2d::ZipUtils::ccInflateGZipFile(char const*, unsigned char**)
FUNC 21685c 184 0 cocos2d::ZipUtils::ccInflateCCZFile(char const*, unsigned char**)
FUNC 2169e0 174 0 cocos2d::ZipUtils::ccDecodeEncodedPvr(unsigned int*, int)
FUNC 216b54 2c 0 cocos2d::ZipUtils::ccSetPvrEncryptionKeyPart(int, unsigned int)
FUNC 216b80 64 0 cocos2d::ZipUtils::ccSetPvrEncryptionKey(unsigned int, unsigned int, unsigned int, unsigned int)
FUNC 216be4 e4 0 cocos2d::ZipFile::ZipFile(std::__ndk1::basic_string<char, std::__ndk1::char_traits<char>, std::__ndk1::allocator<char> > const&, std::__ndk1::basic_string<char, std::__ndk1::char_traits<char>, std::__ndk1::allocator<char> > const&)
FUNC 216cc8 44 0 cocos2d::ZipFile::setFilter(std::__ndk1::basic_string<char, std::__ndk1::char_traits<char>, std::__ndk1::allocator<char> > const&)
FUNC 216d0c 98 0 cocos2d::ZipFile::~ZipFile()
FUNC 216da4 24 0 cocos2d::ZipFile::~ZipFile()
FUNC 216dc8 3a8 0 cocos2d::ZipFile::setFilter(std::__ndk1::basic_string<char, std::__ndk1::char_traits<char>, std::__ndk1::allocator<char> > const&, cocos2d::ZipFilePrivate*)
FUNC 217170 44 0 cocos2d::ZipFile::fileExists(std::__ndk1::basic_string<char, std::__ndk1::char_traits<char>, std::__ndk1::allocator<char> > const&) const
FUNC 2171b4 8 0 cocos2d::ZipFile::getFileData(std::__ndk1::basic_string<char, std::__ndk1::char_traits<char>, std::__ndk1::allocator<char> > const&, unsigned long*)
FUNC 2171bc 100 0 cocos2d::ZipFile::getFileData(std::__ndk1::basic_string<char, std::__ndk1::char_traits<char>, std::__ndk1::allocator<char> > const&, unsigned long*, cocos2d::ZipFilePrivate*)
FUNC 2172bc 28 0 cocos2d::ZipFile::isLoaded() const
FUNC 2172e4 270 0 cocos2d::ZipFile::getAllFiles() const
FUNC 217554 50 0 std::__ndk1::__tree<std::__ndk1::__value_type<std::__ndk1::basic_string<char, std::__ndk1::char_traits<char>, std::__ndk1::allocator<char> >, cocos2d::ZipEntryInfo>, std::__ndk1::__map_value_compare<std::__ndk1::basic_string<char, std::__ndk1::char_traits<char>, std::__ndk1::allocator<char> >, std::__ndk1::__value_type<std::__ndk1::basic_string<char, std::__ndk1::char_traits<char>, std::__ndk1::allocator<char> >, cocos2d::ZipEntryInfo>, std::__ndk1::less<std::__ndk1::basic_string<char, std::__ndk1::char_traits<char>, std::__ndk1::allocator<char> > >, true>, std::__ndk1::allocator<std::__ndk1::__value_type<std::__ndk1::basic_string<char, std::__ndk1::char_traits<char>, std::__ndk1::allocator<char> >, cocos2d::ZipEntryInfo> > >::destroy(std::__ndk1::__tree_node<std::__ndk1::__value_type<std::__ndk1::basic_string<char, std::__ndk1::char_traits<char>, std::__ndk1::allocator<char> >, cocos2d::ZipEntryInfo>, void*>*)
FUNC 2175a4 104 0 std::__ndk1::__tree<std::__ndk1::__value_type<std::__ndk1::basic_string<char, std::__ndk1::char_traits<char>, std::__ndk1::allocator<char> >, cocos2d::ZipEntryInfo>, std::__ndk1::__map_value_compare<std::__ndk1::basic_string<char, std::__ndk1::char_traits<char>, std::__ndk1::allocator<char> >, std::__ndk1::__value_type<std::__ndk1::basic_string<char, std::__ndk1::char_traits<char>, std::__ndk1::allocator<char> >, cocos2d::ZipEntryInfo>, std::__ndk1::less<std::__ndk1::basic_string<char, std::__ndk1::char_traits<char>, std::__ndk1::allocator<char> > >, true>, std::__ndk1::allocator<std::__ndk1::__value_type<std::__ndk1::basic_string<char, std::__ndk1::char_traits<char>, std::__ndk1::allocator<char> >, cocos2d::ZipEntryInfo> > >::__find_equal<std::__ndk1::basic_string<char, std::__ndk1::char_traits<char>, std::__ndk1::allocator<char> > >(std::__ndk1::__tree_end_node<std::__ndk1::__tree_node_base<void*>*>*&, std::__ndk1::basic_string<char, std::__ndk1::char_traits<char>, std::__ndk1::allocator<char> > const&)
FUNC 2176a8 e0 0 std::__ndk1::__tree<std::__ndk1::__value_type<std::__ndk1::basic_string<char, std::__ndk1::char_traits<char>, std::__ndk1::allocator<char> >, cocos2d::ZipEntryInfo>, std::__ndk1::__map_value_compare<std::__ndk1::basic_string<char, std::__ndk1::char_traits<char>, std::__ndk1::allocator<char> >, std::__ndk1::__value_type<std::__ndk1::basic_string<char, std::__ndk1::char_traits<char>, std::__ndk1::allocator<char> >, cocos2d::ZipEntryInfo>, std::__ndk1::less<std::__ndk1::basic_string<char, std::__ndk1::char_traits<char>, std::__ndk1::allocator<char> > >, true>, std::__ndk1::allocator<std::__ndk1::__value_type<std::__ndk1::basic_string<char, std::__ndk1::char_traits<char>, std::__ndk1::allocator<char> >, cocos2d::ZipEntryInfo> > >::__construct_node<std::__ndk1::piecewise_construct_t const&, std::__ndk1::tuple<std::__ndk1::basic_string<char, std::__ndk1::char_traits<char>, std::__ndk1::allocator<char> > const&>, std::__ndk1::tuple<> >(std::__ndk1::piecewise_construct_t const&, std::__ndk1::tuple<std::__ndk1::basic_string<char, std::__ndk1::char_traits<char>, std::__ndk1::allocator<char> > const&>, std::__ndk1::tuple<>)
FUNC 217788 4c 0 std::__ndk1::unique_ptr<std::__ndk1::__tree_node<std::__ndk1::__value_type<std::__ndk1::basic_string<char, std::__ndk1::char_traits<char>, std::__ndk1::allocator<char> >, cocos2d::ZipEntryInfo>, void*>, std::__ndk1::__tree_node_destructor<std::__ndk1::allocator<std::__ndk1::__tree_node<std::__ndk1::__value_type<std::__ndk1::basic_string<char, std::__ndk1::char_traits<char>, std::__ndk1::allocator<char> >, cocos2d::ZipEntryInfo>, void*> > > >::~unique_ptr[abi:v170000]()
FUNC 2177d4 10c 0 std::__ndk1::__tree<std::__ndk1::__value_type<std::__ndk1::basic_string<char, std::__ndk1::char_traits<char>, std::__ndk1::allocator<char> >, cocos2d::ZipEntryInfo>, std::__ndk1::__map_value_compare<std::__ndk1::basic_string<char, std::__ndk1::char_traits<char>, std::__ndk1::allocator<char> >, std::__ndk1::__value_type<std::__ndk1::basic_string<char, std::__ndk1::char_traits<char>, std::__ndk1::allocator<char> >, cocos2d::ZipEntryInfo>, std::__ndk1::less<std::__ndk1::basic_string<char, std::__ndk1::char_traits<char>, std::__ndk1::allocator<char> > >, true>, std::__ndk1::allocator<std::__ndk1::__value_type<std::__ndk1::basic_string<char, std::__ndk1::char_traits<char>, std::__ndk1::allocator<char> >, cocos2d::ZipEntryInfo> > >::find<std::__ndk1::basic_string<char, std::__ndk1::char_traits<char>, std::__ndk1::allocator<char> > >(std::__ndk1::basic_string<char, std::__ndk1::char_traits<char>, std::__ndk1::allocator<char> > const&)
FUNC 2178e0 1c 0 cocos2d::call_zopen64(cocos2d::zlib_filefunc64_32_def_s const*, void const*, int)
FUNC 2178fc 1c 0 cocos2d::call_zseek64(cocos2d::zlib_filefunc64_32_def_s const*, void*, unsigned long long, int)
FUNC 217918 24 0 cocos2d::call_ztell64(cocos2d::zlib_filefunc64_32_def_s const*, void*)
FUNC 21793c 38 0 cocos2d::fill_zlib_filefunc64_32_def_from_filefunc32(cocos2d::zlib_filefunc64_32_def_s*, cocos2d::zlib_filefunc_def_s const*)
FUNC 217974 4c 0 cocos2d::fill_fopen_filefunc(cocos2d::zlib_filefunc_def_s*)
FUNC 2179c0 68 0 cocos2d::fopen_file_func(void*, char const*, int)
FUNC 217a28 18 0 cocos2d::fread_file_func(void*, void*, void*, unsigned long)
FUNC 217a40 18 0 cocos2d::fwrite_file_func(void*, void*, void const*, unsigned long)
FUNC 217a58 8 0 cocos2d::ftell_file_func(void*, void*)
FUNC 217a60 38 0 cocos2d::fseek_file_func(void*, void*, unsigned long, int)
FUNC 217a98 8 0 cocos2d::fclose_file_func(void*, void*)
FUNC 217aa0 8 0 cocos2d::ferror_file_func(void*, void*)
FUNC 217aa8 4c 0 cocos2d::fill_fopen64_filefunc(cocos2d::zlib_filefunc64_def_s*)
FUNC 217af4 68 0 cocos2d::fopen64_file_func(void*, void const*, int)
FUNC 217b5c 8 0 cocos2d::ftell64_file_func(void*, void*)
FUNC 217b64 38 0 cocos2d::fseek64_file_func(void*, void*, unsigned long long, int)
FUNC 217b9c 70 0 cocos2d::unzStringFileNameCompare(char const*, char const*, int)
FUNC 217c0c 8c 0 cocos2d::unzOpen2(char const*, cocos2d::zlib_filefunc_def_s*)
FUNC 217c98 9c8 0 cocos2d::unzOpenInternal(void const*, cocos2d::zlib_filefunc64_32_def_s*, int)
FUNC 218660 8c 0 cocos2d::unzOpen2_64(void const*, cocos2d::zlib_filefunc64_def_s*)
FUNC 2186ec c 0 cocos2d::unzOpen(char const*)
FUNC 2186f8 c 0 cocos2d::unzOpen64(void const*)
FUNC 218704 7c 0 cocos2d::unzClose(void*)
FUNC 218780 9c 0 cocos2d::unzCloseCurrentFile(void*)
FUNC 21881c 1c 0 cocos2d::unzGetGlobalInfo64(void*, cocos2d::unz_global_info64_s*)
FUNC 218838 1c 0 cocos2d::unzGetGlobalInfo(void*, cocos2d::unz_global_info_s*)
FUNC 218854 3c 0 cocos2d::unzGetCurrentFileInfo64(void*, cocos2d::unz_file_info64_s*, char*, unsigned long, void*, unsigned long, char*, unsigned long)
FUNC 218890 b30 0 cocos2d::unz64local_GetCurrentFileInfoInternal(void*, cocos2d::unz_file_info64_s*, cocos2d::unz_file_info64_internal_s*, char*, unsigned long, void*, unsigned long, char*, unsigned long)
FUNC 2193c0 98 0 cocos2d::unzGetCurrentFileInfo(void*, cocos2d::unz_file_info_s*, char*, unsigned long, void*, unsigned long, char*, unsigned long)
FUNC 219458 ac 0 cocos2d::unzGoToFirstFile64(void*, cocos2d::unz_file_info64_s*, char*, unsigned long)
FUNC 219504 68 0 cocos2d::unzGoToFirstFile(void*)
FUNC 21956c f8 0 cocos2d::unzGoToNextFile64(void*, cocos2d::unz_file_info64_s*, char*, unsigned long)
FUNC 219664 b4 0 cocos2d::unzGoToNextFile(void*)
FUNC 219718 280 0 cocos2d::unzLocateFile(void*, char const*, int)
FUNC 219998 34 0 cocos2d::unzGetFilePos64(void*, cocos2d::unz64_file_pos_s*)
FUNC 2199cc 30 0 cocos2d::unzGetFilePos(void*, cocos2d::unz_file_pos_s*)
FUNC 2199fc 70 0 cocos2d::unzGoToFilePos64(void*, cocos2d::unz64_file_pos_s const*)
FUNC 219a6c 70 0 cocos2d::unzGoToFilePos(void*, cocos2d::unz_file_pos_s*)
FUNC 219adc 6d8 0 cocos2d::unzOpenCurrentFile3(void*, int*, int*, int, char const*)
FUNC 21a1b4 14 0 cocos2d::unzOpenCurrentFile(void*)
FUNC 21a1c8 14 0 cocos2d::unzOpenCurrentFilePassword(void*, char const*)
FUNC 21a1dc 8 0 cocos2d::unzOpenCurrentFile2(void*, int*, int*, int)
FUNC 21a1e4 24 0 cocos2d::unzGetCurrentFileZStreamPos64(void*)
FUNC 21a208 2c4 0 cocos2d::unzReadCurrentFile(void*, void*, unsigned int)
FUNC 21a4cc 1c 0 cocos2d::unztell(void*)
FUNC 21a4e8 1c 0 cocos2d::unztell64(void*)
FUNC 21a504 24 0 cocos2d::unzeof(void*)
FUNC 21a528 a0 0 cocos2d::unzGetLocalExtrafield(void*, void*, unsigned int)
FUNC 21a5c8 a8 0 cocos2d::unzGetGlobalComment(void*, char*, unsigned long)
FUNC 21a670 3c 0 cocos2d::unzGetOffset64(void*)
FUNC 21a6ac 3c 0 cocos2d::unzGetOffset(void*)
FUNC 21a6e8 6c 0 cocos2d::unzSetOffset64(void*, unsigned long long)
FUNC 21a754 6c 0 cocos2d::unzSetOffset(void*, unsigned long)
FUNC 21a7c0 188 0 cocos2d::unz64local_getLong(cocos2d::zlib_filefunc64_32_def_s const*, void*, unsigned long*)
FUNC 21a948 284 0 cocos2d::unz64local_getLong64(cocos2d::zlib_filefunc64_32_def_s const*, void*, unsigned long long*)
FUNC 21abcc b8c 0 cocos2d::zipOpen3(void const*, int, char const**, cocos2d::zlib_filefunc64_32_def_s*)
FUNC 21b758 ac 0 cocos2d::zipOpen2(char const*, int, char const**, cocos2d::zlib_filefunc_def_s*)
FUNC 21b804 84 0 cocos2d::zipOpen2_64(void const*, int, char const**, cocos2d::zlib_filefunc64_def_s*)
FUNC 21b888 c 0 cocos2d::zipOpen(char const*, int)
FUNC 21b894 c 0 cocos2d::zipOpen64(void const*, int)
FUNC 21b8a0 7d4 0 cocos2d::zipOpenNewFileInZip4_64(void*, char const*, cocos2d::zip_fileinfo const*, void const*, unsigned int, void const*, unsigned int, char const*, int, int, int, int, int, int, char const*, unsigned long, unsigned long, unsigned long, int)
FUNC 21c074 c 0 cocos2d::zipCloseFileInZip(void*)
FUNC 21c080 60 0 cocos2d::zipOpenNewFileInZip4(void*, char const*, cocos2d::zip_fileinfo const*, void const*, unsigned int, void const*, unsigned int, char const*, int, int, int, int, int, int, char const*, unsigned long, unsigned long, unsigned long)
FUNC 21c0e0 5c 0 cocos2d::zipOpenNewFileInZip3(void*, char const*, cocos2d::zip_fileinfo const*, void const*, unsigned int, void const*, unsigned int, char const*, int, int, int, int, int, int, char const*, unsigned long)
FUNC 21c13c 60 0 cocos2d::zipOpenNewFileInZip3_64(void*, char const*, cocos2d::zip_fileinfo const*, void const*, unsigned int, void const*, unsigned int, char const*, int, int, int, int, int, int, char const*, unsigned long, int)
FUNC 21c19c 54 0 cocos2d::zipOpenNewFileInZip2(void*, char const*, cocos2d::zip_fileinfo const*, void const*, unsigned int, void const*, unsigned int, char const*, int, int, int)
FUNC 21c1f0 58 0 cocos2d::zipOpenNewFileInZip2_64(void*, char const*, cocos2d::zip_fileinfo const*, void const*, unsigned int, void const*, unsigned int, char const*, int, int, int, int)
FUNC 21c248 54 0 cocos2d::zipOpenNewFileInZip64(void*, char const*, cocos2d::zip_fileinfo const*, void const*, unsigned int, void const*, unsigned int, char const*, int, int, int)
FUNC 21c29c 50 0 cocos2d::zipOpenNewFileInZip(void*, char const*, cocos2d::zip_fileinfo const*, void const*, unsigned int, void const*, unsigned int, char const*, int, int)
FUNC 21c2ec 194 0 cocos2d::zipWriteInFileInZip(void*, void const*, unsigned int)
FUNC 21c480 4 0 cocos2d::zipCloseFileInZipRaw(void*, unsigned long, unsigned long)
FUNC 21c484 620 0 cocos2d::zipCloseFileInZipRaw64(void*, unsigned long long, unsigned long)
FUNC 21caa4 1dc 0 cocos2d::add_data_in_datablock(cocos2d::linkedlist_data_s*, void const*, unsigned long)
FUNC 21cc80 6c4 0 cocos2d::zipClose(void*, char const*)
FUNC 21d344 114 0 cocos2d::zipRemoveExtraInfoBlock(char*, int*, short)
FUNC 21d458 188 0 cocos2d::zip64local_getLong(cocos2d::zlib_filefunc64_32_def_s const*, void*, unsigned long*)
FUNC 21d5e0 284 0 cocos2d::zip64local_getLong64(cocos2d::zlib_filefunc64_32_def_s const*, void*, unsigned long long*)
FUNC 21d864 14 0 FMOD_System_init_hook(FMOD::System*, int, unsigned int, void*)
FUNC 21d878 1c 0 FMOD_ChannelControl_setVolume_hook(FMOD::ChannelControl*, float)
FUNC 21d894 244 0 geode::Mod::hook<FMOD_RESULT (*)(FMOD::System*, int, unsigned int, void*)>(void*, FMOD_RESULT (*)(FMOD::System*, int, unsigned int, void*), std::__ndk1::basic_string<char, std::__ndk1::char_traits<char>, std::__ndk1::allocator<char> > const&, tulip::hook::TulipConvention, tulip::hook::HookMetadata const&)
FUNC 21dad8 244 0 geode::Mod::hook<FMOD_RESULT (*)(FMOD::ChannelControl*, float)>(void*, FMOD_RESULT (*)(FMOD::ChannelControl*, float), std::__ndk1::basic_string<char, std::__ndk1::char_traits<char>, std::__ndk1::allocator<char> > const&, tulip::hook::TulipConvention, tulip::hook::HookMetadata const&)
FUNC 21dd1c 118 0 geode::Hook::create<FMOD_RESULT (*)(FMOD::System*, int, unsigned int, void*)>(void*, FMOD_RESULT (*)(FMOD::System*, int, unsigned int, void*), std::__ndk1::basic_string<char, std::__ndk1::char_traits<char>, std::__ndk1::allocator<char> > const&, tulip::hook::TulipConvention, tulip::hook::HookMetadata const&)
FUNC 21de34 104 0 geode::Result<geode::Hook*, std::__ndk1::basic_string<char, std::__ndk1::char_traits<char>, std::__ndk1::allocator<char> > >::unwrap() &
FUNC 21df38 280 0 tulip::hook::AbstractFunction::from<FMOD_RESULT, FMOD::System*, int, unsigned int, void*>(FMOD_RESULT (*)(FMOD::System*, int, unsigned int, void*))
FUNC 21e1b8 40 0 cpp::bitwizeshift::bad_result_access<std::__ndk1::basic_string<char, std::__ndk1::char_traits<char>, std::__ndk1::allocator<char> > >::~bad_result_access()
FUNC 21e1f8 48 0 cpp::bitwizeshift::bad_result_access<std::__ndk1::basic_string<char, std::__ndk1::char_traits<char>, std::__ndk1::allocator<char> > >::~bad_result_access()
FUNC 21e240 180 0 geode::Hook::create<FMOD_RESULT (*)(FMOD::ChannelControl*, float)>(void*, FMOD_RESULT (*)(FMOD::ChannelControl*, float), std::__ndk1::basic_string<char, std::__ndk1::char_traits<char>, std::__ndk1::allocator<char> > const&, tulip::hook::TulipConvention, tulip::hook::HookMetadata const&)
FUNC 21e3c0 1d0 0 _GLOBAL__sub_I_AndroidFMODFix.cpp
FUNC 21e590 244 0 geode::Mod::hook<void* (*)(void*, geode::cast::ClassTypeinfoType const*, geode::cast::ClassTypeinfoType const*, unsigned long)>(void*, void* (*)(void*, geode::cast::ClassTypeinfoType const*, geode::cast::ClassTypeinfoType const*, unsigned long), std::__ndk1::basic_string<char, std::__ndk1::char_traits<char>, std::__ndk1::allocator<char> > const&, tulip::hook::TulipConvention, tulip::hook::HookMetadata const&)
FUNC 21e7d4 28 0 geode::cast::typeinfoCastInternal(void*, geode::cast::ClassTypeinfoType const*, geode::cast::ClassTypeinfoType const*, unsigned long)
FUNC 21e7fc 118 0 geode::Hook::create<void* (*)(void*, geode::cast::ClassTypeinfoType const*, geode::cast::ClassTypeinfoType const*, unsigned long)>(void*, void* (*)(void*, geode::cast::ClassTypeinfoType const*, geode::cast::ClassTypeinfoType const*, unsigned long), std::__ndk1::basic_string<char, std::__ndk1::char_traits<char>, std::__ndk1::allocator<char> > const&, tulip::hook::TulipConvention, tulip::hook::HookMetadata const&)
FUNC 21e914 27c 0 tulip::hook::AbstractFunction::from<void*, void*, geode::cast::ClassTypeinfoType const*, geode::cast::ClassTypeinfoType const*, unsigned long>(void* (*)(void*, geode::cast::ClassTypeinfoType const*, geode::cast::ClassTypeinfoType const*, unsigned long))
FUNC 21eb90 134 0 _GLOBAL__sub_I_DynamicCastFix.cpp
FUNC 21ecc4 70 0 std::__ndk1::unordered_map<std::__ndk1::basic_string<char, std::__ndk1::char_traits<char>, std::__ndk1::allocator<char> >, unsigned long, std::__ndk1::hash<std::__ndk1::basic_string<char, std::__ndk1::char_traits<char>, std::__ndk1::allocator<char> > >, std::__ndk1::equal_to<std::__ndk1::basic_string<char, std::__ndk1::char_traits<char>, std::__ndk1::allocator<char> > >, std::__ndk1::allocator<std::__ndk1::pair<std::__ndk1::basic_string<char, std::__ndk1::char_traits<char>, std::__ndk1::allocator<char> > const, unsigned long> > >::~unordered_map[abi:v170000]()
FUNC 21ed34 13c 0 geode::modifier::getFieldIndexForClass(char const*)
FUNC 21ee70 18 0 cocos2d::CCNode::getFieldContainer()
FUNC 21ee88 1b0 0 GeodeNodeMetadata::set(cocos2d::CCNode*)
FUNC 21f038 a4 0 cocos2d::CCNode::getID()
FUNC 21f0dc 28 0 cocos2d::CCNode::setID(std::__ndk1::basic_string<char, std::__ndk1::char_traits<char>, std::__ndk1::allocator<char> > const&)
FUNC 21f104 280 0 cocos2d::CCNode::getChildByID(std::__ndk1::basic_string<char, std::__ndk1::char_traits<char>, std::__ndk1::allocator<char> > const&)
FUNC 21f384 10c 0 cocos2d::CCNode::getChildByIDRecursive(std::__ndk1::basic_string<char, std::__ndk1::char_traits<char>, std::__ndk1::allocator<char> > const&)
FUNC 21f490 40 0 cocos2d::CCNode::removeChildByID(std::__ndk1::basic_string<char, std::__ndk1::char_traits<char>, std::__ndk1::allocator<char> > const&)
FUNC 21f4d0 1bc 0 cocos2d::CCNode::setLayout(cocos2d::Layout*, bool, bool)
FUNC 21f68c 58 0 cocos2d::CCNode::updateLayout(bool)
FUNC 21f6e4 18 0 cocos2d::CCNode::getLayout()
FUNC 21f6fc 98 0 cocos2d::CCNode::setLayoutOptions(cocos2d::LayoutOptions*, bool)
FUNC 21f794 18 0 cocos2d::CCNode::getLayoutOptions()
FUNC 21f7ac c8 0 geode::UserObjectSetEvent::UserObjectSetEvent(cocos2d::CCNode*, std::__ndk1::basic_string<char, std::__ndk1::char_traits<char>, std::__ndk1::allocator<char> > const&, cocos2d::CCObject*)
FUNC 21f874 c8 0 geode::AttributeSetFilter::handle(geode::utils::MiniFunction<void (geode::UserObjectSetEvent*)>, geode::UserObjectSetEvent*)
FUNC 21f93c 98 0 geode::AttributeSetFilter::AttributeSetFilter(std::__ndk1::basic_string<char, std::__ndk1::char_traits<char>, std::__ndk1::allocator<char> > const&)
FUNC 21f9d4 134 0 cocos2d::CCNode::setUserObject(std::__ndk1::basic_string<char, std::__ndk1::char_traits<char>, std::__ndk1::allocator<char> > const&, cocos2d::CCObject*)
FUNC 21fb08 40 0 geode::UserObjectSetEvent::~UserObjectSetEvent()
FUNC 21fb48 54 0 cocos2d::CCNode::getUserObject(std::__ndk1::basic_string<char, std::__ndk1::char_traits<char>, std::__ndk1::allocator<char> > const&)
FUNC 21fb9c 18c 0 cocos2d::CCNode::addEventListenerInternal(std::__ndk1::basic_string<char, std::__ndk1::char_traits<char>, std::__ndk1::allocator<char> > const&, geode::EventListenerProtocol*)
FUNC 21fd28 14c 0 cocos2d::CCNode::removeEventListener(geode::EventListenerProtocol*)
FUNC 21fe74 28 0 cocos2d::CCNode::removeEventListener(std::__ndk1::basic_string<char, std::__ndk1::char_traits<char>, std::__ndk1::allocator<char> > const&)
FUNC 21fe9c 54 0 cocos2d::CCNode::getEventListener(std::__ndk1::basic_string<char, std::__ndk1::char_traits<char>, std::__ndk1::allocator<char> > const&)
FUNC 21fef0 34 0 cocos2d::CCNode::getEventListenerCount()
FUNC 21ff24 144 0 cocos2d::CCNode::addChildAtPosition(cocos2d::CCNode*, cocos2d::Anchor, cocos2d::CCPoint const&, bool)
FUNC 220068 4 0 cocos2d::CCNode::setAttribute(std::__ndk1::basic_string<char, std::__ndk1::char_traits<char>, std::__ndk1::allocator<char> > const&, matjson::Value const&)
FUNC 22006c c 0 cocos2d::CCNode::getAttributeInternal(std::__ndk1::basic_string<char, std::__ndk1::char_traits<char>, std::__ndk1::allocator<char> > const&)
FUNC 220078 70 0 __cxx_global_var_init.1
FUNC 2200e8 20 0 geode::modifier::ModifyBase<geode::modifier::ModifyDerive<ProxyCCNode, cocos2d::CCNode> >::~ModifyBase()
FUNC 220108 48 0 geode::UserObjectSetEvent::~UserObjectSetEvent()
FUNC 220150 c4 0 std::__ndk1::pair<std::__ndk1::basic_string<char, std::__ndk1::char_traits<char>, std::__ndk1::allocator<char> > const, geode::Ref<cocos2d::CCObject> >::pair[abi:v170000]<char const (&) [1], cocos2d::CCObject*&, (void*)0>(cocos2d::CCObject*&)
FUNC 220214 44 0 std::__ndk1::pair<std::__ndk1::basic_string<char, std::__ndk1::char_traits<char>, std::__ndk1::allocator<char> > const, geode::Ref<cocos2d::CCObject> >::~pair()
FUNC 220258 118 0 GeodeNodeMetadata::~GeodeNodeMetadata()
FUNC 220370 24 0 GeodeNodeMetadata::~GeodeNodeMetadata()
FUNC 220394 ec 0 geode::modifier::FieldContainer::~FieldContainer()
FUNC 220480 80 0 std::__ndk1::__hash_table<std::__ndk1::__hash_value_type<std::__ndk1::basic_string<char, std::__ndk1::char_traits<char>, std::__ndk1::allocator<char> >, geode::Ref<cocos2d::CCObject> >, std::__ndk1::__unordered_map_hasher<std::__ndk1::basic_string<char, std::__ndk1::char_traits<char>, std::__ndk1::allocator<char> >, std::__ndk1::__hash_value_type<std::__ndk1::basic_string<char, std::__ndk1::char_traits<char>, std::__ndk1::allocator<char> >, geode::Ref<cocos2d::CCObject> >, std::__ndk1::hash<std::__ndk1::basic_string<char, std::__ndk1::char_traits<char>, std::__ndk1::allocator<char> > >, std::__ndk1::equal_to<std::__ndk1::basic_string<char, std::__ndk1::char_traits<char>, std::__ndk1::allocator<char> > >, true>, std::__ndk1::__unordered_map_equal<std::__ndk1::basic_string<char, std::__ndk1::char_traits<char>, std::__ndk1::allocator<char> >, std::__ndk1::__hash_value_type<std::__ndk1::basic_string<char, std::__ndk1::char_traits<char>, std::__ndk1::allocator<char> >, geode::Ref<cocos2d::CCObject> >, std::__ndk1::equal_to<std::__ndk1::basic_string<char, std::__ndk1::char_traits<char>, std::__ndk1::allocator<char> > >, std::__ndk1::hash<std::__ndk1::basic_string<char, std::__ndk1::char_traits<char>, std::__ndk1::allocator<char> > >, true>, std::__ndk1::allocator<std::__ndk1::__hash_value_type<std::__ndk1::basic_string<char, std::__ndk1::char_traits<char>, std::__ndk1::allocator<char> >, geode::Ref<cocos2d::CCObject> > > >::~__hash_table()
FUNC 220500 3d0 0 std::__ndk1::__hash_table<std::__ndk1::__hash_value_type<std::__ndk1::basic_string<char, std::__ndk1::char_traits<char>, std::__ndk1::allocator<char> >, geode::Ref<cocos2d::CCObject> >, std::__ndk1::__unordered_map_hasher<std::__ndk1::basic_string<char, std::__ndk1::char_traits<char>, std::__ndk1::allocator<char> >, std::__ndk1::__hash_value_type<std::__ndk1::basic_string<char, std::__ndk1::char_traits<char>, std::__ndk1::allocator<char> >, geode::Ref<cocos2d::CCObject> >, std::__ndk1::hash<std::__ndk1::basic_string<char, std::__ndk1::char_traits<char>, std::__ndk1::allocator<char> > >, std::__ndk1::equal_to<std::__ndk1::basic_string<char, std::__ndk1::char_traits<char>, std::__ndk1::allocator<char> > >, true>, std::__ndk1::__unordered_map_equal<std::__ndk1::basic_string<char, std::__ndk1::char_traits<char>, std::__ndk1::allocator<char> >, std::__ndk1::__hash_value_type<std::__ndk1::basic_string<char, std::__ndk1::char_traits<char>, std::__ndk1::allocator<char> >, geode::Ref<cocos2d::CCObject> >, std::__ndk1::equal_to<std::__ndk1::basic_string<char, std::__ndk1::char_traits<char>, std::__ndk1::allocator<char> > >, std::__ndk1::hash<std::__ndk1::basic_string<char, std::__ndk1::char_traits<char>, std::__ndk1::allocator<char> > >, true>, std::__ndk1::allocator<std::__ndk1::__hash_value_type<std::__ndk1::basic_string<char, std::__ndk1::char_traits<char>, std::__ndk1::allocator<char> >, geode::Ref<cocos2d::CCObject> > > >::__emplace_unique_key_args<std::__ndk1::basic_string<char, std::__ndk1::char_traits<char>, std::__ndk1::allocator<char> >, std::__ndk1::pair<std::__ndk1::basic_string<char, std::__ndk1::char_traits<char>, std::__ndk1::allocator<char> > const, geode::Ref<cocos2d::CCObject> > >(std::__ndk1::basic_string<char, std::__ndk1::char_traits<char>, std::__ndk1::allocator<char> > const&, std::__ndk1::pair<std::__ndk1::basic_string<char, std::__ndk1::char_traits<char>, std::__ndk1::allocator<char> > const, geode::Ref<cocos2d::CCObject> >&&)
FUNC 2208d0 f0 0 std::__ndk1::__hash_table<std::__ndk1::__hash_value_type<std::__ndk1::basic_string<char, std::__ndk1::char_traits<char>, std::__ndk1::allocator<char> >, geode::Ref<cocos2d::CCObject> >, std::__ndk1::__unordered_map_hasher<std::__ndk1::basic_string<char, std::__ndk1::char_traits<char>, std::__ndk1::allocator<char> >, std::__ndk1::__hash_value_type<std::__ndk1::basic_string<char, std::__ndk1::char_traits<char>, std::__ndk1::allocator<char> >, geode::Ref<cocos2d::CCObject> >, std::__ndk1::hash<std::__ndk1::basic_string<char, std::__ndk1::char_traits<char>, std::__ndk1::allocator<char> > >, std::__ndk1::equal_to<std::__ndk1::basic_string<char, std::__ndk1::char_traits<char>, std::__ndk1::allocator<char> > >, true>, std::__ndk1::__unordered_map_equal<std::__ndk1::basic_string<char, std::__ndk1::char_traits<char>, std::__ndk1::allocator<char> >, std::__ndk1::__hash_value_type<std::__ndk1::basic_string<char, std::__ndk1::char_traits<char>, std::__ndk1::allocator<char> >, geode::Ref<cocos2d::CCObject> >, std::__ndk1::equal_to<std::__ndk1::basic_string<char, std::__ndk1::char_traits<char>, std::__ndk1::allocator<char> > >, std::__ndk1::hash<std::__ndk1::basic_string<char, std::__ndk1::char_traits<char>, std::__ndk1::allocator<char> > >, true>, std::__ndk1::allocator<std::__ndk1::__hash_value_type<std::__ndk1::basic_string<char, std::__ndk1::char_traits<char>, std::__ndk1::allocator<char> >, geode::Ref<cocos2d::CCObject> > > >::__construct_node_hash<std::__ndk1::pair<std::__ndk1::basic_string<char, std::__ndk1::char_traits<char>, std::__ndk1::allocator<char> > const, geode::Ref<cocos2d::CCObject> >, >(unsigned long, std::__ndk1::pair<std::__ndk1::basic_string<char, std::__ndk1::char_traits<char>, std::__ndk1::allocator<char> > const, geode::Ref<cocos2d::CCObject> >&&, &&)
FUNC 2209c0 5c 0 std::__ndk1::unique_ptr<std::__ndk1::__hash_node<std::__ndk1::__hash_value_type<std::__ndk1::basic_string<char, std::__ndk1::char_traits<char>, std::__ndk1::allocator<char> >, geode::Ref<cocos2d::CCObject> >, void*>, std::__ndk1::__hash_node_destructor<std::__ndk1::allocator<std::__ndk1::__hash_node<std::__ndk1::__hash_value_type<std::__ndk1::basic_string<char, std::__ndk1::char_traits<char>, std::__ndk1::allocator<char> >, geode::Ref<cocos2d::CCObject> >, void*> > > >::~unique_ptr[abi:v170000]()
FUNC 220a1c 49c 0 std::__ndk1::__murmur2_or_cityhash<unsigned long, (unsigned long)64>::operator()(void const*, unsigned long)
FUNC 220eb8 15c 0 std::__ndk1::__hash_table<std::__ndk1::__hash_value_type<std::__ndk1::basic_string<char, std::__ndk1::char_traits<char>, std::__ndk1::allocator<char> >, geode::Ref<cocos2d::CCObject> >, std::__ndk1::__unordered_map_hasher<std::__ndk1::basic_string<char, std::__ndk1::char_traits<char>, std::__ndk1::allocator<char> >, std::__ndk1::__hash_value_type<std::__ndk1::basic_string<char, std::__ndk1::char_traits<char>, std::__ndk1::allocator<char> >, geode::Ref<cocos2d::CCObject> >, std::__ndk1::hash<std::__ndk1::basic_string<char, std::__ndk1::char_traits<char>, std::__ndk1::allocator<char> > >, std::__ndk1::equal_to<std::__ndk1::basic_string<char, std::__ndk1::char_traits<char>, std::__ndk1::allocator<char> > >, true>, std::__ndk1::__unordered_map_equal<std::__ndk1::basic_string<char, std::__ndk1::char_traits<char>, std::__ndk1::allocator<char> >, std::__ndk1::__hash_value_type<std::__ndk1::basic_string<char, std::__ndk1::char_traits<char>, std::__ndk1::allocator<char> >, geode::Ref<cocos2d::CCObject> >, std::__ndk1::equal_to<std::__ndk1::basic_string<char, std::__ndk1::char_traits<char>, std::__ndk1::allocator<char> > >, std::__ndk1::hash<std::__ndk1::basic_string<char, std::__ndk1::char_traits<char>, std::__ndk1::allocator<char> > >, true>, std::__ndk1::allocator<std::__ndk1::__hash_value_type<std::__ndk1::basic_string<char, std::__ndk1::char_traits<char>, std::__ndk1::allocator<char> >, geode::Ref<cocos2d::CCObject> > > >::__do_rehash<true>(unsigned long)
FUNC 221014 480 0 geode::modifier::ModifyBase<geode::modifier::ModifyDerive<ProxyCCNode, cocos2d::CCNode> >::ModifyBase()
FUNC 221494 53c 0 geode::modifier::ModifyDerive<ProxyCCNode, cocos2d::CCNode>::apply()
FUNC 2219d0 4 0 geode::modifier::ModifyBase<geode::modifier::ModifyDerive<ProxyCCNode, cocos2d::CCNode> >::apply()
FUNC 2219d4 134 0 geode::Hook::create<cocos2d::CCObject* (*)(ProxyCCNode*)>(void*, cocos2d::CCObject* (*)(ProxyCCNode*), std::__ndk1::basic_string<char, std::__ndk1::char_traits<char>, std::__ndk1::allocator<char> > const&, tulip::hook::TulipConvention, tulip::hook::HookMetadata const&)
FUNC 221b08 4 0 geode::modifier::AsStaticFunction_getUserObject<ProxyCCNode, cocos2d::CCObject* (ProxyCCNode::*)()>::Impl<cocos2d::CCObject* (ProxyCCNode::*)()>::function(ProxyCCNode*)
FUNC 221b0c 180 0 geode::Hook::create<void (*)(ProxyCCNode*, cocos2d::CCObject*)>(void*, void (*)(ProxyCCNode*, cocos2d::CCObject*), std::__ndk1::basic_string<char, std::__ndk1::char_traits<char>, std::__ndk1::allocator<char> > const&, tulip::hook::TulipConvention, tulip::hook::HookMetadata const&)
FUNC 221c8c 4 0 geode::modifier::AsStaticFunction_setUserObject<ProxyCCNode, void (ProxyCCNode::*)(cocos2d::CCObject*)>::Impl<void (ProxyCCNode::*)(cocos2d::CCObject*)>::function(ProxyCCNode*, cocos2d::CCObject*)
FUNC 221c90 144 0 geode::addresser::Addresser::addressOfVirtual<cocos2d::CCObject*, cocos2d::CCNode, >(cocos2d::CCObject* (cocos2d::CCNode::*)())
FUNC 221dd4 114 0 ProxyCCNode::getUserObject()
FUNC 221ee8 144 0 geode::addresser::Addresser::addressOfVirtual<void, cocos2d::CCNode, cocos2d::CCObject*>(void (cocos2d::CCNode::*)(cocos2d::CCObject*))
FUNC 22202c 108 0 ProxyCCNode::setUserObject(cocos2d::CCObject*)
FUNC 222134 3f0 0 std::__ndk1::__hash_table<std::__ndk1::__hash_value_type<std::__ndk1::basic_string<char, std::__ndk1::char_traits<char>, std::__ndk1::allocator<char> >, unsigned long>, std::__ndk1::__unordered_map_hasher<std::__ndk1::basic_string<char, std::__ndk1::char_traits<char>, std::__ndk1::allocator<char> >, std::__ndk1::__hash_value_type<std::__ndk1::basic_string<char, std::__ndk1::char_traits<char>, std::__ndk1::allocator<char> >, unsigned long>, std::__ndk1::hash<std::__ndk1::basic_string<char, std::__ndk1::char_traits<char>, std::__ndk1::allocator<char> > >, std::__ndk1::equal_to<std::__ndk1::basic_string<char, std::__ndk1::char_traits<char>, std::__ndk1::allocator<char> > >, true>, std::__ndk1::__unordered_map_equal<std::__ndk1::basic_string<char, std::__ndk1::char_traits<char>, std::__ndk1::allocator<char> >, std::__ndk1::__hash_value_type<std::__ndk1::basic_string<char, std::__ndk1::char_traits<char>, std::__ndk1::allocator<char> >, unsigned long>, std::__ndk1::equal_to<std::__ndk1::basic_string<char, std::__ndk1::char_traits<char>, std::__ndk1::allocator<char> > >, std::__ndk1::hash<std::__ndk1::basic_string<char, std::__ndk1::char_traits<char>, std::__ndk1::allocator<char> > >, true>, std::__ndk1::allocator<std::__ndk1::__hash_value_type<std::__ndk1::basic_string<char, std::__ndk1::char_traits<char>, std::__ndk1::allocator<char> >, unsigned long> > >::__emplace_unique_key_args<std::__ndk1::basic_string<char, std::__ndk1::char_traits<char>, std::__ndk1::allocator<char> >, std::__ndk1::piecewise_construct_t const&, std::__ndk1::tuple<std::__ndk1::basic_string<char, std::__ndk1::char_traits<char>, std::__ndk1::allocator<char> >&&>, std::__ndk1::tuple<> >(std::__ndk1::basic_string<char, std::__ndk1::char_traits<char>, std::__ndk1::allocator<char> > const&, std::__ndk1::piecewise_construct_t const&, std::__ndk1::tuple<std::__ndk1::basic_string<char, std::__ndk1::char_traits<char>, std::__ndk1::allocator<char> >&&>, std::__ndk1::tuple<>)
FUNC 222524 4c 0 std::__ndk1::unique_ptr<std::__ndk1::__hash_node<std::__ndk1::__hash_value_type<std::__ndk1::basic_string<char, std::__ndk1::char_traits<char>, std::__ndk1::allocator<char> >, unsigned long>, void*>, std::__ndk1::__hash_node_destructor<std::__ndk1::allocator<std::__ndk1::__hash_node<std::__ndk1::__hash_value_type<std::__ndk1::basic_string<char, std::__ndk1::char_traits<char>, std::__ndk1::allocator<char> >, unsigned long>, void*> > > >::~unique_ptr[abi:v170000]()
FUNC 222570 15c 0 std::__ndk1::__hash_table<std::__ndk1::__hash_value_type<std::__ndk1::basic_string<char, std::__ndk1::char_traits<char>, std::__ndk1::allocator<char> >, unsigned long>, std::__ndk1::__unordered_map_hasher<std::__ndk1::basic_string<char, std::__ndk1::char_traits<char>, std::__ndk1::allocator<char> >, std::__ndk1::__hash_value_type<std::__ndk1::basic_string<char, std::__ndk1::char_traits<char>, std::__ndk1::allocator<char> >, unsigned long>, std::__ndk1::hash<std::__ndk1::basic_string<char, std::__ndk1::char_traits<char>, std::__ndk1::allocator<char> > >, std::__ndk1::equal_to<std::__ndk1::basic_string<char, std::__ndk1::char_traits<char>, std::__ndk1::allocator<char> > >, true>, std::__ndk1::__unordered_map_equal<std::__ndk1::basic_string<char, std::__ndk1::char_traits<char>, std::__ndk1::allocator<char> >, std::__ndk1::__hash_value_type<std::__ndk1::basic_string<char, std::__ndk1::char_traits<char>, std::__ndk1::allocator<char> >, unsigned long>, std::__ndk1::equal_to<std::__ndk1::basic_string<char, std::__ndk1::char_traits<char>, std::__ndk1::allocator<char> > >, std::__ndk1::hash<std::__ndk1::basic_string<char, std::__ndk1::char_traits<char>, std::__ndk1::allocator<char> > >, true>, std::__ndk1::allocator<std::__ndk1::__hash_value_type<std::__ndk1::basic_string<char, std::__ndk1::char_traits<char>, std::__ndk1::allocator<char> >, unsigned long> > >::__do_rehash<true>(unsigned long)
FUNC 2226cc 3f0 0 std::__ndk1::__hash_table<std::__ndk1::__hash_value_type<std::__ndk1::basic_string<char, std::__ndk1::char_traits<char>, std::__ndk1::allocator<char> >, geode::Ref<cocos2d::CCObject> >, std::__ndk1::__unordered_map_hasher<std::__ndk1::basic_string<char, std::__ndk1::char_traits<char>, std::__ndk1::allocator<char> >, std::__ndk1::__hash_value_type<std::__ndk1::basic_string<char, std::__ndk1::char_traits<char>, std::__ndk1::allocator<char> >, geode::Ref<cocos2d::CCObject> >, std::__ndk1::hash<std::__ndk1::basic_string<char, std::__ndk1::char_traits<char>, std::__ndk1::allocator<char> > >, std::__ndk1::equal_to<std::__ndk1::basic_string<char, std::__ndk1::char_traits<char>, std::__ndk1::allocator<char> > >, true>, std::__ndk1::__unordered_map_equal<std::__ndk1::basic_string<char, std::__ndk1::char_traits<char>, std::__ndk1::allocator<char> >, std::__ndk1::__hash_value_type<std::__ndk1::basic_string<char, std::__ndk1::char_traits<char>, std::__ndk1::allocator<char> >, geode::Ref<cocos2d::CCObject> >, std::__ndk1::equal_to<std::__ndk1::basic_string<char, std::__ndk1::char_traits<char>, std::__ndk1::allocator<char> > >, std::__ndk1::hash<std::__ndk1::basic_string<char, std::__ndk1::char_traits<char>, std::__ndk1::allocator<char> > >, true>, std::__ndk1::allocator<std::__ndk1::__hash_value_type<std::__ndk1::basic_string<char, std::__ndk1::char_traits<char>, std::__ndk1::allocator<char> >, geode::Ref<cocos2d::CCObject> > > >::__emplace_unique_key_args<std::__ndk1::basic_string<char, std::__ndk1::char_traits<char>, std::__ndk1::allocator<char> >, std::__ndk1::piecewise_construct_t const&, std::__ndk1::tuple<std::__ndk1::basic_string<char, std::__ndk1::char_traits<char>, std::__ndk1::allocator<char> > const&>, std::__ndk1::tuple<> >(std::__ndk1::basic_string<char, std::__ndk1::char_traits<char>, std::__ndk1::allocator<char> > const&, std::__ndk1::piecewise_construct_t const&, std::__ndk1::tuple<std::__ndk1::basic_string<char, std::__ndk1::char_traits<char>, std::__ndk1::allocator<char> > const&>, std::__ndk1::tuple<>)
FUNC 222abc e4 0 std::__ndk1::__hash_table<std::__ndk1::__hash_value_type<std::__ndk1::basic_string<char, std::__ndk1::char_traits<char>, std::__ndk1::allocator<char> >, geode::Ref<cocos2d::CCObject> >, std::__ndk1::__unordered_map_hasher<std::__ndk1::basic_string<char, std::__ndk1::char_traits<char>, std::__ndk1::allocator<char> >, std::__ndk1::__hash_value_type<std::__ndk1::basic_string<char, std::__ndk1::char_traits<char>, std::__ndk1::allocator<char> >, geode::Ref<cocos2d::CCObject> >, std::__ndk1::hash<std::__ndk1::basic_string<char, std::__ndk1::char_traits<char>, std::__ndk1::allocator<char> > >, std::__ndk1::equal_to<std::__ndk1::basic_string<char, std::__ndk1::char_traits<char>, std::__ndk1::allocator<char> > >, true>, std::__ndk1::__unordered_map_equal<std::__ndk1::basic_string<char, std::__ndk1::char_traits<char>, std::__ndk1::allocator<char> >, std::__ndk1::__hash_value_type<std::__ndk1::basic_string<char, std::__ndk1::char_traits<char>, std::__ndk1::allocator<char> >, geode::Ref<cocos2d::CCObject> >, std::__ndk1::equal_to<std::__ndk1::basic_string<char, std::__ndk1::char_traits<char>, std::__ndk1::allocator<char> > >, std::__ndk1::hash<std::__ndk1::basic_string<char, std::__ndk1::char_traits<char>, std::__ndk1::allocator<char> > >, true>, std::__ndk1::allocator<std::__ndk1::__hash_value_type<std::__ndk1::basic_string<char, std::__ndk1::char_traits<char>, std::__ndk1::allocator<char> >, geode::Ref<cocos2d::CCObject> > > >::__construct_node_hash<std::__ndk1::piecewise_construct_t const&, std::__ndk1::tuple<std::__ndk1::basic_string<char, std::__ndk1::char_traits<char>, std::__ndk1::allocator<char> > const&>, std::__ndk1::tuple<> >(unsigned long, std::__ndk1::piecewise_construct_t const&, std::__ndk1::tuple<std::__ndk1::basic_string<char, std::__ndk1::char_traits<char>, std::__ndk1::allocator<char> > const&>&&, std::__ndk1::tuple<>)
FUNC 222ba0 1c0 0 std::__ndk1::__hash_table<std::__ndk1::__hash_value_type<std::__ndk1::basic_string<char, std::__ndk1::char_traits<char>, std::__ndk1::allocator<char> >, geode::Ref<cocos2d::CCObject> >, std::__ndk1::__unordered_map_hasher<std::__ndk1::basic_string<char, std::__ndk1::char_traits<char>, std::__ndk1::allocator<char> >, std::__ndk1::__hash_value_type<std::__ndk1::basic_string<char, std::__ndk1::char_traits<char>, std::__ndk1::allocator<char> >, geode::Ref<cocos2d::CCObject> >, std::__ndk1::hash<std::__ndk1::basic_string<char, std::__ndk1::char_traits<char>, std::__ndk1::allocator<char> > >, std::__ndk1::equal_to<std::__ndk1::basic_string<char, std::__ndk1::char_traits<char>, std::__ndk1::allocator<char> > >, true>, std::__ndk1::__unordered_map_equal<std::__ndk1::basic_string<char, std::__ndk1::char_traits<char>, std::__ndk1::allocator<char> >, std::__ndk1::__hash_value_type<std::__ndk1::basic_string<char, std::__ndk1::char_traits<char>, std::__ndk1::allocator<char> >, geode::Ref<cocos2d::CCObject> >, std::__ndk1::equal_to<std::__ndk1::basic_string<char, std::__ndk1::char_traits<char>, std::__ndk1::allocator<char> > >, std::__ndk1::hash<std::__ndk1::basic_string<char, std::__ndk1::char_traits<char>, std::__ndk1::allocator<char> > >, true>, std::__ndk1::allocator<std::__ndk1::__hash_value_type<std::__ndk1::basic_string<char, std::__ndk1::char_traits<char>, std::__ndk1::allocator<char> >, geode::Ref<cocos2d::CCObject> > > >::find<std::__ndk1::basic_string<char, std::__ndk1::char_traits<char>, std::__ndk1::allocator<char> > >(std::__ndk1::basic_string<char, std::__ndk1::char_traits<char>, std::__ndk1::allocator<char> > const&)
FUNC 222d60 94 0 std::__ndk1::__hash_table<std::__ndk1::__hash_value_type<std::__ndk1::basic_string<char, std::__ndk1::char_traits<char>, std::__ndk1::allocator<char> >, geode::Ref<cocos2d::CCObject> >, std::__ndk1::__unordered_map_hasher<std::__ndk1::basic_string<char, std::__ndk1::char_traits<char>, std::__ndk1::allocator<char> >, std::__ndk1::__hash_value_type<std::__ndk1::basic_string<char, std::__ndk1::char_traits<char>, std::__ndk1::allocator<char> >, geode::Ref<cocos2d::CCObject> >, std::__ndk1::hash<std::__ndk1::basic_string<char, std::__ndk1::char_traits<char>, std::__ndk1::allocator<char> > >, std::__ndk1::equal_to<std::__ndk1::basic_string<char, std::__ndk1::char_traits<char>, std::__ndk1::allocator<char> > >, true>, std::__ndk1::__unordered_map_equal<std::__ndk1::basic_string<char, std::__ndk1::char_traits<char>, std::__ndk1::allocator<char> >, std::__ndk1::__hash_value_type<std::__ndk1::basic_string<char, std::__ndk1::char_traits<char>, std::__ndk1::allocator<char> >, geode::Ref<cocos2d::CCObject> >, std::__ndk1::equal_to<std::__ndk1::basic_string<char, std::__ndk1::char_traits<char>, std::__ndk1::allocator<char> > >, std::__ndk1::hash<std::__ndk1::basic_string<char, std::__ndk1::char_traits<char>, std::__ndk1::allocator<char> > >, true>, std::__ndk1::allocator<std::__ndk1::__hash_value_type<std::__ndk1::basic_string<char, std::__ndk1::char_traits<char>, std::__ndk1::allocator<char> >, geode::Ref<cocos2d::CCObject> > > >::erase(std::__ndk1::__hash_const_iterator<std::__ndk1::__hash_node<std::__ndk1::__hash_value_type<std::__ndk1::basic_string<char, std::__ndk1::char_traits<char>, std::__ndk1::allocator<char> >, geode::Ref<cocos2d::CCObject> >, void*>*>)
FUNC 222df4 134 0 std::__ndk1::__hash_table<std::__ndk1::__hash_value_type<std::__ndk1::basic_string<char, std::__ndk1::char_traits<char>, std::__ndk1::allocator<char> >, geode::Ref<cocos2d::CCObject> >, std::__ndk1::__unordered_map_hasher<std::__ndk1::basic_string<char, std::__ndk1::char_traits<char>, std::__ndk1::allocator<char> >, std::__ndk1::__hash_value_type<std::__ndk1::basic_string<char, std::__ndk1::char_traits<char>, std::__ndk1::allocator<char> >, geode::Ref<cocos2d::CCObject> >, std::__ndk1::hash<std::__ndk1::basic_string<char, std::__ndk1::char_traits<char>, std::__ndk1::allocator<char> > >, std::__ndk1::equal_to<std::__ndk1::basic_string<char, std::__ndk1::char_traits<char>, std::__ndk1::allocator<char> > >, true>, std::__ndk1::__unordered_map_equal<std::__ndk1::basic_string<char, std::__ndk1::char_traits<char>, std::__ndk1::allocator<char> >, std::__ndk1::__hash_value_type<std::__ndk1::basic_string<char, std::__ndk1::char_traits<char>, std::__ndk1::allocator<char> >, geode::Ref<cocos2d::CCObject> >, std::__ndk1::equal_to<std::__ndk1::basic_string<char, std::__ndk1::char_traits<char>, std::__ndk1::allocator<char> > >, std::__ndk1::hash<std::__ndk1::basic_string<char, std::__ndk1::char_traits<char>, std::__ndk1::allocator<char> > >, true>, std::__ndk1::allocator<std::__ndk1::__hash_value_type<std::__ndk1::basic_string<char, std::__ndk1::char_traits<char>, std::__ndk1::allocator<char> >, geode::Ref<cocos2d::CCObject> > > >::remove(std::__ndk1::__hash_const_iterator<std::__ndk1::__hash_node<std::__ndk1::__hash_value_type<std::__ndk1::basic_string<char, std::__ndk1::char_traits<char>, std::__ndk1::allocator<char> >, geode::Ref<cocos2d::CCObject> >, void*>*>)
FUNC 222f28 1c0 0 std::__ndk1::__hash_table<std::__ndk1::__hash_value_type<std::__ndk1::basic_string<char, std::__ndk1::char_traits<char>, std::__ndk1::allocator<char> >, geode::Ref<cocos2d::CCObject> >, std::__ndk1::__unordered_map_hasher<std::__ndk1::basic_string<char, std::__ndk1::char_traits<char>, std::__ndk1::allocator<char> >, std::__ndk1::__hash_value_type<std::__ndk1::basic_string<char, std::__ndk1::char_traits<char>, std::__ndk1::allocator<char> >, geode::Ref<cocos2d::CCObject> >, std::__ndk1::hash<std::__ndk1::basic_string<char, std::__ndk1::char_traits<char>, std::__ndk1::allocator<char> > >, std::__ndk1::equal_to<std::__ndk1::basic_string<char, std::__ndk1::char_traits<char>, std::__ndk1::allocator<char> > >, true>, std::__ndk1::__unordered_map_equal<std::__ndk1::basic_string<char, std::__ndk1::char_traits<char>, std::__ndk1::allocator<char> >, std::__ndk1::__hash_value_type<std::__ndk1::basic_string<char, std::__ndk1::char_traits<char>, std::__ndk1::allocator<char> >, geode::Ref<cocos2d::CCObject> >, std::__ndk1::equal_to<std::__ndk1::basic_string<char, std::__ndk1::char_traits<char>, std::__ndk1::allocator<char> > >, std::__ndk1::hash<std::__ndk1::basic_string<char, std::__ndk1::char_traits<char>, std::__ndk1::allocator<char> > >, true>, std::__ndk1::allocator<std::__ndk1::__hash_value_type<std::__ndk1::basic_string<char, std::__ndk1::char_traits<char>, std::__ndk1::allocator<char> >, geode::Ref<cocos2d::CCObject> > > >::find<std::__ndk1::basic_string<char, std::__ndk1::char_traits<char>, std::__ndk1::allocator<char> > >(std::__ndk1::basic_string<char, std::__ndk1::char_traits<char>, std::__ndk1::allocator<char> > const&) const
FUNC 2230e8 50 0 std::__ndk1::__throw_out_of_range[abi:v170000](char const*)
FUNC 223138 1c0 0 std::__ndk1::__hash_table<std::__ndk1::__hash_value_type<std::__ndk1::basic_string<char, std::__ndk1::char_traits<char>, std::__ndk1::allocator<char> >, std::__ndk1::unique_ptr<geode::EventListenerProtocol, std::__ndk1::default_delete<geode::EventListenerProtocol> > >, std::__ndk1::__unordered_map_hasher<std::__ndk1::basic_string<char, std::__ndk1::char_traits<char>, std::__ndk1::allocator<char> >, std::__ndk1::__hash_value_type<std::__ndk1::basic_string<char, std::__ndk1::char_traits<char>, std::__ndk1::allocator<char> >, std::__ndk1::unique_ptr<geode::EventListenerProtocol, std::__ndk1::default_delete<geode::EventListenerProtocol> > >, std::__ndk1::hash<std::__ndk1::basic_string<char, std::__ndk1::char_traits<char>, std::__ndk1::allocator<char> > >, std::__ndk1::equal_to<std::__ndk1::basic_string<char, std::__ndk1::char_traits<char>, std::__ndk1::allocator<char> > >, true>, std::__ndk1::__unordered_map_equal<std::__ndk1::basic_string<char, std::__ndk1::char_traits<char>, std::__ndk1::allocator<char> >, std::__ndk1::__hash_value_type<std::__ndk1::basic_string<char, std::__ndk1::char_traits<char>, std::__ndk1::allocator<char> >, std::__ndk1::unique_ptr<geode::EventListenerProtocol, std::__ndk1::default_delete<geode::EventListenerProtocol> > >, std::__ndk1::equal_to<std::__ndk1::basic_string<char, std::__ndk1::char_traits<char>, std::__ndk1::allocator<char> > >, std::__ndk1::hash<std::__ndk1::basic_string<char, std::__ndk1::char_traits<char>, std::__ndk1::allocator<char> > >, true>, std::__ndk1::allocator<std::__ndk1::__hash_value_type<std::__ndk1::basic_string<char, std::__ndk1::char_traits<char>, std::__ndk1::allocator<char> >, std::__ndk1::unique_ptr<geode::EventListenerProtocol, std::__ndk1::default_delete<geode::EventListenerProtocol> > > > >::find<std::__ndk1::basic_string<char, std::__ndk1::char_traits<char>, std::__ndk1::allocator<char> > >(std::__ndk1::basic_string<char, std::__ndk1::char_traits<char>, std::__ndk1::allocator<char> > const&) const
FUNC 2232f8 1c0 0 std::__ndk1::__hash_table<std::__ndk1::__hash_value_type<std::__ndk1::basic_string<char, std::__ndk1::char_traits<char>, std::__ndk1::allocator<char> >, std::__ndk1::unique_ptr<geode::EventListenerProtocol, std::__ndk1::default_delete<geode::EventListenerProtocol> > >, std::__ndk1::__unordered_map_hasher<std::__ndk1::basic_string<char, std::__ndk1::char_traits<char>, std::__ndk1::allocator<char> >, std::__ndk1::__hash_value_type<std::__ndk1::basic_string<char, std::__ndk1::char_traits<char>, std::__ndk1::allocator<char> >, std::__ndk1::unique_ptr<geode::EventListenerProtocol, std::__ndk1::default_delete<geode::EventListenerProtocol> > >, std::__ndk1::hash<std::__ndk1::basic_string<char, std::__ndk1::char_traits<char>, std::__ndk1::allocator<char> > >, std::__ndk1::equal_to<std::__ndk1::basic_string<char, std::__ndk1::char_traits<char>, std::__ndk1::allocator<char> > >, true>, std::__ndk1::__unordered_map_equal<std::__ndk1::basic_string<char, std::__ndk1::char_traits<char>, std::__ndk1::allocator<char> >, std::__ndk1::__hash_value_type<std::__ndk1::basic_string<char, std::__ndk1::char_traits<char>, std::__ndk1::allocator<char> >, std::__ndk1::unique_ptr<geode::EventListenerProtocol, std::__ndk1::default_delete<geode::EventListenerProtocol> > >, std::__ndk1::equal_to<std::__ndk1::basic_string<char, std::__ndk1::char_traits<char>, std::__ndk1::allocator<char> > >, std::__ndk1::hash<std::__ndk1::basic_string<char, std::__ndk1::char_traits<char>, std::__ndk1::allocator<char> > >, true>, std::__ndk1::allocator<std::__ndk1::__hash_value_type<std::__ndk1::basic_string<char, std::__ndk1::char_traits<char>, std::__ndk1::allocator<char> >, std::__ndk1::unique_ptr<geode::EventListenerProtocol, std::__ndk1::default_delete<geode::EventListenerProtocol> > > > >::find<std::__ndk1::basic_string<char, std::__ndk1::char_traits<char>, std::__ndk1::allocator<char> > >(std::__ndk1::basic_string<char, std::__ndk1::char_traits<char>, std::__ndk1::allocator<char> > const&)
FUNC 2234b8 3e0 0 std::__ndk1::__hash_table<std::__ndk1::__hash_value_type<std::__ndk1::basic_string<char, std::__ndk1::char_traits<char>, std::__ndk1::allocator<char> >, std::__ndk1::unique_ptr<geode::EventListenerProtocol, std::__ndk1::default_delete<geode::EventListenerProtocol> > >, std::__ndk1::__unordered_map_hasher<std::__ndk1::basic_string<char, std::__ndk1::char_traits<char>, std::__ndk1::allocator<char> >, std::__ndk1::__hash_value_type<std::__ndk1::basic_string<char, std::__ndk1::char_traits<char>, std::__ndk1::allocator<char> >, std::__ndk1::unique_ptr<geode::EventListenerProtocol, std::__ndk1::default_delete<geode::EventListenerProtocol> > >, std::__ndk1::hash<std::__ndk1::basic_string<char, std::__ndk1::char_traits<char>, std::__ndk1::allocator<char> > >, std::__ndk1::equal_to<std::__ndk1::basic_string<char, std::__ndk1::char_traits<char>, std::__ndk1::allocator<char> > >, true>, std::__ndk1::__unordered_map_equal<std::__ndk1::basic_string<char, std::__ndk1::char_traits<char>, std::__ndk1::allocator<char> >, std::__ndk1::__hash_value_type<std::__ndk1::basic_string<char, std::__ndk1::char_traits<char>, std::__ndk1::allocator<char> >, std::__ndk1::unique_ptr<geode::EventListenerProtocol, std::__ndk1::default_delete<geode::EventListenerProtocol> > >, std::__ndk1::equal_to<std::__ndk1::basic_string<char, std::__ndk1::char_traits<char>, std::__ndk1::allocator<char> > >, std::__ndk1::hash<std::__ndk1::basic_string<char, std::__ndk1::char_traits<char>, std::__ndk1::allocator<char> > >, true>, std::__ndk1::allocator<std::__ndk1::__hash_value_type<std::__ndk1::basic_string<char, std::__ndk1::char_traits<char>, std::__ndk1::allocator<char> >, std::__ndk1::unique_ptr<geode::EventListenerProtocol, std::__ndk1::default_delete<geode::EventListenerProtocol> > > > >::__emplace_unique_key_args<std::__ndk1::basic_string<char, std::__ndk1::char_traits<char>, std::__ndk1::allocator<char> >, std::__ndk1::basic_string<char, std::__ndk1::char_traits<char>, std::__ndk1::allocator<char> > const&, geode::EventListenerProtocol*&>(std::__ndk1::basic_string<char, std::__ndk1::char_traits<char>, std::__ndk1::allocator<char> > const&, std::__ndk1::basic_string<char, std::__ndk1::char_traits<char>, std::__ndk1::allocator<char> > const&, geode::EventListenerProtocol*&)
FUNC 223898 f0 0 std::__ndk1::__hash_table<std::__ndk1::__hash_value_type<std::__ndk1::basic_string<char, std::__ndk1::char_traits<char>, std::__ndk1::allocator<char> >, std::__ndk1::unique_ptr<geode::EventListenerProtocol, std::__ndk1::default_delete<geode::EventListenerProtocol> > >, std::__ndk1::__unordered_map_hasher<std::__ndk1::basic_string<char, std::__ndk1::char_traits<char>, std::__ndk1::allocator<char> >, std::__ndk1::__hash_value_type<std::__ndk1::basic_string<char, std::__ndk1::char_traits<char>, std::__ndk1::allocator<char> >, std::__ndk1::unique_ptr<geode::EventListenerProtocol, std::__ndk1::default_delete<geode::EventListenerProtocol> > >, std::__ndk1::hash<std::__ndk1::basic_string<char, std::__ndk1::char_traits<char>, std::__ndk1::allocator<char> > >, std::__ndk1::equal_to<std::__ndk1::basic_string<char, std::__ndk1::char_traits<char>, std::__ndk1::allocator<char> > >, true>, std::__ndk1::__unordered_map_equal<std::__ndk1::basic_string<char, std::__ndk1::char_traits<char>, std::__ndk1::allocator<char> >, std::__ndk1::__hash_value_type<std::__ndk1::basic_string<char, std::__ndk1::char_traits<char>, std::__ndk1::allocator<char> >, std::__ndk1::unique_ptr<geode::EventListenerProtocol, std::__ndk1::default_delete<geode::EventListenerProtocol> > >, std::__ndk1::equal_to<std::__ndk1::basic_string<char, std::__ndk1::char_traits<char>, std::__ndk1::allocator<char> > >, std::__ndk1::hash<std::__ndk1::basic_string<char, std::__ndk1::char_traits<char>, std::__ndk1::allocator<char> > >, true>, std::__ndk1::allocator<std::__ndk1::__hash_value_type<std::__ndk1::basic_string<char, std::__ndk1::char_traits<char>, std::__ndk1::allocator<char> >, std::__ndk1::unique_ptr<geode::EventListenerProtocol, std::__ndk1::default_delete<geode::EventListenerProtocol> > > > >::__construct_node_hash<std::__ndk1::basic_string<char, std::__ndk1::char_traits<char>, std::__ndk1::allocator<char> > const&, geode::EventListenerProtocol*&>(unsigned long, std::__ndk1::basic_string<char, std::__ndk1::char_traits<char>, std::__ndk1::allocator<char> > const&, geode::EventListenerProtocol*&)
FUNC 223988 64 0 std::__ndk1::unique_ptr<std::__ndk1::__hash_node<std::__ndk1::__hash_value_type<std::__ndk1::basic_string<char, std::__ndk1::char_traits<char>, std::__ndk1::allocator<char> >, std::__ndk1::unique_ptr<geode::EventListenerProtocol, std::__ndk1::default_delete<geode::EventListenerProtocol> > >, void*>, std::__ndk1::__hash_node_destructor<std::__ndk1::allocator<std::__ndk1::__hash_node<std::__ndk1::__hash_value_type<std::__ndk1::basic_string<char, std::__ndk1::char_traits<char>, std::__ndk1::allocator<char> >, std::__ndk1::unique_ptr<geode::EventListenerProtocol, std::__ndk1::default_delete<geode::EventListenerProtocol> > >, void*> > > >::~unique_ptr[abi:v170000]()
FUNC 2239ec 15c 0 std::__ndk1::__hash_table<std::__ndk1::__hash_value_type<std::__ndk1::basic_string<char, std::__ndk1::char_traits<char>, std::__ndk1::allocator<char> >, std::__ndk1::unique_ptr<geode::EventListenerProtocol, std::__ndk1::default_delete<geode::EventListenerProtocol> > >, std::__ndk1::__unordered_map_hasher<std::__ndk1::basic_string<char, std::__ndk1::char_traits<char>, std::__ndk1::allocator<char> >, std::__ndk1::__hash_value_type<std::__ndk1::basic_string<char, std::__ndk1::char_traits<char>, std::__ndk1::allocator<char> >, std::__ndk1::unique_ptr<geode::EventListenerProtocol, std::__ndk1::default_delete<geode::EventListenerProtocol> > >, std::__ndk1::hash<std::__ndk1::basic_string<char, std::__ndk1::char_traits<char>, std::__ndk1::allocator<char> > >, std::__ndk1::equal_to<std::__ndk1::basic_string<char, std::__ndk1::char_traits<char>, std::__ndk1::allocator<char> > >, true>, std::__ndk1::__unordered_map_equal<std::__ndk1::basic_string<char, std::__ndk1::char_traits<char>, std::__ndk1::allocator<char> >, std::__ndk1::__hash_value_type<std::__ndk1::basic_string<char, std::__ndk1::char_traits<char>, std::__ndk1::allocator<char> >, std::__ndk1::unique_ptr<geode::EventListenerProtocol, std::__ndk1::default_delete<geode::EventListenerProtocol> > >, std::__ndk1::equal_to<std::__ndk1::basic_string<char, std::__ndk1::char_traits<char>, std::__ndk1::allocator<char> > >, std::__ndk1::hash<std::__ndk1::basic_string<char, std::__ndk1::char_traits<char>, std::__ndk1::allocator<char> > >, true>, std::__ndk1::allocator<std::__ndk1::__hash_value_type<std::__ndk1::basic_string<char, std::__ndk1::char_traits<char>, std::__ndk1::allocator<char> >, std::__ndk1::unique_ptr<geode::EventListenerProtocol, std::__ndk1::default_delete<geode::EventListenerProtocol> > > > >::__do_rehash<true>(unsigned long)
FUNC 223b48 134 0 std::__ndk1::__hash_table<std::__ndk1::unique_ptr<geode::EventListenerProtocol, std::__ndk1::default_delete<geode::EventListenerProtocol> >, std::__ndk1::hash<std::__ndk1::unique_ptr<geode::EventListenerProtocol, std::__ndk1::default_delete<geode::EventListenerProtocol> > >, std::__ndk1::equal_to<std::__ndk1::unique_ptr<geode::EventListenerProtocol, std::__ndk1::default_delete<geode::EventListenerProtocol> > >, std::__ndk1::allocator<std::__ndk1::unique_ptr<geode::EventListenerProtocol, std::__ndk1::default_delete<geode::EventListenerProtocol> > > >::remove(std::__ndk1::__hash_const_iterator<std::__ndk1::__hash_node<std::__ndk1::unique_ptr<geode::EventListenerProtocol, std::__ndk1::default_delete<geode::EventListenerProtocol> >, void*>*>)
FUNC 223c7c 54 0 std::__ndk1::unique_ptr<std::__ndk1::__hash_node<std::__ndk1::unique_ptr<geode::EventListenerProtocol, std::__ndk1::default_delete<geode::EventListenerProtocol> >, void*>, std::__ndk1::__hash_node_destructor<std::__ndk1::allocator<std::__ndk1::__hash_node<std::__ndk1::unique_ptr<geode::EventListenerProtocol, std::__ndk1::default_delete<geode::EventListenerProtocol> >, void*> > > >::~unique_ptr[abi:v170000]()
FUNC 223cd0 11c 0 std::__ndk1::__hash_table<std::__ndk1::unique_ptr<geode::EventListenerProtocol, std::__ndk1::default_delete<geode::EventListenerProtocol> >, std::__ndk1::hash<std::__ndk1::unique_ptr<geode::EventListenerProtocol, std::__ndk1::default_delete<geode::EventListenerProtocol> > >, std::__ndk1::equal_to<std::__ndk1::unique_ptr<geode::EventListenerProtocol, std::__ndk1::default_delete<geode::EventListenerProtocol> > >, std::__ndk1::allocator<std::__ndk1::unique_ptr<geode::EventListenerProtocol, std::__ndk1::default_delete<geode::EventListenerProtocol> > > >::__emplace_unique_impl<geode::EventListenerProtocol*&>(geode::EventListenerProtocol*&)
FUNC 223dec 134 0 std::__ndk1::__hash_table<std::__ndk1::unique_ptr<geode::EventListenerProtocol, std::__ndk1::default_delete<geode::EventListenerProtocol> >, std::__ndk1::hash<std::__ndk1::unique_ptr<geode::EventListenerProtocol, std::__ndk1::default_delete<geode::EventListenerProtocol> > >, std::__ndk1::equal_to<std::__ndk1::unique_ptr<geode::EventListenerProtocol, std::__ndk1::default_delete<geode::EventListenerProtocol> > >, std::__ndk1::allocator<std::__ndk1::unique_ptr<geode::EventListenerProtocol, std::__ndk1::default_delete<geode::EventListenerProtocol> > > >::__node_insert_unique(std::__ndk1::__hash_node<std::__ndk1::unique_ptr<geode::EventListenerProtocol, std::__ndk1::default_delete<geode::EventListenerProtocol> >, void*>*)
FUNC 223f20 1b8 0 std::__ndk1::__hash_table<std::__ndk1::unique_ptr<geode::EventListenerProtocol, std::__ndk1::default_delete<geode::EventListenerProtocol> >, std::__ndk1::hash<std::__ndk1::unique_ptr<geode::EventListenerProtocol, std::__ndk1::default_delete<geode::EventListenerProtocol> > >, std::__ndk1::equal_to<std::__ndk1::unique_ptr<geode::EventListenerProtocol, std::__ndk1::default_delete<geode::EventListenerProtocol> > >, std::__ndk1::allocator<std::__ndk1::unique_ptr<geode::EventListenerProtocol, std::__ndk1::default_delete<geode::EventListenerProtocol> > > >::__node_insert_unique_prepare[abi:v170000](unsigned long, std::__ndk1::unique_ptr<geode::EventListenerProtocol, std::__ndk1::default_delete<geode::EventListenerProtocol> >&)
FUNC 2240d8 15c 0 std::__ndk1::__hash_table<std::__ndk1::unique_ptr<geode::EventListenerProtocol, std::__ndk1::default_delete<geode::EventListenerProtocol> >, std::__ndk1::hash<std::__ndk1::unique_ptr<geode::EventListenerProtocol, std::__ndk1::default_delete<geode::EventListenerProtocol> > >, std::__ndk1::equal_to<std::__ndk1::unique_ptr<geode::EventListenerProtocol, std::__ndk1::default_delete<geode::EventListenerProtocol> > >, std::__ndk1::allocator<std::__ndk1::unique_ptr<geode::EventListenerProtocol, std::__ndk1::default_delete<geode::EventListenerProtocol> > > >::__do_rehash<true>(unsigned long)
FUNC 224234 134 0 std::__ndk1::__hash_table<std::__ndk1::__hash_value_type<std::__ndk1::basic_string<char, std::__ndk1::char_traits<char>, std::__ndk1::allocator<char> >, std::__ndk1::unique_ptr<geode::EventListenerProtocol, std::__ndk1::default_delete<geode::EventListenerProtocol> > >, std::__ndk1::__unordered_map_hasher<std::__ndk1::basic_string<char, std::__ndk1::char_traits<char>, std::__ndk1::allocator<char> >, std::__ndk1::__hash_value_type<std::__ndk1::basic_string<char, std::__ndk1::char_traits<char>, std::__ndk1::allocator<char> >, std::__ndk1::unique_ptr<geode::EventListenerProtocol, std::__ndk1::default_delete<geode::EventListenerProtocol> > >, std::__ndk1::hash<std::__ndk1::basic_string<char, std::__ndk1::char_traits<char>, std::__ndk1::allocator<char> > >, std::__ndk1::equal_to<std::__ndk1::basic_string<char, std::__ndk1::char_traits<char>, std::__ndk1::allocator<char> > >, true>, std::__ndk1::__unordered_map_equal<std::__ndk1::basic_string<char, std::__ndk1::char_traits<char>, std::__ndk1::allocator<char> >, std::__ndk1::__hash_value_type<std::__ndk1::basic_string<char, std::__ndk1::char_traits<char>, std::__ndk1::allocator<char> >, std::__ndk1::unique_ptr<geode::EventListenerProtocol, std::__ndk1::default_delete<geode::EventListenerProtocol> > >, std::__ndk1::equal_to<std::__ndk1::basic_string<char, std::__ndk1::char_traits<char>, std::__ndk1::allocator<char> > >, std::__ndk1::hash<std::__ndk1::basic_string<char, std::__ndk1::char_traits<char>, std::__ndk1::allocator<char> > >, true>, std::__ndk1::allocator<std::__ndk1::__hash_value_type<std::__ndk1::basic_string<char, std::__ndk1::char_traits<char>, std::__ndk1::allocator<char> >, std::__ndk1::unique_ptr<geode::EventListenerProtocol, std::__ndk1::default_delete<geode::EventListenerProtocol> > > > >::remove(std::__ndk1::__hash_const_iterator<std::__ndk1::__hash_node<std::__ndk1::__hash_value_type<std::__ndk1::basic_string<char, std::__ndk1::char_traits<char>, std::__ndk1::allocator<char> >, std::__ndk1::unique_ptr<geode::EventListenerProtocol, std::__ndk1::default_delete<geode::EventListenerProtocol> > >, void*>*>)
FUNC 224368 a4 0 std::__ndk1::__hash_table<std::__ndk1::__hash_value_type<std::__ndk1::basic_string<char, std::__ndk1::char_traits<char>, std::__ndk1::allocator<char> >, std::__ndk1::unique_ptr<geode::EventListenerProtocol, std::__ndk1::default_delete<geode::EventListenerProtocol> > >, std::__ndk1::__unordered_map_hasher<std::__ndk1::basic_string<char, std::__ndk1::char_traits<char>, std::__ndk1::allocator<char> >, std::__ndk1::__hash_value_type<std::__ndk1::basic_string<char, std::__ndk1::char_traits<char>, std::__ndk1::allocator<char> >, std::__ndk1::unique_ptr<geode::EventListenerProtocol, std::__ndk1::default_delete<geode::EventListenerProtocol> > >, std::__ndk1::hash<std::__ndk1::basic_string<char, std::__ndk1::char_traits<char>, std::__ndk1::allocator<char> > >, std::__ndk1::equal_to<std::__ndk1::basic_string<char, std::__ndk1::char_traits<char>, std::__ndk1::allocator<char> > >, true>, std::__ndk1::__unordered_map_equal<std::__ndk1::basic_string<char, std::__ndk1::char_traits<char>, std::__ndk1::allocator<char> >, std::__ndk1::__hash_value_type<std::__ndk1::basic_string<char, std::__ndk1::char_traits<char>, std::__ndk1::allocator<char> >, std::__ndk1::unique_ptr<geode::EventListenerProtocol, std::__ndk1::default_delete<geode::EventListenerProtocol> > >, std::__ndk1::equal_to<std::__ndk1::basic_string<char, std::__ndk1::char_traits<char>, std::__ndk1::allocator<char> > >, std::__ndk1::hash<std::__ndk1::basic_string<char, std::__ndk1::char_traits<char>, std::__ndk1::allocator<char> > >, true>, std::__ndk1::allocator<std::__ndk1::__hash_value_type<std::__ndk1::basic_string<char, std::__ndk1::char_traits<char>, std::__ndk1::allocator<char> >, std::__ndk1::unique_ptr<geode::EventListenerProtocol, std::__ndk1::default_delete<geode::EventListenerProtocol> > > > >::__erase_unique<std::__ndk1::basic_string<char, std::__ndk1::char_traits<char>, std::__ndk1::allocator<char> > >(std::__ndk1::basic_string<char, std::__ndk1::char_traits<char>, std::__ndk1::allocator<char> > const&)
FUNC 22440c 2c 0 _GLOBAL__sub_I_GeodeNodeMetadata.cpp
FUNC 224438 70 0 __cxx_global_var_init
FUNC 2244a8 20 0 geode::modifier::ModifyBase<geode::modifier::ModifyDerive<CustomLoadingLayer, LoadingLayer> >::~ModifyBase()
FUNC 2244c8 70 0 __cxx_global_var_init.1
FUNC 224538 20 0 geode::modifier::ModifyBase<geode::modifier::ModifyDerive<FallbackCustomLoadingLayer, cocos2d::CCLayer> >::~ModifyBase()
FUNC 224558 48c 0 geode::modifier::ModifyBase<geode::modifier::ModifyDerive<CustomLoadingLayer, LoadingLayer> >::ModifyBase()
FUNC 2249e4 50c 0 geode::modifier::ModifyDerive<CustomLoadingLayer, LoadingLayer>::apply()
FUNC 224ef0 184 0 CustomLoadingLayer::onModify<geode::modifier::ModifyBase<geode::modifier::ModifyDerive<CustomLoadingLayer, LoadingLayer> > >(geode::modifier::ModifyBase<geode::modifier::ModifyDerive<CustomLoadingLayer, LoadingLayer> >&)
FUNC 225074 4 0 geode::modifier::ModifyBase<geode::modifier::ModifyDerive<CustomLoadingLayer, LoadingLayer> >::apply()
FUNC 225078 198 0 geode::modifier::ModifyBase<geode::modifier::ModifyDerive<CustomLoadingLayer, LoadingLayer> >::setHookPriority(std::__ndk1::basic_string<char, std::__ndk1::char_traits<char>, std::__ndk1::allocator<char> > const&, int)
FUNC 225210 138 0 geode::modifier::ModifyBase<geode::modifier::ModifyDerive<CustomLoadingLayer, LoadingLayer> >::getHook(std::__ndk1::basic_string<char, std::__ndk1::char_traits<char>, std::__ndk1::allocator<char> > const&)
FUNC 225348 dc 0 std::__ndk1::__tree<std::__ndk1::__value_type<std::__ndk1::basic_string<char, std::__ndk1::char_traits<char>, std::__ndk1::allocator<char> >, std::__ndk1::shared_ptr<geode::Hook> >, std::__ndk1::__map_value_compare<std::__ndk1::basic_string<char, std::__ndk1::char_traits<char>, std::__ndk1::allocator<char> >, std::__ndk1::__value_type<std::__ndk1::basic_string<char, std::__ndk1::char_traits<char>, std::__ndk1::allocator<char> >, std::__ndk1::shared_ptr<geode::Hook> >, std::__ndk1::less<std::__ndk1::basic_string<char, std::__ndk1::char_traits<char>, std::__ndk1::allocator<char> > >, true>, std::__ndk1::allocator<std::__ndk1::__value_type<std::__ndk1::basic_string<char, std::__ndk1::char_traits<char>, std::__ndk1::allocator<char> >, std::__ndk1::shared_ptr<geode::Hook> > > >::__construct_node<std::__ndk1::piecewise_construct_t const&, std::__ndk1::tuple<std::__ndk1::basic_string<char, std::__ndk1::char_traits<char>, std::__ndk1::allocator<char> > const&>, std::__ndk1::tuple<> >(std::__ndk1::piecewise_construct_t const&, std::__ndk1::tuple<std::__ndk1::basic_string<char, std::__ndk1::char_traits<char>, std::__ndk1::allocator<char> > const&>, std::__ndk1::tuple<>)
FUNC 225424 88 0 std::__ndk1::unique_ptr<std::__ndk1::__tree_node<std::__ndk1::__value_type<std::__ndk1::basic_string<char, std::__ndk1::char_traits<char>, std::__ndk1::allocator<char> >, std::__ndk1::shared_ptr<geode::Hook> >, void*>, std::__ndk1::__tree_node_destructor<std::__ndk1::allocator<std::__ndk1::__tree_node<std::__ndk1::__value_type<std::__ndk1::basic_string<char, std::__ndk1::char_traits<char>, std::__ndk1::allocator<char> >, std::__ndk1::shared_ptr<geode::Hook> >, void*> > > >::~unique_ptr[abi:v170000]()
FUNC 2254ac 180 0 geode::Hook::create<bool (*)(CustomLoadingLayer*, bool)>(void*, bool (*)(CustomLoadingLayer*, bool), std::__ndk1::basic_string<char, std::__ndk1::char_traits<char>, std::__ndk1::allocator<char> > const&, tulip::hook::TulipConvention, tulip::hook::HookMetadata const&)
FUNC 22562c 4 0 geode::modifier::AsStaticFunction_init<CustomLoadingLayer, bool (CustomLoadingLayer::*)(bool)>::Impl<bool (CustomLoadingLayer::*)(bool)>::function(CustomLoadingLayer*, bool)
FUNC 225630 134 0 geode::Hook::create<void (*)(CustomLoadingLayer*)>(void*, void (*)(CustomLoadingLayer*), std::__ndk1::basic_string<char, std::__ndk1::char_traits<char>, std::__ndk1::allocator<char> > const&, tulip::hook::TulipConvention, tulip::hook::HookMetadata const&)
FUNC 225764 4 0 geode::modifier::AsStaticFunction_loadAssets<CustomLoadingLayer, void (CustomLoadingLayer::*)()>::Impl<void (CustomLoadingLayer::*)()>::function(CustomLoadingLayer*)
FUNC 225768 2e8 0 CustomLoadingLayer::init(bool)
FUNC 225a50 13c 0 geode::NodeIDs::provide<CustomLoadingLayer>(CustomLoadingLayer*) const
FUNC 225b8c 1c0 0 std::__ndk1::__hash_table<std::__ndk1::__hash_value_type<std::__ndk1::basic_string<char, std::__ndk1::char_traits<char>, std::__ndk1::allocator<char> >, void (*)(cocos2d::CCNode*)>, std::__ndk1::__unordered_map_hasher<std::__ndk1::basic_string<char, std::__ndk1::char_traits<char>, std::__ndk1::allocator<char> >, std::__ndk1::__hash_value_type<std::__ndk1::basic_string<char, std::__ndk1::char_traits<char>, std::__ndk1::allocator<char> >, void (*)(cocos2d::CCNode*)>, std::__ndk1::hash<std::__ndk1::basic_string<char, std::__ndk1::char_traits<char>, std::__ndk1::allocator<char> > >, std::__ndk1::equal_to<std::__ndk1::basic_string<char, std::__ndk1::char_traits<char>, std::__ndk1::allocator<char> > >, true>, std::__ndk1::__unordered_map_equal<std::__ndk1::basic_string<char, std::__ndk1::char_traits<char>, std::__ndk1::allocator<char> >, std::__ndk1::__hash_value_type<std::__ndk1::basic_string<char, std::__ndk1::char_traits<char>, std::__ndk1::allocator<char> >, void (*)(cocos2d::CCNode*)>, std::__ndk1::equal_to<std::__ndk1::basic_string<char, std::__ndk1::char_traits<char>, std::__ndk1::allocator<char> > >, std::__ndk1::hash<std::__ndk1::basic_string<char, std::__ndk1::char_traits<char>, std::__ndk1::allocator<char> > >, true>, std::__ndk1::allocator<std::__ndk1::__hash_value_type<std::__ndk1::basic_string<char, std::__ndk1::char_traits<char>, std::__ndk1::allocator<char> >, void (*)(cocos2d::CCNode*)> > >::find<std::__ndk1::basic_string<char, std::__ndk1::char_traits<char>, std::__ndk1::allocator<char> > >(std::__ndk1::basic_string<char, std::__ndk1::char_traits<char>, std::__ndk1::allocator<char> > const&) const
FUNC 225d4c 210 0 geode::modifier::FieldIntermediate<CustomLoadingLayer, LoadingLayer>::operator CustomLoadingLayer*()
FUNC 225f5c 250 0 geode::modifier::FieldContainer::getField(unsigned long)
FUNC 2261ac ac 0 geode::modifier::FieldContainer::setField(unsigned long, unsigned long, geode::utils::MiniFunction<void (void*)>)
FUNC 226258 f4 0 geode::modifier::FieldIntermediate<CustomLoadingLayer, LoadingLayer>::fieldDestructor(void*)
FUNC 22634c 14 0 std::__ndk1::vector<void*, std::__ndk1::allocator<void*> >::__throw_length_error[abi:v170000]() const
FUNC 226360 230 0 std::__ndk1::vector<geode::utils::MiniFunction<void (void*)>, std::__ndk1::allocator<geode::utils::MiniFunction<void (void*)> > >::__push_back_slow_path<geode::utils::MiniFunction<void (void*)> >(geode::utils::MiniFunction<void (void*)>&&)
FUNC 226590 5c 0 std::__ndk1::__split_buffer<geode::utils::MiniFunction<void (void*)>, std::__ndk1::allocator<geode::utils::MiniFunction<void (void*)> >&>::~__split_buffer()
FUNC 2265ec 14 0 std::__ndk1::vector<geode::utils::MiniFunction<void (void*)>, std::__ndk1::allocator<geode::utils::MiniFunction<void (void*)> > >::__throw_length_error[abi:v170000]() const
FUNC 226600 14 0 std::__ndk1::vector<void*, std::__ndk1::allocator<void*> >::__throw_out_of_range[abi:v170000]() const
FUNC 226614 14 0 std::__ndk1::vector<geode::utils::MiniFunction<void (void*)>, std::__ndk1::allocator<geode::utils::MiniFunction<void (void*)> > >::__throw_out_of_range[abi:v170000]() const
FUNC 226628 64 0 geode::Modify<CustomLoadingLayer, LoadingLayer>::~Modify()
FUNC 22668c 68 0 geode::Modify<CustomLoadingLayer, LoadingLayer>::~Modify()
FUNC 2266f4 68 0 {virtual override thunk({offset(-320)}, geode::Modify<CustomLoadingLayer, LoadingLayer>::~Modify())}
FUNC 22675c 6c 0 {virtual override thunk({offset(-320)}, geode::Modify<CustomLoadingLayer, LoadingLayer>::~Modify())}
FUNC 2267c8 4 0 cocos2d::CCKeyboardDelegate::keyUp(cocos2d::enumKeyCodes)
FUNC 2267cc 4 0 cocos2d::CCMouseDelegate::rightKeyDown()
FUNC 2267d0 4 0 cocos2d::CCMouseDelegate::rightKeyUp()
FUNC 2267d4 4 0 cocos2d::CCMouseDelegate::scrollWheel(float, float)
FUNC 2267d8 4 0 geode::utils::MiniFunctionStateBase<void, void*>::~MiniFunctionStateBase()
FUNC 2267dc 4 0 geode::utils::MiniFunctionState<void (*)(void*), void, void*>::~MiniFunctionState()
FUNC 2267e0 c 0 geode::utils::MiniFunctionState<void (*)(void*), void, void*>::call(void*) const
FUNC 2267ec 38 0 geode::utils::MiniFunctionState<void (*)(void*), void, void*>::clone() const
FUNC 226824 1cc 0 CustomLoadingLayer::loadAssets()
FUNC 2269f0 f4 0 CustomLoadingLayer::skipOnRefresh()
FUNC 226ae4 1a0 0 CustomLoadingLayer::setupLoadingMods()
FUNC 226c84 154 0 CustomLoadingLayer::setupLoaderResources()
FUNC 226dd8 194 0 CustomLoadingLayer::setupModResources()
FUNC 226f6c 4 0 geode::utils::MiniFunctionStateBase<void, >::~MiniFunctionStateBase()
FUNC 226f70 4 0 geode::utils::MiniFunctionState<CustomLoadingLayer::continueLoadAssets()::{lambda()#1}, void, >::~MiniFunctionState()
FUNC 226f74 8 0 geode::utils::MiniFunctionState<CustomLoadingLayer::continueLoadAssets()::{lambda()#1}, void, >::call() const
FUNC 226f7c 38 0 geode::utils::MiniFunctionState<CustomLoadingLayer::continueLoadAssets()::{lambda()#1}, void, >::clone() const
FUNC 226fb4 254 0 CustomLoadingLayer::updateLoadedModsLabel()
FUNC 227208 4 0 geode::utils::MiniFunctionState<CustomLoadingLayer::waitLoadAssets()::{lambda()#1}, void, >::~MiniFunctionState()
FUNC 22720c 8 0 geode::utils::MiniFunctionState<CustomLoadingLayer::waitLoadAssets()::{lambda()#1}, void, >::call() const
FUNC 227214 38 0 geode::utils::MiniFunctionState<CustomLoadingLayer::waitLoadAssets()::{lambda()#1}, void, >::clone() const
FUNC 22724c 4 0 geode::utils::MiniFunctionState<CustomLoadingLayer::setupLoaderResources()::{lambda()#1}, void, >::~MiniFunctionState()
FUNC 227250 8 0 geode::utils::MiniFunctionState<CustomLoadingLayer::setupLoaderResources()::{lambda()#1}, void, >::call() const
FUNC 227258 38 0 geode::utils::MiniFunctionState<CustomLoadingLayer::setupLoaderResources()::{lambda()#1}, void, >::clone() const
FUNC 227290 220 0 CustomLoadingLayer::setupLoaderResources()::{lambda()#1}::operator()() const
FUNC 2274b0 1b4 0 geode::EventListenerNode<geode::updater::ResourceDownloadFilter>::create<CustomLoadingLayer>(CustomLoadingLayer*, geode::to_member<CustomLoadingLayer, void (geode::updater::ResourceDownloadEvent*)>::value)
FUNC 227664 88 0 CustomLoadingLayer::updateResourcesProgress(geode::updater::ResourceDownloadEvent*)
FUNC 2276ec 124 0 geode::EventListener<geode::updater::ResourceDownloadFilter>::EventListener<CustomLoadingLayer>(geode::to_member<CustomLoadingLayer, void (geode::updater::ResourceDownloadEvent*)>::value, geode::updater::ResourceDownloadFilter)
FUNC 227810 44 0 geode::EventListener<geode::updater::ResourceDownloadFilter>::~EventListener()
FUNC 227854 4 0 geode::utils::MiniFunctionStateBase<void, geode::updater::ResourceDownloadEvent*>::~MiniFunctionStateBase()
FUNC 227858 4 0 geode::utils::MiniFunctionState<std::__ndk1::__bind<void (CustomLoadingLayer::*&)(geode::updater::ResourceDownloadEvent*), CustomLoadingLayer*&, std::__ndk1::placeholders::__ph<1> const&>, void, geode::updater::ResourceDownloadEvent*>::~MiniFunctionState()
FUNC 22785c 1c 0 geode::utils::MiniFunctionState<std::__ndk1::__bind<void (CustomLoadingLayer::*&)(geode::updater::ResourceDownloadEvent*), CustomLoadingLayer*&, std::__ndk1::placeholders::__ph<1> const&>, void, geode::updater::ResourceDownloadEvent*>::call(geode::updater::ResourceDownloadEvent*) const
FUNC 227878 44 0 geode::utils::MiniFunctionState<std::__ndk1::__bind<void (CustomLoadingLayer::*&)(geode::updater::ResourceDownloadEvent*), CustomLoadingLayer*&, std::__ndk1::placeholders::__ph<1> const&>, void, geode::updater::ResourceDownloadEvent*>::clone() const
FUNC 2278bc 4 0 geode::EventListener<geode::updater::ResourceDownloadFilter>::getPool() const
FUNC 2278c0 6c 0 geode::EventListener<geode::updater::ResourceDownloadFilter>::handle(geode::Event*)
FUNC 22792c 4c 0 geode::EventListener<geode::updater::ResourceDownloadFilter>::~EventListener()
FUNC 227978 60 0 geode::EventListenerNode<geode::updater::ResourceDownloadFilter>::~EventListenerNode()
FUNC 2279d8 68 0 geode::EventListenerNode<geode::updater::ResourceDownloadFilter>::~EventListenerNode()
FUNC 227a40 34 0 std::__ndk1::__throw_bad_variant_access[abi:v170000]()
FUNC 227a74 c 0 std::__ndk1::__variant_detail::__visitation::__base::__dispatcher<(unsigned long)0>::__dispatch[abi:v170000]<std::__ndk1::__variant_detail::__visitation::__variant::__value_visitor<geode::utils::makeVisitor<CustomLoadingLayer::updateResourcesProgress(std::__ndk1::__variant_detail::__visitation::__variant::__value_visitor::updater::ResourceDownloadEvent*)::{lambda(std::__ndk1::pair<unsigned char, std::__ndk1::basic_string<char, std::__ndk1::char_traits<char>, std::__ndk1::allocator<char> > > const&)#1}, geode::utils::makeVisitor::updateResourcesProgress(std::__ndk1::__variant_detail::__visitation::__variant::__value_visitor::updater::ResourceDownloadEvent)::{lambda(std::__ndk1::monostate)#1}, geode::utils::makeVisitor::updateResourcesProgress(std::__ndk1::__variant_detail::__visitation::__variant::__value_visitor::updater::ResourceDownloadEvent)::{lambda(std::__ndk1::allocator<char> const&)#1}> >&&, std::__ndk1::__variant_detail::__base<(std::__ndk1::__variant_detail::_Trait)1, CustomLoadingLayer::updateResourcesProgress(std::__ndk1::__variant_detail::__visitation::__variant::__value_visitor::updater::ResourceDownloadEvent*)::{lambda(std::__ndk1::pair<unsigned char, std::__ndk1::basic_string<char, std::__ndk1::char_traits<char>, std::__ndk1::allocator<char> > > const&)#1}, std::__ndk1::basic_string<char, std::__ndk1::char_traits<char>, std::__ndk1::allocator<char> >, std::__ndk1::allocator<char> > const&>(std::__ndk1::__variant_detail::__visitation::__variant::__value_visitor<geode::utils::makeVisitor<CustomLoadingLayer::updateResourcesProgress(std::__ndk1::__variant_detail::__visitation::__variant::__value_visitor::updater::ResourceDownloadEvent*)::{lambda(std::__ndk1::pair<unsigned char, std::__ndk1::basic_string<char, std::__ndk1::char_traits<char>, std::__ndk1::allocator<char> > > const&)#1}, geode::utils::makeVisitor::updateResourcesProgress(std::__ndk1::__variant_detail::__visitation::__variant::__value_visitor::updater::ResourceDownloadEvent)::{lambda(std::__ndk1::monostate)#1}, geode::utils::makeVisitor::updateResourcesProgress(std::__ndk1::__variant_detail::__visitation::__variant::__value_visitor::updater::ResourceDownloadEvent)::{lambda(std::__ndk1::allocator<char> const&)#1}> >&&, std::__ndk1::__variant_detail::__base<(std::__ndk1::__variant_detail::_Trait)1, CustomLoadingLayer::updateResourcesProgress(std::__ndk1::__variant_detail::__visitation::__variant::__value_visitor::updater::ResourceDownloadEvent*)::{lambda(std::__ndk1::pair<unsigned char, std::__ndk1::basic_string<char, std::__ndk1::char_traits<char>, std::__ndk1::allocator<char> > > const&)#1}, std::__ndk1::basic_string<char, std::__ndk1::char_traits<char>, std::__ndk1::allocator<char> >, std::__ndk1::allocator<char> > const&)
FUNC 227a80 4 0 std::__ndk1::__variant_detail::__visitation::__base::__dispatcher<(unsigned long)1>::__dispatch[abi:v170000]<std::__ndk1::__variant_detail::__visitation::__variant::__value_visitor<geode::utils::makeVisitor<CustomLoadingLayer::updateResourcesProgress(std::__ndk1::__variant_detail::__visitation::__variant::__value_visitor::updater::ResourceDownloadEvent*)::{lambda(std::__ndk1::pair<unsigned char, std::__ndk1::basic_string<char, std::__ndk1::char_traits<char>, std::__ndk1::allocator<char> > > const&)#1}, geode::utils::makeVisitor::updateResourcesProgress(std::__ndk1::__variant_detail::__visitation::__variant::__value_visitor::updater::ResourceDownloadEvent)::{lambda(std::__ndk1::monostate)#1}, geode::utils::makeVisitor::updateResourcesProgress(std::__ndk1::__variant_detail::__visitation::__variant::__value_visitor::updater::ResourceDownloadEvent)::{lambda(std::__ndk1::allocator<char> const&)#1}> >&&, std::__ndk1::__variant_detail::__base<(std::__ndk1::__variant_detail::_Trait)1, CustomLoadingLayer::updateResourcesProgress(std::__ndk1::__variant_detail::__visitation::__variant::__value_visitor::updater::ResourceDownloadEvent*)::{lambda(std::__ndk1::pair<unsigned char, std::__ndk1::basic_string<char, std::__ndk1::char_traits<char>, std::__ndk1::allocator<char> > > const&)#1}, std::__ndk1::basic_string<char, std::__ndk1::char_traits<char>, std::__ndk1::allocator<char> >, std::__ndk1::allocator<char> > const&>(std::__ndk1::__variant_detail::__visitation::__variant::__value_visitor<geode::utils::makeVisitor<CustomLoadingLayer::updateResourcesProgress(std::__ndk1::__variant_detail::__visitation::__variant::__value_visitor::updater::ResourceDownloadEvent*)::{lambda(std::__ndk1::pair<unsigned char, std::__ndk1::basic_string<char, std::__ndk1::char_traits<char>, std::__ndk1::allocator<char> > > const&)#1}, geode::utils::makeVisitor::updateResourcesProgress(std::__ndk1::__variant_detail::__visitation::__variant::__value_visitor::updater::ResourceDownloadEvent)::{lambda(std::__ndk1::monostate)#1}, geode::utils::makeVisitor::updateResourcesProgress(std::__ndk1::__variant_detail::__visitation::__variant::__value_visitor::updater::ResourceDownloadEvent)::{lambda(std::__ndk1::allocator<char> const&)#1}> >&&, std::__ndk1::__variant_detail::__base<(std::__ndk1::__variant_detail::_Trait)1, CustomLoadingLayer::updateResourcesProgress(std::__ndk1::__variant_detail::__visitation::__variant::__value_visitor::updater::ResourceDownloadEvent*)::{lambda(std::__ndk1::pair<unsigned char, std::__ndk1::basic_string<char, std::__ndk1::char_traits<char>, std::__ndk1::allocator<char> > > const&)#1}, std::__ndk1::basic_string<char, std::__ndk1::char_traits<char>, std::__ndk1::allocator<char> >, std::__ndk1::allocator<char> > const&)
FUNC 227a84 c 0 std::__ndk1::__variant_detail::__visitation::__base::__dispatcher<(unsigned long)2>::__dispatch[abi:v170000]<std::__ndk1::__variant_detail::__visitation::__variant::__value_visitor<geode::utils::makeVisitor<CustomLoadingLayer::updateResourcesProgress(std::__ndk1::__variant_detail::__visitation::__variant::__value_visitor::updater::ResourceDownloadEvent*)::{lambda(std::__ndk1::pair<unsigned char, std::__ndk1::basic_string<char, std::__ndk1::char_traits<char>, std::__ndk1::allocator<char> > > const&)#1}, geode::utils::makeVisitor::updateResourcesProgress(std::__ndk1::__variant_detail::__visitation::__variant::__value_visitor::updater::ResourceDownloadEvent)::{lambda(std::__ndk1::monostate)#1}, geode::utils::makeVisitor::updateResourcesProgress(std::__ndk1::__variant_detail::__visitation::__variant::__value_visitor::updater::ResourceDownloadEvent)::{lambda(std::__ndk1::allocator<char> const&)#1}> >&&, std::__ndk1::__variant_detail::__base<(std::__ndk1::__variant_detail::_Trait)1, CustomLoadingLayer::updateResourcesProgress(std::__ndk1::__variant_detail::__visitation::__variant::__value_visitor::updater::ResourceDownloadEvent*)::{lambda(std::__ndk1::pair<unsigned char, std::__ndk1::basic_string<char, std::__ndk1::char_traits<char>, std::__ndk1::allocator<char> > > const&)#1}, std::__ndk1::basic_string<char, std::__ndk1::char_traits<char>, std::__ndk1::allocator<char> >, std::__ndk1::allocator<char> > const&>(std::__ndk1::__variant_detail::__visitation::__variant::__value_visitor<geode::utils::makeVisitor<CustomLoadingLayer::updateResourcesProgress(std::__ndk1::__variant_detail::__visitation::__variant::__value_visitor::updater::ResourceDownloadEvent*)::{lambda(std::__ndk1::pair<unsigned char, std::__ndk1::basic_string<char, std::__ndk1::char_traits<char>, std::__ndk1::allocator<char> > > const&)#1}, geode::utils::makeVisitor::updateResourcesProgress(std::__ndk1::__variant_detail::__visitation::__variant::__value_visitor::updater::ResourceDownloadEvent)::{lambda(std::__ndk1::monostate)#1}, geode::utils::makeVisitor::updateResourcesProgress(std::__ndk1::__variant_detail::__visitation::__variant::__value_visitor::updater::ResourceDownloadEvent)::{lambda(std::__ndk1::allocator<char> const&)#1}> >&&, std::__ndk1::__variant_detail::__base<(std::__ndk1::__variant_detail::_Trait)1, CustomLoadingLayer::updateResourcesProgress(std::__ndk1::__variant_detail::__visitation::__variant::__value_visitor::updater::ResourceDownloadEvent*)::{lambda(std::__ndk1::pair<unsigned char, std::__ndk1::basic_string<char, std::__ndk1::char_traits<char>, std::__ndk1::allocator<char> > > const&)#1}, std::__ndk1::basic_string<char, std::__ndk1::char_traits<char>, std::__ndk1::allocator<char> >, std::__ndk1::allocator<char> > const&)
FUNC 227a90 168 0 CustomLoadingLayer::updateResourcesProgress(geode::updater::ResourceDownloadEvent*)::{lambda(std::__ndk1::monostate(std::__ndk1::monostate))#1}::operator() const
FUNC 227bf8 ec 0 std::__ndk1::__variant_detail::__visitation::__variant::__value_visitor<geode::utils::makeVisitor<CustomLoadingLayer::updateResourcesProgress(geode::updater::ResourceDownloadEvent*)::{lambda(std::__ndk1::pair<unsigned char, std::__ndk1::basic_string<char, std::__ndk1::char_traits<char>, std::__ndk1::allocator<char> > > const&)#1}, CustomLoadingLayer::updateResourcesProgress(geode::updater::ResourceDownloadEvent*)::{lambda(std::__ndk1::monostate)#1}, CustomLoadingLayer::updateResourcesProgress(geode::updater::ResourceDownloadEvent*)::{lambda(std::__ndk1::basic_string<char, std::__ndk1::char_traits<char>, std::__ndk1::allocator<char> > const&)#1}> >::operator()[abi:v170000]<std::__ndk1::__variant_detail::__alt<(unsigned long)1, std::__ndk1::pair<unsigned char, std::__ndk1::basic_string<char, std::__ndk1::char_traits<char>, std::__ndk1::allocator<char> > > > const&>(std::__ndk1::__variant_detail::__alt<(unsigned long)1, std::__ndk1::pair<unsigned char, std::__ndk1::basic_string<char, std::__ndk1::char_traits<char>, std::__ndk1::allocator<char> > > > const&) const
FUNC 227ce4 2a8 0 CustomLoadingLayer::updateResourcesProgress(geode::updater::ResourceDownloadEvent*)::{lambda(std::__ndk1::basic_string<char, std::__ndk1::char_traits<char>, std::__ndk1::allocator<char> > const&)#1}::operator()(std::__ndk1::basic_string<char, std::__ndk1::char_traits<char>, std::__ndk1::allocator<char> > const&) const
FUNC 227f8c 48c 0 geode::modifier::ModifyBase<geode::modifier::ModifyDerive<FallbackCustomLoadingLayer, cocos2d::CCLayer> >::ModifyBase()
FUNC 228418 2b8 0 geode::modifier::ModifyDerive<FallbackCustomLoadingLayer, cocos2d::CCLayer>::apply()
FUNC 2286d0 168 0 FallbackCustomLoadingLayer::onModify<geode::modifier::ModifyBase<geode::modifier::ModifyDerive<FallbackCustomLoadingLayer, cocos2d::CCLayer> > >(geode::modifier::ModifyBase<geode::modifier::ModifyDerive<FallbackCustomLoadingLayer, cocos2d::CCLayer> >&)
FUNC 228838 4 0 geode::modifier::ModifyBase<geode::modifier::ModifyDerive<FallbackCustomLoadingLayer, cocos2d::CCLayer> >::apply()
FUNC 22883c 198 0 geode::modifier::ModifyBase<geode::modifier::ModifyDerive<FallbackCustomLoadingLayer, cocos2d::CCLayer> >::setHookPriority(std::__ndk1::basic_string<char, std::__ndk1::char_traits<char>, std::__ndk1::allocator<char> > const&, int)
FUNC 2289d4 138 0 geode::modifier::ModifyBase<geode::modifier::ModifyDerive<FallbackCustomLoadingLayer, cocos2d::CCLayer> >::getHook(std::__ndk1::basic_string<char, std::__ndk1::char_traits<char>, std::__ndk1::allocator<char> > const&)
FUNC 228b0c 6c 0 geode::addresser::getVirtual<bool (cocos2d::CCLayer::*)()>(bool (cocos2d::CCLayer::*)())
FUNC 228b78 134 0 geode::Hook::create<bool (*)(FallbackCustomLoadingLayer*)>(void*, bool (*)(FallbackCustomLoadingLayer*), std::__ndk1::basic_string<char, std::__ndk1::char_traits<char>, std::__ndk1::allocator<char> > const&, tulip::hook::TulipConvention, tulip::hook::HookMetadata const&)
FUNC 228cac 4 0 geode::modifier::AsStaticFunction_init<FallbackCustomLoadingLayer, bool (FallbackCustomLoadingLayer::*)()>::Impl<bool (FallbackCustomLoadingLayer::*)()>::function(FallbackCustomLoadingLayer*)
FUNC 228cb0 90 0 geode::addresser::Addresser::cachedInstance<cocos2d::CCLayer>()
FUNC 228d40 8c 0 cocos2d::CCLayer::CCLayer(geode::ZeroConstructorType)
FUNC 228dcc 104 0 FallbackCustomLoadingLayer::init()
FUNC 228ed0 13c 0 geode::NodeIDs::provide<LoadingLayer>(LoadingLayer*) const
FUNC 22900c 20 0 geode::Ref<geode::Notification>::~Ref()
FUNC 22902c 70 0 __cxx_global_var_init.2
FUNC 22909c 20 0 geode::modifier::ModifyBase<geode::modifier::ModifyDerive<CustomMenuLayer, MenuLayer> >::~ModifyBase()
FUNC 2290bc 8c 0 geodeExecFunction26<(anonymous namespace)::ExecFuncUnique26>()::{lambda(geode::IndexUpdateEvent*)#1}::__invoke(geode::IndexUpdateEvent*)
FUNC 229148 cc 0 std::__ndk1::__variant_detail::__visitation::__base::__dispatcher<(unsigned long)0>::__dispatch[abi:v170000]<std::__ndk1::__variant_detail::__visitation::__variant::__value_visitor<geode::utils::makeVisitor<geodeExecFunction26<(anonymous namespace)::ExecFuncUnique26>()::{lambda(std::__ndk1::__variant_detail::__visitation::__variant::__value_visitor::IndexUpdateEvent*)#1}::operator()(std::__ndk1::__variant_detail::__visitation::__variant::__value_visitor::IndexUpdateEvent) const::{lambda(std::__ndk1::pair<unsigned char, std::__ndk1::basic_string<char, std::__ndk1::char_traits<char>, std::__ndk1::allocator<char> > > const&)#1}, geode::utils::makeVisitor<(anonymous namespace)>()::std::__ndk1::__variant_detail::__visitation::__variant::__value_visitor::IndexUpdateEvent*::operator()(std::__ndk1::__variant_detail::__visitation::__variant::__value_visitor::IndexUpdateEvent) const::{lambda(std::__ndk1::monostate const&)#1}, geode::utils::makeVisitor<(anonymous namespace)>()::std::__ndk1::__variant_detail::__visitation::__variant::__value_visitor::IndexUpdateEvent*::operator()(std::__ndk1::__variant_detail::__visitation::__variant::__value_visitor::IndexUpdateEvent) const::{lambda(std::__ndk1::allocator<char> const&)#1}> >&&, std::__ndk1::__variant_detail::__base<(std::__ndk1::__variant_detail::_Trait)1, geodeExecFunction26<(anonymous namespace)::ExecFuncUnique26>()::{lambda(std::__ndk1::__variant_detail::__visitation::__variant::__value_visitor::IndexUpdateEvent*)#1}::operator()(std::__ndk1::__variant_detail::__visitation::__variant::__value_visitor::IndexUpdateEvent) const::{lambda(std::__ndk1::pair<unsigned char, std::__ndk1::basic_string<char, std::__ndk1::char_traits<char>, std::__ndk1::allocator<char> > > const&)#1}, std::__ndk1::basic_string<char, std::__ndk1::char_traits<char>, std::__ndk1::allocator<char> >, std::__ndk1::allocator<char> > const&>(std::__ndk1::__variant_detail::__visitation::__variant::__value_visitor<geode::utils::makeVisitor<geodeExecFunction26<(anonymous namespace)::ExecFuncUnique26>()::{lambda(std::__ndk1::__variant_detail::__visitation::__variant::__value_visitor::IndexUpdateEvent*)#1}::operator()(std::__ndk1::__variant_detail::__visitation::__variant::__value_visitor::IndexUpdateEvent) const::{lambda(std::__ndk1::pair<unsigned char, std::__ndk1::basic_string<char, std::__ndk1::char_traits<char>, std::__ndk1::allocator<char> > > const&)#1}, geode::utils::makeVisitor<(anonymous namespace)>()::std::__ndk1::__variant_detail::__visitation::__variant::__value_visitor::IndexUpdateEvent*::operator()(std::__ndk1::__variant_detail::__visitation::__variant::__value_visitor::IndexUpdateEvent) const::{lambda(std::__ndk1::monostate const&)#1}, geode::utils::makeVisitor<(anonymous namespace)>()::std::__ndk1::__variant_detail::__visitation::__variant::__value_visitor::IndexUpdateEvent*::operator()(std::__ndk1::__variant_detail::__visitation::__variant::__value_visitor::IndexUpdateEvent) const::{lambda(std::__ndk1::allocator<char> const&)#1}> >&&, std::__ndk1::__variant_detail::__base<(std::__ndk1::__variant_detail::_Trait)1, geodeExecFunction26<(anonymous namespace)::ExecFuncUnique26>()::{lambda(std::__ndk1::__variant_detail::__visitation::__variant::__value_visitor::IndexUpdateEvent*)#1}::operator()(std::__ndk1::__variant_detail::__visitation::__variant::__value_visitor::IndexUpdateEvent) const::{lambda(std::__ndk1::pair<unsigned char, std::__ndk1::basic_string<char, std::__ndk1::char_traits<char>, std::__ndk1::allocator<char> > > const&)#1}, std::__ndk1::basic_string<char, std::__ndk1::char_traits<char>, std::__ndk1::allocator<char> >, std::__ndk1::allocator<char> > const&)
FUNC 229214 4 0 std::__ndk1::__variant_detail::__visitation::__base::__dispatcher<(unsigned long)1>::__dispatch[abi:v170000]<std::__ndk1::__variant_detail::__visitation::__variant::__value_visitor<geode::utils::makeVisitor<geodeExecFunction26<(anonymous namespace)::ExecFuncUnique26>()::{lambda(std::__ndk1::__variant_detail::__visitation::__variant::__value_visitor::IndexUpdateEvent*)#1}::operator()(std::__ndk1::__variant_detail::__visitation::__variant::__value_visitor::IndexUpdateEvent) const::{lambda(std::__ndk1::pair<unsigned char, std::__ndk1::basic_string<char, std::__ndk1::char_traits<char>, std::__ndk1::allocator<char> > > const&)#1}, geode::utils::makeVisitor<(anonymous namespace)>()::std::__ndk1::__variant_detail::__visitation::__variant::__value_visitor::IndexUpdateEvent*::operator()(std::__ndk1::__variant_detail::__visitation::__variant::__value_visitor::IndexUpdateEvent) const::{lambda(std::__ndk1::monostate const&)#1}, geode::utils::makeVisitor<(anonymous namespace)>()::std::__ndk1::__variant_detail::__visitation::__variant::__value_visitor::IndexUpdateEvent*::operator()(std::__ndk1::__variant_detail::__visitation::__variant::__value_visitor::IndexUpdateEvent) const::{lambda(std::__ndk1::allocator<char> const&)#1}> >&&, std::__ndk1::__variant_detail::__base<(std::__ndk1::__variant_detail::_Trait)1, geodeExecFunction26<(anonymous namespace)::ExecFuncUnique26>()::{lambda(std::__ndk1::__variant_detail::__visitation::__variant::__value_visitor::IndexUpdateEvent*)#1}::operator()(std::__ndk1::__variant_detail::__visitation::__variant::__value_visitor::IndexUpdateEvent) const::{lambda(std::__ndk1::pair<unsigned char, std::__ndk1::basic_string<char, std::__ndk1::char_traits<char>, std::__ndk1::allocator<char> > > const&)#1}, std::__ndk1::basic_string<char, std::__ndk1::char_traits<char>, std::__ndk1::allocator<char> >, std::__ndk1::allocator<char> > const&>(std::__ndk1::__variant_detail::__visitation::__variant::__value_visitor<geode::utils::makeVisitor<geodeExecFunction26<(anonymous namespace)::ExecFuncUnique26>()::{lambda(std::__ndk1::__variant_detail::__visitation::__variant::__value_visitor::IndexUpdateEvent*)#1}::operator()(std::__ndk1::__variant_detail::__visitation::__variant::__value_visitor::IndexUpdateEvent) const::{lambda(std::__ndk1::pair<unsigned char, std::__ndk1::basic_string<char, std::__ndk1::char_traits<char>, std::__ndk1::allocator<char> > > const&)#1}, geode::utils::makeVisitor<(anonymous namespace)>()::std::__ndk1::__variant_detail::__visitation::__variant::__value_visitor::IndexUpdateEvent*::operator()(std::__ndk1::__variant_detail::__visitation::__variant::__value_visitor::IndexUpdateEvent) const::{lambda(std::__ndk1::monostate const&)#1}, geode::utils::makeVisitor<(anonymous namespace)>()::std::__ndk1::__variant_detail::__visitation::__variant::__value_visitor::IndexUpdateEvent*::operator()(std::__ndk1::__variant_detail::__visitation::__variant::__value_visitor::IndexUpdateEvent) const::{lambda(std::__ndk1::allocator<char> const&)#1}> >&&, std::__ndk1::__variant_detail::__base<(std::__ndk1::__variant_detail::_Trait)1, geodeExecFunction26<(anonymous namespace)::ExecFuncUnique26>()::{lambda(std::__ndk1::__variant_detail::__visitation::__variant::__value_visitor::IndexUpdateEvent*)#1}::operator()(std::__ndk1::__variant_detail::__visitation::__variant::__value_visitor::IndexUpdateEvent) const::{lambda(std::__ndk1::pair<unsigned char, std::__ndk1::basic_string<char, std::__ndk1::char_traits<char>, std::__ndk1::allocator<char> > > const&)#1}, std::__ndk1::basic_string<char, std::__ndk1::char_traits<char>, std::__ndk1::allocator<char> >, std::__ndk1::allocator<char> > const&)
FUNC 229218 54 0 std::__ndk1::__variant_detail::__visitation::__base::__dispatcher<(unsigned long)2>::__dispatch[abi:v170000]<std::__ndk1::__variant_detail::__visitation::__variant::__value_visitor<geode::utils::makeVisitor<geodeExecFunction26<(anonymous namespace)::ExecFuncUnique26>()::{lambda(std::__ndk1::__variant_detail::__visitation::__variant::__value_visitor::IndexUpdateEvent*)#1}::operator()(std::__ndk1::__variant_detail::__visitation::__variant::__value_visitor::IndexUpdateEvent) const::{lambda(std::__ndk1::pair<unsigned char, std::__ndk1::basic_string<char, std::__ndk1::char_traits<char>, std::__ndk1::allocator<char> > > const&)#1}, geode::utils::makeVisitor<(anonymous namespace)>()::std::__ndk1::__variant_detail::__visitation::__variant::__value_visitor::IndexUpdateEvent*::operator()(std::__ndk1::__variant_detail::__visitation::__variant::__value_visitor::IndexUpdateEvent) const::{lambda(std::__ndk1::monostate const&)#1}, geode::utils::makeVisitor<(anonymous namespace)>()::std::__ndk1::__variant_detail::__visitation::__variant::__value_visitor::IndexUpdateEvent*::operator()(std::__ndk1::__variant_detail::__visitation::__variant::__value_visitor::IndexUpdateEvent) const::{lambda(std::__ndk1::allocator<char> const&)#1}> >&&, std::__ndk1::__variant_detail::__base<(std::__ndk1::__variant_detail::_Trait)1, geodeExecFunction26<(anonymous namespace)::ExecFuncUnique26>()::{lambda(std::__ndk1::__variant_detail::__visitation::__variant::__value_visitor::IndexUpdateEvent*)#1}::operator()(std::__ndk1::__variant_detail::__visitation::__variant::__value_visitor::IndexUpdateEvent) const::{lambda(std::__ndk1::pair<unsigned char, std::__ndk1::basic_string<char, std::__ndk1::char_traits<char>, std::__ndk1::allocator<char> > > const&)#1}, std::__ndk1::basic_string<char, std::__ndk1::char_traits<char>, std::__ndk1::allocator<char> >, std::__ndk1::allocator<char> > const&>(std::__ndk1::__variant_detail::__visitation::__variant::__value_visitor<geode::utils::makeVisitor<geodeExecFunction26<(anonymous namespace)::ExecFuncUnique26>()::{lambda(std::__ndk1::__variant_detail::__visitation::__variant::__value_visitor::IndexUpdateEvent*)#1}::operator()(std::__ndk1::__variant_detail::__visitation::__variant::__value_visitor::IndexUpdateEvent) const::{lambda(std::__ndk1::pair<unsigned char, std::__ndk1::basic_string<char, std::__ndk1::char_traits<char>, std::__ndk1::allocator<char> > > const&)#1}, geode::utils::makeVisitor<(anonymous namespace)>()::std::__ndk1::__variant_detail::__visitation::__variant::__value_visitor::IndexUpdateEvent*::operator()(std::__ndk1::__variant_detail::__visitation::__variant::__value_visitor::IndexUpdateEvent) const::{lambda(std::__ndk1::monostate const&)#1}, geode::utils::makeVisitor<(anonymous namespace)>()::std::__ndk1::__variant_detail::__visitation::__variant::__value_visitor::IndexUpdateEvent*::operator()(std::__ndk1::__variant_detail::__visitation::__variant::__value_visitor::IndexUpdateEvent) const::{lambda(std::__ndk1::allocator<char> const&)#1}> >&&, std::__ndk1::__variant_detail::__base<(std::__ndk1::__variant_detail::_Trait)1, geodeExecFunction26<(anonymous namespace)::ExecFuncUnique26>()::{lambda(std::__ndk1::__variant_detail::__visitation::__variant::__value_visitor::IndexUpdateEvent*)#1}::operator()(std::__ndk1::__variant_detail::__visitation::__variant::__value_visitor::IndexUpdateEvent) const::{lambda(std::__ndk1::pair<unsigned char, std::__ndk1::basic_string<char, std::__ndk1::char_traits<char>, std::__ndk1::allocator<char> > > const&)#1}, std::__ndk1::basic_string<char, std::__ndk1::char_traits<char>, std::__ndk1::allocator<char> >, std::__ndk1::allocator<char> > const&)
FUNC 22926c 4 0 geode::EventListener<geode::IndexUpdateFilter>::getPool() const
FUNC 229270 108 0 geode::EventListener<geode::IndexUpdateFilter>::handle(geode::Event*)
FUNC 229378 44 0 geode::EventListener<geode::IndexUpdateFilter>::~EventListener()
FUNC 2293bc 4c 0 geode::EventListener<geode::IndexUpdateFilter>::~EventListener()
FUNC 229408 4 0 geode::utils::MiniFunctionState<void (*)(geode::IndexUpdateEvent*), void, geode::IndexUpdateEvent*>::~MiniFunctionState()
FUNC 22940c c 0 geode::utils::MiniFunctionState<void (*)(geode::IndexUpdateEvent*), void, geode::IndexUpdateEvent*>::call(geode::IndexUpdateEvent*) const
FUNC 229418 38 0 geode::utils::MiniFunctionState<void (*)(geode::IndexUpdateEvent*), void, geode::IndexUpdateEvent*>::clone() const
FUNC 229450 48c 0 geode::modifier::ModifyBase<geode::modifier::ModifyDerive<CustomMenuLayer, MenuLayer> >::ModifyBase()
FUNC 2298dc 2b0 0 geode::modifier::ModifyDerive<CustomMenuLayer, MenuLayer>::apply()
FUNC 229b8c 184 0 CustomMenuLayer::onModify<geode::modifier::ModifyBase<geode::modifier::ModifyDerive<CustomMenuLayer, MenuLayer> > >(geode::modifier::ModifyBase<geode::modifier::ModifyDerive<CustomMenuLayer, MenuLayer> >&)
FUNC 229d10 4 0 geode::modifier::ModifyBase<geode::modifier::ModifyDerive<CustomMenuLayer, MenuLayer> >::apply()
FUNC 229d14 198 0 geode::modifier::ModifyBase<geode::modifier::ModifyDerive<CustomMenuLayer, MenuLayer> >::setHookPriority(std::__ndk1::basic_string<char, std::__ndk1::char_traits<char>, std::__ndk1::allocator<char> > const&, int)
FUNC 229eac 138 0 geode::modifier::ModifyBase<geode::modifier::ModifyDerive<CustomMenuLayer, MenuLayer> >::getHook(std::__ndk1::basic_string<char, std::__ndk1::char_traits<char>, std::__ndk1::allocator<char> > const&)
FUNC 229fe4 6c 0 geode::addresser::getVirtual<bool (MenuLayer::*)()>(bool (MenuLayer::*)())
FUNC 22a050 134 0 geode::Hook::create<bool (*)(CustomMenuLayer*)>(void*, bool (*)(CustomMenuLayer*), std::__ndk1::basic_string<char, std::__ndk1::char_traits<char>, std::__ndk1::allocator<char> > const&, tulip::hook::TulipConvention, tulip::hook::HookMetadata const&)
FUNC 22a184 4 0 geode::modifier::AsStaticFunction_init<CustomMenuLayer, bool (CustomMenuLayer::*)()>::Impl<bool (CustomMenuLayer::*)()>::function(CustomMenuLayer*)
FUNC 22a188 90 0 geode::addresser::Addresser::cachedInstance<MenuLayer>()
FUNC 22a218 98 0 MenuLayer::MenuLayer(geode::ZeroConstructorType)
FUNC 22a2b0 954 0 CustomMenuLayer::init()
FUNC 22ac04 4 0 CustomMenuLayer::onGeode(cocos2d::CCObject*)
FUNC 22ac08 a4 0 CustomMenuLayer::onMissingTextures(cocos2d::CCObject*)
FUNC 22acac 7b8 0 CustomMenuLayer::fixSocialMenu()
FUNC 22b464 d0 0 std::__ndk1::vector<geode::LoadProblem, std::__ndk1::allocator<geode::LoadProblem> >::~vector[abi:v170000]()
FUNC 22b534 1b4 0 geode::EventListenerNode<geode::IndexUpdateFilter>::create<CustomMenuLayer>(CustomMenuLayer*, geode::to_member<CustomMenuLayer, void (geode::IndexUpdateEvent*)>::value)
FUNC 22b6e8 18 0 CustomMenuLayer::onIndexUpdate(geode::IndexUpdateEvent*)
FUNC 22b700 114 0 CustomMenuLayer::addUpdateIndicator()
FUNC 22b814 12c 0 geode::NodeIDs::provide<CustomMenuLayer>(CustomMenuLayer*) const
FUNC 22b940 21c 0 geode::modifier::FieldIntermediate<CustomMenuLayer, MenuLayer>::operator CustomMenuLayer*()
FUNC 22bb5c f8 0 geode::modifier::FieldIntermediate<CustomMenuLayer, MenuLayer>::fieldDestructor(void*)
FUNC 22bc54 70 0 geode::Modify<CustomMenuLayer, MenuLayer>::~Modify()
FUNC 22bcc4 74 0 geode::Modify<CustomMenuLayer, MenuLayer>::~Modify()
FUNC 22bd38 74 0 {virtual override thunk({offset(-320)}, geode::Modify<CustomMenuLayer, MenuLayer>::~Modify())}
FUNC 22bdac 78 0 {virtual override thunk({offset(-320)}, geode::Modify<CustomMenuLayer, MenuLayer>::~Modify())}
FUNC 22be24 8 0 std::__ndk1::__variant_detail::__visitation::__base::__dispatcher<(unsigned long)0>::__dispatch[abi:v170000]<std::__ndk1::__variant_detail::__dtor<std::__ndk1::__variant_detail::__traits<ghc::filesystem::path, geode::ModMetadata, ghc::filesystem::path*::Mod>, (std::__ndk1::__variant_detail::_Trait)1>::__destroy[abi:v170000]()::{lambda(auto:1&)#1}, std::__ndk1::__variant_detail::__base<(std::__ndk1::__variant_detail::__traits<ghc::filesystem::path, geode::ModMetadata, ghc::filesystem::path*::Mod>)1, ghc::filesystem, geode, ghc::filesystem::path::Mod>&>(std::__ndk1::__variant_detail::__dtor<std::__ndk1::__variant_detail::__traits<ghc::filesystem::path, geode::ModMetadata, ghc::filesystem::path*::Mod>, (std::__ndk1::__variant_detail::_Trait)1>, std::__ndk1::__variant_detail::__base<(std::__ndk1::__variant_detail::__traits<ghc::filesystem::path, geode::ModMetadata, ghc::filesystem::path*::Mod>)1, ghc::filesystem, geode, ghc::filesystem::path::Mod>&)
FUNC 22be2c 8 0 std::__ndk1::__variant_detail::__visitation::__base::__dispatcher<(unsigned long)1>::__dispatch[abi:v170000]<std::__ndk1::__variant_detail::__dtor<std::__ndk1::__variant_detail::__traits<ghc::filesystem::path, geode::ModMetadata, ghc::filesystem::path*::Mod>, (std::__ndk1::__variant_detail::_Trait)1>::__destroy[abi:v170000]()::{lambda(auto:1&)#1}, std::__ndk1::__variant_detail::__base<(std::__ndk1::__variant_detail::__traits<ghc::filesystem::path, geode::ModMetadata, ghc::filesystem::path*::Mod>)1, ghc::filesystem, geode, ghc::filesystem::path::Mod>&>(std::__ndk1::__variant_detail::__dtor<std::__ndk1::__variant_detail::__traits<ghc::filesystem::path, geode::ModMetadata, ghc::filesystem::path*::Mod>, (std::__ndk1::__variant_detail::_Trait)1>, std::__ndk1::__variant_detail::__base<(std::__ndk1::__variant_detail::__traits<ghc::filesystem::path, geode::ModMetadata, ghc::filesystem::path*::Mod>)1, ghc::filesystem, geode, ghc::filesystem::path::Mod>&)
FUNC 22be34 4 0 std::__ndk1::__variant_detail::__visitation::__base::__dispatcher<(unsigned long)2>::__dispatch[abi:v170000]<std::__ndk1::__variant_detail::__dtor<std::__ndk1::__variant_detail::__traits<ghc::filesystem::path, geode::ModMetadata, ghc::filesystem::path*::Mod>, (std::__ndk1::__variant_detail::_Trait)1>::__destroy[abi:v170000]()::{lambda(auto:1&)#1}, std::__ndk1::__variant_detail::__base<(std::__ndk1::__variant_detail::__traits<ghc::filesystem::path, geode::ModMetadata, ghc::filesystem::path*::Mod>)1, ghc::filesystem, geode, ghc::filesystem::path::Mod>&>(std::__ndk1::__variant_detail::__dtor<std::__ndk1::__variant_detail::__traits<ghc::filesystem::path, geode::ModMetadata, ghc::filesystem::path*::Mod>, (std::__ndk1::__variant_detail::_Trait)1>, std::__ndk1::__variant_detail::__base<(std::__ndk1::__variant_detail::__traits<ghc::filesystem::path, geode::ModMetadata, ghc::filesystem::path*::Mod>)1, ghc::filesystem, geode, ghc::filesystem::path::Mod>&)
FUNC 22be38 4 0 geode::utils::MiniFunctionStateBase<void, FLAlertLayer*, bool>::~MiniFunctionStateBase()
FUNC 22be3c 4 0 geode::utils::MiniFunctionState<CustomMenuLayer::init()::{lambda(auto:1, bool)#1}, void, FLAlertLayer*, bool>::~MiniFunctionState()
FUNC 22be40 84 0 geode::utils::MiniFunctionState<CustomMenuLayer::init()::{lambda(auto:1, bool)#1}, void, FLAlertLayer*, bool>::call(FLAlertLayer*, bool) const
FUNC 22bec4 28 0 geode::utils::MiniFunctionState<CustomMenuLayer::init()::{lambda(auto:1, bool)#1}, void, FLAlertLayer*, bool>::clone() const
FUNC 22beec 124 0 geode::EventListener<geode::IndexUpdateFilter>::EventListener<CustomMenuLayer>(geode::to_member<CustomMenuLayer, void (geode::IndexUpdateEvent*)>::value, geode::IndexUpdateFilter)
FUNC 22c010 4 0 geode::utils::MiniFunctionStateBase<void, geode::IndexUpdateEvent*>::~MiniFunctionStateBase()
FUNC 22c014 4 0 geode::utils::MiniFunctionState<std::__ndk1::__bind<void (CustomMenuLayer::*&)(geode::IndexUpdateEvent*), CustomMenuLayer*&, std::__ndk1::placeholders::__ph<1> const&>, void, geode::IndexUpdateEvent*>::~MiniFunctionState()
FUNC 22c018 1c 0 geode::utils::MiniFunctionState<std::__ndk1::__bind<void (CustomMenuLayer::*&)(geode::IndexUpdateEvent*), CustomMenuLayer*&, std::__ndk1::placeholders::__ph<1> const&>, void, geode::IndexUpdateEvent*>::call(geode::IndexUpdateEvent*) const
FUNC 22c034 44 0 geode::utils::MiniFunctionState<std::__ndk1::__bind<void (CustomMenuLayer::*&)(geode::IndexUpdateEvent*), CustomMenuLayer*&, std::__ndk1::placeholders::__ph<1> const&>, void, geode::IndexUpdateEvent*>::clone() const
FUNC 22c078 60 0 geode::EventListenerNode<geode::IndexUpdateFilter>::~EventListenerNode()
FUNC 22c0d8 68 0 geode::EventListenerNode<geode::IndexUpdateFilter>::~EventListenerNode()
FUNC 22c140 10c 0 _GLOBAL__sub_I_MenuLayer.cpp
FUNC 22c24c 70 0 __cxx_global_var_init
FUNC 22c2bc 20 0 geode::modifier::ModifyBase<geode::modifier::ModifyDerive<CustomProfilePage, ProfilePage> >::~ModifyBase()
FUNC 22c2dc 48c 0 geode::modifier::ModifyBase<geode::modifier::ModifyDerive<CustomProfilePage, ProfilePage> >::ModifyBase()
FUNC 22c768 2dc 0 geode::modifier::ModifyDerive<CustomProfilePage, ProfilePage>::apply()
FUNC 22ca44 d4 0 CustomProfilePage::onModify<geode::modifier::ModifyBase<geode::modifier::ModifyDerive<CustomProfilePage, ProfilePage> > >(geode::modifier::ModifyBase<geode::modifier::ModifyDerive<CustomProfilePage, ProfilePage> > const&)
FUNC 22cb18 4 0 geode::modifier::ModifyBase<geode::modifier::ModifyDerive<CustomProfilePage, ProfilePage> >::apply()
FUNC 22cb1c 6c 0 geode::addresser::getVirtual<void (ProfilePage::*)(GJUserScore*)>(void (ProfilePage::*)(GJUserScore*))
FUNC 22cb88 180 0 geode::Hook::create<void (*)(CustomProfilePage*, GJUserScore*)>(void*, void (*)(CustomProfilePage*, GJUserScore*), std::__ndk1::basic_string<char, std::__ndk1::char_traits<char>, std::__ndk1::allocator<char> > const&, tulip::hook::TulipConvention, tulip::hook::HookMetadata const&)
FUNC 22cd08 40 0 geode::modifier::AsStaticFunction_getUserInfoFinished<CustomProfilePage, void (CustomProfilePage::*)(GJUserScore*)>::Impl<void (CustomProfilePage::*)(GJUserScore*)>::function(CustomProfilePage*, GJUserScore*)
FUNC 22cd48 90 0 geode::addresser::Addresser::cachedInstance<ProfilePage>()
FUNC 22cdd8 d8 0 ProfilePage::ProfilePage(geode::ZeroConstructorType)
FUNC 22ceb0 70 0 __cxx_global_var_init
FUNC 22cf20 20 0 geode::modifier::ModifyBase<geode::modifier::ModifyDerive<SceneSwitch, AchievementNotifier> >::~ModifyBase()
FUNC 22cf40 48c 0 geode::modifier::ModifyBase<geode::modifier::ModifyDerive<SceneSwitch, AchievementNotifier> >::ModifyBase()
FUNC 22d3cc 2e8 0 geode::modifier::ModifyDerive<SceneSwitch, AchievementNotifier>::apply()
FUNC 22d6b4 d4 0 SceneSwitch::onModify<geode::modifier::ModifyBase<geode::modifier::ModifyDerive<SceneSwitch, AchievementNotifier> > >(geode::modifier::ModifyBase<geode::modifier::ModifyDerive<SceneSwitch, AchievementNotifier> > const&)
FUNC 22d788 4 0 geode::modifier::ModifyBase<geode::modifier::ModifyDerive<SceneSwitch, AchievementNotifier> >::apply()
FUNC 22d78c 180 0 geode::Hook::create<void (*)(SceneSwitch*, cocos2d::CCScene*)>(void*, void (*)(SceneSwitch*, cocos2d::CCScene*), std::__ndk1::basic_string<char, std::__ndk1::char_traits<char>, std::__ndk1::allocator<char> > const&, tulip::hook::TulipConvention, tulip::hook::HookMetadata const&)
FUNC 22d90c 28 0 geode::modifier::AsStaticFunction_willSwitchToScene<SceneSwitch, void (SceneSwitch::*)(cocos2d::CCScene*)>::Impl<void (SceneSwitch::*)(cocos2d::CCScene*)>::function(SceneSwitch*, cocos2d::CCScene*)
FUNC 22d934 70 0 __cxx_global_var_init
FUNC 22d9a4 20 0 geode::modifier::ModifyBase<geode::modifier::ModifyDerive<SaveLoader, AppDelegate> >::~ModifyBase()
FUNC 22d9c4 70 0 __cxx_global_var_init.1
FUNC 22da34 20 0 geode::modifier::ModifyBase<geode::modifier::ModifyDerive<FileOperationOverride, FileOperation> >::~ModifyBase()
FUNC 22da54 48c 0 geode::modifier::ModifyBase<geode::modifier::ModifyDerive<SaveLoader, AppDelegate> >::ModifyBase()
FUNC 22dee0 2e0 0 geode::modifier::ModifyDerive<SaveLoader, AppDelegate>::apply()
FUNC 22e1c0 d4 0 SaveLoader::onModify<geode::modifier::ModifyBase<geode::modifier::ModifyDerive<SaveLoader, AppDelegate> > >(geode::modifier::ModifyBase<geode::modifier::ModifyDerive<SaveLoader, AppDelegate> > const&)
FUNC 22e294 4 0 geode::modifier::ModifyBase<geode::modifier::ModifyDerive<SaveLoader, AppDelegate> >::apply()
FUNC 22e298 180 0 geode::Hook::create<void (*)(SaveLoader*, bool)>(void*, void (*)(SaveLoader*, bool), std::__ndk1::basic_string<char, std::__ndk1::char_traits<char>, std::__ndk1::allocator<char> > const&, tulip::hook::TulipConvention, tulip::hook::HookMetadata const&)
FUNC 22e418 4 0 geode::modifier::AsStaticFunction_trySaveGame<SaveLoader, void (SaveLoader::*)(bool)>::Impl<void (SaveLoader::*)(bool)>::function(SaveLoader*, bool)
FUNC 22e41c e4 0 geode::addresser::Addresser::addressOfVirtual<void, AppDelegate, bool>(void (AppDelegate::*)(bool))
FUNC 22e500 108 0 SaveLoader::trySaveGame(bool)
FUNC 22e608 480 0 geode::modifier::ModifyBase<geode::modifier::ModifyDerive<FileOperationOverride, FileOperation> >::ModifyBase()
FUNC 22ea88 2e8 0 geode::modifier::ModifyDerive<FileOperationOverride, FileOperation>::apply()
FUNC 22ed70 4 0 geode::modifier::ModifyBase<geode::modifier::ModifyDerive<FileOperationOverride, FileOperation> >::apply()
FUNC 22ed74 134 0 geode::Hook::create<gd::string (*)(FileOperationOverride*)>(void*, gd::string (*)(FileOperationOverride*), std::__ndk1::basic_string<char, std::__ndk1::char_traits<char>, std::__ndk1::allocator<char> > const&, tulip::hook::TulipConvention, tulip::hook::HookMetadata const&)
FUNC 22eea8 4 0 geode::modifier::AsStaticFunction_getFilePath<FileOperationOverride, gd::string (FileOperationOverride::*)()>::Impl<gd::string (FileOperationOverride::*)()>::function(FileOperationOverride*)
FUNC 22eeac 10c 0 FileOperationOverride::getFilePath()
FUNC 22efb8 70 0 __cxx_global_var_init
FUNC 22f028 20 0 geode::modifier::ModifyBase<geode::modifier::ModifyDerive<FunctionQueue, cocos2d::CCScheduler> >::~ModifyBase()
FUNC 22f048 480 0 geode::modifier::ModifyBase<geode::modifier::ModifyDerive<FunctionQueue, cocos2d::CCScheduler> >::ModifyBase()
FUNC 22f4c8 2e8 0 geode::modifier::ModifyDerive<FunctionQueue, cocos2d::CCScheduler>::apply()
FUNC 22f7b0 4 0 geode::modifier::ModifyBase<geode::modifier::ModifyDerive<FunctionQueue, cocos2d::CCScheduler> >::apply()
FUNC 22f7b4 180 0 geode::Hook::create<void (*)(FunctionQueue*, float)>(void*, void (*)(FunctionQueue*, float), std::__ndk1::basic_string<char, std::__ndk1::char_traits<char>, std::__ndk1::allocator<char> > const&, tulip::hook::TulipConvention, tulip::hook::HookMetadata const&)
FUNC 22f934 38 0 geode::modifier::AsStaticFunction_update<FunctionQueue, void (FunctionQueue::*)(float)>::Impl<void (FunctionQueue::*)(float)>::function(FunctionQueue*, float)
FUNC 22f96c fc 0 geode::addresser::Addresser::addressOfVirtual<void, cocos2d::CCScheduler, float>(void (cocos2d::CCScheduler::*)(float))
FUNC 22fa68 84 0 geode::NodeIDs::get()
FUNC 22faec b4 0 ProvideIDsForLoadingLayer::provide()
FUNC 22fba0 278 0 geode::geodeInternalProvideIDsFor<ProvideIDsForLoadingLayer>(ProvideIDsForLoadingLayer*)
FUNC 22fe18 3d0 0 std::__ndk1::__hash_table<std::__ndk1::__hash_value_type<std::__ndk1::basic_string<char, std::__ndk1::char_traits<char>, std::__ndk1::allocator<char> >, void (*)(cocos2d::CCNode*)>, std::__ndk1::__unordered_map_hasher<std::__ndk1::basic_string<char, std::__ndk1::char_traits<char>, std::__ndk1::allocator<char> >, std::__ndk1::__hash_value_type<std::__ndk1::basic_string<char, std::__ndk1::char_traits<char>, std::__ndk1::allocator<char> >, void (*)(cocos2d::CCNode*)>, std::__ndk1::hash<std::__ndk1::basic_string<char, std::__ndk1::char_traits<char>, std::__ndk1::allocator<char> > >, std::__ndk1::equal_to<std::__ndk1::basic_string<char, std::__ndk1::char_traits<char>, std::__ndk1::allocator<char> > >, true>, std::__ndk1::__unordered_map_equal<std::__ndk1::basic_string<char, std::__ndk1::char_traits<char>, std::__ndk1::allocator<char> >, std::__ndk1::__hash_value_type<std::__ndk1::basic_string<char, std::__ndk1::char_traits<char>, std::__ndk1::allocator<char> >, void (*)(cocos2d::CCNode*)>, std::__ndk1::equal_to<std::__ndk1::basic_string<char, std::__ndk1::char_traits<char>, std::__ndk1::allocator<char> > >, std::__ndk1::hash<std::__ndk1::basic_string<char, std::__ndk1::char_traits<char>, std::__ndk1::allocator<char> > >, true>, std::__ndk1::allocator<std::__ndk1::__hash_value_type<std::__ndk1::basic_string<char, std::__ndk1::char_traits<char>, std::__ndk1::allocator<char> >, void (*)(cocos2d::CCNode*)> > >::__emplace_unique_key_args<std::__ndk1::basic_string<char, std::__ndk1::char_traits<char>, std::__ndk1::allocator<char> >, std::__ndk1::pair<std::__ndk1::basic_string<char, std::__ndk1::char_traits<char>, std::__ndk1::allocator<char> > const, void (*)(cocos2d::CCNode*)> >(std::__ndk1::basic_string<char, std::__ndk1::char_traits<char>, std::__ndk1::allocator<char> > const&, std::__ndk1::pair<std::__ndk1::basic_string<char, std::__ndk1::char_traits<char>, std::__ndk1::allocator<char> > const, void (*)(cocos2d::CCNode*)>&&)
FUNC 2301e8 ec 0 std::__ndk1::__hash_table<std::__ndk1::__hash_value_type<std::__ndk1::basic_string<char, std::__ndk1::char_traits<char>, std::__ndk1::allocator<char> >, void (*)(cocos2d::CCNode*)>, std::__ndk1::__unordered_map_hasher<std::__ndk1::basic_string<char, std::__ndk1::char_traits<char>, std::__ndk1::allocator<char> >, std::__ndk1::__hash_value_type<std::__ndk1::basic_string<char, std::__ndk1::char_traits<char>, std::__ndk1::allocator<char> >, void (*)(cocos2d::CCNode*)>, std::__ndk1::hash<std::__ndk1::basic_string<char, std::__ndk1::char_traits<char>, std::__ndk1::allocator<char> > >, std::__ndk1::equal_to<std::__ndk1::basic_string<char, std::__ndk1::char_traits<char>, std::__ndk1::allocator<char> > >, true>, std::__ndk1::__unordered_map_equal<std::__ndk1::basic_string<char, std::__ndk1::char_traits<char>, std::__ndk1::allocator<char> >, std::__ndk1::__hash_value_type<std::__ndk1::basic_string<char, std::__ndk1::char_traits<char>, std::__ndk1::allocator<char> >, void (*)(cocos2d::CCNode*)>, std::__ndk1::equal_to<std::__ndk1::basic_string<char, std::__ndk1::char_traits<char>, std::__ndk1::allocator<char> > >, std::__ndk1::hash<std::__ndk1::basic_string<char, std::__ndk1::char_traits<char>, std::__ndk1::allocator<char> > >, true>, std::__ndk1::allocator<std::__ndk1::__hash_value_type<std::__ndk1::basic_string<char, std::__ndk1::char_traits<char>, std::__ndk1::allocator<char> >, void (*)(cocos2d::CCNode*)> > >::__construct_node_hash<std::__ndk1::pair<std::__ndk1::basic_string<char, std::__ndk1::char_traits<char>, std::__ndk1::allocator<char> > const, void (*)(cocos2d::CCNode*)>, >(unsigned long, std::__ndk1::pair<std::__ndk1::basic_string<char, std::__ndk1::char_traits<char>, std::__ndk1::allocator<char> > const, void (*)(cocos2d::CCNode*)>&&, &&)
FUNC 2302d4 4c 0 std::__ndk1::unique_ptr<std::__ndk1::__hash_node<std::__ndk1::__hash_value_type<std::__ndk1::basic_string<char, std::__ndk1::char_traits<char>, std::__ndk1::allocator<char> >, void (*)(cocos2d::CCNode*)>, void*>, std::__ndk1::__hash_node_destructor<std::__ndk1::allocator<std::__ndk1::__hash_node<std::__ndk1::__hash_value_type<std::__ndk1::basic_string<char, std::__ndk1::char_traits<char>, std::__ndk1::allocator<char> >, void (*)(cocos2d::CCNode*)>, void*> > > >::~unique_ptr[abi:v170000]()
FUNC 230320 15c 0 std::__ndk1::__hash_table<std::__ndk1::__hash_value_type<std::__ndk1::basic_string<char, std::__ndk1::char_traits<char>, std::__ndk1::allocator<char> >, void (*)(cocos2d::CCNode*)>, std::__ndk1::__unordered_map_hasher<std::__ndk1::basic_string<char, std::__ndk1::char_traits<char>, std::__ndk1::allocator<char> >, std::__ndk1::__hash_value_type<std::__ndk1::basic_string<char, std::__ndk1::char_traits<char>, std::__ndk1::allocator<char> >, void (*)(cocos2d::CCNode*)>, std::__ndk1::hash<std::__ndk1::basic_string<char, std::__ndk1::char_traits<char>, std::__ndk1::allocator<char> > >, std::__ndk1::equal_to<std::__ndk1::basic_string<char, std::__ndk1::char_traits<char>, std::__ndk1::allocator<char> > >, true>, std::__ndk1::__unordered_map_equal<std::__ndk1::basic_string<char, std::__ndk1::char_traits<char>, std::__ndk1::allocator<char> >, std::__ndk1::__hash_value_type<std::__ndk1::basic_string<char, std::__ndk1::char_traits<char>, std::__ndk1::allocator<char> >, void (*)(cocos2d::CCNode*)>, std::__ndk1::equal_to<std::__ndk1::basic_string<char, std::__ndk1::char_traits<char>, std::__ndk1::allocator<char> > >, std::__ndk1::hash<std::__ndk1::basic_string<char, std::__ndk1::char_traits<char>, std::__ndk1::allocator<char> > >, true>, std::__ndk1::allocator<std::__ndk1::__hash_value_type<std::__ndk1::basic_string<char, std::__ndk1::char_traits<char>, std::__ndk1::allocator<char> >, void (*)(cocos2d::CCNode*)> > >::__do_rehash<true>(unsigned long)
FUNC 23047c 48 0 geode::EnterLayerEvent<ProvideIDsForLoadingLayer>::~EnterLayerEvent()
FUNC 2304c4 40 0 geode::AEnterLayerEvent::~AEnterLayerEvent()
FUNC 230504 48 0 geode::AEnterLayerEvent::~AEnterLayerEvent()
FUNC 23054c 17c 0 geode::node_ids::setIDSafe<cocos2d::CCNode>(cocos2d::CCNode*, int, char const*)
FUNC 2306c8 c0 0 _GLOBAL__sub_I_LoadingLayer.cpp
FUNC 230788 ae8 0 ProvideIDsForMenuLayer::provide()
FUNC 231270 234 0 geode::node_ids::setIDSafe<cocos2d::CCSprite>(cocos2d::CCNode*, int, char const*)
FUNC 2314a4 234 0 geode::node_ids::setIDSafe<cocos2d::CCLabelBMFont>(cocos2d::CCNode*, int, char const*)
FUNC 2316d8 240 0 geode::node_ids::detachAndCreateMenu<cocos2d::CCNode*, >(cocos2d::CCNode*, char const*, cocos2d::Layout*, cocos2d::CCNode*, )
FUNC 231918 1cc 0 geode::geodeInternalProvideIDsFor<ProvideIDsForMenuLayer>(ProvideIDsForMenuLayer*)
FUNC 231ae4 48 0 geode::EnterLayerEvent<ProvideIDsForMenuLayer>::~EnterLayerEvent()
FUNC 231b2c b8 0 _GLOBAL__sub_I_MenuLayer.cpp
FUNC 231be4 28 0 about::getLoaderVersion()
FUNC 231c0c c 0 about::getLoaderVersionStr()
FUNC 231c18 c 0 about::getLoaderCommitHash()
FUNC 231c24 c 0 about::getBindingsCommitHash()
FUNC 231c30 c 0 about::getLoaderModJson()
FUNC 231c3c 1fc 0 crashlog::getDateString(bool)
FUNC 231e38 1c8 0 std::__ndk1::operator<<[abi:v170000]<char, std::__ndk1::char_traits<char> >(std::__ndk1::basic_ostream<char, std::__ndk1::char_traits<char> >, std::__ndk1::__iom_t10<std::__ndk1::basic_ostream> const&)
FUNC 232000 2bc 0 crashlog::printGeodeInfo(std::__ndk1::basic_stringstream<char, std::__ndk1::char_traits<char>, std::__ndk1::allocator<char> >&)
FUNC 2322bc 30c 0 crashlog::printMods(std::__ndk1::basic_stringstream<char, std::__ndk1::char_traits<char>, std::__ndk1::allocator<char> >&)
FUNC 2325c8 940 0 crashlog::writeCrashlog(geode::Mod*, std::__ndk1::basic_string<char, std::__ndk1::char_traits<char>, std::__ndk1::allocator<char> > const&, std::__ndk1::basic_string<char, std::__ndk1::char_traits<char>, std::__ndk1::allocator<char> > const&, std::__ndk1::basic_string<char, std::__ndk1::char_traits<char>, std::__ndk1::allocator<char> > const&)
FUNC 232f08 e4 0 geode::utils::ranges::join<std::__ndk1::vector<std::__ndk1::basic_string<char, std::__ndk1::char_traits<char>, std::__ndk1::allocator<char> >, std::__ndk1::allocator<std::__ndk1::basic_string<char, std::__ndk1::char_traits<char>, std::__ndk1::allocator<char> > > > >(std::__ndk1::vector<std::__ndk1::basic_string<char, std::__ndk1::char_traits<char>, std::__ndk1::allocator<char> >, std::__ndk1::allocator<std::__ndk1::basic_string<char, std::__ndk1::char_traits<char>, std::__ndk1::allocator<char> > > > const&, std::__ndk1::basic_string<char, std::__ndk1::char_traits<char>, std::__ndk1::allocator<char> > const&)
FUNC 232fec 54 0 std::__ndk1::basic_ofstream<char, std::__ndk1::char_traits<char> >::~basic_ofstream()
FUNC 233040 8c 0 std::__ndk1::basic_stringstream<char, std::__ndk1::char_traits<char>, std::__ndk1::allocator<char> >::~basic_stringstream()
FUNC 2330cc 72c 0 std::__ndk1::__introsort<std::__ndk1::_ClassicAlgPolicy, crashlog::printMods(std::__ndk1::basic_stringstream<char, std::__ndk1::char_traits<char>, std::__ndk1::allocator<char> >&)::$_0&, geode::Mod**, false>(geode::Mod**, geode::Mod**, crashlog::printMods(std::__ndk1::basic_stringstream<char, std::__ndk1::char_traits<char>, std::__ndk1::allocator<char> >&)::$_0&, std::__ndk1::iterator_traits<geode::Mod**>::difference_type, bool)
FUNC 2337f8 170 0 crashlog::printMods(std::__ndk1::basic_stringstream<char, std::__ndk1::char_traits<char>, std::__ndk1::allocator<char> >&)::$_0::operator()(geode::Mod*, geode::Mod*) const
FUNC 233968 e0 0 std::__ndk1::__sort3[abi:v170000]<std::__ndk1::_ClassicAlgPolicy, crashlog::printMods(std::__ndk1::basic_stringstream<char, std::__ndk1::char_traits<char>, std::__ndk1::allocator<char> >&)::$_0&, geode::Mod**>(geode::Mod**, geode::Mod**, geode::Mod**, crashlog::printMods(std::__ndk1::basic_stringstream<char, std::__ndk1::char_traits<char>, std::__ndk1::allocator<char> >&)::$_0&)
FUNC 233a48 204 0 std::__ndk1::__insertion_sort_incomplete<crashlog::printMods(std::__ndk1::basic_stringstream<char, std::__ndk1::char_traits<char>, std::__ndk1::allocator<char> >&)::$_0&, geode::Mod**>(geode::Mod**, geode::Mod**, crashlog::printMods(std::__ndk1::basic_stringstream<char, std::__ndk1::char_traits<char>, std::__ndk1::allocator<char> >&)::$_0&)
FUNC 233c4c 94 0 std::__ndk1::__sort4[abi:v170000]<std::__ndk1::_ClassicAlgPolicy, crashlog::printMods(std::__ndk1::basic_stringstream<char, std::__ndk1::char_traits<char>, std::__ndk1::allocator<char> >&)::$_0&, geode::Mod**>(geode::Mod**, geode::Mod**, geode::Mod**, geode::Mod**, crashlog::printMods(std::__ndk1::basic_stringstream<char, std::__ndk1::char_traits<char>, std::__ndk1::allocator<char> >&)::$_0&)
FUNC 233ce0 60 0 {virtual override thunk({virtual offset(0, -24)}, std::__ndk1::basic_ofstream<char, std::__ndk1::char_traits<char> >::~basic_ofstream())}
FUNC 233d40 5c 0 std::__ndk1::basic_ofstream<char, std::__ndk1::char_traits<char> >::~basic_ofstream()
FUNC 233d9c 68 0 {virtual override thunk({virtual offset(0, -24)}, std::__ndk1::basic_ofstream<char, std::__ndk1::char_traits<char> >::~basic_ofstream())}
FUNC 233e04 8c 0 {virtual override thunk({offset(-16)}, std::__ndk1::basic_stringstream<char, std::__ndk1::char_traits<char>, std::__ndk1::allocator<char> >::~basic_stringstream())}
FUNC 233e90 94 0 {virtual override thunk({virtual offset(0, -24)}, std::__ndk1::basic_stringstream<char, std::__ndk1::char_traits<char>, std::__ndk1::allocator<char> >::~basic_stringstream())}
FUNC 233f24 94 0 std::__ndk1::basic_stringstream<char, std::__ndk1::char_traits<char>, std::__ndk1::allocator<char> >::~basic_stringstream()
FUNC 233fb8 94 0 {virtual override thunk({offset(-16)}, std::__ndk1::basic_stringstream<char, std::__ndk1::char_traits<char>, std::__ndk1::allocator<char> >::~basic_stringstream())}
FUNC 23404c 9c 0 {virtual override thunk({virtual offset(0, -24)}, std::__ndk1::basic_stringstream<char, std::__ndk1::char_traits<char>, std::__ndk1::allocator<char> >::~basic_stringstream())}
FUNC 2340e8 194 0 std::__ndk1::__put_character_sequence[abi:v170000]<char, std::__ndk1::char_traits<char> >(std::__ndk1::basic_ostream<char, std::__ndk1::char_traits<char> >, std::__ndk1::basic_ostream const*, unsigned long)
FUNC 23427c 1b4 0 std::__ndk1::__pad_and_output[abi:v170000]<char, std::__ndk1::char_traits<char> >(std::__ndk1::char_traits<char>, std::__ndk1::ostreambuf_iterator const*, std::__ndk1::ostreambuf_iterator const, std::__ndk1::ostreambuf_iterator const, std::__ndk1::ios_base&, std::__ndk1::ostreambuf_iterator)
FUNC 234430 100 0 tryLogForwardCompat()
FUNC 234530 2e0 0 tryShowForwardCompat()
FUNC 234810 2e8 0 geode::Mod::getSavedValue<std::__ndk1::basic_string<char, std::__ndk1::char_traits<char>, std::__ndk1::allocator<char> > >(std::__ndk1::basic_string_view<char, std::__ndk1::char_traits<char> >, std::__ndk1::basic_string<char, std::__ndk1::char_traits<char>, std::__ndk1::allocator<char> > const&)
FUNC 234af8 19c 0 geode::Mod::setSavedValue<std::__ndk1::basic_string<char, std::__ndk1::char_traits<char>, std::__ndk1::allocator<char> > >(std::__ndk1::basic_string_view<char, std::__ndk1::char_traits<char> >, std::__ndk1::basic_string<char, std::__ndk1::char_traits<char>, std::__ndk1::allocator<char> > const&)
FUNC 234c94 8f0 0 geodeEntry(void*)
FUNC 235584 13c 0 std::__ndk1::basic_string<char, std::__ndk1::char_traits<char>, std::__ndk1::allocator<char> >::__assign_external(char const*, unsigned long)
FUNC 2356c0 10 0 geodeExecFunction20<(anonymous namespace)::ExecFuncUnique20>()::{lambda(geode::ipc::IPCEvent*)#1}::__invoke(geode::ipc::IPCEvent*)
FUNC 2356d0 c8 0 geodeExecFunction20<(anonymous namespace)::ExecFuncUnique20>()::{lambda(geode::ipc::IPCEvent*)#2}::__invoke(geode::ipc::IPCEvent*)
FUNC 235798 5b8 0 geodeExecFunction20<(anonymous namespace)::ExecFuncUnique20>()::{lambda(geode::ipc::IPCEvent*)#3}::__invoke(geode::ipc::IPCEvent*)
FUNC 235d50 78 0 geode::JsonMaybeValue::get<bool>()
FUNC 235dc8 380 0 geode::JsonMaybeValue::as<(matjson::Type)4>()
FUNC 236148 214 0 std::__ndk1::vector<matjson::Value, std::__ndk1::allocator<matjson::Value> >::__push_back_slow_path<matjson::Value>(matjson::Value&&)
FUNC 23635c 54 0 std::__ndk1::__split_buffer<matjson::Value, std::__ndk1::allocator<matjson::Value>&>::~__split_buffer()
FUNC 2363b0 14 0 std::__ndk1::vector<matjson::Value, std::__ndk1::allocator<matjson::Value> >::__throw_length_error[abi:v170000]() const
FUNC 2363c4 50 0 std::__ndk1::__tree<std::__ndk1::basic_string<char, std::__ndk1::char_traits<char>, std::__ndk1::allocator<char> >, std::__ndk1::less<std::__ndk1::basic_string<char, std::__ndk1::char_traits<char>, std::__ndk1::allocator<char> > >, std::__ndk1::allocator<std::__ndk1::basic_string<char, std::__ndk1::char_traits<char>, std::__ndk1::allocator<char> > > >::destroy(std::__ndk1::__tree_node<std::__ndk1::basic_string<char, std::__ndk1::char_traits<char>, std::__ndk1::allocator<char> >, void*>*)
FUNC 236414 4 0 std::__ndk1::__variant_detail::__visitation::__base::__dispatcher<(unsigned long)0>::__dispatch[abi:v170000]<std::__ndk1::__variant_detail::__dtor<std::__ndk1::__variant_detail::__traits<std::__ndk1::monostate, std::__ndk1::basic_string<char, std::__ndk1::char_traits<char>, std::__ndk1::allocator<char> > >, (std::__ndk1::__variant_detail::_Trait)1>::__destroy[abi:v170000]()::{lambda(auto:1&)#1}, std::__ndk1::__variant_detail::__base<(std::__ndk1::__variant_detail::__traits<std::__ndk1::monostate, std::__ndk1::basic_string<char, std::__ndk1::char_traits<char>, std::__ndk1::allocator<char> > >)1, std::__ndk1::__variant_detail::__traits, std::__ndk1::allocator<char> >&>(std::__ndk1::__variant_detail::__dtor<std::__ndk1::__variant_detail::__traits<std::__ndk1::monostate, std::__ndk1::basic_string<char, std::__ndk1::char_traits<char>, std::__ndk1::allocator<char> > >, (std::__ndk1::__variant_detail::_Trait)1>, std::__ndk1::__variant_detail::__base<(std::__ndk1::__variant_detail::__traits<std::__ndk1::monostate, std::__ndk1::basic_string<char, std::__ndk1::char_traits<char>, std::__ndk1::allocator<char> > >)1, std::__ndk1::__variant_detail::__traits, std::__ndk1::allocator<char> >&)
FUNC 236418 14 0 std::__ndk1::__variant_detail::__visitation::__base::__dispatcher<(unsigned long)1>::__dispatch[abi:v170000]<std::__ndk1::__variant_detail::__dtor<std::__ndk1::__variant_detail::__traits<std::__ndk1::monostate, std::__ndk1::basic_string<char, std::__ndk1::char_traits<char>, std::__ndk1::allocator<char> > >, (std::__ndk1::__variant_detail::_Trait)1>::__destroy[abi:v170000]()::{lambda(auto:1&)#1}, std::__ndk1::__variant_detail::__base<(std::__ndk1::__variant_detail::__traits<std::__ndk1::monostate, std::__ndk1::basic_string<char, std::__ndk1::char_traits<char>, std::__ndk1::allocator<char> > >)1, std::__ndk1::__variant_detail::__traits, std::__ndk1::allocator<char> >&>(std::__ndk1::__variant_detail::__dtor<std::__ndk1::__variant_detail::__traits<std::__ndk1::monostate, std::__ndk1::basic_string<char, std::__ndk1::char_traits<char>, std::__ndk1::allocator<char> > >, (std::__ndk1::__variant_detail::_Trait)1>, std::__ndk1::__variant_detail::__base<(std::__ndk1::__variant_detail::__traits<std::__ndk1::monostate, std::__ndk1::basic_string<char, std::__ndk1::char_traits<char>, std::__ndk1::allocator<char> > >)1, std::__ndk1::__variant_detail::__traits, std::__ndk1::allocator<char> >&)
FUNC 23642c 18c 0 geode::Mod::getSavedValue<std::__ndk1::basic_string<char, std::__ndk1::char_traits<char>, std::__ndk1::allocator<char> > >(std::__ndk1::basic_string_view<char, std::__ndk1::char_traits<char> >)
FUNC 2365b8 b4 0 fmt::v10::detail::value<fmt::v10::basic_format_context<fmt::v10::appender, char> >::format_custom_arg<geode::VersionInfo, fmt::v10::formatter<geode::VersionInfo, char, void> >(void*, fmt::v10::basic_format_parse_context<char>&, fmt::v10::basic_format_context<fmt::v10::appender, char>&)
FUNC 23666c 2a8 0 fmt::v10::formatter<fmt::v10::basic_string_view<char>, char, void>::parse<fmt::v10::basic_format_parse_context<char> >(fmt::v10::basic_format_parse_context<char>&)
FUNC 236914 15c 0 fmt::v10::formatter<geode::VersionInfo, char, void>::format<fmt::v10::basic_format_context<fmt::v10::appender, char> >(geode::VersionInfo const&, fmt::v10::basic_format_context<fmt::v10::appender, char>&) const
FUNC 236a70 1b8 0 fmt::v10::detail::parse_dynamic_spec<char>(char const*, char const*, int&, fmt::v10::detail::arg_ref<char>&, fmt::v10::basic_format_parse_context<char>&)
FUNC 236c28 17c 0 fmt::v10::detail::do_parse_arg_id<char, fmt::v10::detail::dynamic_spec_id_handler<char>&>(char const*, char const*, fmt::v10::detail::dynamic_spec_id_handler<char>&)
FUNC 236da4 110 0 fmt::v10::detail::handle_dynamic_spec<fmt::v10::detail::width_checker, fmt::v10::basic_format_context<fmt::v10::appender, char> >(int&, fmt::v10::detail::arg_ref<fmt::v10::basic_format_context<fmt::v10::appender, char>::char_type>, fmt::v10::basic_format_context<fmt::v10::appender, char>&)
FUNC 236eb4 110 0 fmt::v10::detail::handle_dynamic_spec<fmt::v10::detail::precision_checker, fmt::v10::basic_format_context<fmt::v10::appender, char> >(int&, fmt::v10::detail::arg_ref<fmt::v10::basic_format_context<fmt::v10::appender, char>::char_type>, fmt::v10::basic_format_context<fmt::v10::appender, char>&)
FUNC 236fc4 90 0 fmt::v10::detail::get_dynamic_spec<fmt::v10::detail::width_checker, fmt::v10::basic_format_arg<fmt::v10::basic_format_context<fmt::v10::appender, char> >, fmt::v10::detail::error_handler>(fmt::v10::basic_format_arg<fmt::v10::basic_format_context<fmt::v10::appender, char> >, fmt::v10::detail::error_handler)
FUNC 237054 15c 0 fmt::v10::basic_format_args<fmt::v10::basic_format_context<fmt::v10::appender, char> >::get<char>(fmt::v10::basic_string_view<char>) const
FUNC 2371b0 90 0 fmt::v10::detail::get_dynamic_spec<fmt::v10::detail::precision_checker, fmt::v10::basic_format_arg<fmt::v10::basic_format_context<fmt::v10::appender, char> >, fmt::v10::detail::error_handler>(fmt::v10::basic_format_arg<fmt::v10::basic_format_context<fmt::v10::appender, char> >, fmt::v10::detail::error_handler)
FUNC 237240 1d0 0 fmt::v10::detail::write<char, fmt::v10::appender>(fmt::v10::appender, fmt::v10::basic_string_view<char>, fmt::v10::format_specs<char> const&)
FUNC 237410 154 0 fmt::v10::detail::write_escaped_string<char, fmt::v10::detail::counting_iterator>(fmt::v10::detail::counting_iterator, fmt::v10::basic_string_view<char>)
FUNC 237564 204 0 fmt::v10::detail::write_padded<(fmt::v10::align::type)1, fmt::v10::appender, char, fmt::v10::detail::write<char, fmt::v10::appender>(fmt::v10::appender, fmt::v10::basic_string_view<char>, fmt::v10::format_specs<char> const&)::{lambda(fmt::v10::appender)#1}>(fmt::v10::appender, fmt::v10::format_specs<char> const&, unsigned long, unsigned long, fmt::v10::detail::write<char, fmt::v10::appender>(fmt::v10::appender, fmt::v10::basic_string_view<char>, fmt::v10::format_specs<char> const&)::{lambda(fmt::v10::appender&&)#1})
FUNC 237768 1a4 0 fmt::v10::detail::write_escaped_cp<fmt::v10::detail::counting_iterator, char>(fmt::v10::detail::counting_iterator, fmt::v10::detail::find_escape_result<char> const&)
FUNC 23790c 168 0 fmt::v10::detail::for_each_codepoint<fmt::v10::detail::find_escape(char const*, char const*)::{lambda(unsigned int, fmt::v10::basic_string_view<char>)#1}>(fmt::v10::basic_string_view<char>, fmt::v10::detail::find_escape(char const*, char const*)::{lambda(unsigned int, fmt::v10::basic_string_view<char>)#1})::{lambda(char const*, char const*)#1}::operator()(char const*, char const*) const
FUNC 237a74 1b4 0 fmt::v10::detail::for_each_codepoint<fmt::v10::detail::compute_width(fmt::v10::basic_string_view<char>)::count_code_points>(fmt::v10::basic_string_view<char>, fmt::v10::detail::compute_width(fmt::v10::basic_string_view<char>)::count_code_points)::{lambda(char const*, char const*)#1}::operator()(char const*, char const*) const
FUNC 237c28 1f0 0 fmt::v10::detail::fill<fmt::v10::appender, char>(fmt::v10::appender, unsigned long, fmt::v10::detail::fill_t<char> const&)
FUNC 237e18 2f4 0 fmt::v10::detail::write_escaped_string<char, fmt::v10::appender>(fmt::v10::appender, fmt::v10::basic_string_view<char>)
FUNC 23810c 1fc 0 fmt::v10::detail::write_escaped_cp<fmt::v10::appender, char>(fmt::v10::appender, fmt::v10::detail::find_escape_result<char> const&)
FUNC 238308 180 0 fmt::v10::detail::write_codepoint<(unsigned long)2, char, fmt::v10::appender>(fmt::v10::appender, char, unsigned int)
FUNC 238488 180 0 fmt::v10::detail::write_codepoint<(unsigned long)4, char, fmt::v10::appender>(fmt::v10::appender, char, unsigned int)
FUNC 238608 180 0 fmt::v10::detail::write_codepoint<(unsigned long)8, char, fmt::v10::appender>(fmt::v10::appender, char, unsigned int)
FUNC 238788 13c 0 _GLOBAL__sub_I_load.cpp
FUNC 2388c4 d8 0 geode::dirs::getGeodeDir()
FUNC 23899c d8 0 geode::dirs::getGeodeSaveDir()
FUNC 238a74 dc 0 geode::dirs::getGeodeResourcesDir()
FUNC 238b50 d4 0 geode::dirs::getGeodeLogDir()
FUNC 238c24 d4 0 geode::dirs::getTempDir()
FUNC 238cf8 d4 0 geode::dirs::getModsDir()
FUNC 238dcc d4 0 geode::dirs::getModsSaveDir()
FUNC 238ea0 dc 0 geode::dirs::getModConfigDir()
FUNC 238f7c d8 0 geode::dirs::getIndexDir()
FUNC 239054 4 0 geode::dirs::getCrashlogsDir()
FUNC 239058 74 0 geode::dispatchPools()
FUNC 2390cc 70 0 std::__ndk1::unordered_map<std::__ndk1::basic_string<char, std::__ndk1::char_traits<char>, std::__ndk1::allocator<char> >, geode::EventListenerPool*, std::__ndk1::hash<std::__ndk1::basic_string<char, std::__ndk1::char_traits<char>, std::__ndk1::allocator<char> > >, std::__ndk1::equal_to<std::__ndk1::basic_string<char, std::__ndk1::char_traits<char>, std::__ndk1::allocator<char> > >, std::__ndk1::allocator<std::__ndk1::pair<std::__ndk1::basic_string<char, std::__ndk1::char_traits<char>, std::__ndk1::allocator<char> > const, geode::EventListenerPool*> > >::~unordered_map[abi:v170000]()
FUNC 23913c 1cc 0 geode::DefaultEventListenerPool::add(geode::EventListenerProtocol*)
FUNC 239308 34c 0 std::__ndk1::vector<geode::EventListenerProtocol*, std::__ndk1::allocator<geode::EventListenerProtocol*> >::insert(std::__ndk1::__wrap_iter<geode::EventListenerProtocol* const*>, geode::EventListenerProtocol* const&)
FUNC 239654 d8 0 geode::DefaultEventListenerPool::remove(geode::EventListenerProtocol*)
FUNC 23972c 174 0 geode::DefaultEventListenerPool::handle(geode::Event*)
FUNC 2398a0 98 0 geode::DefaultEventListenerPool::get()
FUNC 239938 98 0 geode::EventListenerProtocol::getPool() const
FUNC 2399d0 54 0 geode::EventListenerProtocol::enable()
FUNC 239a24 38 0 geode::EventListenerProtocol::disable()
FUNC 239a5c 4c 0 geode::EventListenerProtocol::~EventListenerProtocol()
FUNC 239aa8 4 0 geode::EventListenerProtocol::~EventListenerProtocol()
FUNC 239aac 4 0 geode::Event::~Event()
FUNC 239ab0 24 0 geode::Event::~Event()
FUNC 239ad4 98 0 geode::Event::getPool() const
FUNC 239b6c 40 0 geode::Event::postFromMod(geode::Mod*)
FUNC 239bac 54 0 geode::DefaultEventListenerPool::~DefaultEventListenerPool()
FUNC 239c00 50 0 geode::DefaultEventListenerPool::~DefaultEventListenerPool()
FUNC 239c50 14 0 std::__ndk1::vector<geode::EventListenerProtocol*, std::__ndk1::allocator<geode::EventListenerProtocol*> >::__throw_length_error[abi:v170000]() const
FUNC 239c64 18 0 geode::Hook::Hook(std::__ndk1::shared_ptr<geode::Hook::Impl>&&)
FUNC 239c7c 50 0 geode::Hook::~Hook()
FUNC 239ccc 4 0 geode::Hook::create(void*, void*, std::__ndk1::basic_string<char, std::__ndk1::char_traits<char>, std::__ndk1::allocator<char> > const&, tulip::hook::HandlerMetadata const&, tulip::hook::HookMetadata const&)
FUNC 239cd0 8 0 geode::Hook::getOwner() const
FUNC 239cd8 8 0 geode::Hook::isEnabled() const
FUNC 239ce0 8 0 geode::Hook::enable()
FUNC 239ce8 8 0 geode::Hook::disable()
FUNC 239cf0 8 0 geode::Hook::getAutoEnable() const
FUNC 239cf8 8 0 geode::Hook::setAutoEnable(bool)
FUNC 239d00 8 0 geode::Hook::getAddress() const
FUNC 239d08 8 0 geode::Hook::getDisplayName() const
FUNC 239d10 8 0 geode::Hook::getRuntimeInfo() const
FUNC 239d18 8 0 geode::Hook::getHookMetadata() const
FUNC 239d20 8 0 geode::Hook::setHookMetadata(tulip::hook::HookMetadata const&)
FUNC 239d28 8 0 geode::Hook::getPriority() const
FUNC 239d30 8 0 geode::Hook::setPriority(int)
FUNC 239d38 7c 0 geode::Hook::Impl::Impl(void*, void*, std::__ndk1::basic_string<char, std::__ndk1::char_traits<char>, std::__ndk1::allocator<char> >, tulip::hook::HandlerMetadata, tulip::hook::HookMetadata const&)
FUNC 239db4 2b0 0 geode::Hook::Impl::~Impl()
FUNC 23a064 204 0 geode::Hook::Impl::disable()
FUNC 23a268 19c 0 geode::Hook::Impl::create(void*, void*, std::__ndk1::basic_string<char, std::__ndk1::char_traits<char>, std::__ndk1::allocator<char> > const&, tulip::hook::HandlerMetadata const&, tulip::hook::HookMetadata const&)
FUNC 23a404 50 0 std::__ndk1::shared_ptr<geode::Hook::Impl>::~shared_ptr[abi:v170000]()
FUNC 23a454 3d0 0 geode::Hook::Impl::enable()
FUNC 23a824 104 0 geode::Result<unsigned long, std::__ndk1::basic_string<char, std::__ndk1::char_traits<char>, std::__ndk1::allocator<char> > >::unwrap() &
FUNC 23a928 8 0 geode::Hook::Impl::getAddress() const
FUNC 23a930 20 0 geode::Hook::Impl::getDisplayName() const
FUNC 23a950 2d4 0 geode::Hook::Impl::getRuntimeInfo() const
FUNC 23ac24 8 0 geode::Hook::Impl::getHookMetadata() const
FUNC 23ac2c 190 0 geode::Hook::Impl::setHookMetadata(tulip::hook::HookMetadata const&)
FUNC 23adbc 1c0 0 geode::Hook::Impl::updateHookMetadata()
FUNC 23af7c 8 0 geode::Hook::Impl::getPriority() const
FUNC 23af84 18c 0 geode::Hook::Impl::setPriority(int)
FUNC 23b110 14 0 std::__ndk1::__shared_ptr_emplace<geode::Hook::Impl, std::__ndk1::allocator<geode::Hook::Impl> >::~__shared_ptr_emplace()
FUNC 23b124 34 0 std::__ndk1::__shared_ptr_emplace<geode::Hook::Impl, std::__ndk1::allocator<geode::Hook::Impl> >::~__shared_ptr_emplace()
FUNC 23b158 8 0 std::__ndk1::__shared_ptr_emplace<geode::Hook::Impl, std::__ndk1::allocator<geode::Hook::Impl> >::__on_zero_shared()
FUNC 23b160 4 0 std::__ndk1::__shared_ptr_emplace<geode::Hook::Impl, std::__ndk1::allocator<geode::Hook::Impl> >::__on_zero_shared_weak()
FUNC 23b164 248 0 std::__ndk1::construct_at[abi:v170000]<geode::Hook::Impl, void*&, void*, std::__ndk1::basic_string<char, std::__ndk1::char_traits<char>, std::__ndk1::allocator<char> > const&, tulip::hook::HandlerMetadata const&, tulip::HookMetadata const&, geode::Hook*>(geode::Hook::Impl, void*&, void*, std::__ndk1::basic_string<char, std::__ndk1::char_traits<char>, std::__ndk1::allocator<char> > const&, tulip::hook::HandlerMetadata const&, tulip::HookMetadata const&)
FUNC 23b3ac 24 0 std::__ndk1::__shared_ptr_pointer<geode::Hook*, geode::Hook(void*, void*, std::__ndk1::basic_string<char, std::__ndk1::char_traits<char>, std::__ndk1::allocator<char> > const&, tulip::hook::HandlerMetadata const&, tulip::hook::HookMetadata const&)::Impl::create::$_0, std::__ndk1::allocator<geode::Hook> >::~__shared_ptr_pointer()
FUNC 23b3d0 38 0 std::__ndk1::__shared_ptr_pointer<geode::Hook*, geode::Hook(void*, void*, std::__ndk1::basic_string<char, std::__ndk1::char_traits<char>, std::__ndk1::allocator<char> > const&, tulip::hook::HandlerMetadata const&, tulip::hook::HookMetadata const&)::Impl::create::$_0, std::__ndk1::allocator<geode::Hook> >::__on_zero_shared()
FUNC 23b408 1c 0 std::__ndk1::__shared_ptr_pointer<geode::Hook*, geode::Hook(void*, void*, std::__ndk1::basic_string<char, std::__ndk1::char_traits<char>, std::__ndk1::allocator<char> > const&, tulip::hook::HandlerMetadata const&, tulip::hook::HookMetadata const&)::Impl::create::$_0, std::__ndk1::allocator<geode::Hook> >::__get_deleter(std::type_info const&) const
FUNC 23b424 4 0 std::__ndk1::__shared_ptr_pointer<geode::Hook*, geode::Hook(void*, void*, std::__ndk1::basic_string<char, std::__ndk1::char_traits<char>, std::__ndk1::allocator<char> > const&, tulip::hook::HandlerMetadata const&, tulip::hook::HookMetadata const&)::Impl::create::$_0, std::__ndk1::allocator<geode::Hook> >::__on_zero_shared_weak()
FUNC 23b428 184 0 geode::ipc::listen(std::__ndk1::basic_string<char, std::__ndk1::char_traits<char>, std::__ndk1::allocator<char> > const&, matjson::Value (*)(geode::ipc::IPCEvent*))
FUNC 23b5ac 44 0 geode::ipc::IPCFilter::~IPCFilter()
FUNC 23b5f0 1ac 0 geode::ipc::IPCEvent::IPCEvent(void*, std::__ndk1::basic_string<char, std::__ndk1::char_traits<char>, std::__ndk1::allocator<char> > const&, std::__ndk1::basic_string<char, std::__ndk1::char_traits<char>, std::__ndk1::allocator<char> > const&, matjson::Value const&, matjson::Value&)
FUNC 23b79c 6c 0 geode::ipc::IPCEvent::~IPCEvent()
FUNC 23b808 24 0 geode::ipc::IPCEvent::~IPCEvent()
FUNC 23b82c 1d0 0 geode::ipc::IPCFilter::handle(geode::utils::MiniFunction<matjson::Value(geode::ipc::IPCEvent*)>, geode::ipc::IPCEvent*)
FUNC 23b9fc 13c 0 geode::ipc::IPCFilter::IPCFilter(std::__ndk1::basic_string<char, std::__ndk1::char_traits<char>, std::__ndk1::allocator<char> > const&, std::__ndk1::basic_string<char, std::__ndk1::char_traits<char>, std::__ndk1::allocator<char> > const&)
FUNC 23bb38 3b4 0 geode::ipc::processRaw(void*, std::__ndk1::basic_string<char, std::__ndk1::char_traits<char>, std::__ndk1::allocator<char> > const&)
FUNC 23beec 34 0 std::__ndk1::__throw_bad_optional_access[abi:v170000]()
FUNC 23bf20 148 0 geode::ipc::IPCFilter::IPCFilter(geode::ipc::IPCFilter const&)
FUNC 23c068 4 0 geode::EventListener<geode::ipc::IPCFilter>::getPool() const
FUNC 23c06c 110 0 geode::EventListener<geode::ipc::IPCFilter>::handle(geode::Event*)
FUNC 23c17c 78 0 geode::EventListener<geode::ipc::IPCFilter>::~EventListener()
FUNC 23c1f4 80 0 geode::EventListener<geode::ipc::IPCFilter>::~EventListener()
FUNC 23c274 4 0 geode::utils::MiniFunctionState<matjson::Value (*)(geode::ipc::IPCEvent*), matjson::Value, geode::ipc::IPCEvent*>::~MiniFunctionState()
FUNC 23c278 c 0 geode::utils::MiniFunctionState<matjson::Value (*)(geode::ipc::IPCEvent*), matjson::Value, geode::ipc::IPCEvent*>::call(geode::ipc::IPCEvent*) const
FUNC 23c284 38 0 geode::utils::MiniFunctionState<matjson::Value (*)(geode::ipc::IPCEvent*), matjson::Value, geode::ipc::IPCEvent*>::clone() const
FUNC 23c2bc 4 0 geode::utils::MiniFunctionStateBase<matjson::Value, geode::ipc::IPCEvent*>::~MiniFunctionStateBase()
FUNC 23c2c0 190 0 geode::ModInstallEvent::ModInstallEvent(std::__ndk1::basic_string<char, std::__ndk1::char_traits<char>, std::__ndk1::allocator<char> > const&, std::__ndk1::variant<std::__ndk1::monostate, std::__ndk1::pair<unsigned char, std::__ndk1::basic_string<char, std::__ndk1::char_traits<char>, std::__ndk1::allocator<char> > >, std::__ndk1::basic_string<char, std::__ndk1::char_traits<char>, std::__ndk1::allocator<char> > >)
FUNC 23c450 c4 0 geode::ModInstallFilter::handle(geode::utils::MiniFunction<void (geode::ModInstallEvent*)>, geode::ModInstallEvent*)
FUNC 23c514 98 0 geode::ModInstallFilter::ModInstallFilter(std::__ndk1::basic_string<char, std::__ndk1::char_traits<char>, std::__ndk1::allocator<char> > const&)
FUNC 23c5ac f4 0 geode::IndexUpdateEvent::IndexUpdateEvent(std::__ndk1::variant<std::__ndk1::monostate, std::__ndk1::pair<unsigned char, std::__ndk1::basic_string<char, std::__ndk1::char_traits<char>, std::__ndk1::allocator<char> > >, std::__ndk1::basic_string<char, std::__ndk1::char_traits<char>, std::__ndk1::allocator<char> > >)
FUNC 23c6a0 2c 0 geode::IndexUpdateFilter::handle(geode::utils::MiniFunction<void (geode::IndexUpdateEvent*)>, geode::IndexUpdateEvent*)
FUNC 23c6cc 8 0 geode::IndexUpdateFilter::IndexUpdateFilter()
FUNC 23c6d4 c4 0 geode::IndexItem::IndexItem()
FUNC 23c798 3c 0 geode::IndexItem::~IndexItem()
FUNC 23c7d4 c 0 geode::IndexItem::getRootPath() const
FUNC 23c7e0 10 0 geode::IndexItem::getPath() const
FUNC 23c7f0 10 0 geode::IndexItem::getMetadata() const
FUNC 23c800 a4 0 geode::IndexItem::getDownloadURL() const
FUNC 23c8a4 a4 0 geode::IndexItem::getPackageHash() const
FUNC 23c948 10 0 geode::IndexItem::getAvailablePlatforms() const
FUNC 23c958 12c 0 std::__ndk1::unordered_set<geode::PlatformID, std::__ndk1::hash<geode::PlatformID>, std::__ndk1::equal_to<geode::PlatformID>, std::__ndk1::allocator<geode::PlatformID> >::unordered_set(std::__ndk1::unordered_set<geode::PlatformID, std::__ndk1::hash<geode::PlatformID>, std::__ndk1::equal_to<geode::PlatformID>, std::__ndk1::allocator<geode::PlatformID> > const&)
FUNC 23ca84 c 0 geode::IndexItem::isFeatured() const
FUNC 23ca90 10 0 geode::IndexItem::getTags() const
FUNC 23caa0 12c 0 std::__ndk1::unordered_set<std::__ndk1::basic_string<char, std::__ndk1::char_traits<char>, std::__ndk1::allocator<char> >, std::__ndk1::hash<std::__ndk1::basic_string<char, std::__ndk1::char_traits<char>, std::__ndk1::allocator<char> > >, std::__ndk1::equal_to<std::__ndk1::basic_string<char, std::__ndk1::char_traits<char>, std::__ndk1::allocator<char> > >, std::__ndk1::allocator<std::__ndk1::basic_string<char, std::__ndk1::char_traits<char>, std::__ndk1::allocator<char> > > >::unordered_set(std::__ndk1::unordered_set<std::__ndk1::basic_string<char, std::__ndk1::char_traits<char>, std::__ndk1::allocator<char> >, std::__ndk1::hash<std::__ndk1::basic_string<char, std::__ndk1::char_traits<char>, std::__ndk1::allocator<char> > >, std::__ndk1::equal_to<std::__ndk1::basic_string<char, std::__ndk1::char_traits<char>, std::__ndk1::allocator<char> > >, std::__ndk1::allocator<std::__ndk1::basic_string<char, std::__ndk1::char_traits<char>, std::__ndk1::allocator<char> > > > const&)
FUNC 23cbcc 8 0 geode::IndexItem::isInstalled() const
FUNC 23cbd4 1c0 0 geode::IndexItem::Impl::isInstalled() const
FUNC 23cd94 c 0 geode::IndexItem::setMetadata(geode::ModMetadata const&)
FUNC 23cda0 c 0 geode::IndexItem::setDownloadURL(std::__ndk1::basic_string<char, std::__ndk1::char_traits<char>, std::__ndk1::allocator<char> > const&)
FUNC 23cdac c 0 geode::IndexItem::setPackageHash(std::__ndk1::basic_string<char, std::__ndk1::char_traits<char>, std::__ndk1::allocator<char> > const&)
FUNC 23cdb8 2c 0 geode::IndexItem::setAvailablePlatforms(std::__ndk1::unordered_set<geode::PlatformID, std::__ndk1::hash<geode::PlatformID>, std::__ndk1::equal_to<geode::PlatformID>, std::__ndk1::allocator<geode::PlatformID> > const&)
FUNC 23cde4 10 0 geode::IndexItem::setIsFeatured(bool const&)
FUNC 23cdf4 2c 0 geode::IndexItem::setTags(std::__ndk1::unordered_set<std::__ndk1::basic_string<char, std::__ndk1::char_traits<char>, std::__ndk1::allocator<char> >, std::__ndk1::hash<std::__ndk1::basic_string<char, std::__ndk1::char_traits<char>, std::__ndk1::allocator<char> > >, std::__ndk1::equal_to<std::__ndk1::basic_string<char, std::__ndk1::char_traits<char>, std::__ndk1::allocator<char> > >, std::__ndk1::allocator<std::__ndk1::basic_string<char, std::__ndk1::char_traits<char>, std::__ndk1::allocator<char> > > > const&)
FUNC 23ce20 10 0 geode::IndexItem::setIsInstalled(bool const&)
FUNC 23ce30 f58 0 geode::IndexItem::Impl::create(ghc::filesystem::path const&, ghc::filesystem::path const&)
FUNC 23dd88 224 0 geode::Result<matjson::Value, std::__ndk1::basic_string<char, std::__ndk1::char_traits<char>, std::__ndk1::allocator<char> > >::expect<>(std::__ndk1::basic_string<char, std::__ndk1::char_traits<char>, std::__ndk1::allocator<char> > const&, &&)
FUNC 23dfac 88 0 std::__ndk1::basic_string<char, std::__ndk1::char_traits<char>, std::__ndk1::allocator<char> >::basic_string[abi:v170000]<std::nullptr_t>()
FUNC 23e034 20 0 cpp::bitwizeshift::result<matjson::Value, std::__ndk1::basic_string<char, std::__ndk1::char_traits<char>, std::__ndk1::allocator<char> > >::~result()
FUNC 23e054 104 0 geode::Result<matjson::Value, std::__ndk1::basic_string<char, std::__ndk1::char_traits<char>, std::__ndk1::allocator<char> > >::unwrap() &
FUNC 23e158 1fc 0 geode::Result<geode::ModMetadata, std::__ndk1::basic_string<char, std::__ndk1::char_traits<char>, std::__ndk1::allocator<char> > >::expect<>(std::__ndk1::basic_string<char, std::__ndk1::char_traits<char>, std::__ndk1::allocator<char> > const&, &&)
FUNC 23e354 20 0 cpp::bitwizeshift::result<geode::ModMetadata, std::__ndk1::basic_string<char, std::__ndk1::char_traits<char>, std::__ndk1::allocator<char> > >::~result()
FUNC 23e374 104 0 geode::Result<geode::ModMetadata, std::__ndk1::basic_string<char, std::__ndk1::char_traits<char>, std::__ndk1::allocator<char> > >::unwrap() &
FUNC 23e478 80 0 geode::JsonMaybeValue::get<std::__ndk1::basic_string<char, std::__ndk1::char_traits<char>, std::__ndk1::allocator<char> > >()
FUNC 23e4f8 7c 0 geode::JsonMaybeValue::Iterator<geode::JsonMaybeValue>::~Iterator()
FUNC 23e574 40 0 geode::JsonMaybeObject::~JsonMaybeObject()
FUNC 23e5b4 50 0 std::__ndk1::shared_ptr<geode::IndexItem>::~shared_ptr[abi:v170000]()
FUNC 23e604 70 0 std::__ndk1::unordered_set<std::__ndk1::basic_string<char, std::__ndk1::char_traits<char>, std::__ndk1::allocator<char> >, std::__ndk1::hash<std::__ndk1::basic_string<char, std::__ndk1::char_traits<char>, std::__ndk1::allocator<char> > >, std::__ndk1::equal_to<std::__ndk1::basic_string<char, std::__ndk1::char_traits<char>, std::__ndk1::allocator<char> > >, std::__ndk1::allocator<std::__ndk1::basic_string<char, std::__ndk1::char_traits<char>, std::__ndk1::allocator<char> > > >::~unordered_set[abi:v170000]()
FUNC 23e674 4c 0 std::__ndk1::unordered_set<geode::PlatformID, std::__ndk1::hash<geode::PlatformID>, std::__ndk1::equal_to<geode::PlatformID>, std::__ndk1::allocator<geode::PlatformID> >::~unordered_set[abi:v170000]()
FUNC 23e6c0 74 0 geode::JsonChecker::~JsonChecker()
FUNC 23e734 44 0 geode::Index::Index()
FUNC 23e778 14 0 geode::Index::~Index()
FUNC 23e78c 8c 0 geode::Index::get()
FUNC 23e818 d8 0 geode::Index::Impl::cleanupItems()
FUNC 23e8f0 14 0 geode::Index::isUpToDate() const
FUNC 23e904 14 0 geode::Index::isUpdating() const
FUNC 23e918 14 0 geode::Index::hasTriedToUpdate() const
FUNC 23e92c 5c8 0 geode::Index::Impl::downloadIndex(std::__ndk1::basic_string<char, std::__ndk1::char_traits<char>, std::__ndk1::allocator<char> >)
FUNC 23eef4 8c 0 geode::IndexUpdateEvent::~IndexUpdateEvent()
FUNC 23ef80 74 0 std::__ndk1::variant<std::__ndk1::monostate, std::__ndk1::pair<unsigned char, std::__ndk1::basic_string<char, std::__ndk1::char_traits<char>, std::__ndk1::allocator<char> > >, std::__ndk1::basic_string<char, std::__ndk1::char_traits<char>, std::__ndk1::allocator<char> > >::~variant()
FUNC 23eff4 160 0 geode::utils::web::AsyncWebResult<std::__ndk1::monostate>::then(geode::utils::MiniFunction<void (std::__ndk1::monostate)>)
FUNC 23f154 30 0 geode::Index::Impl::downloadIndex(std::__ndk1::basic_string<char, std::__ndk1::char_traits<char>, std::__ndk1::allocator<char> >)::$_0::~$_0()
FUNC 23f184 724 0 geode::Index::Impl::checkForUpdates()
FUNC 23f8a8 104 0 geode::Result<std::__ndk1::basic_string<char, std::__ndk1::char_traits<char>, std::__ndk1::allocator<char> >, std::__ndk1::basic_string<char, std::__ndk1::char_traits<char>, std::__ndk1::allocator<char> > >::unwrapOr<char const (&) [1]>(char const (&) [1]) &&
FUNC 23f9ac 160 0 geode::utils::web::AsyncWebResult<std::__ndk1::basic_string<char, std::__ndk1::char_traits<char>, std::__ndk1::allocator<char> > >::then(geode::utils::MiniFunction<void (std::__ndk1::basic_string<char, std::__ndk1::char_traits<char>, std::__ndk1::allocator<char> >)>)
FUNC 23fb0c 30 0 geode::Index::Impl::checkForUpdates()::$_0::~$_0()
FUNC 23fb3c fa0 0 geode::Index::Impl::updateFromLocalTree()
FUNC 240adc 104 0 geode::Result<std::__ndk1::shared_ptr<geode::IndexItem>, std::__ndk1::basic_string<char, std::__ndk1::char_traits<char>, std::__ndk1::allocator<char> > >::unwrap() &
FUNC 240be0 50 0 std::__ndk1::pair<geode::VersionInfo const, std::__ndk1::shared_ptr<geode::IndexItem> >::~pair()
FUNC 240c30 70 0 cpp::bitwizeshift::result<std::__ndk1::shared_ptr<geode::IndexItem>, std::__ndk1::basic_string<char, std::__ndk1::char_traits<char>, std::__ndk1::allocator<char> > >::~result()
FUNC 240ca0 8c 0 geode::JsonMaybeValue::Iterator<std::__ndk1::pair<std::__ndk1::basic_string<char, std::__ndk1::char_traits<char>, std::__ndk1::allocator<char> >, geode::JsonMaybeValue> >::~Iterator()
FUNC 240d2c f0 0 geode::Index::update(bool)
FUNC 240e1c 1c0 0 geode::Index::getItems() const
FUNC 240fdc 10c 0 geode::utils::map::values<std::__ndk1::basic_string<char, std::__ndk1::char_traits<char>, std::__ndk1::allocator<char> >, std::__ndk1::map<geode::VersionInfo, std::__ndk1::shared_ptr<geode::IndexItem>, std::__ndk1::less<geode::VersionInfo>, std::__ndk1::allocator<std::__ndk1::pair<geode::VersionInfo const, std::__ndk1::shared_ptr<geode::IndexItem> > > > >(std::__ndk1::unordered_map<std::__ndk1::basic_string<char, std::__ndk1::char_traits<char>, std::__ndk1::allocator<char> >, std::__ndk1::map<geode::VersionInfo, std::__ndk1::shared_ptr<geode::IndexItem>, std::__ndk1::less<geode::VersionInfo>, std::__ndk1::allocator<std::__ndk1::pair<geode::VersionInfo const, std::__ndk1::shared_ptr<geode::IndexItem> > > >, std::__ndk1::hash<std::__ndk1::basic_string<char, std::__ndk1::char_traits<char>, std::__ndk1::allocator<char> > >, std::__ndk1::equal_to<std::__ndk1::basic_string<char, std::__ndk1::char_traits<char>, std::__ndk1::allocator<char> > >, std::__ndk1::allocator<std::__ndk1::pair<std::__ndk1::basic_string<char, std::__ndk1::char_traits<char>, std::__ndk1::allocator<char> > const, std::__ndk1::map<geode::VersionInfo, std::__ndk1::shared_ptr<geode::IndexItem>, std::__ndk1::less<geode::VersionInfo>, std::__ndk1::allocator<std::__ndk1::pair<geode::VersionInfo const, std::__ndk1::shared_ptr<geode::IndexItem> > > > > > > const&)
FUNC 2410e8 70 0 std::__ndk1::vector<std::__ndk1::map<geode::VersionInfo, std::__ndk1::shared_ptr<geode::IndexItem>, std::__ndk1::less<geode::VersionInfo>, std::__ndk1::allocator<std::__ndk1::pair<geode::VersionInfo const, std::__ndk1::shared_ptr<geode::IndexItem> > > >, std::__ndk1::allocator<std::__ndk1::map<geode::VersionInfo, std::__ndk1::shared_ptr<geode::IndexItem>, std::__ndk1::less<geode::VersionInfo>, std::__ndk1::allocator<std::__ndk1::pair<geode::VersionInfo const, std::__ndk1::shared_ptr<geode::IndexItem> > > > > >::~vector[abi:v170000]()
FUNC 241158 98 0 std::__ndk1::vector<std::__ndk1::shared_ptr<geode::IndexItem>, std::__ndk1::allocator<std::__ndk1::shared_ptr<geode::IndexItem> > >::~vector[abi:v170000]()
FUNC 2411f0 140 0 geode::Index::getLatestItems() const
FUNC 241330 d8 0 geode::Index::getMajorItem(std::__ndk1::basic_string<char, std::__ndk1::char_traits<char>, std::__ndk1::allocator<char> > const&) const
FUNC 241408 1cc 0 geode::Index::getFeaturedItems() const
FUNC 2415d4 33c 0 geode::Index::getItemsByDeveloper(std::__ndk1::basic_string<char, std::__ndk1::char_traits<char>, std::__ndk1::allocator<char> > const&) const
FUNC 241910 178 0 geode::Index::getItemsByModID(std::__ndk1::basic_string<char, std::__ndk1::char_traits<char>, std::__ndk1::allocator<char> > const&) const
FUNC 241a88 9c 0 geode::Index::isKnownItem(std::__ndk1::basic_string<char, std::__ndk1::char_traits<char>, std::__ndk1::allocator<char> > const&, std::__ndk1::optional<geode::VersionInfo>) const
FUNC 241b24 3b8 0 geode::Index::getItem(std::__ndk1::basic_string<char, std::__ndk1::char_traits<char>, std::__ndk1::allocator<char> > const&, std::__ndk1::optional<geode::VersionInfo>) const
FUNC 241edc 1e4 0 geode::Index::getItem(std::__ndk1::basic_string<char, std::__ndk1::char_traits<char>, std::__ndk1::allocator<char> > const&, geode::ComparableVersionInfo) const
FUNC 2420c0 e0 0 geode::Index::getItem(geode::ModMetadata const&) const
FUNC 2421a0 e0 0 geode::Index::getItem(geode::Mod*) const
FUNC 242280 1e8 0 geode::Index::isUpdateAvailable(std::__ndk1::shared_ptr<geode::IndexItem>) const
FUNC 242468 27c 0 geode::Index::areUpdatesAvailable() const
FUNC 2426e4 ae0 0 geode::Index::canInstall(std::__ndk1::shared_ptr<geode::IndexItem>) const
FUNC 2431c4 104 0 geode::Result<std::__ndk1::monostate, std::__ndk1::basic_string<char, std::__ndk1::char_traits<char>, std::__ndk1::allocator<char> > >::unwrap() &
FUNC 2432c8 7c 0 std::__ndk1::vector<geode::ModMetadata::Dependency, std::__ndk1::allocator<geode::ModMetadata::Dependency> >::~vector[abi:v170000]()
FUNC 243344 de0 0 geode::Index::getInstallList(std::__ndk1::shared_ptr<geode::IndexItem>) const
FUNC 244124 104 0 geode::Result<geode::IndexInstallList, std::__ndk1::basic_string<char, std::__ndk1::char_traits<char>, std::__ndk1::allocator<char> > >::unwrap() &
FUNC 244228 c8 0 geode::IndexInstallList::~IndexInstallList()
FUNC 2442f0 ec 0 cpp::bitwizeshift::result<geode::IndexInstallList, std::__ndk1::basic_string<char, std::__ndk1::char_traits<char>, std::__ndk1::allocator<char> > >::~result()
FUNC 2443dc 1db4 0 geode::Index::Impl::installNext(unsigned long, geode::IndexInstallList const&)
FUNC 246190 220 0 geode::Index::Impl::installNext(unsigned long, geode::IndexInstallList const&)::$_5::operator()(std::__ndk1::basic_string<char, std::__ndk1::char_traits<char>, std::__ndk1::allocator<char> > const&) const
FUNC 2463b0 170 0 geode::Index::Impl::installNext(unsigned long, geode::IndexInstallList const&)::$_5::$_5($_5 const&)
FUNC 246520 170 0 geode::Index::Impl::installNext(unsigned long, geode::IndexInstallList const&)::$_6::$_6($_6 const&)
FUNC 246690 c8 0 geode::Index::Impl::installNext(unsigned long, geode::IndexInstallList const&)::$_5::~$_5()
FUNC 246758 50 0 std::__ndk1::shared_ptr<geode::utils::web::SentAsyncWebRequest>::~shared_ptr[abi:v170000]()
FUNC 2467a8 c8 0 geode::Index::Impl::installNext(unsigned long, geode::IndexInstallList const&)::$_4::~$_4()
FUNC 246870 1a4 0 geode::Index::Impl::installNext(unsigned long, geode::IndexInstallList const&)::$_3::~$_3()
FUNC 246a14 1a8 0 geode::Index::Impl::installNext(unsigned long, geode::IndexInstallList const&)::$_2::~$_2()
FUNC 246bbc 238 0 geode::Index::Impl::installNext(unsigned long, geode::IndexInstallList const&)::$_1::~$_1()
FUNC 246df4 c8 0 geode::Index::Impl::installNext(unsigned long, geode::IndexInstallList const&)::$_6::~$_6()
FUNC 246ebc 174 0 geode::Index::cancelInstall(std::__ndk1::shared_ptr<geode::IndexItem>)
FUNC 247030 50 0 geode::Index::cancelInstall(std::__ndk1::shared_ptr<geode::IndexItem>)::$_0::~$_0()
FUNC 247080 598 0 geode::Index::install(geode::IndexInstallList const&)
FUNC 247618 9c 0 geode::ModInstallEvent::~ModInstallEvent()
FUNC 2476b4 c8 0 geode::Index::install(geode::IndexInstallList const&)::$_0::~$_0()
FUNC 24777c 174 0 geode::Index::install(std::__ndk1::shared_ptr<geode::IndexItem>)
FUNC 2478f0 50 0 geode::Index::install(std::__ndk1::shared_ptr<geode::IndexItem>)::$_0::~$_0()
FUNC 247940 20c 0 geode::Index::getTags() const
FUNC 247b4c a4 0 geode::ModInstallEvent::~ModInstallEvent()
FUNC 247bf0 94 0 geode::IndexUpdateEvent::~IndexUpdateEvent()
FUNC 247c84 4 0 std::__ndk1::__variant_detail::__visitation::__base::__dispatcher<(unsigned long)0>::__dispatch[abi:v170000]<std::__ndk1::__variant_detail::__dtor<std::__ndk1::__variant_detail::__traits<std::__ndk1::monostate, std::__ndk1::pair<unsigned char, std::__ndk1::basic_string<char, std::__ndk1::char_traits<char>, std::__ndk1::allocator<char> > >, std::__ndk1::allocator<char> >, (std::__ndk1::__variant_detail::_Trait)1>::__destroy[abi:v170000]()::{lambda(auto:1&)#1}, std::__ndk1::__variant_detail::__base<(std::__ndk1::__variant_detail::__traits<std::__ndk1::monostate, std::__ndk1::pair<unsigned char, std::__ndk1::basic_string<char, std::__ndk1::char_traits<char>, std::__ndk1::allocator<char> > >, std::__ndk1::allocator<char> >)1, std::__ndk1::__variant_detail::__traits, std::__ndk1::basic_string<char, std::__ndk1::char_traits<char>, std::__ndk1::allocator<char> >, std::__ndk1::allocator<char> >&>(std::__ndk1::__variant_detail::__dtor<std::__ndk1::__variant_detail::__traits<std::__ndk1::monostate, std::__ndk1::pair<unsigned char, std::__ndk1::basic_string<char, std::__ndk1::char_traits<char>, std::__ndk1::allocator<char> > >, std::__ndk1::allocator<char> >, (std::__ndk1::__variant_detail::_Trait)1>, std::__ndk1::__variant_detail::__base<(std::__ndk1::__variant_detail::__traits<std::__ndk1::monostate, std::__ndk1::pair<unsigned char, std::__ndk1::basic_string<char, std::__ndk1::char_traits<char>, std::__ndk1::allocator<char> > >, std::__ndk1::allocator<char> >)1, std::__ndk1::__variant_detail::__traits, std::__ndk1::basic_string<char, std::__ndk1::char_traits<char>, std::__ndk1::allocator<char> >, std::__ndk1::allocator<char> >&)
FUNC 247c88 14 0 std::__ndk1::__variant_detail::__visitation::__base::__dispatcher<(unsigned long)1>::__dispatch[abi:v170000]<std::__ndk1::__variant_detail::__dtor<std::__ndk1::__variant_detail::__traits<std::__ndk1::monostate, std::__ndk1::pair<unsigned char, std::__ndk1::basic_string<char, std::__ndk1::char_traits<char>, std::__ndk1::allocator<char> > >, std::__ndk1::allocator<char> >, (std::__ndk1::__variant_detail::_Trait)1>::__destroy[abi:v170000]()::{lambda(auto:1&)#1}, std::__ndk1::__variant_detail::__base<(std::__ndk1::__variant_detail::__traits<std::__ndk1::monostate, std::__ndk1::pair<unsigned char, std::__ndk1::basic_string<char, std::__ndk1::char_traits<char>, std::__ndk1::allocator<char> > >, std::__ndk1::allocator<char> >)1, std::__ndk1::__variant_detail::__traits, std::__ndk1::basic_string<char, std::__ndk1::char_traits<char>, std::__ndk1::allocator<char> >, std::__ndk1::allocator<char> >&>(std::__ndk1::__variant_detail::__dtor<std::__ndk1::__variant_detail::__traits<std::__ndk1::monostate, std::__ndk1::pair<unsigned char, std::__ndk1::basic_string<char, std::__ndk1::char_traits<char>, std::__ndk1::allocator<char> > >, std::__ndk1::allocator<char> >, (std::__ndk1::__variant_detail::_Trait)1>, std::__ndk1::__variant_detail::__base<(std::__ndk1::__variant_detail::__traits<std::__ndk1::monostate, std::__ndk1::pair<unsigned char, std::__ndk1::basic_string<char, std::__ndk1::char_traits<char>, std::__ndk1::allocator<char> > >, std::__ndk1::allocator<char> >)1, std::__ndk1::__variant_detail::__traits, std::__ndk1::basic_string<char, std::__ndk1::char_traits<char>, std::__ndk1::allocator<char> >, std::__ndk1::allocator<char> >&)
FUNC 247c9c 14 0 std::__ndk1::__variant_detail::__visitation::__base::__dispatcher<(unsigned long)2>::__dispatch[abi:v170000]<std::__ndk1::__variant_detail::__dtor<std::__ndk1::__variant_detail::__traits<std::__ndk1::monostate, std::__ndk1::pair<unsigned char, std::__ndk1::basic_string<char, std::__ndk1::char_traits<char>, std::__ndk1::allocator<char> > >, std::__ndk1::allocator<char> >, (std::__ndk1::__variant_detail::_Trait)1>::__destroy[abi:v170000]()::{lambda(auto:1&)#1}, std::__ndk1::__variant_detail::__base<(std::__ndk1::__variant_detail::__traits<std::__ndk1::monostate, std::__ndk1::pair<unsigned char, std::__ndk1::basic_string<char, std::__ndk1::char_traits<char>, std::__ndk1::allocator<char> > >, std::__ndk1::allocator<char> >)1, std::__ndk1::__variant_detail::__traits, std::__ndk1::basic_string<char, std::__ndk1::char_traits<char>, std::__ndk1::allocator<char> >, std::__ndk1::allocator<char> >&>(std::__ndk1::__variant_detail::__dtor<std::__ndk1::__variant_detail::__traits<std::__ndk1::monostate, std::__ndk1::pair<unsigned char, std::__ndk1::basic_string<char, std::__ndk1::char_traits<char>, std::__ndk1::allocator<char> > >, std::__ndk1::allocator<char> >, (std::__ndk1::__variant_detail::_Trait)1>, std::__ndk1::__variant_detail::__base<(std::__ndk1::__variant_detail::__traits<std::__ndk1::monostate, std::__ndk1::pair<unsigned char, std::__ndk1::basic_string<char, std::__ndk1::char_traits<char>, std::__ndk1::allocator<char> > >, std::__ndk1::allocator<char> >)1, std::__ndk1::__variant_detail::__traits, std::__ndk1::basic_string<char, std::__ndk1::char_traits<char>, std::__ndk1::allocator<char> >, std::__ndk1::allocator<char> >&)
FUNC 247cb0 4 0 _ZNSt6__ndk116__variant_detail12__visitation6__base12__dispatcherIJLm0ELm0EEE10__dispatchB7v170000IOZNS0_6__ctorINS0_8__traitsIJNS_9monostateENS_4pairIhNS_12basic_stringIcNS_11char_traitsIcEENS_9allocatorIcEEEEEESF_EEEE19__generic_constructB7v170000IRKNS0_18__copy_constructorISH_LNS0_6_TraitE1EEEEEvRSI_OT_EUlRSQ_OT0_E_JRNS0_6__baseILSL_1EJS8_SG_SF_EEERKSY_EEEDcSQ_DpT0_
FUNC 247cb4 a4 0 _ZNSt6__ndk116__variant_detail12__visitation6__base12__dispatcherIJLm1ELm1EEE10__dispatchB7v170000IOZNS0_6__ctorINS0_8__traitsIJNS_9monostateENS_4pairIhNS_12basic_stringIcNS_11char_traitsIcEENS_9allocatorIcEEEEEESF_EEEE19__generic_constructB7v170000IRKNS0_18__copy_constructorISH_LNS0_6_TraitE1EEEEEvRSI_OT_EUlRSQ_OT0_E_JRNS0_6__baseILSL_1EJS8_SG_SF_EEERKSY_EEEDcSQ_DpT0_
FUNC 247d58 9c 0 _ZNSt6__ndk116__variant_detail12__visitation6__base12__dispatcherIJLm2ELm2EEE10__dispatchB7v170000IOZNS0_6__ctorINS0_8__traitsIJNS_9monostateENS_4pairIhNS_12basic_stringIcNS_11char_traitsIcEENS_9allocatorIcEEEEEESF_EEEE19__generic_constructB7v170000IRKNS0_18__copy_constructorISH_LNS0_6_TraitE1EEEEEvRSI_OT_EUlRSQ_OT0_E_JRNS0_6__baseILSL_1EJS8_SG_SF_EEERKSY_EEEDcSQ_DpT0_
FUNC 247df4 164 0 std::__ndk1::vector<std::__ndk1::shared_ptr<geode::IndexItem>, std::__ndk1::allocator<std::__ndk1::shared_ptr<geode::IndexItem> > >::__push_back_slow_path<std::__ndk1::shared_ptr<geode::IndexItem> const&>(std::__ndk1::shared_ptr<geode::IndexItem> const&)
FUNC 247f58 14 0 std::__ndk1::vector<std::__ndk1::shared_ptr<geode::IndexItem>, std::__ndk1::allocator<std::__ndk1::shared_ptr<geode::IndexItem> > >::__throw_length_error[abi:v170000]() const
FUNC 247f6c 13c 0 std::__ndk1::vector<std::__ndk1::shared_ptr<geode::IndexItem>, std::__ndk1::allocator<std::__ndk1::shared_ptr<geode::IndexItem> > >::__push_back_slow_path<std::__ndk1::shared_ptr<geode::IndexItem> >(std::__ndk1::shared_ptr<geode::IndexItem>&&)
FUNC 2480a8 3f8 0 geode::ComparableVersionInfo::compareWithReason(geode::VersionInfo const&) const
FUNC 2484a0 b4 0 std::__ndk1::__exception_guard<std::__ndk1::vector<std::__ndk1::shared_ptr<geode::IndexItem>, std::__ndk1::allocator<std::__ndk1::shared_ptr<geode::IndexItem> > >::__destroy_vector>::~__exception_guard[abi:v170000]()
FUNC 248554 14 0 std::__ndk1::vector<std::__ndk1::shared_ptr<geode::IndexItem>, std::__ndk1::allocator<std::__ndk1::shared_ptr<geode::IndexItem> > >::__throw_out_of_range[abi:v170000]() const
FUNC 248568 c0 0 geode::IndexItem::Impl::~Impl()
FUNC 248628 4c 0 std::__ndk1::__hash_table<geode::PlatformID, std::__ndk1::hash<geode::PlatformID>, std::__ndk1::equal_to<geode::PlatformID>, std::__ndk1::allocator<geode::PlatformID> >::~__hash_table()
FUNC 248674 15c 0 std::__ndk1::__hash_table<geode::PlatformID, std::__ndk1::hash<geode::PlatformID>, std::__ndk1::equal_to<geode::PlatformID>, std::__ndk1::allocator<geode::PlatformID> >::__do_rehash<true>(unsigned long)
FUNC 2487d0 2b8 0 std::__ndk1::__hash_table<geode::PlatformID, std::__ndk1::hash<geode::PlatformID>, std::__ndk1::equal_to<geode::PlatformID>, std::__ndk1::allocator<geode::PlatformID> >::__emplace_unique_key_args<geode::PlatformID, geode::PlatformID const&>(geode::PlatformID const&, geode::PlatformID const&)
FUNC 248a88 70 0 std::__ndk1::__hash_table<std::__ndk1::basic_string<char, std::__ndk1::char_traits<char>, std::__ndk1::allocator<char> >, std::__ndk1::hash<std::__ndk1::basic_string<char, std::__ndk1::char_traits<char>, std::__ndk1::allocator<char> > >, std::__ndk1::equal_to<std::__ndk1::basic_string<char, std::__ndk1::char_traits<char>, std::__ndk1::allocator<char> > >, std::__ndk1::allocator<std::__ndk1::basic_string<char, std::__ndk1::char_traits<char>, std::__ndk1::allocator<char> > > >::~__hash_table()
FUNC 248af8 15c 0 std::__ndk1::__hash_table<std::__ndk1::basic_string<char, std::__ndk1::char_traits<char>, std::__ndk1::allocator<char> >, std::__ndk1::hash<std::__ndk1::basic_string<char, std::__ndk1::char_traits<char>, std::__ndk1::allocator<char> > >, std::__ndk1::equal_to<std::__ndk1::basic_string<char, std::__ndk1::char_traits<char>, std::__ndk1::allocator<char> > >, std::__ndk1::allocator<std::__ndk1::basic_string<char, std::__ndk1::char_traits<char>, std::__ndk1::allocator<char> > > >::__do_rehash<true>(unsigned long)
FUNC 248c54 3d0 0 std::__ndk1::__hash_table<std::__ndk1::basic_string<char, std::__ndk1::char_traits<char>, std::__ndk1::allocator<char> >, std::__ndk1::hash<std::__ndk1::basic_string<char, std::__ndk1::char_traits<char>, std::__ndk1::allocator<char> > >, std::__ndk1::equal_to<std::__ndk1::basic_string<char, std::__ndk1::char_traits<char>, std::__ndk1::allocator<char> > >, std::__ndk1::allocator<std::__ndk1::basic_string<char, std::__ndk1::char_traits<char>, std::__ndk1::allocator<char> > > >::__emplace_unique_key_args<std::__ndk1::basic_string<char, std::__ndk1::char_traits<char>, std::__ndk1::allocator<char> >, std::__ndk1::basic_string<char, std::__ndk1::char_traits<char>, std::__ndk1::allocator<char> > const&>(std::__ndk1::basic_string<char, std::__ndk1::char_traits<char>, std::__ndk1::allocator<char> > const&, std::__ndk1::basic_string<char, std::__ndk1::char_traits<char>, std::__ndk1::allocator<char> > const&)
FUNC 249024 dc 0 std::__ndk1::__hash_table<std::__ndk1::basic_string<char, std::__ndk1::char_traits<char>, std::__ndk1::allocator<char> >, std::__ndk1::hash<std::__ndk1::basic_string<char, std::__ndk1::char_traits<char>, std::__ndk1::allocator<char> > >, std::__ndk1::equal_to<std::__ndk1::basic_string<char, std::__ndk1::char_traits<char>, std::__ndk1::allocator<char> > >, std::__ndk1::allocator<std::__ndk1::basic_string<char, std::__ndk1::char_traits<char>, std::__ndk1::allocator<char> > > >::__construct_node_hash<std::__ndk1::basic_string<char, std::__ndk1::char_traits<char>, std::__ndk1::allocator<char> > const&, >(unsigned long, std::__ndk1::basic_string<char, std::__ndk1::char_traits<char>, std::__ndk1::allocator<char> > const&, &&)
FUNC 249100 4c 0 std::__ndk1::unique_ptr<std::__ndk1::__hash_node<std::__ndk1::basic_string<char, std::__ndk1::char_traits<char>, std::__ndk1::allocator<char> >, void*>, std::__ndk1::__hash_node_destructor<std::__ndk1::allocator<std::__ndk1::__hash_node<std::__ndk1::basic_string<char, std::__ndk1::char_traits<char>, std::__ndk1::allocator<char> >, void*> > > >::~unique_ptr[abi:v170000]()
FUNC 24914c 4c 0 std::__ndk1::__hash_table<std::__ndk1::basic_string<char, std::__ndk1::char_traits<char>, std::__ndk1::allocator<char> >, std::__ndk1::hash<std::__ndk1::basic_string<char, std::__ndk1::char_traits<char>, std::__ndk1::allocator<char> > >, std::__ndk1::equal_to<std::__ndk1::basic_string<char, std::__ndk1::char_traits<char>, std::__ndk1::allocator<char> > >, std::__ndk1::allocator<std::__ndk1::basic_string<char, std::__ndk1::char_traits<char>, std::__ndk1::allocator<char> > > >::__deallocate_node(std::__ndk1::__hash_node_base<std::__ndk1::__hash_node<std::__ndk1::basic_string<char, std::__ndk1::char_traits<char>, std::__ndk1::allocator<char> >, void*>*>*)
FUNC 249198 11c 0 std::__ndk1::__hash_table<geode::PlatformID, std::__ndk1::hash<geode::PlatformID>, std::__ndk1::equal_to<geode::PlatformID>, std::__ndk1::allocator<geode::PlatformID> >::__assign_multi<std::__ndk1::__hash_const_iterator<std::__ndk1::__hash_node<geode::PlatformID, void*>*> >(std::__ndk1::__hash_const_iterator<std::__ndk1::__hash_node<geode::PlatformID, void*>*>, std::__ndk1::__hash_const_iterator<std::__ndk1::__hash_node<geode::PlatformID, void*>*>)
FUNC 2492b4 124 0 std::__ndk1::__hash_table<geode::PlatformID, std::__ndk1::hash<geode::PlatformID>, std::__ndk1::equal_to<geode::PlatformID>, std::__ndk1::allocator<geode::PlatformID> >::__node_insert_multi(std::__ndk1::__hash_node<geode::PlatformID, void*>*)
FUNC 2493d8 200 0 std::__ndk1::__hash_table<geode::PlatformID, std::__ndk1::hash<geode::PlatformID>, std::__ndk1::equal_to<geode::PlatformID>, std::__ndk1::allocator<geode::PlatformID> >::__node_insert_multi_prepare(unsigned long, geode::PlatformID&)
FUNC 2495d8 178 0 std::__ndk1::__hash_table<geode::PlatformID, std::__ndk1::hash<geode::PlatformID>, std::__ndk1::equal_to<geode::PlatformID>, std::__ndk1::allocator<geode::PlatformID> >::__do_rehash<false>(unsigned long)
FUNC 249750 18c 0 std::__ndk1::__hash_table<std::__ndk1::basic_string<char, std::__ndk1::char_traits<char>, std::__ndk1::allocator<char> >, std::__ndk1::hash<std::__ndk1::basic_string<char, std::__ndk1::char_traits<char>, std::__ndk1::allocator<char> > >, std::__ndk1::equal_to<std::__ndk1::basic_string<char, std::__ndk1::char_traits<char>, std::__ndk1::allocator<char> > >, std::__ndk1::allocator<std::__ndk1::basic_string<char, std::__ndk1::char_traits<char>, std::__ndk1::allocator<char> > > >::__assign_multi<std::__ndk1::__hash_const_iterator<std::__ndk1::__hash_node<std::__ndk1::basic_string<char, std::__ndk1::char_traits<char>, std::__ndk1::allocator<char> >, void*>*> >(std::__ndk1::__hash_const_iterator<std::__ndk1::__hash_node<std::__ndk1::basic_string<char, std::__ndk1::char_traits<char>, std::__ndk1::allocator<char> >, void*>*>, std::__ndk1::__hash_const_iterator<std::__ndk1::__hash_node<std::__ndk1::basic_string<char, std::__ndk1::char_traits<char>, std::__ndk1::allocator<char> >, void*>*>)
FUNC 2498dc 174 0 std::__ndk1::__hash_table<std::__ndk1::basic_string<char, std::__ndk1::char_traits<char>, std::__ndk1::allocator<char> >, std::__ndk1::hash<std::__ndk1::basic_string<char, std::__ndk1::char_traits<char>, std::__ndk1::allocator<char> > >, std::__ndk1::equal_to<std::__ndk1::basic_string<char, std::__ndk1::char_traits<char>, std::__ndk1::allocator<char> > >, std::__ndk1::allocator<std::__ndk1::basic_string<char, std::__ndk1::char_traits<char>, std::__ndk1::allocator<char> > > >::__node_insert_multi(std::__ndk1::__hash_node<std::__ndk1::basic_string<char, std::__ndk1::char_traits<char>, std::__ndk1::allocator<char> >, void*>*)
FUNC 249a50 29c 0 std::__ndk1::__hash_table<std::__ndk1::basic_string<char, std::__ndk1::char_traits<char>, std::__ndk1::allocator<char> >, std::__ndk1::hash<std::__ndk1::basic_string<char, std::__ndk1::char_traits<char>, std::__ndk1::allocator<char> > >, std::__ndk1::equal_to<std::__ndk1::basic_string<char, std::__ndk1::char_traits<char>, std::__ndk1::allocator<char> > >, std::__ndk1::allocator<std::__ndk1::basic_string<char, std::__ndk1::char_traits<char>, std::__ndk1::allocator<char> > > >::__node_insert_multi_prepare(unsigned long, std::__ndk1::basic_string<char, std::__ndk1::char_traits<char>, std::__ndk1::allocator<char> >&)
FUNC 249cec 264 0 std::__ndk1::__hash_table<std::__ndk1::basic_string<char, std::__ndk1::char_traits<char>, std::__ndk1::allocator<char> >, std::__ndk1::hash<std::__ndk1::basic_string<char, std::__ndk1::char_traits<char>, std::__ndk1::allocator<char> > >, std::__ndk1::equal_to<std::__ndk1::basic_string<char, std::__ndk1::char_traits<char>, std::__ndk1::allocator<char> > >, std::__ndk1::allocator<std::__ndk1::basic_string<char, std::__ndk1::char_traits<char>, std::__ndk1::allocator<char> > > >::__do_rehash<false>(unsigned long)
FUNC 249f50 150 0 std::__ndk1::__hash_table<std::__ndk1::basic_string<char, std::__ndk1::char_traits<char>, std::__ndk1::allocator<char> >, std::__ndk1::hash<std::__ndk1::basic_string<char, std::__ndk1::char_traits<char>, std::__ndk1::allocator<char> > >, std::__ndk1::equal_to<std::__ndk1::basic_string<char, std::__ndk1::char_traits<char>, std::__ndk1::allocator<char> > >, std::__ndk1::allocator<std::__ndk1::basic_string<char, std::__ndk1::char_traits<char>, std::__ndk1::allocator<char> > > >::__construct_node<std::__ndk1::basic_string<char, std::__ndk1::char_traits<char>, std::__ndk1::allocator<char> > const&>(std::__ndk1::basic_string<char, std::__ndk1::char_traits<char>, std::__ndk1::allocator<char> > const&)
FUNC 24a0a0 b4 0 fmt::v10::detail::value<fmt::v10::basic_format_context<fmt::v10::appender, char> >::format_custom_arg<ghc::filesystem::path, fmt::v10::formatter<ghc::filesystem::path, char, void> >(void*, fmt::v10::basic_format_parse_context<char>&, fmt::v10::basic_format_context<fmt::v10::appender, char>&)
FUNC 24a154 15c 0 fmt::v10::formatter<ghc::filesystem::path, char, void>::format<fmt::v10::basic_format_context<fmt::v10::appender, char> >(ghc::filesystem::path const&, fmt::v10::basic_format_context<fmt::v10::appender, char>&) const
FUNC 24a2b0 37c 0 geode::JsonMaybeValue::as<(matjson::Type)2>()
FUNC 24a62c e4 0 std::__ndk1::operator+[abi:v170000]<char, std::__ndk1::char_traits<char>, std::__ndk1::allocator<char> >(std::__ndk1::allocator<char> const&, std::__ndk1::basic_string const*)
FUNC 24a710 2b8 0 std::__ndk1::__hash_table<geode::PlatformID, std::__ndk1::hash<geode::PlatformID>, std::__ndk1::equal_to<geode::PlatformID>, std::__ndk1::allocator<geode::PlatformID> >::__emplace_unique_key_args<geode::PlatformID, geode::PlatformID>(geode::PlatformID const&, geode::PlatformID&&)
FUNC 24a9c8 3dc 0 std::__ndk1::__hash_table<std::__ndk1::basic_string<char, std::__ndk1::char_traits<char>, std::__ndk1::allocator<char> >, std::__ndk1::hash<std::__ndk1::basic_string<char, std::__ndk1::char_traits<char>, std::__ndk1::allocator<char> > >, std::__ndk1::equal_to<std::__ndk1::basic_string<char, std::__ndk1::char_traits<char>, std::__ndk1::allocator<char> > >, std::__ndk1::allocator<std::__ndk1::basic_string<char, std::__ndk1::char_traits<char>, std::__ndk1::allocator<char> > > >::__emplace_unique_key_args<std::__ndk1::basic_string<char, std::__ndk1::char_traits<char>, std::__ndk1::allocator<char> >, std::__ndk1::basic_string<char, std::__ndk1::char_traits<char>, std::__ndk1::allocator<char> > >(std::__ndk1::basic_string<char, std::__ndk1::char_traits<char>, std::__ndk1::allocator<char> > const&, std::__ndk1::basic_string<char, std::__ndk1::char_traits<char>, std::__ndk1::allocator<char> >&&)
FUNC 24ada4 14 0 std::__ndk1::__shared_ptr_emplace<geode::IndexItem, std::__ndk1::allocator<geode::IndexItem> >::~__shared_ptr_emplace()
FUNC 24adb8 34 0 std::__ndk1::__shared_ptr_emplace<geode::IndexItem, std::__ndk1::allocator<geode::IndexItem> >::~__shared_ptr_emplace()
FUNC 24adec 8 0 std::__ndk1::__shared_ptr_emplace<geode::IndexItem, std::__ndk1::allocator<geode::IndexItem> >::__on_zero_shared()
FUNC 24adf4 4 0 std::__ndk1::__shared_ptr_emplace<geode::IndexItem, std::__ndk1::allocator<geode::IndexItem> >::__on_zero_shared_weak()
FUNC 24adf8 4f8 0 geode::JsonMaybeValue::intoAs<std::__ndk1::basic_string<char, std::__ndk1::char_traits<char>, std::__ndk1::allocator<char> >, std::__ndk1::basic_string<char, std::__ndk1::char_traits<char>, std::__ndk1::allocator<char> > >(std::__ndk1::basic_string<char, std::__ndk1::char_traits<char>, std::__ndk1::allocator<char> >&)
FUNC 24b2f0 50 0 std::__ndk1::operator+[abi:v170000]<char, std::__ndk1::char_traits<char>, std::__ndk1::allocator<char> >(std::__ndk1::allocator<char>&&, std::__ndk1::basic_string<char, std::__ndk1::char_traits<char>, std::__ndk1::allocator<char> >)
FUNC 24b340 4e0 0 geode::JsonMaybeValue::intoAs<bool, bool>(bool&)
FUNC 24b820 148 0 geode::Index::Impl::Impl()
FUNC 24b968 7c 0 std::__ndk1::unordered_map<std::__ndk1::basic_string<char, std::__ndk1::char_traits<char>, std::__ndk1::allocator<char> >, std::__ndk1::map<geode::VersionInfo, std::__ndk1::shared_ptr<geode::IndexItem>, std::__ndk1::less<geode::VersionInfo>, std::__ndk1::allocator<std::__ndk1::pair<geode::VersionInfo const, std::__ndk1::shared_ptr<geode::IndexItem> > > >, std::__ndk1::hash<std::__ndk1::basic_string<char, std::__ndk1::char_traits<char>, std::__ndk1::allocator<char> > >, std::__ndk1::equal_to<std::__ndk1::basic_string<char, std::__ndk1::char_traits<char>, std::__ndk1::allocator<char> > >, std::__ndk1::allocator<std::__ndk1::pair<std::__ndk1::basic_string<char, std::__ndk1::char_traits<char>, std::__ndk1::allocator<char> > const, std::__ndk1::map<geode::VersionInfo, std::__ndk1::shared_ptr<geode::IndexItem>, std::__ndk1::less<geode::VersionInfo>, std::__ndk1::allocator<std::__ndk1::pair<geode::VersionInfo const, std::__ndk1::shared_ptr<geode::IndexItem> > > > > > >::~unordered_map[abi:v170000]()
FUNC 24b9e4 4 0 geode::utils::MiniFunctionState<geode::Index::Impl::Impl()::{lambda(geode::IndexUpdateEvent*)#1}, void, geode::IndexUpdateEvent*>::~MiniFunctionState()
FUNC 24b9e8 1c 0 geode::utils::MiniFunctionState<geode::Index::Impl::Impl()::{lambda(geode::IndexUpdateEvent*)#1}, void, geode::IndexUpdateEvent*>::call(geode::IndexUpdateEvent*) const
FUNC 24ba04 38 0 geode::utils::MiniFunctionState<geode::Index::Impl::Impl()::{lambda(geode::IndexUpdateEvent*)#1}, void, geode::IndexUpdateEvent*>::clone() const
FUNC 24ba3c cc 0 std::__ndk1::__hash_table<std::__ndk1::__hash_value_type<std::__ndk1::shared_ptr<geode::IndexItem>, std::__ndk1::shared_ptr<geode::utils::web::SentAsyncWebRequest> >, std::__ndk1::__unordered_map_hasher<std::__ndk1::shared_ptr<geode::IndexItem>, std::__ndk1::__hash_value_type<std::__ndk1::shared_ptr<geode::IndexItem>, std::__ndk1::shared_ptr<geode::utils::web::SentAsyncWebRequest> >, std::__ndk1::hash<std::__ndk1::shared_ptr<geode::IndexItem> >, std::__ndk1::equal_to<std::__ndk1::shared_ptr<geode::IndexItem> >, true>, std::__ndk1::__unordered_map_equal<std::__ndk1::shared_ptr<geode::IndexItem>, std::__ndk1::__hash_value_type<std::__ndk1::shared_ptr<geode::IndexItem>, std::__ndk1::shared_ptr<geode::utils::web::SentAsyncWebRequest> >, std::__ndk1::equal_to<std::__ndk1::shared_ptr<geode::IndexItem> >, std::__ndk1::hash<std::__ndk1::shared_ptr<geode::IndexItem> >, true>, std::__ndk1::allocator<std::__ndk1::__hash_value_type<std::__ndk1::shared_ptr<geode::IndexItem>, std::__ndk1::shared_ptr<geode::utils::web::SentAsyncWebRequest> > > >::~__hash_table()
FUNC 24bb08 8c 0 std::__ndk1::default_delete<geode::Index::Impl>::operator()[abi:v170000](geode::Index::Impl*) const
FUNC 24bb94 134 0 std::__ndk1::__hash_table<std::__ndk1::__hash_value_type<std::__ndk1::basic_string<char, std::__ndk1::char_traits<char>, std::__ndk1::allocator<char> >, std::__ndk1::map<geode::VersionInfo, std::__ndk1::shared_ptr<geode::IndexItem>, std::__ndk1::less<geode::VersionInfo>, std::__ndk1::allocator<std::__ndk1::pair<geode::VersionInfo const, std::__ndk1::shared_ptr<geode::IndexItem> > > > >, std::__ndk1::__unordered_map_hasher<std::__ndk1::basic_string<char, std::__ndk1::char_traits<char>, std::__ndk1::allocator<char> >, std::__ndk1::__hash_value_type<std::__ndk1::basic_string<char, std::__ndk1::char_traits<char>, std::__ndk1::allocator<char> >, std::__ndk1::map<geode::VersionInfo, std::__ndk1::shared_ptr<geode::IndexItem>, std::__ndk1::less<geode::VersionInfo>, std::__ndk1::allocator<std::__ndk1::pair<geode::VersionInfo const, std::__ndk1::shared_ptr<geode::IndexItem> > > > >, std::__ndk1::hash<std::__ndk1::basic_string<char, std::__ndk1::char_traits<char>, std::__ndk1::allocator<char> > >, std::__ndk1::equal_to<std::__ndk1::basic_string<char, std::__ndk1::char_traits<char>, std::__ndk1::allocator<char> > >, true>, std::__ndk1::__unordered_map_equal<std::__ndk1::basic_string<char, std::__ndk1::char_traits<char>, std::__ndk1::allocator<char> >, std::__ndk1::__hash_value_type<std::__ndk1::basic_string<char, std::__ndk1::char_traits<char>, std::__ndk1::allocator<char> >, std::__ndk1::map<geode::VersionInfo, std::__ndk1::shared_ptr<geode::IndexItem>, std::__ndk1::less<geode::VersionInfo>, std::__ndk1::allocator<std::__ndk1::pair<geode::VersionInfo const, std::__ndk1::shared_ptr<geode::IndexItem> > > > >, std::__ndk1::equal_to<std::__ndk1::basic_string<char, std::__ndk1::char_traits<char>, std::__ndk1::allocator<char> > >, std::__ndk1::hash<std::__ndk1::basic_string<char, std::__ndk1::char_traits<char>, std::__ndk1::allocator<char> > >, true>, std::__ndk1::allocator<std::__ndk1::__hash_value_type<std::__ndk1::basic_string<char, std::__ndk1::char_traits<char>, std::__ndk1::allocator<char> >, std::__ndk1::map<geode::VersionInfo, std::__ndk1::shared_ptr<geode::IndexItem>, std::__ndk1::less<geode::VersionInfo>, std::__ndk1::allocator<std::__ndk1::pair<geode::VersionInfo const, std::__ndk1::shared_ptr<geode::IndexItem> > > > > > >::remove(std::__ndk1::__hash_const_iterator<std::__ndk1::__hash_node<std::__ndk1::__hash_value_type<std::__ndk1::basic_string<char, std::__ndk1::char_traits<char>, std::__ndk1::allocator<char> >, std::__ndk1::map<geode::VersionInfo, std::__ndk1::shared_ptr<geode::IndexItem>, std::__ndk1::less<geode::VersionInfo>, std::__ndk1::allocator<std::__ndk1::pair<geode::VersionInfo const, std::__ndk1::shared_ptr<geode::IndexItem> > > > >, void*>*>)
FUNC 24bcc8 58 0 std::__ndk1::unique_ptr<std::__ndk1::__hash_node<std::__ndk1::__hash_value_type<std::__ndk1::basic_string<char, std::__ndk1::char_traits<char>, std::__ndk1::allocator<char> >, std::__ndk1::map<geode::VersionInfo, std::__ndk1::shared_ptr<geode::IndexItem>, std::__ndk1::less<geode::VersionInfo>, std::__ndk1::allocator<std::__ndk1::pair<geode::VersionInfo const, std::__ndk1::shared_ptr<geode::IndexItem> > > > >, void*>, std::__ndk1::__hash_node_destructor<std::__ndk1::allocator<std::__ndk1::__hash_node<std::__ndk1::__hash_value_type<std::__ndk1::basic_string<char, std::__ndk1::char_traits<char>, std::__ndk1::allocator<char> >, std::__ndk1::map<geode::VersionInfo, std::__ndk1::shared_ptr<geode::IndexItem>, std::__ndk1::less<geode::VersionInfo>, std::__ndk1::allocator<std::__ndk1::pair<geode::VersionInfo const, std::__ndk1::shared_ptr<geode::IndexItem> > > > >, void*> > > >::~unique_ptr[abi:v170000]()
FUNC 24bd20 18 0 geode::utils::MiniFunctionState<geode::utils::web::AsyncWebResult<std::__ndk1::monostate>::then(geode::utils::MiniFunction<void (std::__ndk1::monostate)>)::{lambda(geode::utils::web::SentAsyncWebRequest&, std::__ndk1::vector<unsigned char, std::__ndk1::allocator<unsigned char> > const&)#1}, void, geode::utils::web::SentAsyncWebRequest&, std::__ndk1::vector<unsigned char, std::__ndk1::allocator<unsigned char> > const&>::~MiniFunctionState()
FUNC 24bd38 34 0 geode::utils::MiniFunctionState<geode::utils::web::AsyncWebResult<std::__ndk1::monostate>::then(geode::utils::MiniFunction<void (std::__ndk1::monostate)>)::{lambda(geode::utils::web::SentAsyncWebRequest&, std::__ndk1::vector<unsigned char, std::__ndk1::allocator<unsigned char> > const&)#1}, void, geode::utils::web::SentAsyncWebRequest&, std::__ndk1::vector<unsigned char, std::__ndk1::allocator<unsigned char> > const&>::~MiniFunctionState()
FUNC 24bd6c 8 0 geode::utils::MiniFunctionState<geode::utils::web::AsyncWebResult<std::__ndk1::monostate>::then(geode::utils::MiniFunction<void (std::__ndk1::monostate)>)::{lambda(geode::utils::web::SentAsyncWebRequest&, std::__ndk1::vector<unsigned char, std::__ndk1::allocator<unsigned char> > const&)#1}, void, geode::utils::web::SentAsyncWebRequest&, std::__ndk1::vector<unsigned char, std::__ndk1::allocator<unsigned char> > const&>::call(geode::utils::web::SentAsyncWebRequest&, std::__ndk1::vector<unsigned char, std::__ndk1::allocator<unsigned char> > const&) const
FUNC 24bd74 74 0 geode::utils::MiniFunctionState<geode::utils::web::AsyncWebResult<std::__ndk1::monostate>::then(geode::utils::MiniFunction<void (std::__ndk1::monostate)>)::{lambda(geode::utils::web::SentAsyncWebRequest&, std::__ndk1::vector<unsigned char, std::__ndk1::allocator<unsigned char> > const&)#1}, void, geode::utils::web::SentAsyncWebRequest&, std::__ndk1::vector<unsigned char, std::__ndk1::allocator<unsigned char> > const&>::clone() const
FUNC 24bde8 218 0 geode::utils::web::AsyncWebResult<std::__ndk1::monostate>::then(geode::utils::MiniFunction<void (std::__ndk1::monostate)>)::{lambda(geode::utils::web::SentAsyncWebRequest&, std::__ndk1::vector<unsigned char, std::__ndk1::allocator<unsigned char> > const&)#1}::operator()(geode::utils::web::SentAsyncWebRequest&, std::__ndk1::vector<unsigned char, std::__ndk1::allocator<unsigned char> > const&) const
FUNC 24c000 30 0 geode::utils::MiniFunctionState<geode::Index::Impl::downloadIndex(std::__ndk1::basic_string<char, std::__ndk1::char_traits<char>, std::__ndk1::allocator<char> >)::$_0, void, std::__ndk1::monostate>::~MiniFunctionState()
FUNC 24c030 38 0 geode::utils::MiniFunctionState<geode::Index::Impl::downloadIndex(std::__ndk1::basic_string<char, std::__ndk1::char_traits<char>, std::__ndk1::allocator<char> >)::$_0, void, std::__ndk1::monostate>::~MiniFunctionState()
FUNC 24c068 258 0 geode::utils::MiniFunctionState<geode::Index::Impl::downloadIndex(std::__ndk1::basic_string<char, std::__ndk1::char_traits<char>, std::__ndk1::allocator<char> >)::$_0, void, std::__ndk1::monostate>::call(std::__ndk1::monostate) const
FUNC 24c2c0 f4 0 geode::utils::MiniFunctionState<geode::Index::Impl::downloadIndex(std::__ndk1::basic_string<char, std::__ndk1::char_traits<char>, std::__ndk1::allocator<char> >)::$_0, void, std::__ndk1::monostate>::clone() const
FUNC 24c3b4 eb8 0 std::__ndk1::__thread_proxy[abi:v170000]<std::__ndk1::tuple<std::__ndk1::unique_ptr<std::__ndk1::__thread_struct, std::__ndk1::default_delete<std::__ndk1::unique_ptr> >, geode::Index::Impl::downloadIndex(std::__ndk1::basic_string<char, std::__ndk1::char_traits<char>, std::__ndk1::allocator<char> >)::$_0::operator()<std::__ndk1::monostate>(std::__ndk1::monostate) const::{lambda()#1}> >(std::__ndk1::tuple<std::__ndk1::unique_ptr<std::__ndk1::__thread_struct, std::__ndk1::default_delete<std::__ndk1::unique_ptr> >, geode::Index::Impl::downloadIndex(std::__ndk1::basic_string<char, std::__ndk1::char_traits<char>, std::__ndk1::allocator<char> >)::$_0::operator()<std::__ndk1::monostate>(std::__ndk1::monostate) const::{lambda()#1}>)
FUNC 24d26c 68 0 std::__ndk1::unique_ptr<std::__ndk1::tuple<std::__ndk1::unique_ptr<std::__ndk1::__thread_struct, std::__ndk1::default_delete<std::__ndk1::__thread_struct> >, geode::Index::Impl::downloadIndex(std::__ndk1::basic_string<char, std::__ndk1::char_traits<char>, std::__ndk1::allocator<char> >)::$_0::operator()<std::__ndk1::monostate>(std::__ndk1::monostate) const::{lambda()#1}>, std::__ndk1::default_delete<std::__ndk1::tuple<std::__ndk1::unique_ptr<std::__ndk1::__thread_struct, std::__ndk1::default_delete<std::__ndk1::__thread_struct> >, geode::Index::Impl::downloadIndex(std::__ndk1::basic_string<char, std::__ndk1::char_traits<char>, std::__ndk1::allocator<char> >)::$_0::operator()<std::__ndk1::monostate>(std::__ndk1::monostate) const::{lambda()#1}> > >::~unique_ptr[abi:v170000]()
FUNC 24d2d4 3c 0 std::__ndk1::unique_ptr<std::__ndk1::__thread_struct, std::__ndk1::default_delete<std::__ndk1::__thread_struct> >::~unique_ptr[abi:v170000]()
FUNC 24d310 1ec 0 geode::Result<std::__ndk1::monostate, std::__ndk1::basic_string<char, std::__ndk1::char_traits<char>, std::__ndk1::allocator<char> > >::expect<>(std::__ndk1::basic_string<char, std::__ndk1::char_traits<char>, std::__ndk1::allocator<char> > const&, &&)
FUNC 24d4fc 4 0 geode::utils::MiniFunctionStateBase<void, unsigned int, unsigned int>::~MiniFunctionStateBase()
FUNC 24d500 4 0 geode::utils::MiniFunctionState<geode::Index::Impl::downloadIndex(std::__ndk1::basic_string<char, std::__ndk1::char_traits<char>, std::__ndk1::allocator<char> >)::$_0::operator()<std::__ndk1::monostate>(std::__ndk1::monostate) const::{lambda()#1}::operator()() const::{lambda(unsigned int, unsigned int)#1}, void, unsigned int, unsigned int>::~MiniFunctionState()
FUNC 24d504 10c 0 geode::utils::MiniFunctionState<geode::Index::Impl::downloadIndex(std::__ndk1::basic_string<char, std::__ndk1::char_traits<char>, std::__ndk1::allocator<char> >)::$_0::operator()<std::__ndk1::monostate>(std::__ndk1::monostate) const::{lambda()#1}::operator()() const::{lambda(unsigned int, unsigned int)#1}, void, unsigned int, unsigned int>::call(unsigned int, unsigned int) const
FUNC 24d610 34 0 geode::utils::MiniFunctionState<geode::Index::Impl::downloadIndex(std::__ndk1::basic_string<char, std::__ndk1::char_traits<char>, std::__ndk1::allocator<char> >)::$_0::operator()<std::__ndk1::monostate>(std::__ndk1::monostate) const::{lambda()#1}::operator()() const::{lambda(unsigned int, unsigned int)#1}, void, unsigned int, unsigned int>::clone() const
FUNC 24d644 4 0 geode::utils::MiniFunctionState<geode::Index::Impl::downloadIndex(std::__ndk1::basic_string<char, std::__ndk1::char_traits<char>, std::__ndk1::allocator<char> >)::$_0::operator()<std::__ndk1::monostate>(std::__ndk1::monostate) const::{lambda()#1}::operator()() const::{lambda(unsigned int, unsigned int)#1}::operator()(unsigned int, unsigned int) const::{lambda()#1}, void, >::~MiniFunctionState()
FUNC 24d648 1e0 0 geode::utils::MiniFunctionState<geode::Index::Impl::downloadIndex(std::__ndk1::basic_string<char, std::__ndk1::char_traits<char>, std::__ndk1::allocator<char> >)::$_0::operator()<std::__ndk1::monostate>(std::__ndk1::monostate) const::{lambda()#1}::operator()() const::{lambda(unsigned int, unsigned int)#1}::operator()(unsigned int, unsigned int) const::{lambda()#1}, void, >::call() const
FUNC 24d828 38 0 geode::utils::MiniFunctionState<geode::Index::Impl::downloadIndex(std::__ndk1::basic_string<char, std::__ndk1::char_traits<char>, std::__ndk1::allocator<char> >)::$_0::operator()<std::__ndk1::monostate>(std::__ndk1::monostate) const::{lambda()#1}::operator()() const::{lambda(unsigned int, unsigned int)#1}::operator()(unsigned int, unsigned int) const::{lambda()#1}, void, >::clone() const
FUNC 24d860 14 0 geode::utils::MiniFunctionState<geode::Index::Impl::downloadIndex(std::__ndk1::basic_string<char, std::__ndk1::char_traits<char>, std::__ndk1::allocator<char> >)::$_0::operator()<std::__ndk1::monostate>(std::__ndk1::monostate) const::{lambda()#1}::operator()() const::{lambda()#1}, void, >::~MiniFunctionState()
FUNC 24d874 30 0 geode::utils::MiniFunctionState<geode::Index::Impl::downloadIndex(std::__ndk1::basic_string<char, std::__ndk1::char_traits<char>, std::__ndk1::allocator<char> >)::$_0::operator()<std::__ndk1::monostate>(std::__ndk1::monostate) const::{lambda()#1}::operator()() const::{lambda()#1}, void, >::~MiniFunctionState()
FUNC 24d8a4 240 0 geode::utils::MiniFunctionState<geode::Index::Impl::downloadIndex(std::__ndk1::basic_string<char, std::__ndk1::char_traits<char>, std::__ndk1::allocator<char> >)::$_0::operator()<std::__ndk1::monostate>(std::__ndk1::monostate) const::{lambda()#1}::operator()() const::{lambda()#1}, void, >::call() const
FUNC 24dae4 c4 0 geode::utils::MiniFunctionState<geode::Index::Impl::downloadIndex(std::__ndk1::basic_string<char, std::__ndk1::char_traits<char>, std::__ndk1::allocator<char> >)::$_0::operator()<std::__ndk1::monostate>(std::__ndk1::monostate) const::{lambda()#1}::operator()() const::{lambda()#1}, void, >::clone() const
FUNC 24dba8 104 0 geode::Result<std::__ndk1::vector<ghc::filesystem::path, std::__ndk1::allocator<ghc::filesystem::path> >, std::__ndk1::basic_string<char, std::__ndk1::char_traits<char>, std::__ndk1::allocator<char> > >::unwrap() &
FUNC 24dcac 4 0 geode::utils::MiniFunctionStateBase<void, std::__ndk1::basic_string<char, std::__ndk1::char_traits<char>, std::__ndk1::allocator<char> > const&>::~MiniFunctionStateBase()
FUNC 24dcb0 4 0 geode::utils::MiniFunctionState<geode::Index::Impl::downloadIndex(std::__ndk1::basic_string<char, std::__ndk1::char_traits<char>, std::__ndk1::allocator<char> >)::$_1, void, std::__ndk1::basic_string<char, std::__ndk1::char_traits<char>, std::__ndk1::allocator<char> > const&>::~MiniFunctionState()
FUNC 24dcb4 230 0 geode::utils::MiniFunctionState<geode::Index::Impl::downloadIndex(std::__ndk1::basic_string<char, std::__ndk1::char_traits<char>, std::__ndk1::allocator<char> >)::$_1, void, std::__ndk1::basic_string<char, std::__ndk1::char_traits<char>, std::__ndk1::allocator<char> > const&>::call(std::__ndk1::basic_string<char, std::__ndk1::char_traits<char>, std::__ndk1::allocator<char> > const&) const
FUNC 24dee4 24 0 geode::utils::MiniFunctionState<geode::Index::Impl::downloadIndex(std::__ndk1::basic_string<char, std::__ndk1::char_traits<char>, std::__ndk1::allocator<char> >)::$_1, void, std::__ndk1::basic_string<char, std::__ndk1::char_traits<char>, std::__ndk1::allocator<char> > const&>::clone() const
FUNC 24df08 4 0 geode::utils::MiniFunctionState<geode::Index::Impl::downloadIndex(std::__ndk1::basic_string<char, std::__ndk1::char_traits<char>, std::__ndk1::allocator<char> >)::$_2, void, geode::utils::web::SentAsyncWebRequest&, double, double>::~MiniFunctionState()
FUNC 24df0c 1fc 0 geode::utils::MiniFunctionState<geode::Index::Impl::downloadIndex(std::__ndk1::basic_string<char, std::__ndk1::char_traits<char>, std::__ndk1::allocator<char> >)::$_2, void, geode::utils::web::SentAsyncWebRequest&, double, double>::call(geode::utils::web::SentAsyncWebRequest&, double, double) const
FUNC 24e108 24 0 geode::utils::MiniFunctionState<geode::Index::Impl::downloadIndex(std::__ndk1::basic_string<char, std::__ndk1::char_traits<char>, std::__ndk1::allocator<char> >)::$_2, void, geode::utils::web::SentAsyncWebRequest&, double, double>::clone() const
FUNC 24e12c 4 0 geode::utils::MiniFunctionStateBase<void, geode::utils::web::SentAsyncWebRequest&, double, double>::~MiniFunctionStateBase()
FUNC 24e130 114 0 std::__ndk1::__thread_proxy[abi:v170000]<std::__ndk1::tuple<std::__ndk1::unique_ptr<std::__ndk1::__thread_struct, std::__ndk1::default_delete<std::__ndk1::unique_ptr> >, geode::Index::Impl::checkForUpdates()::$_2> >(std::__ndk1::tuple<std::__ndk1::unique_ptr<std::__ndk1::__thread_struct, std::__ndk1::default_delete<std::__ndk1::unique_ptr> >, geode::Index::Impl::checkForUpdates()::$_2>)
FUNC 24e244 50 0 std::__ndk1::unique_ptr<std::__ndk1::tuple<std::__ndk1::unique_ptr<std::__ndk1::__thread_struct, std::__ndk1::default_delete<std::__ndk1::__thread_struct> >, geode::Index::Impl::checkForUpdates()::$_2>, std::__ndk1::default_delete<std::__ndk1::tuple<std::__ndk1::unique_ptr<std::__ndk1::__thread_struct, std::__ndk1::default_delete<std::__ndk1::__thread_struct> >, geode::Index::Impl::checkForUpdates()::$_2> > >::~unique_ptr[abi:v170000]()
FUNC 24e294 18 0 geode::utils::MiniFunctionState<geode::utils::web::AsyncWebResult<std::__ndk1::basic_string<char, std::__ndk1::char_traits<char>, std::__ndk1::allocator<char> > >::then(geode::utils::MiniFunction<void (std::__ndk1::basic_string<char, std::__ndk1::char_traits<char>, std::__ndk1::allocator<char> >)>)::{lambda(geode::utils::web::SentAsyncWebRequest&, std::__ndk1::vector<unsigned char, std::__ndk1::allocator<unsigned char> > const&)#1}, void, geode::utils::web::SentAsyncWebRequest&, std::__ndk1::vector<unsigned char, std::__ndk1::allocator<unsigned char> > const&>::~MiniFunctionState()
FUNC 24e2ac 34 0 geode::utils::MiniFunctionState<geode::utils::web::AsyncWebResult<std::__ndk1::basic_string<char, std::__ndk1::char_traits<char>, std::__ndk1::allocator<char> > >::then(geode::utils::MiniFunction<void (std::__ndk1::basic_string<char, std::__ndk1::char_traits<char>, std::__ndk1::allocator<char> >)>)::{lambda(geode::utils::web::SentAsyncWebRequest&, std::__ndk1::vector<unsigned char, std::__ndk1::allocator<unsigned char> > const&)#1}, void, geode::utils::web::SentAsyncWebRequest&, std::__ndk1::vector<unsigned char, std::__ndk1::allocator<unsigned char> > const&>::~MiniFunctionState()
FUNC 24e2e0 8 0 geode::utils::MiniFunctionState<geode::utils::web::AsyncWebResult<std::__ndk1::basic_string<char, std::__ndk1::char_traits<char>, std::__ndk1::allocator<char> > >::then(geode::utils::MiniFunction<void (std::__ndk1::basic_string<char, std::__ndk1::char_traits<char>, std::__ndk1::allocator<char> >)>)::{lambda(geode::utils::web::SentAsyncWebRequest&, std::__ndk1::vector<unsigned char, std::__ndk1::allocator<unsigned char> > const&)#1}, void, geode::utils::web::SentAsyncWebRequest&, std::__ndk1::vector<unsigned char, std::__ndk1::allocator<unsigned char> > const&>::call(geode::utils::web::SentAsyncWebRequest&, std::__ndk1::vector<unsigned char, std::__ndk1::allocator<unsigned char> > const&) const
FUNC 24e2e8 74 0 geode::utils::MiniFunctionState<geode::utils::web::AsyncWebResult<std::__ndk1::basic_string<char, std::__ndk1::char_traits<char>, std::__ndk1::allocator<char> > >::then(geode::utils::MiniFunction<void (std::__ndk1::basic_string<char, std::__ndk1::char_traits<char>, std::__ndk1::allocator<char> >)>)::{lambda(geode::utils::web::SentAsyncWebRequest&, std::__ndk1::vector<unsigned char, std::__ndk1::allocator<unsigned char> > const&)#1}, void, geode::utils::web::SentAsyncWebRequest&, std::__ndk1::vector<unsigned char, std::__ndk1::allocator<unsigned char> > const&>::clone() const
FUNC 24e35c 284 0 geode::utils::web::AsyncWebResult<std::__ndk1::basic_string<char, std::__ndk1::char_traits<char>, std::__ndk1::allocator<char> > >::then(geode::utils::MiniFunction<void (std::__ndk1::basic_string<char, std::__ndk1::char_traits<char>, std::__ndk1::allocator<char> >)>)::{lambda(geode::utils::web::SentAsyncWebRequest&, std::__ndk1::vector<unsigned char, std::__ndk1::allocator<unsigned char> > const&)#1}::operator()(geode::utils::web::SentAsyncWebRequest&, std::__ndk1::vector<unsigned char, std::__ndk1::allocator<unsigned char> > const&) const
FUNC 24e5e0 128 0 geode::utils::MiniFunction<void (std::__ndk1::basic_string<char, std::__ndk1::char_traits<char>, std::__ndk1::allocator<char> >)>::operator()(std::__ndk1::basic_string<char, std::__ndk1::char_traits<char>, std::__ndk1::allocator<char> >) const
FUNC 24e708 104 0 geode::Result<std::__ndk1::basic_string<char, std::__ndk1::char_traits<char>, std::__ndk1::allocator<char> >, std::__ndk1::basic_string<char, std::__ndk1::char_traits<char>, std::__ndk1::allocator<char> > >::unwrap() &
FUNC 24e80c 30 0 geode::utils::MiniFunctionState<geode::Index::Impl::checkForUpdates()::$_0, void, std::__ndk1::basic_string<char, std::__ndk1::char_traits<char>, std::__ndk1::allocator<char> > >::~MiniFunctionState()
FUNC 24e83c 38 0 geode::utils::MiniFunctionState<geode::Index::Impl::checkForUpdates()::$_0, void, std::__ndk1::basic_string<char, std::__ndk1::char_traits<char>, std::__ndk1::allocator<char> > >::~MiniFunctionState()
FUNC 24e874 380 0 geode::utils::MiniFunctionState<geode::Index::Impl::checkForUpdates()::$_0, void, std::__ndk1::basic_string<char, std::__ndk1::char_traits<char>, std::__ndk1::allocator<char> > >::call(std::__ndk1::basic_string<char, std::__ndk1::char_traits<char>, std::__ndk1::allocator<char> >) const
FUNC 24ebf4 f4 0 geode::utils::MiniFunctionState<geode::Index::Impl::checkForUpdates()::$_0, void, std::__ndk1::basic_string<char, std::__ndk1::char_traits<char>, std::__ndk1::allocator<char> > >::clone() const
FUNC 24ece8 114 0 std::__ndk1::__thread_proxy[abi:v170000]<std::__ndk1::tuple<std::__ndk1::unique_ptr<std::__ndk1::__thread_struct, std::__ndk1::default_delete<std::__ndk1::unique_ptr> >, geode::Index::Impl::checkForUpdates()::$_0::operator()(std::__ndk1::basic_string<char, std::__ndk1::char_traits<char>, std::__ndk1::allocator<char> > const&) const::{lambda()#1}> >(std::__ndk1::tuple<std::__ndk1::unique_ptr<std::__ndk1::__thread_struct, std::__ndk1::default_delete<std::__ndk1::unique_ptr> >, geode::Index::Impl::checkForUpdates()::$_0::operator()(std::__ndk1::basic_string<char, std::__ndk1::char_traits<char>, std::__ndk1::allocator<char> > const&) const::{lambda()#1}>)
FUNC 24edfc 50 0 std::__ndk1::unique_ptr<std::__ndk1::tuple<std::__ndk1::unique_ptr<std::__ndk1::__thread_struct, std::__ndk1::default_delete<std::__ndk1::__thread_struct> >, geode::Index::Impl::checkForUpdates()::$_0::operator()(std::__ndk1::basic_string<char, std::__ndk1::char_traits<char>, std::__ndk1::allocator<char> > const&) const::{lambda()#1}>, std::__ndk1::default_delete<std::__ndk1::tuple<std::__ndk1::unique_ptr<std::__ndk1::__thread_struct, std::__ndk1::default_delete<std::__ndk1::__thread_struct> >, geode::Index::Impl::checkForUpdates()::$_0::operator()(std::__ndk1::basic_string<char, std::__ndk1::char_traits<char>, std::__ndk1::allocator<char> > const&) const::{lambda()#1}> > >::~unique_ptr[abi:v170000]()
FUNC 24ee4c 4 0 geode::utils::MiniFunctionState<geode::Index::Impl::checkForUpdates()::$_1, void, std::__ndk1::basic_string<char, std::__ndk1::char_traits<char>, std::__ndk1::allocator<char> > const&>::~MiniFunctionState()
FUNC 24ee50 230 0 geode::utils::MiniFunctionState<geode::Index::Impl::checkForUpdates()::$_1, void, std::__ndk1::basic_string<char, std::__ndk1::char_traits<char>, std::__ndk1::allocator<char> > const&>::call(std::__ndk1::basic_string<char, std::__ndk1::char_traits<char>, std::__ndk1::allocator<char> > const&) const
FUNC 24f080 24 0 geode::utils::MiniFunctionState<geode::Index::Impl::checkForUpdates()::$_1, void, std::__ndk1::basic_string<char, std::__ndk1::char_traits<char>, std::__ndk1::allocator<char> > const&>::clone() const
FUNC 24f0a4 4 0 geode::utils::MiniFunctionState<geode::Index::Impl::updateFromLocalTree()::$_0, void, >::~MiniFunctionState()
FUNC 24f0a8 1e4 0 geode::utils::MiniFunctionState<geode::Index::Impl::updateFromLocalTree()::$_0, void, >::call() const
FUNC 24f28c 24 0 geode::utils::MiniFunctionState<geode::Index::Impl::updateFromLocalTree()::$_0, void, >::clone() const
FUNC 24f2b0 3f0 0 std::__ndk1::__hash_table<std::__ndk1::__hash_value_type<std::__ndk1::basic_string<char, std::__ndk1::char_traits<char>, std::__ndk1::allocator<char> >, std::__ndk1::map<geode::VersionInfo, std::__ndk1::shared_ptr<geode::IndexItem>, std::__ndk1::less<geode::VersionInfo>, std::__ndk1::allocator<std::__ndk1::pair<geode::VersionInfo const, std::__ndk1::shared_ptr<geode::IndexItem> > > > >, std::__ndk1::__unordered_map_hasher<std::__ndk1::basic_string<char, std::__ndk1::char_traits<char>, std::__ndk1::allocator<char> >, std::__ndk1::__hash_value_type<std::__ndk1::basic_string<char, std::__ndk1::char_traits<char>, std::__ndk1::allocator<char> >, std::__ndk1::map<geode::VersionInfo, std::__ndk1::shared_ptr<geode::IndexItem>, std::__ndk1::less<geode::VersionInfo>, std::__ndk1::allocator<std::__ndk1::pair<geode::VersionInfo const, std::__ndk1::shared_ptr<geode::IndexItem> > > > >, std::__ndk1::hash<std::__ndk1::basic_string<char, std::__ndk1::char_traits<char>, std::__ndk1::allocator<char> > >, std::__ndk1::equal_to<std::__ndk1::basic_string<char, std::__ndk1::char_traits<char>, std::__ndk1::allocator<char> > >, true>, std::__ndk1::__unordered_map_equal<std::__ndk1::basic_string<char, std::__ndk1::char_traits<char>, std::__ndk1::allocator<char> >, std::__ndk1::__hash_value_type<std::__ndk1::basic_string<char, std::__ndk1::char_traits<char>, std::__ndk1::allocator<char> >, std::__ndk1::map<geode::VersionInfo, std::__ndk1::shared_ptr<geode::IndexItem>, std::__ndk1::less<geode::VersionInfo>, std::__ndk1::allocator<std::__ndk1::pair<geode::VersionInfo const, std::__ndk1::shared_ptr<geode::IndexItem> > > > >, std::__ndk1::equal_to<std::__ndk1::basic_string<char, std::__ndk1::char_traits<char>, std::__ndk1::allocator<char> > >, std::__ndk1::hash<std::__ndk1::basic_string<char, std::__ndk1::char_traits<char>, std::__ndk1::allocator<char> > >, true>, std::__ndk1::allocator<std::__ndk1::__hash_value_type<std::__ndk1::basic_string<char, std::__ndk1::char_traits<char>, std::__ndk1::allocator<char> >, std::__ndk1::map<geode::VersionInfo, std::__ndk1::shared_ptr<geode::IndexItem>, std::__ndk1::less<geode::VersionInfo>, std::__ndk1::allocator<std::__ndk1::pair<geode::VersionInfo const, std::__ndk1::shared_ptr<geode::IndexItem> > > > > > >::__emplace_unique_key_args<std::__ndk1::basic_string<char, std::__ndk1::char_traits<char>, std::__ndk1::allocator<char> >, std::__ndk1::piecewise_construct_t const&, std::__ndk1::tuple<std::__ndk1::basic_string<char, std::__ndk1::char_traits<char>, std::__ndk1::allocator<char> > const&>, std::__ndk1::tuple<> >(std::__ndk1::basic_string<char, std::__ndk1::char_traits<char>, std::__ndk1::allocator<char> > const&, std::__ndk1::piecewise_construct_t const&, std::__ndk1::tuple<std::__ndk1::basic_string<char, std::__ndk1::char_traits<char>, std::__ndk1::allocator<char> > const&>, std::__ndk1::tuple<>)
FUNC 24f6a0 f0 0 std::__ndk1::__hash_table<std::__ndk1::__hash_value_type<std::__ndk1::basic_string<char, std::__ndk1::char_traits<char>, std::__ndk1::allocator<char> >, std::__ndk1::map<geode::VersionInfo, std::__ndk1::shared_ptr<geode::IndexItem>, std::__ndk1::less<geode::VersionInfo>, std::__ndk1::allocator<std::__ndk1::pair<geode::VersionInfo const, std::__ndk1::shared_ptr<geode::IndexItem> > > > >, std::__ndk1::__unordered_map_hasher<std::__ndk1::basic_string<char, std::__ndk1::char_traits<char>, std::__ndk1::allocator<char> >, std::__ndk1::__hash_value_type<std::__ndk1::basic_string<char, std::__ndk1::char_traits<char>, std::__ndk1::allocator<char> >, std::__ndk1::map<geode::VersionInfo, std::__ndk1::shared_ptr<geode::IndexItem>, std::__ndk1::less<geode::VersionInfo>, std::__ndk1::allocator<std::__ndk1::pair<geode::VersionInfo const, std::__ndk1::shared_ptr<geode::IndexItem> > > > >, std::__ndk1::hash<std::__ndk1::basic_string<char, std::__ndk1::char_traits<char>, std::__ndk1::allocator<char> > >, std::__ndk1::equal_to<std::__ndk1::basic_string<char, std::__ndk1::char_traits<char>, std::__ndk1::allocator<char> > >, true>, std::__ndk1::__unordered_map_equal<std::__ndk1::basic_string<char, std::__ndk1::char_traits<char>, std::__ndk1::allocator<char> >, std::__ndk1::__hash_value_type<std::__ndk1::basic_string<char, std::__ndk1::char_traits<char>, std::__ndk1::allocator<char> >, std::__ndk1::map<geode::VersionInfo, std::__ndk1::shared_ptr<geode::IndexItem>, std::__ndk1::less<geode::VersionInfo>, std::__ndk1::allocator<std::__ndk1::pair<geode::VersionInfo const, std::__ndk1::shared_ptr<geode::IndexItem> > > > >, std::__ndk1::equal_to<std::__ndk1::basic_string<char, std::__ndk1::char_traits<char>, std::__ndk1::allocator<char> > >, std::__ndk1::hash<std::__ndk1::basic_string<char, std::__ndk1::char_traits<char>, std::__ndk1::allocator<char> > >, true>, std::__ndk1::allocator<std::__ndk1::__hash_value_type<std::__ndk1::basic_string<char, std::__ndk1::char_traits<char>, std::__ndk1::allocator<char> >, std::__ndk1::map<geode::VersionInfo, std::__ndk1::shared_ptr<geode::IndexItem>, std::__ndk1::less<geode::VersionInfo>, std::__ndk1::allocator<std::__ndk1::pair<geode::VersionInfo const, std::__ndk1::shared_ptr<geode::IndexItem> > > > > > >::__construct_node_hash<std::__ndk1::piecewise_construct_t const&, std::__ndk1::tuple<std::__ndk1::basic_string<char, std::__ndk1::char_traits<char>, std::__ndk1::allocator<char> > const&>, std::__ndk1::tuple<> >(unsigned long, std::__ndk1::piecewise_construct_t const&, std::__ndk1::tuple<std::__ndk1::basic_string<char, std::__ndk1::char_traits<char>, std::__ndk1::allocator<char> > const&>&&, std::__ndk1::tuple<>)
FUNC 24f790 15c 0 std::__ndk1::__hash_table<std::__ndk1::__hash_value_type<std::__ndk1::basic_string<char, std::__ndk1::char_traits<char>, std::__ndk1::allocator<char> >, std::__ndk1::map<geode::VersionInfo, std::__ndk1::shared_ptr<geode::IndexItem>, std::__ndk1::less<geode::VersionInfo>, std::__ndk1::allocator<std::__ndk1::pair<geode::VersionInfo const, std::__ndk1::shared_ptr<geode::IndexItem> > > > >, std::__ndk1::__unordered_map_hasher<std::__ndk1::basic_string<char, std::__ndk1::char_traits<char>, std::__ndk1::allocator<char> >, std::__ndk1::__hash_value_type<std::__ndk1::basic_string<char, std::__ndk1::char_traits<char>, std::__ndk1::allocator<char> >, std::__ndk1::map<geode::VersionInfo, std::__ndk1::shared_ptr<geode::IndexItem>, std::__ndk1::less<geode::VersionInfo>, std::__ndk1::allocator<std::__ndk1::pair<geode::VersionInfo const, std::__ndk1::shared_ptr<geode::IndexItem> > > > >, std::__ndk1::hash<std::__ndk1::basic_string<char, std::__ndk1::char_traits<char>, std::__ndk1::allocator<char> > >, std::__ndk1::equal_to<std::__ndk1::basic_string<char, std::__ndk1::char_traits<char>, std::__ndk1::allocator<char> > >, true>, std::__ndk1::__unordered_map_equal<std::__ndk1::basic_string<char, std::__ndk1::char_traits<char>, std::__ndk1::allocator<char> >, std::__ndk1::__hash_value_type<std::__ndk1::basic_string<char, std::__ndk1::char_traits<char>, std::__ndk1::allocator<char> >, std::__ndk1::map<geode::VersionInfo, std::__ndk1::shared_ptr<geode::IndexItem>, std::__ndk1::less<geode::VersionInfo>, std::__ndk1::allocator<std::__ndk1::pair<geode::VersionInfo const, std::__ndk1::shared_ptr<geode::IndexItem> > > > >, std::__ndk1::equal_to<std::__ndk1::basic_string<char, std::__ndk1::char_traits<char>, std::__ndk1::allocator<char> > >, std::__ndk1::hash<std::__ndk1::basic_string<char, std::__ndk1::char_traits<char>, std::__ndk1::allocator<char> > >, true>, std::__ndk1::allocator<std::__ndk1::__hash_value_type<std::__ndk1::basic_string<char, std::__ndk1::char_traits<char>, std::__ndk1::allocator<char> >, std::__ndk1::map<geode::VersionInfo, std::__ndk1::shared_ptr<geode::IndexItem>, std::__ndk1::less<geode::VersionInfo>, std::__ndk1::allocator<std::__ndk1::pair<geode::VersionInfo const, std::__ndk1::shared_ptr<geode::IndexItem> > > > > > >::__do_rehash<true>(unsigned long)
FUNC 24f8ec 168 0 std::__ndk1::__tree<std::__ndk1::__value_type<geode::VersionInfo, std::__ndk1::shared_ptr<geode::IndexItem> >, std::__ndk1::__map_value_compare<geode::VersionInfo, std::__ndk1::__value_type<geode::VersionInfo, std::__ndk1::shared_ptr<geode::IndexItem> >, std::__ndk1::less<geode::VersionInfo>, true>, std::__ndk1::allocator<std::__ndk1::__value_type<geode::VersionInfo, std::__ndk1::shared_ptr<geode::IndexItem> > > >::__find_equal<geode::VersionInfo>(std::__ndk1::__tree_end_node<std::__ndk1::__tree_node_base<void*>*>*&, geode::VersionInfo const&)
FUNC 24fa54 4 0 geode::utils::MiniFunctionState<geode::Index::Impl::updateFromLocalTree()::$_1, void, >::~MiniFunctionState()
FUNC 24fa58 16c 0 geode::utils::MiniFunctionState<geode::Index::Impl::updateFromLocalTree()::$_1, void, >::call() const
FUNC 24fbc4 24 0 geode::utils::MiniFunctionState<geode::Index::Impl::updateFromLocalTree()::$_1, void, >::clone() const
FUNC 24fbe8 2c0 0 std::__ndk1::vector<std::__ndk1::map<geode::VersionInfo, std::__ndk1::shared_ptr<geode::IndexItem>, std::__ndk1::less<geode::VersionInfo>, std::__ndk1::allocator<std::__ndk1::pair<geode::VersionInfo const, std::__ndk1::shared_ptr<geode::IndexItem> > > >, std::__ndk1::allocator<std::__ndk1::map<geode::VersionInfo, std::__ndk1::shared_ptr<geode::IndexItem>, std::__ndk1::less<geode::VersionInfo>, std::__ndk1::allocator<std::__ndk1::pair<geode::VersionInfo const, std::__ndk1::shared_ptr<geode::IndexItem> > > > > >::__push_back_slow_path<std::__ndk1::map<geode::VersionInfo, std::__ndk1::shared_ptr<geode::IndexItem>, std::__ndk1::less<geode::VersionInfo>, std::__ndk1::allocator<std::__ndk1::pair<geode::VersionInfo const, std::__ndk1::shared_ptr<geode::IndexItem> > > > const&>(std::__ndk1::map<geode::VersionInfo, std::__ndk1::shared_ptr<geode::IndexItem>, std::__ndk1::less<geode::VersionInfo>, std::__ndk1::allocator<std::__ndk1::pair<geode::VersionInfo const, std::__ndk1::shared_ptr<geode::IndexItem> > > > const&)
FUNC 24fea8 58 0 std::__ndk1::__split_buffer<std::__ndk1::map<geode::VersionInfo, std::__ndk1::shared_ptr<geode::IndexItem>, std::__ndk1::less<geode::VersionInfo>, std::__ndk1::allocator<std::__ndk1::pair<geode::VersionInfo const, std::__ndk1::shared_ptr<geode::IndexItem> > > >, std::__ndk1::allocator<std::__ndk1::map<geode::VersionInfo, std::__ndk1::shared_ptr<geode::IndexItem>, std::__ndk1::less<geode::VersionInfo>, std::__ndk1::allocator<std::__ndk1::pair<geode::VersionInfo const, std::__ndk1::shared_ptr<geode::IndexItem> > > > >&>::~__split_buffer()
FUNC 24ff00 14 0 std::__ndk1::vector<std::__ndk1::map<geode::VersionInfo, std::__ndk1::shared_ptr<geode::IndexItem>, std::__ndk1::less<geode::VersionInfo>, std::__ndk1::allocator<std::__ndk1::pair<geode::VersionInfo const, std::__ndk1::shared_ptr<geode::IndexItem> > > >, std::__ndk1::allocator<std::__ndk1::map<geode::VersionInfo, std::__ndk1::shared_ptr<geode::IndexItem>, std::__ndk1::less<geode::VersionInfo>, std::__ndk1::allocator<std::__ndk1::pair<geode::VersionInfo const, std::__ndk1::shared_ptr<geode::IndexItem> > > > > >::__throw_length_error[abi:v170000]() const
FUNC 24ff14 70 0 std::__ndk1::__tree<std::__ndk1::__value_type<geode::VersionInfo, std::__ndk1::shared_ptr<geode::IndexItem> >, std::__ndk1::__map_value_compare<geode::VersionInfo, std::__ndk1::__value_type<geode::VersionInfo, std::__ndk1::shared_ptr<geode::IndexItem> >, std::__ndk1::less<geode::VersionInfo>, true>, std::__ndk1::allocator<std::__ndk1::__value_type<geode::VersionInfo, std::__ndk1::shared_ptr<geode::IndexItem> > > >::destroy(std::__ndk1::__tree_node<std::__ndk1::__value_type<geode::VersionInfo, std::__ndk1::shared_ptr<geode::IndexItem> >, void*>*)
FUNC 24ff84 1c0 0 std::__ndk1::__hash_table<std::__ndk1::__hash_value_type<std::__ndk1::basic_string<char, std::__ndk1::char_traits<char>, std::__ndk1::allocator<char> >, std::__ndk1::map<geode::VersionInfo, std::__ndk1::shared_ptr<geode::IndexItem>, std::__ndk1::less<geode::VersionInfo>, std::__ndk1::allocator<std::__ndk1::pair<geode::VersionInfo const, std::__ndk1::shared_ptr<geode::IndexItem> > > > >, std::__ndk1::__unordered_map_hasher<std::__ndk1::basic_string<char, std::__ndk1::char_traits<char>, std::__ndk1::allocator<char> >, std::__ndk1::__hash_value_type<std::__ndk1::basic_string<char, std::__ndk1::char_traits<char>, std::__ndk1::allocator<char> >, std::__ndk1::map<geode::VersionInfo, std::__ndk1::shared_ptr<geode::IndexItem>, std::__ndk1::less<geode::VersionInfo>, std::__ndk1::allocator<std::__ndk1::pair<geode::VersionInfo const, std::__ndk1::shared_ptr<geode::IndexItem> > > > >, std::__ndk1::hash<std::__ndk1::basic_string<char, std::__ndk1::char_traits<char>, std::__ndk1::allocator<char> > >, std::__ndk1::equal_to<std::__ndk1::basic_string<char, std::__ndk1::char_traits<char>, std::__ndk1::allocator<char> > >, true>, std::__ndk1::__unordered_map_equal<std::__ndk1::basic_string<char, std::__ndk1::char_traits<char>, std::__ndk1::allocator<char> >, std::__ndk1::__hash_value_type<std::__ndk1::basic_string<char, std::__ndk1::char_traits<char>, std::__ndk1::allocator<char> >, std::__ndk1::map<geode::VersionInfo, std::__ndk1::shared_ptr<geode::IndexItem>, std::__ndk1::less<geode::VersionInfo>, std::__ndk1::allocator<std::__ndk1::pair<geode::VersionInfo const, std::__ndk1::shared_ptr<geode::IndexItem> > > > >, std::__ndk1::equal_to<std::__ndk1::basic_string<char, std::__ndk1::char_traits<char>, std::__ndk1::allocator<char> > >, std::__ndk1::hash<std::__ndk1::basic_string<char, std::__ndk1::char_traits<char>, std::__ndk1::allocator<char> > >, true>, std::__ndk1::allocator<std::__ndk1::__hash_value_type<std::__ndk1::basic_string<char, std::__ndk1::char_traits<char>, std::__ndk1::allocator<char> >, std::__ndk1::map<geode::VersionInfo, std::__ndk1::shared_ptr<geode::IndexItem>, std::__ndk1::less<geode::VersionInfo>, std::__ndk1::allocator<std::__ndk1::pair<geode::VersionInfo const, std::__ndk1::shared_ptr<geode::IndexItem> > > > > > >::find<std::__ndk1::basic_string<char, std::__ndk1::char_traits<char>, std::__ndk1::allocator<char> > >(std::__ndk1::basic_string<char, std::__ndk1::char_traits<char>, std::__ndk1::allocator<char> > const&) const
FUNC 250144 1c0 0 std::__ndk1::__hash_table<std::__ndk1::__hash_value_type<std::__ndk1::basic_string<char, std::__ndk1::char_traits<char>, std::__ndk1::allocator<char> >, std::__ndk1::map<geode::VersionInfo, std::__ndk1::shared_ptr<geode::IndexItem>, std::__ndk1::less<geode::VersionInfo>, std::__ndk1::allocator<std::__ndk1::pair<geode::VersionInfo const, std::__ndk1::shared_ptr<geode::IndexItem> > > > >, std::__ndk1::__unordered_map_hasher<std::__ndk1::basic_string<char, std::__ndk1::char_traits<char>, std::__ndk1::allocator<char> >, std::__ndk1::__hash_value_type<std::__ndk1::basic_string<char, std::__ndk1::char_traits<char>, std::__ndk1::allocator<char> >, std::__ndk1::map<geode::VersionInfo, std::__ndk1::shared_ptr<geode::IndexItem>, std::__ndk1::less<geode::VersionInfo>, std::__ndk1::allocator<std::__ndk1::pair<geode::VersionInfo const, std::__ndk1::shared_ptr<geode::IndexItem> > > > >, std::__ndk1::hash<std::__ndk1::basic_string<char, std::__ndk1::char_traits<char>, std::__ndk1::allocator<char> > >, std::__ndk1::equal_to<std::__ndk1::basic_string<char, std::__ndk1::char_traits<char>, std::__ndk1::allocator<char> > >, true>, std::__ndk1::__unordered_map_equal<std::__ndk1::basic_string<char, std::__ndk1::char_traits<char>, std::__ndk1::allocator<char> >, std::__ndk1::__hash_value_type<std::__ndk1::basic_string<char, std::__ndk1::char_traits<char>, std::__ndk1::allocator<char> >, std::__ndk1::map<geode::VersionInfo, std::__ndk1::shared_ptr<geode::IndexItem>, std::__ndk1::less<geode::VersionInfo>, std::__ndk1::allocator<std::__ndk1::pair<geode::VersionInfo const, std::__ndk1::shared_ptr<geode::IndexItem> > > > >, std::__ndk1::equal_to<std::__ndk1::basic_string<char, std::__ndk1::char_traits<char>, std::__ndk1::allocator<char> > >, std::__ndk1::hash<std::__ndk1::basic_string<char, std::__ndk1::char_traits<char>, std::__ndk1::allocator<char> > >, true>, std::__ndk1::allocator<std::__ndk1::__hash_value_type<std::__ndk1::basic_string<char, std::__ndk1::char_traits<char>, std::__ndk1::allocator<char> >, std::__ndk1::map<geode::VersionInfo, std::__ndk1::shared_ptr<geode::IndexItem>, std::__ndk1::less<geode::VersionInfo>, std::__ndk1::allocator<std::__ndk1::pair<geode::VersionInfo const, std::__ndk1::shared_ptr<geode::IndexItem> > > > > > >::find<std::__ndk1::basic_string<char, std::__ndk1::char_traits<char>, std::__ndk1::allocator<char> > >(std::__ndk1::basic_string<char, std::__ndk1::char_traits<char>, std::__ndk1::allocator<char> > const&)
FUNC 250304 fc 0 std::__ndk1::__tree<std::__ndk1::__value_type<geode::VersionInfo, std::__ndk1::shared_ptr<geode::IndexItem> >, std::__ndk1::__map_value_compare<geode::VersionInfo, std::__ndk1::__value_type<geode::VersionInfo, std::__ndk1::shared_ptr<geode::IndexItem> >, std::__ndk1::less<geode::VersionInfo>, true>, std::__ndk1::allocator<std::__ndk1::__value_type<geode::VersionInfo, std::__ndk1::shared_ptr<geode::IndexItem> > > >::__emplace_hint_unique_key_args<geode::VersionInfo, std::__ndk1::pair<geode::VersionInfo const, std::__ndk1::shared_ptr<geode::IndexItem> > const&>(std::__ndk1::__tree_const_iterator<std::__ndk1::__value_type<geode::VersionInfo, std::__ndk1::shared_ptr<geode::IndexItem> >, std::__ndk1::__tree_node<std::__ndk1::__value_type<geode::VersionInfo, std::__ndk1::shared_ptr<geode::IndexItem> >, void*>*, long>, geode::VersionInfo const&, std::__ndk1::pair<geode::VersionInfo const, std::__ndk1::shared_ptr<geode::IndexItem> > const&)
FUNC 250400 34c 0 std::__ndk1::__tree<std::__ndk1::__value_type<geode::VersionInfo, std::__ndk1::shared_ptr<geode::IndexItem> >, std::__ndk1::__map_value_compare<geode::VersionInfo, std::__ndk1::__value_type<geode::VersionInfo, std::__ndk1::shared_ptr<geode::IndexItem> >, std::__ndk1::less<geode::VersionInfo>, true>, std::__ndk1::allocator<std::__ndk1::__value_type<geode::VersionInfo, std::__ndk1::shared_ptr<geode::IndexItem> > > >::__find_equal<geode::VersionInfo>(std::__ndk1::__tree_const_iterator<std::__ndk1::__value_type<geode::VersionInfo, std::__ndk1::shared_ptr<geode::IndexItem> >, std::__ndk1::__tree_node<std::__ndk1::__value_type<geode::VersionInfo, std::__ndk1::shared_ptr<geode::IndexItem> >, void*>*, long>, std::__ndk1::__tree_end_node<std::__ndk1::__tree_node_base<void*>*>*&, std::__ndk1::__tree_node_base<void*>*&, geode::VersionInfo const&)
FUNC 25074c 104 0 std::__ndk1::__hash_table<std::__ndk1::__hash_value_type<std::__ndk1::shared_ptr<geode::IndexItem>, std::__ndk1::shared_ptr<geode::utils::web::SentAsyncWebRequest> >, std::__ndk1::__unordered_map_hasher<std::__ndk1::shared_ptr<geode::IndexItem>, std::__ndk1::__hash_value_type<std::__ndk1::shared_ptr<geode::IndexItem>, std::__ndk1::shared_ptr<geode::utils::web::SentAsyncWebRequest> >, std::__ndk1::hash<std::__ndk1::shared_ptr<geode::IndexItem> >, std::__ndk1::equal_to<std::__ndk1::shared_ptr<geode::IndexItem> >, true>, std::__ndk1::__unordered_map_equal<std::__ndk1::shared_ptr<geode::IndexItem>, std::__ndk1::__hash_value_type<std::__ndk1::shared_ptr<geode::IndexItem>, std::__ndk1::shared_ptr<geode::utils::web::SentAsyncWebRequest> >, std::__ndk1::equal_to<std::__ndk1::shared_ptr<geode::IndexItem> >, std::__ndk1::hash<std::__ndk1::shared_ptr<geode::IndexItem> >, true>, std::__ndk1::allocator<std::__ndk1::__hash_value_type<std::__ndk1::shared_ptr<geode::IndexItem>, std::__ndk1::shared_ptr<geode::utils::web::SentAsyncWebRequest> > > >::__erase_unique<std::__ndk1::shared_ptr<geode::IndexItem> >(std::__ndk1::shared_ptr<geode::IndexItem> const&)
FUNC 250850 d4 0 std::__ndk1::__hash_table<std::__ndk1::__hash_value_type<std::__ndk1::shared_ptr<geode::IndexItem>, std::__ndk1::shared_ptr<geode::utils::web::SentAsyncWebRequest> >, std::__ndk1::__unordered_map_hasher<std::__ndk1::shared_ptr<geode::IndexItem>, std::__ndk1::__hash_value_type<std::__ndk1::shared_ptr<geode::IndexItem>, std::__ndk1::shared_ptr<geode::utils::web::SentAsyncWebRequest> >, std::__ndk1::hash<std::__ndk1::shared_ptr<geode::IndexItem> >, std::__ndk1::equal_to<std::__ndk1::shared_ptr<geode::IndexItem> >, true>, std::__ndk1::__unordered_map_equal<std::__ndk1::shared_ptr<geode::IndexItem>, std::__ndk1::__hash_value_type<std::__ndk1::shared_ptr<geode::IndexItem>, std::__ndk1::shared_ptr<geode::utils::web::SentAsyncWebRequest> >, std::__ndk1::equal_to<std::__ndk1::shared_ptr<geode::IndexItem> >, std::__ndk1::hash<std::__ndk1::shared_ptr<geode::IndexItem> >, true>, std::__ndk1::allocator<std::__ndk1::__hash_value_type<std::__ndk1::shared_ptr<geode::IndexItem>, std::__ndk1::shared_ptr<geode::utils::web::SentAsyncWebRequest> > > >::erase(std::__ndk1::__hash_const_iterator<std::__ndk1::__hash_node<std::__ndk1::__hash_value_type<std::__ndk1::shared_ptr<geode::IndexItem>, std::__ndk1::shared_ptr<geode::utils::web::SentAsyncWebRequest> >, void*>*>)
FUNC 250924 134 0 std::__ndk1::__hash_table<std::__ndk1::__hash_value_type<std::__ndk1::shared_ptr<geode::IndexItem>, std::__ndk1::shared_ptr<geode::utils::web::SentAsyncWebRequest> >, std::__ndk1::__unordered_map_hasher<std::__ndk1::shared_ptr<geode::IndexItem>, std::__ndk1::__hash_value_type<std::__ndk1::shared_ptr<geode::IndexItem>, std::__ndk1::shared_ptr<geode::utils::web::SentAsyncWebRequest> >, std::__ndk1::hash<std::__ndk1::shared_ptr<geode::IndexItem> >, std::__ndk1::equal_to<std::__ndk1::shared_ptr<geode::IndexItem> >, true>, std::__ndk1::__unordered_map_equal<std::__ndk1::shared_ptr<geode::IndexItem>, std::__ndk1::__hash_value_type<std::__ndk1::shared_ptr<geode::IndexItem>, std::__ndk1::shared_ptr<geode::utils::web::SentAsyncWebRequest> >, std::__ndk1::equal_to<std::__ndk1::shared_ptr<geode::IndexItem> >, std::__ndk1::hash<std::__ndk1::shared_ptr<geode::IndexItem> >, true>, std::__ndk1::allocator<std::__ndk1::__hash_value_type<std::__ndk1::shared_ptr<geode::IndexItem>, std::__ndk1::shared_ptr<geode::utils::web::SentAsyncWebRequest> > > >::remove(std::__ndk1::__hash_const_iterator<std::__ndk1::__hash_node<std::__ndk1::__hash_value_type<std::__ndk1::shared_ptr<geode::IndexItem>, std::__ndk1::shared_ptr<geode::utils::web::SentAsyncWebRequest> >, void*>*>)
FUNC 250a58 9c 0 std::__ndk1::unique_ptr<std::__ndk1::__hash_node<std::__ndk1::__hash_value_type<std::__ndk1::shared_ptr<geode::IndexItem>, std::__ndk1::shared_ptr<geode::utils::web::SentAsyncWebRequest> >, void*>, std::__ndk1::__hash_node_destructor<std::__ndk1::allocator<std::__ndk1::__hash_node<std::__ndk1::__hash_value_type<std::__ndk1::shared_ptr<geode::IndexItem>, std::__ndk1::shared_ptr<geode::utils::web::SentAsyncWebRequest> >, void*> > > >::~unique_ptr[abi:v170000]()
FUNC 250af4 14 0 geode::utils::MiniFunctionState<geode::Index::Impl::installNext(unsigned long, geode::IndexInstallList const&)::$_0, void, >::~MiniFunctionState()
FUNC 250b08 30 0 geode::utils::MiniFunctionState<geode::Index::Impl::installNext(unsigned long, geode::IndexInstallList const&)::$_0, void, >::~MiniFunctionState()
FUNC 250b38 190 0 geode::utils::MiniFunctionState<geode::Index::Impl::installNext(unsigned long, geode::IndexInstallList const&)::$_0, void, >::call() const
FUNC 250cc8 c4 0 geode::utils::MiniFunctionState<geode::Index::Impl::installNext(unsigned long, geode::IndexInstallList const&)::$_0, void, >::clone() const
FUNC 250d8c 360 0 std::__ndk1::__hash_table<std::__ndk1::__hash_value_type<std::__ndk1::shared_ptr<geode::IndexItem>, std::__ndk1::shared_ptr<geode::utils::web::SentAsyncWebRequest> >, std::__ndk1::__unordered_map_hasher<std::__ndk1::shared_ptr<geode::IndexItem>, std::__ndk1::__hash_value_type<std::__ndk1::shared_ptr<geode::IndexItem>, std::__ndk1::shared_ptr<geode::utils::web::SentAsyncWebRequest> >, std::__ndk1::hash<std::__ndk1::shared_ptr<geode::IndexItem> >, std::__ndk1::equal_to<std::__ndk1::shared_ptr<geode::IndexItem> >, true>, std::__ndk1::__unordered_map_equal<std::__ndk1::shared_ptr<geode::IndexItem>, std::__ndk1::__hash_value_type<std::__ndk1::shared_ptr<geode::IndexItem>, std::__ndk1::shared_ptr<geode::utils::web::SentAsyncWebRequest> >, std::__ndk1::equal_to<std::__ndk1::shared_ptr<geode::IndexItem> >, std::__ndk1::hash<std::__ndk1::shared_ptr<geode::IndexItem> >, true>, std::__ndk1::allocator<std::__ndk1::__hash_value_type<std::__ndk1::shared_ptr<geode::IndexItem>, std::__ndk1::shared_ptr<geode::utils::web::SentAsyncWebRequest> > > >::__emplace_unique_key_args<std::__ndk1::shared_ptr<geode::IndexItem>, std::__ndk1::piecewise_construct_t const&, std::__ndk1::tuple<std::__ndk1::shared_ptr<geode::IndexItem> const&>, std::__ndk1::tuple<> >(std::__ndk1::shared_ptr<geode::IndexItem> const&, std::__ndk1::piecewise_construct_t const&, std::__ndk1::tuple<std::__ndk1::shared_ptr<geode::IndexItem> const&>, std::__ndk1::tuple<>)
FUNC 2510ec 15c 0 std::__ndk1::__hash_table<std::__ndk1::__hash_value_type<std::__ndk1::shared_ptr<geode::IndexItem>, std::__ndk1::shared_ptr<geode::utils::web::SentAsyncWebRequest> >, std::__ndk1::__unordered_map_hasher<std::__ndk1::shared_ptr<geode::IndexItem>, std::__ndk1::__hash_value_type<std::__ndk1::shared_ptr<geode::IndexItem>, std::__ndk1::shared_ptr<geode::utils::web::SentAsyncWebRequest> >, std::__ndk1::hash<std::__ndk1::shared_ptr<geode::IndexItem> >, std::__ndk1::equal_to<std::__ndk1::shared_ptr<geode::IndexItem> >, true>, std::__ndk1::__unordered_map_equal<std::__ndk1::shared_ptr<geode::IndexItem>, std::__ndk1::__hash_value_type<std::__ndk1::shared_ptr<geode::IndexItem>, std::__ndk1::shared_ptr<geode::utils::web::SentAsyncWebRequest> >, std::__ndk1::equal_to<std::__ndk1::shared_ptr<geode::IndexItem> >, std::__ndk1::hash<std::__ndk1::shared_ptr<geode::IndexItem> >, true>, std::__ndk1::allocator<std::__ndk1::__hash_value_type<std::__ndk1::shared_ptr<geode::IndexItem>, std::__ndk1::shared_ptr<geode::utils::web::SentAsyncWebRequest> > > >::__do_rehash<true>(unsigned long)
FUNC 251248 170 0 geode::Index::Impl::installNext(unsigned long, geode::IndexInstallList const&)::$_5::$_5($_5&&)
FUNC 2513b8 170 0 geode::Index::Impl::installNext(unsigned long, geode::IndexInstallList const&)::$_6::$_6($_6&&)
FUNC 251528 1e0 0 geode::Index::Impl::installNext(unsigned long, geode::IndexInstallList const&)::$_1::$_1($_1 const&)
FUNC 251708 8 0 geode::utils::MiniFunctionState<geode::Index::Impl::installNext(unsigned long, geode::IndexInstallList const&)::$_1, void, std::__ndk1::monostate>::~MiniFunctionState()
FUNC 251710 28 0 geode::utils::MiniFunctionState<geode::Index::Impl::installNext(unsigned long, geode::IndexInstallList const&)::$_1, void, std::__ndk1::monostate>::~MiniFunctionState()
FUNC 251738 820 0 geode::utils::MiniFunctionState<geode::Index::Impl::installNext(unsigned long, geode::IndexInstallList const&)::$_1, void, std::__ndk1::monostate>::call(std::__ndk1::monostate) const
FUNC 251f58 54 0 geode::utils::MiniFunctionState<geode::Index::Impl::installNext(unsigned long, geode::IndexInstallList const&)::$_1, void, std::__ndk1::monostate>::clone() const
FUNC 251fac 168 0 geode::Index::Impl::installNext(unsigned long, geode::IndexInstallList const&)::$_2::$_2($_2 const&)
FUNC 252114 8 0 geode::utils::MiniFunctionState<geode::Index::Impl::installNext(unsigned long, geode::IndexInstallList const&)::$_2, void, std::__ndk1::basic_string<char, std::__ndk1::char_traits<char>, std::__ndk1::allocator<char> > const&>::~MiniFunctionState()
FUNC 25211c 28 0 geode::utils::MiniFunctionState<geode::Index::Impl::installNext(unsigned long, geode::IndexInstallList const&)::$_2, void, std::__ndk1::basic_string<char, std::__ndk1::char_traits<char>, std::__ndk1::allocator<char> > const&>::~MiniFunctionState()
FUNC 252144 154 0 geode::utils::MiniFunctionState<geode::Index::Impl::installNext(unsigned long, geode::IndexInstallList const&)::$_2, void, std::__ndk1::basic_string<char, std::__ndk1::char_traits<char>, std::__ndk1::allocator<char> > const&>::call(std::__ndk1::basic_string<char, std::__ndk1::char_traits<char>, std::__ndk1::allocator<char> > const&) const
FUNC 252298 54 0 geode::utils::MiniFunctionState<geode::Index::Impl::installNext(unsigned long, geode::IndexInstallList const&)::$_2, void, std::__ndk1::basic_string<char, std::__ndk1::char_traits<char>, std::__ndk1::allocator<char> > const&>::clone() const
FUNC 2522ec 188 0 geode::Index::Impl::installNext(unsigned long, geode::IndexInstallList const&)::$_3::$_3($_3 const&)
FUNC 252474 8 0 geode::utils::MiniFunctionState<geode::Index::Impl::installNext(unsigned long, geode::IndexInstallList const&)::$_3, void, geode::utils::web::SentAsyncWebRequest&, double, double>::~MiniFunctionState()
FUNC 25247c 28 0 geode::utils::MiniFunctionState<geode::Index::Impl::installNext(unsigned long, geode::IndexInstallList const&)::$_3, void, geode::utils::web::SentAsyncWebRequest&, double, double>::~MiniFunctionState()
FUNC 2524a4 358 0 geode::utils::MiniFunctionState<geode::Index::Impl::installNext(unsigned long, geode::IndexInstallList const&)::$_3, void, geode::utils::web::SentAsyncWebRequest&, double, double>::call(geode::utils::web::SentAsyncWebRequest&, double, double) const
FUNC 2527fc 54 0 geode::utils::MiniFunctionState<geode::Index::Impl::installNext(unsigned long, geode::IndexInstallList const&)::$_3, void, geode::utils::web::SentAsyncWebRequest&, double, double>::clone() const
FUNC 252850 c8 0 geode::utils::MiniFunctionState<geode::Index::Impl::installNext(unsigned long, geode::IndexInstallList const&)::$_4, void, geode::utils::web::SentAsyncWebRequest&>::~MiniFunctionState()
FUNC 252918 c0 0 geode::utils::MiniFunctionState<geode::Index::Impl::installNext(unsigned long, geode::IndexInstallList const&)::$_4, void, geode::utils::web::SentAsyncWebRequest&>::~MiniFunctionState()
FUNC 2529d8 ac 0 geode::utils::MiniFunctionState<geode::Index::Impl::installNext(unsigned long, geode::IndexInstallList const&)::$_4, void, geode::utils::web::SentAsyncWebRequest&>::call(geode::utils::web::SentAsyncWebRequest&) const
FUNC 252a84 54 0 geode::utils::MiniFunctionState<geode::Index::Impl::installNext(unsigned long, geode::IndexInstallList const&)::$_4, void, geode::utils::web::SentAsyncWebRequest&>::clone() const
FUNC 252ad8 50 0 geode::utils::MiniFunctionState<geode::Index::cancelInstall(std::__ndk1::shared_ptr<geode::IndexItem>)::$_0, void, >::~MiniFunctionState()
FUNC 252b28 50 0 geode::utils::MiniFunctionState<geode::Index::cancelInstall(std::__ndk1::shared_ptr<geode::IndexItem>)::$_0, void, >::~MiniFunctionState()
FUNC 252b78 128 0 geode::utils::MiniFunctionState<geode::Index::cancelInstall(std::__ndk1::shared_ptr<geode::IndexItem>)::$_0, void, >::call() const
FUNC 252ca0 58 0 geode::utils::MiniFunctionState<geode::Index::cancelInstall(std::__ndk1::shared_ptr<geode::IndexItem>)::$_0, void, >::clone() const
FUNC 252cf8 100 0 std::__ndk1::unordered_map<std::__ndk1::shared_ptr<geode::IndexItem>, std::__ndk1::shared_ptr<geode::utils::web::SentAsyncWebRequest>, std::__ndk1::hash<std::__ndk1::shared_ptr<geode::IndexItem> >, std::__ndk1::equal_to<std::__ndk1::shared_ptr<geode::IndexItem> >, std::__ndk1::allocator<std::__ndk1::pair<std::__ndk1::shared_ptr<geode::IndexItem> const, std::__ndk1::shared_ptr<geode::utils::web::SentAsyncWebRequest> > > >::at(std::__ndk1::shared_ptr<geode::IndexItem> const&)
FUNC 252df8 170 0 geode::Index::install(geode::IndexInstallList const&)::$_0::$_0($_0 const&)
FUNC 252f68 c8 0 geode::utils::MiniFunctionState<geode::Index::install(geode::IndexInstallList const&)::$_0, void, >::~MiniFunctionState()
FUNC 253030 c0 0 geode::utils::MiniFunctionState<geode::Index::install(geode::IndexInstallList const&)::$_0, void, >::~MiniFunctionState()
FUNC 2530f0 18 0 geode::utils::MiniFunctionState<geode::Index::install(geode::IndexInstallList const&)::$_0, void, >::call() const
FUNC 253108 54 0 geode::utils::MiniFunctionState<geode::Index::install(geode::IndexInstallList const&)::$_0, void, >::clone() const
FUNC 25315c 50 0 geode::utils::MiniFunctionState<geode::Index::install(std::__ndk1::shared_ptr<geode::IndexItem>)::$_0, void, >::~MiniFunctionState()
FUNC 2531ac 50 0 geode::utils::MiniFunctionState<geode::Index::install(std::__ndk1::shared_ptr<geode::IndexItem>)::$_0, void, >::~MiniFunctionState()
FUNC 2531fc 5b8 0 geode::utils::MiniFunctionState<geode::Index::install(std::__ndk1::shared_ptr<geode::IndexItem>)::$_0, void, >::call() const
FUNC 2537b4 58 0 geode::utils::MiniFunctionState<geode::Index::install(std::__ndk1::shared_ptr<geode::IndexItem>)::$_0, void, >::clone() const
FUNC 25380c 44 0 geode::Loader::Loader()
FUNC 253850 3c 0 geode::Loader::~Loader()
FUNC 25388c 8c 0 geode::Loader::get()
FUNC 253918 8 0 geode::Loader::isForwardCompatMode()
FUNC 253920 8 0 geode::Loader::saveData()
FUNC 253928 8 0 geode::Loader::loadData()
FUNC 253930 8 0 geode::Loader::getVersion()
FUNC 253938 8 0 geode::Loader::minModVersion()
FUNC 253940 8 0 geode::Loader::maxModVersion()
FUNC 253948 8 0 geode::Loader::isModVersionSupported(geode::VersionInfo const&)
FUNC 253950 c 0 geode::Loader::getLoadingState()
FUNC 25395c 8 0 geode::Loader::isModInstalled(std::__ndk1::basic_string<char, std::__ndk1::char_traits<char>, std::__ndk1::allocator<char> > const&) const
FUNC 253964 8 0 geode::Loader::getInstalledMod(std::__ndk1::basic_string<char, std::__ndk1::char_traits<char>, std::__ndk1::allocator<char> > const&) const
FUNC 25396c 8 0 geode::Loader::isModLoaded(std::__ndk1::basic_string<char, std::__ndk1::char_traits<char>, std::__ndk1::allocator<char> > const&) const
FUNC 253974 8 0 geode::Loader::getLoadedMod(std::__ndk1::basic_string<char, std::__ndk1::char_traits<char>, std::__ndk1::allocator<char> > const&) const
FUNC 25397c 8 0 geode::Loader::getAllMods()
FUNC 253984 8 0 geode::Loader::getProblems() const
FUNC 25398c 8 0 geode::Loader::queueInMainThread(geode::utils::MiniFunction<void ()>)
FUNC 253994 8 0 geode::Loader::takeNextMod()
FUNC 25399c 8 0 geode::Loader::getLaunchArgumentNames() const
FUNC 2539a4 8 0 geode::Loader::hasLaunchArgument(std::__ndk1::basic_string_view<char, std::__ndk1::char_traits<char> >) const
FUNC 2539ac 8 0 geode::Loader::getLaunchArgument(std::__ndk1::basic_string_view<char, std::__ndk1::char_traits<char> >) const
FUNC 2539b4 8 0 geode::Loader::getLaunchFlag(std::__ndk1::basic_string_view<char, std::__ndk1::char_traits<char> >) const
FUNC 2539bc 11c 0 std::__ndk1::pair<std::__ndk1::basic_string<char, std::__ndk1::char_traits<char>, std::__ndk1::allocator<char> > const, std::__ndk1::basic_string<char, std::__ndk1::char_traits<char>, std::__ndk1::allocator<char> > >::pair[abi:v170000]<char const (&) [9], std::__ndk1::pair<std::__ndk1::basic_string<char, std::__ndk1::char_traits<char>, std::__ndk1::allocator<char> > const, std::__ndk1::basic_string<char, std::__ndk1::char_traits<char>, std::__ndk1::allocator<char> > >::pair[abi:v170000] (&) [65], (void*)0>(std::__ndk1::pair<std::__ndk1::basic_string<char, std::__ndk1::char_traits<char>, std::__ndk1::allocator<char> > const, std::__ndk1::basic_string<char, std::__ndk1::char_traits<char>, std::__ndk1::allocator<char> > >::pair[abi:v170000] (&) [65])
FUNC 253ad8 11c 0 std::__ndk1::pair<std::__ndk1::basic_string<char, std::__ndk1::char_traits<char>, std::__ndk1::allocator<char> > const, std::__ndk1::basic_string<char, std::__ndk1::char_traits<char>, std::__ndk1::allocator<char> > >::pair[abi:v170000]<char const (&) [13], std::__ndk1::pair<std::__ndk1::basic_string<char, std::__ndk1::char_traits<char>, std::__ndk1::allocator<char> > const, std::__ndk1::basic_string<char, std::__ndk1::char_traits<char>, std::__ndk1::allocator<char> > >::pair[abi:v170000] (&) [65], (void*)0>(std::__ndk1::pair<std::__ndk1::basic_string<char, std::__ndk1::char_traits<char>, std::__ndk1::allocator<char> > const, std::__ndk1::basic_string<char, std::__ndk1::char_traits<char>, std::__ndk1::allocator<char> > >::pair[abi:v170000] (&) [65])
FUNC 253bf4 11c 0 std::__ndk1::pair<std::__ndk1::basic_string<char, std::__ndk1::char_traits<char>, std::__ndk1::allocator<char> > const, std::__ndk1::basic_string<char, std::__ndk1::char_traits<char>, std::__ndk1::allocator<char> > >::pair[abi:v170000]<char const (&) [11], std::__ndk1::pair<std::__ndk1::basic_string<char, std::__ndk1::char_traits<char>, std::__ndk1::allocator<char> > const, std::__ndk1::basic_string<char, std::__ndk1::char_traits<char>, std::__ndk1::allocator<char> > >::pair[abi:v170000] (&) [65], (void*)0>(std::__ndk1::pair<std::__ndk1::basic_string<char, std::__ndk1::char_traits<char>, std::__ndk1::allocator<char> > const, std::__ndk1::basic_string<char, std::__ndk1::char_traits<char>, std::__ndk1::allocator<char> > >::pair[abi:v170000] (&) [65])
FUNC 253d10 44 0 std::__ndk1::pair<std::__ndk1::basic_string<char, std::__ndk1::char_traits<char>, std::__ndk1::allocator<char> > const, std::__ndk1::basic_string<char, std::__ndk1::char_traits<char>, std::__ndk1::allocator<char> > >::~pair()
FUNC 253d54 80 0 std::__ndk1::unordered_map<std::__ndk1::basic_string<char, std::__ndk1::char_traits<char>, std::__ndk1::allocator<char> >, std::__ndk1::basic_string<char, std::__ndk1::char_traits<char>, std::__ndk1::allocator<char> >, std::__ndk1::hash<std::__ndk1::basic_string<char, std::__ndk1::char_traits<char>, std::__ndk1::allocator<char> > >, std::__ndk1::equal_to<std::__ndk1::basic_string<char, std::__ndk1::char_traits<char>, std::__ndk1::allocator<char> > >, std::__ndk1::allocator<std::__ndk1::pair<std::__ndk1::basic_string<char, std::__ndk1::char_traits<char>, std::__ndk1::allocator<char> > const, std::__ndk1::basic_string<char, std::__ndk1::char_traits<char>, std::__ndk1::allocator<char> > > > >::~unordered_map[abi:v170000]()
FUNC 253dd4 18 0 geode::LoaderImpl::get()
FUNC 253dec 98 0 geode::Loader::Impl::Impl()
FUNC 253e84 78 0 std::__ndk1::vector<geode::utils::MiniFunction<void ()>, std::__ndk1::allocator<geode::utils::MiniFunction<void ()> > >::~vector[abi:v170000]()
FUNC 253efc cc 0 std::__ndk1::deque<geode::Mod*, std::__ndk1::allocator<geode::Mod*> >::~deque[abi:v170000]()
FUNC 253fc8 2a0 0 geode::Loader::Impl::~Impl()
FUNC 254268 15c 0 geode::Loader::Impl::isForwardCompatMode()
FUNC 2543c4 260 0 geode::Loader::Impl::createDirectories()
FUNC 254624 274 0 geode::Loader::Impl::setup()
FUNC 254898 5a0 0 geode::Loader::Impl::initLaunchArguments()
FUNC 254e38 ac 0 geode::Loader::Impl::getLaunchFlag(std::__ndk1::basic_string_view<char, std::__ndk1::char_traits<char> >) const
FUNC 254ee4 20c 0 geode::Loader::Impl::loadHooks()
FUNC 2550f0 134 0 geode::Loader::Impl::addSearchPaths()
FUNC 255224 43c 0 geode::Loader::Impl::refreshModGraph()
FUNC 255660 c8 0 geode::Loader::Impl::updateResources(bool)
FUNC 255728 a10 0 geode::Loader::Impl::updateModResources(geode::Mod*)
FUNC 256138 8 0 geode::Loader::Impl::getAllMods()
FUNC 256140 1f8 0 geode::utils::map::values<std::__ndk1::basic_string<char, std::__ndk1::char_traits<char>, std::__ndk1::allocator<char> >, geode::Mod*>(std::__ndk1::unordered_map<std::__ndk1::basic_string<char, std::__ndk1::char_traits<char>, std::__ndk1::allocator<char> >, geode::Mod*, std::__ndk1::hash<std::__ndk1::basic_string<char, std::__ndk1::char_traits<char>, std::__ndk1::allocator<char> > >, std::__ndk1::equal_to<std::__ndk1::basic_string<char, std::__ndk1::char_traits<char>, std::__ndk1::allocator<char> > >, std::__ndk1::allocator<std::__ndk1::pair<std::__ndk1::basic_string<char, std::__ndk1::char_traits<char>, std::__ndk1::allocator<char> > const, geode::Mod*> > > const&)
FUNC 256338 4 0 geode::Loader::Impl::getVersion()
FUNC 25633c 68 0 geode::Loader::Impl::minModVersion()
FUNC 2563a4 7c 0 geode::Loader::Impl::maxModVersion()
FUNC 256420 5c 0 geode::Loader::Impl::isModVersionSupported(geode::VersionInfo const&)
FUNC 25647c 2f0 0 geode::Loader::Impl::saveData()
FUNC 25676c b0 0 geode::Result<std::__ndk1::monostate, std::__ndk1::basic_string<char, std::__ndk1::char_traits<char>, std::__ndk1::allocator<char> > >::unwrapErr() &
FUNC 25681c 2f0 0 geode::Loader::Impl::loadData()
FUNC 256b0c 60 0 geode::Loader::Impl::isModInstalled(std::__ndk1::basic_string<char, std::__ndk1::char_traits<char>, std::__ndk1::allocator<char> > const&) const
FUNC 256b6c 70 0 geode::Loader::Impl::getInstalledMod(std::__ndk1::basic_string<char, std::__ndk1::char_traits<char>, std::__ndk1::allocator<char> > const&) const
FUNC 256bdc 58 0 geode::Loader::Impl::isModLoaded(std::__ndk1::basic_string<char, std::__ndk1::char_traits<char>, std::__ndk1::allocator<char> > const&) const
FUNC 256c34 60 0 geode::Loader::Impl::getLoadedMod(std::__ndk1::basic_string<char, std::__ndk1::char_traits<char>, std::__ndk1::allocator<char> > const&) const
FUNC 256c94 b8 0 geode::Loader::Impl::addProblem(geode::LoadProblem const&)
FUNC 256d4c 910 0 geode::Loader::Impl::queueMods(std::__ndk1::vector<geode::ModMetadata, std::__ndk1::allocator<geode::ModMetadata> >&)
FUNC 25765c 74 0 std::__ndk1::variant<ghc::filesystem::path, geode::ModMetadata, geode::Mod*>::~variant()
FUNC 2576d0 84 0 geode::LoadProblem::~LoadProblem()
FUNC 257754 90 0 geode::log::error<std::__ndk1::basic_string<char, std::__ndk1::char_traits<char>, std::__ndk1::allocator<char> > >(fmt::v10::basic_format_string<char, fmt::v10::type_identity<decltype ((wrapCocosObj<std::__ndk1::basic_string<char, std::__ndk1::char_traits<char>, std::__ndk1::allocator<char> > >)((std::declval<std::__ndk1::basic_string<char, std::__ndk1::char_traits<char>, std::__ndk1::allocator<char> > >)()))>::type>, std::__ndk1::basic_string<char, std::__ndk1::char_traits<char>, std::__ndk1::allocator<char> >&&)
FUNC 2577e4 650 0 geode::Loader::Impl::populateModList(std::__ndk1::vector<geode::ModMetadata, std::__ndk1::allocator<geode::ModMetadata> >&)
FUNC 257e34 3e8 0 geode::Loader::Impl::buildModGraph()
FUNC 25821c b30 0 geode::Loader::Impl::loadModGraph(geode::Mod*, bool)
FUNC 258d4c c0 0 geode::Loader::Impl::loadModGraph(geode::Mod*, bool)::$_1::operator()() const
FUNC 258e0c 3a4 0 geode::Loader::Impl::loadModGraph(geode::Mod*, bool)::$_2::operator()() const
FUNC 2591b0 118 0 std::__ndk1::thread::thread<geode::Loader::Impl::loadModGraph(geode::Mod*, bool)::$_0, , void>(&&)
FUNC 2592c8 50 0 geode::Loader::Impl::loadModGraph(geode::Mod*, bool)::$_0::~$_0()
FUNC 259318 50 0 std::__ndk1::shared_ptr<geode::log::Nest>::~shared_ptr[abi:v170000]()
FUNC 259368 1264 0 geode::Loader::Impl::findProblems()
FUNC 25a5cc 7c 0 std::__ndk1::vector<geode::ModMetadata::Incompatibility, std::__ndk1::allocator<geode::ModMetadata::Incompatibility> >::~vector[abi:v170000]()
FUNC 25a648 90 0 geode::Loader::Impl::queueInMainThread(geode::utils::MiniFunction<void ()> const&)
FUNC 25a6d8 68 0 std::__ndk1::vector<geode::ModMetadata, std::__ndk1::allocator<geode::ModMetadata> >::~vector[abi:v170000]()
FUNC 25a740 3e8 0 geode::Loader::Impl::continueRefreshModGraph()
FUNC 25ab28 c 0 geode::Loader::Impl::getProblems() const
FUNC 25ab34 13c 0 std::__ndk1::vector<geode::LoadProblem, std::__ndk1::allocator<geode::LoadProblem> >::vector(std::__ndk1::vector<geode::LoadProblem, std::__ndk1::allocator<geode::LoadProblem> > const&)
FUNC 25ac70 138 0 geode::Loader::Impl::forceReset()
FUNC 25ada8 8 0 geode::Loader::Impl::isReadyToHook() const
FUNC 25adb0 118 0 geode::Loader::Impl::addUninitializedHook(geode::Hook*, geode::Mod*)
FUNC 25aec8 140 0 geode::Loader::Impl::executeMainThreadQueue()
FUNC 25b008 150 0 std::__ndk1::vector<geode::utils::MiniFunction<void ()>, std::__ndk1::allocator<geode::utils::MiniFunction<void ()> > >::vector(std::__ndk1::vector<geode::utils::MiniFunction<void ()>, std::__ndk1::allocator<geode::utils::MiniFunction<void ()> > > const&)
FUNC 25b158 64 0 geode::Loader::Impl::provideNextMod(geode::Mod*)
FUNC 25b1bc 30 0 geode::Loader::Impl::takeNextMod()
FUNC 25b1ec 44 0 geode::Loader::Impl::releaseNextMod()
FUNC 25b230 120 0 std::__ndk1::pair<std::__ndk1::basic_string<char, std::__ndk1::char_traits<char>, std::__ndk1::allocator<char> > const, std::__ndk1::basic_string<char, std::__ndk1::char_traits<char>, std::__ndk1::allocator<char> > >::pair[abi:v170000]<std::__ndk1::basic_string<char, std::__ndk1::char_traits<char>, std::__ndk1::allocator<char> >&, char const (&) [5], (void*)0>(char const (&) [5])
FUNC 25b350 134 0 std::__ndk1::pair<std::__ndk1::basic_string<char, std::__ndk1::char_traits<char>, std::__ndk1::allocator<char> > const, std::__ndk1::basic_string<char, std::__ndk1::char_traits<char>, std::__ndk1::allocator<char> > >::pair[abi:v170000]<std::__ndk1::basic_string<char, std::__ndk1::char_traits<char>, std::__ndk1::allocator<char> >&, std::__ndk1::pair<std::__ndk1::basic_string<char, std::__ndk1::char_traits<char>, std::__ndk1::allocator<char> > const, std::__ndk1::basic_string<char, std::__ndk1::char_traits<char>, std::__ndk1::allocator<char> > >::pair[abi:v170000], (void*)0>(std::__ndk1::pair<std::__ndk1::basic_string<char, std::__ndk1::char_traits<char>, std::__ndk1::allocator<char> > const, std::__ndk1::basic_string<char, std::__ndk1::char_traits<char>, std::__ndk1::allocator<char> > >::pair[abi:v170000]&&)
FUNC 25b484 8 0 geode::Loader::Impl::getLaunchArgumentNames() const
FUNC 25b48c 104 0 geode::utils::map::keys<std::__ndk1::basic_string<char, std::__ndk1::char_traits<char>, std::__ndk1::allocator<char> >, std::__ndk1::basic_string<char, std::__ndk1::char_traits<char>, std::__ndk1::allocator<char> > >(std::__ndk1::unordered_map<std::__ndk1::basic_string<char, std::__ndk1::char_traits<char>, std::__ndk1::allocator<char> >, std::__ndk1::basic_string<char, std::__ndk1::char_traits<char>, std::__ndk1::allocator<char> >, std::__ndk1::hash<std::__ndk1::basic_string<char, std::__ndk1::char_traits<char>, std::__ndk1::allocator<char> > >, std::__ndk1::equal_to<std::__ndk1::basic_string<char, std::__ndk1::char_traits<char>, std::__ndk1::allocator<char> > >, std::__ndk1::allocator<std::__ndk1::pair<std::__ndk1::basic_string<char, std::__ndk1::char_traits<char>, std::__ndk1::allocator<char> > const, std::__ndk1::basic_string<char, std::__ndk1::char_traits<char>, std::__ndk1::allocator<char> > > > > const&)
FUNC 25b590 11c 0 geode::Loader::Impl::hasLaunchArgument(std::__ndk1::basic_string_view<char, std::__ndk1::char_traits<char> >) const
FUNC 25b6ac 1bc 0 geode::Loader::Impl::getLaunchArgument(std::__ndk1::basic_string_view<char, std::__ndk1::char_traits<char> >) const
FUNC 25b868 190 0 geode::Loader::Impl::getHandler(void*)
FUNC 25b9f8 2dc 0 geode::Loader::Impl::getOrCreateHandler(void*, tulip::hook::HandlerMetadata const&)
FUNC 25bcd4 104 0 tulip::hook::Result<unsigned long, std::__ndk1::basic_string<char, std::__ndk1::char_traits<char>, std::__ndk1::allocator<char> > >::unwrap() &
FUNC 25bdd8 c8 0 geode::Loader::Impl::isSafeMode() const
FUNC 25bea0 c 0 geode::Loader::Impl::forceSafeMode()
FUNC 25beac 14c 0 std::__ndk1::vector<ghc::filesystem::path, std::__ndk1::allocator<ghc::filesystem::path> >::__push_back_slow_path<ghc::filesystem::path>(ghc::filesystem::path&&)
FUNC 25bff8 14 0 std::__ndk1::vector<ghc::filesystem::path, std::__ndk1::allocator<ghc::filesystem::path> >::__throw_length_error[abi:v170000]() const
FUNC 25c00c 258 0 std::__ndk1::vector<geode::LoadProblem, std::__ndk1::allocator<geode::LoadProblem> >::__push_back_slow_path<geode::LoadProblem const&>(geode::LoadProblem const&)
FUNC 25c264 180 0 geode::LoadProblem::LoadProblem(geode::LoadProblem const&)
FUNC 25c3e4 c 0 std::__ndk1::__variant_detail::__visitation::__base::__dispatcher<(unsigned long)0, (unsigned long)0>::__dispatch[abi:v170000]<std::__ndk1::__variant_detail::__ctor<std::__ndk1::__variant_detail::__traits<ghc::filesystem::path, geode::ModMetadata, ghc::filesystem::path*::Mod> >::__generic_construct[abi:v170000]<std::__ndk1::__variant_detail::__copy_constructor<ghc::filesystem::path*::Mod, (std::__ndk1::__variant_detail::_Trait)1> const&>(std::__ndk1::__variant_detail::__traits<ghc::filesystem::path, geode::ModMetadata, ghc::filesystem::path*::Mod>&, std::__ndk1::__variant_detail::__copy_constructor<ghc::filesystem::path*::Mod, (std::__ndk1::__variant_detail::_Trait)1> const&)::{lambda(std::__ndk1::__variant_detail::__copy_constructor<ghc::filesystem::path*::Mod, (std::__ndk1::__variant_detail::_Trait)1> const&, auto:2&&)#1}, std::__ndk1::__variant_detail::__base<(std::__ndk1::__variant_detail::__ctor<std::__ndk1::__variant_detail::__traits<ghc::filesystem::path, geode::ModMetadata, ghc::filesystem::path*::Mod> >::__generic_construct[abi:v170000])1, ghc::filesystem, geode, ghc::filesystem::path::Mod>&, std::__ndk1::__variant_detail::__ctor<std::__ndk1::__variant_detail::__traits<ghc::filesystem::path, geode::ModMetadata, ghc::filesystem::path*::Mod> >::__generic_construct[abi:v170000]<std::__ndk1::__variant_detail::__copy_constructor<ghc::filesystem::path*::Mod, (std::__ndk1::__variant_detail::_Trait)1> const&>(std::__ndk1::__variant_detail::__traits<ghc::filesystem::path, geode::ModMetadata, ghc::filesystem::path*::Mod>&, std::__ndk1::__variant_detail::__copy_constructor<ghc::filesystem::path*::Mod, (std::__ndk1::__variant_detail::_Trait)1> const&)::{lambda(std::__ndk1::__variant_detail::__copy_constructor<ghc::filesystem::path*::Mod, (std::__ndk1::__variant_detail::_Trait)1> const&, auto:2&&)#1} const&>(std::__ndk1::__variant_detail::__copy_constructor<ghc::filesystem::path*::Mod, (std::__ndk1::__variant_detail::_Trait)1> const&, std::__ndk1::__variant_detail::__base<(std::__ndk1::__variant_detail::__ctor<std::__ndk1::__variant_detail::__traits<ghc::filesystem::path, geode::ModMetadata, ghc::filesystem::path*::Mod> >::__generic_construct[abi:v170000])1, ghc::filesystem, geode, ghc::filesystem::path::Mod>&, std::__ndk1::__variant_detail::__ctor<std::__ndk1::__variant_detail::__traits<ghc::filesystem::path, geode::ModMetadata, ghc::filesystem::path*::Mod> >::__generic_construct[abi:v170000]<std::__ndk1::__variant_detail::__copy_constructor<ghc::filesystem::path*::Mod, (std::__ndk1::__variant_detail::_Trait)1> const&>(std::__ndk1::__variant_detail::__traits<ghc::filesystem::path, geode::ModMetadata, ghc::filesystem::path*::Mod>&, std::__ndk1::__variant_detail::__copy_constructor<ghc::filesystem::path*::Mod, (std::__ndk1::__variant_detail::_Trait)1> const&)::{lambda(std::__ndk1::__variant_detail::__copy_constructor<ghc::filesystem::path*::Mod, (std::__ndk1::__variant_detail::_Trait)1> const&, auto:2&&)#1} const&)
FUNC 25c3f0 c 0 std::__ndk1::__variant_detail::__visitation::__base::__dispatcher<(unsigned long)1, (unsigned long)1>::__dispatch[abi:v170000]<std::__ndk1::__variant_detail::__ctor<std::__ndk1::__variant_detail::__traits<ghc::filesystem::path, geode::ModMetadata, ghc::filesystem::path*::Mod> >::__generic_construct[abi:v170000]<std::__ndk1::__variant_detail::__copy_constructor<ghc::filesystem::path*::Mod, (std::__ndk1::__variant_detail::_Trait)1> const&>(std::__ndk1::__variant_detail::__traits<ghc::filesystem::path, geode::ModMetadata, ghc::filesystem::path*::Mod>&, std::__ndk1::__variant_detail::__copy_constructor<ghc::filesystem::path*::Mod, (std::__ndk1::__variant_detail::_Trait)1> const&)::{lambda(std::__ndk1::__variant_detail::__copy_constructor<ghc::filesystem::path*::Mod, (std::__ndk1::__variant_detail::_Trait)1> const&, auto:2&&)#1}, std::__ndk1::__variant_detail::__base<(std::__ndk1::__variant_detail::__ctor<std::__ndk1::__variant_detail::__traits<ghc::filesystem::path, geode::ModMetadata, ghc::filesystem::path*::Mod> >::__generic_construct[abi:v170000])1, ghc::filesystem, geode, ghc::filesystem::path::Mod>&, std::__ndk1::__variant_detail::__ctor<std::__ndk1::__variant_detail::__traits<ghc::filesystem::path, geode::ModMetadata, ghc::filesystem::path*::Mod> >::__generic_construct[abi:v170000]<std::__ndk1::__variant_detail::__copy_constructor<ghc::filesystem::path*::Mod, (std::__ndk1::__variant_detail::_Trait)1> const&>(std::__ndk1::__variant_detail::__traits<ghc::filesystem::path, geode::ModMetadata, ghc::filesystem::path*::Mod>&, std::__ndk1::__variant_detail::__copy_constructor<ghc::filesystem::path*::Mod, (std::__ndk1::__variant_detail::_Trait)1> const&)::{lambda(std::__ndk1::__variant_detail::__copy_constructor<ghc::filesystem::path*::Mod, (std::__ndk1::__variant_detail::_Trait)1> const&, auto:2&&)#1} const&>(std::__ndk1::__variant_detail::__copy_constructor<ghc::filesystem::path*::Mod, (std::__ndk1::__variant_detail::_Trait)1> const&, std::__ndk1::__variant_detail::__base<(std::__ndk1::__variant_detail::__ctor<std::__ndk1::__variant_detail::__traits<ghc::filesystem::path, geode::ModMetadata, ghc::filesystem::path*::Mod> >::__generic_construct[abi:v170000])1, ghc::filesystem, geode, ghc::filesystem::path::Mod>&, std::__ndk1::__variant_detail::__ctor<std::__ndk1::__variant_detail::__traits<ghc::filesystem::path, geode::ModMetadata, ghc::filesystem::path*::Mod> >::__generic_construct[abi:v170000]<std::__ndk1::__variant_detail::__copy_constructor<ghc::filesystem::path*::Mod, (std::__ndk1::__variant_detail::_Trait)1> const&>(std::__ndk1::__variant_detail::__traits<ghc::filesystem::path, geode::ModMetadata, ghc::filesystem::path*::Mod>&, std::__ndk1::__variant_detail::__copy_constructor<ghc::filesystem::path*::Mod, (std::__ndk1::__variant_detail::_Trait)1> const&)::{lambda(std::__ndk1::__variant_detail::__copy_constructor<ghc::filesystem::path*::Mod, (std::__ndk1::__variant_detail::_Trait)1> const&, auto:2&&)#1} const&)
FUNC 25c3fc c 0 std::__ndk1::__variant_detail::__visitation::__base::__dispatcher<(unsigned long)2, (unsigned long)2>::__dispatch[abi:v170000]<std::__ndk1::__variant_detail::__ctor<std::__ndk1::__variant_detail::__traits<ghc::filesystem::path, geode::ModMetadata, ghc::filesystem::path*::Mod> >::__generic_construct[abi:v170000]<std::__ndk1::__variant_detail::__copy_constructor<ghc::filesystem::path*::Mod, (std::__ndk1::__variant_detail::_Trait)1> const&>(std::__ndk1::__variant_detail::__traits<ghc::filesystem::path, geode::ModMetadata, ghc::filesystem::path*::Mod>&, std::__ndk1::__variant_detail::__copy_constructor<ghc::filesystem::path*::Mod, (std::__ndk1::__variant_detail::_Trait)1> const&)::{lambda(std::__ndk1::__variant_detail::__copy_constructor<ghc::filesystem::path*::Mod, (std::__ndk1::__variant_detail::_Trait)1> const&, auto:2&&)#1}, std::__ndk1::__variant_detail::__base<(std::__ndk1::__variant_detail::__ctor<std::__ndk1::__variant_detail::__traits<ghc::filesystem::path, geode::ModMetadata, ghc::filesystem::path*::Mod> >::__generic_construct[abi:v170000])1, ghc::filesystem, geode, ghc::filesystem::path::Mod>&, std::__ndk1::__variant_detail::__ctor<std::__ndk1::__variant_detail::__traits<ghc::filesystem::path, geode::ModMetadata, ghc::filesystem::path*::Mod> >::__generic_construct[abi:v170000]<std::__ndk1::__variant_detail::__copy_constructor<ghc::filesystem::path*::Mod, (std::__ndk1::__variant_detail::_Trait)1> const&>(std::__ndk1::__variant_detail::__traits<ghc::filesystem::path, geode::ModMetadata, ghc::filesystem::path*::Mod>&, std::__ndk1::__variant_detail::__copy_constructor<ghc::filesystem::path*::Mod, (std::__ndk1::__variant_detail::_Trait)1> const&)::{lambda(std::__ndk1::__variant_detail::__copy_constructor<ghc::filesystem::path*::Mod, (std::__ndk1::__variant_detail::_Trait)1> const&, auto:2&&)#1} const&>(std::__ndk1::__variant_detail::__copy_constructor<ghc::filesystem::path*::Mod, (std::__ndk1::__variant_detail::_Trait)1> const&, std::__ndk1::__variant_detail::__base<(std::__ndk1::__variant_detail::__ctor<std::__ndk1::__variant_detail::__traits<ghc::filesystem::path, geode::ModMetadata, ghc::filesystem::path*::Mod> >::__generic_construct[abi:v170000])1, ghc::filesystem, geode, ghc::filesystem::path::Mod>&, std::__ndk1::__variant_detail::__ctor<std::__ndk1::__variant_detail::__traits<ghc::filesystem::path, geode::ModMetadata, ghc::filesystem::path*::Mod> >::__generic_construct[abi:v170000]<std::__ndk1::__variant_detail::__copy_constructor<ghc::filesystem::path*::Mod, (std::__ndk1::__variant_detail::_Trait)1> const&>(std::__ndk1::__variant_detail::__traits<ghc::filesystem::path, geode::ModMetadata, ghc::filesystem::path*::Mod>&, std::__ndk1::__variant_detail::__copy_constructor<ghc::filesystem::path*::Mod, (std::__ndk1::__variant_detail::_Trait)1> const&)::{lambda(std::__ndk1::__variant_detail::__copy_constructor<ghc::filesystem::path*::Mod, (std::__ndk1::__variant_detail::_Trait)1> const&, auto:2&&)#1} const&)
FUNC 25c408 c8 0 std::__ndk1::__split_buffer<geode::LoadProblem, std::__ndk1::allocator<geode::LoadProblem>&>::~__split_buffer()
FUNC 25c4d0 14 0 std::__ndk1::vector<geode::LoadProblem, std::__ndk1::allocator<geode::LoadProblem> >::__throw_length_error[abi:v170000]() const
FUNC 25c4e4 c 0 std::__ndk1::__variant_detail::__visitation::__base::__dispatcher<(unsigned long)0, (unsigned long)0>::__dispatch[abi:v170000]<std::__ndk1::__variant_detail::__ctor<std::__ndk1::__variant_detail::__traits<ghc::filesystem::path, geode::ModMetadata, ghc::filesystem::path*::Mod> >::__generic_construct[abi:v170000]<std::__ndk1::__variant_detail::__move_constructor<ghc::filesystem::path*::Mod, (std::__ndk1::__variant_detail::_Trait)1> >(std::__ndk1::__variant_detail::__traits<ghc::filesystem::path, geode::ModMetadata, ghc::filesystem::path*::Mod>&, std::__ndk1::__variant_detail::__move_constructor<ghc::filesystem::path*::Mod, (std::__ndk1::__variant_detail::_Trait)1>&&)::{lambda(std::__ndk1::__variant_detail::__move_constructor<ghc::filesystem::path*::Mod, (std::__ndk1::__variant_detail::_Trait)1>&, auto:2&&)#1}, std::__ndk1::__variant_detail::__base<(std::__ndk1::__variant_detail::__ctor<std::__ndk1::__variant_detail::__traits<ghc::filesystem::path, geode::ModMetadata, ghc::filesystem::path*::Mod> >::__generic_construct[abi:v170000])1, ghc::filesystem, geode, ghc::filesystem::path::Mod>&, std::__ndk1::__variant_detail::__ctor<std::__ndk1::__variant_detail::__traits<ghc::filesystem::path, geode::ModMetadata, ghc::filesystem::path*::Mod> >::__generic_construct[abi:v170000]<std::__ndk1::__variant_detail::__move_constructor<ghc::filesystem::path*::Mod, (std::__ndk1::__variant_detail::_Trait)1> >(std::__ndk1::__variant_detail::__traits<ghc::filesystem::path, geode::ModMetadata, ghc::filesystem::path*::Mod>&, std::__ndk1::__variant_detail::__move_constructor<ghc::filesystem::path*::Mod, (std::__ndk1::__variant_detail::_Trait)1>&&)::{lambda(std::__ndk1::__variant_detail::__move_constructor<ghc::filesystem::path*::Mod, (std::__ndk1::__variant_detail::_Trait)1>&, auto:2&&)#1}>(std::__ndk1::__variant_detail::__move_constructor<ghc::filesystem::path*::Mod, (std::__ndk1::__variant_detail::_Trait)1>, std::__ndk1::__variant_detail::__base<(std::__ndk1::__variant_detail::__ctor<std::__ndk1::__variant_detail::__traits<ghc::filesystem::path, geode::ModMetadata, ghc::filesystem::path*::Mod> >::__generic_construct[abi:v170000])1, ghc::filesystem, geode, ghc::filesystem::path::Mod>&, std::__ndk1::__variant_detail::__ctor<std::__ndk1::__variant_detail::__traits<ghc::filesystem::path, geode::ModMetadata, ghc::filesystem::path*::Mod> >::__generic_construct[abi:v170000]<std::__ndk1::__variant_detail::__move_constructor<ghc::filesystem::path*::Mod, (std::__ndk1::__variant_detail::_Trait)1> >(std::__ndk1::__variant_detail::__traits<ghc::filesystem::path, geode::ModMetadata, ghc::filesystem::path*::Mod>&, std::__ndk1::__variant_detail::__move_constructor<ghc::filesystem::path*::Mod, (std::__ndk1::__variant_detail::_Trait)1>&&)::{lambda(std::__ndk1::__variant_detail::__move_constructor<ghc::filesystem::path*::Mod, (std::__ndk1::__variant_detail::_Trait)1>&, auto:2&&)#1})
FUNC 25c4f0 c 0 std::__ndk1::__variant_detail::__visitation::__base::__dispatcher<(unsigned long)1, (unsigned long)1>::__dispatch[abi:v170000]<std::__ndk1::__variant_detail::__ctor<std::__ndk1::__variant_detail::__traits<ghc::filesystem::path, geode::ModMetadata, ghc::filesystem::path*::Mod> >::__generic_construct[abi:v170000]<std::__ndk1::__variant_detail::__move_constructor<ghc::filesystem::path*::Mod, (std::__ndk1::__variant_detail::_Trait)1> >(std::__ndk1::__variant_detail::__traits<ghc::filesystem::path, geode::ModMetadata, ghc::filesystem::path*::Mod>&, std::__ndk1::__variant_detail::__move_constructor<ghc::filesystem::path*::Mod, (std::__ndk1::__variant_detail::_Trait)1>&&)::{lambda(std::__ndk1::__variant_detail::__move_constructor<ghc::filesystem::path*::Mod, (std::__ndk1::__variant_detail::_Trait)1>&, auto:2&&)#1}, std::__ndk1::__variant_detail::__base<(std::__ndk1::__variant_detail::__ctor<std::__ndk1::__variant_detail::__traits<ghc::filesystem::path, geode::ModMetadata, ghc::filesystem::path*::Mod> >::__generic_construct[abi:v170000])1, ghc::filesystem, geode, ghc::filesystem::path::Mod>&, std::__ndk1::__variant_detail::__ctor<std::__ndk1::__variant_detail::__traits<ghc::filesystem::path, geode::ModMetadata, ghc::filesystem::path*::Mod> >::__generic_construct[abi:v170000]<std::__ndk1::__variant_detail::__move_constructor<ghc::filesystem::path*::Mod, (std::__ndk1::__variant_detail::_Trait)1> >(std::__ndk1::__variant_detail::__traits<ghc::filesystem::path, geode::ModMetadata, ghc::filesystem::path*::Mod>&, std::__ndk1::__variant_detail::__move_constructor<ghc::filesystem::path*::Mod, (std::__ndk1::__variant_detail::_Trait)1>&&)::{lambda(std::__ndk1::__variant_detail::__move_constructor<ghc::filesystem::path*::Mod, (std::__ndk1::__variant_detail::_Trait)1>&, auto:2&&)#1}>(std::__ndk1::__variant_detail::__move_constructor<ghc::filesystem::path*::Mod, (std::__ndk1::__variant_detail::_Trait)1>, std::__ndk1::__variant_detail::__base<(std::__ndk1::__variant_detail::__ctor<std::__ndk1::__variant_detail::__traits<ghc::filesystem::path, geode::ModMetadata, ghc::filesystem::path*::Mod> >::__generic_construct[abi:v170000])1, ghc::filesystem, geode, ghc::filesystem::path::Mod>&, std::__ndk1::__variant_detail::__ctor<std::__ndk1::__variant_detail::__traits<ghc::filesystem::path, geode::ModMetadata, ghc::filesystem::path*::Mod> >::__generic_construct[abi:v170000]<std::__ndk1::__variant_detail::__move_constructor<ghc::filesystem::path*::Mod, (std::__ndk1::__variant_detail::_Trait)1> >(std::__ndk1::__variant_detail::__traits<ghc::filesystem::path, geode::ModMetadata, ghc::filesystem::path*::Mod>&, std::__ndk1::__variant_detail::__move_constructor<ghc::filesystem::path*::Mod, (std::__ndk1::__variant_detail::_Trait)1>&&)::{lambda(std::__ndk1::__variant_detail::__move_constructor<ghc::filesystem::path*::Mod, (std::__ndk1::__variant_detail::_Trait)1>&, auto:2&&)#1})
FUNC 25c4fc c 0 std::__ndk1::__variant_detail::__visitation::__base::__dispatcher<(unsigned long)2, (unsigned long)2>::__dispatch[abi:v170000]<std::__ndk1::__variant_detail::__ctor<std::__ndk1::__variant_detail::__traits<ghc::filesystem::path, geode::ModMetadata, ghc::filesystem::path*::Mod> >::__generic_construct[abi:v170000]<std::__ndk1::__variant_detail::__move_constructor<ghc::filesystem::path*::Mod, (std::__ndk1::__variant_detail::_Trait)1> >(std::__ndk1::__variant_detail::__traits<ghc::filesystem::path, geode::ModMetadata, ghc::filesystem::path*::Mod>&, std::__ndk1::__variant_detail::__move_constructor<ghc::filesystem::path*::Mod, (std::__ndk1::__variant_detail::_Trait)1>&&)::{lambda(std::__ndk1::__variant_detail::__move_constructor<ghc::filesystem::path*::Mod, (std::__ndk1::__variant_detail::_Trait)1>&, auto:2&&)#1}, std::__ndk1::__variant_detail::__base<(std::__ndk1::__variant_detail::__ctor<std::__ndk1::__variant_detail::__traits<ghc::filesystem::path, geode::ModMetadata, ghc::filesystem::path*::Mod> >::__generic_construct[abi:v170000])1, ghc::filesystem, geode, ghc::filesystem::path::Mod>&, std::__ndk1::__variant_detail::__ctor<std::__ndk1::__variant_detail::__traits<ghc::filesystem::path, geode::ModMetadata, ghc::filesystem::path*::Mod> >::__generic_construct[abi:v170000]<std::__ndk1::__variant_detail::__move_constructor<ghc::filesystem::path*::Mod, (std::__ndk1::__variant_detail::_Trait)1> >(std::__ndk1::__variant_detail::__traits<ghc::filesystem::path, geode::ModMetadata, ghc::filesystem::path*::Mod>&, std::__ndk1::__variant_detail::__move_constructor<ghc::filesystem::path*::Mod, (std::__ndk1::__variant_detail::_Trait)1>&&)::{lambda(std::__ndk1::__variant_detail::__move_constructor<ghc::filesystem::path*::Mod, (std::__ndk1::__variant_detail::_Trait)1>&, auto:2&&)#1}>(std::__ndk1::__variant_detail::__move_constructor<ghc::filesystem::path*::Mod, (std::__ndk1::__variant_detail::_Trait)1>, std::__ndk1::__variant_detail::__base<(std::__ndk1::__variant_detail::__ctor<std::__ndk1::__variant_detail::__traits<ghc::filesystem::path, geode::ModMetadata, ghc::filesystem::path*::Mod> >::__generic_construct[abi:v170000])1, ghc::filesystem, geode, ghc::filesystem::path::Mod>&, std::__ndk1::__variant_detail::__ctor<std::__ndk1::__variant_detail::__traits<ghc::filesystem::path, geode::ModMetadata, ghc::filesystem::path*::Mod> >::__generic_construct[abi:v170000]<std::__ndk1::__variant_detail::__move_constructor<ghc::filesystem::path*::Mod, (std::__ndk1::__variant_detail::_Trait)1> >(std::__ndk1::__variant_detail::__traits<ghc::filesystem::path, geode::ModMetadata, ghc::filesystem::path*::Mod>&, std::__ndk1::__variant_detail::__move_constructor<ghc::filesystem::path*::Mod, (std::__ndk1::__variant_detail::_Trait)1>&&)::{lambda(std::__ndk1::__variant_detail::__move_constructor<ghc::filesystem::path*::Mod, (std::__ndk1::__variant_detail::_Trait)1>&, auto:2&&)#1})
FUNC 25c508 1c0 0 std::__ndk1::vector<geode::ModMetadata, std::__ndk1::allocator<geode::ModMetadata> >::__push_back_slow_path<geode::ModMetadata const&>(geode::ModMetadata const&)
FUNC 25c6c8 54 0 std::__ndk1::__split_buffer<geode::ModMetadata, std::__ndk1::allocator<geode::ModMetadata>&>::~__split_buffer()
FUNC 25c71c 14 0 std::__ndk1::vector<geode::ModMetadata, std::__ndk1::allocator<geode::ModMetadata> >::__throw_length_error[abi:v170000]() const
FUNC 25c730 14 0 std::__ndk1::vector<geode::Mod*, std::__ndk1::allocator<geode::Mod*> >::__throw_length_error[abi:v170000]() const
FUNC 25c744 e8 0 std::__ndk1::__exception_guard<std::__ndk1::vector<geode::LoadProblem, std::__ndk1::allocator<geode::LoadProblem> >::__destroy_vector>::~__exception_guard[abi:v170000]()
FUNC 25c82c c4 0 std::__ndk1::__exception_guard<std::__ndk1::_AllocatorDestroyRangeReverse<std::__ndk1::allocator<geode::LoadProblem>, geode::LoadProblem*> >::~__exception_guard[abi:v170000]()
FUNC 25c8f0 14 0 std::__ndk1::vector<std::__ndk1::pair<geode::Hook*, geode::Mod*>, std::__ndk1::allocator<std::__ndk1::pair<geode::Hook*, geode::Mod*> > >::__throw_length_error[abi:v170000]() const
FUNC 25c904 274 0 std::__ndk1::vector<geode::utils::MiniFunction<void ()>, std::__ndk1::allocator<geode::utils::MiniFunction<void ()> > >::__push_back_slow_path<geode::utils::MiniFunction<void ()> const&>(geode::utils::MiniFunction<void ()> const&)
FUNC 25cb78 5c 0 std::__ndk1::__split_buffer<geode::utils::MiniFunction<void ()>, std::__ndk1::allocator<geode::utils::MiniFunction<void ()> >&>::~__split_buffer()
FUNC 25cbd4 14 0 std::__ndk1::vector<geode::utils::MiniFunction<void ()>, std::__ndk1::allocator<geode::utils::MiniFunction<void ()> > >::__throw_length_error[abi:v170000]() const
FUNC 25cbe8 88 0 std::__ndk1::__exception_guard<std::__ndk1::vector<geode::utils::MiniFunction<void ()>, std::__ndk1::allocator<geode::utils::MiniFunction<void ()> > >::__destroy_vector>::~__exception_guard[abi:v170000]()
FUNC 25cc70 14 0 std::__ndk1::basic_string<char, std::__ndk1::char_traits<char>, std::__ndk1::allocator<char> >::__throw_out_of_range[abi:v170000]() const
FUNC 25cc84 40 0 tulip::hook::lib::bitwizeshift::bad_result_access<std::__ndk1::basic_string<char, std::__ndk1::char_traits<char>, std::__ndk1::allocator<char> > >::~bad_result_access()
FUNC 25ccc4 48 0 tulip::hook::lib::bitwizeshift::bad_result_access<std::__ndk1::basic_string<char, std::__ndk1::char_traits<char>, std::__ndk1::allocator<char> > >::~bad_result_access()
FUNC 25cd0c 3d8 0 std::__ndk1::__hash_table<std::__ndk1::__hash_value_type<std::__ndk1::basic_string<char, std::__ndk1::char_traits<char>, std::__ndk1::allocator<char> >, std::__ndk1::basic_string<char, std::__ndk1::char_traits<char>, std::__ndk1::allocator<char> > >, std::__ndk1::__unordered_map_hasher<std::__ndk1::basic_string<char, std::__ndk1::char_traits<char>, std::__ndk1::allocator<char> >, std::__ndk1::__hash_value_type<std::__ndk1::basic_string<char, std::__ndk1::char_traits<char>, std::__ndk1::allocator<char> >, std::__ndk1::basic_string<char, std::__ndk1::char_traits<char>, std::__ndk1::allocator<char> > >, std::__ndk1::hash<std::__ndk1::basic_string<char, std::__ndk1::char_traits<char>, std::__ndk1::allocator<char> > >, std::__ndk1::equal_to<std::__ndk1::basic_string<char, std::__ndk1::char_traits<char>, std::__ndk1::allocator<char> > >, true>, std::__ndk1::__unordered_map_equal<std::__ndk1::basic_string<char, std::__ndk1::char_traits<char>, std::__ndk1::allocator<char> >, std::__ndk1::__hash_value_type<std::__ndk1::basic_string<char, std::__ndk1::char_traits<char>, std::__ndk1::allocator<char> >, std::__ndk1::basic_string<char, std::__ndk1::char_traits<char>, std::__ndk1::allocator<char> > >, std::__ndk1::equal_to<std::__ndk1::basic_string<char, std::__ndk1::char_traits<char>, std::__ndk1::allocator<char> > >, std::__ndk1::hash<std::__ndk1::basic_string<char, std::__ndk1::char_traits<char>, std::__ndk1::allocator<char> > >, true>, std::__ndk1::allocator<std::__ndk1::__hash_value_type<std::__ndk1::basic_string<char, std::__ndk1::char_traits<char>, std::__ndk1::allocator<char> >, std::__ndk1::basic_string<char, std::__ndk1::char_traits<char>, std::__ndk1::allocator<char> > > > >::__emplace_unique_key_args<std::__ndk1::basic_string<char, std::__ndk1::char_traits<char>, std::__ndk1::allocator<char> >, std::__ndk1::pair<std::__ndk1::basic_string<char, std::__ndk1::char_traits<char>, std::__ndk1::allocator<char> > const, std::__ndk1::basic_string<char, std::__ndk1::char_traits<char>, std::__ndk1::allocator<char> > > const&>(std::__ndk1::basic_string<char, std::__ndk1::char_traits<char>, std::__ndk1::allocator<char> > const&, std::__ndk1::pair<std::__ndk1::basic_string<char, std::__ndk1::char_traits<char>, std::__ndk1::allocator<char> > const, std::__ndk1::basic_string<char, std::__ndk1::char_traits<char>, std::__ndk1::allocator<char> > > const&)
FUNC 25d0e4 5c 0 std::__ndk1::unique_ptr<std::__ndk1::__hash_node<std::__ndk1::__hash_value_type<std::__ndk1::basic_string<char, std::__ndk1::char_traits<char>, std::__ndk1::allocator<char> >, std::__ndk1::basic_string<char, std::__ndk1::char_traits<char>, std::__ndk1::allocator<char> > >, void*>, std::__ndk1::__hash_node_destructor<std::__ndk1::allocator<std::__ndk1::__hash_node<std::__ndk1::__hash_value_type<std::__ndk1::basic_string<char, std::__ndk1::char_traits<char>, std::__ndk1::allocator<char> >, std::__ndk1::basic_string<char, std::__ndk1::char_traits<char>, std::__ndk1::allocator<char> > >, void*> > > >::~unique_ptr[abi:v170000]()
FUNC 25d140 138 0 std::__ndk1::pair<std::__ndk1::basic_string<char, std::__ndk1::char_traits<char>, std::__ndk1::allocator<char> > const, std::__ndk1::basic_string<char, std::__ndk1::char_traits<char>, std::__ndk1::allocator<char> > >::pair(std::__ndk1::pair<std::__ndk1::basic_string<char, std::__ndk1::char_traits<char>, std::__ndk1::allocator<char> > const, std::__ndk1::basic_string<char, std::__ndk1::char_traits<char>, std::__ndk1::allocator<char> > > const&)
FUNC 25d278 15c 0 std::__ndk1::__hash_table<std::__ndk1::__hash_value_type<std::__ndk1::basic_string<char, std::__ndk1::char_traits<char>, std::__ndk1::allocator<char> >, std::__ndk1::basic_string<char, std::__ndk1::char_traits<char>, std::__ndk1::allocator<char> > >, std::__ndk1::__unordered_map_hasher<std::__ndk1::basic_string<char, std::__ndk1::char_traits<char>, std::__ndk1::allocator<char> >, std::__ndk1::__hash_value_type<std::__ndk1::basic_string<char, std::__ndk1::char_traits<char>, std::__ndk1::allocator<char> >, std::__ndk1::basic_string<char, std::__ndk1::char_traits<char>, std::__ndk1::allocator<char> > >, std::__ndk1::hash<std::__ndk1::basic_string<char, std::__ndk1::char_traits<char>, std::__ndk1::allocator<char> > >, std::__ndk1::equal_to<std::__ndk1::basic_string<char, std::__ndk1::char_traits<char>, std::__ndk1::allocator<char> > >, true>, std::__ndk1::__unordered_map_equal<std::__ndk1::basic_string<char, std::__ndk1::char_traits<char>, std::__ndk1::allocator<char> >, std::__ndk1::__hash_value_type<std::__ndk1::basic_string<char, std::__ndk1::char_traits<char>, std::__ndk1::allocator<char> >, std::__ndk1::basic_string<char, std::__ndk1::char_traits<char>, std::__ndk1::allocator<char> > >, std::__ndk1::equal_to<std::__ndk1::basic_string<char, std::__ndk1::char_traits<char>, std::__ndk1::allocator<char> > >, std::__ndk1::hash<std::__ndk1::basic_string<char, std::__ndk1::char_traits<char>, std::__ndk1::allocator<char> > >, true>, std::__ndk1::allocator<std::__ndk1::__hash_value_type<std::__ndk1::basic_string<char, std::__ndk1::char_traits<char>, std::__ndk1::allocator<char> >, std::__ndk1::basic_string<char, std::__ndk1::char_traits<char>, std::__ndk1::allocator<char> > > > >::__do_rehash<true>(unsigned long)
FUNC 25d3d4 1c0 0 std::__ndk1::__hash_table<std::__ndk1::__hash_value_type<std::__ndk1::basic_string<char, std::__ndk1::char_traits<char>, std::__ndk1::allocator<char> >, geode::Mod*>, std::__ndk1::__unordered_map_hasher<std::__ndk1::basic_string<char, std::__ndk1::char_traits<char>, std::__ndk1::allocator<char> >, std::__ndk1::__hash_value_type<std::__ndk1::basic_string<char, std::__ndk1::char_traits<char>, std::__ndk1::allocator<char> >, geode::Mod*>, std::__ndk1::hash<std::__ndk1::basic_string<char, std::__ndk1::char_traits<char>, std::__ndk1::allocator<char> > >, std::__ndk1::equal_to<std::__ndk1::basic_string<char, std::__ndk1::char_traits<char>, std::__ndk1::allocator<char> > >, true>, std::__ndk1::__unordered_map_equal<std::__ndk1::basic_string<char, std::__ndk1::char_traits<char>, std::__ndk1::allocator<char> >, std::__ndk1::__hash_value_type<std::__ndk1::basic_string<char, std::__ndk1::char_traits<char>, std::__ndk1::allocator<char> >, geode::Mod*>, std::__ndk1::equal_to<std::__ndk1::basic_string<char, std::__ndk1::char_traits<char>, std::__ndk1::allocator<char> > >, std::__ndk1::hash<std::__ndk1::basic_string<char, std::__ndk1::char_traits<char>, std::__ndk1::allocator<char> > >, true>, std::__ndk1::allocator<std::__ndk1::__hash_value_type<std::__ndk1::basic_string<char, std::__ndk1::char_traits<char>, std::__ndk1::allocator<char> >, geode::Mod*> > >::find<std::__ndk1::basic_string<char, std::__ndk1::char_traits<char>, std::__ndk1::allocator<char> > >(std::__ndk1::basic_string<char, std::__ndk1::char_traits<char>, std::__ndk1::allocator<char> > const&) const
FUNC 25d594 1c0 0 std::__ndk1::__hash_table<std::__ndk1::__hash_value_type<std::__ndk1::basic_string<char, std::__ndk1::char_traits<char>, std::__ndk1::allocator<char> >, geode::Mod*>, std::__ndk1::__unordered_map_hasher<std::__ndk1::basic_string<char, std::__ndk1::char_traits<char>, std::__ndk1::allocator<char> >, std::__ndk1::__hash_value_type<std::__ndk1::basic_string<char, std::__ndk1::char_traits<char>, std::__ndk1::allocator<char> >, geode::Mod*>, std::__ndk1::hash<std::__ndk1::basic_string<char, std::__ndk1::char_traits<char>, std::__ndk1::allocator<char> > >, std::__ndk1::equal_to<std::__ndk1::basic_string<char, std::__ndk1::char_traits<char>, std::__ndk1::allocator<char> > >, true>, std::__ndk1::__unordered_map_equal<std::__ndk1::basic_string<char, std::__ndk1::char_traits<char>, std::__ndk1::allocator<char> >, std::__ndk1::__hash_value_type<std::__ndk1::basic_string<char, std::__ndk1::char_traits<char>, std::__ndk1::allocator<char> >, geode::Mod*>, std::__ndk1::equal_to<std::__ndk1::basic_string<char, std::__ndk1::char_traits<char>, std::__ndk1::allocator<char> > >, std::__ndk1::hash<std::__ndk1::basic_string<char, std::__ndk1::char_traits<char>, std::__ndk1::allocator<char> > >, true>, std::__ndk1::allocator<std::__ndk1::__hash_value_type<std::__ndk1::basic_string<char, std::__ndk1::char_traits<char>, std::__ndk1::allocator<char> >, geode::Mod*> > >::find<std::__ndk1::basic_string<char, std::__ndk1::char_traits<char>, std::__ndk1::allocator<char> > >(std::__ndk1::basic_string<char, std::__ndk1::char_traits<char>, std::__ndk1::allocator<char> > const&)
FUNC 25d754 134 0 std::__ndk1::__hash_table<std::__ndk1::__hash_value_type<std::__ndk1::basic_string<char, std::__ndk1::char_traits<char>, std::__ndk1::allocator<char> >, geode::Mod*>, std::__ndk1::__unordered_map_hasher<std::__ndk1::basic_string<char, std::__ndk1::char_traits<char>, std::__ndk1::allocator<char> >, std::__ndk1::__hash_value_type<std::__ndk1::basic_string<char, std::__ndk1::char_traits<char>, std::__ndk1::allocator<char> >, geode::Mod*>, std::__ndk1::hash<std::__ndk1::basic_string<char, std::__ndk1::char_traits<char>, std::__ndk1::allocator<char> > >, std::__ndk1::equal_to<std::__ndk1::basic_string<char, std::__ndk1::char_traits<char>, std::__ndk1::allocator<char> > >, true>, std::__ndk1::__unordered_map_equal<std::__ndk1::basic_string<char, std::__ndk1::char_traits<char>, std::__ndk1::allocator<char> >, std::__ndk1::__hash_value_type<std::__ndk1::basic_string<char, std::__ndk1::char_traits<char>, std::__ndk1::allocator<char> >, geode::Mod*>, std::__ndk1::equal_to<std::__ndk1::basic_string<char, std::__ndk1::char_traits<char>, std::__ndk1::allocator<char> > >, std::__ndk1::hash<std::__ndk1::basic_string<char, std::__ndk1::char_traits<char>, std::__ndk1::allocator<char> > >, true>, std::__ndk1::allocator<std::__ndk1::__hash_value_type<std::__ndk1::basic_string<char, std::__ndk1::char_traits<char>, std::__ndk1::allocator<char> >, geode::Mod*> > >::remove(std::__ndk1::__hash_const_iterator<std::__ndk1::__hash_node<std::__ndk1::__hash_value_type<std::__ndk1::basic_string<char, std::__ndk1::char_traits<char>, std::__ndk1::allocator<char> >, geode::Mod*>, void*>*>)
FUNC 25d888 4c 0 std::__ndk1::unique_ptr<std::__ndk1::__hash_node<std::__ndk1::__hash_value_type<std::__ndk1::basic_string<char, std::__ndk1::char_traits<char>, std::__ndk1::allocator<char> >, geode::Mod*>, void*>, std::__ndk1::__hash_node_destructor<std::__ndk1::allocator<std::__ndk1::__hash_node<std::__ndk1::__hash_value_type<std::__ndk1::basic_string<char, std::__ndk1::char_traits<char>, std::__ndk1::allocator<char> >, geode::Mod*>, void*> > > >::~unique_ptr[abi:v170000]()
FUNC 25d8d4 3d0 0 std::__ndk1::__hash_table<std::__ndk1::__hash_value_type<std::__ndk1::basic_string<char, std::__ndk1::char_traits<char>, std::__ndk1::allocator<char> >, geode::Mod*>, std::__ndk1::__unordered_map_hasher<std::__ndk1::basic_string<char, std::__ndk1::char_traits<char>, std::__ndk1::allocator<char> >, std::__ndk1::__hash_value_type<std::__ndk1::basic_string<char, std::__ndk1::char_traits<char>, std::__ndk1::allocator<char> >, geode::Mod*>, std::__ndk1::hash<std::__ndk1::basic_string<char, std::__ndk1::char_traits<char>, std::__ndk1::allocator<char> > >, std::__ndk1::equal_to<std::__ndk1::basic_string<char, std::__ndk1::char_traits<char>, std::__ndk1::allocator<char> > >, true>, std::__ndk1::__unordered_map_equal<std::__ndk1::basic_string<char, std::__ndk1::char_traits<char>, std::__ndk1::allocator<char> >, std::__ndk1::__hash_value_type<std::__ndk1::basic_string<char, std::__ndk1::char_traits<char>, std::__ndk1::allocator<char> >, geode::Mod*>, std::__ndk1::equal_to<std::__ndk1::basic_string<char, std::__ndk1::char_traits<char>, std::__ndk1::allocator<char> > >, std::__ndk1::hash<std::__ndk1::basic_string<char, std::__ndk1::char_traits<char>, std::__ndk1::allocator<char> > >, true>, std::__ndk1::allocator<std::__ndk1::__hash_value_type<std::__ndk1::basic_string<char, std::__ndk1::char_traits<char>, std::__ndk1::allocator<char> >, geode::Mod*> > >::__emplace_unique_key_args<std::__ndk1::basic_string<char, std::__ndk1::char_traits<char>, std::__ndk1::allocator<char> >, std::__ndk1::pair<std::__ndk1::basic_string<char, std::__ndk1::char_traits<char>, std::__ndk1::allocator<char> > const, geode::Mod*> >(std::__ndk1::basic_string<char, std::__ndk1::char_traits<char>, std::__ndk1::allocator<char> > const&, std::__ndk1::pair<std::__ndk1::basic_string<char, std::__ndk1::char_traits<char>, std::__ndk1::allocator<char> > const, geode::Mod*>&&)
FUNC 25dca4 ec 0 std::__ndk1::__hash_table<std::__ndk1::__hash_value_type<std::__ndk1::basic_string<char, std::__ndk1::char_traits<char>, std::__ndk1::allocator<char> >, geode::Mod*>, std::__ndk1::__unordered_map_hasher<std::__ndk1::basic_string<char, std::__ndk1::char_traits<char>, std::__ndk1::allocator<char> >, std::__ndk1::__hash_value_type<std::__ndk1::basic_string<char, std::__ndk1::char_traits<char>, std::__ndk1::allocator<char> >, geode::Mod*>, std::__ndk1::hash<std::__ndk1::basic_string<char, std::__ndk1::char_traits<char>, std::__ndk1::allocator<char> > >, std::__ndk1::equal_to<std::__ndk1::basic_string<char, std::__ndk1::char_traits<char>, std::__ndk1::allocator<char> > >, true>, std::__ndk1::__unordered_map_equal<std::__ndk1::basic_string<char, std::__ndk1::char_traits<char>, std::__ndk1::allocator<char> >, std::__ndk1::__hash_value_type<std::__ndk1::basic_string<char, std::__ndk1::char_traits<char>, std::__ndk1::allocator<char> >, geode::Mod*>, std::__ndk1::equal_to<std::__ndk1::basic_string<char, std::__ndk1::char_traits<char>, std::__ndk1::allocator<char> > >, std::__ndk1::hash<std::__ndk1::basic_string<char, std::__ndk1::char_traits<char>, std::__ndk1::allocator<char> > >, true>, std::__ndk1::allocator<std::__ndk1::__hash_value_type<std::__ndk1::basic_string<char, std::__ndk1::char_traits<char>, std::__ndk1::allocator<char> >, geode::Mod*> > >::__construct_node_hash<std::__ndk1::pair<std::__ndk1::basic_string<char, std::__ndk1::char_traits<char>, std::__ndk1::allocator<char> > const, geode::Mod*>, >(unsigned long, std::__ndk1::pair<std::__ndk1::basic_string<char, std::__ndk1::char_traits<char>, std::__ndk1::allocator<char> > const, geode::Mod*>&&, &&)
FUNC 25dd90 15c 0 std::__ndk1::__hash_table<std::__ndk1::__hash_value_type<std::__ndk1::basic_string<char, std::__ndk1::char_traits<char>, std::__ndk1::allocator<char> >, geode::Mod*>, std::__ndk1::__unordered_map_hasher<std::__ndk1::basic_string<char, std::__ndk1::char_traits<char>, std::__ndk1::allocator<char> >, std::__ndk1::__hash_value_type<std::__ndk1::basic_string<char, std::__ndk1::char_traits<char>, std::__ndk1::allocator<char> >, geode::Mod*>, std::__ndk1::hash<std::__ndk1::basic_string<char, std::__ndk1::char_traits<char>, std::__ndk1::allocator<char> > >, std::__ndk1::equal_to<std::__ndk1::basic_string<char, std::__ndk1::char_traits<char>, std::__ndk1::allocator<char> > >, true>, std::__ndk1::__unordered_map_equal<std::__ndk1::basic_string<char, std::__ndk1::char_traits<char>, std::__ndk1::allocator<char> >, std::__ndk1::__hash_value_type<std::__ndk1::basic_string<char, std::__ndk1::char_traits<char>, std::__ndk1::allocator<char> >, geode::Mod*>, std::__ndk1::equal_to<std::__ndk1::basic_string<char, std::__ndk1::char_traits<char>, std::__ndk1::allocator<char> > >, std::__ndk1::hash<std::__ndk1::basic_string<char, std::__ndk1::char_traits<char>, std::__ndk1::allocator<char> > >, true>, std::__ndk1::allocator<std::__ndk1::__hash_value_type<std::__ndk1::basic_string<char, std::__ndk1::char_traits<char>, std::__ndk1::allocator<char> >, geode::Mod*> > >::__do_rehash<true>(unsigned long)
FUNC 25deec 3f0 0 std::__ndk1::__hash_table<std::__ndk1::__hash_value_type<std::__ndk1::basic_string<char, std::__ndk1::char_traits<char>, std::__ndk1::allocator<char> >, geode::Mod*>, std::__ndk1::__unordered_map_hasher<std::__ndk1::basic_string<char, std::__ndk1::char_traits<char>, std::__ndk1::allocator<char> >, std::__ndk1::__hash_value_type<std::__ndk1::basic_string<char, std::__ndk1::char_traits<char>, std::__ndk1::allocator<char> >, geode::Mod*>, std::__ndk1::hash<std::__ndk1::basic_string<char, std::__ndk1::char_traits<char>, std::__ndk1::allocator<char> > >, std::__ndk1::equal_to<std::__ndk1::basic_string<char, std::__ndk1::char_traits<char>, std::__ndk1::allocator<char> > >, true>, std::__ndk1::__unordered_map_equal<std::__ndk1::basic_string<char, std::__ndk1::char_traits<char>, std::__ndk1::allocator<char> >, std::__ndk1::__hash_value_type<std::__ndk1::basic_string<char, std::__ndk1::char_traits<char>, std::__ndk1::allocator<char> >, geode::Mod*>, std::__ndk1::equal_to<std::__ndk1::basic_string<char, std::__ndk1::char_traits<char>, std::__ndk1::allocator<char> > >, std::__ndk1::hash<std::__ndk1::basic_string<char, std::__ndk1::char_traits<char>, std::__ndk1::allocator<char> > >, true>, std::__ndk1::allocator<std::__ndk1::__hash_value_type<std::__ndk1::basic_string<char, std::__ndk1::char_traits<char>, std::__ndk1::allocator<char> >, geode::Mod*> > >::__emplace_unique_key_args<std::__ndk1::basic_string<char, std::__ndk1::char_traits<char>, std::__ndk1::allocator<char> >, std::__ndk1::piecewise_construct_t const&, std::__ndk1::tuple<std::__ndk1::basic_string<char, std::__ndk1::char_traits<char>, std::__ndk1::allocator<char> > const&>, std::__ndk1::tuple<> >(std::__ndk1::basic_string<char, std::__ndk1::char_traits<char>, std::__ndk1::allocator<char> > const&, std::__ndk1::piecewise_construct_t const&, std::__ndk1::tuple<std::__ndk1::basic_string<char, std::__ndk1::char_traits<char>, std::__ndk1::allocator<char> > const&>, std::__ndk1::tuple<>)
FUNC 25e2dc e4 0 std::__ndk1::__hash_table<std::__ndk1::__hash_value_type<std::__ndk1::basic_string<char, std::__ndk1::char_traits<char>, std::__ndk1::allocator<char> >, geode::Mod*>, std::__ndk1::__unordered_map_hasher<std::__ndk1::basic_string<char, std::__ndk1::char_traits<char>, std::__ndk1::allocator<char> >, std::__ndk1::__hash_value_type<std::__ndk1::basic_string<char, std::__ndk1::char_traits<char>, std::__ndk1::allocator<char> >, geode::Mod*>, std::__ndk1::hash<std::__ndk1::basic_string<char, std::__ndk1::char_traits<char>, std::__ndk1::allocator<char> > >, std::__ndk1::equal_to<std::__ndk1::basic_string<char, std::__ndk1::char_traits<char>, std::__ndk1::allocator<char> > >, true>, std::__ndk1::__unordered_map_equal<std::__ndk1::basic_string<char, std::__ndk1::char_traits<char>, std::__ndk1::allocator<char> >, std::__ndk1::__hash_value_type<std::__ndk1::basic_string<char, std::__ndk1::char_traits<char>, std::__ndk1::allocator<char> >, geode::Mod*>, std::__ndk1::equal_to<std::__ndk1::basic_string<char, std::__ndk1::char_traits<char>, std::__ndk1::allocator<char> > >, std::__ndk1::hash<std::__ndk1::basic_string<char, std::__ndk1::char_traits<char>, std::__ndk1::allocator<char> > >, true>, std::__ndk1::allocator<std::__ndk1::__hash_value_type<std::__ndk1::basic_string<char, std::__ndk1::char_traits<char>, std::__ndk1::allocator<char> >, geode::Mod*> > >::__construct_node_hash<std::__ndk1::piecewise_construct_t const&, std::__ndk1::tuple<std::__ndk1::basic_string<char, std::__ndk1::char_traits<char>, std::__ndk1::allocator<char> > const&>, std::__ndk1::tuple<> >(unsigned long, std::__ndk1::piecewise_construct_t const&, std::__ndk1::tuple<std::__ndk1::basic_string<char, std::__ndk1::char_traits<char>, std::__ndk1::allocator<char> > const&>&&, std::__ndk1::tuple<>)
FUNC 25e3c0 4bc 0 std::__ndk1::deque<geode::Mod*, std::__ndk1::allocator<geode::Mod*> >::__add_back_capacity()
FUNC 25e87c 184 0 std::__ndk1::__split_buffer<geode::Mod**, std::__ndk1::allocator<geode::Mod**> >::push_back(geode::Mod**&&)
FUNC 25ea00 190 0 std::__ndk1::__split_buffer<geode::Mod**, std::__ndk1::allocator<geode::Mod**> >::push_front(geode::Mod**&&)
FUNC 25eb90 190 0 std::__ndk1::__split_buffer<geode::Mod**, std::__ndk1::allocator<geode::Mod**>&>::push_front(geode::Mod** const&)
FUNC 25ed20 3d0 0 std::__ndk1::deque<geode::Mod*, std::__ndk1::allocator<geode::Mod*> >::__add_front_capacity()
FUNC 25f0f0 190 0 std::__ndk1::__split_buffer<geode::Mod**, std::__ndk1::allocator<geode::Mod**> >::push_front(geode::Mod** const&)
FUNC 25f280 624 0 std::__ndk1::__thread_proxy[abi:v170000]<std::__ndk1::tuple<std::__ndk1::unique_ptr<std::__ndk1::__thread_struct, std::__ndk1::default_delete<std::__ndk1::unique_ptr> >, geode::Loader::Impl::loadModGraph(std::__ndk1::unique_ptr<std::__ndk1::__thread_struct, std::__ndk1::default_delete<std::__ndk1::unique_ptr> >*::Mod, bool)::$_0> >(std::__ndk1::tuple<std::__ndk1::unique_ptr<std::__ndk1::__thread_struct, std::__ndk1::default_delete<std::__ndk1::unique_ptr> >, geode::Loader::Impl::loadModGraph(std::__ndk1::unique_ptr<std::__ndk1::__thread_struct, std::__ndk1::default_delete<std::__ndk1::unique_ptr> >*::Mod, bool)::$_0>)
FUNC 25f8a4 80 0 std::__ndk1::unique_ptr<std::__ndk1::tuple<std::__ndk1::unique_ptr<std::__ndk1::__thread_struct, std::__ndk1::default_delete<std::__ndk1::__thread_struct> >, geode::Loader::Impl::loadModGraph(geode::Mod*, bool)::$_0>, std::__ndk1::default_delete<std::__ndk1::tuple<std::__ndk1::unique_ptr<std::__ndk1::__thread_struct, std::__ndk1::default_delete<std::__ndk1::__thread_struct> >, geode::Loader::Impl::loadModGraph(geode::Mod*, bool)::$_0> > >::~unique_ptr[abi:v170000]()
FUNC 25f924 d4 0 cpp::bitwizeshift::detail::result_trivial_move_ctor_base_impl<std::__ndk1::monostate, std::__ndk1::basic_string<char, std::__ndk1::char_traits<char>, std::__ndk1::allocator<char> > >::result_trivial_move_ctor_base_impl(cpp::bitwizeshift::detail::result_trivial_move_ctor_base_impl<std::__ndk1::monostate, std::__ndk1::basic_string<char, std::__ndk1::char_traits<char>, std::__ndk1::allocator<char> > > const&)
FUNC 25f9f8 6c 0 geode::utils::MiniFunctionState<geode::Loader::Impl::loadModGraph(geode::Mod*, bool)::$_0::operator()() const::{lambda()#1}, void, >::~MiniFunctionState()
FUNC 25fa64 68 0 geode::utils::MiniFunctionState<geode::Loader::Impl::loadModGraph(geode::Mod*, bool)::$_0::operator()() const::{lambda()#1}, void, >::~MiniFunctionState()
FUNC 25facc 37c 0 geode::utils::MiniFunctionState<geode::Loader::Impl::loadModGraph(geode::Mod*, bool)::$_0::operator()() const::{lambda()#1}, void, >::call() const
FUNC 25fe48 90 0 geode::utils::MiniFunctionState<geode::Loader::Impl::loadModGraph(geode::Mod*, bool)::$_0::operator()() const::{lambda()#1}, void, >::clone() const
FUNC 25fed8 b4 0 fmt::v10::detail::value<fmt::v10::basic_format_context<fmt::v10::appender, char> >::format_custom_arg<geode::ComparableVersionInfo, fmt::v10::formatter<geode::ComparableVersionInfo, char, void> >(void*, fmt::v10::basic_format_parse_context<char>&, fmt::v10::basic_format_context<fmt::v10::appender, char>&)
FUNC 25ff8c 15c 0 fmt::v10::formatter<geode::ComparableVersionInfo, char, void>::format<fmt::v10::basic_format_context<fmt::v10::appender, char> >(geode::ComparableVersionInfo const&, fmt::v10::basic_format_context<fmt::v10::appender, char>&) const
FUNC 2600e8 4 0 geode::utils::MiniFunctionState<geode::Loader::Impl::refreshModGraph()::$_0, void, >::~MiniFunctionState()
FUNC 2600ec 8 0 geode::utils::MiniFunctionState<geode::Loader::Impl::refreshModGraph()::$_0, void, >::call() const
FUNC 2600f4 34 0 geode::utils::MiniFunctionState<geode::Loader::Impl::refreshModGraph()::$_0, void, >::clone() const
FUNC 260128 4 0 geode::utils::MiniFunctionState<geode::Loader::Impl::continueRefreshModGraph()::$_0, void, >::~MiniFunctionState()
FUNC 26012c 8 0 geode::utils::MiniFunctionState<geode::Loader::Impl::continueRefreshModGraph()::$_0, void, >::call() const
FUNC 260134 34 0 geode::utils::MiniFunctionState<geode::Loader::Impl::continueRefreshModGraph()::$_0, void, >::clone() const
FUNC 260168 4 0 geode::utils::MiniFunctionState<geode::Loader::Impl::continueRefreshModGraph()::$_1, void, >::~MiniFunctionState()
FUNC 26016c 8 0 geode::utils::MiniFunctionState<geode::Loader::Impl::continueRefreshModGraph()::$_1, void, >::call() const
FUNC 260174 34 0 geode::utils::MiniFunctionState<geode::Loader::Impl::continueRefreshModGraph()::$_1, void, >::clone() const
FUNC 2601a8 3d0 0 std::__ndk1::__hash_table<std::__ndk1::__hash_value_type<std::__ndk1::basic_string<char, std::__ndk1::char_traits<char>, std::__ndk1::allocator<char> >, std::__ndk1::basic_string<char, std::__ndk1::char_traits<char>, std::__ndk1::allocator<char> > >, std::__ndk1::__unordered_map_hasher<std::__ndk1::basic_string<char, std::__ndk1::char_traits<char>, std::__ndk1::allocator<char> >, std::__ndk1::__hash_value_type<std::__ndk1::basic_string<char, std::__ndk1::char_traits<char>, std::__ndk1::allocator<char> >, std::__ndk1::basic_string<char, std::__ndk1::char_traits<char>, std::__ndk1::allocator<char> > >, std::__ndk1::hash<std::__ndk1::basic_string<char, std::__ndk1::char_traits<char>, std::__ndk1::allocator<char> > >, std::__ndk1::equal_to<std::__ndk1::basic_string<char, std::__ndk1::char_traits<char>, std::__ndk1::allocator<char> > >, true>, std::__ndk1::__unordered_map_equal<std::__ndk1::basic_string<char, std::__ndk1::char_traits<char>, std::__ndk1::allocator<char> >, std::__ndk1::__hash_value_type<std::__ndk1::basic_string<char, std::__ndk1::char_traits<char>, std::__ndk1::allocator<char> >, std::__ndk1::basic_string<char, std::__ndk1::char_traits<char>, std::__ndk1::allocator<char> > >, std::__ndk1::equal_to<std::__ndk1::basic_string<char, std::__ndk1::char_traits<char>, std::__ndk1::allocator<char> > >, std::__ndk1::hash<std::__ndk1::basic_string<char, std::__ndk1::char_traits<char>, std::__ndk1::allocator<char> > >, true>, std::__ndk1::allocator<std::__ndk1::__hash_value_type<std::__ndk1::basic_string<char, std::__ndk1::char_traits<char>, std::__ndk1::allocator<char> >, std::__ndk1::basic_string<char, std::__ndk1::char_traits<char>, std::__ndk1::allocator<char> > > > >::__emplace_unique_key_args<std::__ndk1::basic_string<char, std::__ndk1::char_traits<char>, std::__ndk1::allocator<char> >, std::__ndk1::pair<std::__ndk1::basic_string<char, std::__ndk1::char_traits<char>, std::__ndk1::allocator<char> > const, std::__ndk1::basic_string<char, std::__ndk1::char_traits<char>, std::__ndk1::allocator<char> > > >(std::__ndk1::basic_string<char, std::__ndk1::char_traits<char>, std::__ndk1::allocator<char> > const&, std::__ndk1::pair<std::__ndk1::basic_string<char, std::__ndk1::char_traits<char>, std::__ndk1::allocator<char> > const, std::__ndk1::basic_string<char, std::__ndk1::char_traits<char>, std::__ndk1::allocator<char> > >&&)
FUNC 260578 fc 0 std::__ndk1::__hash_table<std::__ndk1::__hash_value_type<std::__ndk1::basic_string<char, std::__ndk1::char_traits<char>, std::__ndk1::allocator<char> >, std::__ndk1::basic_string<char, std::__ndk1::char_traits<char>, std::__ndk1::allocator<char> > >, std::__ndk1::__unordered_map_hasher<std::__ndk1::basic_string<char, std::__ndk1::char_traits<char>, std::__ndk1::allocator<char> >, std::__ndk1::__hash_value_type<std::__ndk1::basic_string<char, std::__ndk1::char_traits<char>, std::__ndk1::allocator<char> >, std::__ndk1::basic_string<char, std::__ndk1::char_traits<char>, std::__ndk1::allocator<char> > >, std::__ndk1::hash<std::__ndk1::basic_string<char, std::__ndk1::char_traits<char>, std::__ndk1::allocator<char> > >, std::__ndk1::equal_to<std::__ndk1::basic_string<char, std::__ndk1::char_traits<char>, std::__ndk1::allocator<char> > >, true>, std::__ndk1::__unordered_map_equal<std::__ndk1::basic_string<char, std::__ndk1::char_traits<char>, std::__ndk1::allocator<char> >, std::__ndk1::__hash_value_type<std::__ndk1::basic_string<char, std::__ndk1::char_traits<char>, std::__ndk1::allocator<char> >, std::__ndk1::basic_string<char, std::__ndk1::char_traits<char>, std::__ndk1::allocator<char> > >, std::__ndk1::equal_to<std::__ndk1::basic_string<char, std::__ndk1::char_traits<char>, std::__ndk1::allocator<char> > >, std::__ndk1::hash<std::__ndk1::basic_string<char, std::__ndk1::char_traits<char>, std::__ndk1::allocator<char> > >, true>, std::__ndk1::allocator<std::__ndk1::__hash_value_type<std::__ndk1::basic_string<char, std::__ndk1::char_traits<char>, std::__ndk1::allocator<char> >, std::__ndk1::basic_string<char, std::__ndk1::char_traits<char>, std::__ndk1::allocator<char> > > > >::__construct_node_hash<std::__ndk1::pair<std::__ndk1::basic_string<char, std::__ndk1::char_traits<char>, std::__ndk1::allocator<char> > const, std::__ndk1::basic_string<char, std::__ndk1::char_traits<char>, std::__ndk1::allocator<char> > >, >(unsigned long, std::__ndk1::pair<std::__ndk1::basic_string<char, std::__ndk1::char_traits<char>, std::__ndk1::allocator<char> > const, std::__ndk1::basic_string<char, std::__ndk1::char_traits<char>, std::__ndk1::allocator<char> > >&&, &&)
FUNC 260674 1c0 0 std::__ndk1::__hash_table<std::__ndk1::__hash_value_type<std::__ndk1::basic_string<char, std::__ndk1::char_traits<char>, std::__ndk1::allocator<char> >, std::__ndk1::basic_string<char, std::__ndk1::char_traits<char>, std::__ndk1::allocator<char> > >, std::__ndk1::__unordered_map_hasher<std::__ndk1::basic_string<char, std::__ndk1::char_traits<char>, std::__ndk1::allocator<char> >, std::__ndk1::__hash_value_type<std::__ndk1::basic_string<char, std::__ndk1::char_traits<char>, std::__ndk1::allocator<char> >, std::__ndk1::basic_string<char, std::__ndk1::char_traits<char>, std::__ndk1::allocator<char> > >, std::__ndk1::hash<std::__ndk1::basic_string<char, std::__ndk1::char_traits<char>, std::__ndk1::allocator<char> > >, std::__ndk1::equal_to<std::__ndk1::basic_string<char, std::__ndk1::char_traits<char>, std::__ndk1::allocator<char> > >, true>, std::__ndk1::__unordered_map_equal<std::__ndk1::basic_string<char, std::__ndk1::char_traits<char>, std::__ndk1::allocator<char> >, std::__ndk1::__hash_value_type<std::__ndk1::basic_string<char, std::__ndk1::char_traits<char>, std::__ndk1::allocator<char> >, std::__ndk1::basic_string<char, std::__ndk1::char_traits<char>, std::__ndk1::allocator<char> > >, std::__ndk1::equal_to<std::__ndk1::basic_string<char, std::__ndk1::char_traits<char>, std::__ndk1::allocator<char> > >, std::__ndk1::hash<std::__ndk1::basic_string<char, std::__ndk1::char_traits<char>, std::__ndk1::allocator<char> > >, true>, std::__ndk1::allocator<std::__ndk1::__hash_value_type<std::__ndk1::basic_string<char, std::__ndk1::char_traits<char>, std::__ndk1::allocator<char> >, std::__ndk1::basic_string<char, std::__ndk1::char_traits<char>, std::__ndk1::allocator<char> > > > >::find<std::__ndk1::basic_string<char, std::__ndk1::char_traits<char>, std::__ndk1::allocator<char> > >(std::__ndk1::basic_string<char, std::__ndk1::char_traits<char>, std::__ndk1::allocator<char> > const&) const
FUNC 260834 2f4 0 std::__ndk1::__hash_table<std::__ndk1::__hash_value_type<void*, unsigned long>, std::__ndk1::__unordered_map_hasher<void*, std::__ndk1::__hash_value_type<void*, unsigned long>, std::__ndk1::hash<void*>, std::__ndk1::equal_to<void*>, true>, std::__ndk1::__unordered_map_equal<void*, std::__ndk1::__hash_value_type<void*, unsigned long>, std::__ndk1::equal_to<void*>, std::__ndk1::hash<void*>, true>, std::__ndk1::allocator<std::__ndk1::__hash_value_type<void*, unsigned long> > >::__emplace_unique_key_args<void*, std::__ndk1::piecewise_construct_t const&, std::__ndk1::tuple<void* const&>, std::__ndk1::tuple<> >(void* const&, std::__ndk1::piecewise_construct_t const&, std::__ndk1::tuple<void* const&>, std::__ndk1::tuple<>)
FUNC 260b28 15c 0 std::__ndk1::__hash_table<std::__ndk1::__hash_value_type<void*, unsigned long>, std::__ndk1::__unordered_map_hasher<void*, std::__ndk1::__hash_value_type<void*, unsigned long>, std::__ndk1::hash<void*>, std::__ndk1::equal_to<void*>, true>, std::__ndk1::__unordered_map_equal<void*, std::__ndk1::__hash_value_type<void*, unsigned long>, std::__ndk1::equal_to<void*>, std::__ndk1::hash<void*>, true>, std::__ndk1::allocator<std::__ndk1::__hash_value_type<void*, unsigned long> > >::__do_rehash<true>(unsigned long)
FUNC 260c84 2e0 0 _GLOBAL__sub_I_LoaderImpl.cpp
FUNC 260f64 fc 0 geode::format_as(geode::Mod*)
FUNC 261060 98 0 geode::format_as(cocos2d::CCObject const*)
FUNC 2610f8 c8 0 geode::format_as(cocos2d::CCNode*)
FUNC 2611c0 29c 0 geode::format_as(cocos2d::CCArray*)
FUNC 26145c 64 0 cocos2d::format_as(cocos2d::CCPoint const&)
FUNC 2614c0 64 0 cocos2d::format_as(cocos2d::CCSize const&)
FUNC 261524 74 0 cocos2d::format_as(cocos2d::CCRect const&)
FUNC 261598 70 0 cocos2d::format_as(cocos2d::_ccColor3B const&)
FUNC 261608 78 0 cocos2d::format_as(cocos2d::_ccColor4B const&)
FUNC 261680 220 0 geode::log::vlogImpl(geode::Severity, geode::Mod*, fmt::v10::basic_string_view<char>, fmt::v10::basic_format_args<fmt::v10::basic_format_context<fmt::v10::appender, char> >)
FUNC 2618a0 90 0 geode::log::Logger::get()
FUNC 261930 298 0 geode::log::Logger::push(geode::Severity, std::__ndk1::basic_string<char, std::__ndk1::char_traits<char>, std::__ndk1::allocator<char> >&&, std::__ndk1::basic_string<char, std::__ndk1::char_traits<char>, std::__ndk1::allocator<char> >&&, int, std::__ndk1::basic_string<char, std::__ndk1::char_traits<char>, std::__ndk1::allocator<char> >&&)
FUNC 261bc8 208 0 geode::log::Log::Log(geode::Severity, std::__ndk1::basic_string<char, std::__ndk1::char_traits<char>, std::__ndk1::allocator<char> >&&, std::__ndk1::basic_string<char, std::__ndk1::char_traits<char>, std::__ndk1::allocator<char> >&&, int, std::__ndk1::basic_string<char, std::__ndk1::char_traits<char>, std::__ndk1::allocator<char> >&&)
FUNC 261dd0 64 0 geode::log::Log::~Log()
FUNC 261e34 7a4 0 geode::log::Log::toString() const
FUNC 2625d8 f0 0 convertTime<std::__ndk1::chrono::time_point<std::__ndk1::chrono::system_clock, std::__ndk1::chrono::duration<long long, std::__ndk1::ratio<(long)1, (long)1000000> > > >(std::__ndk1::chrono::time_point<std::__ndk1::chrono::system_clock, std::__ndk1::chrono::duration<long long, std::__ndk1::ratio<(long)1, (long)1000000> > >)
FUNC 2626c8 8 0 geode::log::Log::getSeverity() const
FUNC 2626d0 c0 0 geode::log::Logger::Logger()
FUNC 262790 ac 0 geode::log::Logger::~Logger()
FUNC 26283c 284 0 geode::log::Logger::setup()
FUNC 262ac0 84 0 geode::log::generateLogName()
FUNC 262b44 104 0 std::__ndk1::basic_ofstream<char, std::__ndk1::char_traits<char> >::basic_ofstream(std::__ndk1::basic_string<char, std::__ndk1::char_traits<char>, std::__ndk1::allocator<char> > const&, unsigned int)
FUNC 262c48 64 0 getLogMutex()
FUNC 262cac 10 0 geode::log::Nest::Nest(std::__ndk1::shared_ptr<geode::log::Nest::Impl>)
FUNC 262cbc 8 0 geode::log::Nest::Impl::Impl(int, int)
FUNC 262cc4 4 0 geode::log::Logger::list()
FUNC 262cc8 a8 0 geode::log::Logger::clear()
FUNC 262d70 110 0 geode::log::pushNest(geode::Mod*)
FUNC 262e80 44 0 geode::log::popNest(geode::Mod*)
FUNC 262ec4 144 0 geode::log::saveNest()
FUNC 263008 50 0 std::__ndk1::shared_ptr<geode::log::Nest::Impl>::~shared_ptr[abi:v170000]()
FUNC 263058 48 0 geode::log::loadNest(std::__ndk1::shared_ptr<geode::log::Nest> const&)
FUNC 2630a0 30 0 fmt::v10::format_error::runtime_error(char const*)
FUNC 2630d0 24 0 fmt::v10::format_error::~format_error()
FUNC 2630f4 68 0 std::__ndk1::vector<geode::log::Log, std::__ndk1::allocator<geode::log::Log> >::~vector[abi:v170000]()
FUNC 26315c 1dc 0 std::__ndk1::vector<geode::log::Log, std::__ndk1::allocator<geode::log::Log> >::__emplace_back_slow_path<geode::Severity&, std::__ndk1::basic_string<char, std::__ndk1::char_traits<char>, std::__ndk1::allocator<char> >, std::__ndk1::basic_string<char, std::__ndk1::char_traits<char>, std::__ndk1::allocator<char> >, int&, std::__ndk1::basic_string<char, std::__ndk1::char_traits<char>, std::__ndk1::allocator<char> > >(geode::Severity&, std::__ndk1::basic_string<char, std::__ndk1::char_traits<char>, std::__ndk1::allocator<char> >, std::__ndk1::basic_string<char, std::__ndk1::char_traits<char>, std::__ndk1::allocator<char> >, int&, std::__ndk1::basic_string<char, std::__ndk1::char_traits<char>, std::__ndk1::allocator<char> >)
FUNC 263338 14 0 std::__ndk1::vector<geode::log::Log, std::__ndk1::allocator<geode::log::Log> >::__throw_length_error[abi:v170000]() const
FUNC 26334c 20c 0 geode::log::Log::Log(geode::log::Log const&)
FUNC 263558 b4 0 fmt::v10::detail::value<fmt::v10::basic_format_context<fmt::v10::appender, char> >::format_custom_arg<cocos2d::CCPoint, fmt::v10::formatter<cocos2d::CCPoint, char, void> >(void*, fmt::v10::basic_format_parse_context<char>&, fmt::v10::basic_format_context<fmt::v10::appender, char>&)
FUNC 26360c 178 0 fmt::v10::formatter<cocos2d::CCPoint, char, void>::format<fmt::v10::basic_format_context<fmt::v10::appender, char> >(cocos2d::CCPoint const&, fmt::v10::basic_format_context<fmt::v10::appender, char>&) const
FUNC 263784 b4 0 fmt::v10::detail::value<fmt::v10::basic_format_context<fmt::v10::appender, char> >::format_custom_arg<cocos2d::CCSize, fmt::v10::formatter<cocos2d::CCSize, char, void> >(void*, fmt::v10::basic_format_parse_context<char>&, fmt::v10::basic_format_context<fmt::v10::appender, char>&)
FUNC 263838 178 0 fmt::v10::formatter<cocos2d::CCSize, char, void>::format<fmt::v10::basic_format_context<fmt::v10::appender, char> >(cocos2d::CCSize const&, fmt::v10::basic_format_context<fmt::v10::appender, char>&) const
FUNC 2639b0 b8 0 fmt::v10::detail::value<fmt::v10::basic_format_context<fmt::v10::appender, char> >::format_custom_arg<tm, fmt::v10::formatter<tm, char, void> >(void*, fmt::v10::basic_format_parse_context<char>&, fmt::v10::basic_format_context<fmt::v10::appender, char>&)
FUNC 263a68 25c 0 fmt::v10::formatter<tm, char, void>::parse(fmt::v10::basic_format_parse_context<char>&)
FUNC 263cc4 270 0 fmt::v10::detail::parse_chrono_format<char, fmt::v10::detail::tm_format_checker>(char const*, char const*, fmt::v10::detail::tm_format_checker&&)
FUNC 263f34 50 0 fmt::v10::detail::tm_format_checker::unsupported()
FUNC 263f84 22c 0 fmt::v10::formatter<tm, char, void>::do_format<fmt::v10::basic_format_context<fmt::v10::appender, char>, std::__ndk1::chrono::duration<long long, std::__ndk1::ratio<(long)1, (long)1> > >(tm const&, fmt::v10::basic_format_context<fmt::v10::appender, char>&, std::__ndk1::chrono::duration<long long, std::__ndk1::ratio<(long)1, (long)1> > const*) const
FUNC 2641b0 eb4 0 fmt::v10::detail::parse_chrono_format<char, fmt::v10::detail::tm_writer<std::__ndk1::back_insert_iterator<fmt::v10::basic_memory_buffer<char, (unsigned long)500, std::__ndk1::allocator<char> > >, char, std::__ndk1::chrono::duration<long long, std::__ndk1::ratio<(long)1, (long)1> > >&>(char const*, char const*, fmt::v10::detail::tm_writer<std::__ndk1::back_insert_iterator<fmt::v10::basic_memory_buffer<char, (unsigned long)500, std::__ndk1::allocator<char> > >, char, std::__ndk1::chrono::duration<long long, std::__ndk1::ratio<(long)1, (long)1> > >&)
FUNC 265064 138 0 fmt::v10::basic_memory_buffer<char, (unsigned long)500, std::__ndk1::allocator<char> >::grow(unsigned long)
FUNC 26519c 28 0 fmt::v10::detail::tm_writer<std::__ndk1::back_insert_iterator<fmt::v10::basic_memory_buffer<char, (unsigned long)500, std::__ndk1::allocator<char> > >, char, std::__ndk1::chrono::duration<long long, std::__ndk1::ratio<(long)1, (long)1> > >::on_year(fmt::v10::detail::numeric_system)
FUNC 2651c4 110 0 fmt::v10::detail::tm_writer<std::__ndk1::back_insert_iterator<fmt::v10::basic_memory_buffer<char, (unsigned long)500, std::__ndk1::allocator<char> > >, char, std::__ndk1::chrono::duration<long long, std::__ndk1::ratio<(long)1, (long)1> > >::on_short_year(fmt::v10::detail::numeric_system)
FUNC 2652d4 1c0 0 fmt::v10::detail::tm_writer<std::__ndk1::back_insert_iterator<fmt::v10::basic_memory_buffer<char, (unsigned long)500, std::__ndk1::allocator<char> > >, char, std::__ndk1::chrono::duration<long long, std::__ndk1::ratio<(long)1, (long)1> > >::on_century(fmt::v10::detail::numeric_system)
FUNC 265494 210 0 fmt::v10::detail::tm_writer<std::__ndk1::back_insert_iterator<fmt::v10::basic_memory_buffer<char, (unsigned long)500, std::__ndk1::allocator<char> > >, char, std::__ndk1::chrono::duration<long long, std::__ndk1::ratio<(long)1, (long)1> > >::on_iso_week_based_short_year()
FUNC 2656a4 94 0 fmt::v10::detail::tm_writer<std::__ndk1::back_insert_iterator<fmt::v10::basic_memory_buffer<char, (unsigned long)500, std::__ndk1::allocator<char> > >, char, std::__ndk1::chrono::duration<long long, std::__ndk1::ratio<(long)1, (long)1> > >::on_dec0_weekday(fmt::v10::detail::numeric_system)
FUNC 265738 a0 0 fmt::v10::detail::tm_writer<std::__ndk1::back_insert_iterator<fmt::v10::basic_memory_buffer<char, (unsigned long)500, std::__ndk1::allocator<char> > >, char, std::__ndk1::chrono::duration<long long, std::__ndk1::ratio<(long)1, (long)1> > >::on_dec1_weekday(fmt::v10::detail::numeric_system)
FUNC 2657d8 f8 0 fmt::v10::detail::tm_writer<std::__ndk1::back_insert_iterator<fmt::v10::basic_memory_buffer<char, (unsigned long)500, std::__ndk1::allocator<char> > >, char, std::__ndk1::chrono::duration<long long, std::__ndk1::ratio<(long)1, (long)1> > >::on_dec_month(fmt::v10::detail::numeric_system)
FUNC 2658d0 118 0 fmt::v10::detail::tm_writer<std::__ndk1::back_insert_iterator<fmt::v10::basic_memory_buffer<char, (unsigned long)500, std::__ndk1::allocator<char> > >, char, std::__ndk1::chrono::duration<long long, std::__ndk1::ratio<(long)1, (long)1> > >::on_dec0_week_of_year(fmt::v10::detail::numeric_system)
FUNC 2659e8 12c 0 fmt::v10::detail::tm_writer<std::__ndk1::back_insert_iterator<fmt::v10::basic_memory_buffer<char, (unsigned long)500, std::__ndk1::allocator<char> > >, char, std::__ndk1::chrono::duration<long long, std::__ndk1::ratio<(long)1, (long)1> > >::on_dec1_week_of_year(fmt::v10::detail::numeric_system)
FUNC 265b14 f4 0 fmt::v10::detail::tm_writer<std::__ndk1::back_insert_iterator<fmt::v10::basic_memory_buffer<char, (unsigned long)500, std::__ndk1::allocator<char> > >, char, std::__ndk1::chrono::duration<long long, std::__ndk1::ratio<(long)1, (long)1> > >::on_iso_week_of_year(fmt::v10::detail::numeric_system)
FUNC 265c08 140 0 fmt::v10::detail::tm_writer<std::__ndk1::back_insert_iterator<fmt::v10::basic_memory_buffer<char, (unsigned long)500, std::__ndk1::allocator<char> > >, char, std::__ndk1::chrono::duration<long long, std::__ndk1::ratio<(long)1, (long)1> > >::on_day_of_year()
FUNC 265d48 f4 0 fmt::v10::detail::tm_writer<std::__ndk1::back_insert_iterator<fmt::v10::basic_memory_buffer<char, (unsigned long)500, std::__ndk1::allocator<char> > >, char, std::__ndk1::chrono::duration<long long, std::__ndk1::ratio<(long)1, (long)1> > >::on_day_of_month(fmt::v10::detail::numeric_system)
FUNC 265e3c 104 0 fmt::v10::detail::tm_writer<std::__ndk1::back_insert_iterator<fmt::v10::basic_memory_buffer<char, (unsigned long)500, std::__ndk1::allocator<char> > >, char, std::__ndk1::chrono::duration<long long, std::__ndk1::ratio<(long)1, (long)1> > >::on_day_of_month_space(fmt::v10::detail::numeric_system)
FUNC 265f40 24 0 fmt::v10::detail::tm_writer<std::__ndk1::back_insert_iterator<fmt::v10::basic_memory_buffer<char, (unsigned long)500, std::__ndk1::allocator<char> > >, char, std::__ndk1::chrono::duration<long long, std::__ndk1::ratio<(long)1, (long)1> > >::on_24_hour(fmt::v10::detail::numeric_system, fmt::v10::detail::pad_type)
FUNC 265f64 38 0 fmt::v10::detail::tm_writer<std::__ndk1::back_insert_iterator<fmt::v10::basic_memory_buffer<char, (unsigned long)500, std::__ndk1::allocator<char> > >, char, std::__ndk1::chrono::duration<long long, std::__ndk1::ratio<(long)1, (long)1> > >::on_12_hour(fmt::v10::detail::numeric_system, fmt::v10::detail::pad_type)
FUNC 265f9c 24 0 fmt::v10::detail::tm_writer<std::__ndk1::back_insert_iterator<fmt::v10::basic_memory_buffer<char, (unsigned long)500, std::__ndk1::allocator<char> > >, char, std::__ndk1::chrono::duration<long long, std::__ndk1::ratio<(long)1, (long)1> > >::on_minute(fmt::v10::detail::numeric_system, fmt::v10::detail::pad_type)
FUNC 265fc0 24 0 fmt::v10::detail::tm_writer<std::__ndk1::back_insert_iterator<fmt::v10::basic_memory_buffer<char, (unsigned long)500, std::__ndk1::allocator<char> > >, char, std::__ndk1::chrono::duration<long long, std::__ndk1::ratio<(long)1, (long)1> > >::on_second(fmt::v10::detail::numeric_system, fmt::v10::detail::pad_type)
FUNC 265fe4 384 0 fmt::v10::detail::tm_writer<std::__ndk1::back_insert_iterator<fmt::v10::basic_memory_buffer<char, (unsigned long)500, std::__ndk1::allocator<char> > >, char, std::__ndk1::chrono::duration<long long, std::__ndk1::ratio<(long)1, (long)1> > >::on_datetime(fmt::v10::detail::numeric_system)
FUNC 266368 20 0 fmt::v10::detail::tm_writer<std::__ndk1::back_insert_iterator<fmt::v10::basic_memory_buffer<char, (unsigned long)500, std::__ndk1::allocator<char> > >, char, std::__ndk1::chrono::duration<long long, std::__ndk1::ratio<(long)1, (long)1> > >::on_loc_date(fmt::v10::detail::numeric_system)
FUNC 266388 98 0 fmt::v10::detail::tm_writer<std::__ndk1::back_insert_iterator<fmt::v10::basic_memory_buffer<char, (unsigned long)500, std::__ndk1::allocator<char> > >, char, std::__ndk1::chrono::duration<long long, std::__ndk1::ratio<(long)1, (long)1> > >::on_loc_time(fmt::v10::detail::numeric_system)
FUNC 266420 27c 0 fmt::v10::detail::tm_writer<std::__ndk1::back_insert_iterator<fmt::v10::basic_memory_buffer<char, (unsigned long)500, std::__ndk1::allocator<char> > >, char, std::__ndk1::chrono::duration<long long, std::__ndk1::ratio<(long)1, (long)1> > >::on_us_date()
FUNC 26669c 16c 0 fmt::v10::detail::tm_writer<std::__ndk1::back_insert_iterator<fmt::v10::basic_memory_buffer<char, (unsigned long)500, std::__ndk1::allocator<char> > >, char, std::__ndk1::chrono::duration<long long, std::__ndk1::ratio<(long)1, (long)1> > >::on_iso_date()
FUNC 266808 354 0 fmt::v10::detail::tm_writer<std::__ndk1::back_insert_iterator<fmt::v10::basic_memory_buffer<char, (unsigned long)500, std::__ndk1::allocator<char> > >, char, std::__ndk1::chrono::duration<long long, std::__ndk1::ratio<(long)1, (long)1> > >::on_12_hour_time()
FUNC 266b5c 1a8 0 fmt::v10::detail::tm_writer<std::__ndk1::back_insert_iterator<fmt::v10::basic_memory_buffer<char, (unsigned long)500, std::__ndk1::allocator<char> > >, char, std::__ndk1::chrono::duration<long long, std::__ndk1::ratio<(long)1, (long)1> > >::on_24_hour_time()
FUNC 266d04 10c 0 fmt::v10::detail::tm_writer<std::__ndk1::back_insert_iterator<fmt::v10::basic_memory_buffer<char, (unsigned long)500, std::__ndk1::allocator<char> > >, char, std::__ndk1::chrono::duration<long long, std::__ndk1::ratio<(long)1, (long)1> > >::on_offset_year()
FUNC 266e10 178 0 fmt::v10::detail::tm_writer<std::__ndk1::back_insert_iterator<fmt::v10::basic_memory_buffer<char, (unsigned long)500, std::__ndk1::allocator<char> > >, char, std::__ndk1::chrono::duration<long long, std::__ndk1::ratio<(long)1, (long)1> > >::write_year(long long)
FUNC 266f88 f0 0 fmt::v10::detail::tm_writer<std::__ndk1::back_insert_iterator<fmt::v10::basic_memory_buffer<char, (unsigned long)500, std::__ndk1::allocator<char> > >, char, std::__ndk1::chrono::duration<long long, std::__ndk1::ratio<(long)1, (long)1> > >::format_localized(char, char)
FUNC 267078 2c4 0 fmt::v10::detail::tm_writer<std::__ndk1::back_insert_iterator<fmt::v10::basic_memory_buffer<char, (unsigned long)500, std::__ndk1::allocator<char> > >, char, std::__ndk1::chrono::duration<long long, std::__ndk1::ratio<(long)1, (long)1> > >::write_year_extended(long long)
FUNC 26733c 80 0 fmt::v10::detail::copy_str_noinline<char, char*, std::__ndk1::back_insert_iterator<fmt::v10::basic_memory_buffer<char, (unsigned long)500, std::__ndk1::allocator<char> > > >(char*, char*, std::__ndk1::back_insert_iterator<fmt::v10::basic_memory_buffer<char, (unsigned long)500, std::__ndk1::allocator<char> > >)
FUNC 2673bc 24c 0 fmt::v10::detail::do_write<char>(fmt::v10::detail::buffer<char>&, tm const&, std::__ndk1::locale const&, char, char)
FUNC 267608 2ac 0 fmt::v10::detail::write_encoded_tm_str<std::__ndk1::back_insert_iterator<fmt::v10::basic_memory_buffer<char, (unsigned long)500, std::__ndk1::allocator<char> > > >(std::__ndk1::back_insert_iterator<fmt::v10::basic_memory_buffer<char, (unsigned long)500, std::__ndk1::allocator<char> > >, fmt::v10::basic_string_view<char>, std::__ndk1::locale const&)
FUNC 2678b4 24 0 fmt::v10::detail::formatbuf<std::__ndk1::basic_streambuf<char, std::__ndk1::char_traits<char> > >::~formatbuf()
FUNC 2678d8 174 0 fmt::v10::detail::formatbuf<std::__ndk1::basic_streambuf<char, std::__ndk1::char_traits<char> > >::xsputn(char const*, long)
FUNC 267a4c 60 0 fmt::v10::detail::formatbuf<std::__ndk1::basic_streambuf<char, std::__ndk1::char_traits<char> > >::overflow(int)
FUNC 267aac f8 0 fmt::v10::detail::write_codecvt<char32_t>(fmt::v10::detail::codecvt_result<char32_t>&, fmt::v10::basic_string_view<char>, std::__ndk1::locale const&)
FUNC 267ba4 138 0 fmt::v10::basic_memory_buffer<char, (unsigned long)128, std::__ndk1::allocator<char> >::grow(unsigned long)
FUNC 267cdc 218 0 fmt::v10::detail::to_utf8<char32_t, fmt::v10::basic_memory_buffer<char, (unsigned long)128, std::__ndk1::allocator<char> > >::convert(fmt::v10::basic_memory_buffer<char, (unsigned long)128, std::__ndk1::allocator<char> >&, fmt::v10::basic_string_view<char32_t>, fmt::v10::detail::to_utf8_error_policy)
FUNC 267ef4 138 0 fmt::v10::detail::write<char, std::__ndk1::back_insert_iterator<fmt::v10::basic_memory_buffer<char, (unsigned long)500, std::__ndk1::allocator<char> > >, long long, 0>(std::__ndk1::back_insert_iterator<fmt::v10::basic_memory_buffer<char, (unsigned long)500, std::__ndk1::allocator<char> > >, long long)
FUNC 26802c 3c 0 fmt::v10::detail::copy_str_noinline<char, char const*, char*>(char const*, char const*, char*)
FUNC 268068 214 0 fmt::v10::detail::tm_writer<std::__ndk1::back_insert_iterator<fmt::v10::basic_memory_buffer<char, (unsigned long)500, std::__ndk1::allocator<char> > >, char, std::__ndk1::chrono::duration<long long, std::__ndk1::ratio<(long)1, (long)1> > >::tm_iso_week_of_year() const
FUNC 26827c 15c 0 fmt::v10::detail::tm_writer<std::__ndk1::back_insert_iterator<fmt::v10::basic_memory_buffer<char, (unsigned long)500, std::__ndk1::allocator<char> > >, char, std::__ndk1::chrono::duration<long long, std::__ndk1::ratio<(long)1, (long)1> > >::write2(int, fmt::v10::detail::pad_type)
FUNC 2683d8 248 0 fmt::v10::detail::tm_writer<std::__ndk1::back_insert_iterator<fmt::v10::basic_memory_buffer<char, (unsigned long)500, std::__ndk1::allocator<char> > >, char, std::__ndk1::chrono::duration<long long, std::__ndk1::ratio<(long)1, (long)1> > >::write_utc_offset(long, fmt::v10::detail::numeric_system)
FUNC 268620 27c 0 std::__ndk1::basic_filebuf<char, std::__ndk1::char_traits<char> >::swap(std::__ndk1::basic_filebuf<char, std::__ndk1::char_traits<char> >&)
FUNC 26889c 14 0 std::__ndk1::__shared_ptr_emplace<geode::log::Nest::Impl, std::__ndk1::allocator<geode::log::Nest::Impl> >::~__shared_ptr_emplace()
FUNC 2688b0 34 0 std::__ndk1::__shared_ptr_emplace<geode::log::Nest::Impl, std::__ndk1::allocator<geode::log::Nest::Impl> >::~__shared_ptr_emplace()
FUNC 2688e4 4 0 std::__ndk1::__shared_ptr_emplace<geode::log::Nest::Impl, std::__ndk1::allocator<geode::log::Nest::Impl> >::__on_zero_shared()
FUNC 2688e8 4 0 std::__ndk1::__shared_ptr_emplace<geode::log::Nest::Impl, std::__ndk1::allocator<geode::log::Nest::Impl> >::__on_zero_shared_weak()
FUNC 2688ec fc 0 std::__ndk1::__shared_ptr_emplace<geode::log::Nest, std::__ndk1::allocator<geode::log::Nest> >::__shared_ptr_emplace[abi:v170000]<std::__ndk1::shared_ptr<geode::log::Nest::Impl> >(std::__ndk1::shared_ptr<geode::log::Nest::Impl>&&)
FUNC 2689e8 14 0 std::__ndk1::__shared_ptr_emplace<geode::log::Nest, std::__ndk1::allocator<geode::log::Nest> >::~__shared_ptr_emplace()
FUNC 2689fc 34 0 std::__ndk1::__shared_ptr_emplace<geode::log::Nest, std::__ndk1::allocator<geode::log::Nest> >::~__shared_ptr_emplace()
FUNC 268a30 50 0 std::__ndk1::__shared_ptr_emplace<geode::log::Nest, std::__ndk1::allocator<geode::log::Nest> >::__on_zero_shared()
FUNC 268a80 4 0 std::__ndk1::__shared_ptr_emplace<geode::log::Nest, std::__ndk1::allocator<geode::log::Nest> >::__on_zero_shared_weak()
FUNC 268a84 58 0 geode::Mod::Mod(geode::ModMetadata const&)
FUNC 268adc 3c 0 geode::Mod::~Mod()
FUNC 268b18 8 0 geode::Mod::getID() const
FUNC 268b20 8 0 geode::Mod::getName() const
FUNC 268b28 1d4 0 geode::Mod::getDeveloper() const
FUNC 268cfc 8 0 geode::Mod::getDevelopers() const
FUNC 268d04 8 0 geode::Mod::getDescription() const
FUNC 268d0c 8 0 geode::Mod::getDetails() const
FUNC 268d14 8 0 geode::Mod::getPackagePath() const
FUNC 268d1c 8 0 geode::Mod::getVersion() const
FUNC 268d24 8 0 geode::Mod::getSaveContainer()
FUNC 268d2c 8 0 geode::Mod::isEnabled() const
FUNC 268d34 8 0 geode::Mod::isInternal() const
FUNC 268d3c 8 0 geode::Mod::needsEarlyLoad() const
FUNC 268d44 8 0 geode::Mod::getMetadata() const
FUNC 268d4c 8 0 geode::Mod::getTempDir() const
FUNC 268d54 8 0 geode::Mod::getBinaryPath() const
FUNC 268d5c 1f8 0 geode::Mod::getResourcesDir() const
FUNC 268f54 8 0 geode::Mod::setMetadata(geode::ModMetadata const&)
FUNC 268f5c 8 0 geode::Mod::getDependants() const
FUNC 268f64 37c 0 geode::Mod::hasAvailableUpdate() const
FUNC 2692e0 8 0 geode::Mod::saveData()
FUNC 2692e8 8 0 geode::Mod::loadData()
FUNC 2692f0 8 0 geode::Mod::getSaveDir() const
FUNC 2692f8 8 0 geode::Mod::getConfigDir(bool) const
FUNC 269300 8 0 geode::Mod::hasSettings() const
FUNC 269308 8 0 geode::Mod::getSettingKeys() const
FUNC 269310 8 0 geode::Mod::hasSetting(std::__ndk1::basic_string_view<char, std::__ndk1::char_traits<char> >) const
FUNC 269318 8 0 geode::Mod::getSettingDefinition(std::__ndk1::basic_string_view<char, std::__ndk1::char_traits<char> >) const
FUNC 269320 8 0 geode::Mod::getSetting(std::__ndk1::basic_string_view<char, std::__ndk1::char_traits<char> >) const
FUNC 269328 a8 0 geode::Mod::registerCustomSetting(std::__ndk1::basic_string_view<char, std::__ndk1::char_traits<char> >, std::__ndk1::unique_ptr<geode::SettingValue, std::__ndk1::default_delete<geode::SettingValue> >)
FUNC 2693d0 8 0 geode::Mod::getLaunchArgumentNames() const
FUNC 2693d8 8 0 geode::Mod::hasLaunchArgument(std::__ndk1::basic_string_view<char, std::__ndk1::char_traits<char> >) const
FUNC 2693e0 8 0 geode::Mod::getLaunchArgument(std::__ndk1::basic_string_view<char, std::__ndk1::char_traits<char> >) const
FUNC 2693e8 8 0 geode::Mod::getLaunchFlag(std::__ndk1::basic_string_view<char, std::__ndk1::char_traits<char> >) const
FUNC 2693f0 cc 0 geode::Mod::claimHook(std::__ndk1::shared_ptr<geode::Hook>)
FUNC 2694bc 8 0 geode::Mod::disownHook(geode::Hook*)
FUNC 2694c4 8 0 geode::Mod::getHooks() const
FUNC 2694cc cc 0 geode::Mod::claimPatch(std::__ndk1::shared_ptr<geode::Patch>)
FUNC 269598 50 0 std::__ndk1::shared_ptr<geode::Patch>::~shared_ptr[abi:v170000]()
FUNC 2695e8 8 0 geode::Mod::disownPatch(geode::Patch*)
FUNC 2695f0 8 0 geode::Mod::getPatches() const
FUNC 2695f8 8 0 geode::Mod::enable()
FUNC 269600 8 0 geode::Mod::disable()
FUNC 269608 8 0 geode::Mod::uninstall(bool)
FUNC 269610 8 0 geode::Mod::isUninstalled() const
FUNC 269618 8 0 geode::Mod::getRequestedAction() const
FUNC 269620 8 0 geode::Mod::depends(std::__ndk1::basic_string_view<char, std::__ndk1::char_traits<char> >) const
FUNC 269628 8 0 geode::Mod::hasUnresolvedDependencies() const
FUNC 269630 8 0 geode::Mod::hasUnresolvedIncompatibilities() const
FUNC 269638 8 0 geode::Mod::expandSpriteName(char const*)
FUNC 269640 8 0 geode::Mod::getRuntimeInfo() const
FUNC 269648 8 0 geode::Mod::isLoggingEnabled() const
FUNC 269650 8 0 geode::Mod::setLoggingEnabled(bool)
FUNC 269658 30 0 geode::Mod::hasSavedValue(std::__ndk1::basic_string_view<char, std::__ndk1::char_traits<char> >)
FUNC 269688 8 0 geode::Mod::shouldLoad() const
FUNC 269690 1c 0 geode::ModStateEvent::ModStateEvent(geode::Mod*, geode::ModEventType)
FUNC 2696ac 8 0 geode::ModStateEvent::getType() const
FUNC 2696b4 8 0 geode::ModStateEvent::getMod() const
FUNC 2696bc 50 0 geode::ModStateFilter::handle(geode::utils::MiniFunction<void (geode::ModStateEvent*)>, geode::ModStateEvent*)
FUNC 26970c 10 0 geode::ModStateFilter::ModStateFilter(geode::Mod*, geode::ModEventType)
FUNC 26971c 24 0 geode::ModStateEvent::~ModStateEvent()
FUNC 269740 34 0 geode::ModImpl::get()
FUNC 269774 8 0 geode::ModImpl::getImpl(geode::Mod*)
FUNC 26977c 1c0 0 geode::Mod::Impl::Impl(geode::Mod*, geode::ModMetadata const&)
FUNC 26993c 88 0 std::__ndk1::unordered_map<std::__ndk1::basic_string<char, std::__ndk1::char_traits<char>, std::__ndk1::allocator<char> >, std::__ndk1::unique_ptr<geode::SettingValue, std::__ndk1::default_delete<geode::SettingValue> >, std::__ndk1::hash<std::__ndk1::basic_string<char, std::__ndk1::char_traits<char>, std::__ndk1::allocator<char> > >, std::__ndk1::equal_to<std::__ndk1::basic_string<char, std::__ndk1::char_traits<char>, std::__ndk1::allocator<char> > >, std::__ndk1::allocator<std::__ndk1::pair<std::__ndk1::basic_string<char, std::__ndk1::char_traits<char>, std::__ndk1::allocator<char> > const, std::__ndk1::unique_ptr<geode::SettingValue, std::__ndk1::default_delete<geode::SettingValue> > > > >::~unordered_map[abi:v170000]()
FUNC 2699c4 98 0 std::__ndk1::vector<std::__ndk1::shared_ptr<geode::Patch>, std::__ndk1::allocator<std::__ndk1::shared_ptr<geode::Patch> > >::~vector[abi:v170000]()
FUNC 269a5c 98 0 std::__ndk1::vector<std::__ndk1::shared_ptr<geode::Hook>, std::__ndk1::allocator<std::__ndk1::shared_ptr<geode::Hook> > >::~vector[abi:v170000]()
FUNC 269af4 270 0 geode::Mod::Impl::~Impl()
FUNC 269d64 744 0 geode::Mod::Impl::setup()
FUNC 26a4a8 280 0 geode::Mod::Impl::createTempDir()
FUNC 26a728 13c 0 geode::Mod::Impl::setupSettings()
FUNC 26a864 cd0 0 geode::Mod::Impl::loadData()
FUNC 26b534 c 0 geode::Mod::Impl::getSaveDir() const
FUNC 26b540 8 0 geode::Mod::Impl::getID() const
FUNC 26b548 8 0 geode::Mod::Impl::getName() const
FUNC 26b550 8 0 geode::Mod::Impl::getDevelopers() const
FUNC 26b558 8 0 geode::Mod::Impl::getDescription() const
FUNC 26b560 8 0 geode::Mod::Impl::getDetails() const
FUNC 26b568 c 0 geode::Mod::Impl::getMetadata() const
FUNC 26b574 8 0 geode::Mod::Impl::setMetadata(geode::ModMetadata const&)
FUNC 26b57c f8 0 geode::Mod::Impl::getDependants() const
FUNC 26b674 c 0 geode::Mod::Impl::getTempDir() const
FUNC 26b680 d0 0 geode::Mod::Impl::getBinaryPath() const
FUNC 26b750 8 0 geode::Mod::Impl::getPackagePath() const
FUNC 26b758 8 0 geode::Mod::Impl::getVersion() const
FUNC 26b760 8 0 geode::Mod::Impl::getSaveContainer()
FUNC 26b768 8 0 geode::Mod::Impl::isEnabled() const
FUNC 26b770 b8 0 geode::Mod::Impl::isInternal() const
FUNC 26b828 1d4 0 geode::Mod::Impl::needsEarlyLoad() const
FUNC 26b9fc 200 0 geode::Mod::Impl::getHooks() const
FUNC 26bbfc 200 0 geode::Mod::Impl::getPatches() const
FUNC 26bdfc 15c 0 geode::Mod::Impl::getSetting(std::__ndk1::basic_string_view<char, std::__ndk1::char_traits<char> >) const
FUNC 26bf58 790 0 geode::Mod::Impl::saveData()
FUNC 26c6e8 68 0 std::__ndk1::vector<std::__ndk1::pair<std::__ndk1::basic_string<char, std::__ndk1::char_traits<char>, std::__ndk1::allocator<char> >, geode::Setting>, std::__ndk1::allocator<std::__ndk1::pair<std::__ndk1::basic_string<char, std::__ndk1::char_traits<char>, std::__ndk1::allocator<char> >, geode::Setting> > >::~vector[abi:v170000]()
FUNC 26c750 178 0 geode::Mod::Impl::registerCustomSetting(std::__ndk1::basic_string_view<char, std::__ndk1::char_traits<char> >, std::__ndk1::unique_ptr<geode::SettingValue, std::__ndk1::default_delete<geode::SettingValue> >)
FUNC 26c8c8 98 0 geode::Mod::Impl::hasSettings() const
FUNC 26c960 1b0 0 geode::Mod::Impl::getSettingKeys() const
FUNC 26cb10 158 0 geode::Mod::Impl::getSettingDefinition(std::__ndk1::basic_string_view<char, std::__ndk1::char_traits<char> >) const
FUNC 26cc68 100 0 geode::Mod::Impl::hasSetting(std::__ndk1::basic_string_view<char, std::__ndk1::char_traits<char> >) const
FUNC 26cd68 208 0 geode::Mod::Impl::getLaunchArgumentName(std::__ndk1::basic_string_view<char, std::__ndk1::char_traits<char> >) const
FUNC 26cf70 2d4 0 geode::Mod::Impl::getLaunchArgumentNames() const
FUNC 26d244 e4 0 geode::Mod::Impl::hasLaunchArgument(std::__ndk1::basic_string_view<char, std::__ndk1::char_traits<char> >) const
FUNC 26d328 e4 0 geode::Mod::Impl::getLaunchArgument(std::__ndk1::basic_string_view<char, std::__ndk1::char_traits<char> >) const
FUNC 26d40c e4 0 geode::Mod::Impl::getLaunchFlag(std::__ndk1::basic_string_view<char, std::__ndk1::char_traits<char> >) const
FUNC 26d4f0 540 0 geode::Mod::Impl::loadBinary()
FUNC 26da30 19c 0 geode::Mod::Impl::enable()
FUNC 26dbcc 118 0 geode::Mod::setSavedValue<bool>(std::__ndk1::basic_string_view<char, std::__ndk1::char_traits<char> >, bool const&)
FUNC 26dce4 198 0 geode::Mod::Impl::disable()
FUNC 26de7c 338 0 geode::Mod::Impl::uninstall(bool)
FUNC 26e1b4 14 0 geode::Mod::Impl::isUninstalled() const
FUNC 26e1c8 8 0 geode::Mod::Impl::getRequestedAction() const
FUNC 26e1d0 64 0 geode::Mod::Impl::updateDependencies()
FUNC 26e234 100 0 geode::Mod::Impl::hasUnresolvedDependencies() const
FUNC 26e334 100 0 geode::Mod::Impl::hasUnresolvedIncompatibilities() const
FUNC 26e434 114 0 geode::Mod::Impl::depends(std::__ndk1::basic_string_view<char, std::__ndk1::char_traits<char> >) const
FUNC 26e548 4c8 0 geode::Mod::Impl::claimHook(std::__ndk1::shared_ptr<geode::Hook>)
FUNC 26ea10 9c 0 geode::Err<std::__ndk1::basic_string<char, std::__ndk1::char_traits<char>, std::__ndk1::allocator<char> > >(std::__ndk1::basic_string<char, std::__ndk1::char_traits<char>, std::__ndk1::allocator<char> > const&, std::__ndk1::basic_string<char, std::__ndk1::char_traits<char>, std::__ndk1::allocator<char> >&&)
FUNC 26eaac 528 0 geode::Mod::Impl::disownHook(geode::Hook*)
FUNC 26efd4 464 0 geode::Mod::Impl::claimPatch(std::__ndk1::shared_ptr<geode::Patch>)
FUNC 26f438 518 0 geode::Mod::Impl::disownPatch(geode::Patch*)
FUNC 26f950 9cc 0 geode::Mod::Impl::unzipGeodeFile(geode::ModMetadata)
FUNC 27031c 104 0 geode::Result<geode::utils::file::Unzip, std::__ndk1::basic_string<char, std::__ndk1::char_traits<char>, std::__ndk1::allocator<char> > >::unwrap() &
FUNC 270420 20 0 cpp::bitwizeshift::result<geode::utils::file::Unzip, std::__ndk1::basic_string<char, std::__ndk1::char_traits<char>, std::__ndk1::allocator<char> > >::~result()
FUNC 270440 128 0 geode::Mod::Impl::getConfigDir(bool) const
FUNC 270568 3f0 0 geode::Mod::Impl::expandSpriteName(char const*)
FUNC 270958 5ac 0 geode::Mod::Impl::getRuntimeInfo() const
FUNC 270f04 68 0 std::__ndk1::vector<matjson::Value, std::__ndk1::allocator<matjson::Value> >::~vector[abi:v170000]()
FUNC 270f6c bc 0 matjson::Value::Value<ghc::filesystem::path>()
FUNC 271028 8 0 geode::Mod::Impl::isLoggingEnabled() const
FUNC 271030 8 0 geode::Mod::Impl::setLoggingEnabled(bool)
FUNC 271038 144 0 geode::Mod::Impl::shouldLoad() const
FUNC 27117c 128 0 geode::Mod::getSavedValue<bool>(std::__ndk1::basic_string_view<char, std::__ndk1::char_traits<char> >, bool const&)
FUNC 2712a4 8 0 geode::Mod::Impl::isCurrentlyLoading() const
FUNC 2712ac 38 0 geode::Mod::Impl::hasProblems() const
FUNC 2712e4 c 0 geode::Mod::Impl::getProblems() const
FUNC 2712f0 790 0 geode::Loader::Impl::getInternalMod()
FUNC 271a80 340 0 geode::Loader::Impl::setupInternalMod()
FUNC 271dc0 14 0 std::__ndk1::vector<geode::Hook*, std::__ndk1::allocator<geode::Hook*> >::__throw_length_error[abi:v170000]() const
FUNC 271dd4 14 0 std::__ndk1::vector<geode::Patch*, std::__ndk1::allocator<geode::Patch*> >::__throw_length_error[abi:v170000]() const
FUNC 271de8 b8 0 std::__ndk1::__destroy_at[abi:v170000]<std::__ndk1::pair<std::__ndk1::basic_string<char, std::__ndk1::char_traits<char>, std::__ndk1::allocator<char> >, geode::Setting>, 0>(std::__ndk1::pair<std::__ndk1::basic_string<char, std::__ndk1::char_traits<char>, std::__ndk1::allocator<char> >, geode::Setting>*)
FUNC 271ea0 54 0 std::__ndk1::__variant_detail::__visitation::__base::__dispatcher<(unsigned long)0>::__dispatch[abi:v170000]<std::__ndk1::__variant_detail::__dtor<std::__ndk1::__variant_detail::__traits<geode::BoolSetting, std::__ndk1::__variant_detail::__traits::IntSetting, std::__ndk1::__variant_detail::__traits::FloatSetting, std::__ndk1::__variant_detail::__traits::StringSetting, std::__ndk1::__variant_detail::__traits::FileSetting, std::__ndk1::__variant_detail::__traits::ColorSetting, std::__ndk1::__variant_detail::__traits::ColorAlphaSetting, std::__ndk1::__variant_detail::__traits::CustomSetting>, (std::__ndk1::__variant_detail::_Trait)1>::__destroy[abi:v170000]()::{lambda(auto:1&)#1}, std::__ndk1::__variant_detail::__base<(std::__ndk1::__variant_detail::__traits<geode::BoolSetting, std::__ndk1::__variant_detail::__traits::IntSetting, std::__ndk1::__variant_detail::__traits::FloatSetting, std::__ndk1::__variant_detail::__traits::StringSetting, std::__ndk1::__variant_detail::__traits::FileSetting, std::__ndk1::__variant_detail::__traits::ColorSetting, std::__ndk1::__variant_detail::__traits::ColorAlphaSetting, std::__ndk1::__variant_detail::__traits::CustomSetting>)1, geode, geode::BoolSetting, std::__ndk1::__variant_detail::__traits::IntSetting, std::__ndk1::__variant_detail::__traits::FloatSetting, std::__ndk1::__variant_detail::__traits::StringSetting, std::__ndk1::__variant_detail::__traits::FileSetting, std::__ndk1::__variant_detail::__traits::ColorSetting, std::__ndk1::__variant_detail::__traits::ColorAlphaSetting>&>(std::__ndk1::__variant_detail::__dtor<std::__ndk1::__variant_detail::__traits<geode::BoolSetting, std::__ndk1::__variant_detail::__traits::IntSetting, std::__ndk1::__variant_detail::__traits::FloatSetting, std::__ndk1::__variant_detail::__traits::StringSetting, std::__ndk1::__variant_detail::__traits::FileSetting, std::__ndk1::__variant_detail::__traits::ColorSetting, std::__ndk1::__variant_detail::__traits::ColorAlphaSetting, std::__ndk1::__variant_detail::__traits::CustomSetting>, (std::__ndk1::__variant_detail::_Trait)1>, std::__ndk1::__variant_detail::__base<(std::__ndk1::__variant_detail::__traits<geode::BoolSetting, std::__ndk1::__variant_detail::__traits::IntSetting, std::__ndk1::__variant_detail::__traits::FloatSetting, std::__ndk1::__variant_detail::__traits::StringSetting, std::__ndk1::__variant_detail::__traits::FileSetting, std::__ndk1::__variant_detail::__traits::ColorSetting, std::__ndk1::__variant_detail::__traits::ColorAlphaSetting, std::__ndk1::__variant_detail::__traits::CustomSetting>)1, geode, geode::BoolSetting, std::__ndk1::__variant_detail::__traits::IntSetting, std::__ndk1::__variant_detail::__traits::FloatSetting, std::__ndk1::__variant_detail::__traits::StringSetting, std::__ndk1::__variant_detail::__traits::FileSetting, std::__ndk1::__variant_detail::__traits::ColorSetting, std::__ndk1::__variant_detail::__traits::ColorAlphaSetting>&)
FUNC 271ef4 54 0 std::__ndk1::__variant_detail::__visitation::__base::__dispatcher<(unsigned long)1>::__dispatch[abi:v170000]<std::__ndk1::__variant_detail::__dtor<std::__ndk1::__variant_detail::__traits<geode::BoolSetting, std::__ndk1::__variant_detail::__traits::IntSetting, std::__ndk1::__variant_detail::__traits::FloatSetting, std::__ndk1::__variant_detail::__traits::StringSetting, std::__ndk1::__variant_detail::__traits::FileSetting, std::__ndk1::__variant_detail::__traits::ColorSetting, std::__ndk1::__variant_detail::__traits::ColorAlphaSetting, std::__ndk1::__variant_detail::__traits::CustomSetting>, (std::__ndk1::__variant_detail::_Trait)1>::__destroy[abi:v170000]()::{lambda(auto:1&)#1}, std::__ndk1::__variant_detail::__base<(std::__ndk1::__variant_detail::__traits<geode::BoolSetting, std::__ndk1::__variant_detail::__traits::IntSetting, std::__ndk1::__variant_detail::__traits::FloatSetting, std::__ndk1::__variant_detail::__traits::StringSetting, std::__ndk1::__variant_detail::__traits::FileSetting, std::__ndk1::__variant_detail::__traits::ColorSetting, std::__ndk1::__variant_detail::__traits::ColorAlphaSetting, std::__ndk1::__variant_detail::__traits::CustomSetting>)1, geode, geode::BoolSetting, std::__ndk1::__variant_detail::__traits::IntSetting, std::__ndk1::__variant_detail::__traits::FloatSetting, std::__ndk1::__variant_detail::__traits::StringSetting, std::__ndk1::__variant_detail::__traits::FileSetting, std::__ndk1::__variant_detail::__traits::ColorSetting, std::__ndk1::__variant_detail::__traits::ColorAlphaSetting>&>(std::__ndk1::__variant_detail::__dtor<std::__ndk1::__variant_detail::__traits<geode::BoolSetting, std::__ndk1::__variant_detail::__traits::IntSetting, std::__ndk1::__variant_detail::__traits::FloatSetting, std::__ndk1::__variant_detail::__traits::StringSetting, std::__ndk1::__variant_detail::__traits::FileSetting, std::__ndk1::__variant_detail::__traits::ColorSetting, std::__ndk1::__variant_detail::__traits::ColorAlphaSetting, std::__ndk1::__variant_detail::__traits::CustomSetting>, (std::__ndk1::__variant_detail::_Trait)1>, std::__ndk1::__variant_detail::__base<(std::__ndk1::__variant_detail::__traits<geode::BoolSetting, std::__ndk1::__variant_detail::__traits::IntSetting, std::__ndk1::__variant_detail::__traits::FloatSetting, std::__ndk1::__variant_detail::__traits::StringSetting, std::__ndk1::__variant_detail::__traits::FileSetting, std::__ndk1::__variant_detail::__traits::ColorSetting, std::__ndk1::__variant_detail::__traits::ColorAlphaSetting, std::__ndk1::__variant_detail::__traits::CustomSetting>)1, geode, geode::BoolSetting, std::__ndk1::__variant_detail::__traits::IntSetting, std::__ndk1::__variant_detail::__traits::FloatSetting, std::__ndk1::__variant_detail::__traits::StringSetting, std::__ndk1::__variant_detail::__traits::FileSetting, std::__ndk1::__variant_detail::__traits::ColorSetting, std::__ndk1::__variant_detail::__traits::ColorAlphaSetting>&)
FUNC 271f48 54 0 std::__ndk1::__variant_detail::__visitation::__base::__dispatcher<(unsigned long)2>::__dispatch[abi:v170000]<std::__ndk1::__variant_detail::__dtor<std::__ndk1::__variant_detail::__traits<geode::BoolSetting, std::__ndk1::__variant_detail::__traits::IntSetting, std::__ndk1::__variant_detail::__traits::FloatSetting, std::__ndk1::__variant_detail::__traits::StringSetting, std::__ndk1::__variant_detail::__traits::FileSetting, std::__ndk1::__variant_detail::__traits::ColorSetting, std::__ndk1::__variant_detail::__traits::ColorAlphaSetting, std::__ndk1::__variant_detail::__traits::CustomSetting>, (std::__ndk1::__variant_detail::_Trait)1>::__destroy[abi:v170000]()::{lambda(auto:1&)#1}, std::__ndk1::__variant_detail::__base<(std::__ndk1::__variant_detail::__traits<geode::BoolSetting, std::__ndk1::__variant_detail::__traits::IntSetting, std::__ndk1::__variant_detail::__traits::FloatSetting, std::__ndk1::__variant_detail::__traits::StringSetting, std::__ndk1::__variant_detail::__traits::FileSetting, std::__ndk1::__variant_detail::__traits::ColorSetting, std::__ndk1::__variant_detail::__traits::ColorAlphaSetting, std::__ndk1::__variant_detail::__traits::CustomSetting>)1, geode, geode::BoolSetting, std::__ndk1::__variant_detail::__traits::IntSetting, std::__ndk1::__variant_detail::__traits::FloatSetting, std::__ndk1::__variant_detail::__traits::StringSetting, std::__ndk1::__variant_detail::__traits::FileSetting, std::__ndk1::__variant_detail::__traits::ColorSetting, std::__ndk1::__variant_detail::__traits::ColorAlphaSetting>&>(std::__ndk1::__variant_detail::__dtor<std::__ndk1::__variant_detail::__traits<geode::BoolSetting, std::__ndk1::__variant_detail::__traits::IntSetting, std::__ndk1::__variant_detail::__traits::FloatSetting, std::__ndk1::__variant_detail::__traits::StringSetting, std::__ndk1::__variant_detail::__traits::FileSetting, std::__ndk1::__variant_detail::__traits::ColorSetting, std::__ndk1::__variant_detail::__traits::ColorAlphaSetting, std::__ndk1::__variant_detail::__traits::CustomSetting>, (std::__ndk1::__variant_detail::_Trait)1>, std::__ndk1::__variant_detail::__base<(std::__ndk1::__variant_detail::__traits<geode::BoolSetting, std::__ndk1::__variant_detail::__traits::IntSetting, std::__ndk1::__variant_detail::__traits::FloatSetting, std::__ndk1::__variant_detail::__traits::StringSetting, std::__ndk1::__variant_detail::__traits::FileSetting, std::__ndk1::__variant_detail::__traits::ColorSetting, std::__ndk1::__variant_detail::__traits::ColorAlphaSetting, std::__ndk1::__variant_detail::__traits::CustomSetting>)1, geode, geode::BoolSetting, std::__ndk1::__variant_detail::__traits::IntSetting, std::__ndk1::__variant_detail::__traits::FloatSetting, std::__ndk1::__variant_detail::__traits::StringSetting, std::__ndk1::__variant_detail::__traits::FileSetting, std::__ndk1::__variant_detail::__traits::ColorSetting, std::__ndk1::__variant_detail::__traits::ColorAlphaSetting>&)
FUNC 271f9c 8 0 std::__ndk1::__variant_detail::__visitation::__base::__dispatcher<(unsigned long)3>::__dispatch[abi:v170000]<std::__ndk1::__variant_detail::__dtor<std::__ndk1::__variant_detail::__traits<geode::BoolSetting, std::__ndk1::__variant_detail::__traits::IntSetting, std::__ndk1::__variant_detail::__traits::FloatSetting, std::__ndk1::__variant_detail::__traits::StringSetting, std::__ndk1::__variant_detail::__traits::FileSetting, std::__ndk1::__variant_detail::__traits::ColorSetting, std::__ndk1::__variant_detail::__traits::ColorAlphaSetting, std::__ndk1::__variant_detail::__traits::CustomSetting>, (std::__ndk1::__variant_detail::_Trait)1>::__destroy[abi:v170000]()::{lambda(auto:1&)#1}, std::__ndk1::__variant_detail::__base<(std::__ndk1::__variant_detail::__traits<geode::BoolSetting, std::__ndk1::__variant_detail::__traits::IntSetting, std::__ndk1::__variant_detail::__traits::FloatSetting, std::__ndk1::__variant_detail::__traits::StringSetting, std::__ndk1::__variant_detail::__traits::FileSetting, std::__ndk1::__variant_detail::__traits::ColorSetting, std::__ndk1::__variant_detail::__traits::ColorAlphaSetting, std::__ndk1::__variant_detail::__traits::CustomSetting>)1, geode, geode::BoolSetting, std::__ndk1::__variant_detail::__traits::IntSetting, std::__ndk1::__variant_detail::__traits::FloatSetting, std::__ndk1::__variant_detail::__traits::StringSetting, std::__ndk1::__variant_detail::__traits::FileSetting, std::__ndk1::__variant_detail::__traits::ColorSetting, std::__ndk1::__variant_detail::__traits::ColorAlphaSetting>&>(std::__ndk1::__variant_detail::__dtor<std::__ndk1::__variant_detail::__traits<geode::BoolSetting, std::__ndk1::__variant_detail::__traits::IntSetting, std::__ndk1::__variant_detail::__traits::FloatSetting, std::__ndk1::__variant_detail::__traits::StringSetting, std::__ndk1::__variant_detail::__traits::FileSetting, std::__ndk1::__variant_detail::__traits::ColorSetting, std::__ndk1::__variant_detail::__traits::ColorAlphaSetting, std::__ndk1::__variant_detail::__traits::CustomSetting>, (std::__ndk1::__variant_detail::_Trait)1>, std::__ndk1::__variant_detail::__base<(std::__ndk1::__variant_detail::__traits<geode::BoolSetting, std::__ndk1::__variant_detail::__traits::IntSetting, std::__ndk1::__variant_detail::__traits::FloatSetting, std::__ndk1::__variant_detail::__traits::StringSetting, std::__ndk1::__variant_detail::__traits::FileSetting, std::__ndk1::__variant_detail::__traits::ColorSetting, std::__ndk1::__variant_detail::__traits::ColorAlphaSetting, std::__ndk1::__variant_detail::__traits::CustomSetting>)1, geode, geode::BoolSetting, std::__ndk1::__variant_detail::__traits::IntSetting, std::__ndk1::__variant_detail::__traits::FloatSetting, std::__ndk1::__variant_detail::__traits::StringSetting, std::__ndk1::__variant_detail::__traits::FileSetting, std::__ndk1::__variant_detail::__traits::ColorSetting, std::__ndk1::__variant_detail::__traits::ColorAlphaSetting>&)
FUNC 271fa4 78 0 std::__ndk1::__variant_detail::__visitation::__base::__dispatcher<(unsigned long)4>::__dispatch[abi:v170000]<std::__ndk1::__variant_detail::__dtor<std::__ndk1::__variant_detail::__traits<geode::BoolSetting, std::__ndk1::__variant_detail::__traits::IntSetting, std::__ndk1::__variant_detail::__traits::FloatSetting, std::__ndk1::__variant_detail::__traits::StringSetting, std::__ndk1::__variant_detail::__traits::FileSetting, std::__ndk1::__variant_detail::__traits::ColorSetting, std::__ndk1::__variant_detail::__traits::ColorAlphaSetting, std::__ndk1::__variant_detail::__traits::CustomSetting>, (std::__ndk1::__variant_detail::_Trait)1>::__destroy[abi:v170000]()::{lambda(auto:1&)#1}, std::__ndk1::__variant_detail::__base<(std::__ndk1::__variant_detail::__traits<geode::BoolSetting, std::__ndk1::__variant_detail::__traits::IntSetting, std::__ndk1::__variant_detail::__traits::FloatSetting, std::__ndk1::__variant_detail::__traits::StringSetting, std::__ndk1::__variant_detail::__traits::FileSetting, std::__ndk1::__variant_detail::__traits::ColorSetting, std::__ndk1::__variant_detail::__traits::ColorAlphaSetting, std::__ndk1::__variant_detail::__traits::CustomSetting>)1, geode, geode::BoolSetting, std::__ndk1::__variant_detail::__traits::IntSetting, std::__ndk1::__variant_detail::__traits::FloatSetting, std::__ndk1::__variant_detail::__traits::StringSetting, std::__ndk1::__variant_detail::__traits::FileSetting, std::__ndk1::__variant_detail::__traits::ColorSetting, std::__ndk1::__variant_detail::__traits::ColorAlphaSetting>&>(std::__ndk1::__variant_detail::__dtor<std::__ndk1::__variant_detail::__traits<geode::BoolSetting, std::__ndk1::__variant_detail::__traits::IntSetting, std::__ndk1::__variant_detail::__traits::FloatSetting, std::__ndk1::__variant_detail::__traits::StringSetting, std::__ndk1::__variant_detail::__traits::FileSetting, std::__ndk1::__variant_detail::__traits::ColorSetting, std::__ndk1::__variant_detail::__traits::ColorAlphaSetting, std::__ndk1::__variant_detail::__traits::CustomSetting>, (std::__ndk1::__variant_detail::_Trait)1>, std::__ndk1::__variant_detail::__base<(std::__ndk1::__variant_detail::__traits<geode::BoolSetting, std::__ndk1::__variant_detail::__traits::IntSetting, std::__ndk1::__variant_detail::__traits::FloatSetting, std::__ndk1::__variant_detail::__traits::StringSetting, std::__ndk1::__variant_detail::__traits::FileSetting, std::__ndk1::__variant_detail::__traits::ColorSetting, std::__ndk1::__variant_detail::__traits::ColorAlphaSetting, std::__ndk1::__variant_detail::__traits::CustomSetting>)1, geode, geode::BoolSetting, std::__ndk1::__variant_detail::__traits::IntSetting, std::__ndk1::__variant_detail::__traits::FloatSetting, std::__ndk1::__variant_detail::__traits::StringSetting, std::__ndk1::__variant_detail::__traits::FileSetting, std::__ndk1::__variant_detail::__traits::ColorSetting, std::__ndk1::__variant_detail::__traits::ColorAlphaSetting>&)
FUNC 27201c 54 0 std::__ndk1::__variant_detail::__visitation::__base::__dispatcher<(unsigned long)5>::__dispatch[abi:v170000]<std::__ndk1::__variant_detail::__dtor<std::__ndk1::__variant_detail::__traits<geode::BoolSetting, std::__ndk1::__variant_detail::__traits::IntSetting, std::__ndk1::__variant_detail::__traits::FloatSetting, std::__ndk1::__variant_detail::__traits::StringSetting, std::__ndk1::__variant_detail::__traits::FileSetting, std::__ndk1::__variant_detail::__traits::ColorSetting, std::__ndk1::__variant_detail::__traits::ColorAlphaSetting, std::__ndk1::__variant_detail::__traits::CustomSetting>, (std::__ndk1::__variant_detail::_Trait)1>::__destroy[abi:v170000]()::{lambda(auto:1&)#1}, std::__ndk1::__variant_detail::__base<(std::__ndk1::__variant_detail::__traits<geode::BoolSetting, std::__ndk1::__variant_detail::__traits::IntSetting, std::__ndk1::__variant_detail::__traits::FloatSetting, std::__ndk1::__variant_detail::__traits::StringSetting, std::__ndk1::__variant_detail::__traits::FileSetting, std::__ndk1::__variant_detail::__traits::ColorSetting, std::__ndk1::__variant_detail::__traits::ColorAlphaSetting, std::__ndk1::__variant_detail::__traits::CustomSetting>)1, geode, geode::BoolSetting, std::__ndk1::__variant_detail::__traits::IntSetting, std::__ndk1::__variant_detail::__traits::FloatSetting, std::__ndk1::__variant_detail::__traits::StringSetting, std::__ndk1::__variant_detail::__traits::FileSetting, std::__ndk1::__variant_detail::__traits::ColorSetting, std::__ndk1::__variant_detail::__traits::ColorAlphaSetting>&>(std::__ndk1::__variant_detail::__dtor<std::__ndk1::__variant_detail::__traits<geode::BoolSetting, std::__ndk1::__variant_detail::__traits::IntSetting, std::__ndk1::__variant_detail::__traits::FloatSetting, std::__ndk1::__variant_detail::__traits::StringSetting, std::__ndk1::__variant_detail::__traits::FileSetting, std::__ndk1::__variant_detail::__traits::ColorSetting, std::__ndk1::__variant_detail::__traits::ColorAlphaSetting, std::__ndk1::__variant_detail::__traits::CustomSetting>, (std::__ndk1::__variant_detail::_Trait)1>, std::__ndk1::__variant_detail::__base<(std::__ndk1::__variant_detail::__traits<geode::BoolSetting, std::__ndk1::__variant_detail::__traits::IntSetting, std::__ndk1::__variant_detail::__traits::FloatSetting, std::__ndk1::__variant_detail::__traits::StringSetting, std::__ndk1::__variant_detail::__traits::FileSetting, std::__ndk1::__variant_detail::__traits::ColorSetting, std::__ndk1::__variant_detail::__traits::ColorAlphaSetting, std::__ndk1::__variant_detail::__traits::CustomSetting>)1, geode, geode::BoolSetting, std::__ndk1::__variant_detail::__traits::IntSetting, std::__ndk1::__variant_detail::__traits::FloatSetting, std::__ndk1::__variant_detail::__traits::StringSetting, std::__ndk1::__variant_detail::__traits::FileSetting, std::__ndk1::__variant_detail::__traits::ColorSetting, std::__ndk1::__variant_detail::__traits::ColorAlphaSetting>&)
FUNC 272070 54 0 std::__ndk1::__variant_detail::__visitation::__base::__dispatcher<(unsigned long)6>::__dispatch[abi:v170000]<std::__ndk1::__variant_detail::__dtor<std::__ndk1::__variant_detail::__traits<geode::BoolSetting, std::__ndk1::__variant_detail::__traits::IntSetting, std::__ndk1::__variant_detail::__traits::FloatSetting, std::__ndk1::__variant_detail::__traits::StringSetting, std::__ndk1::__variant_detail::__traits::FileSetting, std::__ndk1::__variant_detail::__traits::ColorSetting, std::__ndk1::__variant_detail::__traits::ColorAlphaSetting, std::__ndk1::__variant_detail::__traits::CustomSetting>, (std::__ndk1::__variant_detail::_Trait)1>::__destroy[abi:v170000]()::{lambda(auto:1&)#1}, std::__ndk1::__variant_detail::__base<(std::__ndk1::__variant_detail::__traits<geode::BoolSetting, std::__ndk1::__variant_detail::__traits::IntSetting, std::__ndk1::__variant_detail::__traits::FloatSetting, std::__ndk1::__variant_detail::__traits::StringSetting, std::__ndk1::__variant_detail::__traits::FileSetting, std::__ndk1::__variant_detail::__traits::ColorSetting, std::__ndk1::__variant_detail::__traits::ColorAlphaSetting, std::__ndk1::__variant_detail::__traits::CustomSetting>)1, geode, geode::BoolSetting, std::__ndk1::__variant_detail::__traits::IntSetting, std::__ndk1::__variant_detail::__traits::FloatSetting, std::__ndk1::__variant_detail::__traits::StringSetting, std::__ndk1::__variant_detail::__traits::FileSetting, std::__ndk1::__variant_detail::__traits::ColorSetting, std::__ndk1::__variant_detail::__traits::ColorAlphaSetting>&>(std::__ndk1::__variant_detail::__dtor<std::__ndk1::__variant_detail::__traits<geode::BoolSetting, std::__ndk1::__variant_detail::__traits::IntSetting, std::__ndk1::__variant_detail::__traits::FloatSetting, std::__ndk1::__variant_detail::__traits::StringSetting, std::__ndk1::__variant_detail::__traits::FileSetting, std::__ndk1::__variant_detail::__traits::ColorSetting, std::__ndk1::__variant_detail::__traits::ColorAlphaSetting, std::__ndk1::__variant_detail::__traits::CustomSetting>, (std::__ndk1::__variant_detail::_Trait)1>, std::__ndk1::__variant_detail::__base<(std::__ndk1::__variant_detail::__traits<geode::BoolSetting, std::__ndk1::__variant_detail::__traits::IntSetting, std::__ndk1::__variant_detail::__traits::FloatSetting, std::__ndk1::__variant_detail::__traits::StringSetting, std::__ndk1::__variant_detail::__traits::FileSetting, std::__ndk1::__variant_detail::__traits::ColorSetting, std::__ndk1::__variant_detail::__traits::ColorAlphaSetting, std::__ndk1::__variant_detail::__traits::CustomSetting>)1, geode, geode::BoolSetting, std::__ndk1::__variant_detail::__traits::IntSetting, std::__ndk1::__variant_detail::__traits::FloatSetting, std::__ndk1::__variant_detail::__traits::StringSetting, std::__ndk1::__variant_detail::__traits::FileSetting, std::__ndk1::__variant_detail::__traits::ColorSetting, std::__ndk1::__variant_detail::__traits::ColorAlphaSetting>&)
FUNC 2720c4 50 0 std::__ndk1::__variant_detail::__visitation::__base::__dispatcher<(unsigned long)7>::__dispatch[abi:v170000]<std::__ndk1::__variant_detail::__dtor<std::__ndk1::__variant_detail::__traits<geode::BoolSetting, std::__ndk1::__variant_detail::__traits::IntSetting, std::__ndk1::__variant_detail::__traits::FloatSetting, std::__ndk1::__variant_detail::__traits::StringSetting, std::__ndk1::__variant_detail::__traits::FileSetting, std::__ndk1::__variant_detail::__traits::ColorSetting, std::__ndk1::__variant_detail::__traits::ColorAlphaSetting, std::__ndk1::__variant_detail::__traits::CustomSetting>, (std::__ndk1::__variant_detail::_Trait)1>::__destroy[abi:v170000]()::{lambda(auto:1&)#1}, std::__ndk1::__variant_detail::__base<(std::__ndk1::__variant_detail::__traits<geode::BoolSetting, std::__ndk1::__variant_detail::__traits::IntSetting, std::__ndk1::__variant_detail::__traits::FloatSetting, std::__ndk1::__variant_detail::__traits::StringSetting, std::__ndk1::__variant_detail::__traits::FileSetting, std::__ndk1::__variant_detail::__traits::ColorSetting, std::__ndk1::__variant_detail::__traits::ColorAlphaSetting, std::__ndk1::__variant_detail::__traits::CustomSetting>)1, geode, geode::BoolSetting, std::__ndk1::__variant_detail::__traits::IntSetting, std::__ndk1::__variant_detail::__traits::FloatSetting, std::__ndk1::__variant_detail::__traits::StringSetting, std::__ndk1::__variant_detail::__traits::FileSetting, std::__ndk1::__variant_detail::__traits::ColorSetting, std::__ndk1::__variant_detail::__traits::ColorAlphaSetting>&>(std::__ndk1::__variant_detail::__dtor<std::__ndk1::__variant_detail::__traits<geode::BoolSetting, std::__ndk1::__variant_detail::__traits::IntSetting, std::__ndk1::__variant_detail::__traits::FloatSetting, std::__ndk1::__variant_detail::__traits::StringSetting, std::__ndk1::__variant_detail::__traits::FileSetting, std::__ndk1::__variant_detail::__traits::ColorSetting, std::__ndk1::__variant_detail::__traits::ColorAlphaSetting, std::__ndk1::__variant_detail::__traits::CustomSetting>, (std::__ndk1::__variant_detail::_Trait)1>, std::__ndk1::__variant_detail::__base<(std::__ndk1::__variant_detail::__traits<geode::BoolSetting, std::__ndk1::__variant_detail::__traits::IntSetting, std::__ndk1::__variant_detail::__traits::FloatSetting, std::__ndk1::__variant_detail::__traits::StringSetting, std::__ndk1::__variant_detail::__traits::FileSetting, std::__ndk1::__variant_detail::__traits::ColorSetting, std::__ndk1::__variant_detail::__traits::ColorAlphaSetting, std::__ndk1::__variant_detail::__traits::CustomSetting>)1, geode, geode::BoolSetting, std::__ndk1::__variant_detail::__traits::IntSetting, std::__ndk1::__variant_detail::__traits::FloatSetting, std::__ndk1::__variant_detail::__traits::StringSetting, std::__ndk1::__variant_detail::__traits::FileSetting, std::__ndk1::__variant_detail::__traits::ColorSetting, std::__ndk1::__variant_detail::__traits::ColorAlphaSetting>&)
FUNC 272114 94 0 geode::StringSetting::~StringSetting()
FUNC 2721a8 a4 0 std::__ndk1::vector<geode::utils::file::FilePickOptions::Filter, std::__ndk1::allocator<geode::utils::file::FilePickOptions::Filter> >::__base_destruct_at_end[abi:v170000](geode::utils::file::FilePickOptions::Filter*)
FUNC 27224c 20c 0 geode::Setting::Setting(geode::Setting const&)
FUNC 272458 64 0 _ZNSt6__ndk116__variant_detail12__visitation6__base12__dispatcherIJLm0ELm0EEE10__dispatchB7v170000IOZNS0_6__ctorINS0_8__traitsIJN5geode11BoolSettingENS8_10IntSettingENS8_12FloatSettingENS8_13StringSettingENS8_11FileSettingENS8_12ColorSettingENS8_17ColorAlphaSettingENS8_13CustomSettingEEEEE19__generic_constructB7v170000IRKNS0_18__copy_constructorISH_LNS0_6_TraitE1EEEEEvRSI_OT_EUlRSQ_OT0_E_JRNS0_6__baseILSL_1EJS9_SA_SB_SC_SD_SE_SF_SG_EEERKSY_EEEDcSQ_DpT0_
FUNC 2724bc 7c 0 _ZNSt6__ndk116__variant_detail12__visitation6__base12__dispatcherIJLm1ELm1EEE10__dispatchB7v170000IOZNS0_6__ctorINS0_8__traitsIJN5geode11BoolSettingENS8_10IntSettingENS8_12FloatSettingENS8_13StringSettingENS8_11FileSettingENS8_12ColorSettingENS8_17ColorAlphaSettingENS8_13CustomSettingEEEEE19__generic_constructB7v170000IRKNS0_18__copy_constructorISH_LNS0_6_TraitE1EEEEEvRSI_OT_EUlRSQ_OT0_E_JRNS0_6__baseILSL_1EJS9_SA_SB_SC_SD_SE_SF_SG_EEERKSY_EEEDcSQ_DpT0_
FUNC 272538 7c 0 _ZNSt6__ndk116__variant_detail12__visitation6__base12__dispatcherIJLm2ELm2EEE10__dispatchB7v170000IOZNS0_6__ctorINS0_8__traitsIJN5geode11BoolSettingENS8_10IntSettingENS8_12FloatSettingENS8_13StringSettingENS8_11FileSettingENS8_12ColorSettingENS8_17ColorAlphaSettingENS8_13CustomSettingEEEEE19__generic_constructB7v170000IRKNS0_18__copy_constructorISH_LNS0_6_TraitE1EEEEEvRSI_OT_EUlRSQ_OT0_E_JRNS0_6__baseILSL_1EJS9_SA_SB_SC_SD_SE_SF_SG_EEERKSY_EEEDcSQ_DpT0_
FUNC 2725b4 c 0 _ZNSt6__ndk116__variant_detail12__visitation6__base12__dispatcherIJLm3ELm3EEE10__dispatchB7v170000IOZNS0_6__ctorINS0_8__traitsIJN5geode11BoolSettingENS8_10IntSettingENS8_12FloatSettingENS8_13StringSettingENS8_11FileSettingENS8_12ColorSettingENS8_17ColorAlphaSettingENS8_13CustomSettingEEEEE19__generic_constructB7v170000IRKNS0_18__copy_constructorISH_LNS0_6_TraitE1EEEEEvRSI_OT_EUlRSQ_OT0_E_JRNS0_6__baseILSL_1EJS9_SA_SB_SC_SD_SE_SF_SG_EEERKSY_EEEDcSQ_DpT0_
FUNC 2725c0 c 0 _ZNSt6__ndk116__variant_detail12__visitation6__base12__dispatcherIJLm4ELm4EEE10__dispatchB7v170000IOZNS0_6__ctorINS0_8__traitsIJN5geode11BoolSettingENS8_10IntSettingENS8_12FloatSettingENS8_13StringSettingENS8_11FileSettingENS8_12ColorSettingENS8_17ColorAlphaSettingENS8_13CustomSettingEEEEE19__generic_constructB7v170000IRKNS0_18__copy_constructorISH_LNS0_6_TraitE1EEEEEvRSI_OT_EUlRSQ_OT0_E_JRNS0_6__baseILSL_1EJS9_SA_SB_SC_SD_SE_SF_SG_EEERKSY_EEEDcSQ_DpT0_
FUNC 2725cc 6c 0 _ZNSt6__ndk116__variant_detail12__visitation6__base12__dispatcherIJLm5ELm5EEE10__dispatchB7v170000IOZNS0_6__ctorINS0_8__traitsIJN5geode11BoolSettingENS8_10IntSettingENS8_12FloatSettingENS8_13StringSettingENS8_11FileSettingENS8_12ColorSettingENS8_17ColorAlphaSettingENS8_13CustomSettingEEEEE19__generic_constructB7v170000IRKNS0_18__copy_constructorISH_LNS0_6_TraitE1EEEEEvRSI_OT_EUlRSQ_OT0_E_JRNS0_6__baseILSL_1EJS9_SA_SB_SC_SD_SE_SF_SG_EEERKSY_EEEDcSQ_DpT0_
FUNC 272638 64 0 _ZNSt6__ndk116__variant_detail12__visitation6__base12__dispatcherIJLm6ELm6EEE10__dispatchB7v170000IOZNS0_6__ctorINS0_8__traitsIJN5geode11BoolSettingENS8_10IntSettingENS8_12FloatSettingENS8_13StringSettingENS8_11FileSettingENS8_12ColorSettingENS8_17ColorAlphaSettingENS8_13CustomSettingEEEEE19__generic_constructB7v170000IRKNS0_18__copy_constructorISH_LNS0_6_TraitE1EEEEEvRSI_OT_EUlRSQ_OT0_E_JRNS0_6__baseILSL_1EJS9_SA_SB_SC_SD_SE_SF_SG_EEERKSY_EEEDcSQ_DpT0_
FUNC 27269c 28 0 _ZNSt6__ndk116__variant_detail12__visitation6__base12__dispatcherIJLm7ELm7EEE10__dispatchB7v170000IOZNS0_6__ctorINS0_8__traitsIJN5geode11BoolSettingENS8_10IntSettingENS8_12FloatSettingENS8_13StringSettingENS8_11FileSettingENS8_12ColorSettingENS8_17ColorAlphaSettingENS8_13CustomSettingEEEEE19__generic_constructB7v170000IRKNS0_18__copy_constructorISH_LNS0_6_TraitE1EEEEEvRSI_OT_EUlRSQ_OT0_E_JRNS0_6__baseILSL_1EJS9_SA_SB_SC_SD_SE_SF_SG_EEERKSY_EEEDcSQ_DpT0_
FUNC 2726c4 d0 0 std::__ndk1::__optional_copy_base<std::__ndk1::basic_string<char, std::__ndk1::char_traits<char>, std::__ndk1::allocator<char> >, false>::__optional_copy_base[abi:v170000](std::__ndk1::__optional_copy_base<std::__ndk1::basic_string<char, std::__ndk1::char_traits<char>, std::__ndk1::allocator<char> >, false> const&)
FUNC 272794 15c 0 geode::StringSetting::StringSetting(geode::StringSetting const&)
FUNC 2728f0 ac 0 geode::FileSetting::FileSetting(geode::FileSetting const&)
FUNC 27299c 13c 0 std::__ndk1::vector<geode::utils::file::FilePickOptions::Filter, std::__ndk1::allocator<geode::utils::file::FilePickOptions::Filter> >::vector(std::__ndk1::vector<geode::utils::file::FilePickOptions::Filter, std::__ndk1::allocator<geode::utils::file::FilePickOptions::Filter> > const&)
FUNC 272ad8 48 0 std::__ndk1::__exception_guard<std::__ndk1::vector<geode::utils::file::FilePickOptions::Filter, std::__ndk1::allocator<geode::utils::file::FilePickOptions::Filter> >::__destroy_vector>::~__exception_guard[abi:v170000]()
FUNC 272b20 14 0 std::__ndk1::vector<geode::utils::file::FilePickOptions::Filter, std::__ndk1::allocator<geode::utils::file::FilePickOptions::Filter> >::__throw_length_error[abi:v170000]() const
FUNC 272b34 20 0 std::__ndk1::__exception_guard<std::__ndk1::_AllocatorDestroyRangeReverse<std::__ndk1::allocator<geode::utils::file::FilePickOptions::Filter>, geode::utils::file::FilePickOptions::Filter*> >::~__exception_guard[abi:v170000]()
FUNC 272b54 c8 0 std::__ndk1::construct_at[abi:v170000]<geode::utils::file::FilePickOptions::Filter, geode::utils::file::FilePickOptions&, geode::utils::file::FilePickOptions*>(geode::utils::file::FilePickOptions::Filter, geode::utils::file::FilePickOptions&)
FUNC 272c1c 98 0 std::__ndk1::_AllocatorDestroyRangeReverse<std::__ndk1::allocator<geode::utils::file::FilePickOptions::Filter>, geode::utils::file::FilePickOptions::Filter*>::operator()[abi:v170000]() const
FUNC 272cb4 164 0 std::__ndk1::vector<std::__ndk1::shared_ptr<geode::Hook>, std::__ndk1::allocator<std::__ndk1::shared_ptr<geode::Hook> > >::__push_back_slow_path<std::__ndk1::shared_ptr<geode::Hook> const&>(std::__ndk1::shared_ptr<geode::Hook> const&)
FUNC 272e18 14 0 std::__ndk1::vector<std::__ndk1::shared_ptr<geode::Hook>, std::__ndk1::allocator<std::__ndk1::shared_ptr<geode::Hook> > >::__throw_length_error[abi:v170000]() const
FUNC 272e2c 164 0 std::__ndk1::vector<std::__ndk1::shared_ptr<geode::Patch>, std::__ndk1::allocator<std::__ndk1::shared_ptr<geode::Patch> > >::__push_back_slow_path<std::__ndk1::shared_ptr<geode::Patch> const&>(std::__ndk1::shared_ptr<geode::Patch> const&)
FUNC 272f90 14 0 std::__ndk1::vector<std::__ndk1::shared_ptr<geode::Patch>, std::__ndk1::allocator<std::__ndk1::shared_ptr<geode::Patch> > >::__throw_length_error[abi:v170000]() const
FUNC 272fa4 4 0 geode::utils::MiniFunctionState<geode::Mod::Impl::loadData()::$_0, void, >::~MiniFunctionState()
FUNC 272fa8 94 0 geode::utils::MiniFunctionState<geode::Mod::Impl::loadData()::$_0, void, >::call() const
FUNC 27303c 34 0 geode::utils::MiniFunctionState<geode::Mod::Impl::loadData()::$_0, void, >::clone() const
FUNC 273070 1c0 0 std::__ndk1::__hash_table<std::__ndk1::basic_string<char, std::__ndk1::char_traits<char>, std::__ndk1::allocator<char> >, std::__ndk1::hash<std::__ndk1::basic_string<char, std::__ndk1::char_traits<char>, std::__ndk1::allocator<char> > >, std::__ndk1::equal_to<std::__ndk1::basic_string<char, std::__ndk1::char_traits<char>, std::__ndk1::allocator<char> > >, std::__ndk1::allocator<std::__ndk1::basic_string<char, std::__ndk1::char_traits<char>, std::__ndk1::allocator<char> > > >::find<std::__ndk1::basic_string<char, std::__ndk1::char_traits<char>, std::__ndk1::allocator<char> > >(std::__ndk1::basic_string<char, std::__ndk1::char_traits<char>, std::__ndk1::allocator<char> > const&) const
FUNC 273230 3e0 0 std::__ndk1::__hash_table<std::__ndk1::__hash_value_type<std::__ndk1::basic_string<char, std::__ndk1::char_traits<char>, std::__ndk1::allocator<char> >, std::__ndk1::unique_ptr<geode::SettingValue, std::__ndk1::default_delete<geode::SettingValue> > >, std::__ndk1::__unordered_map_hasher<std::__ndk1::basic_string<char, std::__ndk1::char_traits<char>, std::__ndk1::allocator<char> >, std::__ndk1::__hash_value_type<std::__ndk1::basic_string<char, std::__ndk1::char_traits<char>, std::__ndk1::allocator<char> >, std::__ndk1::unique_ptr<geode::SettingValue, std::__ndk1::default_delete<geode::SettingValue> > >, std::__ndk1::hash<std::__ndk1::basic_string<char, std::__ndk1::char_traits<char>, std::__ndk1::allocator<char> > >, std::__ndk1::equal_to<std::__ndk1::basic_string<char, std::__ndk1::char_traits<char>, std::__ndk1::allocator<char> > >, true>, std::__ndk1::__unordered_map_equal<std::__ndk1::basic_string<char, std::__ndk1::char_traits<char>, std::__ndk1::allocator<char> >, std::__ndk1::__hash_value_type<std::__ndk1::basic_string<char, std::__ndk1::char_traits<char>, std::__ndk1::allocator<char> >, std::__ndk1::unique_ptr<geode::SettingValue, std::__ndk1::default_delete<geode::SettingValue> > >, std::__ndk1::equal_to<std::__ndk1::basic_string<char, std::__ndk1::char_traits<char>, std::__ndk1::allocator<char> > >, std::__ndk1::hash<std::__ndk1::basic_string<char, std::__ndk1::char_traits<char>, std::__ndk1::allocator<char> > >, true>, std::__ndk1::allocator<std::__ndk1::__hash_value_type<std::__ndk1::basic_string<char, std::__ndk1::char_traits<char>, std::__ndk1::allocator<char> >, std::__ndk1::unique_ptr<geode::SettingValue, std::__ndk1::default_delete<geode::SettingValue> > > > >::__emplace_unique_key_args<std::__ndk1::basic_string<char, std::__ndk1::char_traits<char>, std::__ndk1::allocator<char> >, std::__ndk1::basic_string<char, std::__ndk1::char_traits<char>, std::__ndk1::allocator<char> >&, std::__ndk1::unique_ptr<geode::SettingValue, std::__ndk1::default_delete<geode::SettingValue> > >(std::__ndk1::basic_string<char, std::__ndk1::char_traits<char>, std::__ndk1::allocator<char> > const&, std::__ndk1::basic_string<char, std::__ndk1::char_traits<char>, std::__ndk1::allocator<char> >&, std::__ndk1::unique_ptr<geode::SettingValue, std::__ndk1::default_delete<geode::SettingValue> >)
FUNC 273610 f4 0 std::__ndk1::__hash_table<std::__ndk1::__hash_value_type<std::__ndk1::basic_string<char, std::__ndk1::char_traits<char>, std::__ndk1::allocator<char> >, std::__ndk1::unique_ptr<geode::SettingValue, std::__ndk1::default_delete<geode::SettingValue> > >, std::__ndk1::__unordered_map_hasher<std::__ndk1::basic_string<char, std::__ndk1::char_traits<char>, std::__ndk1::allocator<char> >, std::__ndk1::__hash_value_type<std::__ndk1::basic_string<char, std::__ndk1::char_traits<char>, std::__ndk1::allocator<char> >, std::__ndk1::unique_ptr<geode::SettingValue, std::__ndk1::default_delete<geode::SettingValue> > >, std::__ndk1::hash<std::__ndk1::basic_string<char, std::__ndk1::char_traits<char>, std::__ndk1::allocator<char> > >, std::__ndk1::equal_to<std::__ndk1::basic_string<char, std::__ndk1::char_traits<char>, std::__ndk1::allocator<char> > >, true>, std::__ndk1::__unordered_map_equal<std::__ndk1::basic_string<char, std::__ndk1::char_traits<char>, std::__ndk1::allocator<char> >, std::__ndk1::__hash_value_type<std::__ndk1::basic_string<char, std::__ndk1::char_traits<char>, std::__ndk1::allocator<char> >, std::__ndk1::unique_ptr<geode::SettingValue, std::__ndk1::default_delete<geode::SettingValue> > >, std::__ndk1::equal_to<std::__ndk1::basic_string<char, std::__ndk1::char_traits<char>, std::__ndk1::allocator<char> > >, std::__ndk1::hash<std::__ndk1::basic_string<char, std::__ndk1::char_traits<char>, std::__ndk1::allocator<char> > >, true>, std::__ndk1::allocator<std::__ndk1::__hash_value_type<std::__ndk1::basic_string<char, std::__ndk1::char_traits<char>, std::__ndk1::allocator<char> >, std::__ndk1::unique_ptr<geode::SettingValue, std::__ndk1::default_delete<geode::SettingValue> > > > >::__construct_node_hash<std::__ndk1::basic_string<char, std::__ndk1::char_traits<char>, std::__ndk1::allocator<char> >&, std::__ndk1::unique_ptr<geode::SettingValue, std::__ndk1::default_delete<geode::SettingValue> > >(unsigned long, std::__ndk1::basic_string<char, std::__ndk1::char_traits<char>, std::__ndk1::allocator<char> >&, std::__ndk1::unique_ptr<geode::SettingValue, std::__ndk1::default_delete<geode::SettingValue> >&&)
FUNC 273704 64 0 std::__ndk1::unique_ptr<std::__ndk1::__hash_node<std::__ndk1::__hash_value_type<std::__ndk1::basic_string<char, std::__ndk1::char_traits<char>, std::__ndk1::allocator<char> >, std::__ndk1::unique_ptr<geode::SettingValue, std::__ndk1::default_delete<geode::SettingValue> > >, void*>, std::__ndk1::__hash_node_destructor<std::__ndk1::allocator<std::__ndk1::__hash_node<std::__ndk1::__hash_value_type<std::__ndk1::basic_string<char, std::__ndk1::char_traits<char>, std::__ndk1::allocator<char> >, std::__ndk1::unique_ptr<geode::SettingValue, std::__ndk1::default_delete<geode::SettingValue> > >, void*> > > >::~unique_ptr[abi:v170000]()
FUNC 273768 15c 0 std::__ndk1::__hash_table<std::__ndk1::__hash_value_type<std::__ndk1::basic_string<char, std::__ndk1::char_traits<char>, std::__ndk1::allocator<char> >, std::__ndk1::unique_ptr<geode::SettingValue, std::__ndk1::default_delete<geode::SettingValue> > >, std::__ndk1::__unordered_map_hasher<std::__ndk1::basic_string<char, std::__ndk1::char_traits<char>, std::__ndk1::allocator<char> >, std::__ndk1::__hash_value_type<std::__ndk1::basic_string<char, std::__ndk1::char_traits<char>, std::__ndk1::allocator<char> >, std::__ndk1::unique_ptr<geode::SettingValue, std::__ndk1::default_delete<geode::SettingValue> > >, std::__ndk1::hash<std::__ndk1::basic_string<char, std::__ndk1::char_traits<char>, std::__ndk1::allocator<char> > >, std::__ndk1::equal_to<std::__ndk1::basic_string<char, std::__ndk1::char_traits<char>, std::__ndk1::allocator<char> > >, true>, std::__ndk1::__unordered_map_equal<std::__ndk1::basic_string<char, std::__ndk1::char_traits<char>, std::__ndk1::allocator<char> >, std::__ndk1::__hash_value_type<std::__ndk1::basic_string<char, std::__ndk1::char_traits<char>, std::__ndk1::allocator<char> >, std::__ndk1::unique_ptr<geode::SettingValue, std::__ndk1::default_delete<geode::SettingValue> > >, std::__ndk1::equal_to<std::__ndk1::basic_string<char, std::__ndk1::char_traits<char>, std::__ndk1::allocator<char> > >, std::__ndk1::hash<std::__ndk1::basic_string<char, std::__ndk1::char_traits<char>, std::__ndk1::allocator<char> > >, true>, std::__ndk1::allocator<std::__ndk1::__hash_value_type<std::__ndk1::basic_string<char, std::__ndk1::char_traits<char>, std::__ndk1::allocator<char> >, std::__ndk1::unique_ptr<geode::SettingValue, std::__ndk1::default_delete<geode::SettingValue> > > > >::__do_rehash<true>(unsigned long)
FUNC 2738c4 1c0 0 std::__ndk1::__hash_table<std::__ndk1::__hash_value_type<std::__ndk1::basic_string<char, std::__ndk1::char_traits<char>, std::__ndk1::allocator<char> >, std::__ndk1::unique_ptr<geode::SettingValue, std::__ndk1::default_delete<geode::SettingValue> > >, std::__ndk1::__unordered_map_hasher<std::__ndk1::basic_string<char, std::__ndk1::char_traits<char>, std::__ndk1::allocator<char> >, std::__ndk1::__hash_value_type<std::__ndk1::basic_string<char, std::__ndk1::char_traits<char>, std::__ndk1::allocator<char> >, std::__ndk1::unique_ptr<geode::SettingValue, std::__ndk1::default_delete<geode::SettingValue> > >, std::__ndk1::hash<std::__ndk1::basic_string<char, std::__ndk1::char_traits<char>, std::__ndk1::allocator<char> > >, std::__ndk1::equal_to<std::__ndk1::basic_string<char, std::__ndk1::char_traits<char>, std::__ndk1::allocator<char> > >, true>, std::__ndk1::__unordered_map_equal<std::__ndk1::basic_string<char, std::__ndk1::char_traits<char>, std::__ndk1::allocator<char> >, std::__ndk1::__hash_value_type<std::__ndk1::basic_string<char, std::__ndk1::char_traits<char>, std::__ndk1::allocator<char> >, std::__ndk1::unique_ptr<geode::SettingValue, std::__ndk1::default_delete<geode::SettingValue> > >, std::__ndk1::equal_to<std::__ndk1::basic_string<char, std::__ndk1::char_traits<char>, std::__ndk1::allocator<char> > >, std::__ndk1::hash<std::__ndk1::basic_string<char, std::__ndk1::char_traits<char>, std::__ndk1::allocator<char> > >, true>, std::__ndk1::allocator<std::__ndk1::__hash_value_type<std::__ndk1::basic_string<char, std::__ndk1::char_traits<char>, std::__ndk1::allocator<char> >, std::__ndk1::unique_ptr<geode::SettingValue, std::__ndk1::default_delete<geode::SettingValue> > > > >::find<std::__ndk1::basic_string<char, std::__ndk1::char_traits<char>, std::__ndk1::allocator<char> > >(std::__ndk1::basic_string<char, std::__ndk1::char_traits<char>, std::__ndk1::allocator<char> > const&) const
FUNC 273a84 1c0 0 std::__ndk1::__hash_table<std::__ndk1::__hash_value_type<std::__ndk1::basic_string<char, std::__ndk1::char_traits<char>, std::__ndk1::allocator<char> >, char const*>, std::__ndk1::__unordered_map_hasher<std::__ndk1::basic_string<char, std::__ndk1::char_traits<char>, std::__ndk1::allocator<char> >, std::__ndk1::__hash_value_type<std::__ndk1::basic_string<char, std::__ndk1::char_traits<char>, std::__ndk1::allocator<char> >, char const*>, std::__ndk1::hash<std::__ndk1::basic_string<char, std::__ndk1::char_traits<char>, std::__ndk1::allocator<char> > >, std::__ndk1::equal_to<std::__ndk1::basic_string<char, std::__ndk1::char_traits<char>, std::__ndk1::allocator<char> > >, true>, std::__ndk1::__unordered_map_equal<std::__ndk1::basic_string<char, std::__ndk1::char_traits<char>, std::__ndk1::allocator<char> >, std::__ndk1::__hash_value_type<std::__ndk1::basic_string<char, std::__ndk1::char_traits<char>, std::__ndk1::allocator<char> >, char const*>, std::__ndk1::equal_to<std::__ndk1::basic_string<char, std::__ndk1::char_traits<char>, std::__ndk1::allocator<char> > >, std::__ndk1::hash<std::__ndk1::basic_string<char, std::__ndk1::char_traits<char>, std::__ndk1::allocator<char> > >, true>, std::__ndk1::allocator<std::__ndk1::__hash_value_type<std::__ndk1::basic_string<char, std::__ndk1::char_traits<char>, std::__ndk1::allocator<char> >, char const*> > >::find<std::__ndk1::basic_string<char, std::__ndk1::char_traits<char>, std::__ndk1::allocator<char> > >(std::__ndk1::basic_string<char, std::__ndk1::char_traits<char>, std::__ndk1::allocator<char> > const&) const
FUNC 273c44 3f0 0 std::__ndk1::__hash_table<std::__ndk1::__hash_value_type<std::__ndk1::basic_string<char, std::__ndk1::char_traits<char>, std::__ndk1::allocator<char> >, char const*>, std::__ndk1::__unordered_map_hasher<std::__ndk1::basic_string<char, std::__ndk1::char_traits<char>, std::__ndk1::allocator<char> >, std::__ndk1::__hash_value_type<std::__ndk1::basic_string<char, std::__ndk1::char_traits<char>, std::__ndk1::allocator<char> >, char const*>, std::__ndk1::hash<std::__ndk1::basic_string<char, std::__ndk1::char_traits<char>, std::__ndk1::allocator<char> > >, std::__ndk1::equal_to<std::__ndk1::basic_string<char, std::__ndk1::char_traits<char>, std::__ndk1::allocator<char> > >, true>, std::__ndk1::__unordered_map_equal<std::__ndk1::basic_string<char, std::__ndk1::char_traits<char>, std::__ndk1::allocator<char> >, std::__ndk1::__hash_value_type<std::__ndk1::basic_string<char, std::__ndk1::char_traits<char>, std::__ndk1::allocator<char> >, char const*>, std::__ndk1::equal_to<std::__ndk1::basic_string<char, std::__ndk1::char_traits<char>, std::__ndk1::allocator<char> > >, std::__ndk1::hash<std::__ndk1::basic_string<char, std::__ndk1::char_traits<char>, std::__ndk1::allocator<char> > >, true>, std::__ndk1::allocator<std::__ndk1::__hash_value_type<std::__ndk1::basic_string<char, std::__ndk1::char_traits<char>, std::__ndk1::allocator<char> >, char const*> > >::__emplace_unique_key_args<std::__ndk1::basic_string<char, std::__ndk1::char_traits<char>, std::__ndk1::allocator<char> >, std::__ndk1::piecewise_construct_t const&, std::__ndk1::tuple<std::__ndk1::basic_string<char, std::__ndk1::char_traits<char>, std::__ndk1::allocator<char> >&&>, std::__ndk1::tuple<> >(std::__ndk1::basic_string<char, std::__ndk1::char_traits<char>, std::__ndk1::allocator<char> > const&, std::__ndk1::piecewise_construct_t const&, std::__ndk1::tuple<std::__ndk1::basic_string<char, std::__ndk1::char_traits<char>, std::__ndk1::allocator<char> >&&>, std::__ndk1::tuple<>)
FUNC 274034 4c 0 std::__ndk1::unique_ptr<std::__ndk1::__hash_node<std::__ndk1::__hash_value_type<std::__ndk1::basic_string<char, std::__ndk1::char_traits<char>, std::__ndk1::allocator<char> >, char const*>, void*>, std::__ndk1::__hash_node_destructor<std::__ndk1::allocator<std::__ndk1::__hash_node<std::__ndk1::__hash_value_type<std::__ndk1::basic_string<char, std::__ndk1::char_traits<char>, std::__ndk1::allocator<char> >, char const*>, void*> > > >::~unique_ptr[abi:v170000]()
FUNC 274080 15c 0 std::__ndk1::__hash_table<std::__ndk1::__hash_value_type<std::__ndk1::basic_string<char, std::__ndk1::char_traits<char>, std::__ndk1::allocator<char> >, char const*>, std::__ndk1::__unordered_map_hasher<std::__ndk1::basic_string<char, std::__ndk1::char_traits<char>, std::__ndk1::allocator<char> >, std::__ndk1::__hash_value_type<std::__ndk1::basic_string<char, std::__ndk1::char_traits<char>, std::__ndk1::allocator<char> >, char const*>, std::__ndk1::hash<std::__ndk1::basic_string<char, std::__ndk1::char_traits<char>, std::__ndk1::allocator<char> > >, std::__ndk1::equal_to<std::__ndk1::basic_string<char, std::__ndk1::char_traits<char>, std::__ndk1::allocator<char> > >, true>, std::__ndk1::__unordered_map_equal<std::__ndk1::basic_string<char, std::__ndk1::char_traits<char>, std::__ndk1::allocator<char> >, std::__ndk1::__hash_value_type<std::__ndk1::basic_string<char, std::__ndk1::char_traits<char>, std::__ndk1::allocator<char> >, char const*>, std::__ndk1::equal_to<std::__ndk1::basic_string<char, std::__ndk1::char_traits<char>, std::__ndk1::allocator<char> > >, std::__ndk1::hash<std::__ndk1::basic_string<char, std::__ndk1::char_traits<char>, std::__ndk1::allocator<char> > >, true>, std::__ndk1::allocator<std::__ndk1::__hash_value_type<std::__ndk1::basic_string<char, std::__ndk1::char_traits<char>, std::__ndk1::allocator<char> >, char const*> > >::__do_rehash<true>(unsigned long)
FUNC 2741dc 3f0 0 std::__ndk1::__hash_table<std::__ndk1::__hash_value_type<std::__ndk1::basic_string<char, std::__ndk1::char_traits<char>, std::__ndk1::allocator<char> >, geode::Mod*>, std::__ndk1::__unordered_map_hasher<std::__ndk1::basic_string<char, std::__ndk1::char_traits<char>, std::__ndk1::allocator<char> >, std::__ndk1::__hash_value_type<std::__ndk1::basic_string<char, std::__ndk1::char_traits<char>, std::__ndk1::allocator<char> >, geode::Mod*>, std::__ndk1::hash<std::__ndk1::basic_string<char, std::__ndk1::char_traits<char>, std::__ndk1::allocator<char> > >, std::__ndk1::equal_to<std::__ndk1::basic_string<char, std::__ndk1::char_traits<char>, std::__ndk1::allocator<char> > >, true>, std::__ndk1::__unordered_map_equal<std::__ndk1::basic_string<char, std::__ndk1::char_traits<char>, std::__ndk1::allocator<char> >, std::__ndk1::__hash_value_type<std::__ndk1::basic_string<char, std::__ndk1::char_traits<char>, std::__ndk1::allocator<char> >, geode::Mod*>, std::__ndk1::equal_to<std::__ndk1::basic_string<char, std::__ndk1::char_traits<char>, std::__ndk1::allocator<char> > >, std::__ndk1::hash<std::__ndk1::basic_string<char, std::__ndk1::char_traits<char>, std::__ndk1::allocator<char> > >, true>, std::__ndk1::allocator<std::__ndk1::__hash_value_type<std::__ndk1::basic_string<char, std::__ndk1::char_traits<char>, std::__ndk1::allocator<char> >, geode::Mod*> > >::__emplace_unique_key_args<std::__ndk1::basic_string<char, std::__ndk1::char_traits<char>, std::__ndk1::allocator<char> >, std::__ndk1::piecewise_construct_t const&, std::__ndk1::tuple<std::__ndk1::basic_string<char, std::__ndk1::char_traits<char>, std::__ndk1::allocator<char> >&&>, std::__ndk1::tuple<> >(std::__ndk1::basic_string<char, std::__ndk1::char_traits<char>, std::__ndk1::allocator<char> > const&, std::__ndk1::piecewise_construct_t const&, std::__ndk1::tuple<std::__ndk1::basic_string<char, std::__ndk1::char_traits<char>, std::__ndk1::allocator<char> >&&>, std::__ndk1::tuple<>)
FUNC 2745cc 8 0 geode::ModMetadataImpl::getImpl(geode::ModMetadata&)
FUNC 2745d4 98 0 geode::ModMetadata::Dependency::isResolved() const
FUNC 27466c 7c 0 geode::ModMetadata::Incompatibility::isResolved() const
FUNC 2746e8 8c 0 geode::ModMetadata::Impl::validateOldID(std::__ndk1::basic_string<char, std::__ndk1::char_traits<char>, std::__ndk1::allocator<char> > const&)
FUNC 274774 90 0 geode::ModMetadata::Impl::validateID(std::__ndk1::basic_string<char, std::__ndk1::char_traits<char>, std::__ndk1::allocator<char> > const&)
FUNC 274804 f8 0 geode::ModMetadata::Impl::isDeprecatedIDForm(std::__ndk1::basic_string<char, std::__ndk1::char_traits<char>, std::__ndk1::allocator<char> > const&)
FUNC 2748fc 2aa0 0 geode::ModMetadata::Impl::createFromSchemaV010(matjson::Value const&)
FUNC 27739c 4c4 0 geode::JsonMaybeValue::validate<std::__ndk1::basic_string<char, std::__ndk1::char_traits<char>, std::__ndk1::allocator<char> > >(geode::utils::MiniFunction<bool (std::__ndk1::basic_string<char, std::__ndk1::char_traits<char>, std::__ndk1::allocator<char> > const&)>)
FUNC 277860 a4 0 geode::ModMetadata::getID() const
FUNC 277904 104 0 geode::Result<geode::Setting, std::__ndk1::basic_string<char, std::__ndk1::char_traits<char>, std::__ndk1::allocator<char> > >::unwrap() &
FUNC 277a08 94 0 geode::Setting::~Setting()
FUNC 277a9c cc 0 cpp::bitwizeshift::result<geode::Setting, std::__ndk1::basic_string<char, std::__ndk1::char_traits<char>, std::__ndk1::allocator<char> > >::~result()
FUNC 277b68 51c 0 geode::JsonMaybeValue::intoAs<std::__ndk1::basic_string<char, std::__ndk1::char_traits<char>, std::__ndk1::allocator<char> >, std::__ndk1::optional<std::__ndk1::basic_string<char, std::__ndk1::char_traits<char>, std::__ndk1::allocator<char> > > >(std::__ndk1::optional<std::__ndk1::basic_string<char, std::__ndk1::char_traits<char>, std::__ndk1::allocator<char> > >&)
FUNC 278084 4c 0 geode::ModMetadata::IssuesInfo::~IssuesInfo()
FUNC 2780d0 558 0 geode::ModMetadata::Impl::create(matjson::Value const&)
FUNC 278628 204 0 geode::Result<geode::VersionInfo, std::__ndk1::basic_string<char, std::__ndk1::char_traits<char>, std::__ndk1::allocator<char> > >::expect<>(std::__ndk1::basic_string<char, std::__ndk1::char_traits<char>, std::__ndk1::allocator<char> > const&, &&)
FUNC 27882c b0 0 geode::Result<geode::VersionInfo, std::__ndk1::basic_string<char, std::__ndk1::char_traits<char>, std::__ndk1::allocator<char> > >::unwrapErr() &
FUNC 2788dc 104 0 geode::Result<geode::VersionInfo, std::__ndk1::basic_string<char, std::__ndk1::char_traits<char>, std::__ndk1::allocator<char> > >::unwrap() &
FUNC 2789e0 5c 0 std::__ndk1::operator+[abi:v170000]<char, std::__ndk1::char_traits<char>, std::__ndk1::allocator<char> >(std::__ndk1::basic_string const*, std::__ndk1::allocator<char>&&)
FUNC 278a3c 5e4 0 geode::ModMetadata::Impl::createFromFile(ghc::filesystem::path const&)
FUNC 279020 4 0 geode::ModMetadata::create(matjson::Value const&)
FUNC 279024 8 0 geode::ModMetadata::addSpecialFiles(ghc::filesystem::path const&)
FUNC 27902c 1a0 0 geode::ModMetadata::Impl::createFromGeodeFile(ghc::filesystem::path const&)
FUNC 2791cc 4 0 geode::ModMetadata::createFromGeodeZip(geode::utils::file::Unzip&)
FUNC 2791d0 be4 0 geode::ModMetadata::Impl::createFromGeodeZip(geode::utils::file::Unzip&)
FUNC 279db4 204 0 geode::Result<std::__ndk1::vector<unsigned char, std::__ndk1::allocator<unsigned char> >, std::__ndk1::basic_string<char, std::__ndk1::char_traits<char>, std::__ndk1::allocator<char> > >::expect<>(std::__ndk1::basic_string<char, std::__ndk1::char_traits<char>, std::__ndk1::allocator<char> > const&, &&)
FUNC 279fb8 30 0 cpp::bitwizeshift::result<std::__ndk1::vector<unsigned char, std::__ndk1::allocator<unsigned char> >, std::__ndk1::basic_string<char, std::__ndk1::char_traits<char>, std::__ndk1::allocator<char> > >::~result()
FUNC 279fe8 104 0 geode::Result<std::__ndk1::vector<unsigned char, std::__ndk1::allocator<unsigned char> >, std::__ndk1::basic_string<char, std::__ndk1::char_traits<char>, std::__ndk1::allocator<char> > >::unwrap() &
FUNC 27a0ec 8 0 geode::ModMetadata::addSpecialFiles(geode::utils::file::Unzip&)
FUNC 27a0f4 74c 0 geode::ModMetadata::Impl::addSpecialFiles(geode::utils::file::Unzip&)
FUNC 27a840 1d0 0 geode::ModMetadata::Impl::getSpecialFiles()
FUNC 27aa10 224 0 geode::Result<std::__ndk1::vector<unsigned char, std::__ndk1::allocator<unsigned char> >, std::__ndk1::basic_string<char, std::__ndk1::char_traits<char>, std::__ndk1::allocator<char> > >::expect<std::__ndk1::basic_string<char, std::__ndk1::char_traits<char>, std::__ndk1::allocator<char> >&>(std::__ndk1::basic_string<char, std::__ndk1::char_traits<char>, std::__ndk1::allocator<char> > const&, std::__ndk1::basic_string<char, std::__ndk1::char_traits<char>, std::__ndk1::allocator<char> >&)
FUNC 27ac34 b8 0 sanitizeDetailsData(std::__ndk1::basic_string<char, std::__ndk1::char_traits<char>, std::__ndk1::allocator<char> > const&)
FUNC 27acec 7c 0 std::__ndk1::vector<std::__ndk1::pair<std::__ndk1::basic_string<char, std::__ndk1::char_traits<char>, std::__ndk1::allocator<char> >, std::__ndk1::optional<std::__ndk1::basic_string<char, std::__ndk1::char_traits<char>, std::__ndk1::allocator<char> > >*>, std::__ndk1::allocator<std::__ndk1::pair<std::__ndk1::basic_string<char, std::__ndk1::char_traits<char>, std::__ndk1::allocator<char> >, std::__ndk1::optional<std::__ndk1::basic_string<char, std::__ndk1::char_traits<char>, std::__ndk1::allocator<char> > >*> > >::~vector[abi:v170000]()
FUNC 27ad68 7e0 0 geode::ModMetadata::Impl::addSpecialFiles(ghc::filesystem::path const&)
FUNC 27b548 1e8 0 geode::ModMetadata::Impl::toJSON() const
FUNC 27b730 c 0 geode::ModMetadata::Impl::getRawJSON() const
FUNC 27b73c bc 0 geode::ModMetadata::Impl::operator==(geode::ModMetadata::Impl const&) const
FUNC 27b7f8 c 0 geode::ModMetadata::getPath() const
FUNC 27b804 a4 0 geode::ModMetadata::getBinaryName() const
FUNC 27b8a8 20 0 geode::ModMetadata::getVersion() const
FUNC 27b8c8 104 0 geode::ModMetadata::usesDeprecatedIDForm() const
FUNC 27b9cc a4 0 geode::ModMetadata::getName() const
FUNC 27ba70 b4 0 geode::ModMetadata::getDeveloper() const
FUNC 27bb24 45c 0 geode::ModMetadata::formatDeveloperDisplayString(std::__ndk1::vector<std::__ndk1::basic_string<char, std::__ndk1::char_traits<char>, std::__ndk1::allocator<char> >, std::__ndk1::allocator<std::__ndk1::basic_string<char, std::__ndk1::char_traits<char>, std::__ndk1::allocator<char> > > > const&)
FUNC 27bf80 10 0 geode::ModMetadata::getDevelopers() const
FUNC 27bf90 10 0 geode::ModMetadata::getDescription() const
FUNC 27bfa0 10 0 geode::ModMetadata::getDetails() const
FUNC 27bfb0 10 0 geode::ModMetadata::getChangelog() const
FUNC 27bfc0 10 0 geode::ModMetadata::getSupportInfo() const
FUNC 27bfd0 10 0 geode::ModMetadata::getRepository() const
FUNC 27bfe0 80 0 geode::ModMetadata::getIssues() const
FUNC 27c060 10 0 geode::ModMetadata::getDependencies() const
FUNC 27c070 11c 0 std::__ndk1::vector<geode::ModMetadata::Dependency, std::__ndk1::allocator<geode::ModMetadata::Dependency> >::vector(std::__ndk1::vector<geode::ModMetadata::Dependency, std::__ndk1::allocator<geode::ModMetadata::Dependency> > const&)
FUNC 27c18c 10 0 geode::ModMetadata::getIncompatibilities() const
FUNC 27c19c 11c 0 std::__ndk1::vector<geode::ModMetadata::Incompatibility, std::__ndk1::allocator<geode::ModMetadata::Incompatibility> >::vector(std::__ndk1::vector<geode::ModMetadata::Incompatibility, std::__ndk1::allocator<geode::ModMetadata::Incompatibility> > const&)
FUNC 27c2b8 10 0 geode::ModMetadata::getSpritesheets() const
FUNC 27c2c8 10 0 geode::ModMetadata::getSettings() const
FUNC 27c2d8 150 0 std::__ndk1::vector<std::__ndk1::pair<std::__ndk1::basic_string<char, std::__ndk1::char_traits<char>, std::__ndk1::allocator<char> >, geode::Setting>, std::__ndk1::allocator<std::__ndk1::pair<std::__ndk1::basic_string<char, std::__ndk1::char_traits<char>, std::__ndk1::allocator<char> >, geode::Setting> > >::vector(std::__ndk1::vector<std::__ndk1::pair<std::__ndk1::basic_string<char, std::__ndk1::char_traits<char>, std::__ndk1::allocator<char> >, geode::Setting>, std::__ndk1::allocator<std::__ndk1::pair<std::__ndk1::basic_string<char, std::__ndk1::char_traits<char>, std::__ndk1::allocator<char> >, geode::Setting> > > const&)
FUNC 27c428 c 0 geode::ModMetadata::needsEarlyLoad() const
FUNC 27c434 c 0 geode::ModMetadata::isAPI() const
FUNC 27c440 c4 0 geode::ModMetadata::getGameVersion() const
FUNC 27c504 24 0 geode::ModMetadata::getGeodeVersion() const
FUNC 27c528 2ac 0 geode::ModMetadata::checkGameVersion() const
FUNC 27c7d4 8 0 geode::ModMetadata::setPath(ghc::filesystem::path const&)
FUNC 27c7dc c 0 geode::ModMetadata::setBinaryName(std::__ndk1::basic_string<char, std::__ndk1::char_traits<char>, std::__ndk1::allocator<char> > const&)
FUNC 27c7e8 20 0 geode::ModMetadata::setVersion(geode::VersionInfo const&)
FUNC 27c808 c 0 geode::ModMetadata::setID(std::__ndk1::basic_string<char, std::__ndk1::char_traits<char>, std::__ndk1::allocator<char> > const&)
FUNC 27c814 c 0 geode::ModMetadata::setName(std::__ndk1::basic_string<char, std::__ndk1::char_traits<char>, std::__ndk1::allocator<char> > const&)
FUNC 27c820 128 0 geode::ModMetadata::setDeveloper(std::__ndk1::basic_string<char, std::__ndk1::char_traits<char>, std::__ndk1::allocator<char> > const&)
FUNC 27c948 20 0 geode::ModMetadata::setDevelopers(std::__ndk1::vector<std::__ndk1::basic_string<char, std::__ndk1::char_traits<char>, std::__ndk1::allocator<char> >, std::__ndk1::allocator<std::__ndk1::basic_string<char, std::__ndk1::char_traits<char>, std::__ndk1::allocator<char> > > > const&)
FUNC 27c968 c 0 geode::ModMetadata::setDescription(std::__ndk1::optional<std::__ndk1::basic_string<char, std::__ndk1::char_traits<char>, std::__ndk1::allocator<char> > > const&)
FUNC 27c974 c 0 geode::ModMetadata::setDetails(std::__ndk1::optional<std::__ndk1::basic_string<char, std::__ndk1::char_traits<char>, std::__ndk1::allocator<char> > > const&)
FUNC 27c980 c 0 geode::ModMetadata::setChangelog(std::__ndk1::optional<std::__ndk1::basic_string<char, std::__ndk1::char_traits<char>, std::__ndk1::allocator<char> > > const&)
FUNC 27c98c c 0 geode::ModMetadata::setSupportInfo(std::__ndk1::optional<std::__ndk1::basic_string<char, std::__ndk1::char_traits<char>, std::__ndk1::allocator<char> > > const&)
FUNC 27c998 c 0 geode::ModMetadata::setRepository(std::__ndk1::optional<std::__ndk1::basic_string<char, std::__ndk1::char_traits<char>, std::__ndk1::allocator<char> > > const&)
FUNC 27c9a4 c 0 geode::ModMetadata::setIssues(std::__ndk1::optional<geode::ModMetadata::IssuesInfo> const&)
FUNC 27c9b0 20 0 geode::ModMetadata::setDependencies(std::__ndk1::vector<geode::ModMetadata::Dependency, std::__ndk1::allocator<geode::ModMetadata::Dependency> > const&)
FUNC 27c9d0 20 0 geode::ModMetadata::setIncompatibilities(std::__ndk1::vector<geode::ModMetadata::Incompatibility, std::__ndk1::allocator<geode::ModMetadata::Incompatibility> > const&)
FUNC 27c9f0 20 0 geode::ModMetadata::setSpritesheets(std::__ndk1::vector<std::__ndk1::basic_string<char, std::__ndk1::char_traits<char>, std::__ndk1::allocator<char> >, std::__ndk1::allocator<std::__ndk1::basic_string<char, std::__ndk1::char_traits<char>, std::__ndk1::allocator<char> > > > const&)
FUNC 27ca10 20 0 geode::ModMetadata::setSettings(std::__ndk1::vector<std::__ndk1::pair<std::__ndk1::basic_string<char, std::__ndk1::char_traits<char>, std::__ndk1::allocator<char> >, geode::Setting>, std::__ndk1::allocator<std::__ndk1::pair<std::__ndk1::basic_string<char, std::__ndk1::char_traits<char>, std::__ndk1::allocator<char> >, geode::Setting> > > const&)
FUNC 27ca30 10 0 geode::ModMetadata::setNeedsEarlyLoad(bool const&)
FUNC 27ca40 10 0 geode::ModMetadata::setIsAPI(bool const&)
FUNC 27ca50 4 0 geode::ModMetadata::createFromGeodeFile(ghc::filesystem::path const&)
FUNC 27ca54 4 0 geode::ModMetadata::createFromFile(ghc::filesystem::path const&)
FUNC 27ca58 8 0 geode::ModMetadata::toJSON() const
FUNC 27ca60 10 0 geode::ModMetadata::getRawJSON() const
FUNC 27ca70 c4 0 geode::ModMetadata::operator==(geode::ModMetadata const&) const
FUNC 27cb34 90 0 geode::ModMetadata::validateID(std::__ndk1::basic_string<char, std::__ndk1::char_traits<char>, std::__ndk1::allocator<char> > const&)
FUNC 27cbc4 4 0 geode::ModMetadata::createFromSchemaV010(matjson::Value const&)
FUNC 27cbc8 8 0 geode::ModMetadata::getSpecialFiles()
FUNC 27cbd0 54 0 geode::ModMetadata::ModMetadata()
FUNC 27cc24 88 0 geode::ModMetadata::ModMetadata(std::__ndk1::basic_string<char, std::__ndk1::char_traits<char>, std::__ndk1::allocator<char> >)
FUNC 27ccac 54 0 geode::ModMetadata::ModMetadata(geode::ModMetadata const&)
FUNC 27cd00 10 0 geode::ModMetadata::ModMetadata(geode::ModMetadata&&)
FUNC 27cd10 70 0 geode::ModMetadata::operator=(geode::ModMetadata const&)
FUNC 27cd80 44 0 geode::ModMetadata::operator=(geode::ModMetadata&&)
FUNC 27cdc4 3c 0 geode::ModMetadata::~ModMetadata()
FUNC 27ce00 1bc 0 matjson::Serialize<geode::VersionInfo>::from_json(matjson::Value const&)
FUNC 27cfbc 20c 0 std::__ndk1::vector<std::__ndk1::basic_string<char, std::__ndk1::char_traits<char>, std::__ndk1::allocator<char> >, std::__ndk1::allocator<std::__ndk1::basic_string<char, std::__ndk1::char_traits<char>, std::__ndk1::allocator<char> > > >::assign<std::__ndk1::basic_string<char, std::__ndk1::char_traits<char>, std::__ndk1::allocator<char> > const*, 0>(std::__ndk1::basic_string<char, std::__ndk1::char_traits<char>, std::__ndk1::allocator<char> > const*, std::__ndk1::basic_string<char, std::__ndk1::char_traits<char>, std::__ndk1::allocator<char> > const*)
FUNC 27d1c8 150 0 std::__ndk1::__uninitialized_allocator_copy[abi:v170000]<std::__ndk1::allocator<std::__ndk1::basic_string<char, std::__ndk1::char_traits<char>, std::__ndk1::__uninitialized_allocator_copy[abi:v170000]<char> > >, std::__ndk1::__uninitialized_allocator_copy[abi:v170000]<char> const*, std::__ndk1::__uninitialized_allocator_copy[abi:v170000]<char> const, std::__ndk1::__uninitialized_allocator_copy[abi:v170000]<char>*>(std::__ndk1::allocator<std::__ndk1::basic_string<char, std::__ndk1::char_traits<char>, std::__ndk1::__uninitialized_allocator_copy[abi:v170000]<char> > >&, std::__ndk1::__uninitialized_allocator_copy[abi:v170000]<char> const*, std::__ndk1::__uninitialized_allocator_copy[abi:v170000]<char> const, std::__ndk1::__uninitialized_allocator_copy[abi:v170000]<char>*)
FUNC 27d318 1d4 0 std::__ndk1::vector<geode::ModMetadata::Dependency, std::__ndk1::allocator<geode::ModMetadata::Dependency> >::__push_back_slow_path<geode::ModMetadata::Dependency>(geode::ModMetadata::Dependency&&)
FUNC 27d4ec 68 0 std::__ndk1::__split_buffer<geode::ModMetadata::Dependency, std::__ndk1::allocator<geode::ModMetadata::Dependency>&>::~__split_buffer()
FUNC 27d554 14 0 std::__ndk1::vector<geode::ModMetadata::Dependency, std::__ndk1::allocator<geode::ModMetadata::Dependency> >::__throw_length_error[abi:v170000]() const
FUNC 27d568 2f8 0 std::__ndk1::vector<geode::ModMetadata::Dependency, std::__ndk1::allocator<geode::ModMetadata::Dependency> >::__push_back_slow_path<geode::ModMetadata::Dependency const&>(geode::ModMetadata::Dependency const&)
FUNC 27d860 2f8 0 std::__ndk1::vector<geode::ModMetadata::Incompatibility, std::__ndk1::allocator<geode::ModMetadata::Incompatibility> >::__push_back_slow_path<geode::ModMetadata::Incompatibility const&>(geode::ModMetadata::Incompatibility const&)
FUNC 27db58 68 0 std::__ndk1::__split_buffer<geode::ModMetadata::Incompatibility, std::__ndk1::allocator<geode::ModMetadata::Incompatibility>&>::~__split_buffer()
FUNC 27dbc0 14 0 std::__ndk1::vector<geode::ModMetadata::Incompatibility, std::__ndk1::allocator<geode::ModMetadata::Incompatibility> >::__throw_length_error[abi:v170000]() const
FUNC 27dbd4 70 0 _ZNSt6__ndk116__variant_detail12__visitation6__base12__dispatcherIJLm0ELm0EEE10__dispatchB7v170000IOZNS0_6__ctorINS0_8__traitsIJN5geode11BoolSettingENS8_10IntSettingENS8_12FloatSettingENS8_13StringSettingENS8_11FileSettingENS8_12ColorSettingENS8_17ColorAlphaSettingENS8_13CustomSettingEEEEE19__generic_constructB7v170000INS0_18__move_constructorISH_LNS0_6_TraitE1EEEEEvRSI_OT_EUlRSO_OT0_E_JRNS0_6__baseILSL_1EJS9_SA_SB_SC_SD_SE_SF_SG_EEEOSW_EEEDcSO_DpT0_
FUNC 27dc44 88 0 _ZNSt6__ndk116__variant_detail12__visitation6__base12__dispatcherIJLm1ELm1EEE10__dispatchB7v170000IOZNS0_6__ctorINS0_8__traitsIJN5geode11BoolSettingENS8_10IntSettingENS8_12FloatSettingENS8_13StringSettingENS8_11FileSettingENS8_12ColorSettingENS8_17ColorAlphaSettingENS8_13CustomSettingEEEEE19__generic_constructB7v170000INS0_18__move_constructorISH_LNS0_6_TraitE1EEEEEvRSI_OT_EUlRSO_OT0_E_JRNS0_6__baseILSL_1EJS9_SA_SB_SC_SD_SE_SF_SG_EEEOSW_EEEDcSO_DpT0_
FUNC 27dccc 88 0 _ZNSt6__ndk116__variant_detail12__visitation6__base12__dispatcherIJLm2ELm2EEE10__dispatchB7v170000IOZNS0_6__ctorINS0_8__traitsIJN5geode11BoolSettingENS8_10IntSettingENS8_12FloatSettingENS8_13StringSettingENS8_11FileSettingENS8_12ColorSettingENS8_17ColorAlphaSettingENS8_13CustomSettingEEEEE19__generic_constructB7v170000INS0_18__move_constructorISH_LNS0_6_TraitE1EEEEEvRSI_OT_EUlRSO_OT0_E_JRNS0_6__baseILSL_1EJS9_SA_SB_SC_SD_SE_SF_SG_EEEOSW_EEEDcSO_DpT0_
FUNC 27dd54 e8 0 _ZNSt6__ndk116__variant_detail12__visitation6__base12__dispatcherIJLm3ELm3EEE10__dispatchB7v170000IOZNS0_6__ctorINS0_8__traitsIJN5geode11BoolSettingENS8_10IntSettingENS8_12FloatSettingENS8_13StringSettingENS8_11FileSettingENS8_12ColorSettingENS8_17ColorAlphaSettingENS8_13CustomSettingEEEEE19__generic_constructB7v170000INS0_18__move_constructorISH_LNS0_6_TraitE1EEEEEvRSI_OT_EUlRSO_OT0_E_JRNS0_6__baseILSL_1EJS9_SA_SB_SC_SD_SE_SF_SG_EEEOSW_EEEDcSO_DpT0_
FUNC 27de3c b0 0 _ZNSt6__ndk116__variant_detail12__visitation6__base12__dispatcherIJLm4ELm4EEE10__dispatchB7v170000IOZNS0_6__ctorINS0_8__traitsIJN5geode11BoolSettingENS8_10IntSettingENS8_12FloatSettingENS8_13StringSettingENS8_11FileSettingENS8_12ColorSettingENS8_17ColorAlphaSettingENS8_13CustomSettingEEEEE19__generic_constructB7v170000INS0_18__move_constructorISH_LNS0_6_TraitE1EEEEEvRSI_OT_EUlRSO_OT0_E_JRNS0_6__baseILSL_1EJS9_SA_SB_SC_SD_SE_SF_SG_EEEOSW_EEEDcSO_DpT0_
FUNC 27deec 78 0 _ZNSt6__ndk116__variant_detail12__visitation6__base12__dispatcherIJLm5ELm5EEE10__dispatchB7v170000IOZNS0_6__ctorINS0_8__traitsIJN5geode11BoolSettingENS8_10IntSettingENS8_12FloatSettingENS8_13StringSettingENS8_11FileSettingENS8_12ColorSettingENS8_17ColorAlphaSettingENS8_13CustomSettingEEEEE19__generic_constructB7v170000INS0_18__move_constructorISH_LNS0_6_TraitE1EEEEEvRSI_OT_EUlRSO_OT0_E_JRNS0_6__baseILSL_1EJS9_SA_SB_SC_SD_SE_SF_SG_EEEOSW_EEEDcSO_DpT0_
FUNC 27df64 70 0 _ZNSt6__ndk116__variant_detail12__visitation6__base12__dispatcherIJLm6ELm6EEE10__dispatchB7v170000IOZNS0_6__ctorINS0_8__traitsIJN5geode11BoolSettingENS8_10IntSettingENS8_12FloatSettingENS8_13StringSettingENS8_11FileSettingENS8_12ColorSettingENS8_17ColorAlphaSettingENS8_13CustomSettingEEEEE19__generic_constructB7v170000INS0_18__move_constructorISH_LNS0_6_TraitE1EEEEEvRSI_OT_EUlRSO_OT0_E_JRNS0_6__baseILSL_1EJS9_SA_SB_SC_SD_SE_SF_SG_EEEOSW_EEEDcSO_DpT0_
FUNC 27dfd4 10 0 _ZNSt6__ndk116__variant_detail12__visitation6__base12__dispatcherIJLm7ELm7EEE10__dispatchB7v170000IOZNS0_6__ctorINS0_8__traitsIJN5geode11BoolSettingENS8_10IntSettingENS8_12FloatSettingENS8_13StringSettingENS8_11FileSettingENS8_12ColorSettingENS8_17ColorAlphaSettingENS8_13CustomSettingEEEEE19__generic_constructB7v170000INS0_18__move_constructorISH_LNS0_6_TraitE1EEEEEvRSI_OT_EUlRSO_OT0_E_JRNS0_6__baseILSL_1EJS9_SA_SB_SC_SD_SE_SF_SG_EEEOSW_EEEDcSO_DpT0_
FUNC 27dfe4 280 0 std::__ndk1::vector<std::__ndk1::pair<std::__ndk1::basic_string<char, std::__ndk1::char_traits<char>, std::__ndk1::allocator<char> >, geode::Setting>, std::__ndk1::allocator<std::__ndk1::pair<std::__ndk1::basic_string<char, std::__ndk1::char_traits<char>, std::__ndk1::allocator<char> >, geode::Setting> > >::__emplace_back_slow_path<std::__ndk1::basic_string<char, std::__ndk1::char_traits<char>, std::__ndk1::allocator<char> >&, geode::Setting&>(std::__ndk1::basic_string<char, std::__ndk1::char_traits<char>, std::__ndk1::allocator<char> >&, geode::Setting&)
FUNC 27e264 c4 0 std::__ndk1::pair<std::__ndk1::basic_string<char, std::__ndk1::char_traits<char>, std::__ndk1::allocator<char> >, geode::Setting>::pair[abi:v170000]<std::__ndk1::basic_string<char, std::__ndk1::char_traits<char>, std::__ndk1::allocator<char> >&, geode::Setting&, (void*)0>(geode::Setting&)
FUNC 27e328 54 0 std::__ndk1::__split_buffer<std::__ndk1::pair<std::__ndk1::basic_string<char, std::__ndk1::char_traits<char>, std::__ndk1::allocator<char> >, geode::Setting>, std::__ndk1::allocator<std::__ndk1::pair<std::__ndk1::basic_string<char, std::__ndk1::char_traits<char>, std::__ndk1::allocator<char> >, geode::Setting> >&>::~__split_buffer()
FUNC 27e37c 14 0 std::__ndk1::vector<std::__ndk1::pair<std::__ndk1::basic_string<char, std::__ndk1::char_traits<char>, std::__ndk1::allocator<char> >, geode::Setting>, std::__ndk1::allocator<std::__ndk1::pair<std::__ndk1::basic_string<char, std::__ndk1::char_traits<char>, std::__ndk1::allocator<char> >, geode::Setting> > >::__throw_length_error[abi:v170000]() const
FUNC 27e390 c8 0 std::__ndk1::construct_at[abi:v170000]<geode::ModMetadata::IssuesInfo, geode::ModMetadata&, geode::ModMetadata*>(geode::ModMetadata::IssuesInfo, geode::ModMetadata&)
FUNC 27e458 8c 0 std::__ndk1::__exception_guard<std::__ndk1::vector<std::__ndk1::pair<std::__ndk1::basic_string<char, std::__ndk1::char_traits<char>, std::__ndk1::allocator<char> >, std::__ndk1::optional<std::__ndk1::basic_string<char, std::__ndk1::char_traits<char>, std::__ndk1::allocator<char> > >*>, std::__ndk1::allocator<std::__ndk1::pair<std::__ndk1::basic_string<char, std::__ndk1::char_traits<char>, std::__ndk1::allocator<char> >, std::__ndk1::optional<std::__ndk1::basic_string<char, std::__ndk1::char_traits<char>, std::__ndk1::allocator<char> > >*> > >::__destroy_vector>::~__exception_guard[abi:v170000]()
FUNC 27e4e4 158 0 std::__ndk1::__uninitialized_allocator_copy[abi:v170000]<std::__ndk1::allocator<std::__ndk1::pair<std::__ndk1::basic_string<char, std::__ndk1::char_traits<char>, std::__ndk1::__uninitialized_allocator_copy[abi:v170000]<char> >, std::__ndk1::optional<std::__ndk1::__uninitialized_allocator_copy[abi:v170000]<char> >*> >, std::__ndk1::optional<std::__ndk1::__uninitialized_allocator_copy[abi:v170000]<char> >* const*, std::__ndk1::optional<std::__ndk1::__uninitialized_allocator_copy[abi:v170000]<char> >* const, std::__ndk1::optional<std::__ndk1::__uninitialized_allocator_copy[abi:v170000]<char> >**>(std::__ndk1::allocator<std::__ndk1::pair<std::__ndk1::basic_string<char, std::__ndk1::char_traits<char>, std::__ndk1::__uninitialized_allocator_copy[abi:v170000]<char> >, std::__ndk1::optional<std::__ndk1::__uninitialized_allocator_copy[abi:v170000]<char> >*> >&, std::__ndk1::optional<std::__ndk1::__uninitialized_allocator_copy[abi:v170000]<char> >* const*, std::__ndk1::optional<std::__ndk1::__uninitialized_allocator_copy[abi:v170000]<char> >* const, std::__ndk1::optional<std::__ndk1::__uninitialized_allocator_copy[abi:v170000]<char> >**)
FUNC 27e63c 5c 0 std::__ndk1::__exception_guard<std::__ndk1::_AllocatorDestroyRangeReverse<std::__ndk1::allocator<std::__ndk1::pair<std::__ndk1::basic_string<char, std::__ndk1::char_traits<char>, std::__ndk1::allocator<char> >, std::__ndk1::optional<std::__ndk1::basic_string<char, std::__ndk1::char_traits<char>, std::__ndk1::allocator<char> > >*> >, std::__ndk1::pair<std::__ndk1::basic_string<char, std::__ndk1::char_traits<char>, std::__ndk1::allocator<char> >, std::__ndk1::optional<std::__ndk1::basic_string<char, std::__ndk1::char_traits<char>, std::__ndk1::allocator<char> > >*>*> >::~__exception_guard[abi:v170000]()
FUNC 27e698 c8 0 std::__ndk1::construct_at[abi:v170000]<geode::ModMetadata::IssuesInfo, geode::ModMetadata const&, geode::ModMetadata*>(geode::ModMetadata::IssuesInfo, geode::ModMetadata const&)
FUNC 27e760 8c 0 std::__ndk1::__exception_guard<std::__ndk1::vector<geode::ModMetadata::Dependency, std::__ndk1::allocator<geode::ModMetadata::Dependency> >::__destroy_vector>::~__exception_guard[abi:v170000]()
FUNC 27e7ec 178 0 std::__ndk1::__uninitialized_allocator_copy[abi:v170000]<std::__ndk1::allocator<geode::ModMetadata::Dependency>, geode::ModMetadata*, std::__ndk1::allocator<geode::ModMetadata::Dependency>, std::__ndk1::allocator<geode::ModMetadata::Dependency> >(std::__ndk1::allocator<geode::ModMetadata::Dependency>&, geode::ModMetadata*, std::__ndk1::allocator<geode::ModMetadata::Dependency>, geode::ModMetadata*)
FUNC 27e964 5c 0 std::__ndk1::__exception_guard<std::__ndk1::_AllocatorDestroyRangeReverse<std::__ndk1::allocator<geode::ModMetadata::Dependency>, geode::ModMetadata::Dependency*> >::~__exception_guard[abi:v170000]()
FUNC 27e9c0 8c 0 std::__ndk1::__exception_guard<std::__ndk1::vector<geode::ModMetadata::Incompatibility, std::__ndk1::allocator<geode::ModMetadata::Incompatibility> >::__destroy_vector>::~__exception_guard[abi:v170000]()
FUNC 27ea4c 178 0 std::__ndk1::__uninitialized_allocator_copy[abi:v170000]<std::__ndk1::allocator<geode::ModMetadata::Incompatibility>, geode::ModMetadata*, std::__ndk1::allocator<geode::ModMetadata::Incompatibility>, std::__ndk1::allocator<geode::ModMetadata::Incompatibility> >(std::__ndk1::allocator<geode::ModMetadata::Incompatibility>&, geode::ModMetadata*, std::__ndk1::allocator<geode::ModMetadata::Incompatibility>, geode::ModMetadata*)
FUNC 27ebc4 5c 0 std::__ndk1::__exception_guard<std::__ndk1::_AllocatorDestroyRangeReverse<std::__ndk1::allocator<geode::ModMetadata::Incompatibility>, geode::ModMetadata::Incompatibility*> >::~__exception_guard[abi:v170000]()
FUNC 27ec20 78 0 std::__ndk1::__exception_guard<std::__ndk1::vector<std::__ndk1::pair<std::__ndk1::basic_string<char, std::__ndk1::char_traits<char>, std::__ndk1::allocator<char> >, geode::Setting>, std::__ndk1::allocator<std::__ndk1::pair<std::__ndk1::basic_string<char, std::__ndk1::char_traits<char>, std::__ndk1::allocator<char> >, geode::Setting> > >::__destroy_vector>::~__exception_guard[abi:v170000]()
FUNC 27ec98 c4 0 std::__ndk1::pair<std::__ndk1::basic_string<char, std::__ndk1::char_traits<char>, std::__ndk1::allocator<char> >, geode::Setting>::pair(std::__ndk1::pair<std::__ndk1::basic_string<char, std::__ndk1::char_traits<char>, std::__ndk1::allocator<char> >, geode::Setting> const&)
FUNC 27ed5c dc 0 std::__ndk1::__optional_storage_base<std::__ndk1::basic_string<char, std::__ndk1::char_traits<char>, std::__ndk1::allocator<char> >, false>::__assign_from[abi:v170000]<std::__ndk1::__optional_copy_assign_base<std::__ndk1::basic_string<char, std::__ndk1::char_traits<char>, std::__ndk1::allocator<char> >, false> const&>(std::__ndk1::__optional_copy_assign_base<std::__ndk1::basic_string<char, std::__ndk1::char_traits<char>, std::__ndk1::allocator<char> >, false> const&)
FUNC 27ee38 9c 0 std::__ndk1::__optional_storage_base<geode::ModMetadata::IssuesInfo, false>::__assign_from[abi:v170000]<std::__ndk1::__optional_copy_assign_base<geode::ModMetadata::IssuesInfo, false> const&>(std::__ndk1::__optional_copy_assign_base<geode::ModMetadata::IssuesInfo, false> const&)
FUNC 27eed4 254 0 std::__ndk1::vector<geode::ModMetadata::Dependency, std::__ndk1::allocator<geode::ModMetadata::Dependency> >::assign<geode::ModMetadata::Dependency*, 0>(geode::ModMetadata::Dependency*, geode::ModMetadata::Dependency*)
FUNC 27f128 254 0 std::__ndk1::vector<geode::ModMetadata::Incompatibility, std::__ndk1::allocator<geode::ModMetadata::Incompatibility> >::assign<geode::ModMetadata::Incompatibility*, 0>(geode::ModMetadata::Incompatibility*, geode::ModMetadata::Incompatibility*)
FUNC 27f37c 270 0 std::__ndk1::vector<std::__ndk1::pair<std::__ndk1::basic_string<char, std::__ndk1::char_traits<char>, std::__ndk1::allocator<char> >, geode::Setting>, std::__ndk1::allocator<std::__ndk1::pair<std::__ndk1::basic_string<char, std::__ndk1::char_traits<char>, std::__ndk1::allocator<char> >, geode::Setting> > >::assign<std::__ndk1::pair<std::__ndk1::basic_string<char, std::__ndk1::char_traits<char>, std::__ndk1::allocator<char> >, geode::Setting>*, 0>(std::__ndk1::pair<std::__ndk1::basic_string<char, std::__ndk1::char_traits<char>, std::__ndk1::allocator<char> >, geode::Setting>*, std::__ndk1::pair<std::__ndk1::basic_string<char, std::__ndk1::char_traits<char>, std::__ndk1::allocator<char> >, geode::Setting>*)
FUNC 27f5ec d4 0 std::__ndk1::pair<std::__ndk1::basic_string<char, std::__ndk1::char_traits<char>, std::__ndk1::allocator<char> >, geode::Setting>::operator=[abi:v170000](std::__ndk1::pair<std::__ndk1::basic_string<char, std::__ndk1::char_traits<char>, std::__ndk1::allocator<char> >, geode::Setting> const&)
FUNC 27f6c0 8c 0 _ZNSt6__ndk116__variant_detail12__visitation6__base12__dispatcherIJLm0ELm0EEE10__dispatchB7v170000IOZNS0_12__assignmentINS0_8__traitsIJN5geode11BoolSettingENS8_10IntSettingENS8_12FloatSettingENS8_13StringSettingENS8_11FileSettingENS8_12ColorSettingENS8_17ColorAlphaSettingENS8_13CustomSettingEEEEE16__generic_assignB7v170000IRKNS0_17__copy_assignmentISH_LNS0_6_TraitE1EEEEEvOT_EUlRSP_OT0_E_JRNS0_6__baseILSL_1EJS9_SA_SB_SC_SD_SE_SF_SG_EEERKSX_EEEDcSP_DpT0_
FUNC 27f74c c0 0 _ZNSt6__ndk116__variant_detail12__visitation6__base12__dispatcherIJLm1ELm1EEE10__dispatchB7v170000IOZNS0_12__assignmentINS0_8__traitsIJN5geode11BoolSettingENS8_10IntSettingENS8_12FloatSettingENS8_13StringSettingENS8_11FileSettingENS8_12ColorSettingENS8_17ColorAlphaSettingENS8_13CustomSettingEEEEE16__generic_assignB7v170000IRKNS0_17__copy_assignmentISH_LNS0_6_TraitE1EEEEEvOT_EUlRSP_OT0_E_JRNS0_6__baseILSL_1EJS9_SA_SB_SC_SD_SE_SF_SG_EEERKSX_EEEDcSP_DpT0_
FUNC 27f80c c0 0 _ZNSt6__ndk116__variant_detail12__visitation6__base12__dispatcherIJLm2ELm2EEE10__dispatchB7v170000IOZNS0_12__assignmentINS0_8__traitsIJN5geode11BoolSettingENS8_10IntSettingENS8_12FloatSettingENS8_13StringSettingENS8_11FileSettingENS8_12ColorSettingENS8_17ColorAlphaSettingENS8_13CustomSettingEEEEE16__generic_assignB7v170000IRKNS0_17__copy_assignmentISH_LNS0_6_TraitE1EEEEEvOT_EUlRSP_OT0_E_JRNS0_6__baseILSL_1EJS9_SA_SB_SC_SD_SE_SF_SG_EEERKSX_EEEDcSP_DpT0_
FUNC 27f8cc 8 0 _ZNSt6__ndk116__variant_detail12__visitation6__base12__dispatcherIJLm3ELm3EEE10__dispatchB7v170000IOZNS0_12__assignmentINS0_8__traitsIJN5geode11BoolSettingENS8_10IntSettingENS8_12FloatSettingENS8_13StringSettingENS8_11FileSettingENS8_12ColorSettingENS8_17ColorAlphaSettingENS8_13CustomSettingEEEEE16__generic_assignB7v170000IRKNS0_17__copy_assignmentISH_LNS0_6_TraitE1EEEEEvOT_EUlRSP_OT0_E_JRNS0_6__baseILSL_1EJS9_SA_SB_SC_SD_SE_SF_SG_EEERKSX_EEEDcSP_DpT0_
FUNC 27f8d4 c4 0 _ZNSt6__ndk116__variant_detail12__visitation6__base12__dispatcherIJLm4ELm4EEE10__dispatchB7v170000IOZNS0_12__assignmentINS0_8__traitsIJN5geode11BoolSettingENS8_10IntSettingENS8_12FloatSettingENS8_13StringSettingENS8_11FileSettingENS8_12ColorSettingENS8_17ColorAlphaSettingENS8_13CustomSettingEEEEE16__generic_assignB7v170000IRKNS0_17__copy_assignmentISH_LNS0_6_TraitE1EEEEEvOT_EUlRSP_OT0_E_JRNS0_6__baseILSL_1EJS9_SA_SB_SC_SD_SE_SF_SG_EEERKSX_EEEDcSP_DpT0_
FUNC 27f998 b0 0 _ZNSt6__ndk116__variant_detail12__visitation6__base12__dispatcherIJLm5ELm5EEE10__dispatchB7v170000IOZNS0_12__assignmentINS0_8__traitsIJN5geode11BoolSettingENS8_10IntSettingENS8_12FloatSettingENS8_13StringSettingENS8_11FileSettingENS8_12ColorSettingENS8_17ColorAlphaSettingENS8_13CustomSettingEEEEE16__generic_assignB7v170000IRKNS0_17__copy_assignmentISH_LNS0_6_TraitE1EEEEEvOT_EUlRSP_OT0_E_JRNS0_6__baseILSL_1EJS9_SA_SB_SC_SD_SE_SF_SG_EEERKSX_EEEDcSP_DpT0_
FUNC 27fa48 90 0 _ZNSt6__ndk116__variant_detail12__visitation6__base12__dispatcherIJLm6ELm6EEE10__dispatchB7v170000IOZNS0_12__assignmentINS0_8__traitsIJN5geode11BoolSettingENS8_10IntSettingENS8_12FloatSettingENS8_13StringSettingENS8_11FileSettingENS8_12ColorSettingENS8_17ColorAlphaSettingENS8_13CustomSettingEEEEE16__generic_assignB7v170000IRKNS0_17__copy_assignmentISH_LNS0_6_TraitE1EEEEEvOT_EUlRSP_OT0_E_JRNS0_6__baseILSL_1EJS9_SA_SB_SC_SD_SE_SF_SG_EEERKSX_EEEDcSP_DpT0_
FUNC 27fad8 120 0 _ZNSt6__ndk116__variant_detail12__visitation6__base12__dispatcherIJLm7ELm7EEE10__dispatchB7v170000IOZNS0_12__assignmentINS0_8__traitsIJN5geode11BoolSettingENS8_10IntSettingENS8_12FloatSettingENS8_13StringSettingENS8_11FileSettingENS8_12ColorSettingENS8_17ColorAlphaSettingENS8_13CustomSettingEEEEE16__generic_assignB7v170000IRKNS0_17__copy_assignmentISH_LNS0_6_TraitE1EEEEEvOT_EUlRSP_OT0_E_JRNS0_6__baseILSL_1EJS9_SA_SB_SC_SD_SE_SF_SG_EEERKSX_EEEDcSP_DpT0_
FUNC 27fbf8 160 0 std::__ndk1::__variant_detail::__assignment<std::__ndk1::__variant_detail::__traits<geode::BoolSetting, geode::IntSetting, geode::FloatSetting, geode::StringSetting, geode::FileSetting, geode::ColorSetting, geode::ColorAlphaSetting, geode::CustomSetting> >::__assign_alt[abi:v170000]<(unsigned long)0, geode::BoolSetting, geode::BoolSetting const&>(std::__ndk1::__variant_detail::__alt<(unsigned long)0, geode::BoolSetting>&, geode::BoolSetting const&)::{unnamed type#1}::operator()(std::__ndk1::integral_constant<bool, false>) const
FUNC 27fd58 1a8 0 std::__ndk1::__variant_detail::__assignment<std::__ndk1::__variant_detail::__traits<geode::BoolSetting, geode::IntSetting, geode::FloatSetting, geode::StringSetting, geode::FileSetting, geode::ColorSetting, geode::ColorAlphaSetting, geode::CustomSetting> >::__assign_alt[abi:v170000]<(unsigned long)1, geode::IntSetting, geode::IntSetting const&>(std::__ndk1::__variant_detail::__alt<(unsigned long)1, geode::IntSetting>&, geode::IntSetting const&)::{unnamed type#1}::operator()(std::__ndk1::integral_constant<bool, false>) const
FUNC 27ff00 1a8 0 std::__ndk1::__variant_detail::__assignment<std::__ndk1::__variant_detail::__traits<geode::BoolSetting, geode::IntSetting, geode::FloatSetting, geode::StringSetting, geode::FileSetting, geode::ColorSetting, geode::ColorAlphaSetting, geode::CustomSetting> >::__assign_alt[abi:v170000]<(unsigned long)2, geode::FloatSetting, geode::FloatSetting const&>(std::__ndk1::__variant_detail::__alt<(unsigned long)2, geode::FloatSetting>&, geode::FloatSetting const&)::{unnamed type#1}::operator()(std::__ndk1::integral_constant<bool, false>) const
FUNC 2800a8 c4 0 std::__ndk1::__variant_detail::__assignment<std::__ndk1::__variant_detail::__traits<geode::BoolSetting, geode::IntSetting, geode::FloatSetting, geode::StringSetting, geode::FileSetting, geode::ColorSetting, geode::ColorAlphaSetting, geode::CustomSetting> >::__assign_alt[abi:v170000]<(unsigned long)3, geode::StringSetting, geode::StringSetting const&>(std::__ndk1::__variant_detail::__alt<(unsigned long)3, geode::StringSetting>&, geode::StringSetting const&)
FUNC 28016c 1c0 0 std::__ndk1::__variant_detail::__assignment<std::__ndk1::__variant_detail::__traits<geode::BoolSetting, geode::IntSetting, geode::FloatSetting, geode::StringSetting, geode::FileSetting, geode::ColorSetting, geode::ColorAlphaSetting, geode::CustomSetting> >::__assign_alt[abi:v170000]<(unsigned long)3, geode::StringSetting, geode::StringSetting const&>(std::__ndk1::__variant_detail::__alt<(unsigned long)3, geode::StringSetting>&, geode::StringSetting const&)::{unnamed type#1}::operator()(std::__ndk1::integral_constant<bool, false>) const
FUNC 28032c 154 0 std::__ndk1::__variant_detail::__assignment<std::__ndk1::__variant_detail::__traits<geode::BoolSetting, geode::IntSetting, geode::FloatSetting, geode::StringSetting, geode::FileSetting, geode::ColorSetting, geode::ColorAlphaSetting, geode::CustomSetting> >::__assign_alt[abi:v170000]<(unsigned long)4, geode::FileSetting, geode::FileSetting const&>(std::__ndk1::__variant_detail::__alt<(unsigned long)4, geode::FileSetting>&, geode::FileSetting const&)::{unnamed type#1}::operator()(std::__ndk1::integral_constant<bool, false>) const
FUNC 280480 294 0 std::__ndk1::vector<geode::utils::file::FilePickOptions::Filter, std::__ndk1::allocator<geode::utils::file::FilePickOptions::Filter> >::assign<geode::utils::file::FilePickOptions::Filter*, 0>(geode::utils::file::FilePickOptions::Filter*, geode::utils::file::FilePickOptions::Filter*)
FUNC 280714 180 0 std::__ndk1::__variant_detail::__assignment<std::__ndk1::__variant_detail::__traits<geode::BoolSetting, geode::IntSetting, geode::FloatSetting, geode::StringSetting, geode::FileSetting, geode::ColorSetting, geode::ColorAlphaSetting, geode::CustomSetting> >::__assign_alt[abi:v170000]<(unsigned long)5, geode::ColorSetting, geode::ColorSetting const&>(std::__ndk1::__variant_detail::__alt<(unsigned long)5, geode::ColorSetting>&, geode::ColorSetting const&)::{unnamed type#1}::operator()(std::__ndk1::integral_constant<bool, false>) const
FUNC 280894 164 0 std::__ndk1::__variant_detail::__assignment<std::__ndk1::__variant_detail::__traits<geode::BoolSetting, geode::IntSetting, geode::FloatSetting, geode::StringSetting, geode::FileSetting, geode::ColorSetting, geode::ColorAlphaSetting, geode::CustomSetting> >::__assign_alt[abi:v170000]<(unsigned long)6, geode::ColorAlphaSetting, geode::ColorAlphaSetting const&>(std::__ndk1::__variant_detail::__alt<(unsigned long)6, geode::ColorAlphaSetting>&, geode::ColorAlphaSetting const&)::{unnamed type#1}::operator()(std::__ndk1::integral_constant<bool, false>) const
FUNC 2809f8 504 0 geode::JsonMaybeValue::intoAs<geode::VersionInfo, geode::VersionInfo>(geode::VersionInfo&)
FUNC 280efc d0 0 matjson::Serialize<geode::VersionInfo>::is_json(matjson::Value const&)
FUNC 280fcc 4 0 geode::utils::MiniFunctionState<bool (*)(std::__ndk1::basic_string<char, std::__ndk1::char_traits<char>, std::__ndk1::allocator<char> > const&), bool, std::__ndk1::basic_string<char, std::__ndk1::char_traits<char>, std::__ndk1::allocator<char> > const&>::~MiniFunctionState()
FUNC 280fd0 c 0 geode::utils::MiniFunctionState<bool (*)(std::__ndk1::basic_string<char, std::__ndk1::char_traits<char>, std::__ndk1::allocator<char> > const&), bool, std::__ndk1::basic_string<char, std::__ndk1::char_traits<char>, std::__ndk1::allocator<char> > const&>::call(std::__ndk1::basic_string<char, std::__ndk1::char_traits<char>, std::__ndk1::allocator<char> > const&) const
FUNC 280fdc 38 0 geode::utils::MiniFunctionState<bool (*)(std::__ndk1::basic_string<char, std::__ndk1::char_traits<char>, std::__ndk1::allocator<char> > const&), bool, std::__ndk1::basic_string<char, std::__ndk1::char_traits<char>, std::__ndk1::allocator<char> > const&>::clone() const
FUNC 281014 4 0 geode::utils::MiniFunctionStateBase<bool, std::__ndk1::basic_string<char, std::__ndk1::char_traits<char>, std::__ndk1::allocator<char> > const&>::~MiniFunctionStateBase()
FUNC 281018 504 0 geode::JsonMaybeValue::intoAs<geode::ComparableVersionInfo, geode::ComparableVersionInfo>(geode::ComparableVersionInfo&)
FUNC 28151c d0 0 matjson::Serialize<geode::ComparableVersionInfo>::is_json(matjson::Value const&)
FUNC 2815ec 1b4 0 matjson::Serialize<geode::ComparableVersionInfo>::from_json(matjson::Value const&)
FUNC 2817a0 b0 0 geode::Result<geode::ComparableVersionInfo, std::__ndk1::basic_string<char, std::__ndk1::char_traits<char>, std::__ndk1::allocator<char> > >::unwrapErr() &
FUNC 281850 104 0 geode::Result<geode::ComparableVersionInfo, std::__ndk1::basic_string<char, std::__ndk1::char_traits<char>, std::__ndk1::allocator<char> > >::unwrap() &
FUNC 281954 4f0 0 geode::JsonMaybeValue::intoAs<geode::ModMetadata::Dependency::Importance, geode::ModMetadata::Dependency::Importance>(geode::ModMetadata::Dependency::Importance&)
FUNC 281e44 16c 0 matjson::Serialize<geode::ModMetadata::Dependency::Importance>::from_json(matjson::Value const&)
FUNC 281fb0 4f0 0 geode::JsonMaybeValue::intoAs<geode::ModMetadata::Incompatibility::Importance, geode::ModMetadata::Incompatibility::Importance>(geode::ModMetadata::Incompatibility::Importance&)
FUNC 2824a0 16c 0 matjson::Serialize<geode::ModMetadata::Incompatibility::Importance>::from_json(matjson::Value const&)
FUNC 28260c 210 0 geode::ModMetadata::Impl::Impl()
FUNC 28281c 54 0 std::__ndk1::__optional_destruct_base<geode::ModMetadata::IssuesInfo, false>::~__optional_destruct_base[abi:v170000]()
FUNC 282870 294 0 geode::ModMetadata::Impl::~Impl()
FUNC 282b04 518 0 geode::ModMetadata::Impl::Impl(geode::ModMetadata::Impl const&)
FUNC 28301c 8 0 ModPatch::getOwner() const
FUNC 283024 78 0 ModPatch::setOwner(geode::Mod*)
FUNC 28309c 8 0 ModPatch::isEnabled() const
FUNC 2830a4 8 0 ModPatch::getAutoEnable() const
FUNC 2830ac 8 0 ModPatch::setAutoEnable(bool)
FUNC 2830b4 18 0 geode::Patch::Patch(std::__ndk1::shared_ptr<geode::Patch::Impl>&&)
FUNC 2830cc 50 0 geode::Patch::~Patch()
FUNC 28311c 4 0 geode::Patch::create(void*, std::__ndk1::vector<unsigned char, std::__ndk1::allocator<unsigned char> > const&)
FUNC 283120 8 0 geode::Patch::getOwner() const
FUNC 283128 8 0 geode::Patch::isEnabled() const
FUNC 283130 8 0 geode::Patch::enable()
FUNC 283138 8 0 geode::Patch::disable()
FUNC 283140 8 0 geode::Patch::getAutoEnable() const
FUNC 283148 8 0 geode::Patch::setAutoEnable(bool)
FUNC 283150 8 0 geode::Patch::getAddress() const
FUNC 283158 8 0 geode::Patch::getRuntimeInfo() const
FUNC 283160 64 0 geode::Patch::Impl::Impl(void*, std::__ndk1::vector<unsigned char, std::__ndk1::allocator<unsigned char> >, std::__ndk1::vector<unsigned char, std::__ndk1::allocator<unsigned char> >)
FUNC 2831c4 274 0 geode::Patch::Impl::~Impl()
FUNC 283438 370 0 geode::Patch::Impl::disable()
FUNC 2837a8 3ec 0 geode::Patch::Impl::create(void*, std::__ndk1::vector<unsigned char, std::__ndk1::allocator<unsigned char> > const&)
FUNC 283b94 50 0 std::__ndk1::shared_ptr<geode::Patch::Impl>::~shared_ptr[abi:v170000]()
FUNC 283be4 64 0 geode::Patch::Impl::allEnabled()
FUNC 283c48 18 0 std::__ndk1::vector<geode::Patch::Impl*, std::__ndk1::allocator<geode::Patch::Impl*> >::~vector[abi:v170000]()
FUNC 283c60 5ac 0 geode::Patch::Impl::enable()
FUNC 28420c 8 0 geode::Patch::Impl::getAddress() const
FUNC 284214 224 0 geode::Patch::Impl::getRuntimeInfo() const
FUNC 284438 14 0 std::__ndk1::vector<geode::Patch::Impl*, std::__ndk1::allocator<geode::Patch::Impl*> >::__throw_length_error[abi:v170000]() const
FUNC 28444c 14 0 std::__ndk1::__shared_ptr_emplace<geode::Patch::Impl, std::__ndk1::allocator<geode::Patch::Impl> >::~__shared_ptr_emplace()
FUNC 284460 34 0 std::__ndk1::__shared_ptr_emplace<geode::Patch::Impl, std::__ndk1::allocator<geode::Patch::Impl> >::~__shared_ptr_emplace()
FUNC 284494 8 0 std::__ndk1::__shared_ptr_emplace<geode::Patch::Impl, std::__ndk1::allocator<geode::Patch::Impl> >::__on_zero_shared()
FUNC 28449c 4 0 std::__ndk1::__shared_ptr_emplace<geode::Patch::Impl, std::__ndk1::allocator<geode::Patch::Impl> >::__on_zero_shared_weak()
FUNC 2844a0 19c 0 std::__ndk1::construct_at[abi:v170000]<geode::Patch::Impl, void*&, std::__ndk1::vector<unsigned char, std::__ndk1::allocator<unsigned char> >, std::__ndk1::allocator<unsigned char> const&, geode::Patch*>(geode::Patch::Impl, void*&, std::__ndk1::vector<unsigned char, std::__ndk1::allocator<unsigned char> >, std::__ndk1::allocator<unsigned char> const&)
FUNC 28463c 24 0 std::__ndk1::__shared_ptr_pointer<geode::Patch*, geode::Patch(void*, std::__ndk1::vector<unsigned char, std::__ndk1::allocator<unsigned char> > const&)::Impl::create::$_0, std::__ndk1::allocator<geode::Patch> >::~__shared_ptr_pointer()
FUNC 284660 38 0 std::__ndk1::__shared_ptr_pointer<geode::Patch*, geode::Patch(void*, std::__ndk1::vector<unsigned char, std::__ndk1::allocator<unsigned char> > const&)::Impl::create::$_0, std::__ndk1::allocator<geode::Patch> >::__on_zero_shared()
FUNC 284698 1c 0 std::__ndk1::__shared_ptr_pointer<geode::Patch*, geode::Patch(void*, std::__ndk1::vector<unsigned char, std::__ndk1::allocator<unsigned char> > const&)::Impl::create::$_0, std::__ndk1::allocator<geode::Patch> >::__get_deleter(std::type_info const&) const
FUNC 2846b4 4 0 std::__ndk1::__shared_ptr_pointer<geode::Patch*, geode::Patch(void*, std::__ndk1::vector<unsigned char, std::__ndk1::allocator<unsigned char> > const&)::Impl::create::$_0, std::__ndk1::allocator<geode::Patch> >::__on_zero_shared_weak()
FUNC 2846b8 c0 0 matjson::Serialize<std::__ndk1::vector<unsigned char, std::__ndk1::allocator<unsigned char> > >::to_json(std::__ndk1::vector<unsigned char, std::__ndk1::allocator<unsigned char> > const&)
FUNC 284778 128 0 std::__ndk1::vector<matjson::Value, std::__ndk1::allocator<matjson::Value> >::vector<std::__ndk1::__wrap_iter<unsigned char const*>, 0>(std::__ndk1::__wrap_iter<unsigned char const*>)
FUNC 2848a0 78 0 std::__ndk1::__exception_guard<std::__ndk1::vector<matjson::Value, std::__ndk1::allocator<matjson::Value> >::__destroy_vector>::~__exception_guard[abi:v170000]()
FUNC 284918 39c 0 geode::BoolSetting::parse(geode::JsonMaybeObject&)
FUNC 284cb4 54 0 geode::BoolSetting::~BoolSetting()
FUNC 284d08 85c 0 geode::IntSetting::parse(geode::JsonMaybeObject&)
FUNC 285564 54 0 geode::IntSetting::~IntSetting()
FUNC 2855b8 85c 0 geode::FloatSetting::parse(geode::JsonMaybeObject&)
FUNC 285e14 54 0 geode::FloatSetting::~FloatSetting()
FUNC 285e68 548 0 geode::StringSetting::parse(geode::JsonMaybeObject&)
FUNC 2863b0 8e8 0 geode::FileSetting::parse(geode::JsonMaybeObject&)
FUNC 286c98 80 0 geode::utils::file::FilePickOptions::Filter::~Filter()
FUNC 286d18 78 0 geode::FileSetting::~FileSetting()
FUNC 286d90 3a4 0 geode::ColorSetting::parse(geode::JsonMaybeObject&)
FUNC 287134 54 0 geode::ColorSetting::~ColorSetting()
FUNC 287188 39c 0 geode::ColorAlphaSetting::parse(geode::JsonMaybeObject&)
FUNC 287524 54 0 geode::ColorAlphaSetting::~ColorAlphaSetting()
FUNC 287578 d34 0 geode::Setting::parse(std::__ndk1::basic_string<char, std::__ndk1::char_traits<char>, std::__ndk1::allocator<char> > const&, std::__ndk1::basic_string<char, std::__ndk1::char_traits<char>, std::__ndk1::allocator<char> > const&, geode::JsonMaybeValue&)
FUNC 2882ac 44 0 geode::utils::hash(char const*, int)
FUNC 2882f0 b0 0 geode::Result<geode::BoolSetting, std::__ndk1::basic_string<char, std::__ndk1::char_traits<char>, std::__ndk1::allocator<char> > >::unwrapErr() &
FUNC 2883a0 104 0 geode::Result<geode::BoolSetting, std::__ndk1::basic_string<char, std::__ndk1::char_traits<char>, std::__ndk1::allocator<char> > >::unwrap() &
FUNC 2884a4 10c 0 std::__ndk1::variant<geode::BoolSetting, geode::IntSetting, geode::FloatSetting, geode::StringSetting, geode::FileSetting, geode::ColorSetting, geode::ColorAlphaSetting, geode::CustomSetting>::operator=[abi:v170000]<geode::BoolSetting, 0, geode::BoolSetting, (unsigned long)0, 0>(geode::BoolSetting&&)
FUNC 2885b0 5c 0 cpp::bitwizeshift::result<geode::BoolSetting, std::__ndk1::basic_string<char, std::__ndk1::char_traits<char>, std::__ndk1::allocator<char> > >::~result()
FUNC 28860c b0 0 geode::Result<geode::IntSetting, std::__ndk1::basic_string<char, std::__ndk1::char_traits<char>, std::__ndk1::allocator<char> > >::unwrapErr() &
FUNC 2886bc 104 0 geode::Result<geode::IntSetting, std::__ndk1::basic_string<char, std::__ndk1::char_traits<char>, std::__ndk1::allocator<char> > >::unwrap() &
FUNC 2887c0 134 0 std::__ndk1::variant<geode::BoolSetting, geode::IntSetting, geode::FloatSetting, geode::StringSetting, geode::FileSetting, geode::ColorSetting, geode::ColorAlphaSetting, geode::CustomSetting>::operator=[abi:v170000]<geode::IntSetting, 0, geode::IntSetting, (unsigned long)1, 0>(geode::IntSetting&&)
FUNC 2888f4 5c 0 cpp::bitwizeshift::result<geode::IntSetting, std::__ndk1::basic_string<char, std::__ndk1::char_traits<char>, std::__ndk1::allocator<char> > >::~result()
FUNC 288950 b0 0 geode::Result<geode::FloatSetting, std::__ndk1::basic_string<char, std::__ndk1::char_traits<char>, std::__ndk1::allocator<char> > >::unwrapErr() &
FUNC 288a00 104 0 geode::Result<geode::FloatSetting, std::__ndk1::basic_string<char, std::__ndk1::char_traits<char>, std::__ndk1::allocator<char> > >::unwrap() &
FUNC 288b04 134 0 std::__ndk1::variant<geode::BoolSetting, geode::IntSetting, geode::FloatSetting, geode::StringSetting, geode::FileSetting, geode::ColorSetting, geode::ColorAlphaSetting, geode::CustomSetting>::operator=[abi:v170000]<geode::FloatSetting, 0, geode::FloatSetting, (unsigned long)2, 0>(geode::FloatSetting&&)
FUNC 288c38 5c 0 cpp::bitwizeshift::result<geode::FloatSetting, std::__ndk1::basic_string<char, std::__ndk1::char_traits<char>, std::__ndk1::allocator<char> > >::~result()
FUNC 288c94 b0 0 geode::Result<geode::StringSetting, std::__ndk1::basic_string<char, std::__ndk1::char_traits<char>, std::__ndk1::allocator<char> > >::unwrapErr() &
FUNC 288d44 104 0 geode::Result<geode::StringSetting, std::__ndk1::basic_string<char, std::__ndk1::char_traits<char>, std::__ndk1::allocator<char> > >::unwrap() &
FUNC 288e48 40 0 std::__ndk1::variant<geode::BoolSetting, geode::IntSetting, geode::FloatSetting, geode::StringSetting, geode::FileSetting, geode::ColorSetting, geode::ColorAlphaSetting, geode::CustomSetting>::operator=[abi:v170000]<geode::StringSetting, 0, geode::StringSetting, (unsigned long)3, 0>(geode::StringSetting&&)
FUNC 288e88 20 0 cpp::bitwizeshift::result<geode::StringSetting, std::__ndk1::basic_string<char, std::__ndk1::char_traits<char>, std::__ndk1::allocator<char> > >::~result()
FUNC 288ea8 104 0 geode::Result<geode::ColorSetting, std::__ndk1::basic_string<char, std::__ndk1::char_traits<char>, std::__ndk1::allocator<char> > >::unwrap() &
FUNC 288fac 5c 0 cpp::bitwizeshift::result<geode::ColorSetting, std::__ndk1::basic_string<char, std::__ndk1::char_traits<char>, std::__ndk1::allocator<char> > >::~result()
FUNC 289008 b0 0 geode::Result<geode::ColorAlphaSetting, std::__ndk1::basic_string<char, std::__ndk1::char_traits<char>, std::__ndk1::allocator<char> > >::unwrapErr() &
FUNC 2890b8 104 0 geode::Result<geode::ColorAlphaSetting, std::__ndk1::basic_string<char, std::__ndk1::char_traits<char>, std::__ndk1::allocator<char> > >::unwrap() &
FUNC 2891bc 114 0 std::__ndk1::variant<geode::BoolSetting, geode::IntSetting, geode::FloatSetting, geode::StringSetting, geode::FileSetting, geode::ColorSetting, geode::ColorAlphaSetting, geode::CustomSetting>::operator=[abi:v170000]<geode::ColorAlphaSetting, 0, geode::ColorAlphaSetting, (unsigned long)6, 0>(geode::ColorAlphaSetting&&)
FUNC 2892d0 5c 0 cpp::bitwizeshift::result<geode::ColorAlphaSetting, std::__ndk1::basic_string<char, std::__ndk1::char_traits<char>, std::__ndk1::allocator<char> > >::~result()
FUNC 28932c 104 0 geode::Result<geode::FileSetting, std::__ndk1::basic_string<char, std::__ndk1::char_traits<char>, std::__ndk1::allocator<char> > >::unwrap() &
FUNC 289430 80 0 cpp::bitwizeshift::result<geode::FileSetting, std::__ndk1::basic_string<char, std::__ndk1::char_traits<char>, std::__ndk1::allocator<char> > >::~result()
FUNC 2894b0 214 0 geode::Setting::Setting(std::__ndk1::basic_string<char, std::__ndk1::char_traits<char>, std::__ndk1::allocator<char> > const&, std::__ndk1::basic_string<char, std::__ndk1::char_traits<char>, std::__ndk1::allocator<char> > const&, std::__ndk1::variant<geode::BoolSetting, geode::IntSetting, geode::FloatSetting, geode::StringSetting, geode::FileSetting, geode::ColorSetting, geode::ColorAlphaSetting, geode::CustomSetting> const&)
FUNC 2896c4 90 0 geode::Setting::createDefaultValue() const
FUNC 289754 10 0 geode::Setting::isCustom() const
FUNC 289764 84 0 geode::Setting::getDisplayName() const
FUNC 2897e8 80 0 geode::Setting::getDescription() const
FUNC 289868 a0 0 geode::Setting::getModID() const
FUNC 289908 148 0 geode::SettingValue::SettingValue(std::__ndk1::basic_string<char, std::__ndk1::char_traits<char>, std::__ndk1::allocator<char> > const&, std::__ndk1::basic_string<char, std::__ndk1::char_traits<char>, std::__ndk1::allocator<char> > const&)
FUNC 289a50 a0 0 geode::SettingValue::getKey() const
FUNC 289af0 a0 0 geode::SettingValue::getModID() const
FUNC 289b90 a0 0 geode::SettingValue::valueChanged()
FUNC 289c30 9c 0 geode::GeodeSettingValue<geode::BoolSetting>::GeodeSettingValue(std::__ndk1::basic_string<char, std::__ndk1::char_traits<char>, std::__ndk1::allocator<char> > const&, std::__ndk1::basic_string<char, std::__ndk1::char_traits<char>, std::__ndk1::allocator<char> > const&, geode::BoolSetting const&)
FUNC 289ccc 54 0 geode::GeodeSettingValue<geode::BoolSetting>::load(matjson::Value const&)
FUNC 289d20 8c 0 geode::GeodeSettingValue<geode::BoolSetting>::save(matjson::Value&) const
FUNC 289dac 64 0 geode::GeodeSettingValue<geode::BoolSetting>::castDefinition() const
FUNC 289e10 104 0 geode::GeodeSettingValue<geode::BoolSetting>::getDefinition() const
FUNC 289f14 74 0 std::__ndk1::variant<geode::BoolSetting, geode::IntSetting, geode::FloatSetting, geode::StringSetting, geode::FileSetting, geode::ColorSetting, geode::ColorAlphaSetting, geode::CustomSetting>::~variant()
FUNC 289f88 8 0 geode::GeodeSettingValue<geode::BoolSetting>::getValue() const
FUNC 289f90 b8 0 geode::GeodeSettingValue<geode::IntSetting>::GeodeSettingValue(std::__ndk1::basic_string<char, std::__ndk1::char_traits<char>, std::__ndk1::allocator<char> > const&, std::__ndk1::basic_string<char, std::__ndk1::char_traits<char>, std::__ndk1::allocator<char> > const&, geode::IntSetting const&)
FUNC 28a048 54 0 geode::GeodeSettingValue<geode::IntSetting>::load(matjson::Value const&)
FUNC 28a09c 90 0 geode::GeodeSettingValue<geode::IntSetting>::save(matjson::Value&) const
FUNC 28a12c 7c 0 geode::GeodeSettingValue<geode::IntSetting>::castDefinition() const
FUNC 28a1a8 124 0 geode::GeodeSettingValue<geode::IntSetting>::getDefinition() const
FUNC 28a2cc 8 0 geode::GeodeSettingValue<geode::IntSetting>::getValue() const
FUNC 28a2d4 b8 0 geode::GeodeSettingValue<geode::FloatSetting>::GeodeSettingValue(std::__ndk1::basic_string<char, std::__ndk1::char_traits<char>, std::__ndk1::allocator<char> > const&, std::__ndk1::basic_string<char, std::__ndk1::char_traits<char>, std::__ndk1::allocator<char> > const&, geode::FloatSetting const&)
FUNC 28a38c 50 0 geode::GeodeSettingValue<geode::FloatSetting>::load(matjson::Value const&)
FUNC 28a3dc 8c 0 geode::GeodeSettingValue<geode::FloatSetting>::save(matjson::Value&) const
FUNC 28a468 7c 0 geode::GeodeSettingValue<geode::FloatSetting>::castDefinition() const
FUNC 28a4e4 124 0 geode::GeodeSettingValue<geode::FloatSetting>::getDefinition() const
FUNC 28a608 8 0 geode::GeodeSettingValue<geode::FloatSetting>::getValue() const
FUNC 28a610 f4 0 geode::GeodeSettingValue<geode::StringSetting>::GeodeSettingValue(std::__ndk1::basic_string<char, std::__ndk1::char_traits<char>, std::__ndk1::allocator<char> > const&, std::__ndk1::basic_string<char, std::__ndk1::char_traits<char>, std::__ndk1::allocator<char> > const&, geode::StringSetting const&)
FUNC 28a704 9c 0 geode::GeodeSettingValue<geode::StringSetting>::load(matjson::Value const&)
FUNC 28a7a0 148 0 geode::GeodeSettingValue<geode::StringSetting>::save(matjson::Value&) const
FUNC 28a8e8 c 0 geode::GeodeSettingValue<geode::StringSetting>::castDefinition() const
FUNC 28a8f4 d8 0 geode::GeodeSettingValue<geode::StringSetting>::getDefinition() const
FUNC 28a9cc a0 0 geode::GeodeSettingValue<geode::StringSetting>::getValue() const
FUNC 28aa6c 7c 0 geode::GeodeSettingValue<geode::FileSetting>::GeodeSettingValue(std::__ndk1::basic_string<char, std::__ndk1::char_traits<char>, std::__ndk1::allocator<char> > const&, std::__ndk1::basic_string<char, std::__ndk1::char_traits<char>, std::__ndk1::allocator<char> > const&, geode::FileSetting const&)
FUNC 28aae8 d8 0 geode::GeodeSettingValue<geode::FileSetting>::load(matjson::Value const&)
FUNC 28abc0 8c 0 geode::GeodeSettingValue<geode::FileSetting>::save(matjson::Value&) const
FUNC 28ac4c bc 0 matjson::Value::Value<ghc::filesystem::path const&>()
FUNC 28ad08 c 0 geode::GeodeSettingValue<geode::FileSetting>::castDefinition() const
FUNC 28ad14 d8 0 geode::GeodeSettingValue<geode::FileSetting>::getDefinition() const
FUNC 28adec c 0 geode::GeodeSettingValue<geode::FileSetting>::getValue() const
FUNC 28adf8 b0 0 geode::GeodeSettingValue<geode::ColorSetting>::GeodeSettingValue(std::__ndk1::basic_string<char, std::__ndk1::char_traits<char>, std::__ndk1::allocator<char> > const&, std::__ndk1::basic_string<char, std::__ndk1::char_traits<char>, std::__ndk1::allocator<char> > const&, geode::ColorSetting const&)
FUNC 28aea8 50 0 geode::GeodeSettingValue<geode::ColorSetting>::load(matjson::Value const&)
FUNC 28aef8 ac 0 geode::GeodeSettingValue<geode::ColorSetting>::save(matjson::Value&) const
FUNC 28afa4 6c 0 geode::GeodeSettingValue<geode::ColorSetting>::castDefinition() const
FUNC 28b010 110 0 geode::GeodeSettingValue<geode::ColorSetting>::getDefinition() const
FUNC 28b120 10 0 geode::GeodeSettingValue<geode::ColorSetting>::getValue() const
FUNC 28b130 9c 0 geode::GeodeSettingValue<geode::ColorAlphaSetting>::GeodeSettingValue(std::__ndk1::basic_string<char, std::__ndk1::char_traits<char>, std::__ndk1::allocator<char> > const&, std::__ndk1::basic_string<char, std::__ndk1::char_traits<char>, std::__ndk1::allocator<char> > const&, geode::ColorAlphaSetting const&)
FUNC 28b1cc 48 0 geode::GeodeSettingValue<geode::ColorAlphaSetting>::load(matjson::Value const&)
FUNC 28b214 ac 0 geode::GeodeSettingValue<geode::ColorAlphaSetting>::save(matjson::Value&) const
FUNC 28b2c0 64 0 geode::GeodeSettingValue<geode::ColorAlphaSetting>::castDefinition() const
FUNC 28b324 108 0 geode::GeodeSettingValue<geode::ColorAlphaSetting>::getDefinition() const
FUNC 28b42c 8 0 geode::GeodeSettingValue<geode::ColorAlphaSetting>::getValue() const
FUNC 28b434 14 0 geode::GeodeSettingValue<geode::BoolSetting>::toValid(bool const&) const
FUNC 28b448 f8 0 geode::GeodeSettingValue<geode::IntSetting>::toValid(long const&) const
FUNC 28b540 100 0 geode::GeodeSettingValue<geode::FloatSetting>::toValid(double const&) const
FUNC 28b640 268 0 geode::GeodeSettingValue<geode::StringSetting>::toValid(std::__ndk1::basic_string<char, std::__ndk1::char_traits<char>, std::__ndk1::allocator<char> > const&) const
FUNC 28b8a8 2c 0 geode::GeodeSettingValue<geode::FileSetting>::toValid(ghc::filesystem::path const&) const
FUNC 28b8d4 1c 0 geode::GeodeSettingValue<geode::ColorSetting>::toValid(cocos2d::_ccColor3B const&) const
FUNC 28b8f0 14 0 geode::GeodeSettingValue<geode::ColorAlphaSetting>::toValid(cocos2d::_ccColor4B const&) const
FUNC 28b904 98 0 geode::GeodeSettingValue<geode::BoolSetting>::createNode(float)
FUNC 28b99c a8 0 geode::GeodeSettingValue<geode::BoolSetting>::setValue(bool const&)
FUNC 28ba44 c 0 geode::GeodeSettingValue<geode::BoolSetting>::validate(bool const&) const
FUNC 28ba50 48 0 geode::SettingValueSetter<bool>::get(geode::SettingValue*)
FUNC 28ba98 58 0 geode::SettingValueSetter<bool>::set(geode::SettingValue*, bool const&)
FUNC 28baf0 b4 0 geode::GeodeSettingValue<geode::IntSetting>::createNode(float)
FUNC 28bba4 134 0 geode::GeodeSettingValue<geode::IntSetting>::setValue(long const&)
FUNC 28bcd8 1d8 0 geode::GeodeSettingValue<geode::IntSetting>::validate(long const&) const
FUNC 28beb0 40 0 geode::SettingValueSetter<long>::get(geode::SettingValue*)
FUNC 28bef0 58 0 geode::SettingValueSetter<long>::set(geode::SettingValue*, long const&)
FUNC 28bf48 b4 0 geode::GeodeSettingValue<geode::FloatSetting>::createNode(float)
FUNC 28bffc 13c 0 geode::GeodeSettingValue<geode::FloatSetting>::setValue(double const&)
FUNC 28c138 1dc 0 geode::GeodeSettingValue<geode::FloatSetting>::validate(double const&) const
FUNC 28c314 50 0 geode::SettingValueSetter<double>::get(geode::SettingValue*)
FUNC 28c364 58 0 geode::SettingValueSetter<double>::set(geode::SettingValue*, double const&)
FUNC 28c3bc a8 0 geode::GeodeSettingValue<geode::StringSetting>::createNode(float)
FUNC 28c464 100 0 geode::GeodeSettingValue<geode::StringSetting>::setValue(std::__ndk1::basic_string<char, std::__ndk1::char_traits<char>, std::__ndk1::allocator<char> > const&)
FUNC 28c564 1a4 0 geode::GeodeSettingValue<geode::StringSetting>::validate(std::__ndk1::basic_string<char, std::__ndk1::char_traits<char>, std::__ndk1::allocator<char> > const&) const
FUNC 28c708 d8 0 geode::SettingValueSetter<std::__ndk1::basic_string<char, std::__ndk1::char_traits<char>, std::__ndk1::allocator<char> > >::get(geode::SettingValue*)
FUNC 28c7e0 58 0 geode::SettingValueSetter<std::__ndk1::basic_string<char, std::__ndk1::char_traits<char>, std::__ndk1::allocator<char> > >::set(geode::SettingValue*, std::__ndk1::basic_string<char, std::__ndk1::char_traits<char>, std::__ndk1::allocator<char> > const&)
FUNC 28c838 4 0 geode::GeodeSettingValue<geode::FileSetting>::createNode(float)
FUNC 28c83c b8 0 FileSettingNode::create(geode::GeodeSettingValue<geode::FileSetting>*, float)
FUNC 28c8f4 dc 0 geode::GeodeSettingValue<geode::FileSetting>::setValue(ghc::filesystem::path const&)
FUNC 28c9d0 64 0 geode::GeodeSettingValue<geode::FileSetting>::validate(ghc::filesystem::path const&) const
FUNC 28ca34 60 0 geode::SettingValueSetter<ghc::filesystem::path>::get(geode::SettingValue*)
FUNC 28ca94 58 0 geode::SettingValueSetter<ghc::filesystem::path>::set(geode::SettingValue*, ghc::filesystem::path const&)
FUNC 28caec a0 0 geode::GeodeSettingValue<geode::ColorSetting>::createNode(float)
FUNC 28cb8c b0 0 geode::GeodeSettingValue<geode::ColorSetting>::setValue(cocos2d::_ccColor3B const&)
FUNC 28cc3c c 0 geode::GeodeSettingValue<geode::ColorSetting>::validate(cocos2d::_ccColor3B const&) const
FUNC 28cc48 48 0 geode::SettingValueSetter<cocos2d::_ccColor3B>::get(geode::SettingValue*)
FUNC 28cc90 e8 0 geode::SettingValueSetter<cocos2d::_ccColor3B>::set(geode::SettingValue*, cocos2d::_ccColor3B const&)
FUNC 28cd78 a0 0 geode::GeodeSettingValue<geode::ColorAlphaSetting>::createNode(float)
FUNC 28ce18 a8 0 geode::GeodeSettingValue<geode::ColorAlphaSetting>::setValue(cocos2d::_ccColor4B const&)
FUNC 28cec0 c 0 geode::GeodeSettingValue<geode::ColorAlphaSetting>::validate(cocos2d::_ccColor4B const&) const
FUNC 28cecc 40 0 geode::SettingValueSetter<cocos2d::_ccColor4B>::get(geode::SettingValue*)
FUNC 28cf0c 58 0 geode::SettingValueSetter<cocos2d::_ccColor4B>::set(geode::SettingValue*, cocos2d::_ccColor4B const&)
FUNC 28cf64 18 0 geode::SettingChangedEvent::SettingChangedEvent(geode::Mod*, geode::SettingValue*)
FUNC 28cf7c 2b8 0 geode::SettingChangedFilter::handle(geode::utils::MiniFunction<void (geode::SettingValue*)>, geode::SettingChangedEvent*)
FUNC 28d234 cc 0 geode::SettingChangedFilter::SettingChangedFilter(std::__ndk1::basic_string<char, std::__ndk1::char_traits<char>, std::__ndk1::allocator<char> > const&, std::__ndk1::optional<std::__ndk1::basic_string<char, std::__ndk1::char_traits<char>, std::__ndk1::allocator<char> > > const&)
FUNC 28d300 94 0 geode::GeodeSettingValue<geode::BoolSetting>::~GeodeSettingValue()
FUNC 28d394 90 0 geode::GeodeSettingValue<geode::BoolSetting>::~GeodeSettingValue()
FUNC 28d424 94 0 geode::GeodeSettingValue<geode::IntSetting>::~GeodeSettingValue()
FUNC 28d4b8 90 0 geode::GeodeSettingValue<geode::IntSetting>::~GeodeSettingValue()
FUNC 28d548 94 0 geode::GeodeSettingValue<geode::FloatSetting>::~GeodeSettingValue()
FUNC 28d5dc 90 0 geode::GeodeSettingValue<geode::FloatSetting>::~GeodeSettingValue()
FUNC 28d66c 7c 0 geode::GeodeSettingValue<geode::StringSetting>::~GeodeSettingValue()
FUNC 28d6e8 78 0 geode::GeodeSettingValue<geode::StringSetting>::~GeodeSettingValue()
FUNC 28d760 94 0 geode::GeodeSettingValue<geode::ColorSetting>::~GeodeSettingValue()
FUNC 28d7f4 90 0 geode::GeodeSettingValue<geode::ColorSetting>::~GeodeSettingValue()
FUNC 28d884 94 0 geode::GeodeSettingValue<geode::ColorAlphaSetting>::~GeodeSettingValue()
FUNC 28d918 90 0 geode::GeodeSettingValue<geode::ColorAlphaSetting>::~GeodeSettingValue()
FUNC 28d9a8 c0 0 geode::GeodeSettingValue<geode::FileSetting>::~GeodeSettingValue()
FUNC 28da68 24 0 geode::GeodeSettingValue<geode::FileSetting>::~GeodeSettingValue()
FUNC 28da8c 54 0 geode::SettingValue::~SettingValue()
FUNC 28dae0 4 0 geode::SettingValue::~SettingValue()
FUNC 28dae4 24 0 geode::SettingChangedEvent::~SettingChangedEvent()
FUNC 28db08 2a8 0 std::__ndk1::vector<geode::utils::file::FilePickOptions::Filter, std::__ndk1::allocator<geode::utils::file::FilePickOptions::Filter> >::__push_back_slow_path<geode::utils::file::FilePickOptions::Filter const&>(geode::utils::file::FilePickOptions::Filter const&)
FUNC 28ddb0 c8 0 std::__ndk1::construct_at[abi:v170000]<geode::utils::file::FilePickOptions::Filter, geode::utils::file::FilePickOptions const&, geode::utils::file::FilePickOptions*>(geode::utils::file::FilePickOptions::Filter, geode::utils::file::FilePickOptions const&)
FUNC 28de78 38 0 std::__ndk1::__split_buffer<geode::utils::file::FilePickOptions::Filter, std::__ndk1::allocator<geode::utils::file::FilePickOptions::Filter>&>::~__split_buffer()
FUNC 28deb0 a8 0 std::__ndk1::__split_buffer<geode::utils::file::FilePickOptions::Filter, std::__ndk1::allocator<geode::utils::file::FilePickOptions::Filter>&>::__destruct_at_end[abi:v170000](geode::utils::file::FilePickOptions::Filter*)
FUNC 28df58 70 0 std::__ndk1::__variant_detail::__visitation::__base::__dispatcher<(unsigned long)0>::__dispatch[abi:v170000]<std::__ndk1::__variant_detail::__visitation::__variant::__value_visitor<geode::utils::makeVisitor<std::__ndk1::__variant_detail::__visitation::__variant::__value_visitor::Setting::createDefaultValue() const::$_0, geode::utils::makeVisitor::createDefaultValue() const::$_1, geode::utils::makeVisitor::createDefaultValue() const::$_2, geode::utils::makeVisitor::createDefaultValue() const::$_3, geode::utils::makeVisitor::createDefaultValue() const::$_4, geode::utils::makeVisitor::createDefaultValue() const::$_5, geode::utils::makeVisitor::createDefaultValue() const::$_6, geode::utils::makeVisitor::createDefaultValue() const::$_7> >&&, std::__ndk1::__variant_detail::__base<(std::__ndk1::__variant_detail::_Trait)1, std::__ndk1::__variant_detail::__visitation::__variant::__value_visitor::BoolSetting, std::__ndk1::__variant_detail::__visitation::__variant::__value_visitor::IntSetting, std::__ndk1::__variant_detail::__visitation::__variant::__value_visitor::FloatSetting, std::__ndk1::__variant_detail::__visitation::__variant::__value_visitor::StringSetting, std::__ndk1::__variant_detail::__visitation::__variant::__value_visitor::FileSetting, std::__ndk1::__variant_detail::__visitation::__variant::__value_visitor::ColorSetting, std::__ndk1::__variant_detail::__visitation::__variant::__value_visitor::ColorAlphaSetting, std::__ndk1::__variant_detail::__visitation::__variant::__value_visitor::CustomSetting> const&>(std::__ndk1::__variant_detail::__visitation::__variant::__value_visitor<geode::utils::makeVisitor<std::__ndk1::__variant_detail::__visitation::__variant::__value_visitor::Setting::createDefaultValue() const::$_0, geode::utils::makeVisitor::createDefaultValue() const::$_1, geode::utils::makeVisitor::createDefaultValue() const::$_2, geode::utils::makeVisitor::createDefaultValue() const::$_3, geode::utils::makeVisitor::createDefaultValue() const::$_4, geode::utils::makeVisitor::createDefaultValue() const::$_5, geode::utils::makeVisitor::createDefaultValue() const::$_6, geode::utils::makeVisitor::createDefaultValue() const::$_7> >&&, std::__ndk1::__variant_detail::__base<(std::__ndk1::__variant_detail::_Trait)1, std::__ndk1::__variant_detail::__visitation::__variant::__value_visitor::BoolSetting, std::__ndk1::__variant_detail::__visitation::__variant::__value_visitor::IntSetting, std::__ndk1::__variant_detail::__visitation::__variant::__value_visitor::FloatSetting, std::__ndk1::__variant_detail::__visitation::__variant::__value_visitor::StringSetting, std::__ndk1::__variant_detail::__visitation::__variant::__value_visitor::FileSetting, std::__ndk1::__variant_detail::__visitation::__variant::__value_visitor::ColorSetting, std::__ndk1::__variant_detail::__visitation::__variant::__value_visitor::ColorAlphaSetting, std::__ndk1::__variant_detail::__visitation::__variant::__value_visitor::CustomSetting> const&)
FUNC 28dfc8 70 0 std::__ndk1::__variant_detail::__visitation::__base::__dispatcher<(unsigned long)1>::__dispatch[abi:v170000]<std::__ndk1::__variant_detail::__visitation::__variant::__value_visitor<geode::utils::makeVisitor<std::__ndk1::__variant_detail::__visitation::__variant::__value_visitor::Setting::createDefaultValue() const::$_0, geode::utils::makeVisitor::createDefaultValue() const::$_1, geode::utils::makeVisitor::createDefaultValue() const::$_2, geode::utils::makeVisitor::createDefaultValue() const::$_3, geode::utils::makeVisitor::createDefaultValue() const::$_4, geode::utils::makeVisitor::createDefaultValue() const::$_5, geode::utils::makeVisitor::createDefaultValue() const::$_6, geode::utils::makeVisitor::createDefaultValue() const::$_7> >&&, std::__ndk1::__variant_detail::__base<(std::__ndk1::__variant_detail::_Trait)1, std::__ndk1::__variant_detail::__visitation::__variant::__value_visitor::BoolSetting, std::__ndk1::__variant_detail::__visitation::__variant::__value_visitor::IntSetting, std::__ndk1::__variant_detail::__visitation::__variant::__value_visitor::FloatSetting, std::__ndk1::__variant_detail::__visitation::__variant::__value_visitor::StringSetting, std::__ndk1::__variant_detail::__visitation::__variant::__value_visitor::FileSetting, std::__ndk1::__variant_detail::__visitation::__variant::__value_visitor::ColorSetting, std::__ndk1::__variant_detail::__visitation::__variant::__value_visitor::ColorAlphaSetting, std::__ndk1::__variant_detail::__visitation::__variant::__value_visitor::CustomSetting> const&>(std::__ndk1::__variant_detail::__visitation::__variant::__value_visitor<geode::utils::makeVisitor<std::__ndk1::__variant_detail::__visitation::__variant::__value_visitor::Setting::createDefaultValue() const::$_0, geode::utils::makeVisitor::createDefaultValue() const::$_1, geode::utils::makeVisitor::createDefaultValue() const::$_2, geode::utils::makeVisitor::createDefaultValue() const::$_3, geode::utils::makeVisitor::createDefaultValue() const::$_4, geode::utils::makeVisitor::createDefaultValue() const::$_5, geode::utils::makeVisitor::createDefaultValue() const::$_6, geode::utils::makeVisitor::createDefaultValue() const::$_7> >&&, std::__ndk1::__variant_detail::__base<(std::__ndk1::__variant_detail::_Trait)1, std::__ndk1::__variant_detail::__visitation::__variant::__value_visitor::BoolSetting, std::__ndk1::__variant_detail::__visitation::__variant::__value_visitor::IntSetting, std::__ndk1::__variant_detail::__visitation::__variant::__value_visitor::FloatSetting, std::__ndk1::__variant_detail::__visitation::__variant::__value_visitor::StringSetting, std::__ndk1::__variant_detail::__visitation::__variant::__value_visitor::FileSetting, std::__ndk1::__variant_detail::__visitation::__variant::__value_visitor::ColorSetting, std::__ndk1::__variant_detail::__visitation::__variant::__value_visitor::ColorAlphaSetting, std::__ndk1::__variant_detail::__visitation::__variant::__value_visitor::CustomSetting> const&)
FUNC 28e038 70 0 std::__ndk1::__variant_detail::__visitation::__base::__dispatcher<(unsigned long)2>::__dispatch[abi:v170000]<std::__ndk1::__variant_detail::__visitation::__variant::__value_visitor<geode::utils::makeVisitor<std::__ndk1::__variant_detail::__visitation::__variant::__value_visitor::Setting::createDefaultValue() const::$_0, geode::utils::makeVisitor::createDefaultValue() const::$_1, geode::utils::makeVisitor::createDefaultValue() const::$_2, geode::utils::makeVisitor::createDefaultValue() const::$_3, geode::utils::makeVisitor::createDefaultValue() const::$_4, geode::utils::makeVisitor::createDefaultValue() const::$_5, geode::utils::makeVisitor::createDefaultValue() const::$_6, geode::utils::makeVisitor::createDefaultValue() const::$_7> >&&, std::__ndk1::__variant_detail::__base<(std::__ndk1::__variant_detail::_Trait)1, std::__ndk1::__variant_detail::__visitation::__variant::__value_visitor::BoolSetting, std::__ndk1::__variant_detail::__visitation::__variant::__value_visitor::IntSetting, std::__ndk1::__variant_detail::__visitation::__variant::__value_visitor::FloatSetting, std::__ndk1::__variant_detail::__visitation::__variant::__value_visitor::StringSetting, std::__ndk1::__variant_detail::__visitation::__variant::__value_visitor::FileSetting, std::__ndk1::__variant_detail::__visitation::__variant::__value_visitor::ColorSetting, std::__ndk1::__variant_detail::__visitation::__variant::__value_visitor::ColorAlphaSetting, std::__ndk1::__variant_detail::__visitation::__variant::__value_visitor::CustomSetting> const&>(std::__ndk1::__variant_detail::__visitation::__variant::__value_visitor<geode::utils::makeVisitor<std::__ndk1::__variant_detail::__visitation::__variant::__value_visitor::Setting::createDefaultValue() const::$_0, geode::utils::makeVisitor::createDefaultValue() const::$_1, geode::utils::makeVisitor::createDefaultValue() const::$_2, geode::utils::makeVisitor::createDefaultValue() const::$_3, geode::utils::makeVisitor::createDefaultValue() const::$_4, geode::utils::makeVisitor::createDefaultValue() const::$_5, geode::utils::makeVisitor::createDefaultValue() const::$_6, geode::utils::makeVisitor::createDefaultValue() const::$_7> >&&, std::__ndk1::__variant_detail::__base<(std::__ndk1::__variant_detail::_Trait)1, std::__ndk1::__variant_detail::__visitation::__variant::__value_visitor::BoolSetting, std::__ndk1::__variant_detail::__visitation::__variant::__value_visitor::IntSetting, std::__ndk1::__variant_detail::__visitation::__variant::__value_visitor::FloatSetting, std::__ndk1::__variant_detail::__visitation::__variant::__value_visitor::StringSetting, std::__ndk1::__variant_detail::__visitation::__variant::__value_visitor::FileSetting, std::__ndk1::__variant_detail::__visitation::__variant::__value_visitor::ColorSetting, std::__ndk1::__variant_detail::__visitation::__variant::__value_visitor::ColorAlphaSetting, std::__ndk1::__variant_detail::__visitation::__variant::__value_visitor::CustomSetting> const&)
FUNC 28e0a8 70 0 std::__ndk1::__variant_detail::__visitation::__base::__dispatcher<(unsigned long)3>::__dispatch[abi:v170000]<std::__ndk1::__variant_detail::__visitation::__variant::__value_visitor<geode::utils::makeVisitor<std::__ndk1::__variant_detail::__visitation::__variant::__value_visitor::Setting::createDefaultValue() const::$_0, geode::utils::makeVisitor::createDefaultValue() const::$_1, geode::utils::makeVisitor::createDefaultValue() const::$_2, geode::utils::makeVisitor::createDefaultValue() const::$_3, geode::utils::makeVisitor::createDefaultValue() const::$_4, geode::utils::makeVisitor::createDefaultValue() const::$_5, geode::utils::makeVisitor::createDefaultValue() const::$_6, geode::utils::makeVisitor::createDefaultValue() const::$_7> >&&, std::__ndk1::__variant_detail::__base<(std::__ndk1::__variant_detail::_Trait)1, std::__ndk1::__variant_detail::__visitation::__variant::__value_visitor::BoolSetting, std::__ndk1::__variant_detail::__visitation::__variant::__value_visitor::IntSetting, std::__ndk1::__variant_detail::__visitation::__variant::__value_visitor::FloatSetting, std::__ndk1::__variant_detail::__visitation::__variant::__value_visitor::StringSetting, std::__ndk1::__variant_detail::__visitation::__variant::__value_visitor::FileSetting, std::__ndk1::__variant_detail::__visitation::__variant::__value_visitor::ColorSetting, std::__ndk1::__variant_detail::__visitation::__variant::__value_visitor::ColorAlphaSetting, std::__ndk1::__variant_detail::__visitation::__variant::__value_visitor::CustomSetting> const&>(std::__ndk1::__variant_detail::__visitation::__variant::__value_visitor<geode::utils::makeVisitor<std::__ndk1::__variant_detail::__visitation::__variant::__value_visitor::Setting::createDefaultValue() const::$_0, geode::utils::makeVisitor::createDefaultValue() const::$_1, geode::utils::makeVisitor::createDefaultValue() const::$_2, geode::utils::makeVisitor::createDefaultValue() const::$_3, geode::utils::makeVisitor::createDefaultValue() const::$_4, geode::utils::makeVisitor::createDefaultValue() const::$_5, geode::utils::makeVisitor::createDefaultValue() const::$_6, geode::utils::makeVisitor::createDefaultValue() const::$_7> >&&, std::__ndk1::__variant_detail::__base<(std::__ndk1::__variant_detail::_Trait)1, std::__ndk1::__variant_detail::__visitation::__variant::__value_visitor::BoolSetting, std::__ndk1::__variant_detail::__visitation::__variant::__value_visitor::IntSetting, std::__ndk1::__variant_detail::__visitation::__variant::__value_visitor::FloatSetting, std::__ndk1::__variant_detail::__visitation::__variant::__value_visitor::StringSetting, std::__ndk1::__variant_detail::__visitation::__variant::__value_visitor::FileSetting, std::__ndk1::__variant_detail::__visitation::__variant::__value_visitor::ColorSetting, std::__ndk1::__variant_detail::__visitation::__variant::__value_visitor::ColorAlphaSetting, std::__ndk1::__variant_detail::__visitation::__variant::__value_visitor::CustomSetting> const&)
