MODULE Linux arm64 E01C649029F59BB6209CF8B9B817D72A0 geode.node-ids.android64.so
INFO CODE_ID 90641CE0F529B69B209CF8B9B817D72A3AF785BD
INFO GENERATOR mozilla/dump_syms 2.3.0
PUBLIC 36cf0 0 __on_dlclose
PUBLIC 36d00 0 __emutls_unregister_key
PUBLIC 36d08 0 __on_dlclose_late
PUBLIC 36d10 0 __atexit_handler_wrapper
PUBLIC 36d24 0 atexit
PUBLIC 36d40 0 pthread_atfork
PUBLIC 36d50 0 ProvideIDsForChallengeNode::provide()
PUBLIC 36ea0 0 geode::node_ids::setIDSafe<cocos2d::CCNode>(cocos2d::CCNode*, int, char const*)
PUBLIC 3701c 0 __cxx_global_var_init.12
PUBLIC 37084 0 geode::modifier::ModifyBase<geode::modifier::ModifyDerive<ChallengeNodeIDs, ChallengeNode> >::~ModifyBase()
PUBLIC 370a0 0 geode::modifier::ModifyBase<geode::modifier::ModifyDerive<ChallengeNodeIDs, ChallengeNode> >::ModifyBase()
PUBLIC 37538 0 geode::modifier::ModifyDerive<ChallengeNodeIDs, ChallengeNode>::apply()
PUBLIC 377f8 0 ChallengeNodeIDs::onModify<geode::modifier::ModifyBase<geode::modifier::ModifyDerive<ChallengeNodeIDs, ChallengeNode> > >(geode::modifier::ModifyBase<geode::modifier::ModifyDerive<ChallengeNodeIDs, ChallengeNode> >&)
PUBLIC 37904 0 std::__ndk1::shared_ptr<geode::Hook>::~shared_ptr[abi:v170000]()
PUBLIC 37954 0 std::__ndk1::vector<std::__ndk1::basic_string<char, std::__ndk1::char_traits<char>, std::__ndk1::allocator<char> >, std::__ndk1::allocator<std::__ndk1::basic_string<char, std::__ndk1::char_traits<char>, std::__ndk1::allocator<char> > > >::~vector[abi:v170000]()
PUBLIC 379d0 0 geode::modifier::ModifyBase<geode::modifier::ModifyDerive<ChallengeNodeIDs, ChallengeNode> >::apply()
PUBLIC 379d4 0 __clang_call_terminate
PUBLIC 379e4 0 geode::modifier::ModifyBase<geode::modifier::ModifyDerive<ChallengeNodeIDs, ChallengeNode> >::setHookPriority(std::__ndk1::basic_string<char, std::__ndk1::char_traits<char>, std::__ndk1::allocator<char> > const&, int)
PUBLIC 37ba0 0 geode::Result<geode::Hook*, std::__ndk1::basic_string<char, std::__ndk1::char_traits<char>, std::__ndk1::allocator<char> > >::unwrap() &
PUBLIC 37ca0 0 std::__ndk1::__tree<std::__ndk1::__value_type<std::__ndk1::basic_string<char, std::__ndk1::char_traits<char>, std::__ndk1::allocator<char> >, std::__ndk1::shared_ptr<geode::Hook> >, std::__ndk1::__map_value_compare<std::__ndk1::basic_string<char, std::__ndk1::char_traits<char>, std::__ndk1::allocator<char> >, std::__ndk1::__value_type<std::__ndk1::basic_string<char, std::__ndk1::char_traits<char>, std::__ndk1::allocator<char> >, std::__ndk1::shared_ptr<geode::Hook> >, std::__ndk1::less<std::__ndk1::basic_string<char, std::__ndk1::char_traits<char>, std::__ndk1::allocator<char> > >, true>, std::__ndk1::allocator<std::__ndk1::__value_type<std::__ndk1::basic_string<char, std::__ndk1::char_traits<char>, std::__ndk1::allocator<char> >, std::__ndk1::shared_ptr<geode::Hook> > > >::find<std::__ndk1::basic_string<char, std::__ndk1::char_traits<char>, std::__ndk1::allocator<char> > >(std::__ndk1::basic_string<char, std::__ndk1::char_traits<char>, std::__ndk1::allocator<char> > const&)
PUBLIC 37dac 0 std::__ndk1::__tree<std::__ndk1::__value_type<std::__ndk1::basic_string<char, std::__ndk1::char_traits<char>, std::__ndk1::allocator<char> >, std::__ndk1::shared_ptr<geode::Hook> >, std::__ndk1::__map_value_compare<std::__ndk1::basic_string<char, std::__ndk1::char_traits<char>, std::__ndk1::allocator<char> >, std::__ndk1::__value_type<std::__ndk1::basic_string<char, std::__ndk1::char_traits<char>, std::__ndk1::allocator<char> >, std::__ndk1::shared_ptr<geode::Hook> >, std::__ndk1::less<std::__ndk1::basic_string<char, std::__ndk1::char_traits<char>, std::__ndk1::allocator<char> > >, true>, std::__ndk1::allocator<std::__ndk1::__value_type<std::__ndk1::basic_string<char, std::__ndk1::char_traits<char>, std::__ndk1::allocator<char> >, std::__ndk1::shared_ptr<geode::Hook> > > >::__emplace_unique_key_args<std::__ndk1::basic_string<char, std::__ndk1::char_traits<char>, std::__ndk1::allocator<char> >, std::__ndk1::piecewise_construct_t const&, std::__ndk1::tuple<std::__ndk1::basic_string<char, std::__ndk1::char_traits<char>, std::__ndk1::allocator<char> > const&>, std::__ndk1::tuple<> >(std::__ndk1::basic_string<char, std::__ndk1::char_traits<char>, std::__ndk1::allocator<char> > const&, std::__ndk1::piecewise_construct_t const&, std::__ndk1::tuple<std::__ndk1::basic_string<char, std::__ndk1::char_traits<char>, std::__ndk1::allocator<char> > const&>, std::__ndk1::tuple<>)
PUBLIC 37f38 0 std::__ndk1::__tree<std::__ndk1::__value_type<std::__ndk1::basic_string<char, std::__ndk1::char_traits<char>, std::__ndk1::allocator<char> >, std::__ndk1::shared_ptr<geode::Hook> >, std::__ndk1::__map_value_compare<std::__ndk1::basic_string<char, std::__ndk1::char_traits<char>, std::__ndk1::allocator<char> >, std::__ndk1::__value_type<std::__ndk1::basic_string<char, std::__ndk1::char_traits<char>, std::__ndk1::allocator<char> >, std::__ndk1::shared_ptr<geode::Hook> >, std::__ndk1::less<std::__ndk1::basic_string<char, std::__ndk1::char_traits<char>, std::__ndk1::allocator<char> > >, true>, std::__ndk1::allocator<std::__ndk1::__value_type<std::__ndk1::basic_string<char, std::__ndk1::char_traits<char>, std::__ndk1::allocator<char> >, std::__ndk1::shared_ptr<geode::Hook> > > >::__find_equal<std::__ndk1::basic_string<char, std::__ndk1::char_traits<char>, std::__ndk1::allocator<char> > >(std::__ndk1::__tree_end_node<std::__ndk1::__tree_node_base<void*>*>*&, std::__ndk1::basic_string<char, std::__ndk1::char_traits<char>, std::__ndk1::allocator<char> > const&)
PUBLIC 3803c 0 std::__throw_bad_array_new_length([abi:v170000], void)
PUBLIC 38070 0 std::__ndk1::basic_string<char, std::__ndk1::char_traits<char>, std::__ndk1::allocator<char> >::__throw_length_error[abi:v170000]() const
PUBLIC 38084 0 std::__ndk1::__throw_length_error[abi:v170000](char const*)
PUBLIC 380d4 0 std::length_error::length_error[abi:v170000](char const*)
PUBLIC 38104 0 std::__ndk1::__tree_balance_after_insert[abi:v170000]<std::__ndk1::__tree_node_base<void*>*>(std::__ndk1::__tree_node_base<void*>*, std::__ndk1::__tree_node_base<void*>*)
PUBLIC 382b8 0 cpp::bitwizeshift::bad_result_access<std::__ndk1::basic_string<char, std::__ndk1::char_traits<char>, std::__ndk1::allocator<char> > >::~bad_result_access()
PUBLIC 382f4 0 cpp::bitwizeshift::bad_result_access<std::__ndk1::basic_string<char, std::__ndk1::char_traits<char>, std::__ndk1::allocator<char> > >::~bad_result_access()
PUBLIC 38338 0 std::__ndk1::vector<std::__ndk1::basic_string<char, std::__ndk1::char_traits<char>, std::__ndk1::allocator<char> >, std::__ndk1::allocator<std::__ndk1::basic_string<char, std::__ndk1::char_traits<char>, std::__ndk1::allocator<char> > > >::__push_back_slow_path<std::__ndk1::basic_string<char, std::__ndk1::char_traits<char>, std::__ndk1::allocator<char> > const&>(std::__ndk1::basic_string<char, std::__ndk1::char_traits<char>, std::__ndk1::allocator<char> > const&)
PUBLIC 385d8 0 std::__ndk1::__split_buffer<std::__ndk1::basic_string<char, std::__ndk1::char_traits<char>, std::__ndk1::allocator<char> >, std::__ndk1::allocator<std::__ndk1::basic_string<char, std::__ndk1::char_traits<char>, std::__ndk1::allocator<char> > >&>::~__split_buffer()
PUBLIC 38640 0 std::__ndk1::vector<std::__ndk1::basic_string<char, std::__ndk1::char_traits<char>, std::__ndk1::allocator<char> >, std::__ndk1::allocator<std::__ndk1::basic_string<char, std::__ndk1::char_traits<char>, std::__ndk1::allocator<char> > > >::__throw_length_error[abi:v170000]() const
PUBLIC 38654 0 std::__ndk1::__tree<std::__ndk1::__value_type<std::__ndk1::basic_string<char, std::__ndk1::char_traits<char>, std::__ndk1::allocator<char> >, std::__ndk1::shared_ptr<geode::Hook> >, std::__ndk1::__map_value_compare<std::__ndk1::basic_string<char, std::__ndk1::char_traits<char>, std::__ndk1::allocator<char> >, std::__ndk1::__value_type<std::__ndk1::basic_string<char, std::__ndk1::char_traits<char>, std::__ndk1::allocator<char> >, std::__ndk1::shared_ptr<geode::Hook> >, std::__ndk1::less<std::__ndk1::basic_string<char, std::__ndk1::char_traits<char>, std::__ndk1::allocator<char> > >, true>, std::__ndk1::allocator<std::__ndk1::__value_type<std::__ndk1::basic_string<char, std::__ndk1::char_traits<char>, std::__ndk1::allocator<char> >, std::__ndk1::shared_ptr<geode::Hook> > > >::erase(std::__ndk1::__tree_const_iterator<std::__ndk1::__value_type<std::__ndk1::basic_string<char, std::__ndk1::char_traits<char>, std::__ndk1::allocator<char> >, std::__ndk1::shared_ptr<geode::Hook> >, std::__ndk1::__tree_node<std::__ndk1::__value_type<std::__ndk1::basic_string<char, std::__ndk1::char_traits<char>, std::__ndk1::allocator<char> >, std::__ndk1::shared_ptr<geode::Hook> >, void*>*, long>)
PUBLIC 38728 0 std::__ndk1::__tree_remove[abi:v170000]<std::__ndk1::__tree_node_base<void*>*>(std::__ndk1::__tree_node_base<void*>*, std::__ndk1::__tree_node_base<void*>*)
PUBLIC 38af4 0 std::__ndk1::__tree<std::__ndk1::__value_type<std::__ndk1::basic_string<char, std::__ndk1::char_traits<char>, std::__ndk1::allocator<char> >, std::__ndk1::shared_ptr<geode::Hook> >, std::__ndk1::__map_value_compare<std::__ndk1::basic_string<char, std::__ndk1::char_traits<char>, std::__ndk1::allocator<char> >, std::__ndk1::__value_type<std::__ndk1::basic_string<char, std::__ndk1::char_traits<char>, std::__ndk1::allocator<char> >, std::__ndk1::shared_ptr<geode::Hook> >, std::__ndk1::less<std::__ndk1::basic_string<char, std::__ndk1::char_traits<char>, std::__ndk1::allocator<char> > >, true>, std::__ndk1::allocator<std::__ndk1::__value_type<std::__ndk1::basic_string<char, std::__ndk1::char_traits<char>, std::__ndk1::allocator<char> >, std::__ndk1::shared_ptr<geode::Hook> > > >::destroy(std::__ndk1::__tree_node<std::__ndk1::__value_type<std::__ndk1::basic_string<char, std::__ndk1::char_traits<char>, std::__ndk1::allocator<char> >, std::__ndk1::shared_ptr<geode::Hook> >, void*>*)
PUBLIC 38b80 0 geode::Hook::create<bool (*)(ChallengeNodeIDs*, GJChallengeItem*, ChallengesPage*, bool)>(void*, bool (*)(ChallengeNodeIDs*, GJChallengeItem*, ChallengesPage*, bool), std::__ndk1::basic_string<char, std::__ndk1::char_traits<char>, std::__ndk1::allocator<char> > const&, tulip::hook::TulipConvention, tulip::hook::HookMetadata const&)
PUBLIC 38c98 0 geode::modifier::AsStaticFunction_init<ChallengeNodeIDs, bool (ChallengeNodeIDs::*)(GJChallengeItem*, ChallengesPage*, bool)>::Impl<bool (ChallengeNodeIDs::*)(GJChallengeItem*, ChallengesPage*, bool)>::function(ChallengeNodeIDs*, GJChallengeItem*, ChallengesPage*, bool)
PUBLIC 38cec 0 tulip::hook::AbstractFunction::from<bool, ChallengeNodeIDs*, GJChallengeItem*, ChallengesPage*, bool>(bool (*)(ChallengeNodeIDs*, GJChallengeItem*, ChallengesPage*, bool))
PUBLIC 38f8c 0 std::__ndk1::shared_ptr<tulip::hook::CallingConvention>::~shared_ptr[abi:v170000]()
PUBLIC 38fdc 0 tulip::hook::HandlerMetadata::~HandlerMetadata()
PUBLIC 39040 0 std::__ndk1::vector<tulip::hook::AbstractType, std::__ndk1::allocator<tulip::hook::AbstractType> >::__throw_length_error[abi:v170000]() const
PUBLIC 39054 0 geode::NodeIDs::provide<ChallengeNodeIDs>(ChallengeNodeIDs*) const
PUBLIC 39184 0 std::__ndk1::__hash_table<std::__ndk1::__hash_value_type<std::__ndk1::basic_string<char, std::__ndk1::char_traits<char>, std::__ndk1::allocator<char> >, void (*)(cocos2d::CCNode*)>, std::__ndk1::__unordered_map_hasher<std::__ndk1::basic_string<char, std::__ndk1::char_traits<char>, std::__ndk1::allocator<char> >, std::__ndk1::__hash_value_type<std::__ndk1::basic_string<char, std::__ndk1::char_traits<char>, std::__ndk1::allocator<char> >, void (*)(cocos2d::CCNode*)>, std::__ndk1::hash<std::__ndk1::basic_string<char, std::__ndk1::char_traits<char>, std::__ndk1::allocator<char> > >, std::__ndk1::equal_to<std::__ndk1::basic_string<char, std::__ndk1::char_traits<char>, std::__ndk1::allocator<char> > >, true>, std::__ndk1::__unordered_map_equal<std::__ndk1::basic_string<char, std::__ndk1::char_traits<char>, std::__ndk1::allocator<char> >, std::__ndk1::__hash_value_type<std::__ndk1::basic_string<char, std::__ndk1::char_traits<char>, std::__ndk1::allocator<char> >, void (*)(cocos2d::CCNode*)>, std::__ndk1::equal_to<std::__ndk1::basic_string<char, std::__ndk1::char_traits<char>, std::__ndk1::allocator<char> > >, std::__ndk1::hash<std::__ndk1::basic_string<char, std::__ndk1::char_traits<char>, std::__ndk1::allocator<char> > >, true>, std::__ndk1::allocator<std::__ndk1::__hash_value_type<std::__ndk1::basic_string<char, std::__ndk1::char_traits<char>, std::__ndk1::allocator<char> >, void (*)(cocos2d::CCNode*)> > >::find<std::__ndk1::basic_string<char, std::__ndk1::char_traits<char>, std::__ndk1::allocator<char> > >(std::__ndk1::basic_string<char, std::__ndk1::char_traits<char>, std::__ndk1::allocator<char> > const&) const
PUBLIC 393cc 0 std::__ndk1::__murmur2_or_cityhash<unsigned long, (unsigned long)64>::operator()(void const*, unsigned long)
PUBLIC 39884 0 std::__ndk1::__throw_out_of_range[abi:v170000](char const*)
PUBLIC 398d4 0 std::out_of_range::out_of_range[abi:v170000](char const*)
PUBLIC 39904 0 geode::modifier::FieldIntermediate<ChallengeNodeIDs, ChallengeNode>::operator ChallengeNodeIDs*()
PUBLIC 39ae4 0 geode::modifier::FieldContainer::getField(unsigned long)
PUBLIC 39d48 0 geode::modifier::FieldContainer::setField(unsigned long, unsigned long, geode::utils::MiniFunction<void (void*)>)
PUBLIC 39df4 0 geode::modifier::FieldIntermediate<ChallengeNodeIDs, ChallengeNode>::fieldDestructor(void*)
PUBLIC 39ebc 0 std::__ndk1::vector<void*, std::__ndk1::allocator<void*> >::__throw_length_error[abi:v170000]() const
PUBLIC 39ed0 0 std::__ndk1::vector<geode::utils::MiniFunction<void (void*)>, std::__ndk1::allocator<geode::utils::MiniFunction<void (void*)> > >::__push_back_slow_path<geode::utils::MiniFunction<void (void*)> >(geode::utils::MiniFunction<void (void*)>&&)
PUBLIC 3a100 0 std::__ndk1::__split_buffer<geode::utils::MiniFunction<void (void*)>, std::__ndk1::allocator<geode::utils::MiniFunction<void (void*)> >&>::~__split_buffer()
PUBLIC 3a15c 0 std::__ndk1::vector<geode::utils::MiniFunction<void (void*)>, std::__ndk1::allocator<geode::utils::MiniFunction<void (void*)> > >::__throw_length_error[abi:v170000]() const
PUBLIC 3a170 0 std::__ndk1::vector<void*, std::__ndk1::allocator<void*> >::__throw_out_of_range[abi:v170000]() const
PUBLIC 3a184 0 std::__ndk1::vector<geode::utils::MiniFunction<void (void*)>, std::__ndk1::allocator<geode::utils::MiniFunction<void (void*)> > >::__throw_out_of_range[abi:v170000]() const
PUBLIC 3a198 0 cocos2d::CCCopying::copyWithZone(cocos2d::CCZone*)
PUBLIC 3a1a0 0 geode::Modify<ChallengeNodeIDs, ChallengeNode>::~Modify()
PUBLIC 3a1e0 0 geode::Modify<ChallengeNodeIDs, ChallengeNode>::~Modify()
PUBLIC 3a224 0 geode::utils::MiniFunctionStateBase<void, void*>::~MiniFunctionStateBase()
PUBLIC 3a228 0 geode::utils::MiniFunctionState<void (*)(void*), void, void*>::~MiniFunctionState()
PUBLIC 3a22c 0 geode::utils::MiniFunctionState<void (*)(void*), void, void*>::call(void*) const
PUBLIC 3a238 0 geode::utils::MiniFunctionState<void (*)(void*), void, void*>::clone() const
PUBLIC 3a26c 0 geode::geodeInternalProvideIDsFor<ProvideIDsForChallengeNode>(ProvideIDsForChallengeNode*)
PUBLIC 3a440 0 std::__ndk1::__hash_table<std::__ndk1::__hash_value_type<std::__ndk1::basic_string<char, std::__ndk1::char_traits<char>, std::__ndk1::allocator<char> >, void (*)(cocos2d::CCNode*)>, std::__ndk1::__unordered_map_hasher<std::__ndk1::basic_string<char, std::__ndk1::char_traits<char>, std::__ndk1::allocator<char> >, std::__ndk1::__hash_value_type<std::__ndk1::basic_string<char, std::__ndk1::char_traits<char>, std::__ndk1::allocator<char> >, void (*)(cocos2d::CCNode*)>, std::__ndk1::hash<std::__ndk1::basic_string<char, std::__ndk1::char_traits<char>, std::__ndk1::allocator<char> > >, std::__ndk1::equal_to<std::__ndk1::basic_string<char, std::__ndk1::char_traits<char>, std::__ndk1::allocator<char> > >, true>, std::__ndk1::__unordered_map_equal<std::__ndk1::basic_string<char, std::__ndk1::char_traits<char>, std::__ndk1::allocator<char> >, std::__ndk1::__hash_value_type<std::__ndk1::basic_string<char, std::__ndk1::char_traits<char>, std::__ndk1::allocator<char> >, void (*)(cocos2d::CCNode*)>, std::__ndk1::equal_to<std::__ndk1::basic_string<char, std::__ndk1::char_traits<char>, std::__ndk1::allocator<char> > >, std::__ndk1::hash<std::__ndk1::basic_string<char, std::__ndk1::char_traits<char>, std::__ndk1::allocator<char> > >, true>, std::__ndk1::allocator<std::__ndk1::__hash_value_type<std::__ndk1::basic_string<char, std::__ndk1::char_traits<char>, std::__ndk1::allocator<char> >, void (*)(cocos2d::CCNode*)> > >::__emplace_unique_key_args<std::__ndk1::basic_string<char, std::__ndk1::char_traits<char>, std::__ndk1::allocator<char> >, std::__ndk1::pair<std::__ndk1::basic_string<char, std::__ndk1::char_traits<char>, std::__ndk1::allocator<char> > const, void (*)(cocos2d::CCNode*)> >(std::__ndk1::basic_string<char, std::__ndk1::char_traits<char>, std::__ndk1::allocator<char> > const&, std::__ndk1::pair<std::__ndk1::basic_string<char, std::__ndk1::char_traits<char>, std::__ndk1::allocator<char> > const, void (*)(cocos2d::CCNode*)>&&)
PUBLIC 3a94c 0 std::__ndk1::unique_ptr<std::__ndk1::__hash_node<std::__ndk1::__hash_value_type<std::__ndk1::basic_string<char, std::__ndk1::char_traits<char>, std::__ndk1::allocator<char> >, void (*)(cocos2d::CCNode*)>, void*>, std::__ndk1::__hash_node_destructor<std::__ndk1::allocator<std::__ndk1::__hash_node<std::__ndk1::__hash_value_type<std::__ndk1::basic_string<char, std::__ndk1::char_traits<char>, std::__ndk1::allocator<char> >, void (*)(cocos2d::CCNode*)>, void*> > > >::~unique_ptr[abi:v170000]()
PUBLIC 3a998 0 std::__ndk1::__hash_table<std::__ndk1::__hash_value_type<std::__ndk1::basic_string<char, std::__ndk1::char_traits<char>, std::__ndk1::allocator<char> >, void (*)(cocos2d::CCNode*)>, std::__ndk1::__unordered_map_hasher<std::__ndk1::basic_string<char, std::__ndk1::char_traits<char>, std::__ndk1::allocator<char> >, std::__ndk1::__hash_value_type<std::__ndk1::basic_string<char, std::__ndk1::char_traits<char>, std::__ndk1::allocator<char> >, void (*)(cocos2d::CCNode*)>, std::__ndk1::hash<std::__ndk1::basic_string<char, std::__ndk1::char_traits<char>, std::__ndk1::allocator<char> > >, std::__ndk1::equal_to<std::__ndk1::basic_string<char, std::__ndk1::char_traits<char>, std::__ndk1::allocator<char> > >, true>, std::__ndk1::__unordered_map_equal<std::__ndk1::basic_string<char, std::__ndk1::char_traits<char>, std::__ndk1::allocator<char> >, std::__ndk1::__hash_value_type<std::__ndk1::basic_string<char, std::__ndk1::char_traits<char>, std::__ndk1::allocator<char> >, void (*)(cocos2d::CCNode*)>, std::__ndk1::equal_to<std::__ndk1::basic_string<char, std::__ndk1::char_traits<char>, std::__ndk1::allocator<char> > >, std::__ndk1::hash<std::__ndk1::basic_string<char, std::__ndk1::char_traits<char>, std::__ndk1::allocator<char> > >, true>, std::__ndk1::allocator<std::__ndk1::__hash_value_type<std::__ndk1::basic_string<char, std::__ndk1::char_traits<char>, std::__ndk1::allocator<char> >, void (*)(cocos2d::CCNode*)> > >::__do_rehash<true>(unsigned long)
PUBLIC 3ab70 0 geode::AEnterLayerEvent::~AEnterLayerEvent()
PUBLIC 3abac 0 geode::EnterLayerEvent<ProvideIDsForChallengeNode>::~EnterLayerEvent()
PUBLIC 3abf0 0 geode::AEnterLayerEvent::~AEnterLayerEvent()
PUBLIC 3ac34 0 _GLOBAL__sub_I_ChallengeNode.cpp
PUBLIC 3acf0 0 ProvideIDsForChallengesPage::provide()
PUBLIC 3b2c8 0 geode::node_ids::setIDSafe<cocos2d::extension::CCScale9Sprite>(cocos2d::CCNode*, int, char const*)
PUBLIC 3b4f8 0 geode::node_ids::setIDSafe<LoadingCircle>(cocos2d::CCNode*, int, char const*)
PUBLIC 3b728 0 geode::node_ids::detachAndCreateMenu<cocos2d::CCNode*, >(cocos2d::CCNode*, char const*, cocos2d::Layout*, cocos2d::CCNode*, )
PUBLIC 3ba30 0 geode::node_ids::setIDSafe<cocos2d::CCLabelBMFont>(cocos2d::CCNode*, int, char const*)
PUBLIC 3bc60 0 __cxx_global_var_init.17
PUBLIC 3bcc8 0 geode::modifier::ModifyBase<geode::modifier::ModifyDerive<ChallengesPageIDs, ChallengesPage> >::~ModifyBase()
PUBLIC 3bce4 0 geode::geodeInternalProvideIDsFor<ProvideIDsForChallengesPage>(ProvideIDsForChallengesPage*)
PUBLIC 3beb8 0 geode::EnterLayerEvent<ProvideIDsForChallengesPage>::~EnterLayerEvent()
PUBLIC 3befc 0 geode::cast::traverseTypeinfoFor(void*, geode::cast::ClassTypeinfoType const*, char const*)
PUBLIC 3bffc 0 geode::modifier::ModifyBase<geode::modifier::ModifyDerive<ChallengesPageIDs, ChallengesPage> >::ModifyBase()
PUBLIC 3c494 0 geode::modifier::ModifyDerive<ChallengesPageIDs, ChallengesPage>::apply()
PUBLIC 3c9a8 0 ChallengesPageIDs::onModify<geode::modifier::ModifyBase<geode::modifier::ModifyDerive<ChallengesPageIDs, ChallengesPage> > >(geode::modifier::ModifyBase<geode::modifier::ModifyDerive<ChallengesPageIDs, ChallengesPage> >&)
PUBLIC 3cb60 0 geode::modifier::ModifyBase<geode::modifier::ModifyDerive<ChallengesPageIDs, ChallengesPage> >::apply()
PUBLIC 3cb64 0 geode::modifier::ModifyBase<geode::modifier::ModifyDerive<ChallengesPageIDs, ChallengesPage> >::setHookPriority(std::__ndk1::basic_string<char, std::__ndk1::char_traits<char>, std::__ndk1::allocator<char> > const&, int)
PUBLIC 3cd20 0 geode::Hook::create<ChallengeNode* (*)(ChallengesPageIDs*, int, bool, float, bool)>(void*, ChallengeNode* (*)(ChallengesPageIDs*, int, bool, float, bool), std::__ndk1::basic_string<char, std::__ndk1::char_traits<char>, std::__ndk1::allocator<char> > const&, tulip::hook::TulipConvention, tulip::hook::HookMetadata const&)
PUBLIC 3ce38 0 geode::modifier::AsStaticFunction_createChallengeNode<ChallengesPageIDs, ChallengeNode* (ChallengesPageIDs::*)(int, bool, float, bool)>::Impl<ChallengeNode* (ChallengesPageIDs::*)(int, bool, float, bool)>::function(ChallengesPageIDs*, int, bool, float, bool)
PUBLIC 3ce3c 0 geode::Hook::create<bool (*)(ChallengesPageIDs*)>(void*, bool (*)(ChallengesPageIDs*), std::__ndk1::basic_string<char, std::__ndk1::char_traits<char>, std::__ndk1::allocator<char> > const&, tulip::hook::TulipConvention, tulip::hook::HookMetadata const&)
PUBLIC 3cf70 0 geode::modifier::AsStaticFunction_init<ChallengesPageIDs, bool (ChallengesPageIDs::*)()>::Impl<bool (ChallengesPageIDs::*)()>::function(ChallengesPageIDs*)
PUBLIC 3cfa8 0 tulip::hook::AbstractFunction::from<ChallengeNode*, ChallengesPageIDs*, int, bool, float, bool>(ChallengeNode* (*)(ChallengesPageIDs*, int, bool, float, bool))
PUBLIC 3d330 0 ChallengesPageIDs::createChallengeNode(int, bool, float, bool)
PUBLIC 3d4bc 0 geode::addresser::Addresser::addressOfVirtual<bool, ChallengesPage, >(bool (ChallengesPage::*)())
PUBLIC 3d5ec 0 geode::NodeIDs::provide<ChallengesPageIDs>(ChallengesPageIDs*) const
PUBLIC 3d71c 0 _GLOBAL__sub_I_ChallengesPage.cpp
PUBLIC 3d7d8 0 ProvideIDsForCommentCell::provide()
PUBLIC 3ddf8 0 geode::cocos::getChildOfType<cocos2d::CCLabelBMFont>(cocos2d::CCNode*, int)
PUBLIC 3df3c 0 __cxx_global_var_init.13
PUBLIC 3dfa4 0 geode::modifier::ModifyBase<geode::modifier::ModifyDerive<CommentCellIDs, CommentCell> >::~ModifyBase()
PUBLIC 3dfc0 0 geode::geodeInternalProvideIDsFor<ProvideIDsForCommentCell>(ProvideIDsForCommentCell*)
PUBLIC 3e1a0 0 geode::EnterLayerEvent<ProvideIDsForCommentCell>::~EnterLayerEvent()
PUBLIC 3e1e4 0 geode::modifier::ModifyBase<geode::modifier::ModifyDerive<CommentCellIDs, CommentCell> >::ModifyBase()
PUBLIC 3e67c 0 geode::modifier::ModifyDerive<CommentCellIDs, CommentCell>::apply()
PUBLIC 3e960 0 CommentCellIDs::onModify<geode::modifier::ModifyBase<geode::modifier::ModifyDerive<CommentCellIDs, CommentCell> > >(geode::modifier::ModifyBase<geode::modifier::ModifyDerive<CommentCellIDs, CommentCell> >&)
PUBLIC 3ea80 0 geode::modifier::ModifyBase<geode::modifier::ModifyDerive<CommentCellIDs, CommentCell> >::apply()
PUBLIC 3ea84 0 geode::modifier::ModifyBase<geode::modifier::ModifyDerive<CommentCellIDs, CommentCell> >::setHookPriority(std::__ndk1::basic_string<char, std::__ndk1::char_traits<char>, std::__ndk1::allocator<char> > const&, int)
PUBLIC 3ec40 0 geode::Hook::create<void (*)(CommentCellIDs*, GJComment*)>(void*, void (*)(CommentCellIDs*, GJComment*), std::__ndk1::basic_string<char, std::__ndk1::char_traits<char>, std::__ndk1::allocator<char> > const&, tulip::hook::TulipConvention, tulip::hook::HookMetadata const&)
PUBLIC 3edc0 0 geode::modifier::AsStaticFunction_loadFromComment<CommentCellIDs, void (CommentCellIDs::*)(GJComment*)>::Impl<void (CommentCellIDs::*)(GJComment*)>::function(CommentCellIDs*, GJComment*)
PUBLIC 3edc4 0 CommentCellIDs::loadFromComment(GJComment*)
PUBLIC 3ee64 0 geode::NodeIDs::provide<CommentCellIDs>(CommentCellIDs*) const
PUBLIC 3efa0 0 _GLOBAL__sub_I_CommentCell.cpp
PUBLIC 3f060 0 ProvideIDsForCreatorLayer::provide()
PUBLIC 3f914 0 geode::node_ids::setIDSafe<cocos2d::CCSprite>(cocos2d::CCNode*, int, char const*)
PUBLIC 3fb44 0 geode::node_ids::detachAndCreateMenu<cocos2d::CCNode*, >(cocos2d::CCNode*, char const*, cocos2d::Layout*, cocos2d::CCNode*, )
PUBLIC 3fd84 0 __cxx_global_var_init.26
PUBLIC 3fdec 0 geode::modifier::ModifyBase<geode::modifier::ModifyDerive<CreatorLayerIDs, CreatorLayer> >::~ModifyBase()
PUBLIC 3fe08 0 geode::geodeInternalProvideIDsFor<ProvideIDsForCreatorLayer>(ProvideIDsForCreatorLayer*)
PUBLIC 3ffe0 0 geode::EnterLayerEvent<ProvideIDsForCreatorLayer>::~EnterLayerEvent()
PUBLIC 40024 0 geode::modifier::ModifyBase<geode::modifier::ModifyDerive<CreatorLayerIDs, CreatorLayer> >::ModifyBase()
PUBLIC 404bc 0 geode::modifier::ModifyDerive<CreatorLayerIDs, CreatorLayer>::apply()
PUBLIC 40774 0 CreatorLayerIDs::onModify<geode::modifier::ModifyBase<geode::modifier::ModifyDerive<CreatorLayerIDs, CreatorLayer> > >(geode::modifier::ModifyBase<geode::modifier::ModifyDerive<CreatorLayerIDs, CreatorLayer> >&)
PUBLIC 4087c 0 geode::modifier::ModifyBase<geode::modifier::ModifyDerive<CreatorLayerIDs, CreatorLayer> >::apply()
PUBLIC 40880 0 geode::modifier::ModifyBase<geode::modifier::ModifyDerive<CreatorLayerIDs, CreatorLayer> >::setHookPriority(std::__ndk1::basic_string<char, std::__ndk1::char_traits<char>, std::__ndk1::allocator<char> > const&, int)
PUBLIC 40a3c 0 geode::Hook::create<bool (*)(CreatorLayerIDs*)>(void*, bool (*)(CreatorLayerIDs*), std::__ndk1::basic_string<char, std::__ndk1::char_traits<char>, std::__ndk1::allocator<char> > const&, tulip::hook::TulipConvention, tulip::hook::HookMetadata const&)
PUBLIC 40b70 0 geode::modifier::AsStaticFunction_init<CreatorLayerIDs, bool (CreatorLayerIDs::*)()>::Impl<bool (CreatorLayerIDs::*)()>::function(CreatorLayerIDs*)
PUBLIC 40ba8 0 geode::addresser::Addresser::addressOfVirtual<bool, CreatorLayer, >(bool (CreatorLayer::*)())
PUBLIC 40d04 0 geode::NodeIDs::provide<CreatorLayerIDs>(CreatorLayerIDs*) const
PUBLIC 40e40 0 _GLOBAL__sub_I_CreatorLayer.cpp
PUBLIC 40f00 0 ProvideIDsForCustomizeObjectLayer::provide()
PUBLIC 42c0c 0 geode::node_ids::setIDs<char const*, char const*, char const*, char const*, char const*, char const*, char const*, char const*, char const*, char const*, char const*, char const*, char const*, char const*, char const*, char const*, char const*, char const*, char const*, char const*, char const*, char const*, char const*, char const*, char const*>(cocos2d::CCNode*, int, char const*, char const*, char const*, char const*, char const*, char const*, char const*, char const*, char const*, char const*, char const*, char const*, char const*, char const*, char const*, char const*, char const*, char const*, char const*, char const*, char const*, char const*, char const*, char const*, char const*)
PUBLIC 42e58 0 geode::node_ids::detachAndCreateMenu<cocos2d::CCNode*, cocos2d::CCNode*>(cocos2d::CCNode*, char const*, cocos2d::Layout*, cocos2d::CCNode*, cocos2d::CCNode*)
PUBLIC 431a0 0 geode::node_ids::detachAndCreateMenu<cocos2d::CCNode*, >(cocos2d::CCNode*, char const*, cocos2d::Layout*, cocos2d::CCNode*, )
PUBLIC 434a8 0 __cxx_global_var_init.57
PUBLIC 43510 0 geode::modifier::ModifyBase<geode::modifier::ModifyDerive<CustomizeObjectLayerIDs, CustomizeObjectLayer> >::~ModifyBase()
PUBLIC 4352c 0 geode::geodeInternalProvideIDsFor<ProvideIDsForCustomizeObjectLayer>(ProvideIDsForCustomizeObjectLayer*)
PUBLIC 43720 0 geode::EnterLayerEvent<ProvideIDsForCustomizeObjectLayer>::~EnterLayerEvent()
PUBLIC 43764 0 geode::node_ids::switchToMenu(cocos2d::CCNode*, cocos2d::CCNode*)
PUBLIC 4387c 0 geode::modifier::ModifyBase<geode::modifier::ModifyDerive<CustomizeObjectLayerIDs, CustomizeObjectLayer> >::ModifyBase()
PUBLIC 43d14 0 geode::modifier::ModifyDerive<CustomizeObjectLayerIDs, CustomizeObjectLayer>::apply()
PUBLIC 4424c 0 CustomizeObjectLayerIDs::onModify<geode::modifier::ModifyBase<geode::modifier::ModifyDerive<CustomizeObjectLayerIDs, CustomizeObjectLayer> > >(geode::modifier::ModifyBase<geode::modifier::ModifyDerive<CustomizeObjectLayerIDs, CustomizeObjectLayer> >&)
PUBLIC 4436c 0 geode::modifier::ModifyBase<geode::modifier::ModifyDerive<CustomizeObjectLayerIDs, CustomizeObjectLayer> >::apply()
PUBLIC 44370 0 geode::modifier::ModifyBase<geode::modifier::ModifyDerive<CustomizeObjectLayerIDs, CustomizeObjectLayer> >::setHookPriority(std::__ndk1::basic_string<char, std::__ndk1::char_traits<char>, std::__ndk1::allocator<char> > const&, int)
PUBLIC 4452c 0 geode::Hook::create<bool (*)(CustomizeObjectLayerIDs*, GameObject*, cocos2d::CCArray*)>(void*, bool (*)(CustomizeObjectLayerIDs*, GameObject*, cocos2d::CCArray*), std::__ndk1::basic_string<char, std::__ndk1::char_traits<char>, std::__ndk1::allocator<char> > const&, tulip::hook::TulipConvention, tulip::hook::HookMetadata const&)
PUBLIC 44644 0 geode::modifier::AsStaticFunction_init<CustomizeObjectLayerIDs, bool (CustomizeObjectLayerIDs::*)(GameObject*, cocos2d::CCArray*)>::Impl<bool (CustomizeObjectLayerIDs::*)(GameObject*, cocos2d::CCArray*)>::function(CustomizeObjectLayerIDs*, GameObject*, cocos2d::CCArray*)
PUBLIC 44690 0 geode::Hook::create<void (*)(CustomizeObjectLayerIDs*)>(void*, void (*)(CustomizeObjectLayerIDs*), std::__ndk1::basic_string<char, std::__ndk1::char_traits<char>, std::__ndk1::allocator<char> > const&, tulip::hook::TulipConvention, tulip::hook::HookMetadata const&)
PUBLIC 447c4 0 geode::modifier::AsStaticFunction_toggleVisible<CustomizeObjectLayerIDs, void (CustomizeObjectLayerIDs::*)()>::Impl<void (CustomizeObjectLayerIDs::*)()>::function(CustomizeObjectLayerIDs*)
PUBLIC 447c8 0 tulip::hook::AbstractFunction::from<bool, CustomizeObjectLayerIDs*, GameObject*, cocos2d::CCArray*>(bool (*)(CustomizeObjectLayerIDs*, GameObject*, cocos2d::CCArray*))
PUBLIC 44984 0 geode::NodeIDs::provide<CustomizeObjectLayerIDs>(CustomizeObjectLayerIDs*) const
PUBLIC 44ac0 0 CustomizeObjectLayerIDs::toggleVisible()
PUBLIC 44bcc 0 CustomizeObjectLayerIDs::toggleMenuIf(char const*, int)
PUBLIC 44d18 0 CustomizeObjectLayerIDs::toggleMenuIfNot(char const*, int)
PUBLIC 44e64 0 _GLOBAL__sub_I_CustomizeObjectLayer.cpp
PUBLIC 44f24 0 ProvideIDsForDailyLevelNode::provide()
PUBLIC 45830 0 __cxx_global_var_init.11
PUBLIC 45898 0 geode::modifier::ModifyBase<geode::modifier::ModifyDerive<DailyLevelNodeIDs, DailyLevelNode> >::~ModifyBase()
PUBLIC 458b4 0 geode::modifier::ModifyBase<geode::modifier::ModifyDerive<DailyLevelNodeIDs, DailyLevelNode> >::ModifyBase()
PUBLIC 45d4c 0 geode::modifier::ModifyDerive<DailyLevelNodeIDs, DailyLevelNode>::apply()
PUBLIC 4600c 0 DailyLevelNodeIDs::onModify<geode::modifier::ModifyBase<geode::modifier::ModifyDerive<DailyLevelNodeIDs, DailyLevelNode> > >(geode::modifier::ModifyBase<geode::modifier::ModifyDerive<DailyLevelNodeIDs, DailyLevelNode> >&)
PUBLIC 46118 0 geode::modifier::ModifyBase<geode::modifier::ModifyDerive<DailyLevelNodeIDs, DailyLevelNode> >::apply()
PUBLIC 4611c 0 geode::modifier::ModifyBase<geode::modifier::ModifyDerive<DailyLevelNodeIDs, DailyLevelNode> >::setHookPriority(std::__ndk1::basic_string<char, std::__ndk1::char_traits<char>, std::__ndk1::allocator<char> > const&, int)
PUBLIC 462d8 0 geode::Hook::create<bool (*)(DailyLevelNodeIDs*, GJGameLevel*, DailyLevelPage*, bool)>(void*, bool (*)(DailyLevelNodeIDs*, GJGameLevel*, DailyLevelPage*, bool), std::__ndk1::basic_string<char, std::__ndk1::char_traits<char>, std::__ndk1::allocator<char> > const&, tulip::hook::TulipConvention, tulip::hook::HookMetadata const&)
PUBLIC 463f0 0 geode::modifier::AsStaticFunction_init<DailyLevelNodeIDs, bool (DailyLevelNodeIDs::*)(GJGameLevel*, DailyLevelPage*, bool)>::Impl<bool (DailyLevelNodeIDs::*)(GJGameLevel*, DailyLevelPage*, bool)>::function(DailyLevelNodeIDs*, GJGameLevel*, DailyLevelPage*, bool)
PUBLIC 46444 0 tulip::hook::AbstractFunction::from<bool, DailyLevelNodeIDs*, GJGameLevel*, DailyLevelPage*, bool>(bool (*)(DailyLevelNodeIDs*, GJGameLevel*, DailyLevelPage*, bool))
PUBLIC 466e4 0 geode::NodeIDs::provide<DailyLevelNodeIDs>(DailyLevelNodeIDs*) const
PUBLIC 46814 0 geode::modifier::FieldIntermediate<DailyLevelNodeIDs, DailyLevelNode>::operator DailyLevelNodeIDs*()
PUBLIC 469f8 0 geode::modifier::FieldIntermediate<DailyLevelNodeIDs, DailyLevelNode>::fieldDestructor(void*)
PUBLIC 46abc 0 geode::Modify<DailyLevelNodeIDs, DailyLevelNode>::~Modify()
PUBLIC 46b04 0 geode::Modify<DailyLevelNodeIDs, DailyLevelNode>::~Modify()
PUBLIC 46b50 0 geode::geodeInternalProvideIDsFor<ProvideIDsForDailyLevelNode>(ProvideIDsForDailyLevelNode*)
PUBLIC 46d24 0 geode::EnterLayerEvent<ProvideIDsForDailyLevelNode>::~EnterLayerEvent()
PUBLIC 46d68 0 _GLOBAL__sub_I_DailyLevelNode.cpp
PUBLIC 46e24 0 ProvideIDsForDailyLevelPage::provide()
PUBLIC 4779c 0 __cxx_global_var_init.12
PUBLIC 47804 0 geode::modifier::ModifyBase<geode::modifier::ModifyDerive<DailyLevelPageIDs, DailyLevelPage> >::~ModifyBase()
PUBLIC 47820 0 geode::geodeInternalProvideIDsFor<ProvideIDsForDailyLevelPage>(ProvideIDsForDailyLevelPage*)
PUBLIC 479f4 0 geode::EnterLayerEvent<ProvideIDsForDailyLevelPage>::~EnterLayerEvent()
PUBLIC 47a38 0 geode::modifier::ModifyBase<geode::modifier::ModifyDerive<DailyLevelPageIDs, DailyLevelPage> >::ModifyBase()
PUBLIC 47ed0 0 geode::modifier::ModifyDerive<DailyLevelPageIDs, DailyLevelPage>::apply()
PUBLIC 48190 0 DailyLevelPageIDs::onModify<geode::modifier::ModifyBase<geode::modifier::ModifyDerive<DailyLevelPageIDs, DailyLevelPage> > >(geode::modifier::ModifyBase<geode::modifier::ModifyDerive<DailyLevelPageIDs, DailyLevelPage> >&)
PUBLIC 4829c 0 geode::modifier::ModifyBase<geode::modifier::ModifyDerive<DailyLevelPageIDs, DailyLevelPage> >::apply()
PUBLIC 482a0 0 geode::modifier::ModifyBase<geode::modifier::ModifyDerive<DailyLevelPageIDs, DailyLevelPage> >::setHookPriority(std::__ndk1::basic_string<char, std::__ndk1::char_traits<char>, std::__ndk1::allocator<char> > const&, int)
PUBLIC 4845c 0 geode::Hook::create<bool (*)(DailyLevelPageIDs*, GJTimedLevelType)>(void*, bool (*)(DailyLevelPageIDs*, GJTimedLevelType), std::__ndk1::basic_string<char, std::__ndk1::char_traits<char>, std::__ndk1::allocator<char> > const&, tulip::hook::TulipConvention, tulip::hook::HookMetadata const&)
PUBLIC 485dc 0 geode::modifier::AsStaticFunction_init<DailyLevelPageIDs, bool (DailyLevelPageIDs::*)(GJTimedLevelType)>::Impl<bool (DailyLevelPageIDs::*)(GJTimedLevelType)>::function(DailyLevelPageIDs*, GJTimedLevelType)
PUBLIC 48614 0 geode::NodeIDs::provide<DailyLevelPageIDs>(DailyLevelPageIDs*) const
PUBLIC 48744 0 _GLOBAL__sub_I_DailyLevelPage.cpp
PUBLIC 48800 0 ProvideIDsForEditLevelLayer::provide()
PUBLIC 49174 0 geode::node_ids::setIDs<char const*, char const*, char const*, char const*, char const*, char const*, char const*, char const*, char const*, char const*, char const*, char const*, char const*, char const*, char const*, char const*>(cocos2d::CCNode*, int, char const*, char const*, char const*, char const*, char const*, char const*, char const*, char const*, char const*, char const*, char const*, char const*, char const*, char const*, char const*, char const*)
PUBLIC 492f8 0 __cxx_global_var_init.32
PUBLIC 49360 0 geode::modifier::ModifyBase<geode::modifier::ModifyDerive<EditLevelLayerIDs, EditLevelLayer> >::~ModifyBase()
PUBLIC 4937c 0 geode::geodeInternalProvideIDsFor<ProvideIDsForEditLevelLayer>(ProvideIDsForEditLevelLayer*)
PUBLIC 49550 0 geode::EnterLayerEvent<ProvideIDsForEditLevelLayer>::~EnterLayerEvent()
PUBLIC 49594 0 geode::modifier::ModifyBase<geode::modifier::ModifyDerive<EditLevelLayerIDs, EditLevelLayer> >::ModifyBase()
PUBLIC 49a2c 0 geode::modifier::ModifyDerive<EditLevelLayerIDs, EditLevelLayer>::apply()
PUBLIC 49cec 0 EditLevelLayerIDs::onModify<geode::modifier::ModifyBase<geode::modifier::ModifyDerive<EditLevelLayerIDs, EditLevelLayer> > >(geode::modifier::ModifyBase<geode::modifier::ModifyDerive<EditLevelLayerIDs, EditLevelLayer> >&)
PUBLIC 49df8 0 geode::modifier::ModifyBase<geode::modifier::ModifyDerive<EditLevelLayerIDs, EditLevelLayer> >::apply()
PUBLIC 49dfc 0 geode::modifier::ModifyBase<geode::modifier::ModifyDerive<EditLevelLayerIDs, EditLevelLayer> >::setHookPriority(std::__ndk1::basic_string<char, std::__ndk1::char_traits<char>, std::__ndk1::allocator<char> > const&, int)
PUBLIC 49fb8 0 geode::Hook::create<bool (*)(EditLevelLayerIDs*, GJGameLevel*)>(void*, bool (*)(EditLevelLayerIDs*, GJGameLevel*), std::__ndk1::basic_string<char, std::__ndk1::char_traits<char>, std::__ndk1::allocator<char> > const&, tulip::hook::TulipConvention, tulip::hook::HookMetadata const&)
PUBLIC 4a138 0 geode::modifier::AsStaticFunction_init<EditLevelLayerIDs, bool (EditLevelLayerIDs::*)(GJGameLevel*)>::Impl<bool (EditLevelLayerIDs::*)(GJGameLevel*)>::function(EditLevelLayerIDs*, GJGameLevel*)
PUBLIC 4a170 0 geode::NodeIDs::provide<EditLevelLayerIDs>(EditLevelLayerIDs*) const
PUBLIC 4a2a0 0 _GLOBAL__sub_I_EditLevelLayer.cpp
PUBLIC 4a35c 0 ProvideIDsForEditorPauseLayer::provide()
PUBLIC 4cb3c 0 geode::node_ids::setIDs<char const*, char const*, char const*, char const*, char const*, char const*, char const*, char const*, char const*, char const*, char const*, char const*, char const*, char const*>(cocos2d::CCNode*, int, char const*, char const*, char const*, char const*, char const*, char const*, char const*, char const*, char const*, char const*, char const*, char const*, char const*, char const*)
PUBLIC 4cc90 0 geode::node_ids::setIDs<char const*, char const*, char const*, char const*, char const*, char const*, char const*, char const*, char const*, char const*, char const*, char const*, char const*, char const*, char const*, char const*, char const*, char const*, char const*, char const*, char const*, char const*, char const*, char const*, char const*, char const*, char const*, char const*, char const*, char const*, char const*, char const*>(cocos2d::CCNode*, int, char const*, char const*, char const*, char const*, char const*, char const*, char const*, char const*, char const*, char const*, char const*, char const*, char const*, char const*, char const*, char const*, char const*, char const*, char const*, char const*, char const*, char const*, char const*, char const*, char const*, char const*, char const*, char const*, char const*, char const*, char const*, char const*)
PUBLIC 4cf6c 0 geode::cocos::CCArrayExt<cocos2d::CCNode*>::~CCArrayExt()
PUBLIC 4cf8c 0 GuidelinesButton::create()
PUBLIC 4d0b0 0 __cxx_global_var_init.61
PUBLIC 4d118 0 geode::modifier::ModifyBase<geode::modifier::ModifyDerive<EditorPauseLayerIDs, EditorPauseLayer> >::~ModifyBase()
PUBLIC 4d134 0 GuidelinesButton::~GuidelinesButton()
PUBLIC 4d158 0 GuidelinesButton::init()
PUBLIC 4d1e4 0 cocos2d::CCNodeRGBA::setOpacityModifyRGB(bool)
PUBLIC 4d1e8 0 cocos2d::CCNodeRGBA::isOpacityModifyRGB()
PUBLIC 4d1f0 0 GuidelinesButton::activate()
PUBLIC 4d258 0 {virtual override thunk({offset(-320)}, cocos2d::CCNodeRGBA::setOpacityModifyRGB(bool))}
PUBLIC 4d25c 0 {virtual override thunk({offset(-320)}, cocos2d::CCNodeRGBA::isOpacityModifyRGB())}
PUBLIC 4d264 0 geode::geodeInternalProvideIDsFor<ProvideIDsForEditorPauseLayer>(ProvideIDsForEditorPauseLayer*)
PUBLIC 4d430 0 geode::EnterLayerEvent<ProvideIDsForEditorPauseLayer>::~EnterLayerEvent()
PUBLIC 4d474 0 geode::node_ids::switchToMenu(cocos2d::CCNode*, cocos2d::CCNode*)
PUBLIC 4d58c 0 geode::modifier::ModifyBase<geode::modifier::ModifyDerive<EditorPauseLayerIDs, EditorPauseLayer> >::ModifyBase()
PUBLIC 4da24 0 geode::modifier::ModifyDerive<EditorPauseLayerIDs, EditorPauseLayer>::apply()
PUBLIC 4dcd8 0 EditorPauseLayerIDs::onModify<geode::modifier::ModifyBase<geode::modifier::ModifyDerive<EditorPauseLayerIDs, EditorPauseLayer> > >(geode::modifier::ModifyBase<geode::modifier::ModifyDerive<EditorPauseLayerIDs, EditorPauseLayer> >&)
PUBLIC 4dde0 0 geode::modifier::ModifyBase<geode::modifier::ModifyDerive<EditorPauseLayerIDs, EditorPauseLayer> >::apply()
PUBLIC 4dde4 0 geode::modifier::ModifyBase<geode::modifier::ModifyDerive<EditorPauseLayerIDs, EditorPauseLayer> >::setHookPriority(std::__ndk1::basic_string<char, std::__ndk1::char_traits<char>, std::__ndk1::allocator<char> > const&, int)
PUBLIC 4dfa0 0 geode::Hook::create<bool (*)(EditorPauseLayerIDs*, LevelEditorLayer*)>(void*, bool (*)(EditorPauseLayerIDs*, LevelEditorLayer*), std::__ndk1::basic_string<char, std::__ndk1::char_traits<char>, std::__ndk1::allocator<char> > const&, tulip::hook::TulipConvention, tulip::hook::HookMetadata const&)
PUBLIC 4e120 0 geode::modifier::AsStaticFunction_init<EditorPauseLayerIDs, bool (EditorPauseLayerIDs::*)(LevelEditorLayer*)>::Impl<bool (EditorPauseLayerIDs::*)(LevelEditorLayer*)>::function(EditorPauseLayerIDs*, LevelEditorLayer*)
PUBLIC 4e158 0 geode::NodeIDs::provide<EditorPauseLayerIDs>(EditorPauseLayerIDs*) const
PUBLIC 4e27c 0 _GLOBAL__sub_I_EditorPauseLayer.cpp
PUBLIC 4e330 0 ProvideIDsForEditorUI::provide()
PUBLIC 50960 0 geode::node_ids::setIDs<char const*, char const*, char const*, char const*, char const*, char const*, char const*, char const*, char const*, char const*, char const*, char const*, char const*, char const*, char const*, char const*, char const*>(cocos2d::CCNode*, int, char const*, char const*, char const*, char const*, char const*, char const*, char const*, char const*, char const*, char const*, char const*, char const*, char const*, char const*, char const*, char const*, char const*)
PUBLIC 50afc 0 geode::node_ids::detachAndCreateMenu<cocos2d::CCNode*, cocos2d::CCNode*, cocos2d::CCNode*, cocos2d::CCNode*>(cocos2d::CCNode*, char const*, cocos2d::Layout*, cocos2d::CCNode*, cocos2d::CCNode*, cocos2d::CCNode*, cocos2d::CCNode*)
PUBLIC 50e6c 0 geode::node_ids::detachAndCreateMenu<cocos2d::CCNode*, cocos2d::CCNode*, cocos2d::CCNode*>(cocos2d::CCNode*, char const*, cocos2d::Layout*, cocos2d::CCNode*, cocos2d::CCNode*, cocos2d::CCNode*)
PUBLIC 511b8 0 geode::node_ids::detachAndCreateMenu<cocos2d::CCNode*, cocos2d::CCNode*>(cocos2d::CCNode*, char const*, cocos2d::Layout*, cocos2d::CCNode*, cocos2d::CCNode*)
PUBLIC 51500 0 geode::node_ids::setIDs<char const*, char const*, char const*, char const*, char const*, char const*, char const*, char const*, char const*, char const*, char const*, char const*>(cocos2d::CCNode*, int, char const*, char const*, char const*, char const*, char const*, char const*, char const*, char const*, char const*, char const*, char const*, char const*)
PUBLIC 5162c 0 geode::node_ids::setIDs<char const*, char const*, char const*, char const*, char const*, char const*, char const*, char const*, char const*, char const*, char const*, char const*, char const*, char const*, char const*, char const*, char const*, char const*>(cocos2d::CCNode*, int, char const*, char const*, char const*, char const*, char const*, char const*, char const*, char const*, char const*, char const*, char const*, char const*, char const*, char const*, char const*, char const*, char const*, char const*)
PUBLIC 517d8 0 __cxx_global_var_init.78
PUBLIC 51840 0 geode::modifier::ModifyBase<geode::modifier::ModifyDerive<EditorUIIDs, EditorUI> >::~ModifyBase()
PUBLIC 5185c 0 geode::geodeInternalProvideIDsFor<ProvideIDsForEditorUI>(ProvideIDsForEditorUI*)
PUBLIC 51a00 0 geode::EnterLayerEvent<ProvideIDsForEditorUI>::~EnterLayerEvent()
PUBLIC 51a44 0 geode::node_ids::switchToMenu(cocos2d::CCNode*, cocos2d::CCNode*)
PUBLIC 51b5c 0 geode::modifier::ModifyBase<geode::modifier::ModifyDerive<EditorUIIDs, EditorUI> >::ModifyBase()
PUBLIC 51ff4 0 geode::modifier::ModifyDerive<EditorUIIDs, EditorUI>::apply()
PUBLIC 522a0 0 EditorUIIDs::onModify<geode::modifier::ModifyBase<geode::modifier::ModifyDerive<EditorUIIDs, EditorUI> > >(geode::modifier::ModifyBase<geode::modifier::ModifyDerive<EditorUIIDs, EditorUI> >&)
PUBLIC 523a8 0 geode::modifier::ModifyBase<geode::modifier::ModifyDerive<EditorUIIDs, EditorUI> >::apply()
PUBLIC 523ac 0 geode::modifier::ModifyBase<geode::modifier::ModifyDerive<EditorUIIDs, EditorUI> >::setHookPriority(std::__ndk1::basic_string<char, std::__ndk1::char_traits<char>, std::__ndk1::allocator<char> > const&, int)
PUBLIC 52568 0 geode::Hook::create<bool (*)(EditorUIIDs*, LevelEditorLayer*)>(void*, bool (*)(EditorUIIDs*, LevelEditorLayer*), std::__ndk1::basic_string<char, std::__ndk1::char_traits<char>, std::__ndk1::allocator<char> > const&, tulip::hook::TulipConvention, tulip::hook::HookMetadata const&)
PUBLIC 526e8 0 geode::modifier::AsStaticFunction_init<EditorUIIDs, bool (EditorUIIDs::*)(LevelEditorLayer*)>::Impl<bool (EditorUIIDs::*)(LevelEditorLayer*)>::function(EditorUIIDs*, LevelEditorLayer*)
PUBLIC 52720 0 geode::NodeIDs::provide<EditorUIIDs>(EditorUIIDs*) const
PUBLIC 52848 0 _GLOBAL__sub_I_EditorUI.cpp
PUBLIC 52900 0 ProvideIDsForEndLevelLayer::provide()
PUBLIC 53a2c 0 isSpriteFrameName(cocos2d::CCNode*, char const*)
PUBLIC 53be4 0 __cxx_global_var_init.32
PUBLIC 53c4c 0 geode::modifier::ModifyBase<geode::modifier::ModifyDerive<EndLevelLayerIDs, EndLevelLayer> >::~ModifyBase()
PUBLIC 53c68 0 std::__ndk1::vector<cocos2d::CCPoint, std::__ndk1::allocator<cocos2d::CCPoint> >::__throw_length_error[abi:v170000]() const
PUBLIC 53c7c 0 geode::geodeInternalProvideIDsFor<ProvideIDsForEndLevelLayer>(ProvideIDsForEndLevelLayer*)
PUBLIC 53e50 0 geode::EnterLayerEvent<ProvideIDsForEndLevelLayer>::~EnterLayerEvent()
PUBLIC 53e94 0 geode::modifier::ModifyBase<geode::modifier::ModifyDerive<EndLevelLayerIDs, EndLevelLayer> >::ModifyBase()
PUBLIC 5432c 0 geode::modifier::ModifyDerive<EndLevelLayerIDs, EndLevelLayer>::apply()
PUBLIC 54854 0 EndLevelLayerIDs::onModify<geode::modifier::ModifyBase<geode::modifier::ModifyDerive<EndLevelLayerIDs, EndLevelLayer> > >(geode::modifier::ModifyBase<geode::modifier::ModifyDerive<EndLevelLayerIDs, EndLevelLayer> >&)
PUBLIC 54a18 0 geode::modifier::ModifyBase<geode::modifier::ModifyDerive<EndLevelLayerIDs, EndLevelLayer> >::apply()
PUBLIC 54a1c 0 geode::modifier::ModifyBase<geode::modifier::ModifyDerive<EndLevelLayerIDs, EndLevelLayer> >::setHookPriority(std::__ndk1::basic_string<char, std::__ndk1::char_traits<char>, std::__ndk1::allocator<char> > const&, int)
PUBLIC 54bd8 0 geode::Hook::create<void (*)(EndLevelLayerIDs*)>(void*, void (*)(EndLevelLayerIDs*), std::__ndk1::basic_string<char, std::__ndk1::char_traits<char>, std::__ndk1::allocator<char> > const&, tulip::hook::TulipConvention, tulip::hook::HookMetadata const&)
PUBLIC 54d0c 0 geode::modifier::AsStaticFunction_customSetup<EndLevelLayerIDs, void (EndLevelLayerIDs::*)()>::Impl<void (EndLevelLayerIDs::*)()>::function(EndLevelLayerIDs*)
PUBLIC 54d34 0 geode::Hook::create<void (*)(EndLevelLayerIDs*, bool)>(void*, void (*)(EndLevelLayerIDs*, bool), std::__ndk1::basic_string<char, std::__ndk1::char_traits<char>, std::__ndk1::allocator<char> > const&, tulip::hook::TulipConvention, tulip::hook::HookMetadata const&)
PUBLIC 54eb4 0 geode::modifier::AsStaticFunction_showLayer<EndLevelLayerIDs, void (EndLevelLayerIDs::*)(bool)>::Impl<void (EndLevelLayerIDs::*)(bool)>::function(EndLevelLayerIDs*, bool)
PUBLIC 54eb8 0 geode::addresser::Addresser::addressOfVirtual<void, EndLevelLayer, >(void (EndLevelLayer::*)())
PUBLIC 54fd0 0 geode::NodeIDs::provide<EndLevelLayerIDs>(EndLevelLayerIDs*) const
PUBLIC 55100 0 geode::addresser::Addresser::addressOfVirtual<void, EndLevelLayer, bool>(void (EndLevelLayer::*)(bool))
PUBLIC 55218 0 EndLevelLayerIDs::showLayer(bool)
PUBLIC 55ab0 0 _GLOBAL__sub_I_EndLevelLayer.cpp
PUBLIC 55b6c 0 ProvideIDsForFLAlertLayer::provide()
PUBLIC 5632c 0 __cxx_global_var_init.10
PUBLIC 56394 0 geode::modifier::ModifyBase<geode::modifier::ModifyDerive<FLAlertLayerIDs, FLAlertLayer> >::~ModifyBase()
PUBLIC 563b0 0 geode::geodeInternalProvideIDsFor<ProvideIDsForFLAlertLayer>(ProvideIDsForFLAlertLayer*)
PUBLIC 56588 0 geode::EnterLayerEvent<ProvideIDsForFLAlertLayer>::~EnterLayerEvent()
PUBLIC 565cc 0 geode::modifier::ModifyBase<geode::modifier::ModifyDerive<FLAlertLayerIDs, FLAlertLayer> >::ModifyBase()
PUBLIC 56a64 0 geode::modifier::ModifyDerive<FLAlertLayerIDs, FLAlertLayer>::apply()
PUBLIC 56d2c 0 FLAlertLayerIDs::onModify<geode::modifier::ModifyBase<geode::modifier::ModifyDerive<FLAlertLayerIDs, FLAlertLayer> > >(geode::modifier::ModifyBase<geode::modifier::ModifyDerive<FLAlertLayerIDs, FLAlertLayer> >&)
PUBLIC 56e34 0 geode::modifier::ModifyBase<geode::modifier::ModifyDerive<FLAlertLayerIDs, FLAlertLayer> >::apply()
PUBLIC 56e38 0 geode::modifier::ModifyBase<geode::modifier::ModifyDerive<FLAlertLayerIDs, FLAlertLayer> >::setHookPriority(std::__ndk1::basic_string<char, std::__ndk1::char_traits<char>, std::__ndk1::allocator<char> > const&, int)
PUBLIC 56ff4 0 geode::Hook::create<bool (*)(FLAlertLayerIDs*, FLAlertLayerProtocol*, char const*, gd::string, char const*, char const*, float, bool, float, float)>(void*, bool (*)(FLAlertLayerIDs*, FLAlertLayerProtocol*, char const*, gd::string, char const*, char const*, float, bool, float, float), std::__ndk1::basic_string<char, std::__ndk1::char_traits<char>, std::__ndk1::allocator<char> > const&, tulip::hook::TulipConvention, tulip::hook::HookMetadata const&)
PUBLIC 5710c 0 geode::modifier::AsStaticFunction_init<FLAlertLayerIDs, bool (FLAlertLayerIDs::*)(FLAlertLayerProtocol*, char const*, gd::string, char const*, char const*, float, bool, float, float)>::Impl<bool (FLAlertLayerIDs::*)(FLAlertLayerProtocol*, char const*, gd::string, char const*, char const*, float, bool, float, float)>::function(FLAlertLayerIDs*, FLAlertLayerProtocol*, char const*, gd::string, char const*, char const*, float, bool, float, float)
PUBLIC 57238 0 tulip::hook::AbstractFunction::from<bool, FLAlertLayerIDs*, FLAlertLayerProtocol*, char const*, gd::string, char const*, char const*, float, bool, float, float>(bool (*)(FLAlertLayerIDs*, FLAlertLayerProtocol*, char const*, gd::string, char const*, char const*, float, bool, float, float))
PUBLIC 57b2c 0 geode::NodeIDs::provide<FLAlertLayerIDs>(FLAlertLayerIDs*) const
PUBLIC 57c68 0 _GLOBAL__sub_I_FLAlertLayer.cpp
PUBLIC 57d28 0 __cxx_global_var_init.5
PUBLIC 57d90 0 geode::modifier::ModifyBase<geode::modifier::ModifyDerive<GJCommentListLayerIDs, GJCommentListLayer> >::~ModifyBase()
PUBLIC 57dac 0 geode::geodeInternalProvideIDsFor<ProvideIDsForGJCommentListLayer>(ProvideIDsForGJCommentListLayer*)
PUBLIC 57ff0 0 geode::EnterLayerEvent<ProvideIDsForGJCommentListLayer>::~EnterLayerEvent()
PUBLIC 58034 0 geode::modifier::ModifyBase<geode::modifier::ModifyDerive<GJCommentListLayerIDs, GJCommentListLayer> >::ModifyBase()
PUBLIC 584cc 0 geode::modifier::ModifyDerive<GJCommentListLayerIDs, GJCommentListLayer>::apply()
PUBLIC 587b0 0 GJCommentListLayerIDs::onModify<geode::modifier::ModifyBase<geode::modifier::ModifyDerive<GJCommentListLayerIDs, GJCommentListLayer> > >(geode::modifier::ModifyBase<geode::modifier::ModifyDerive<GJCommentListLayerIDs, GJCommentListLayer> >&)
PUBLIC 588d0 0 geode::modifier::ModifyBase<geode::modifier::ModifyDerive<GJCommentListLayerIDs, GJCommentListLayer> >::apply()
PUBLIC 588d4 0 geode::modifier::ModifyBase<geode::modifier::ModifyDerive<GJCommentListLayerIDs, GJCommentListLayer> >::setHookPriority(std::__ndk1::basic_string<char, std::__ndk1::char_traits<char>, std::__ndk1::allocator<char> > const&, int)
PUBLIC 58a90 0 geode::Hook::create<GJCommentListLayer* (*)(BoomListView*, char const*, cocos2d::_ccColor4B, float, float, bool)>(void*, GJCommentListLayer* (*)(BoomListView*, char const*, cocos2d::_ccColor4B, float, float, bool), std::__ndk1::basic_string<char, std::__ndk1::char_traits<char>, std::__ndk1::allocator<char> > const&, tulip::hook::TulipConvention, tulip::hook::HookMetadata const&)
PUBLIC 58ba8 0 geode::modifier::AsStaticFunction_create<GJCommentListLayerIDs, GJCommentListLayer* (*)(BoomListView*, char const*, cocos2d::_ccColor4B, float, float, bool)>::Impl<GJCommentListLayer* (*)(BoomListView*, char const*, cocos2d::_ccColor4B, float, float, bool)>::function(BoomListView*, char const*, cocos2d::_ccColor4B, float, float, bool)
PUBLIC 58be0 0 tulip::hook::AbstractFunction::from<GJCommentListLayer*, BoomListView*, char const*, cocos2d::_ccColor4B, float, float, bool>(GJCommentListLayer* (*)(BoomListView*, char const*, cocos2d::_ccColor4B, float, float, bool))
PUBLIC 59060 0 geode::NodeIDs::provide<GJCommentListLayer>(GJCommentListLayer*) const
PUBLIC 59194 0 _GLOBAL__sub_I_GJCommentListLayer.cpp
PUBLIC 59250 0 ProvideIDsForGJGarageLayer::provide()
PUBLIC 59cbc 0 geode::node_ids::setIDs<char const*, char const*, char const*, char const*, char const*, char const*, char const*, char const*, char const*, char const*, char const*, char const*, char const*>(cocos2d::CCNode*, int, char const*, char const*, char const*, char const*, char const*, char const*, char const*, char const*, char const*, char const*, char const*, char const*, char const*)
PUBLIC 59e00 0 geode::node_ids::detachAndCreateMenu<cocos2d::CCNode*, >(cocos2d::CCNode*, char const*, cocos2d::Layout*, cocos2d::CCNode*, )
PUBLIC 5a040 0 __cxx_global_var_init.52
PUBLIC 5a0a8 0 geode::modifier::ModifyBase<geode::modifier::ModifyDerive<GJGarageLayerIDs, GJGarageLayer> >::~ModifyBase()
PUBLIC 5a0c4 0 geode::geodeInternalProvideIDsFor<ProvideIDsForGJGarageLayer>(ProvideIDsForGJGarageLayer*)
PUBLIC 5a298 0 geode::EnterLayerEvent<ProvideIDsForGJGarageLayer>::~EnterLayerEvent()
PUBLIC 5a2dc 0 geode::modifier::ModifyBase<geode::modifier::ModifyDerive<GJGarageLayerIDs, GJGarageLayer> >::ModifyBase()
PUBLIC 5a774 0 geode::modifier::ModifyDerive<GJGarageLayerIDs, GJGarageLayer>::apply()
PUBLIC 5ac78 0 GJGarageLayerIDs::onModify<geode::modifier::ModifyBase<geode::modifier::ModifyDerive<GJGarageLayerIDs, GJGarageLayer> > >(geode::modifier::ModifyBase<geode::modifier::ModifyDerive<GJGarageLayerIDs, GJGarageLayer> >&)
PUBLIC 5ad84 0 geode::modifier::ModifyBase<geode::modifier::ModifyDerive<GJGarageLayerIDs, GJGarageLayer> >::apply()
PUBLIC 5ad88 0 geode::modifier::ModifyBase<geode::modifier::ModifyDerive<GJGarageLayerIDs, GJGarageLayer> >::setHookPriority(std::__ndk1::basic_string<char, std::__ndk1::char_traits<char>, std::__ndk1::allocator<char> > const&, int)
PUBLIC 5af44 0 geode::Hook::create<void (*)(GJGarageLayerIDs*, int, IconType)>(void*, void (*)(GJGarageLayerIDs*, int, IconType), std::__ndk1::basic_string<char, std::__ndk1::char_traits<char>, std::__ndk1::allocator<char> > const&, tulip::hook::TulipConvention, tulip::hook::HookMetadata const&)
PUBLIC 5b05c 0 geode::modifier::AsStaticFunction_setupPage<GJGarageLayerIDs, void (GJGarageLayerIDs::*)(int, IconType)>::Impl<void (GJGarageLayerIDs::*)(int, IconType)>::function(GJGarageLayerIDs*, int, IconType)
PUBLIC 5b128 0 geode::Hook::create<bool (*)(GJGarageLayerIDs*)>(void*, bool (*)(GJGarageLayerIDs*), std::__ndk1::basic_string<char, std::__ndk1::char_traits<char>, std::__ndk1::allocator<char> > const&, tulip::hook::TulipConvention, tulip::hook::HookMetadata const&)
PUBLIC 5b25c 0 geode::modifier::AsStaticFunction_init<GJGarageLayerIDs, bool (GJGarageLayerIDs::*)()>::Impl<bool (GJGarageLayerIDs::*)()>::function(GJGarageLayerIDs*)
PUBLIC 5b294 0 tulip::hook::AbstractFunction::from<void, GJGarageLayerIDs*, int, IconType>(void (*)(GJGarageLayerIDs*, int, IconType))
PUBLIC 5b434 0 geode::addresser::Addresser::addressOfVirtual<bool, GJGarageLayer, >(bool (GJGarageLayer::*)())
PUBLIC 5b5a8 0 geode::NodeIDs::provide<GJGarageLayerIDs>(GJGarageLayerIDs*) const
PUBLIC 5b6d8 0 _GLOBAL__sub_I_GJGarageLayer.cpp
PUBLIC 5b794 0 ProvideIDsForGJScoreCell::provide()
PUBLIC 5bc24 0 __cxx_global_var_init.19
PUBLIC 5bc8c 0 geode::modifier::ModifyBase<geode::modifier::ModifyDerive<GJScoreCellIDs, GJScoreCell> >::~ModifyBase()
PUBLIC 5bca8 0 geode::geodeInternalProvideIDsFor<ProvideIDsForGJScoreCell>(ProvideIDsForGJScoreCell*)
PUBLIC 5be88 0 geode::EnterLayerEvent<ProvideIDsForGJScoreCell>::~EnterLayerEvent()
PUBLIC 5becc 0 geode::modifier::ModifyBase<geode::modifier::ModifyDerive<GJScoreCellIDs, GJScoreCell> >::ModifyBase()
PUBLIC 5c364 0 geode::modifier::ModifyDerive<GJScoreCellIDs, GJScoreCell>::apply()
PUBLIC 5c648 0 GJScoreCellIDs::onModify<geode::modifier::ModifyBase<geode::modifier::ModifyDerive<GJScoreCellIDs, GJScoreCell> > >(geode::modifier::ModifyBase<geode::modifier::ModifyDerive<GJScoreCellIDs, GJScoreCell> >&)
PUBLIC 5c768 0 geode::modifier::ModifyBase<geode::modifier::ModifyDerive<GJScoreCellIDs, GJScoreCell> >::apply()
PUBLIC 5c76c 0 geode::modifier::ModifyBase<geode::modifier::ModifyDerive<GJScoreCellIDs, GJScoreCell> >::setHookPriority(std::__ndk1::basic_string<char, std::__ndk1::char_traits<char>, std::__ndk1::allocator<char> > const&, int)
PUBLIC 5c928 0 geode::Hook::create<void (*)(GJScoreCellIDs*, GJUserScore*)>(void*, void (*)(GJScoreCellIDs*, GJUserScore*), std::__ndk1::basic_string<char, std::__ndk1::char_traits<char>, std::__ndk1::allocator<char> > const&, tulip::hook::TulipConvention, tulip::hook::HookMetadata const&)
PUBLIC 5caa8 0 geode::modifier::AsStaticFunction_loadFromScore<GJScoreCellIDs, void (GJScoreCellIDs::*)(GJUserScore*)>::Impl<void (GJScoreCellIDs::*)(GJUserScore*)>::function(GJScoreCellIDs*, GJUserScore*)
PUBLIC 5cad0 0 geode::NodeIDs::provide<GJScoreCellIDs>(GJScoreCellIDs*) const
PUBLIC 5cc0c 0 _GLOBAL__sub_I_GJScoreCell.cpp
PUBLIC 5cccc 0 __cxx_global_var_init
PUBLIC 5cd34 0 geode::modifier::ModifyBase<geode::modifier::ModifyDerive<GameToolboxIDs, GameToolbox> >::~ModifyBase()
PUBLIC 5cd50 0 geode::modifier::ModifyBase<geode::modifier::ModifyDerive<GameToolboxIDs, GameToolbox> >::ModifyBase()
PUBLIC 5d1e8 0 geode::modifier::ModifyDerive<GameToolboxIDs, GameToolbox>::apply()
PUBLIC 5d718 0 GameToolboxIDs::onModify<geode::modifier::ModifyBase<geode::modifier::ModifyDerive<GameToolboxIDs, GameToolbox> > >(geode::modifier::ModifyBase<geode::modifier::ModifyDerive<GameToolboxIDs, GameToolbox> >&)
PUBLIC 5d8dc 0 geode::modifier::ModifyBase<geode::modifier::ModifyDerive<GameToolboxIDs, GameToolbox> >::apply()
PUBLIC 5d8e0 0 geode::modifier::ModifyBase<geode::modifier::ModifyDerive<GameToolboxIDs, GameToolbox> >::setHookPriority(std::__ndk1::basic_string<char, std::__ndk1::char_traits<char>, std::__ndk1::allocator<char> > const&, int)
PUBLIC 5da9c 0 geode::Hook::create<void (*)(cocos2d::CCLayer*, cocos2d::CCMenuItem*)>(void*, void (*)(cocos2d::CCLayer*, cocos2d::CCMenuItem*), std::__ndk1::basic_string<char, std::__ndk1::char_traits<char>, std::__ndk1::allocator<char> > const&, tulip::hook::TulipConvention, tulip::hook::HookMetadata const&)
PUBLIC 5dc1c 0 geode::modifier::AsStaticFunction_addBackButton<GameToolboxIDs, void (*)(cocos2d::CCLayer*, cocos2d::CCMenuItem*)>::Impl<void (*)(cocos2d::CCLayer*, cocos2d::CCMenuItem*)>::function(cocos2d::CCLayer*, cocos2d::CCMenuItem*)
PUBLIC 5dc20 0 geode::Hook::create<void (*)(cocos2d::CCLayer*)>(void*, void (*)(cocos2d::CCLayer*), std::__ndk1::basic_string<char, std::__ndk1::char_traits<char>, std::__ndk1::allocator<char> > const&, tulip::hook::TulipConvention, tulip::hook::HookMetadata const&)
PUBLIC 5dd54 0 geode::modifier::AsStaticFunction_addRThumbScrollButton<GameToolboxIDs, void (*)(cocos2d::CCLayer*)>::Impl<void (*)(cocos2d::CCLayer*)>::function(cocos2d::CCLayer*)
PUBLIC 5dd58 0 GameToolboxIDs::addBackButton(cocos2d::CCLayer*, cocos2d::CCMenuItem*)
PUBLIC 5de44 0 GameToolboxIDs::addRThumbScrollButton(cocos2d::CCLayer*)
PUBLIC 5e028 0 ProvideIDsForInfoLayer::provide()
PUBLIC 607a8 0 std::__ndk1::basic_string<char, std::__ndk1::char_traits<char>, std::__ndk1::allocator<char> >::basic_string[abi:v170000]<std::nullptr_t>()
PUBLIC 60830 0 geode::cocos::getChildOfType<cocos2d::CCMenu>(cocos2d::CCNode*, int)
PUBLIC 60974 0 geode::cocos::getChildOfType<CCMenuItemSpriteExtra>(cocos2d::CCNode*, int)
PUBLIC 60a4c 0 __cxx_global_var_init.40
PUBLIC 60ab4 0 geode::modifier::ModifyBase<geode::modifier::ModifyDerive<InfoLayerIDs, InfoLayer> >::~ModifyBase()
PUBLIC 60ad0 0 geode::geodeInternalProvideIDsFor<ProvideIDsForInfoLayer>(ProvideIDsForInfoLayer*)
PUBLIC 60c94 0 geode::EnterLayerEvent<ProvideIDsForInfoLayer>::~EnterLayerEvent()
PUBLIC 60cd8 0 geode::modifier::ModifyBase<geode::modifier::ModifyDerive<InfoLayerIDs, InfoLayer> >::ModifyBase()
PUBLIC 61170 0 geode::modifier::ModifyDerive<InfoLayerIDs, InfoLayer>::apply()
PUBLIC 61670 0 InfoLayerIDs::onModify<geode::modifier::ModifyBase<geode::modifier::ModifyDerive<InfoLayerIDs, InfoLayer> > >(geode::modifier::ModifyBase<geode::modifier::ModifyDerive<InfoLayerIDs, InfoLayer> >&)
PUBLIC 61820 0 geode::modifier::ModifyBase<geode::modifier::ModifyDerive<InfoLayerIDs, InfoLayer> >::apply()
PUBLIC 61824 0 geode::modifier::ModifyBase<geode::modifier::ModifyDerive<InfoLayerIDs, InfoLayer> >::setHookPriority(std::__ndk1::basic_string<char, std::__ndk1::char_traits<char>, std::__ndk1::allocator<char> > const&, int)
PUBLIC 619e0 0 geode::Hook::create<bool (*)(InfoLayerIDs*, GJGameLevel*, GJUserScore*, GJLevelList*)>(void*, bool (*)(InfoLayerIDs*, GJGameLevel*, GJUserScore*, GJLevelList*), std::__ndk1::basic_string<char, std::__ndk1::char_traits<char>, std::__ndk1::allocator<char> > const&, tulip::hook::TulipConvention, tulip::hook::HookMetadata const&)
PUBLIC 61af8 0 geode::modifier::AsStaticFunction_init<InfoLayerIDs, bool (InfoLayerIDs::*)(GJGameLevel*, GJUserScore*, GJLevelList*)>::Impl<bool (InfoLayerIDs::*)(GJGameLevel*, GJUserScore*, GJLevelList*)>::function(InfoLayerIDs*, GJGameLevel*, GJUserScore*, GJLevelList*)
PUBLIC 61b30 0 geode::Hook::create<void (*)(InfoLayerIDs*, cocos2d::CCArray*)>(void*, void (*)(InfoLayerIDs*, cocos2d::CCArray*), std::__ndk1::basic_string<char, std::__ndk1::char_traits<char>, std::__ndk1::allocator<char> > const&, tulip::hook::TulipConvention, tulip::hook::HookMetadata const&)
PUBLIC 61cb0 0 geode::modifier::AsStaticFunction_setupCommentsBrowser<InfoLayerIDs, void (InfoLayerIDs::*)(cocos2d::CCArray*)>::Impl<void (InfoLayerIDs::*)(cocos2d::CCArray*)>::function(InfoLayerIDs*, cocos2d::CCArray*)
PUBLIC 61cd8 0 tulip::hook::AbstractFunction::from<bool, InfoLayerIDs*, GJGameLevel*, GJUserScore*, GJLevelList*>(bool (*)(InfoLayerIDs*, GJGameLevel*, GJUserScore*, GJLevelList*))
PUBLIC 61f88 0 geode::NodeIDs::provide<InfoLayerIDs>(InfoLayerIDs*) const
PUBLIC 620b4 0 _GLOBAL__sub_I_InfoLayer.cpp
PUBLIC 6216c 0 ProvideIDsForLeaderboardsLayer::provide()
PUBLIC 62424 0 __cxx_global_var_init.14
PUBLIC 6248c 0 geode::modifier::ModifyBase<geode::modifier::ModifyDerive<LeaderboardsLayerIDs, LeaderboardsLayer> >::~ModifyBase()
PUBLIC 624a8 0 geode::geodeInternalProvideIDsFor<ProvideIDsForLeaderboardsLayer>(ProvideIDsForLeaderboardsLayer*)
PUBLIC 62688 0 geode::EnterLayerEvent<ProvideIDsForLeaderboardsLayer>::~EnterLayerEvent()
PUBLIC 626cc 0 geode::modifier::ModifyBase<geode::modifier::ModifyDerive<LeaderboardsLayerIDs, LeaderboardsLayer> >::ModifyBase()
PUBLIC 62b64 0 geode::modifier::ModifyDerive<LeaderboardsLayerIDs, LeaderboardsLayer>::apply()
PUBLIC 62e40 0 LeaderboardsLayerIDs::onModify<geode::modifier::ModifyBase<geode::modifier::ModifyDerive<LeaderboardsLayerIDs, LeaderboardsLayer> > >(geode::modifier::ModifyBase<geode::modifier::ModifyDerive<LeaderboardsLayerIDs, LeaderboardsLayer> >&)
PUBLIC 62f60 0 geode::modifier::ModifyBase<geode::modifier::ModifyDerive<LeaderboardsLayerIDs, LeaderboardsLayer> >::apply()
PUBLIC 62f64 0 geode::modifier::ModifyBase<geode::modifier::ModifyDerive<LeaderboardsLayerIDs, LeaderboardsLayer> >::setHookPriority(std::__ndk1::basic_string<char, std::__ndk1::char_traits<char>, std::__ndk1::allocator<char> > const&, int)
PUBLIC 63120 0 geode::Hook::create<bool (*)(LeaderboardsLayerIDs*, LeaderboardState)>(void*, bool (*)(LeaderboardsLayerIDs*, LeaderboardState), std::__ndk1::basic_string<char, std::__ndk1::char_traits<char>, std::__ndk1::allocator<char> > const&, tulip::hook::TulipConvention, tulip::hook::HookMetadata const&)
PUBLIC 632a0 0 geode::modifier::AsStaticFunction_init<LeaderboardsLayerIDs, bool (LeaderboardsLayerIDs::*)(LeaderboardState)>::Impl<bool (LeaderboardsLayerIDs::*)(LeaderboardState)>::function(LeaderboardsLayerIDs*, LeaderboardState)
PUBLIC 632d8 0 geode::NodeIDs::provide<LeaderboardsLayerIDs>(LeaderboardsLayerIDs*) const
PUBLIC 63404 0 _GLOBAL__sub_I_LeaderboardsLayer.cpp
PUBLIC 634bc 0 ProvideIDsForLevelAreaInnerLayer::provide()
PUBLIC 63bf8 0 geode::node_ids::setIDs<char const*, char const*, char const*, char const*, char const*, char const*, char const*, char const*, char const*, char const*>(cocos2d::CCNode*, int, char const*, char const*, char const*, char const*, char const*, char const*, char const*, char const*, char const*, char const*)
PUBLIC 63cf4 0 __cxx_global_var_init.19
PUBLIC 63d5c 0 geode::modifier::ModifyBase<geode::modifier::ModifyDerive<LevelAreaInnerLayerIDs, LevelAreaInnerLayer> >::~ModifyBase()
PUBLIC 63d78 0 geode::geodeInternalProvideIDsFor<ProvideIDsForLevelAreaInnerLayer>(ProvideIDsForLevelAreaInnerLayer*)
PUBLIC 63f74 0 geode::EnterLayerEvent<ProvideIDsForLevelAreaInnerLayer>::~EnterLayerEvent()
PUBLIC 63fb8 0 geode::modifier::ModifyBase<geode::modifier::ModifyDerive<LevelAreaInnerLayerIDs, LevelAreaInnerLayer> >::ModifyBase()
PUBLIC 64450 0 geode::modifier::ModifyDerive<LevelAreaInnerLayerIDs, LevelAreaInnerLayer>::apply()
PUBLIC 64734 0 LevelAreaInnerLayerIDs::onModify<geode::modifier::ModifyBase<geode::modifier::ModifyDerive<LevelAreaInnerLayerIDs, LevelAreaInnerLayer> > >(geode::modifier::ModifyBase<geode::modifier::ModifyDerive<LevelAreaInnerLayerIDs, LevelAreaInnerLayer> >&)
PUBLIC 64854 0 geode::modifier::ModifyBase<geode::modifier::ModifyDerive<LevelAreaInnerLayerIDs, LevelAreaInnerLayer> >::apply()
PUBLIC 64858 0 geode::modifier::ModifyBase<geode::modifier::ModifyDerive<LevelAreaInnerLayerIDs, LevelAreaInnerLayer> >::setHookPriority(std::__ndk1::basic_string<char, std::__ndk1::char_traits<char>, std::__ndk1::allocator<char> > const&, int)
PUBLIC 64a14 0 geode::Hook::create<bool (*)(LevelAreaInnerLayerIDs*, bool)>(void*, bool (*)(LevelAreaInnerLayerIDs*, bool), std::__ndk1::basic_string<char, std::__ndk1::char_traits<char>, std::__ndk1::allocator<char> > const&, tulip::hook::TulipConvention, tulip::hook::HookMetadata const&)
PUBLIC 64b94 0 geode::modifier::AsStaticFunction_init<LevelAreaInnerLayerIDs, bool (LevelAreaInnerLayerIDs::*)(bool)>::Impl<bool (LevelAreaInnerLayerIDs::*)(bool)>::function(LevelAreaInnerLayerIDs*, bool)
PUBLIC 64bcc 0 geode::NodeIDs::provide<LevelAreaInnerLayerIDs>(LevelAreaInnerLayerIDs*) const
PUBLIC 64d08 0 _GLOBAL__sub_I_LevelAreaInnerLayer.cpp
PUBLIC 64dc8 0 ProvideIDsForLevelBrowserLayer::provide()
PUBLIC 67ea8 0 geode::node_ids::detachAndCreateMenu<cocos2d::CCNode*, >(cocos2d::CCNode*, char const*, cocos2d::Layout*, cocos2d::CCNode*, )
PUBLIC 680e8 0 __cxx_global_var_init.46
PUBLIC 68150 0 geode::modifier::ModifyBase<geode::modifier::ModifyDerive<LevelBrowserLayerIDs, LevelBrowserLayer> >::~ModifyBase()
PUBLIC 6816c 0 geode::geodeInternalProvideIDsFor<ProvideIDsForLevelBrowserLayer>(ProvideIDsForLevelBrowserLayer*)
PUBLIC 6834c 0 geode::EnterLayerEvent<ProvideIDsForLevelBrowserLayer>::~EnterLayerEvent()
PUBLIC 68390 0 geode::node_ids::switchToMenu(cocos2d::CCNode*, cocos2d::CCNode*)
PUBLIC 684a8 0 geode::modifier::ModifyBase<geode::modifier::ModifyDerive<LevelBrowserLayerIDs, LevelBrowserLayer> >::ModifyBase()
PUBLIC 68940 0 geode::modifier::ModifyDerive<LevelBrowserLayerIDs, LevelBrowserLayer>::apply()
PUBLIC 68c1c 0 LevelBrowserLayerIDs::onModify<geode::modifier::ModifyBase<geode::modifier::ModifyDerive<LevelBrowserLayerIDs, LevelBrowserLayer> > >(geode::modifier::ModifyBase<geode::modifier::ModifyDerive<LevelBrowserLayerIDs, LevelBrowserLayer> >&)
PUBLIC 68d3c 0 geode::modifier::ModifyBase<geode::modifier::ModifyDerive<LevelBrowserLayerIDs, LevelBrowserLayer> >::apply()
PUBLIC 68d40 0 geode::modifier::ModifyBase<geode::modifier::ModifyDerive<LevelBrowserLayerIDs, LevelBrowserLayer> >::setHookPriority(std::__ndk1::basic_string<char, std::__ndk1::char_traits<char>, std::__ndk1::allocator<char> > const&, int)
PUBLIC 68efc 0 geode::Hook::create<bool (*)(LevelBrowserLayerIDs*, GJSearchObject*)>(void*, bool (*)(LevelBrowserLayerIDs*, GJSearchObject*), std::__ndk1::basic_string<char, std::__ndk1::char_traits<char>, std::__ndk1::allocator<char> > const&, tulip::hook::TulipConvention, tulip::hook::HookMetadata const&)
PUBLIC 6907c 0 geode::modifier::AsStaticFunction_init<LevelBrowserLayerIDs, bool (LevelBrowserLayerIDs::*)(GJSearchObject*)>::Impl<bool (LevelBrowserLayerIDs::*)(GJSearchObject*)>::function(LevelBrowserLayerIDs*, GJSearchObject*)
PUBLIC 690b4 0 geode::NodeIDs::provide<LevelBrowserLayerIDs>(LevelBrowserLayerIDs*) const
PUBLIC 691e0 0 _GLOBAL__sub_I_LevelBrowserLayer.cpp
PUBLIC 69298 0 ProvideIDsForLevelCell::provide()
PUBLIC 6ae94 0 geode::cocos::getChildOfType<cocos2d::CCSprite>(cocos2d::CCNode*, int)
PUBLIC 6afd8 0 __cxx_global_var_init.35
PUBLIC 6b040 0 geode::modifier::ModifyBase<geode::modifier::ModifyDerive<LevelCellIDs, LevelCell> >::~ModifyBase()
PUBLIC 6b05c 0 geode::modifier::ModifyBase<geode::modifier::ModifyDerive<LevelCellIDs, LevelCell> >::ModifyBase()
PUBLIC 6b4f4 0 geode::modifier::ModifyDerive<LevelCellIDs, LevelCell>::apply()
PUBLIC 6bc78 0 LevelCellIDs::onModify<geode::modifier::ModifyBase<geode::modifier::ModifyDerive<LevelCellIDs, LevelCell> > >(geode::modifier::ModifyBase<geode::modifier::ModifyDerive<LevelCellIDs, LevelCell> >&)
PUBLIC 6bed8 0 geode::modifier::ModifyBase<geode::modifier::ModifyDerive<LevelCellIDs, LevelCell> >::apply()
PUBLIC 6bedc 0 geode::modifier::ModifyBase<geode::modifier::ModifyDerive<LevelCellIDs, LevelCell> >::setHookPriority(std::__ndk1::basic_string<char, std::__ndk1::char_traits<char>, std::__ndk1::allocator<char> > const&, int)
PUBLIC 6c098 0 geode::Hook::create<void (*)(LevelCellIDs*)>(void*, void (*)(LevelCellIDs*), std::__ndk1::basic_string<char, std::__ndk1::char_traits<char>, std::__ndk1::allocator<char> > const&, tulip::hook::TulipConvention, tulip::hook::HookMetadata const&)
PUBLIC 6c1cc 0 geode::modifier::AsStaticFunction_loadCustomLevelCell<LevelCellIDs, void (LevelCellIDs::*)()>::Impl<void (LevelCellIDs::*)()>::function(LevelCellIDs*)
PUBLIC 6c200 0 geode::Hook::create<void (*)(LevelCellIDs*, GJGameLevel*)>(void*, void (*)(LevelCellIDs*, GJGameLevel*), std::__ndk1::basic_string<char, std::__ndk1::char_traits<char>, std::__ndk1::allocator<char> > const&, tulip::hook::TulipConvention, tulip::hook::HookMetadata const&)
PUBLIC 6c380 0 geode::modifier::AsStaticFunction_loadFromLevel<LevelCellIDs, void (LevelCellIDs::*)(GJGameLevel*)>::Impl<void (LevelCellIDs::*)(GJGameLevel*)>::function(LevelCellIDs*, GJGameLevel*)
PUBLIC 6c44c 0 geode::modifier::AsStaticFunction_loadLocalLevelCell<LevelCellIDs, void (LevelCellIDs::*)()>::Impl<void (LevelCellIDs::*)()>::function(LevelCellIDs*)
PUBLIC 6c484 0 geode::NodeIDs::provide<LevelCellIDs>(LevelCellIDs*) const
PUBLIC 6c5b0 0 geode::modifier::FieldIntermediate<LevelCellIDs, LevelCell>::operator LevelCellIDs*()
PUBLIC 6c774 0 geode::modifier::FieldIntermediate<LevelCellIDs, LevelCell>::fieldDestructor(void*)
PUBLIC 6c81c 0 geode::Modify<LevelCellIDs, LevelCell>::~Modify()
PUBLIC 6c87c 0 LevelCell::LevelCell(geode::CutoffConstructorType, unsigned long)
PUBLIC 6c964 0 geode::Modify<LevelCellIDs, LevelCell>::~Modify()
PUBLIC 6c9c8 0 {virtual override thunk({offset(-320)}, geode::Modify<LevelCellIDs, LevelCell>::~Modify())}
PUBLIC 6ca2c 0 {virtual override thunk({offset(-320)}, geode::Modify<LevelCellIDs, LevelCell>::~Modify())}
PUBLIC 6ca94 0 cocos2d::CCKeyboardDelegate::keyUp(cocos2d::enumKeyCodes)
PUBLIC 6ca98 0 cocos2d::CCMouseDelegate::rightKeyDown()
PUBLIC 6ca9c 0 cocos2d::CCMouseDelegate::rightKeyUp()
PUBLIC 6caa0 0 cocos2d::CCMouseDelegate::scrollWheel(float, float)
PUBLIC 6caa4 0 geode::geodeInternalProvideIDsFor<ProvideIDsForLevelCell>(ProvideIDsForLevelCell*)
PUBLIC 6cc68 0 geode::EnterLayerEvent<ProvideIDsForLevelCell>::~EnterLayerEvent()
PUBLIC 6ccac 0 _GLOBAL__sub_I_LevelCell.cpp
PUBLIC 6cd64 0 ProvideIDsForLevelInfoLayer::provide()
PUBLIC 6e26c 0 geode::cocos::CCArrayExt<cocos2d::CCSprite*>::~CCArrayExt()
PUBLIC 6e28c 0 __cxx_global_var_init.56
PUBLIC 6e2f4 0 geode::modifier::ModifyBase<geode::modifier::ModifyDerive<LevelInfoLayerIDs, LevelInfoLayer> >::~ModifyBase()
PUBLIC 6e310 0 geode::geodeInternalProvideIDsFor<ProvideIDsForLevelInfoLayer>(ProvideIDsForLevelInfoLayer*)
PUBLIC 6e4e4 0 geode::EnterLayerEvent<ProvideIDsForLevelInfoLayer>::~EnterLayerEvent()
PUBLIC 6e528 0 geode::modifier::ModifyBase<geode::modifier::ModifyDerive<LevelInfoLayerIDs, LevelInfoLayer> >::ModifyBase()
PUBLIC 6e9c0 0 geode::modifier::ModifyDerive<LevelInfoLayerIDs, LevelInfoLayer>::apply()
PUBLIC 6f368 0 LevelInfoLayerIDs::onModify<geode::modifier::ModifyBase<geode::modifier::ModifyDerive<LevelInfoLayerIDs, LevelInfoLayer> > >(geode::modifier::ModifyBase<geode::modifier::ModifyDerive<LevelInfoLayerIDs, LevelInfoLayer> >&)
PUBLIC 6f474 0 geode::modifier::ModifyBase<geode::modifier::ModifyDerive<LevelInfoLayerIDs, LevelInfoLayer> >::apply()
PUBLIC 6f478 0 geode::modifier::ModifyBase<geode::modifier::ModifyDerive<LevelInfoLayerIDs, LevelInfoLayer> >::setHookPriority(std::__ndk1::basic_string<char, std::__ndk1::char_traits<char>, std::__ndk1::allocator<char> > const&, int)
PUBLIC 6f634 0 geode::Hook::create<bool (*)(LevelInfoLayerIDs*, GJGameLevel*, bool)>(void*, bool (*)(LevelInfoLayerIDs*, GJGameLevel*, bool), std::__ndk1::basic_string<char, std::__ndk1::char_traits<char>, std::__ndk1::allocator<char> > const&, tulip::hook::TulipConvention, tulip::hook::HookMetadata const&)
PUBLIC 6f74c 0 geode::modifier::AsStaticFunction_init<LevelInfoLayerIDs, bool (LevelInfoLayerIDs::*)(GJGameLevel*, bool)>::Impl<bool (LevelInfoLayerIDs::*)(GJGameLevel*, bool)>::function(LevelInfoLayerIDs*, GJGameLevel*, bool)
PUBLIC 6f784 0 geode::Hook::create<void (*)(LevelInfoLayerIDs*)>(void*, void (*)(LevelInfoLayerIDs*), std::__ndk1::basic_string<char, std::__ndk1::char_traits<char>, std::__ndk1::allocator<char> > const&, tulip::hook::TulipConvention, tulip::hook::HookMetadata const&)
PUBLIC 6f8b8 0 geode::modifier::AsStaticFunction_setupPlatformerStats<LevelInfoLayerIDs, void (LevelInfoLayerIDs::*)()>::Impl<void (LevelInfoLayerIDs::*)()>::function(LevelInfoLayerIDs*)
PUBLIC 6f8bc 0 geode::modifier::AsStaticFunction_setupProgressBars<LevelInfoLayerIDs, void (LevelInfoLayerIDs::*)()>::Impl<void (LevelInfoLayerIDs::*)()>::function(LevelInfoLayerIDs*)
PUBLIC 6f8c0 0 geode::modifier::AsStaticFunction_updateLabelValues<LevelInfoLayerIDs, void (LevelInfoLayerIDs::*)()>::Impl<void (LevelInfoLayerIDs::*)()>::function(LevelInfoLayerIDs*)
PUBLIC 6f8c4 0 tulip::hook::AbstractFunction::from<bool, LevelInfoLayerIDs*, GJGameLevel*, bool>(bool (*)(LevelInfoLayerIDs*, GJGameLevel*, bool))
PUBLIC 6fa64 0 geode::NodeIDs::provide<LevelInfoLayerIDs>(LevelInfoLayerIDs*) const
PUBLIC 6fb94 0 LevelInfoLayerIDs::setupPlatformerStats()
PUBLIC 6fd08 0 LevelInfoLayerIDs::setupProgressBars()
PUBLIC 70034 0 LevelInfoLayerIDs::updateLabelValues()
PUBLIC 70174 0 _GLOBAL__sub_I_LevelInfoLayer.cpp
PUBLIC 70230 0 ProvideIDsForLevelLeaderboard::provide()
PUBLIC 71260 0 __cxx_global_var_init.17
PUBLIC 712c8 0 geode::modifier::ModifyBase<geode::modifier::ModifyDerive<LevelLeaderboardIDs, LevelLeaderboard> >::~ModifyBase()
PUBLIC 712e4 0 geode::geodeInternalProvideIDsFor<ProvideIDsForLevelLeaderboard>(ProvideIDsForLevelLeaderboard*)
PUBLIC 714b0 0 geode::EnterLayerEvent<ProvideIDsForLevelLeaderboard>::~EnterLayerEvent()
PUBLIC 714f4 0 geode::modifier::ModifyBase<geode::modifier::ModifyDerive<LevelLeaderboardIDs, LevelLeaderboard> >::ModifyBase()
PUBLIC 7198c 0 geode::modifier::ModifyDerive<LevelLeaderboardIDs, LevelLeaderboard>::apply()
PUBLIC 71c40 0 LevelLeaderboardIDs::onModify<geode::modifier::ModifyBase<geode::modifier::ModifyDerive<LevelLeaderboardIDs, LevelLeaderboard> > >(geode::modifier::ModifyBase<geode::modifier::ModifyDerive<LevelLeaderboardIDs, LevelLeaderboard> >&)
PUBLIC 71d48 0 geode::modifier::ModifyBase<geode::modifier::ModifyDerive<LevelLeaderboardIDs, LevelLeaderboard> >::apply()
PUBLIC 71d4c 0 geode::modifier::ModifyBase<geode::modifier::ModifyDerive<LevelLeaderboardIDs, LevelLeaderboard> >::setHookPriority(std::__ndk1::basic_string<char, std::__ndk1::char_traits<char>, std::__ndk1::allocator<char> > const&, int)
PUBLIC 71f08 0 geode::Hook::create<bool (*)(LevelLeaderboardIDs*, GJGameLevel*, LevelLeaderboardType, LevelLeaderboardMode)>(void*, bool (*)(LevelLeaderboardIDs*, GJGameLevel*, LevelLeaderboardType, LevelLeaderboardMode), std::__ndk1::basic_string<char, std::__ndk1::char_traits<char>, std::__ndk1::allocator<char> > const&, tulip::hook::TulipConvention, tulip::hook::HookMetadata const&)
PUBLIC 72020 0 geode::modifier::AsStaticFunction_init<LevelLeaderboardIDs, bool (LevelLeaderboardIDs::*)(GJGameLevel*, LevelLeaderboardType, LevelLeaderboardMode)>::Impl<bool (LevelLeaderboardIDs::*)(GJGameLevel*, LevelLeaderboardType, LevelLeaderboardMode)>::function(LevelLeaderboardIDs*, GJGameLevel*, LevelLeaderboardType, LevelLeaderboardMode)
PUBLIC 72058 0 tulip::hook::AbstractFunction::from<bool, LevelLeaderboardIDs*, GJGameLevel*, LevelLeaderboardType, LevelLeaderboardMode>(bool (*)(LevelLeaderboardIDs*, GJGameLevel*, LevelLeaderboardType, LevelLeaderboardMode))
PUBLIC 722dc 0 geode::NodeIDs::provide<LevelLeaderboardIDs>(LevelLeaderboardIDs*) const
PUBLIC 72400 0 _GLOBAL__sub_I_LevelLeaderboard.cpp
PUBLIC 724b4 0 ProvideIDsForLevelSearchLayer::provide()
PUBLIC 73424 0 __cxx_global_var_init.50
PUBLIC 7348c 0 geode::modifier::ModifyBase<geode::modifier::ModifyDerive<LevelSearchLayerIDs, LevelSearchLayer> >::~ModifyBase()
PUBLIC 734a8 0 geode::geodeInternalProvideIDsFor<ProvideIDsForLevelSearchLayer>(ProvideIDsForLevelSearchLayer*)
PUBLIC 73674 0 geode::EnterLayerEvent<ProvideIDsForLevelSearchLayer>::~EnterLayerEvent()
PUBLIC 736b8 0 geode::modifier::ModifyBase<geode::modifier::ModifyDerive<LevelSearchLayerIDs, LevelSearchLayer> >::ModifyBase()
PUBLIC 73b50 0 geode::modifier::ModifyDerive<LevelSearchLayerIDs, LevelSearchLayer>::apply()
PUBLIC 73e04 0 LevelSearchLayerIDs::onModify<geode::modifier::ModifyBase<geode::modifier::ModifyDerive<LevelSearchLayerIDs, LevelSearchLayer> > >(geode::modifier::ModifyBase<geode::modifier::ModifyDerive<LevelSearchLayerIDs, LevelSearchLayer> >&)
PUBLIC 73f0c 0 geode::modifier::ModifyBase<geode::modifier::ModifyDerive<LevelSearchLayerIDs, LevelSearchLayer> >::apply()
PUBLIC 73f10 0 geode::modifier::ModifyBase<geode::modifier::ModifyDerive<LevelSearchLayerIDs, LevelSearchLayer> >::setHookPriority(std::__ndk1::basic_string<char, std::__ndk1::char_traits<char>, std::__ndk1::allocator<char> > const&, int)
PUBLIC 740cc 0 geode::Hook::create<bool (*)(LevelSearchLayerIDs*, int)>(void*, bool (*)(LevelSearchLayerIDs*, int), std::__ndk1::basic_string<char, std::__ndk1::char_traits<char>, std::__ndk1::allocator<char> > const&, tulip::hook::TulipConvention, tulip::hook::HookMetadata const&)
PUBLIC 7424c 0 geode::modifier::AsStaticFunction_init<LevelSearchLayerIDs, bool (LevelSearchLayerIDs::*)(int)>::Impl<bool (LevelSearchLayerIDs::*)(int)>::function(LevelSearchLayerIDs*, int)
PUBLIC 74284 0 geode::NodeIDs::provide<LevelSearchLayerIDs>(LevelSearchLayerIDs*) const
PUBLIC 743a8 0 _GLOBAL__sub_I_LevelSearchLayer.cpp
PUBLIC 7445c 0 ProvideIDsForOptionsLayer::provide()
PUBLIC 755ac 0 __cxx_global_var_init.21
PUBLIC 75614 0 geode::modifier::ModifyBase<geode::modifier::ModifyDerive<OptionsLayerIDs, OptionsLayer> >::~ModifyBase()
PUBLIC 75630 0 geode::geodeInternalProvideIDsFor<ProvideIDsForOptionsLayer>(ProvideIDsForOptionsLayer*)
PUBLIC 75808 0 geode::EnterLayerEvent<ProvideIDsForOptionsLayer>::~EnterLayerEvent()
PUBLIC 7584c 0 geode::modifier::ModifyBase<geode::modifier::ModifyDerive<OptionsLayerIDs, OptionsLayer> >::ModifyBase()
PUBLIC 75ce4 0 geode::modifier::ModifyDerive<OptionsLayerIDs, OptionsLayer>::apply()
PUBLIC 75fc8 0 OptionsLayerIDs::onModify<geode::modifier::ModifyBase<geode::modifier::ModifyDerive<OptionsLayerIDs, OptionsLayer> > >(geode::modifier::ModifyBase<geode::modifier::ModifyDerive<OptionsLayerIDs, OptionsLayer> >&)
PUBLIC 760e8 0 geode::modifier::ModifyBase<geode::modifier::ModifyDerive<OptionsLayerIDs, OptionsLayer> >::apply()
PUBLIC 760ec 0 geode::modifier::ModifyBase<geode::modifier::ModifyDerive<OptionsLayerIDs, OptionsLayer> >::setHookPriority(std::__ndk1::basic_string<char, std::__ndk1::char_traits<char>, std::__ndk1::allocator<char> > const&, int)
PUBLIC 762a8 0 geode::Hook::create<void (*)(OptionsLayerIDs*)>(void*, void (*)(OptionsLayerIDs*), std::__ndk1::basic_string<char, std::__ndk1::char_traits<char>, std::__ndk1::allocator<char> > const&, tulip::hook::TulipConvention, tulip::hook::HookMetadata const&)
PUBLIC 763dc 0 geode::modifier::AsStaticFunction_customSetup<OptionsLayerIDs, void (OptionsLayerIDs::*)()>::Impl<void (OptionsLayerIDs::*)()>::function(OptionsLayerIDs*)
PUBLIC 76404 0 geode::addresser::Addresser::addressOfVirtual<void, OptionsLayer, >(void (OptionsLayer::*)())
PUBLIC 76524 0 geode::NodeIDs::provide<OptionsLayerIDs>(OptionsLayerIDs*) const
PUBLIC 76660 0 _GLOBAL__sub_I_OptionsLayer.cpp
PUBLIC 76720 0 ProvideIDsForPauseLayer::provide()
PUBLIC 771d8 0 getChildBySpriteFrameName(cocos2d::CCNode*, char const*)
PUBLIC 773c0 0 __cxx_global_var_init.39
PUBLIC 77428 0 geode::modifier::ModifyBase<geode::modifier::ModifyDerive<PauseLayerIDs, PauseLayer> >::~ModifyBase()
PUBLIC 77444 0 geode::geodeInternalProvideIDsFor<ProvideIDsForPauseLayer>(ProvideIDsForPauseLayer*)
PUBLIC 77610 0 geode::EnterLayerEvent<ProvideIDsForPauseLayer>::~EnterLayerEvent()
PUBLIC 77654 0 geode::modifier::ModifyBase<geode::modifier::ModifyDerive<PauseLayerIDs, PauseLayer> >::ModifyBase()
PUBLIC 77aec 0 geode::modifier::ModifyDerive<PauseLayerIDs, PauseLayer>::apply()
PUBLIC 77dc8 0 PauseLayerIDs::onModify<geode::modifier::ModifyBase<geode::modifier::ModifyDerive<PauseLayerIDs, PauseLayer> > >(geode::modifier::ModifyBase<geode::modifier::ModifyDerive<PauseLayerIDs, PauseLayer> >&)
PUBLIC 77ee8 0 geode::modifier::ModifyBase<geode::modifier::ModifyDerive<PauseLayerIDs, PauseLayer> >::apply()
PUBLIC 77eec 0 geode::modifier::ModifyBase<geode::modifier::ModifyDerive<PauseLayerIDs, PauseLayer> >::setHookPriority(std::__ndk1::basic_string<char, std::__ndk1::char_traits<char>, std::__ndk1::allocator<char> > const&, int)
PUBLIC 780a8 0 geode::Hook::create<void (*)(PauseLayerIDs*)>(void*, void (*)(PauseLayerIDs*), std::__ndk1::basic_string<char, std::__ndk1::char_traits<char>, std::__ndk1::allocator<char> > const&, tulip::hook::TulipConvention, tulip::hook::HookMetadata const&)
PUBLIC 781dc 0 geode::modifier::AsStaticFunction_customSetup<PauseLayerIDs, void (PauseLayerIDs::*)()>::Impl<void (PauseLayerIDs::*)()>::function(PauseLayerIDs*)
PUBLIC 78204 0 geode::addresser::Addresser::addressOfVirtual<void, PauseLayer, >(void (PauseLayer::*)())
PUBLIC 7831c 0 geode::NodeIDs::provide<PauseLayerIDs>(PauseLayerIDs*) const
PUBLIC 78450 0 _GLOBAL__sub_I_PauseLayer.cpp
PUBLIC 7850c 0 geode::node_ids::setIDSafe<GJEffectManager>(cocos2d::CCNode*, int, char const*)
PUBLIC 7873c 0 __cxx_global_var_init.7
PUBLIC 787a4 0 geode::modifier::ModifyBase<geode::modifier::ModifyDerive<PlayLayerIDs, PlayLayer> >::~ModifyBase()
PUBLIC 787c0 0 geode::geodeInternalProvideIDsFor<ProvideIDsForPlayLayer>(ProvideIDsForPlayLayer*)
PUBLIC 78a10 0 geode::EnterLayerEvent<ProvideIDsForPlayLayer>::~EnterLayerEvent()
PUBLIC 78a54 0 geode::modifier::ModifyBase<geode::modifier::ModifyDerive<PlayLayerIDs, PlayLayer> >::ModifyBase()
PUBLIC 78eec 0 geode::modifier::ModifyDerive<PlayLayerIDs, PlayLayer>::apply()
PUBLIC 79198 0 PlayLayerIDs::onModify<geode::modifier::ModifyBase<geode::modifier::ModifyDerive<PlayLayerIDs, PlayLayer> > >(geode::modifier::ModifyBase<geode::modifier::ModifyDerive<PlayLayerIDs, PlayLayer> >&)
PUBLIC 792a0 0 geode::modifier::ModifyBase<geode::modifier::ModifyDerive<PlayLayerIDs, PlayLayer> >::apply()
PUBLIC 792a4 0 geode::modifier::ModifyBase<geode::modifier::ModifyDerive<PlayLayerIDs, PlayLayer> >::setHookPriority(std::__ndk1::basic_string<char, std::__ndk1::char_traits<char>, std::__ndk1::allocator<char> > const&, int)
PUBLIC 79460 0 geode::Hook::create<bool (*)(PlayLayerIDs*, GJGameLevel*, bool, bool)>(void*, bool (*)(PlayLayerIDs*, GJGameLevel*, bool, bool), std::__ndk1::basic_string<char, std::__ndk1::char_traits<char>, std::__ndk1::allocator<char> > const&, tulip::hook::TulipConvention, tulip::hook::HookMetadata const&)
PUBLIC 79578 0 geode::modifier::AsStaticFunction_init<PlayLayerIDs, bool (PlayLayerIDs::*)(GJGameLevel*, bool, bool)>::Impl<bool (PlayLayerIDs::*)(GJGameLevel*, bool, bool)>::function(PlayLayerIDs*, GJGameLevel*, bool, bool)
PUBLIC 795b0 0 tulip::hook::AbstractFunction::from<bool, PlayLayerIDs*, GJGameLevel*, bool, bool>(bool (*)(PlayLayerIDs*, GJGameLevel*, bool, bool))
PUBLIC 79830 0 geode::NodeIDs::provide<PlayLayerIDs>(PlayLayerIDs*) const
PUBLIC 7995c 0 _GLOBAL__sub_I_PlayLayer.cpp
PUBLIC 79a14 0 ProvideIDsForPlayerObject::provide()
PUBLIC 79c90 0 __cxx_global_var_init.14
PUBLIC 79cf8 0 geode::modifier::ModifyBase<geode::modifier::ModifyDerive<PlayerObjectIDs, PlayerObject> >::~ModifyBase()
PUBLIC 79d14 0 geode::geodeInternalProvideIDsFor<ProvideIDsForPlayerObject>(ProvideIDsForPlayerObject*)
PUBLIC 79eec 0 geode::EnterLayerEvent<ProvideIDsForPlayerObject>::~EnterLayerEvent()
PUBLIC 79f30 0 geode::modifier::ModifyBase<geode::modifier::ModifyDerive<PlayerObjectIDs, PlayerObject> >::ModifyBase()
PUBLIC 7a3c8 0 geode::modifier::ModifyDerive<PlayerObjectIDs, PlayerObject>::apply()
PUBLIC 7a680 0 PlayerObjectIDs::onModify<geode::modifier::ModifyBase<geode::modifier::ModifyDerive<PlayerObjectIDs, PlayerObject> > >(geode::modifier::ModifyBase<geode::modifier::ModifyDerive<PlayerObjectIDs, PlayerObject> >&)
PUBLIC 7a788 0 geode::modifier::ModifyBase<geode::modifier::ModifyDerive<PlayerObjectIDs, PlayerObject> >::apply()
PUBLIC 7a78c 0 geode::modifier::ModifyBase<geode::modifier::ModifyDerive<PlayerObjectIDs, PlayerObject> >::setHookPriority(std::__ndk1::basic_string<char, std::__ndk1::char_traits<char>, std::__ndk1::allocator<char> > const&, int)
PUBLIC 7a948 0 geode::Hook::create<bool (*)(PlayerObjectIDs*, int, int, GJBaseGameLayer*, cocos2d::CCLayer*, bool)>(void*, bool (*)(PlayerObjectIDs*, int, int, GJBaseGameLayer*, cocos2d::CCLayer*, bool), std::__ndk1::basic_string<char, std::__ndk1::char_traits<char>, std::__ndk1::allocator<char> > const&, tulip::hook::TulipConvention, tulip::hook::HookMetadata const&)
PUBLIC 7aa60 0 geode::modifier::AsStaticFunction_init<PlayerObjectIDs, bool (PlayerObjectIDs::*)(int, int, GJBaseGameLayer*, cocos2d::CCLayer*, bool)>::Impl<bool (PlayerObjectIDs::*)(int, int, GJBaseGameLayer*, cocos2d::CCLayer*, bool)>::function(PlayerObjectIDs*, int, int, GJBaseGameLayer*, cocos2d::CCLayer*, bool)
PUBLIC 7aa98 0 tulip::hook::AbstractFunction::from<bool, PlayerObjectIDs*, int, int, GJBaseGameLayer*, cocos2d::CCLayer*, bool>(bool (*)(PlayerObjectIDs*, int, int, GJBaseGameLayer*, cocos2d::CCLayer*, bool))
PUBLIC 7af0c 0 geode::NodeIDs::provide<PlayerObjectIDs>(PlayerObjectIDs*) const
PUBLIC 7b048 0 _GLOBAL__sub_I_PlayerObject.cpp
PUBLIC 7b108 0 ProvideIDsForProfilePage::provide()
PUBLIC 7bdc8 0 wrapSimplePlayer(cocos2d::CCNode*, cocos2d::CCArray*, cocos2d::CCSize)
PUBLIC 7bfc8 0 __cxx_global_var_init.17
PUBLIC 7c030 0 geode::modifier::ModifyBase<geode::modifier::ModifyDerive<ProfilePageIDs, ProfilePage> >::~ModifyBase()
PUBLIC 7c04c 0 geode::geodeInternalProvideIDsFor<ProvideIDsForProfilePage>(ProvideIDsForProfilePage*)
PUBLIC 7c22c 0 geode::EnterLayerEvent<ProvideIDsForProfilePage>::~EnterLayerEvent()
PUBLIC 7c270 0 geode::modifier::ModifyBase<geode::modifier::ModifyDerive<ProfilePageIDs, ProfilePage> >::ModifyBase()
PUBLIC 7c708 0 geode::modifier::ModifyDerive<ProfilePageIDs, ProfilePage>::apply()
PUBLIC 7cc04 0 ProfilePageIDs::onModify<geode::modifier::ModifyBase<geode::modifier::ModifyDerive<ProfilePageIDs, ProfilePage> > >(geode::modifier::ModifyBase<geode::modifier::ModifyDerive<ProfilePageIDs, ProfilePage> >&)
PUBLIC 7cdac 0 geode::modifier::ModifyBase<geode::modifier::ModifyDerive<ProfilePageIDs, ProfilePage> >::apply()
PUBLIC 7cdb0 0 geode::modifier::ModifyBase<geode::modifier::ModifyDerive<ProfilePageIDs, ProfilePage> >::setHookPriority(std::__ndk1::basic_string<char, std::__ndk1::char_traits<char>, std::__ndk1::allocator<char> > const&, int)
PUBLIC 7cf6c 0 geode::Hook::create<bool (*)(ProfilePageIDs*, int, bool)>(void*, bool (*)(ProfilePageIDs*, int, bool), std::__ndk1::basic_string<char, std::__ndk1::char_traits<char>, std::__ndk1::allocator<char> > const&, tulip::hook::TulipConvention, tulip::hook::HookMetadata const&)
PUBLIC 7d084 0 geode::modifier::AsStaticFunction_init<ProfilePageIDs, bool (ProfilePageIDs::*)(int, bool)>::Impl<bool (ProfilePageIDs::*)(int, bool)>::function(ProfilePageIDs*, int, bool)
PUBLIC 7d0bc 0 geode::Hook::create<void (*)(ProfilePageIDs*, GJUserScore*)>(void*, void (*)(ProfilePageIDs*, GJUserScore*), std::__ndk1::basic_string<char, std::__ndk1::char_traits<char>, std::__ndk1::allocator<char> > const&, tulip::hook::TulipConvention, tulip::hook::HookMetadata const&)
PUBLIC 7d23c 0 geode::modifier::AsStaticFunction_loadPageFromUserInfo<ProfilePageIDs, void (ProfilePageIDs::*)(GJUserScore*)>::Impl<void (ProfilePageIDs::*)(GJUserScore*)>::function(ProfilePageIDs*, GJUserScore*)
PUBLIC 7d240 0 tulip::hook::AbstractFunction::from<bool, ProfilePageIDs*, int, bool>(bool (*)(ProfilePageIDs*, int, bool))
PUBLIC 7d3e0 0 geode::NodeIDs::provide<ProfilePageIDs>(ProfilePageIDs*) const
PUBLIC 7d51c 0 ProfilePageIDs::loadPageFromUserInfo(GJUserScore*)
PUBLIC 7f7a4 0 geode::node_ids::switchToMenu(cocos2d::CCNode*, cocos2d::CCNode*)
PUBLIC 7f8bc 0 _GLOBAL__sub_I_ProfilePage.cpp
PUBLIC 7f97c 0 ProvideIDsForRewardsPage::provide()
PUBLIC 80160 0 std::__ndk1::array<std::__ndk1::basic_string<char, std::__ndk1::char_traits<char>, std::__ndk1::allocator<char> >, (unsigned long)6>::~array()
PUBLIC 8020c 0 __cxx_global_var_init.24
PUBLIC 80274 0 geode::modifier::ModifyBase<geode::modifier::ModifyDerive<RewardsPageIDs, RewardsPage> >::~ModifyBase()
PUBLIC 80290 0 geode::geodeInternalProvideIDsFor<ProvideIDsForRewardsPage>(ProvideIDsForRewardsPage*)
PUBLIC 80470 0 geode::EnterLayerEvent<ProvideIDsForRewardsPage>::~EnterLayerEvent()
PUBLIC 804b4 0 geode::modifier::ModifyBase<geode::modifier::ModifyDerive<RewardsPageIDs, RewardsPage> >::ModifyBase()
PUBLIC 8094c 0 geode::modifier::ModifyDerive<RewardsPageIDs, RewardsPage>::apply()
PUBLIC 80bfc 0 RewardsPageIDs::onModify<geode::modifier::ModifyBase<geode::modifier::ModifyDerive<RewardsPageIDs, RewardsPage> > >(geode::modifier::ModifyBase<geode::modifier::ModifyDerive<RewardsPageIDs, RewardsPage> >&)
PUBLIC 80d00 0 geode::modifier::ModifyBase<geode::modifier::ModifyDerive<RewardsPageIDs, RewardsPage> >::apply()
PUBLIC 80d04 0 geode::modifier::ModifyBase<geode::modifier::ModifyDerive<RewardsPageIDs, RewardsPage> >::setHookPriority(std::__ndk1::basic_string<char, std::__ndk1::char_traits<char>, std::__ndk1::allocator<char> > const&, int)
PUBLIC 80ec0 0 geode::Hook::create<bool (*)(RewardsPageIDs*)>(void*, bool (*)(RewardsPageIDs*), std::__ndk1::basic_string<char, std::__ndk1::char_traits<char>, std::__ndk1::allocator<char> > const&, tulip::hook::TulipConvention, tulip::hook::HookMetadata const&)
PUBLIC 80ff4 0 geode::modifier::AsStaticFunction_init<RewardsPageIDs, bool (RewardsPageIDs::*)()>::Impl<bool (RewardsPageIDs::*)()>::function(RewardsPageIDs*)
PUBLIC 8102c 0 geode::addresser::Addresser::addressOfVirtual<bool, RewardsPage, >(bool (RewardsPage::*)())
PUBLIC 81154 0 geode::NodeIDs::provide<RewardsPageIDs>(RewardsPageIDs*) const
PUBLIC 81290 0 _GLOBAL__sub_I_RewardsPage.cpp
PUBLIC 81350 0 ProvideIDsForSetGroupIDLayer::provide()
PUBLIC 84074 0 geode::node_ids::setIDs<char const*, char const*, char const*, char const*, char const*, char const*, char const*, char const*, char const*, char const*, char const*, char const*, char const*, char const*, char const*, char const*, char const*, char const*, char const*, char const*, char const*>(cocos2d::CCNode*, int, char const*, char const*, char const*, char const*, char const*, char const*, char const*, char const*, char const*, char const*, char const*, char const*, char const*, char const*, char const*, char const*, char const*, char const*, char const*, char const*, char const*)
PUBLIC 84268 0 geode::node_ids::setIDs<char const*, char const*, char const*, char const*, char const*, char const*, char const*, char const*, char const*, char const*, char const*, char const*>(cocos2d::CCNode*, int*, char const*, char const*, char const*, char const*, char const*, char const*, char const*, char const*, char const*, char const*, char const*, char const*)
PUBLIC 84418 0 replaceInput(cocos2d::CCNode*, char const*, char const*, CCTextInputNode**)
PUBLIC 8481c 0 geode::node_ids::detachAndCreateMenu<cocos2d::CCNode*, >(cocos2d::CCNode*, char const*, cocos2d::Layout*, cocos2d::CCNode*, )
PUBLIC 84b24 0 geode::node_ids::detachAndCreateMenu<cocos2d::CCNode*, cocos2d::CCNode*, cocos2d::CCNode*, cocos2d::CCNode*, cocos2d::CCNode*>(cocos2d::CCNode*, char const*, cocos2d::Layout*, cocos2d::CCNode*, cocos2d::CCNode*, cocos2d::CCNode*, cocos2d::CCNode*, cocos2d::CCNode*)
PUBLIC 84e7c 0 offsetChildren(cocos2d::CCMenu*, cocos2d::CCPoint const&)
PUBLIC 84fdc 0 geode::node_ids::detachAndCreateMenu<cocos2d::CCNode*, cocos2d::CCNode*, cocos2d::CCNode*, cocos2d::CCNode*>(cocos2d::CCNode*, char const*, cocos2d::Layout*, cocos2d::CCNode*, cocos2d::CCNode*, cocos2d::CCNode*, cocos2d::CCNode*)
PUBLIC 85348 0 geode::node_ids::detachAndCreateMenu<cocos2d::CCNode*, cocos2d::CCNode*>(cocos2d::CCNode*, char const*, cocos2d::Layout*, cocos2d::CCNode*, cocos2d::CCNode*)
PUBLIC 85690 0 __cxx_global_var_init.84
PUBLIC 856f8 0 geode::modifier::ModifyBase<geode::modifier::ModifyDerive<SetGroupIDLayerIDs, SetGroupIDLayer> >::~ModifyBase()
PUBLIC 85714 0 geode::geodeInternalProvideIDsFor<ProvideIDsForSetGroupIDLayer>(ProvideIDsForSetGroupIDLayer*)
PUBLIC 858e8 0 geode::EnterLayerEvent<ProvideIDsForSetGroupIDLayer>::~EnterLayerEvent()
PUBLIC 8592c 0 geode::node_ids::switchToMenu(cocos2d::CCNode*, cocos2d::CCNode*)
PUBLIC 85a44 0 geode::modifier::ModifyBase<geode::modifier::ModifyDerive<SetGroupIDLayerIDs, SetGroupIDLayer> >::ModifyBase()
PUBLIC 85edc 0 geode::modifier::ModifyDerive<SetGroupIDLayerIDs, SetGroupIDLayer>::apply()
PUBLIC 86190 0 SetGroupIDLayerIDs::onModify<geode::modifier::ModifyBase<geode::modifier::ModifyDerive<SetGroupIDLayerIDs, SetGroupIDLayer> > >(geode::modifier::ModifyBase<geode::modifier::ModifyDerive<SetGroupIDLayerIDs, SetGroupIDLayer> >&)
PUBLIC 86298 0 geode::modifier::ModifyBase<geode::modifier::ModifyDerive<SetGroupIDLayerIDs, SetGroupIDLayer> >::apply()
PUBLIC 8629c 0 geode::modifier::ModifyBase<geode::modifier::ModifyDerive<SetGroupIDLayerIDs, SetGroupIDLayer> >::setHookPriority(std::__ndk1::basic_string<char, std::__ndk1::char_traits<char>, std::__ndk1::allocator<char> > const&, int)
PUBLIC 86458 0 geode::Hook::create<bool (*)(SetGroupIDLayerIDs*, GameObject*, cocos2d::CCArray*)>(void*, bool (*)(SetGroupIDLayerIDs*, GameObject*, cocos2d::CCArray*), std::__ndk1::basic_string<char, std::__ndk1::char_traits<char>, std::__ndk1::allocator<char> > const&, tulip::hook::TulipConvention, tulip::hook::HookMetadata const&)
PUBLIC 86570 0 geode::modifier::AsStaticFunction_init<SetGroupIDLayerIDs, bool (SetGroupIDLayerIDs::*)(GameObject*, cocos2d::CCArray*)>::Impl<bool (SetGroupIDLayerIDs::*)(GameObject*, cocos2d::CCArray*)>::function(SetGroupIDLayerIDs*, GameObject*, cocos2d::CCArray*)
PUBLIC 865b4 0 tulip::hook::AbstractFunction::from<bool, SetGroupIDLayerIDs*, GameObject*, cocos2d::CCArray*>(bool (*)(SetGroupIDLayerIDs*, GameObject*, cocos2d::CCArray*))
PUBLIC 86770 0 geode::NodeIDs::provide<SetGroupIDLayerIDs>(SetGroupIDLayerIDs*) const
PUBLIC 868a0 0 _GLOBAL__sub_I_SetGroupIDLayer.cpp
PUBLIC 8695c 0 ProvideIDsForUILayer::provide()
PUBLIC 86be8 0 __cxx_global_var_init.11
PUBLIC 86c50 0 geode::modifier::ModifyBase<geode::modifier::ModifyDerive<UILayerIDs, UILayer> >::~ModifyBase()
PUBLIC 86c6c 0 geode::geodeInternalProvideIDsFor<ProvideIDsForUILayer>(ProvideIDsForUILayer*)
PUBLIC 86e40 0 geode::EnterLayerEvent<ProvideIDsForUILayer>::~EnterLayerEvent()
PUBLIC 86e84 0 geode::modifier::ModifyBase<geode::modifier::ModifyDerive<UILayerIDs, UILayer> >::ModifyBase()
PUBLIC 8731c 0 geode::modifier::ModifyDerive<UILayerIDs, UILayer>::apply()
PUBLIC 875c8 0 UILayerIDs::onModify<geode::modifier::ModifyBase<geode::modifier::ModifyDerive<UILayerIDs, UILayer> > >(geode::modifier::ModifyBase<geode::modifier::ModifyDerive<UILayerIDs, UILayer> >&)
PUBLIC 876d0 0 geode::modifier::ModifyBase<geode::modifier::ModifyDerive<UILayerIDs, UILayer> >::apply()
PUBLIC 876d4 0 geode::modifier::ModifyBase<geode::modifier::ModifyDerive<UILayerIDs, UILayer> >::setHookPriority(std::__ndk1::basic_string<char, std::__ndk1::char_traits<char>, std::__ndk1::allocator<char> > const&, int)
PUBLIC 87890 0 geode::Hook::create<bool (*)(UILayerIDs*, GJBaseGameLayer*)>(void*, bool (*)(UILayerIDs*, GJBaseGameLayer*), std::__ndk1::basic_string<char, std::__ndk1::char_traits<char>, std::__ndk1::allocator<char> > const&, tulip::hook::TulipConvention, tulip::hook::HookMetadata const&)
PUBLIC 87a10 0 geode::modifier::AsStaticFunction_init<UILayerIDs, bool (UILayerIDs::*)(GJBaseGameLayer*)>::Impl<bool (UILayerIDs::*)(GJBaseGameLayer*)>::function(UILayerIDs*, GJBaseGameLayer*)
PUBLIC 87a48 0 geode::NodeIDs::provide<UILayerIDs>(UILayerIDs*) const
PUBLIC 87b80 0 _GLOBAL__sub_I_UILayer.cpp
PUBLIC 87c3c 0 helpGeodeUpdate()
PUBLIC 87e48 0 geode::Mod::getSavedValue<std::__ndk1::basic_string<char, std::__ndk1::char_traits<char>, std::__ndk1::allocator<char> > >(std::__ndk1::basic_string_view<char, std::__ndk1::char_traits<char> >)
PUBLIC 87fe8 0 geode::Mod::setSavedValue<std::__ndk1::basic_string<char, std::__ndk1::char_traits<char>, std::__ndk1::allocator<char> > >(std::__ndk1::basic_string_view<char, std::__ndk1::char_traits<char> >, std::__ndk1::basic_string<char, std::__ndk1::char_traits<char>, std::__ndk1::allocator<char> > const&)
PUBLIC 881a4 0 geodeExecFunction14<(anonymous namespace)::ExecFuncUnique14>(geode::ModStateEvent*)
PUBLIC 881a8 0 geode::EventListener<geode::ModStateFilter>::getPool() const
PUBLIC 881ac 0 geode::EventListener<geode::ModStateFilter>::handle(geode::Event*)
PUBLIC 882b4 0 geode::EventListener<geode::ModStateFilter>::~EventListener()
PUBLIC 882f4 0 geode::EventListener<geode::ModStateFilter>::~EventListener()
PUBLIC 8833c 0 geode::utils::MiniFunctionStateBase<void, geode::ModStateEvent*>::~MiniFunctionStateBase()
PUBLIC 88340 0 geode::utils::MiniFunctionState<void (*)(geode::ModStateEvent*), void, geode::ModStateEvent*>::~MiniFunctionState()
PUBLIC 88344 0 geode::utils::MiniFunctionState<void (*)(geode::ModStateEvent*), void, geode::ModStateEvent*>::call(geode::ModStateEvent*) const
PUBLIC 88350 0 geode::utils::MiniFunctionState<void (*)(geode::ModStateEvent*), void, geode::ModStateEvent*>::clone() const
PUBLIC 88384 0 _GLOBAL__sub_I_main.cpp
PUBLIC 88484 0 geode::getMod()
PUBLIC 884c0 0 _GLOBAL__sub_I_entry.cpp
PUBLIC 8850c 0 cocos2d::CCDestructor::lock(void*)
PUBLIC m 885f4 0 cocos2d::CCDestructor::~CCDestructor()
PUBLIC 886f4 0 wrapFunction(unsigned long, tulip::hook::WrapperMetadata const&)
PUBLIC 88830 0 tulip::hook::Result<void*, std::__ndk1::basic_string<char, std::__ndk1::char_traits<char>, std::__ndk1::allocator<char> > >::unwrapErr() &
PUBLIC 888ec 0 tulip::hook::Result<void*, std::__ndk1::basic_string<char, std::__ndk1::char_traits<char>, std::__ndk1::allocator<char> > >::unwrap() &
PUBLIC 889ec 0 tulip::hook::WrapperMetadata::~WrapperMetadata()
PUBLIC m 88a50 0 cocos2d::CCNode::CCNode()
PUBLIC m 88bdc 0 cocos2d::CCObject::CCObject()
PUBLIC m 88d48 0 cocos2d::CCNode::~CCNode()
PUBLIC 88fd4 0 cocos2d::CCNode::~CCNode()
PUBLIC 88ff8 0 {virtual override thunk({offset(-320)}, cocos2d::CCLayer::~CCLayer())}
PUBLIC 89000 0 cocos2d::CCLayer::~CCLayer()
PUBLIC 89024 0 {virtual override thunk({offset(-320)}, cocos2d::CCLayer::~CCLayer())}
PUBLIC 8904c 0 cocos2d::CCObject::~CCObject()
PUBLIC m 89070 0 cocos2d::CCNodeRGBA::CCNodeRGBA()
PUBLIC m 891e8 0 cocos2d::CCNodeRGBA::~CCNodeRGBA()
PUBLIC 8948c 0 cocos2d::CCNodeRGBA::~CCNodeRGBA()
PUBLIC 894b0 0 cocos2d::CCDictionary::objectForKey(gd::string const&)
PUBLIC 895f0 0 tulip::hook::AbstractFunction::from<cocos2d::CCObject*, cocos2d::CCDictionary*, gd::string const&>(cocos2d::CCObject* (*)(cocos2d::CCDictionary*, gd::string const&))
PUBLIC 896b8 0 cocos2d::CCMenuItem::~CCMenuItem()
PUBLIC 896dc 0 FLAlertLayer::init(FLAlertLayerProtocol*, char const*, gd::string, char const*, char const*, float, bool, float, float)
PUBLIC 898b4 0 tulip::hook::AbstractFunction::from<bool, FLAlertLayer*, FLAlertLayerProtocol*, char const*, gd::string, char const*, char const*, float, bool, float, float>(bool (*)(FLAlertLayer*, FLAlertLayerProtocol*, char const*, gd::string, char const*, char const*, float, bool, float, float))
PUBLIC m 8a1a8 0 CCIndexPath::CCIndexPath()
PUBLIC m 8a1d4 0 cocos2d::CCObject::~CCObject()
PUBLIC 8a428 0 {virtual override thunk({offset(-320)}, TableViewCell::~TableViewCell())}
PUBLIC 8a430 0 TableViewCell::~TableViewCell()
PUBLIC 8a454 0 {virtual override thunk({offset(-320)}, TableViewCell::~TableViewCell())}
PUBLIC m 8a47c 0 CCMenuItemSpriteExtra::~CCMenuItemSpriteExtra()
PUBLIC m 8a4c0 0 cocos2d::CCMenuItem::~CCMenuItem()
PUBLIC 8a76c 0 CCMenuItemSpriteExtra::~CCMenuItemSpriteExtra()
PUBLIC m 8a7b8 0 CCMenuItemSpriteExtra::CCMenuItemSpriteExtra()
PUBLIC 8a878 0 CCTextInputNode::getString()
PUBLIC 8a8ac 0 GameManager::get()
PUBLIC 8a8b0 0 GameStatsManager::hasCompletedLevel(GJGameLevel*)
PUBLIC 8a940 0 GameStatsManager::hasCompletedMainLevel(int)
PUBLIC 8a9dc 0 tulip::hook::AbstractFunction::from<bool, GameStatsManager*, gd::string>(bool (*)(GameStatsManager*, gd::string))
PUBLIC 8aa9c 0 GameStatsManager::isSpecialChestUnlocked(gd::string)
PUBLIC m 8ac0c 0 TableViewCell::~TableViewCell()
PUBLIC 8af14 0 PlatformToolbox::isControllerConnected()
PUBLIC 8af1c 0 PlayLayer::get()
PUBLIC m 8af34 0 cocos2d::CCLayer::~CCLayer()
PUBLIC 8b210 0 cocos2d::CCObject::update(float)
PUBLIC 8b214 0 CCIndexPath::~CCIndexPath()
PUBLIC 8b238 0 tulip::hook::lib::bitwizeshift::bad_result_access<std::__ndk1::basic_string<char, std::__ndk1::char_traits<char>, std::__ndk1::allocator<char> > >::~bad_result_access()
PUBLIC 8b274 0 tulip::hook::lib::bitwizeshift::bad_result_access<std::__ndk1::basic_string<char, std::__ndk1::char_traits<char>, std::__ndk1::allocator<char> > >::~bad_result_access()
PUBLIC 8b2b8 0 std::__ndk1::__hash_table<std::__ndk1::__hash_value_type<void*, bool>, std::__ndk1::__unordered_map_hasher<void*, std::__ndk1::__hash_value_type<void*, bool>, std::__ndk1::hash<void*>, std::__ndk1::equal_to<void*>, true>, std::__ndk1::__unordered_map_equal<void*, std::__ndk1::__hash_value_type<void*, bool>, std::__ndk1::equal_to<void*>, std::__ndk1::hash<void*>, true>, std::__ndk1::allocator<std::__ndk1::__hash_value_type<void*, bool> > >::__emplace_unique_key_args<void*, std::__ndk1::piecewise_construct_t const&, std::__ndk1::tuple<void* const&>, std::__ndk1::tuple<> >(void* const&, std::__ndk1::piecewise_construct_t const&, std::__ndk1::tuple<void* const&>, std::__ndk1::tuple<>)
PUBLIC 8b614 0 std::__ndk1::__hash_table<std::__ndk1::__hash_value_type<void*, bool>, std::__ndk1::__unordered_map_hasher<void*, std::__ndk1::__hash_value_type<void*, bool>, std::__ndk1::hash<void*>, std::__ndk1::equal_to<void*>, true>, std::__ndk1::__unordered_map_equal<void*, std::__ndk1::__hash_value_type<void*, bool>, std::__ndk1::equal_to<void*>, std::__ndk1::hash<void*>, true>, std::__ndk1::allocator<std::__ndk1::__hash_value_type<void*, bool> > >::__do_rehash<true>(unsigned long)
PUBLIC 8b7ec 0 std::__ndk1::__hash_table<std::__ndk1::__hash_value_type<void*, bool>, std::__ndk1::__unordered_map_hasher<void*, std::__ndk1::__hash_value_type<void*, bool>, std::__ndk1::hash<void*>, std::__ndk1::equal_to<void*>, true>, std::__ndk1::__unordered_map_equal<void*, std::__ndk1::__hash_value_type<void*, bool>, std::__ndk1::equal_to<void*>, std::__ndk1::hash<void*>, true>, std::__ndk1::allocator<std::__ndk1::__hash_value_type<void*, bool> > >::find<void*>(void* const&)
PUBLIC 8b900 0 std::__ndk1::__hash_table<std::__ndk1::__hash_value_type<void*, bool>, std::__ndk1::__unordered_map_hasher<void*, std::__ndk1::__hash_value_type<void*, bool>, std::__ndk1::hash<void*>, std::__ndk1::equal_to<void*>, true>, std::__ndk1::__unordered_map_equal<void*, std::__ndk1::__hash_value_type<void*, bool>, std::__ndk1::equal_to<void*>, std::__ndk1::hash<void*>, true>, std::__ndk1::allocator<std::__ndk1::__hash_value_type<void*, bool> > >::remove(std::__ndk1::__hash_const_iterator<std::__ndk1::__hash_node<std::__ndk1::__hash_value_type<void*, bool>, void*>*>)
PUBLIC 8ba34 0 fmt::v10::detail::throw_format_error(char const*)
PUBLIC m 8ba84 0 fmt::v10::format_error::runtime_error(char const*)
PUBLIC 8bab4 0 fmt::v10::detail::write_loc(fmt::v10::appender, fmt::v10::loc_value, fmt::v10::format_specs<char> const&, fmt::v10::detail::locale_ref)
PUBLIC 8bc40 0 fmt::v10::format_facet<std::__ndk1::locale>::format_facet(std::__ndk1::locale&)
PUBLIC 8bdd8 0 fmt::v10::format_facet<std::__ndk1::locale>::~format_facet()
PUBLIC 8be54 0 fmt::v10::format_facet<std::__ndk1::locale>::do_put(fmt::v10::appender, fmt::v10::loc_value, fmt::v10::format_specs<char> const&) const
PUBLIC 8c15c 0 fmt::v10::loc_value::visit<fmt::v10::detail::loc_writer<char> >(fmt::v10::detail::loc_writer<char>&&)
PUBLIC 8c1e4 0 fmt::v10::detail::loc_writer<char>::~loc_writer()
PUBLIC 8c248 0 fmt::v10::vformat(fmt::v10::basic_string_view<char>, fmt::v10::basic_format_args<fmt::v10::basic_format_context<fmt::v10::appender, char> >)
PUBLIC 8c36c 0 fmt::v10::detail::vformat_to<char>(fmt::v10::detail::buffer<char>&, fmt::v10::basic_string_view<char>, fmt::v10::detail::vformat_args<char>::type, fmt::v10::detail::locale_ref)
PUBLIC 8ca6c 0 fmt::v10::detail::is_printable(unsigned int)
PUBLIC 8cc90 0 fmt::v10::detail::dragonbox::to_decimal<float>(float)
PUBLIC 8cf98 0 fmt::v10::detail::dragonbox::to_decimal<double>(double)
PUBLIC 8d544 0 fmt::v10::detail::thousands_sep_impl<char>(fmt::v10::detail::locale_ref)
PUBLIC m 8d65c 0 fmt::v10::format_error::~format_error()
PUBLIC 8d680 0 fmt::v10::basic_memory_buffer<char, (unsigned long)500, std::__ndk1::allocator<char> >::grow(unsigned long)
PUBLIC 8d7b8 0 fmt::v10::format_facet<std::__ndk1::locale>::~format_facet()
PUBLIC 8d844 0 fmt::v10::detail::write<char, fmt::v10::appender, int, 0>(fmt::v10::appender, int)
PUBLIC 8da7c 0 fmt::v10::detail::copy_str_noinline<char, char*, fmt::v10::appender>(char*, char*, fmt::v10::appender)
PUBLIC 8dbe8 0 fmt::v10::detail::write<char, fmt::v10::appender, unsigned int, 0>(fmt::v10::appender, unsigned int)
PUBLIC 8dd94 0 fmt::v10::detail::write<char, fmt::v10::appender, long long, 0>(fmt::v10::appender, long long)
PUBLIC 8dff0 0 fmt::v10::detail::write<char, fmt::v10::appender, unsigned long long, 0>(fmt::v10::appender, unsigned long long)
PUBLIC 8e1c4 0 fmt::v10::detail::write<char, fmt::v10::appender, __int128, 0>(fmt::v10::appender, __int128)
PUBLIC 8e510 0 fmt::v10::detail::write<char, fmt::v10::appender, unsigned __int128, 0>(fmt::v10::appender, unsigned __int128)
PUBLIC 8e7e4 0 fmt::v10::detail::write<char, fmt::v10::appender, bool, 0>(fmt::v10::appender, bool, fmt::v10::format_specs<char> const&, fmt::v10::detail::locale_ref)
PUBLIC 8e920 0 fmt::v10::detail::write_bytes<(fmt::v10::align::type)1, char, fmt::v10::appender>(fmt::v10::appender, fmt::v10::basic_string_view<char>, fmt::v10::format_specs<char> const&)
PUBLIC 8eb08 0 fmt::v10::detail::write_int_noinline<char, fmt::v10::appender, unsigned int>(fmt::v10::appender, fmt::v10::detail::write_int_arg<unsigned int>, fmt::v10::format_specs<char> const&, fmt::v10::detail::locale_ref)
PUBLIC 8f5f8 0 fmt::v10::detail::fill<fmt::v10::appender, char>(fmt::v10::appender, unsigned long, fmt::v10::detail::fill_t<char> const&)
PUBLIC 8f7e8 0 fmt::v10::detail::write_int<fmt::v10::appender, char, fmt::v10::detail::write_int<char, fmt::v10::appender, unsigned int>(fmt::v10::appender, fmt::v10::detail::write_int_arg<unsigned int>, fmt::v10::format_specs<char> const&, fmt::v10::detail::locale_ref)::{lambda(fmt::v10::appender)#1}>(fmt::v10::appender, int, unsigned int, fmt::v10::format_specs<char> const&, fmt::v10::detail::write_int<char, fmt::v10::appender, unsigned int>(fmt::v10::appender, fmt::v10::detail::write_int_arg<unsigned int>, fmt::v10::format_specs<char> const&, fmt::v10::detail::locale_ref)::{lambda(fmt::v10::appender)#1})::{lambda(fmt::v10::appender(fmt::v10::appender))#1}::operator() const
PUBLIC 8f978 0 fmt::v10::detail::write_int<fmt::v10::appender, char, fmt::v10::detail::write_int<char, fmt::v10::appender, unsigned int>(fmt::v10::appender, fmt::v10::detail::write_int_arg<unsigned int>, fmt::v10::format_specs<char> const&, fmt::v10::detail::locale_ref)::{lambda(fmt::v10::appender)#2}>(fmt::v10::appender, int, unsigned int, fmt::v10::format_specs<char> const&, fmt::v10::detail::write_int<char, fmt::v10::appender, unsigned int>(fmt::v10::appender, fmt::v10::detail::write_int_arg<unsigned int>, fmt::v10::format_specs<char> const&, fmt::v10::detail::locale_ref)::{lambda(fmt::v10::appender)#2})::{lambda(fmt::v10::appender(fmt::v10::appender))#1}::operator() const
PUBLIC 8fb38 0 fmt::v10::detail::write_escaped_char<char, fmt::v10::appender>(fmt::v10::appender, char)
PUBLIC 8fcb8 0 fmt::v10::detail::write_escaped_cp<fmt::v10::appender, char>(fmt::v10::appender, fmt::v10::detail::find_escape_result<char> const&)
PUBLIC 8feb4 0 fmt::v10::detail::write_codepoint<(unsigned long)2, char, fmt::v10::appender>(fmt::v10::appender, char, unsigned int)
PUBLIC 90034 0 fmt::v10::detail::write_codepoint<(unsigned long)4, char, fmt::v10::appender>(fmt::v10::appender, char, unsigned int)
PUBLIC 901b4 0 fmt::v10::detail::write_codepoint<(unsigned long)8, char, fmt::v10::appender>(fmt::v10::appender, char, unsigned int)
PUBLIC 90334 0 fmt::v10::detail::write_padded<(fmt::v10::align::type)1, fmt::v10::appender, char, fmt::v10::detail::write_nonfinite<char, fmt::v10::appender>(fmt::v10::appender, bool, fmt::v10::format_specs<char>, fmt::v10::detail::float_specs const&)::{lambda(fmt::v10::appender&)#1}>(fmt::v10::appender, fmt::v10::format_specs<char> const&, unsigned long, unsigned long, fmt::v10::detail::write_nonfinite<char, fmt::v10::appender>(fmt::v10::appender, bool, fmt::v10::format_specs<char>, fmt::v10::detail::float_specs const&)::{lambda(fmt::v10::appender&)#1})
PUBLIC 90578 0 fmt::v10::detail::do_write_float<fmt::v10::appender, fmt::v10::detail::dragonbox::decimal_fp<float>, char, fmt::v10::detail::digit_grouping<char> >(fmt::v10::appender, fmt::v10::detail::dragonbox::decimal_fp<float> const&, fmt::v10::format_specs<char> const&, fmt::v10::detail::float_specs, fmt::v10::detail::locale_ref)
PUBLIC 90c04 0 fmt::v10::detail::do_write_float<fmt::v10::appender, fmt::v10::detail::dragonbox::decimal_fp<float>, char, fmt::v10::detail::digit_grouping<char> >(fmt::v10::appender, fmt::v10::detail::dragonbox::decimal_fp<float> const&, fmt::v10::format_specs<char> const&, fmt::v10::detail::float_specs, fmt::v10::detail::locale_ref)::{lambda(fmt::v10::appender(fmt::v10::appender))#1}::operator() const
PUBLIC 90d58 0 fmt::v10::detail::digit_grouping<char>::digit_grouping(fmt::v10::detail::locale_ref, bool)
PUBLIC 90f18 0 fmt::v10::detail::digit_grouping<char>::~digit_grouping()
PUBLIC 90f5c 0 fmt::v10::detail::write_exponent<char, fmt::v10::appender>(int, fmt::v10::appender)
PUBLIC 91144 0 fmt::v10::detail::write_significand<char, unsigned int, 0>(char*, unsigned int, int, int, char)
PUBLIC 912cc 0 fmt::v10::detail::do_write_float<fmt::v10::appender, fmt::v10::detail::dragonbox::decimal_fp<float>, char, fmt::v10::detail::digit_grouping<char> >(fmt::v10::appender, fmt::v10::detail::dragonbox::decimal_fp<float> const&, fmt::v10::format_specs<char> const&, fmt::v10::detail::float_specs, fmt::v10::detail::locale_ref)::{lambda(fmt::v10::appender(fmt::v10::appender))#2}::operator() const
PUBLIC 91408 0 fmt::v10::detail::write_significand<char, fmt::v10::appender, unsigned int, fmt::v10::detail::digit_grouping<char> >(fmt::v10::appender, unsigned int, int, int, fmt::v10::detail::digit_grouping<char> const&)
PUBLIC 916cc 0 fmt::v10::detail::digit_grouping<char>::apply<fmt::v10::appender, char>(fmt::v10::appender, fmt::v10::basic_string_view<char>) const
PUBLIC 91aa8 0 fmt::v10::basic_memory_buffer<int, (unsigned long)500, std::__ndk1::allocator<int> >::grow(unsigned long)
PUBLIC 91bb8 0 fmt::v10::detail::write_padded<(fmt::v10::align::type)2, fmt::v10::appender, char, fmt::v10::detail::do_write_float<fmt::v10::appender, fmt::v10::detail::dragonbox::decimal_fp<float>, char, fmt::v10::detail::digit_grouping<char> >(fmt::v10::appender, fmt::v10::detail::dragonbox::decimal_fp<float> const&, fmt::v10::format_specs<char> const&, fmt::v10::detail::float_specs, fmt::v10::detail::locale_ref)::{lambda(fmt::v10::appender&)#3}>(fmt::v10::appender, fmt::v10::format_specs<char> const&, unsigned long, unsigned long, fmt::v10::detail::do_write_float<fmt::v10::appender, fmt::v10::detail::dragonbox::decimal_fp<float>, char, fmt::v10::detail::digit_grouping<char> >(fmt::v10::appender, fmt::v10::detail::dragonbox::decimal_fp<float> const&, fmt::v10::format_specs<char> const&, fmt::v10::detail::float_specs, fmt::v10::detail::locale_ref)::{lambda(fmt::v10::appender&)#3})
PUBLIC 91d24 0 fmt::v10::detail::write_significand<fmt::v10::appender, char, unsigned int, fmt::v10::detail::digit_grouping<char> >(fmt::v10::appender, unsigned int, int, int, char, fmt::v10::detail::digit_grouping<char> const&)
PUBLIC 91e68 0 fmt::v10::detail::do_write_float<fmt::v10::appender, fmt::v10::detail::dragonbox::decimal_fp<float>, char, fmt::v10::detail::digit_grouping<char> >(fmt::v10::appender, fmt::v10::detail::dragonbox::decimal_fp<float> const&, fmt::v10::format_specs<char> const&, fmt::v10::detail::float_specs, fmt::v10::detail::locale_ref)::{lambda(fmt::v10::appender(fmt::v10::appender))#4}::operator() const
PUBLIC 9208c 0 fmt::v10::detail::do_write_float<fmt::v10::appender, fmt::v10::detail::dragonbox::decimal_fp<double>, char, fmt::v10::detail::digit_grouping<char> >(fmt::v10::appender, fmt::v10::detail::dragonbox::decimal_fp<double> const&, fmt::v10::format_specs<char> const&, fmt::v10::detail::float_specs, fmt::v10::detail::locale_ref)
PUBLIC 92724 0 fmt::v10::detail::do_write_float<fmt::v10::appender, fmt::v10::detail::dragonbox::decimal_fp<double>, char, fmt::v10::detail::digit_grouping<char> >(fmt::v10::appender, fmt::v10::detail::dragonbox::decimal_fp<double> const&, fmt::v10::format_specs<char> const&, fmt::v10::detail::float_specs, fmt::v10::detail::locale_ref)::{lambda(fmt::v10::appender(fmt::v10::appender))#1}::operator() const
PUBLIC 9287c 0 fmt::v10::detail::write_significand<char, unsigned long, 0>(char*, unsigned long, int, int, char)
PUBLIC 92a28 0 fmt::v10::detail::do_write_float<fmt::v10::appender, fmt::v10::detail::dragonbox::decimal_fp<double>, char, fmt::v10::detail::digit_grouping<char> >(fmt::v10::appender, fmt::v10::detail::dragonbox::decimal_fp<double> const&, fmt::v10::format_specs<char> const&, fmt::v10::detail::float_specs, fmt::v10::detail::locale_ref)::{lambda(fmt::v10::appender(fmt::v10::appender))#2}::operator() const
PUBLIC 92b64 0 fmt::v10::detail::write_significand<char, fmt::v10::appender, unsigned long, fmt::v10::detail::digit_grouping<char> >(fmt::v10::appender, unsigned long, int, int, fmt::v10::detail::digit_grouping<char> const&)
PUBLIC 92e40 0 fmt::v10::detail::write_padded<(fmt::v10::align::type)2, fmt::v10::appender, char, fmt::v10::detail::do_write_float<fmt::v10::appender, fmt::v10::detail::dragonbox::decimal_fp<double>, char, fmt::v10::detail::digit_grouping<char> >(fmt::v10::appender, fmt::v10::detail::dragonbox::decimal_fp<double> const&, fmt::v10::format_specs<char> const&, fmt::v10::detail::float_specs, fmt::v10::detail::locale_ref)::{lambda(fmt::v10::appender&)#3}>(fmt::v10::appender, fmt::v10::format_specs<char> const&, unsigned long, unsigned long, fmt::v10::detail::do_write_float<fmt::v10::appender, fmt::v10::detail::dragonbox::decimal_fp<double>, char, fmt::v10::detail::digit_grouping<char> >(fmt::v10::appender, fmt::v10::detail::dragonbox::decimal_fp<double> const&, fmt::v10::format_specs<char> const&, fmt::v10::detail::float_specs, fmt::v10::detail::locale_ref)::{lambda(fmt::v10::appender&)#3})
PUBLIC 92fac 0 fmt::v10::detail::write_significand<fmt::v10::appender, char, unsigned long, fmt::v10::detail::digit_grouping<char> >(fmt::v10::appender, unsigned long, int, int, char, fmt::v10::detail::digit_grouping<char> const&)
PUBLIC 930f0 0 fmt::v10::detail::do_write_float<fmt::v10::appender, fmt::v10::detail::dragonbox::decimal_fp<double>, char, fmt::v10::detail::digit_grouping<char> >(fmt::v10::appender, fmt::v10::detail::dragonbox::decimal_fp<double> const&, fmt::v10::format_specs<char> const&, fmt::v10::detail::float_specs, fmt::v10::detail::locale_ref)::{lambda(fmt::v10::appender(fmt::v10::appender))#4}::operator() const
PUBLIC 93320 0 fmt::v10::detail::write_float<char, fmt::v10::appender, long double>(fmt::v10::appender, long double, fmt::v10::format_specs<char>, fmt::v10::detail::locale_ref)
PUBLIC 9375c 0 fmt::v10::detail::format_hexfloat<long double, 0>(long double, int, fmt::v10::detail::float_specs, fmt::v10::detail::buffer<char>&)
PUBLIC 93d0c 0 fmt::v10::detail::write_bytes<(fmt::v10::align::type)2, char, fmt::v10::appender>(fmt::v10::appender, fmt::v10::basic_string_view<char>, fmt::v10::format_specs<char> const&)
PUBLIC 93ef4 0 fmt::v10::detail::format_float<long double>(long double, int, fmt::v10::detail::float_specs, fmt::v10::detail::buffer<char>&)
PUBLIC 941c0 0 fmt::v10::detail::format_dragon(fmt::v10::detail::basic_fp<unsigned __int128>, unsigned int, int, fmt::v10::detail::buffer<char>&, int&)
PUBLIC 95614 0 fmt::v10::detail::bigint::operator<<=(int)
PUBLIC 95744 0 fmt::v10::detail::bigint::assign_pow10(int)
PUBLIC 958b4 0 fmt::v10::detail::bigint::divmod_assign(fmt::v10::detail::bigint const&)
PUBLIC 95c28 0 fmt::v10::basic_memory_buffer<unsigned int, (unsigned long)32, std::__ndk1::allocator<unsigned int> >::grow(unsigned long)
PUBLIC 95d38 0 fmt::v10::detail::bigint::square()
PUBLIC 962e8 0 fmt::v10::detail::do_write_float<fmt::v10::appender, fmt::v10::detail::big_decimal_fp, char, fmt::v10::detail::digit_grouping<char> >(fmt::v10::appender, fmt::v10::detail::big_decimal_fp const&, fmt::v10::format_specs<char> const&, fmt::v10::detail::float_specs, fmt::v10::detail::locale_ref)
PUBLIC 9695c 0 fmt::v10::detail::do_write_float<fmt::v10::appender, fmt::v10::detail::big_decimal_fp, char, fmt::v10::detail::digit_grouping<char> >(fmt::v10::appender, fmt::v10::detail::big_decimal_fp const&, fmt::v10::format_specs<char> const&, fmt::v10::detail::float_specs, fmt::v10::detail::locale_ref)::{lambda(fmt::v10::appender(fmt::v10::appender))#1}::operator() const
PUBLIC 96ad8 0 fmt::v10::detail::copy_str_noinline<char, char const*, fmt::v10::appender>(char const*, char const*, fmt::v10::appender)
PUBLIC 96c44 0 fmt::v10::detail::do_write_float<fmt::v10::appender, fmt::v10::detail::big_decimal_fp, char, fmt::v10::detail::digit_grouping<char> >(fmt::v10::appender, fmt::v10::detail::big_decimal_fp const&, fmt::v10::format_specs<char> const&, fmt::v10::detail::float_specs, fmt::v10::detail::locale_ref)::{lambda(fmt::v10::appender(fmt::v10::appender))#2}::operator() const
PUBLIC 96d80 0 fmt::v10::detail::write_significand<char, fmt::v10::appender, char const*, fmt::v10::detail::digit_grouping<char> >(fmt::v10::appender, char const*, int, int, fmt::v10::detail::digit_grouping<char> const&)
PUBLIC 971a4 0 fmt::v10::detail::write_padded<(fmt::v10::align::type)2, fmt::v10::appender, char, fmt::v10::detail::do_write_float<fmt::v10::appender, fmt::v10::detail::big_decimal_fp, char, fmt::v10::detail::digit_grouping<char> >(fmt::v10::appender, fmt::v10::detail::big_decimal_fp const&, fmt::v10::format_specs<char> const&, fmt::v10::detail::float_specs, fmt::v10::detail::locale_ref)::{lambda(fmt::v10::appender&)#3}>(fmt::v10::appender, fmt::v10::format_specs<char> const&, unsigned long, unsigned long, fmt::v10::detail::do_write_float<fmt::v10::appender, fmt::v10::detail::big_decimal_fp, char, fmt::v10::detail::digit_grouping<char> >(fmt::v10::appender, fmt::v10::detail::big_decimal_fp const&, fmt::v10::format_specs<char> const&, fmt::v10::detail::float_specs, fmt::v10::detail::locale_ref)::{lambda(fmt::v10::appender&)#3})
PUBLIC 97310 0 fmt::v10::detail::write_significand<fmt::v10::appender, char, char const*, fmt::v10::detail::digit_grouping<char> >(fmt::v10::appender, char const*, int, int, char, fmt::v10::detail::digit_grouping<char> const&)
PUBLIC 97538 0 fmt::v10::detail::do_write_float<fmt::v10::appender, fmt::v10::detail::big_decimal_fp, char, fmt::v10::detail::digit_grouping<char> >(fmt::v10::appender, fmt::v10::detail::big_decimal_fp const&, fmt::v10::format_specs<char> const&, fmt::v10::detail::float_specs, fmt::v10::detail::locale_ref)::{lambda(fmt::v10::appender(fmt::v10::appender))#4}::operator() const
PUBLIC 977dc 0 fmt::v10::detail::write_padded<(fmt::v10::align::type)2, fmt::v10::appender, char, fmt::v10::detail::write_ptr<char, fmt::v10::appender, unsigned long>(fmt::v10::appender, unsigned long, fmt::v10::format_specs<char> const*)::{lambda(fmt::v10::appender&)#1}>(fmt::v10::appender, fmt::v10::format_specs<char> const&, unsigned long, unsigned long, fmt::v10::detail::write_ptr<char, fmt::v10::appender, unsigned long>(fmt::v10::appender, unsigned long, fmt::v10::format_specs<char> const*)::{lambda(fmt::v10::appender&)#1})
PUBLIC 979ac 0 fmt::v10::detail::parse_replacement_field<char, fmt::v10::detail::vformat_to<char>(fmt::v10::detail::buffer<char>&, fmt::v10::basic_string_view<char>, fmt::v10::detail::vformat_args<char>::type, fmt::v10::detail::locale_ref)::format_handler&>(char const*, char const*, fmt::v10::detail::vformat_to<char>(fmt::v10::detail::buffer<char>&, fmt::v10::basic_string_view<char>, fmt::v10::detail::vformat_args<char>::type, fmt::v10::detail::locale_ref)::format_handler&)
PUBLIC 97fe0 0 fmt::v10::detail::vformat_to<char>(fmt::v10::detail::buffer<char>&, fmt::v10::basic_string_view<char>, fmt::v10::detail::vformat_args<char>::type, fmt::v10::detail::locale_ref)::format_handler::on_format_specs(int, char const*, char const*)
PUBLIC 98b5c 0 fmt::v10::detail::do_parse_arg_id<char, fmt::v10::detail::parse_replacement_field<char, fmt::v10::detail::vformat_to<char>(fmt::v10::detail::buffer<char>&, fmt::v10::basic_string_view<char>, fmt::v10::detail::vformat_args<char>::type, fmt::v10::detail::locale_ref)::format_handler&>(char const*, char const*, fmt::v10::detail::vformat_to<char>(fmt::v10::detail::buffer<char>&, fmt::v10::basic_string_view<char>, fmt::v10::detail::vformat_args<char>::type, fmt::v10::detail::locale_ref)::format_handler&)::id_adapter&>(char const*, char const*, fmt::v10::detail::parse_replacement_field<char, fmt::v10::detail::vformat_to<char>(fmt::v10::detail::buffer<char>&, fmt::v10::basic_string_view<char>, fmt::v10::detail::vformat_args<char>::type, fmt::v10::detail::locale_ref)::format_handler&>(char const*, char const*, fmt::v10::detail::vformat_to<char>(fmt::v10::detail::buffer<char>&, fmt::v10::basic_string_view<char>, fmt::v10::detail::vformat_args<char>::type, fmt::v10::detail::locale_ref)::format_handler&)::id_adapter&)
PUBLIC 98db8 0 fmt::v10::detail::handle_dynamic_spec<fmt::v10::detail::width_checker, fmt::v10::basic_format_context<fmt::v10::appender, char> >(int&, fmt::v10::detail::arg_ref<fmt::v10::basic_format_context<fmt::v10::appender, char>::char_type>, fmt::v10::basic_format_context<fmt::v10::appender, char>&)
PUBLIC 98ec8 0 fmt::v10::detail::handle_dynamic_spec<fmt::v10::detail::precision_checker, fmt::v10::basic_format_context<fmt::v10::appender, char> >(int&, fmt::v10::detail::arg_ref<fmt::v10::basic_format_context<fmt::v10::appender, char>::char_type>, fmt::v10::basic_format_context<fmt::v10::appender, char>&)
PUBLIC 98fd8 0 fmt::v10::detail::parse_dynamic_spec<char>(char const*, char const*, int&, fmt::v10::detail::arg_ref<char>&, fmt::v10::basic_format_parse_context<char>&)
PUBLIC 99190 0 fmt::v10::detail::do_parse_arg_id<char, fmt::v10::detail::dynamic_spec_id_handler<char>&>(char const*, char const*, fmt::v10::detail::dynamic_spec_id_handler<char>&)
PUBLIC 99320 0 fmt::v10::detail::get_dynamic_spec<fmt::v10::detail::width_checker, fmt::v10::basic_format_arg<fmt::v10::basic_format_context<fmt::v10::appender, char> >, fmt::v10::detail::error_handler>(fmt::v10::basic_format_arg<fmt::v10::basic_format_context<fmt::v10::appender, char> >, fmt::v10::detail::error_handler)
PUBLIC 993b0 0 fmt::v10::basic_format_args<fmt::v10::basic_format_context<fmt::v10::appender, char> >::get<char>(fmt::v10::basic_string_view<char>) const
PUBLIC 9950c 0 fmt::v10::detail::get_dynamic_spec<fmt::v10::detail::precision_checker, fmt::v10::basic_format_arg<fmt::v10::basic_format_context<fmt::v10::appender, char> >, fmt::v10::detail::error_handler>(fmt::v10::basic_format_arg<fmt::v10::basic_format_context<fmt::v10::appender, char> >, fmt::v10::detail::error_handler)
PUBLIC 9959c 0 fmt::v10::detail::write_int_noinline<char, fmt::v10::appender, unsigned long>(fmt::v10::appender, fmt::v10::detail::write_int_arg<unsigned long>, fmt::v10::format_specs<char> const&, fmt::v10::detail::locale_ref)
PUBLIC 9a09c 0 fmt::v10::detail::write_int<fmt::v10::appender, char, fmt::v10::detail::write_int<char, fmt::v10::appender, unsigned long>(fmt::v10::appender, fmt::v10::detail::write_int_arg<unsigned long>, fmt::v10::format_specs<char> const&, fmt::v10::detail::locale_ref)::{lambda(fmt::v10::appender)#1}>(fmt::v10::appender, int, unsigned int, fmt::v10::format_specs<char> const&, fmt::v10::detail::write_int<char, fmt::v10::appender, unsigned long>(fmt::v10::appender, fmt::v10::detail::write_int_arg<unsigned long>, fmt::v10::format_specs<char> const&, fmt::v10::detail::locale_ref)::{lambda(fmt::v10::appender)#1})::{lambda(fmt::v10::appender(fmt::v10::appender))#1}::operator() const
PUBLIC 9a238 0 fmt::v10::detail::write_int<fmt::v10::appender, char, fmt::v10::detail::write_int<char, fmt::v10::appender, unsigned long>(fmt::v10::appender, fmt::v10::detail::write_int_arg<unsigned long>, fmt::v10::format_specs<char> const&, fmt::v10::detail::locale_ref)::{lambda(fmt::v10::appender)#2}>(fmt::v10::appender, int, unsigned int, fmt::v10::format_specs<char> const&, fmt::v10::detail::write_int<char, fmt::v10::appender, unsigned long>(fmt::v10::appender, fmt::v10::detail::write_int_arg<unsigned long>, fmt::v10::format_specs<char> const&, fmt::v10::detail::locale_ref)::{lambda(fmt::v10::appender)#2})::{lambda(fmt::v10::appender(fmt::v10::appender))#1}::operator() const
PUBLIC 9a3fc 0 fmt::v10::detail::write_int_noinline<char, fmt::v10::appender, unsigned __int128>(fmt::v10::appender, fmt::v10::detail::write_int_arg<unsigned __int128>, fmt::v10::format_specs<char> const&, fmt::v10::detail::locale_ref)
PUBLIC 9b0c0 0 fmt::v10::detail::write_int<fmt::v10::appender, char, fmt::v10::detail::write_int<char, fmt::v10::appender, unsigned __int128>(fmt::v10::appender, fmt::v10::detail::write_int_arg<unsigned __int128>, fmt::v10::format_specs<char> const&, fmt::v10::detail::locale_ref)::{lambda(fmt::v10::appender)#1}>(fmt::v10::appender, int, unsigned int, fmt::v10::format_specs<char> const&, fmt::v10::detail::write_int<char, fmt::v10::appender, unsigned __int128>(fmt::v10::appender, fmt::v10::detail::write_int_arg<unsigned __int128>, fmt::v10::format_specs<char> const&, fmt::v10::detail::locale_ref)::{lambda(fmt::v10::appender)#1})::{lambda(fmt::v10::appender(fmt::v10::appender))#1}::operator() const
PUBLIC 9b294 0 fmt::v10::detail::write_int<fmt::v10::appender, char, fmt::v10::detail::write_int<char, fmt::v10::appender, unsigned __int128>(fmt::v10::appender, fmt::v10::detail::write_int_arg<unsigned __int128>, fmt::v10::format_specs<char> const&, fmt::v10::detail::locale_ref)::{lambda(fmt::v10::appender)#2}>(fmt::v10::appender, int, unsigned int, fmt::v10::format_specs<char> const&, fmt::v10::detail::write_int<char, fmt::v10::appender, unsigned __int128>(fmt::v10::appender, fmt::v10::detail::write_int_arg<unsigned __int128>, fmt::v10::format_specs<char> const&, fmt::v10::detail::locale_ref)::{lambda(fmt::v10::appender)#2})::{lambda(fmt::v10::appender(fmt::v10::appender))#1}::operator() const
PUBLIC 9b470 0 fmt::v10::detail::write<char, fmt::v10::appender>(fmt::v10::appender, char, fmt::v10::format_specs<char> const&, fmt::v10::detail::locale_ref)
PUBLIC 9b664 0 fmt::v10::detail::write_float<char, fmt::v10::appender, float>(fmt::v10::appender, float, fmt::v10::format_specs<char>, fmt::v10::detail::locale_ref)
PUBLIC 9ba50 0 fmt::v10::detail::format_hexfloat<double, 0>(double, int, fmt::v10::detail::float_specs, fmt::v10::detail::buffer<char>&)
PUBLIC 9bfb8 0 fmt::v10::detail::format_float<double>(double, int, fmt::v10::detail::float_specs, fmt::v10::detail::buffer<char>&)
PUBLIC 9c7a4 0 fmt::v10::detail::write<char, fmt::v10::appender, unsigned long, 0>(fmt::v10::appender, unsigned long)
PUBLIC 9c978 0 fmt::v10::detail::write_float<char, fmt::v10::appender, double>(fmt::v10::appender, double, fmt::v10::format_specs<char>, fmt::v10::detail::locale_ref)
PUBLIC 9cd60 0 fmt::v10::detail::write<char, fmt::v10::appender>(fmt::v10::appender, fmt::v10::basic_string_view<char>, fmt::v10::format_specs<char> const&)
PUBLIC 9cf38 0 fmt::v10::detail::write_escaped_string<char, fmt::v10::detail::counting_iterator>(fmt::v10::detail::counting_iterator, fmt::v10::basic_string_view<char>)
PUBLIC 9d344 0 fmt::v10::detail::write_padded<(fmt::v10::align::type)1, fmt::v10::appender, char, fmt::v10::detail::write<char, fmt::v10::appender>(fmt::v10::appender, fmt::v10::basic_string_view<char>, fmt::v10::format_specs<char> const&)::{lambda(fmt::v10::appender)#1}>(fmt::v10::appender, fmt::v10::format_specs<char> const&, unsigned long, unsigned long, fmt::v10::detail::write<char, fmt::v10::appender>(fmt::v10::appender, fmt::v10::basic_string_view<char>, fmt::v10::format_specs<char> const&)::{lambda(fmt::v10::appender&&)#1})
PUBLIC 9d548 0 fmt::v10::detail::write_escaped_cp<fmt::v10::detail::counting_iterator, char>(fmt::v10::detail::counting_iterator, fmt::v10::detail::find_escape_result<char> const&)
PUBLIC 9d6ec 0 fmt::v10::detail::for_each_codepoint<fmt::v10::detail::compute_width(fmt::v10::basic_string_view<char>)::count_code_points>(fmt::v10::basic_string_view<char>, fmt::v10::detail::compute_width(fmt::v10::basic_string_view<char>)::count_code_points)::{lambda(char const*, char const*)#1}::operator()(char const*, char const*) const
PUBLIC 9d8a0 0 fmt::v10::detail::write_escaped_string<char, fmt::v10::appender>(fmt::v10::appender, fmt::v10::basic_string_view<char>)
PUBLIC 9de60 0 fmt::v10::detail::loc_writer<char>::operator()<int, 0>(int)
PUBLIC 9e13c 0 fmt::v10::detail::loc_writer<char>::operator()<unsigned int, 0>(unsigned int)
PUBLIC 9e3f4 0 fmt::v10::detail::loc_writer<char>::operator()<long long, 0>(long long)
PUBLIC 9e6d0 0 fmt::v10::detail::loc_writer<char>::operator()<unsigned long long, 0>(unsigned long long)
PUBLIC 9e988 0 fmt::v10::detail::loc_writer<char>::operator()<__int128, 0>(__int128)
PUBLIC 9ec70 0 fmt::v10::detail::loc_writer<char>::operator()<unsigned __int128, 0>(unsigned __int128)
PUBLIC 9ef30 0 fmt::v10::detail::write_int<fmt::v10::appender, unsigned long, char>(fmt::v10::appender, unsigned long, unsigned int, fmt::v10::format_specs<char> const&, fmt::v10::detail::digit_grouping<char> const&)
PUBLIC 9f178 0 fmt::v10::detail::write_int<fmt::v10::appender, unsigned __int128, char>(fmt::v10::appender, unsigned __int128, unsigned int, fmt::v10::format_specs<char> const&, fmt::v10::detail::digit_grouping<char> const&)
PUBLIC m 9f490 0 __eqtf2
PUBLIC 9f530 0 __unordtf2
PUBLIC 9f568 0 __udivti3
PUBLIC 9f574 0 __udivmodti4
PUBLIC 9f7b0 0 __aarch64_ldadd8_relax
PUBLIC 9f7e0 0 init_have_lse_atomics
PUBLIC 9f878 0 init_cpu_features_resolver
PUBLIC 9fcb0 0 init_cpu_features
PUBLIC 9fd50 0 __aarch64_ldadd8_acq_rel
PUBLIC 9fd80 0 <.plt ELF section in geode.node-ids.android64.so>
STACK CFI INIT 36cf0 10 .cfa: sp 0 +
STACK CFI INIT 36d00 8 .cfa: sp 0 +
STACK CFI INIT 36d08 8 .cfa: sp 0 +
STACK CFI INIT 36d10 14 .cfa: sp 0 +
STACK CFI INIT 36d24 1c .cfa: sp 0 +
STACK CFI INIT 36d40 10 .cfa: sp 0 +
STACK CFI INIT 36d50 150 .cfa: sp 0 +
STACK CFI 36d54 .cfa: sp 48 +
STACK CFI 36d60 .cfa: x29 48 + x19: .cfa -8 + ^ x20: .cfa -16 + ^ x21: .cfa -32 + ^ .ra: .cfa -40 + ^ x29: .cfa -48 + ^
STACK CFI 36df4 .cfa: sp 48 +
STACK CFI 36e00 .cfa: sp 0 +
STACK CFI 36e04 .cfa: x29 48 +
STACK CFI 36e90 .cfa: sp 48 +
STACK CFI 36e9c .cfa: sp 0 +
STACK CFI INIT 3701c 68 .cfa: sp 0 +
STACK CFI 37020 .cfa: sp 32 +
STACK CFI 37028 .cfa: x29 32 + x19: .cfa -16 + ^ .ra: .cfa -24 + ^ x29: .cfa -32 + ^
STACK CFI 3706c .cfa: sp 32 +
STACK CFI 37074 .cfa: sp 0 +
STACK CFI 37078 .cfa: sp 32 +
STACK CFI 37080 .cfa: sp 0 +
STACK CFI INIT 37084 1c .cfa: sp 0 +
STACK CFI INIT 37904 50 .cfa: sp 0 +
STACK CFI 37908 .cfa: sp 32 +
STACK CFI 37910 .cfa: x29 32 + x19: .cfa -16 + ^ .ra: .cfa -24 + ^ x29: .cfa -32 + ^
STACK CFI 37928 .cfa: sp 32 +
STACK CFI 37930 .cfa: sp 0 +
STACK CFI 37934 .cfa: x29 32 +
STACK CFI 37948 .cfa: sp 32 +
STACK CFI 37950 .cfa: sp 0 +
STACK CFI INIT 37954 7c .cfa: sp 0 +
STACK CFI 37958 .cfa: sp 48 +
STACK CFI 37964 .cfa: x29 48 + x19: .cfa -8 + ^ x20: .cfa -16 + ^ x21: .cfa -32 + ^ .ra: .cfa -40 + ^ x29: .cfa -48 + ^
STACK CFI 379a8 .cfa: sp 48 +
STACK CFI 379b4 .cfa: sp 0 +
STACK CFI 379b8 .cfa: x29 48 +
STACK CFI 379c0 .cfa: sp 48 +
STACK CFI 379cc .cfa: sp 0 +
STACK CFI INIT 379d0 4 .cfa: sp 0 +
STACK CFI INIT 379d4 10 .cfa: sp 0 +
STACK CFI 379d8 .cfa: sp 16 +
STACK CFI 379dc .cfa: x29 16 + .ra: .cfa -8 + ^ x29: .cfa -16 + ^
STACK CFI INIT 37ca0 10c .cfa: sp 0 +
STACK CFI 37ca4 .cfa: sp 64 +
STACK CFI 37cb4 .cfa: x29 64 + x19: .cfa -8 + ^ x20: .cfa -16 + ^ x21: .cfa -24 + ^ x22: .cfa -32 + ^ x23: .cfa -40 + ^ x24: .cfa -48 + ^ .ra: .cfa -56 + ^ x29: .cfa -64 + ^
STACK CFI 37d98 .cfa: sp 64 +
STACK CFI 37da8 .cfa: sp 0 +
STACK CFI INIT 37f38 104 .cfa: sp 0 +
STACK CFI 37f3c .cfa: sp 80 +
STACK CFI 37f50 .cfa: x29 80 + x19: .cfa -8 + ^ x20: .cfa -16 + ^ x21: .cfa -24 + ^ x22: .cfa -32 + ^ x23: .cfa -40 + ^ x24: .cfa -48 + ^ x25: .cfa -56 + ^ x26: .cfa -64 + ^ .ra: .cfa -72 + ^ x29: .cfa -80 + ^
STACK CFI 38024 .cfa: sp 80 +
STACK CFI 38038 .cfa: sp 0 +
STACK CFI INIT 3803c 34 .cfa: sp 0 +
STACK CFI 38040 .cfa: sp 32 +
STACK CFI 38048 .cfa: x29 32 + x19: .cfa -16 + ^ .ra: .cfa -24 + ^ x29: .cfa -32 + ^
STACK CFI INIT 38070 14 .cfa: sp 0 +
STACK CFI 38074 .cfa: sp 16 +
STACK CFI 38078 .cfa: x29 16 + .ra: .cfa -8 + ^ x29: .cfa -16 + ^
STACK CFI INIT 380d4 30 .cfa: sp 0 +
STACK CFI 380d8 .cfa: sp 32 +
STACK CFI 380e0 .cfa: x29 32 + x19: .cfa -16 + ^ .ra: .cfa -24 + ^ x29: .cfa -32 + ^
STACK CFI 380f8 .cfa: sp 32 +
STACK CFI 38100 .cfa: sp 0 +
STACK CFI INIT 38104 1b4 .cfa: sp 0 +
STACK CFI INIT 382b8 3c .cfa: sp 0 +
STACK CFI 382bc .cfa: sp 32 +
STACK CFI 382c4 .cfa: x29 32 + x19: .cfa -16 + ^ .ra: .cfa -24 + ^ x29: .cfa -32 + ^
STACK CFI 382e8 .cfa: sp 32 +
STACK CFI 382f0 .cfa: sp 0 +
STACK CFI INIT 382f4 44 .cfa: sp 0 +
STACK CFI 382f8 .cfa: sp 32 +
STACK CFI 38300 .cfa: x29 32 + x19: .cfa -16 + ^ .ra: .cfa -24 + ^ x29: .cfa -32 + ^
STACK CFI 3832c .cfa: sp 32 +
STACK CFI 38334 .cfa: sp 0 +
STACK CFI INIT 385d8 68 .cfa: sp 0 +
STACK CFI 385dc .cfa: sp 32 +
STACK CFI 385e4 .cfa: x29 32 + x19: .cfa -8 + ^ x20: .cfa -16 + ^ .ra: .cfa -24 + ^ x29: .cfa -32 + ^
STACK CFI 385fc .cfa: sp 32 +
STACK CFI 38604 .cfa: sp 0 +
STACK CFI 38608 .cfa: x29 32 +
STACK CFI 38634 .cfa: sp 32 +
STACK CFI 3863c .cfa: sp 0 +
STACK CFI INIT 38640 14 .cfa: sp 0 +
STACK CFI 38644 .cfa: sp 16 +
STACK CFI 38648 .cfa: x29 16 + .ra: .cfa -8 + ^ x29: .cfa -16 + ^
STACK CFI INIT 38654 d4 .cfa: sp 0 +
STACK CFI 38658 .cfa: sp 48 +
STACK CFI 38664 .cfa: x29 48 + x19: .cfa -8 + ^ x20: .cfa -16 + ^ x21: .cfa -32 + ^ .ra: .cfa -40 + ^ x29: .cfa -48 + ^
STACK CFI 386f4 .cfa: sp 48 +
STACK CFI 38700 .cfa: sp 0 +
STACK CFI 38704 .cfa: x29 48 +
STACK CFI INIT 38728 3cc .cfa: sp 0 +
STACK CFI INIT 38af4 8c .cfa: sp 0 +
STACK CFI 38afc .cfa: sp 32 +
STACK CFI 38b04 .cfa: x29 32 + x19: .cfa -8 + ^ x20: .cfa -16 + ^ .ra: .cfa -24 + ^ x29: .cfa -32 + ^
STACK CFI 38b4c .cfa: sp 32 +
STACK CFI 38b54 .cfa: sp 0 +
STACK CFI 38b5c .cfa: x29 32 +
STACK CFI INIT 38c98 54 .cfa: sp 0 +
STACK CFI 38c9c .cfa: sp 48 +
STACK CFI 38ca8 .cfa: x29 48 + x19: .cfa -8 + ^ x20: .cfa -16 + ^ x21: .cfa -32 + ^ .ra: .cfa -40 + ^ x29: .cfa -48 + ^
STACK CFI 38cdc .cfa: sp 48 +
STACK CFI 38ce8 .cfa: sp 0 +
STACK CFI INIT 38f8c 50 .cfa: sp 0 +
STACK CFI 38f90 .cfa: sp 32 +
STACK CFI 38f98 .cfa: x29 32 + x19: .cfa -16 + ^ .ra: .cfa -24 + ^ x29: .cfa -32 + ^
STACK CFI 38fb0 .cfa: sp 32 +
STACK CFI 38fb8 .cfa: sp 0 +
STACK CFI 38fbc .cfa: x29 32 +
STACK CFI 38fd0 .cfa: sp 32 +
STACK CFI 38fd8 .cfa: sp 0 +
STACK CFI INIT 38fdc 64 .cfa: sp 0 +
STACK CFI 38fe0 .cfa: sp 32 +
STACK CFI 38fe8 .cfa: x29 32 + x19: .cfa -16 + ^ .ra: .cfa -24 + ^ x29: .cfa -32 + ^
STACK CFI 39014 .cfa: sp 32 +
STACK CFI 3901c .cfa: sp 0 +
STACK CFI 39020 .cfa: x29 32 +
STACK CFI 39034 .cfa: sp 32 +
STACK CFI 3903c .cfa: sp 0 +
STACK CFI INIT 39040 14 .cfa: sp 0 +
STACK CFI 39044 .cfa: sp 16 +
STACK CFI 39048 .cfa: x29 16 + .ra: .cfa -8 + ^ x29: .cfa -16 + ^
STACK CFI INIT 393cc 4b8 .cfa: sp 0 +
STACK CFI 393d0 .cfa: sp 16 + x19: .cfa -16 + ^
STACK CFI 39430 .cfa: sp 0 +
STACK CFI 39434 .cfa: sp 16 +
STACK CFI 39550 .cfa: sp 0 +
STACK CFI 39554 .cfa: sp 16 +
STACK CFI 39600 .cfa: sp 0 +
STACK CFI 39604 .cfa: sp 16 +
STACK CFI 397d8 .cfa: sp 0 +
STACK CFI 397dc .cfa: sp 16 +
STACK CFI 39824 .cfa: sp 0 +
STACK CFI 39828 .cfa: sp 16 +
STACK CFI 39880 .cfa: sp 0 +
STACK CFI INIT 398d4 30 .cfa: sp 0 +
STACK CFI 398d8 .cfa: sp 32 +
STACK CFI 398e0 .cfa: x29 32 + x19: .cfa -16 + ^ .ra: .cfa -24 + ^ x29: .cfa -32 + ^
STACK CFI 398f8 .cfa: sp 32 +
STACK CFI 39900 .cfa: sp 0 +
STACK CFI INIT 39d48 ac .cfa: sp 0 +
STACK CFI 39d4c .cfa: sp 48 +
STACK CFI 39d58 .cfa: x29 48 + x19: .cfa -8 + ^ x20: .cfa -16 + ^ x21: .cfa -24 + ^ x22: .cfa -32 + ^ .ra: .cfa -40 + ^ x29: .cfa -48 + ^
STACK CFI 39dd8 .cfa: sp 48 +
STACK CFI 39de4 .cfa: sp 0 +
STACK CFI 39de8 .cfa: x29 48 +
STACK CFI INIT 39ebc 14 .cfa: sp 0 +
STACK CFI 39ec0 .cfa: sp 16 +
STACK CFI 39ec4 .cfa: x29 16 + .ra: .cfa -8 + ^ x29: .cfa -16 + ^
STACK CFI INIT 3a100 5c .cfa: sp 0 +
STACK CFI 3a104 .cfa: sp 32 +
STACK CFI 3a10c .cfa: x29 32 + x19: .cfa -8 + ^ x20: .cfa -16 + ^ .ra: .cfa -24 + ^ x29: .cfa -32 + ^
STACK CFI 3a144 .cfa: sp 32 +
STACK CFI 3a14c .cfa: sp 0 +
STACK CFI 3a150 .cfa: sp 32 +
STACK CFI 3a158 .cfa: sp 0 +
STACK CFI INIT 3a15c 14 .cfa: sp 0 +
STACK CFI 3a160 .cfa: sp 16 +
STACK CFI 3a164 .cfa: x29 16 + .ra: .cfa -8 + ^ x29: .cfa -16 + ^
STACK CFI INIT 3a170 14 .cfa: sp 0 +
STACK CFI 3a174 .cfa: sp 16 +
STACK CFI 3a178 .cfa: x29 16 + .ra: .cfa -8 + ^ x29: .cfa -16 + ^
STACK CFI INIT 3a184 14 .cfa: sp 0 +
STACK CFI 3a188 .cfa: sp 16 +
STACK CFI 3a18c .cfa: x29 16 + .ra: .cfa -8 + ^ x29: .cfa -16 + ^
STACK CFI INIT 3a198 8 .cfa: sp 0 +
STACK CFI INIT 3a224 4 .cfa: sp 0 +
STACK CFI INIT 3a228 4 .cfa: sp 0 +
STACK CFI INIT 3a22c c .cfa: sp 0 +
STACK CFI INIT 3a238 34 .cfa: sp 0 +
STACK CFI 3a23c .cfa: sp 32 +
STACK CFI 3a244 .cfa: x29 32 + x19: .cfa -16 + ^ .ra: .cfa -24 + ^ x29: .cfa -32 + ^
STACK CFI 3a260 .cfa: sp 32 +
STACK CFI 3a268 .cfa: sp 0 +
STACK CFI INIT 3a94c 4c .cfa: sp 0 +
STACK CFI 3a950 .cfa: sp 32 +
STACK CFI 3a958 .cfa: x29 32 + x19: .cfa -16 + ^ .ra: .cfa -24 + ^ x29: .cfa -32 + ^
STACK CFI 3a980 .cfa: sp 32 +
STACK CFI 3a988 .cfa: sp 0 +
STACK CFI 3a98c .cfa: sp 32 +
STACK CFI 3a994 .cfa: sp 0 +
STACK CFI INIT 3a998 1d8 .cfa: sp 0 +
STACK CFI 3a99c .cfa: sp 32 +
STACK CFI 3a9a4 .cfa: x29 32 + x19: .cfa -8 + ^ x20: .cfa -16 + ^ .ra: .cfa -24 + ^ x29: .cfa -32 + ^
STACK CFI 3aa30 .cfa: sp 32 +
STACK CFI 3aa38 .cfa: sp 0 +
STACK CFI 3aa3c .cfa: x29 32 +
STACK CFI 3aa50 .cfa: sp 32 +
STACK CFI 3aa58 .cfa: sp 0 +
STACK CFI 3aa5c .cfa: x29 32 +
STACK CFI INIT 3ab70 3c .cfa: sp 0 +
STACK CFI 3ab74 .cfa: sp 32 +
STACK CFI 3ab7c .cfa: x29 32 + x19: .cfa -16 + ^ .ra: .cfa -24 + ^ x29: .cfa -32 + ^
STACK CFI 3aba0 .cfa: sp 32 +
STACK CFI 3aba8 .cfa: sp 0 +
STACK CFI INIT 3abac 44 .cfa: sp 0 +
STACK CFI 3abb0 .cfa: sp 32 +
STACK CFI 3abb8 .cfa: x29 32 + x19: .cfa -16 + ^ .ra: .cfa -24 + ^ x29: .cfa -32 + ^
STACK CFI 3abe4 .cfa: sp 32 +
STACK CFI 3abec .cfa: sp 0 +
STACK CFI INIT 3abf0 44 .cfa: sp 0 +
STACK CFI 3abf4 .cfa: sp 32 +
STACK CFI 3abfc .cfa: x29 32 + x19: .cfa -16 + ^ .ra: .cfa -24 + ^ x29: .cfa -32 + ^
STACK CFI 3ac28 .cfa: sp 32 +
STACK CFI 3ac30 .cfa: sp 0 +
STACK CFI INIT 3bc60 68 .cfa: sp 0 +
STACK CFI 3bc64 .cfa: sp 32 +
STACK CFI 3bc6c .cfa: x29 32 + x19: .cfa -16 + ^ .ra: .cfa -24 + ^ x29: .cfa -32 + ^
STACK CFI 3bcb0 .cfa: sp 32 +
STACK CFI 3bcb8 .cfa: sp 0 +
STACK CFI 3bcbc .cfa: sp 32 +
STACK CFI 3bcc4 .cfa: sp 0 +
STACK CFI INIT 3bcc8 1c .cfa: sp 0 +
STACK CFI INIT 3beb8 44 .cfa: sp 0 +
STACK CFI 3bebc .cfa: sp 32 +
STACK CFI 3bec4 .cfa: x29 32 + x19: .cfa -16 + ^ .ra: .cfa -24 + ^ x29: .cfa -32 + ^
STACK CFI 3bef0 .cfa: sp 32 +
STACK CFI 3bef8 .cfa: sp 0 +
STACK CFI INIT 3befc 100 .cfa: sp 0 +
STACK CFI 3bf00 .cfa: sp 64 +
STACK CFI 3bf10 .cfa: x29 64 + x19: .cfa -8 + ^ x20: .cfa -16 + ^ x21: .cfa -24 + ^ x22: .cfa -32 + ^ x23: .cfa -48 + ^ .ra: .cfa -56 + ^ x29: .cfa -64 + ^
STACK CFI 3bf68 .cfa: sp 64 +
STACK CFI 3bf78 .cfa: sp 0 +
STACK CFI 3bf7c .cfa: x29 64 +
STACK CFI 3bf98 .cfa: sp 64 +
STACK CFI 3bfa8 .cfa: sp 0 +
STACK CFI 3bfac .cfa: x29 64 +
STACK CFI 3bfe8 .cfa: sp 64 +
STACK CFI 3bff8 .cfa: sp 0 +
STACK CFI INIT 3cb60 4 .cfa: sp 0 +
STACK CFI INIT 3ce38 4 .cfa: sp 0 +
STACK CFI INIT 3cf70 38 .cfa: sp 0 +
STACK CFI 3cf74 .cfa: sp 32 +
STACK CFI 3cf7c .cfa: x29 32 + x19: .cfa -8 + ^ x20: .cfa -16 + ^ .ra: .cfa -24 + ^ x29: .cfa -32 + ^
STACK CFI 3cf9c .cfa: sp 32 +
STACK CFI 3cfa4 .cfa: sp 0 +
STACK CFI INIT 3ddf8 144 .cfa: sp 0 +
STACK CFI 3ddfc .cfa: sp 64 +
STACK CFI 3de0c .cfa: x29 64 + x19: .cfa -8 + ^ x20: .cfa -16 + ^ x21: .cfa -24 + ^ x22: .cfa -32 + ^ x23: .cfa -48 + ^ .ra: .cfa -56 + ^ x29: .cfa -64 + ^
STACK CFI 3deac .cfa: sp 64 +
STACK CFI 3debc .cfa: sp 0 +
STACK CFI 3dec0 .cfa: x29 64 +
STACK CFI 3dec4 .cfa: sp 64 +
STACK CFI 3ded4 .cfa: sp 0 +
STACK CFI 3ded8 .cfa: x29 64 +
STACK CFI INIT 3df3c 68 .cfa: sp 0 +
STACK CFI 3df40 .cfa: sp 32 +
STACK CFI 3df48 .cfa: x29 32 + x19: .cfa -16 + ^ .ra: .cfa -24 + ^ x29: .cfa -32 + ^
STACK CFI 3df8c .cfa: sp 32 +
STACK CFI 3df94 .cfa: sp 0 +
STACK CFI 3df98 .cfa: sp 32 +
STACK CFI 3dfa0 .cfa: sp 0 +
STACK CFI INIT 3dfa4 1c .cfa: sp 0 +
STACK CFI INIT 3e1a0 44 .cfa: sp 0 +
STACK CFI 3e1a4 .cfa: sp 32 +
STACK CFI 3e1ac .cfa: x29 32 + x19: .cfa -16 + ^ .ra: .cfa -24 + ^ x29: .cfa -32 + ^
STACK CFI 3e1d8 .cfa: sp 32 +
STACK CFI 3e1e0 .cfa: sp 0 +
STACK CFI INIT 3ea80 4 .cfa: sp 0 +
STACK CFI INIT 3edc0 4 .cfa: sp 0 +
STACK CFI INIT 3fd84 68 .cfa: sp 0 +
STACK CFI 3fd88 .cfa: sp 32 +
STACK CFI 3fd90 .cfa: x29 32 + x19: .cfa -16 + ^ .ra: .cfa -24 + ^ x29: .cfa -32 + ^
STACK CFI 3fdd4 .cfa: sp 32 +
STACK CFI 3fddc .cfa: sp 0 +
STACK CFI 3fde0 .cfa: sp 32 +
STACK CFI 3fde8 .cfa: sp 0 +
STACK CFI INIT 3fdec 1c .cfa: sp 0 +
STACK CFI INIT 3ffe0 44 .cfa: sp 0 +
STACK CFI 3ffe4 .cfa: sp 32 +
STACK CFI 3ffec .cfa: x29 32 + x19: .cfa -16 + ^ .ra: .cfa -24 + ^ x29: .cfa -32 + ^
STACK CFI 40018 .cfa: sp 32 +
STACK CFI 40020 .cfa: sp 0 +
STACK CFI INIT 4087c 4 .cfa: sp 0 +
STACK CFI INIT 40b70 38 .cfa: sp 0 +
STACK CFI 40b74 .cfa: sp 32 +
STACK CFI 40b7c .cfa: x29 32 + x19: .cfa -8 + ^ x20: .cfa -16 + ^ .ra: .cfa -24 + ^ x29: .cfa -32 + ^
STACK CFI 40b9c .cfa: sp 32 +
STACK CFI 40ba4 .cfa: sp 0 +
STACK CFI INIT 42c0c 24c .cfa: sp 0 +
STACK CFI 42c10 .cfa: sp 224 +
STACK CFI 42c2c .cfa: x29 96 + x19: .cfa -8 + ^ x20: .cfa -16 + ^ x21: .cfa -24 + ^ x22: .cfa -32 + ^ x23: .cfa -40 + ^ x24: .cfa -48 + ^ x25: .cfa -56 + ^ x26: .cfa -64 + ^ x27: .cfa -72 + ^ x28: .cfa -80 + ^ .ra: .cfa -88 + ^ x29: .cfa -96 + ^
STACK CFI 42e38 .cfa: sp 224 +
STACK CFI 42e54 .cfa: sp 0 +
STACK CFI INIT 434a8 68 .cfa: sp 0 +
STACK CFI 434ac .cfa: sp 32 +
STACK CFI 434b4 .cfa: x29 32 + x19: .cfa -16 + ^ .ra: .cfa -24 + ^ x29: .cfa -32 + ^
STACK CFI 434f8 .cfa: sp 32 +
STACK CFI 43500 .cfa: sp 0 +
STACK CFI 43504 .cfa: sp 32 +
STACK CFI 4350c .cfa: sp 0 +
STACK CFI INIT 43510 1c .cfa: sp 0 +
STACK CFI INIT 43720 44 .cfa: sp 0 +
STACK CFI 43724 .cfa: sp 32 +
STACK CFI 4372c .cfa: x29 32 + x19: .cfa -16 + ^ .ra: .cfa -24 + ^ x29: .cfa -32 + ^
STACK CFI 43758 .cfa: sp 32 +
STACK CFI 43760 .cfa: sp 0 +
STACK CFI INIT 43764 118 .cfa: sp 0 +
STACK CFI 43768 .cfa: sp 80 +
STACK CFI 43778 .cfa: x29 48 + x19: .cfa -8 + ^ x20: .cfa -16 + ^ x21: .cfa -24 + ^ x22: .cfa -32 + ^ .ra: .cfa -40 + ^ x29: .cfa -48 + ^
STACK CFI 43864 .cfa: sp 80 +
STACK CFI 43874 .cfa: sp 0 +
STACK CFI 43878 .cfa: x29 48 +
STACK CFI INIT 4436c 4 .cfa: sp 0 +
STACK CFI INIT 44644 4c .cfa: sp 0 +
STACK CFI 44648 .cfa: sp 32 +
STACK CFI 44650 .cfa: x29 32 + x19: .cfa -8 + ^ x20: .cfa -16 + ^ .ra: .cfa -24 + ^ x29: .cfa -32 + ^
STACK CFI 44684 .cfa: sp 32 +
STACK CFI 4468c .cfa: sp 0 +
STACK CFI INIT 447c4 4 .cfa: sp 0 +
STACK CFI INIT 44ac0 10c .cfa: sp 0 +
STACK CFI 44ac4 .cfa: sp 32 +
STACK CFI 44acc .cfa: x29 32 + x19: .cfa -16 + ^ .ra: .cfa -24 + ^ x29: .cfa -32 + ^
STACK CFI 44bc0 .cfa: sp 32 +
STACK CFI 44bc8 .cfa: sp 0 +
STACK CFI INIT 45830 68 .cfa: sp 0 +
STACK CFI 45834 .cfa: sp 32 +
STACK CFI 4583c .cfa: x29 32 + x19: .cfa -16 + ^ .ra: .cfa -24 + ^ x29: .cfa -32 + ^
STACK CFI 45880 .cfa: sp 32 +
STACK CFI 45888 .cfa: sp 0 +
STACK CFI 4588c .cfa: sp 32 +
STACK CFI 45894 .cfa: sp 0 +
STACK CFI INIT 45898 1c .cfa: sp 0 +
STACK CFI INIT 46118 4 .cfa: sp 0 +
STACK CFI INIT 463f0 54 .cfa: sp 0 +
STACK CFI 463f4 .cfa: sp 48 +
STACK CFI 46400 .cfa: x29 48 + x19: .cfa -8 + ^ x20: .cfa -16 + ^ x21: .cfa -32 + ^ .ra: .cfa -40 + ^ x29: .cfa -48 + ^
STACK CFI 46434 .cfa: sp 48 +
STACK CFI 46440 .cfa: sp 0 +
STACK CFI INIT 46d24 44 .cfa: sp 0 +
STACK CFI 46d28 .cfa: sp 32 +
STACK CFI 46d30 .cfa: x29 32 + x19: .cfa -16 + ^ .ra: .cfa -24 + ^ x29: .cfa -32 + ^
STACK CFI 46d5c .cfa: sp 32 +
STACK CFI 46d64 .cfa: sp 0 +
STACK CFI INIT 4779c 68 .cfa: sp 0 +
STACK CFI 477a0 .cfa: sp 32 +
STACK CFI 477a8 .cfa: x29 32 + x19: .cfa -16 + ^ .ra: .cfa -24 + ^ x29: .cfa -32 + ^
STACK CFI 477ec .cfa: sp 32 +
STACK CFI 477f4 .cfa: sp 0 +
STACK CFI 477f8 .cfa: sp 32 +
STACK CFI 47800 .cfa: sp 0 +
STACK CFI INIT 47804 1c .cfa: sp 0 +
STACK CFI INIT 479f4 44 .cfa: sp 0 +
STACK CFI 479f8 .cfa: sp 32 +
STACK CFI 47a00 .cfa: x29 32 + x19: .cfa -16 + ^ .ra: .cfa -24 + ^ x29: .cfa -32 + ^
STACK CFI 47a2c .cfa: sp 32 +
STACK CFI 47a34 .cfa: sp 0 +
STACK CFI INIT 4829c 4 .cfa: sp 0 +
STACK CFI INIT 485dc 38 .cfa: sp 0 +
STACK CFI 485e0 .cfa: sp 32 +
STACK CFI 485e8 .cfa: x29 32 + x19: .cfa -8 + ^ x20: .cfa -16 + ^ .ra: .cfa -24 + ^ x29: .cfa -32 + ^
STACK CFI 48608 .cfa: sp 32 +
STACK CFI 48610 .cfa: sp 0 +
STACK CFI INIT 49174 184 .cfa: sp 0 +
STACK CFI 49178 .cfa: sp 160 +
STACK CFI 49194 .cfa: x29 96 + x19: .cfa -8 + ^ x20: .cfa -16 + ^ x21: .cfa -24 + ^ x22: .cfa -32 + ^ x23: .cfa -40 + ^ x24: .cfa -48 + ^ x25: .cfa -56 + ^ x26: .cfa -64 + ^ x27: .cfa -72 + ^ x28: .cfa -80 + ^ .ra: .cfa -88 + ^ x29: .cfa -96 + ^
STACK CFI 492d8 .cfa: sp 160 +
STACK CFI 492f4 .cfa: sp 0 +
STACK CFI INIT 492f8 68 .cfa: sp 0 +
STACK CFI 492fc .cfa: sp 32 +
STACK CFI 49304 .cfa: x29 32 + x19: .cfa -16 + ^ .ra: .cfa -24 + ^ x29: .cfa -32 + ^
STACK CFI 49348 .cfa: sp 32 +
STACK CFI 49350 .cfa: sp 0 +
STACK CFI 49354 .cfa: sp 32 +
STACK CFI 4935c .cfa: sp 0 +
STACK CFI INIT 49360 1c .cfa: sp 0 +
STACK CFI INIT 49550 44 .cfa: sp 0 +
STACK CFI 49554 .cfa: sp 32 +
STACK CFI 4955c .cfa: x29 32 + x19: .cfa -16 + ^ .ra: .cfa -24 + ^ x29: .cfa -32 + ^
STACK CFI 49588 .cfa: sp 32 +
STACK CFI 49590 .cfa: sp 0 +
STACK CFI INIT 49df8 4 .cfa: sp 0 +
STACK CFI INIT 4a138 38 .cfa: sp 0 +
STACK CFI 4a13c .cfa: sp 32 +
STACK CFI 4a144 .cfa: x29 32 + x19: .cfa -8 + ^ x20: .cfa -16 + ^ .ra: .cfa -24 + ^ x29: .cfa -32 + ^
STACK CFI 4a164 .cfa: sp 32 +
STACK CFI 4a16c .cfa: sp 0 +
STACK CFI INIT 4cb3c 154 .cfa: sp 0 +
STACK CFI 4cb40 .cfa: sp 144 +
STACK CFI 4cb5c .cfa: x29 96 + x19: .cfa -8 + ^ x20: .cfa -16 + ^ x21: .cfa -24 + ^ x22: .cfa -32 + ^ x23: .cfa -40 + ^ x24: .cfa -48 + ^ x25: .cfa -56 + ^ x26: .cfa -64 + ^ x27: .cfa -72 + ^ x28: .cfa -80 + ^ .ra: .cfa -88 + ^ x29: .cfa -96 + ^
STACK CFI 4cc70 .cfa: sp 144 +
STACK CFI 4cc8c .cfa: sp 0 +
STACK CFI INIT 4cc90 2dc .cfa: sp 0 +
STACK CFI 4cc94 .cfa: sp 304 +
STACK CFI 4ccb0 .cfa: x29 96 + x19: .cfa -8 + ^ x20: .cfa -16 + ^ x21: .cfa -24 + ^ x22: .cfa -32 + ^ x23: .cfa -40 + ^ x24: .cfa -48 + ^ x25: .cfa -56 + ^ x26: .cfa -64 + ^ x27: .cfa -72 + ^ x28: .cfa -80 + ^ .ra: .cfa -88 + ^ x29: .cfa -96 + ^
STACK CFI 4cf4c .cfa: sp 304 +
STACK CFI 4cf68 .cfa: sp 0 +
STACK CFI INIT 4d0b0 68 .cfa: sp 0 +
STACK CFI 4d0b4 .cfa: sp 32 +
STACK CFI 4d0bc .cfa: x29 32 + x19: .cfa -16 + ^ .ra: .cfa -24 + ^ x29: .cfa -32 + ^
STACK CFI 4d100 .cfa: sp 32 +
STACK CFI 4d108 .cfa: sp 0 +
STACK CFI 4d10c .cfa: sp 32 +
STACK CFI 4d114 .cfa: sp 0 +
STACK CFI INIT 4d118 1c .cfa: sp 0 +
STACK CFI INIT 4d134 24 .cfa: sp 0 +
STACK CFI 4d138 .cfa: sp 32 +
STACK CFI 4d140 .cfa: x29 32 + x19: .cfa -16 + ^ .ra: .cfa -24 + ^ x29: .cfa -32 + ^
STACK CFI 4d14c .cfa: sp 32 +
STACK CFI 4d154 .cfa: sp 0 +
STACK CFI INIT 4d158 8c .cfa: sp 0 +
STACK CFI 4d15c .cfa: sp 48 +
STACK CFI 4d168 .cfa: x29 48 + x19: .cfa -8 + ^ x20: .cfa -16 + ^ x21: .cfa -32 + ^ .ra: .cfa -40 + ^ x29: .cfa -48 + ^
STACK CFI 4d1d4 .cfa: sp 48 +
STACK CFI 4d1e0 .cfa: sp 0 +
STACK CFI INIT 4d1e4 4 .cfa: sp 0 +
STACK CFI INIT 4d1e8 8 .cfa: sp 0 +
STACK CFI INIT 4d1f0 68 .cfa: sp 0 +
STACK CFI 4d1f4 .cfa: sp 32 +
STACK CFI 4d1fc .cfa: x29 32 + x19: .cfa -16 + ^ .ra: .cfa -24 + ^ x29: .cfa -32 + ^
STACK CFI 4d24c .cfa: sp 32 +
STACK CFI 4d254 .cfa: sp 0 +
STACK CFI INIT 4d258 4 .cfa: sp 0 +
STACK CFI INIT 4d25c 8 .cfa: sp 0 +
STACK CFI INIT 4d430 44 .cfa: sp 0 +
STACK CFI 4d434 .cfa: sp 32 +
STACK CFI 4d43c .cfa: x29 32 + x19: .cfa -16 + ^ .ra: .cfa -24 + ^ x29: .cfa -32 + ^
STACK CFI 4d468 .cfa: sp 32 +
STACK CFI 4d470 .cfa: sp 0 +
STACK CFI INIT 4d474 118 .cfa: sp 0 +
STACK CFI 4d478 .cfa: sp 80 +
STACK CFI 4d488 .cfa: x29 48 + x19: .cfa -8 + ^ x20: .cfa -16 + ^ x21: .cfa -24 + ^ x22: .cfa -32 + ^ .ra: .cfa -40 + ^ x29: .cfa -48 + ^
STACK CFI 4d574 .cfa: sp 80 +
STACK CFI 4d584 .cfa: sp 0 +
STACK CFI 4d588 .cfa: x29 48 +
STACK CFI INIT 4dde0 4 .cfa: sp 0 +
STACK CFI INIT 4e120 38 .cfa: sp 0 +
STACK CFI 4e124 .cfa: sp 32 +
STACK CFI 4e12c .cfa: x29 32 + x19: .cfa -8 + ^ x20: .cfa -16 + ^ .ra: .cfa -24 + ^ x29: .cfa -32 + ^
STACK CFI 4e14c .cfa: sp 32 +
STACK CFI 4e154 .cfa: sp 0 +
STACK CFI INIT 50960 19c .cfa: sp 0 +
STACK CFI 50964 .cfa: sp 160 +
STACK CFI 50980 .cfa: x29 96 + x19: .cfa -8 + ^ x20: .cfa -16 + ^ x21: .cfa -24 + ^ x22: .cfa -32 + ^ x23: .cfa -40 + ^ x24: .cfa -48 + ^ x25: .cfa -56 + ^ x26: .cfa -64 + ^ x27: .cfa -72 + ^ x28: .cfa -80 + ^ .ra: .cfa -88 + ^ x29: .cfa -96 + ^
STACK CFI 50adc .cfa: sp 160 +
STACK CFI 50af8 .cfa: sp 0 +
STACK CFI INIT 51500 12c .cfa: sp 0 +
STACK CFI 51504 .cfa: sp 128 +
STACK CFI 51520 .cfa: x29 96 + x19: .cfa -8 + ^ x20: .cfa -16 + ^ x21: .cfa -24 + ^ x22: .cfa -32 + ^ x23: .cfa -40 + ^ x24: .cfa -48 + ^ x25: .cfa -56 + ^ x26: .cfa -64 + ^ x27: .cfa -72 + ^ x28: .cfa -80 + ^ .ra: .cfa -88 + ^ x29: .cfa -96 + ^
STACK CFI 5160c .cfa: sp 128 +
STACK CFI 51628 .cfa: sp 0 +
STACK CFI INIT 5162c 1ac .cfa: sp 0 +
STACK CFI 51630 .cfa: sp 176 +
STACK CFI 5164c .cfa: x29 96 + x19: .cfa -8 + ^ x20: .cfa -16 + ^ x21: .cfa -24 + ^ x22: .cfa -32 + ^ x23: .cfa -40 + ^ x24: .cfa -48 + ^ x25: .cfa -56 + ^ x26: .cfa -64 + ^ x27: .cfa -72 + ^ x28: .cfa -80 + ^ .ra: .cfa -88 + ^ x29: .cfa -96 + ^
STACK CFI 517b8 .cfa: sp 176 +
STACK CFI 517d4 .cfa: sp 0 +
STACK CFI INIT 517d8 68 .cfa: sp 0 +
STACK CFI 517dc .cfa: sp 32 +
STACK CFI 517e4 .cfa: x29 32 + x19: .cfa -16 + ^ .ra: .cfa -24 + ^ x29: .cfa -32 + ^
STACK CFI 51828 .cfa: sp 32 +
STACK CFI 51830 .cfa: sp 0 +
STACK CFI 51834 .cfa: sp 32 +
STACK CFI 5183c .cfa: sp 0 +
STACK CFI INIT 51840 1c .cfa: sp 0 +
STACK CFI INIT 51a00 44 .cfa: sp 0 +
STACK CFI 51a04 .cfa: sp 32 +
STACK CFI 51a0c .cfa: x29 32 + x19: .cfa -16 + ^ .ra: .cfa -24 + ^ x29: .cfa -32 + ^
STACK CFI 51a38 .cfa: sp 32 +
STACK CFI 51a40 .cfa: sp 0 +
STACK CFI INIT 51a44 118 .cfa: sp 0 +
STACK CFI 51a48 .cfa: sp 80 +
STACK CFI 51a58 .cfa: x29 48 + x19: .cfa -8 + ^ x20: .cfa -16 + ^ x21: .cfa -24 + ^ x22: .cfa -32 + ^ .ra: .cfa -40 + ^ x29: .cfa -48 + ^
STACK CFI 51b44 .cfa: sp 80 +
STACK CFI 51b54 .cfa: sp 0 +
STACK CFI 51b58 .cfa: x29 48 +
STACK CFI INIT 523a8 4 .cfa: sp 0 +
STACK CFI INIT 526e8 38 .cfa: sp 0 +
STACK CFI 526ec .cfa: sp 32 +
STACK CFI 526f4 .cfa: x29 32 + x19: .cfa -8 + ^ x20: .cfa -16 + ^ .ra: .cfa -24 + ^ x29: .cfa -32 + ^
STACK CFI 52714 .cfa: sp 32 +
STACK CFI 5271c .cfa: sp 0 +
STACK CFI INIT 53a2c 1b8 .cfa: sp 0 +
STACK CFI 53a30 .cfa: sp 80 +
STACK CFI 53a44 .cfa: x29 48 + x19: .cfa -8 + ^ x20: .cfa -16 + ^ x21: .cfa -24 + ^ x22: .cfa -32 + ^ .ra: .cfa -40 + ^ x29: .cfa -48 + ^ v8: .cfa -56 + ^ v9: .cfa -64 + ^ v10: .cfa -72 + ^ v11: .cfa -80 + ^
STACK CFI 53af0 .cfa: sp 80 +
STACK CFI 53b04 .cfa: sp 0 +
STACK CFI 53b08 .cfa: x29 48 +
STACK CFI 53bb0 .cfa: sp 80 +
STACK CFI 53bc4 .cfa: sp 0 +
STACK CFI 53bc8 .cfa: x29 48 +
STACK CFI 53bcc .cfa: sp 80 +
STACK CFI 53be0 .cfa: sp 0 +
STACK CFI INIT 53be4 68 .cfa: sp 0 +
STACK CFI 53be8 .cfa: sp 32 +
STACK CFI 53bf0 .cfa: x29 32 + x19: .cfa -16 + ^ .ra: .cfa -24 + ^ x29: .cfa -32 + ^
STACK CFI 53c34 .cfa: sp 32 +
STACK CFI 53c3c .cfa: sp 0 +
STACK CFI 53c40 .cfa: sp 32 +
STACK CFI 53c48 .cfa: sp 0 +
STACK CFI INIT 53c4c 1c .cfa: sp 0 +
STACK CFI INIT 53c68 14 .cfa: sp 0 +
STACK CFI 53c6c .cfa: sp 16 +
STACK CFI 53c70 .cfa: x29 16 + .ra: .cfa -8 + ^ x29: .cfa -16 + ^
STACK CFI INIT 53e50 44 .cfa: sp 0 +
STACK CFI 53e54 .cfa: sp 32 +
STACK CFI 53e5c .cfa: x29 32 + x19: .cfa -16 + ^ .ra: .cfa -24 + ^ x29: .cfa -32 + ^
STACK CFI 53e88 .cfa: sp 32 +
STACK CFI 53e90 .cfa: sp 0 +
STACK CFI INIT 54a18 4 .cfa: sp 0 +
STACK CFI INIT 54d0c 28 .cfa: sp 0 +
STACK CFI 54d10 .cfa: sp 32 +
STACK CFI 54d18 .cfa: x29 32 + x19: .cfa -16 + ^ .ra: .cfa -24 + ^ x29: .cfa -32 + ^
STACK CFI 54d28 .cfa: sp 32 +
STACK CFI 54d30 .cfa: sp 0 +
STACK CFI INIT 54eb4 4 .cfa: sp 0 +
STACK CFI INIT 5632c 68 .cfa: sp 0 +
STACK CFI 56330 .cfa: sp 32 +
STACK CFI 56338 .cfa: x29 32 + x19: .cfa -16 + ^ .ra: .cfa -24 + ^ x29: .cfa -32 + ^
STACK CFI 5637c .cfa: sp 32 +
STACK CFI 56384 .cfa: sp 0 +
STACK CFI 56388 .cfa: sp 32 +
STACK CFI 56390 .cfa: sp 0 +
STACK CFI INIT 56394 1c .cfa: sp 0 +
STACK CFI INIT 56588 44 .cfa: sp 0 +
STACK CFI 5658c .cfa: sp 32 +
STACK CFI 56594 .cfa: x29 32 + x19: .cfa -16 + ^ .ra: .cfa -24 + ^ x29: .cfa -32 + ^
STACK CFI 565c0 .cfa: sp 32 +
STACK CFI 565c8 .cfa: sp 0 +
STACK CFI INIT 56e34 4 .cfa: sp 0 +
STACK CFI INIT 57d28 68 .cfa: sp 0 +
STACK CFI 57d2c .cfa: sp 32 +
STACK CFI 57d34 .cfa: x29 32 + x19: .cfa -16 + ^ .ra: .cfa -24 + ^ x29: .cfa -32 + ^
STACK CFI 57d78 .cfa: sp 32 +
STACK CFI 57d80 .cfa: sp 0 +
STACK CFI 57d84 .cfa: sp 32 +
STACK CFI 57d8c .cfa: sp 0 +
STACK CFI INIT 57d90 1c .cfa: sp 0 +
STACK CFI INIT 57ff0 44 .cfa: sp 0 +
STACK CFI 57ff4 .cfa: sp 32 +
STACK CFI 57ffc .cfa: x29 32 + x19: .cfa -16 + ^ .ra: .cfa -24 + ^ x29: .cfa -32 + ^
STACK CFI 58028 .cfa: sp 32 +
STACK CFI 58030 .cfa: sp 0 +
STACK CFI INIT 588d0 4 .cfa: sp 0 +
STACK CFI INIT 58ba8 38 .cfa: sp 0 +
STACK CFI 58bac .cfa: sp 32 +
STACK CFI 58bb4 .cfa: x29 32 + x19: .cfa -16 + ^ .ra: .cfa -24 + ^ x29: .cfa -32 + ^
STACK CFI 58bd4 .cfa: sp 32 +
STACK CFI 58bdc .cfa: sp 0 +
STACK CFI INIT 59cbc 144 .cfa: sp 0 +
STACK CFI 59cc0 .cfa: sp 128 +
STACK CFI 59cdc .cfa: x29 96 + x19: .cfa -8 + ^ x20: .cfa -16 + ^ x21: .cfa -24 + ^ x22: .cfa -32 + ^ x23: .cfa -40 + ^ x24: .cfa -48 + ^ x25: .cfa -56 + ^ x26: .cfa -64 + ^ x27: .cfa -72 + ^ x28: .cfa -80 + ^ .ra: .cfa -88 + ^ x29: .cfa -96 + ^
STACK CFI 59de0 .cfa: sp 128 +
STACK CFI 59dfc .cfa: sp 0 +
STACK CFI INIT 5a040 68 .cfa: sp 0 +
STACK CFI 5a044 .cfa: sp 32 +
STACK CFI 5a04c .cfa: x29 32 + x19: .cfa -16 + ^ .ra: .cfa -24 + ^ x29: .cfa -32 + ^
STACK CFI 5a090 .cfa: sp 32 +
STACK CFI 5a098 .cfa: sp 0 +
STACK CFI 5a09c .cfa: sp 32 +
STACK CFI 5a0a4 .cfa: sp 0 +
STACK CFI INIT 5a0a8 1c .cfa: sp 0 +
STACK CFI INIT 5a298 44 .cfa: sp 0 +
STACK CFI 5a29c .cfa: sp 32 +
STACK CFI 5a2a4 .cfa: x29 32 + x19: .cfa -16 + ^ .ra: .cfa -24 + ^ x29: .cfa -32 + ^
STACK CFI 5a2d0 .cfa: sp 32 +
STACK CFI 5a2d8 .cfa: sp 0 +
STACK CFI INIT 5ad84 4 .cfa: sp 0 +
STACK CFI INIT 5b25c 38 .cfa: sp 0 +
STACK CFI 5b260 .cfa: sp 32 +
STACK CFI 5b268 .cfa: x29 32 + x19: .cfa -8 + ^ x20: .cfa -16 + ^ .ra: .cfa -24 + ^ x29: .cfa -32 + ^
STACK CFI 5b288 .cfa: sp 32 +
STACK CFI 5b290 .cfa: sp 0 +
STACK CFI INIT 5bc24 68 .cfa: sp 0 +
STACK CFI 5bc28 .cfa: sp 32 +
STACK CFI 5bc30 .cfa: x29 32 + x19: .cfa -16 + ^ .ra: .cfa -24 + ^ x29: .cfa -32 + ^
STACK CFI 5bc74 .cfa: sp 32 +
STACK CFI 5bc7c .cfa: sp 0 +
STACK CFI 5bc80 .cfa: sp 32 +
STACK CFI 5bc88 .cfa: sp 0 +
STACK CFI INIT 5bc8c 1c .cfa: sp 0 +
STACK CFI INIT 5be88 44 .cfa: sp 0 +
STACK CFI 5be8c .cfa: sp 32 +
STACK CFI 5be94 .cfa: x29 32 + x19: .cfa -16 + ^ .ra: .cfa -24 + ^ x29: .cfa -32 + ^
STACK CFI 5bec0 .cfa: sp 32 +
STACK CFI 5bec8 .cfa: sp 0 +
STACK CFI INIT 5c768 4 .cfa: sp 0 +
STACK CFI INIT 5caa8 28 .cfa: sp 0 +
STACK CFI 5caac .cfa: sp 32 +
STACK CFI 5cab4 .cfa: x29 32 + x19: .cfa -16 + ^ .ra: .cfa -24 + ^ x29: .cfa -32 + ^
STACK CFI 5cac4 .cfa: sp 32 +
STACK CFI 5cacc .cfa: sp 0 +
STACK CFI INIT 5cccc 68 .cfa: sp 0 +
STACK CFI 5ccd0 .cfa: sp 32 +
STACK CFI 5ccd8 .cfa: x29 32 + x19: .cfa -16 + ^ .ra: .cfa -24 + ^ x29: .cfa -32 + ^
STACK CFI 5cd1c .cfa: sp 32 +
STACK CFI 5cd24 .cfa: sp 0 +
STACK CFI 5cd28 .cfa: sp 32 +
STACK CFI 5cd30 .cfa: sp 0 +
STACK CFI INIT 5cd34 1c .cfa: sp 0 +
STACK CFI INIT 5d8dc 4 .cfa: sp 0 +
STACK CFI INIT 5dc1c 4 .cfa: sp 0 +
STACK CFI INIT 5dd54 4 .cfa: sp 0 +
STACK CFI INIT 607a8 88 .cfa: sp 0 +
STACK CFI 607ac .cfa: sp 48 +
STACK CFI 607b8 .cfa: x29 48 + x19: .cfa -8 + ^ x20: .cfa -16 + ^ x21: .cfa -24 + ^ x22: .cfa -32 + ^ .ra: .cfa -40 + ^ x29: .cfa -48 + ^
STACK CFI 60818 .cfa: sp 48 +
STACK CFI 60824 .cfa: sp 0 +
STACK CFI 60828 .cfa: x29 48 +
STACK CFI INIT 60830 144 .cfa: sp 0 +
STACK CFI 60834 .cfa: sp 64 +
STACK CFI 60844 .cfa: x29 64 + x19: .cfa -8 + ^ x20: .cfa -16 + ^ x21: .cfa -24 + ^ x22: .cfa -32 + ^ x23: .cfa -48 + ^ .ra: .cfa -56 + ^ x29: .cfa -64 + ^
STACK CFI 608e4 .cfa: sp 64 +
STACK CFI 608f4 .cfa: sp 0 +
STACK CFI 608f8 .cfa: x29 64 +
STACK CFI 608fc .cfa: sp 64 +
STACK CFI 6090c .cfa: sp 0 +
STACK CFI 60910 .cfa: x29 64 +
STACK CFI INIT 60974 d8 .cfa: sp 0 +
STACK CFI 60978 .cfa: sp 64 +
STACK CFI 60988 .cfa: x29 64 + x19: .cfa -8 + ^ x20: .cfa -16 + ^ x21: .cfa -24 + ^ x22: .cfa -32 + ^ x23: .cfa -48 + ^ .ra: .cfa -56 + ^ x29: .cfa -64 + ^
STACK CFI 60a20 .cfa: sp 64 +
STACK CFI 60a30 .cfa: sp 0 +
STACK CFI 60a34 .cfa: x29 64 +
STACK CFI 60a38 .cfa: sp 64 +
STACK CFI 60a48 .cfa: sp 0 +
STACK CFI INIT 60a4c 68 .cfa: sp 0 +
STACK CFI 60a50 .cfa: sp 32 +
STACK CFI 60a58 .cfa: x29 32 + x19: .cfa -16 + ^ .ra: .cfa -24 + ^ x29: .cfa -32 + ^
STACK CFI 60a9c .cfa: sp 32 +
STACK CFI 60aa4 .cfa: sp 0 +
STACK CFI 60aa8 .cfa: sp 32 +
STACK CFI 60ab0 .cfa: sp 0 +
STACK CFI INIT 60ab4 1c .cfa: sp 0 +
STACK CFI INIT 60c94 44 .cfa: sp 0 +
STACK CFI 60c98 .cfa: sp 32 +
STACK CFI 60ca0 .cfa: x29 32 + x19: .cfa -16 + ^ .ra: .cfa -24 + ^ x29: .cfa -32 + ^
STACK CFI 60ccc .cfa: sp 32 +
STACK CFI 60cd4 .cfa: sp 0 +
STACK CFI INIT 61820 4 .cfa: sp 0 +
STACK CFI INIT 61af8 38 .cfa: sp 0 +
STACK CFI 61afc .cfa: sp 32 +
STACK CFI 61b04 .cfa: x29 32 + x19: .cfa -8 + ^ x20: .cfa -16 + ^ .ra: .cfa -24 + ^ x29: .cfa -32 + ^
STACK CFI 61b24 .cfa: sp 32 +
STACK CFI 61b2c .cfa: sp 0 +
STACK CFI INIT 61cb0 28 .cfa: sp 0 +
STACK CFI 61cb4 .cfa: sp 32 +
STACK CFI 61cbc .cfa: x29 32 + x19: .cfa -16 + ^ .ra: .cfa -24 + ^ x29: .cfa -32 + ^
STACK CFI 61ccc .cfa: sp 32 +
STACK CFI 61cd4 .cfa: sp 0 +
STACK CFI INIT 62424 68 .cfa: sp 0 +
STACK CFI 62428 .cfa: sp 32 +
STACK CFI 62430 .cfa: x29 32 + x19: .cfa -16 + ^ .ra: .cfa -24 + ^ x29: .cfa -32 + ^
STACK CFI 62474 .cfa: sp 32 +
STACK CFI 6247c .cfa: sp 0 +
STACK CFI 62480 .cfa: sp 32 +
STACK CFI 62488 .cfa: sp 0 +
STACK CFI INIT 6248c 1c .cfa: sp 0 +
STACK CFI INIT 62688 44 .cfa: sp 0 +
STACK CFI 6268c .cfa: sp 32 +
STACK CFI 62694 .cfa: x29 32 + x19: .cfa -16 + ^ .ra: .cfa -24 + ^ x29: .cfa -32 + ^
STACK CFI 626c0 .cfa: sp 32 +
STACK CFI 626c8 .cfa: sp 0 +
STACK CFI INIT 62f60 4 .cfa: sp 0 +
STACK CFI INIT 632a0 38 .cfa: sp 0 +
STACK CFI 632a4 .cfa: sp 32 +
STACK CFI 632ac .cfa: x29 32 + x19: .cfa -8 + ^ x20: .cfa -16 + ^ .ra: .cfa -24 + ^ x29: .cfa -32 + ^
STACK CFI 632cc .cfa: sp 32 +
STACK CFI 632d4 .cfa: sp 0 +
STACK CFI INIT 63bf8 fc .cfa: sp 0 +
STACK CFI 63bfc .cfa: sp 112 +
STACK CFI 63c18 .cfa: x29 96 + x19: .cfa -8 + ^ x20: .cfa -16 + ^ x21: .cfa -24 + ^ x22: .cfa -32 + ^ x23: .cfa -40 + ^ x24: .cfa -48 + ^ x25: .cfa -56 + ^ x26: .cfa -64 + ^ x27: .cfa -72 + ^ x28: .cfa -80 + ^ .ra: .cfa -88 + ^ x29: .cfa -96 + ^
STACK CFI 63cd4 .cfa: sp 112 +
STACK CFI 63cf0 .cfa: sp 0 +
STACK CFI INIT 63cf4 68 .cfa: sp 0 +
STACK CFI 63cf8 .cfa: sp 32 +
STACK CFI 63d00 .cfa: x29 32 + x19: .cfa -16 + ^ .ra: .cfa -24 + ^ x29: .cfa -32 + ^
STACK CFI 63d44 .cfa: sp 32 +
STACK CFI 63d4c .cfa: sp 0 +
STACK CFI 63d50 .cfa: sp 32 +
STACK CFI 63d58 .cfa: sp 0 +
STACK CFI INIT 63d5c 1c .cfa: sp 0 +
STACK CFI INIT 63f74 44 .cfa: sp 0 +
STACK CFI 63f78 .cfa: sp 32 +
STACK CFI 63f80 .cfa: x29 32 + x19: .cfa -16 + ^ .ra: .cfa -24 + ^ x29: .cfa -32 + ^
STACK CFI 63fac .cfa: sp 32 +
STACK CFI 63fb4 .cfa: sp 0 +
STACK CFI INIT 64854 4 .cfa: sp 0 +
STACK CFI INIT 64b94 38 .cfa: sp 0 +
STACK CFI 64b98 .cfa: sp 32 +
STACK CFI 64ba0 .cfa: x29 32 + x19: .cfa -8 + ^ x20: .cfa -16 + ^ .ra: .cfa -24 + ^ x29: .cfa -32 + ^
STACK CFI 64bc0 .cfa: sp 32 +
STACK CFI 64bc8 .cfa: sp 0 +
STACK CFI INIT 680e8 68 .cfa: sp 0 +
STACK CFI 680ec .cfa: sp 32 +
STACK CFI 680f4 .cfa: x29 32 + x19: .cfa -16 + ^ .ra: .cfa -24 + ^ x29: .cfa -32 + ^
STACK CFI 68138 .cfa: sp 32 +
STACK CFI 68140 .cfa: sp 0 +
STACK CFI 68144 .cfa: sp 32 +
STACK CFI 6814c .cfa: sp 0 +
STACK CFI INIT 68150 1c .cfa: sp 0 +
STACK CFI INIT 6834c 44 .cfa: sp 0 +
STACK CFI 68350 .cfa: sp 32 +
STACK CFI 68358 .cfa: x29 32 + x19: .cfa -16 + ^ .ra: .cfa -24 + ^ x29: .cfa -32 + ^
STACK CFI 68384 .cfa: sp 32 +
STACK CFI 6838c .cfa: sp 0 +
STACK CFI INIT 68390 118 .cfa: sp 0 +
STACK CFI 68394 .cfa: sp 80 +
STACK CFI 683a4 .cfa: x29 48 + x19: .cfa -8 + ^ x20: .cfa -16 + ^ x21: .cfa -24 + ^ x22: .cfa -32 + ^ .ra: .cfa -40 + ^ x29: .cfa -48 + ^
STACK CFI 68490 .cfa: sp 80 +
STACK CFI 684a0 .cfa: sp 0 +
STACK CFI 684a4 .cfa: x29 48 +
STACK CFI INIT 68d3c 4 .cfa: sp 0 +
STACK CFI INIT 6907c 38 .cfa: sp 0 +
STACK CFI 69080 .cfa: sp 32 +
STACK CFI 69088 .cfa: x29 32 + x19: .cfa -8 + ^ x20: .cfa -16 + ^ .ra: .cfa -24 + ^ x29: .cfa -32 + ^
STACK CFI 690a8 .cfa: sp 32 +
STACK CFI 690b0 .cfa: sp 0 +
STACK CFI INIT 6ae94 144 .cfa: sp 0 +
STACK CFI 6ae98 .cfa: sp 64 +
STACK CFI 6aea8 .cfa: x29 64 + x19: .cfa -8 + ^ x20: .cfa -16 + ^ x21: .cfa -24 + ^ x22: .cfa -32 + ^ x23: .cfa -48 + ^ .ra: .cfa -56 + ^ x29: .cfa -64 + ^
STACK CFI 6af48 .cfa: sp 64 +
STACK CFI 6af58 .cfa: sp 0 +
STACK CFI 6af5c .cfa: x29 64 +
STACK CFI 6af60 .cfa: sp 64 +
STACK CFI 6af70 .cfa: sp 0 +
STACK CFI 6af74 .cfa: x29 64 +
STACK CFI INIT 6afd8 68 .cfa: sp 0 +
STACK CFI 6afdc .cfa: sp 32 +
STACK CFI 6afe4 .cfa: x29 32 + x19: .cfa -16 + ^ .ra: .cfa -24 + ^ x29: .cfa -32 + ^
STACK CFI 6b028 .cfa: sp 32 +
STACK CFI 6b030 .cfa: sp 0 +
STACK CFI 6b034 .cfa: sp 32 +
STACK CFI 6b03c .cfa: sp 0 +
STACK CFI INIT 6b040 1c .cfa: sp 0 +
STACK CFI INIT 6bed8 4 .cfa: sp 0 +
STACK CFI INIT 6c1cc 34 .cfa: sp 0 +
STACK CFI 6c1d0 .cfa: sp 32 +
STACK CFI 6c1d8 .cfa: x29 32 + x19: .cfa -16 + ^ .ra: .cfa -24 + ^ x29: .cfa -32 + ^
STACK CFI 6c1f4 .cfa: sp 32 +
STACK CFI 6c1fc .cfa: sp 0 +
STACK CFI INIT 6c44c 38 .cfa: sp 0 +
STACK CFI 6c450 .cfa: sp 32 +
STACK CFI 6c458 .cfa: x29 32 + x19: .cfa -16 + ^ .ra: .cfa -24 + ^ x29: .cfa -32 + ^
STACK CFI 6c478 .cfa: sp 32 +
STACK CFI 6c480 .cfa: sp 0 +
STACK CFI INIT 6ca94 4 .cfa: sp 0 +
STACK CFI INIT 6ca98 4 .cfa: sp 0 +
STACK CFI INIT 6ca9c 4 .cfa: sp 0 +
STACK CFI INIT 6caa0 4 .cfa: sp 0 +
STACK CFI INIT 6cc68 44 .cfa: sp 0 +
STACK CFI 6cc6c .cfa: sp 32 +
STACK CFI 6cc74 .cfa: x29 32 + x19: .cfa -16 + ^ .ra: .cfa -24 + ^ x29: .cfa -32 + ^
STACK CFI 6cca0 .cfa: sp 32 +
STACK CFI 6cca8 .cfa: sp 0 +
STACK CFI INIT 6e28c 68 .cfa: sp 0 +
STACK CFI 6e290 .cfa: sp 32 +
STACK CFI 6e298 .cfa: x29 32 + x19: .cfa -16 + ^ .ra: .cfa -24 + ^ x29: .cfa -32 + ^
STACK CFI 6e2dc .cfa: sp 32 +
STACK CFI 6e2e4 .cfa: sp 0 +
STACK CFI 6e2e8 .cfa: sp 32 +
STACK CFI 6e2f0 .cfa: sp 0 +
STACK CFI INIT 6e2f4 1c .cfa: sp 0 +
STACK CFI INIT 6e4e4 44 .cfa: sp 0 +
STACK CFI 6e4e8 .cfa: sp 32 +
STACK CFI 6e4f0 .cfa: x29 32 + x19: .cfa -16 + ^ .ra: .cfa -24 + ^ x29: .cfa -32 + ^
STACK CFI 6e51c .cfa: sp 32 +
STACK CFI 6e524 .cfa: sp 0 +
STACK CFI INIT 6f474 4 .cfa: sp 0 +
STACK CFI INIT 6f74c 38 .cfa: sp 0 +
STACK CFI 6f750 .cfa: sp 32 +
STACK CFI 6f758 .cfa: x29 32 + x19: .cfa -8 + ^ x20: .cfa -16 + ^ .ra: .cfa -24 + ^ x29: .cfa -32 + ^
STACK CFI 6f778 .cfa: sp 32 +
STACK CFI 6f780 .cfa: sp 0 +
STACK CFI INIT 6f8b8 4 .cfa: sp 0 +
STACK CFI INIT 6f8bc 4 .cfa: sp 0 +
STACK CFI INIT 6f8c0 4 .cfa: sp 0 +
STACK CFI INIT 71260 68 .cfa: sp 0 +
STACK CFI 71264 .cfa: sp 32 +
STACK CFI 7126c .cfa: x29 32 + x19: .cfa -16 + ^ .ra: .cfa -24 + ^ x29: .cfa -32 + ^
STACK CFI 712b0 .cfa: sp 32 +
STACK CFI 712b8 .cfa: sp 0 +
STACK CFI 712bc .cfa: sp 32 +
STACK CFI 712c4 .cfa: sp 0 +
STACK CFI INIT 712c8 1c .cfa: sp 0 +
STACK CFI INIT 714b0 44 .cfa: sp 0 +
STACK CFI 714b4 .cfa: sp 32 +
STACK CFI 714bc .cfa: x29 32 + x19: .cfa -16 + ^ .ra: .cfa -24 + ^ x29: .cfa -32 + ^
STACK CFI 714e8 .cfa: sp 32 +
STACK CFI 714f0 .cfa: sp 0 +
STACK CFI INIT 71d48 4 .cfa: sp 0 +
STACK CFI INIT 72020 38 .cfa: sp 0 +
STACK CFI 72024 .cfa: sp 32 +
STACK CFI 7202c .cfa: x29 32 + x19: .cfa -8 + ^ x20: .cfa -16 + ^ .ra: .cfa -24 + ^ x29: .cfa -32 + ^
STACK CFI 7204c .cfa: sp 32 +
STACK CFI 72054 .cfa: sp 0 +
STACK CFI INIT 73424 68 .cfa: sp 0 +
STACK CFI 73428 .cfa: sp 32 +
STACK CFI 73430 .cfa: x29 32 + x19: .cfa -16 + ^ .ra: .cfa -24 + ^ x29: .cfa -32 + ^
STACK CFI 73474 .cfa: sp 32 +
STACK CFI 7347c .cfa: sp 0 +
STACK CFI 73480 .cfa: sp 32 +
STACK CFI 73488 .cfa: sp 0 +
STACK CFI INIT 7348c 1c .cfa: sp 0 +
STACK CFI INIT 73674 44 .cfa: sp 0 +
STACK CFI 73678 .cfa: sp 32 +
STACK CFI 73680 .cfa: x29 32 + x19: .cfa -16 + ^ .ra: .cfa -24 + ^ x29: .cfa -32 + ^
STACK CFI 736ac .cfa: sp 32 +
STACK CFI 736b4 .cfa: sp 0 +
STACK CFI INIT 73f0c 4 .cfa: sp 0 +
STACK CFI INIT 7424c 38 .cfa: sp 0 +
STACK CFI 74250 .cfa: sp 32 +
STACK CFI 74258 .cfa: x29 32 + x19: .cfa -8 + ^ x20: .cfa -16 + ^ .ra: .cfa -24 + ^ x29: .cfa -32 + ^
STACK CFI 74278 .cfa: sp 32 +
STACK CFI 74280 .cfa: sp 0 +
STACK CFI INIT 755ac 68 .cfa: sp 0 +
STACK CFI 755b0 .cfa: sp 32 +
STACK CFI 755b8 .cfa: x29 32 + x19: .cfa -16 + ^ .ra: .cfa -24 + ^ x29: .cfa -32 + ^
STACK CFI 755fc .cfa: sp 32 +
STACK CFI 75604 .cfa: sp 0 +
STACK CFI 75608 .cfa: sp 32 +
STACK CFI 75610 .cfa: sp 0 +
STACK CFI INIT 75614 1c .cfa: sp 0 +
STACK CFI INIT 75808 44 .cfa: sp 0 +
STACK CFI 7580c .cfa: sp 32 +
STACK CFI 75814 .cfa: x29 32 + x19: .cfa -16 + ^ .ra: .cfa -24 + ^ x29: .cfa -32 + ^
STACK CFI 75840 .cfa: sp 32 +
STACK CFI 75848 .cfa: sp 0 +
STACK CFI INIT 760e8 4 .cfa: sp 0 +
STACK CFI INIT 763dc 28 .cfa: sp 0 +
STACK CFI 763e0 .cfa: sp 32 +
STACK CFI 763e8 .cfa: x29 32 + x19: .cfa -16 + ^ .ra: .cfa -24 + ^ x29: .cfa -32 + ^
STACK CFI 763f8 .cfa: sp 32 +
STACK CFI 76400 .cfa: sp 0 +
STACK CFI INIT 771d8 1e8 .cfa: sp 0 +
STACK CFI 771dc .cfa: sp 112 +
STACK CFI 771f8 .cfa: x29 80 + x19: .cfa -8 + ^ x20: .cfa -16 + ^ x21: .cfa -24 + ^ x22: .cfa -32 + ^ x23: .cfa -40 + ^ x24: .cfa -48 + ^ x25: .cfa -56 + ^ x26: .cfa -64 + ^ .ra: .cfa -72 + ^ x29: .cfa -80 + ^ v8: .cfa -88 + ^ v9: .cfa -96 + ^ v10: .cfa -104 + ^ v11: .cfa -112 + ^
STACK CFI 773a0 .cfa: sp 112 +
STACK CFI 773bc .cfa: sp 0 +
STACK CFI INIT 773c0 68 .cfa: sp 0 +
STACK CFI 773c4 .cfa: sp 32 +
STACK CFI 773cc .cfa: x29 32 + x19: .cfa -16 + ^ .ra: .cfa -24 + ^ x29: .cfa -32 + ^
STACK CFI 77410 .cfa: sp 32 +
STACK CFI 77418 .cfa: sp 0 +
STACK CFI 7741c .cfa: sp 32 +
STACK CFI 77424 .cfa: sp 0 +
STACK CFI INIT 77428 1c .cfa: sp 0 +
STACK CFI INIT 77610 44 .cfa: sp 0 +
STACK CFI 77614 .cfa: sp 32 +
STACK CFI 7761c .cfa: x29 32 + x19: .cfa -16 + ^ .ra: .cfa -24 + ^ x29: .cfa -32 + ^
STACK CFI 77648 .cfa: sp 32 +
STACK CFI 77650 .cfa: sp 0 +
STACK CFI INIT 77ee8 4 .cfa: sp 0 +
STACK CFI INIT 781dc 28 .cfa: sp 0 +
STACK CFI 781e0 .cfa: sp 32 +
STACK CFI 781e8 .cfa: x29 32 + x19: .cfa -16 + ^ .ra: .cfa -24 + ^ x29: .cfa -32 + ^
STACK CFI 781f8 .cfa: sp 32 +
STACK CFI 78200 .cfa: sp 0 +
STACK CFI INIT 7873c 68 .cfa: sp 0 +
STACK CFI 78740 .cfa: sp 32 +
STACK CFI 78748 .cfa: x29 32 + x19: .cfa -16 + ^ .ra: .cfa -24 + ^ x29: .cfa -32 + ^
STACK CFI 7878c .cfa: sp 32 +
STACK CFI 78794 .cfa: sp 0 +
STACK CFI 78798 .cfa: sp 32 +
STACK CFI 787a0 .cfa: sp 0 +
STACK CFI INIT 787a4 1c .cfa: sp 0 +
STACK CFI INIT 78a10 44 .cfa: sp 0 +
STACK CFI 78a14 .cfa: sp 32 +
STACK CFI 78a1c .cfa: x29 32 + x19: .cfa -16 + ^ .ra: .cfa -24 + ^ x29: .cfa -32 + ^
STACK CFI 78a48 .cfa: sp 32 +
STACK CFI 78a50 .cfa: sp 0 +
STACK CFI INIT 792a0 4 .cfa: sp 0 +
STACK CFI INIT 79578 38 .cfa: sp 0 +
STACK CFI 7957c .cfa: sp 32 +
STACK CFI 79584 .cfa: x29 32 + x19: .cfa -8 + ^ x20: .cfa -16 + ^ .ra: .cfa -24 + ^ x29: .cfa -32 + ^
STACK CFI 795a4 .cfa: sp 32 +
STACK CFI 795ac .cfa: sp 0 +
STACK CFI INIT 79c90 68 .cfa: sp 0 +
STACK CFI 79c94 .cfa: sp 32 +
STACK CFI 79c9c .cfa: x29 32 + x19: .cfa -16 + ^ .ra: .cfa -24 + ^ x29: .cfa -32 + ^
STACK CFI 79ce0 .cfa: sp 32 +
STACK CFI 79ce8 .cfa: sp 0 +
STACK CFI 79cec .cfa: sp 32 +
STACK CFI 79cf4 .cfa: sp 0 +
STACK CFI INIT 79cf8 1c .cfa: sp 0 +
STACK CFI INIT 79eec 44 .cfa: sp 0 +
STACK CFI 79ef0 .cfa: sp 32 +
STACK CFI 79ef8 .cfa: x29 32 + x19: .cfa -16 + ^ .ra: .cfa -24 + ^ x29: .cfa -32 + ^
STACK CFI 79f24 .cfa: sp 32 +
STACK CFI 79f2c .cfa: sp 0 +
STACK CFI INIT 7a788 4 .cfa: sp 0 +
STACK CFI INIT 7aa60 38 .cfa: sp 0 +
STACK CFI 7aa64 .cfa: sp 32 +
STACK CFI 7aa6c .cfa: x29 32 + x19: .cfa -8 + ^ x20: .cfa -16 + ^ .ra: .cfa -24 + ^ x29: .cfa -32 + ^
STACK CFI 7aa8c .cfa: sp 32 +
STACK CFI 7aa94 .cfa: sp 0 +
STACK CFI INIT 7bfc8 68 .cfa: sp 0 +
STACK CFI 7bfcc .cfa: sp 32 +
STACK CFI 7bfd4 .cfa: x29 32 + x19: .cfa -16 + ^ .ra: .cfa -24 + ^ x29: .cfa -32 + ^
STACK CFI 7c018 .cfa: sp 32 +
STACK CFI 7c020 .cfa: sp 0 +
STACK CFI 7c024 .cfa: sp 32 +
STACK CFI 7c02c .cfa: sp 0 +
STACK CFI INIT 7c030 1c .cfa: sp 0 +
STACK CFI INIT 7c22c 44 .cfa: sp 0 +
STACK CFI 7c230 .cfa: sp 32 +
STACK CFI 7c238 .cfa: x29 32 + x19: .cfa -16 + ^ .ra: .cfa -24 + ^ x29: .cfa -32 + ^
STACK CFI 7c264 .cfa: sp 32 +
STACK CFI 7c26c .cfa: sp 0 +
STACK CFI INIT 7cdac 4 .cfa: sp 0 +
STACK CFI INIT 7d084 38 .cfa: sp 0 +
STACK CFI 7d088 .cfa: sp 32 +
STACK CFI 7d090 .cfa: x29 32 + x19: .cfa -8 + ^ x20: .cfa -16 + ^ .ra: .cfa -24 + ^ x29: .cfa -32 + ^
STACK CFI 7d0b0 .cfa: sp 32 +
STACK CFI 7d0b8 .cfa: sp 0 +
STACK CFI INIT 7d23c 4 .cfa: sp 0 +
STACK CFI INIT 7f7a4 118 .cfa: sp 0 +
STACK CFI 7f7a8 .cfa: sp 80 +
STACK CFI 7f7b8 .cfa: x29 48 + x19: .cfa -8 + ^ x20: .cfa -16 + ^ x21: .cfa -24 + ^ x22: .cfa -32 + ^ .ra: .cfa -40 + ^ x29: .cfa -48 + ^
STACK CFI 7f8a4 .cfa: sp 80 +
STACK CFI 7f8b4 .cfa: sp 0 +
STACK CFI 7f8b8 .cfa: x29 48 +
STACK CFI INIT 80160 ac .cfa: sp 0 +
STACK CFI 80164 .cfa: sp 32 +
STACK CFI 8016c .cfa: x29 32 + x19: .cfa -16 + ^ .ra: .cfa -24 + ^ x29: .cfa -32 + ^
STACK CFI 801a0 .cfa: sp 32 +
STACK CFI 801a8 .cfa: sp 0 +
STACK CFI 801ac .cfa: x29 32 +
STACK CFI 80200 .cfa: sp 32 +
STACK CFI 80208 .cfa: sp 0 +
STACK CFI INIT 8020c 68 .cfa: sp 0 +
STACK CFI 80210 .cfa: sp 32 +
STACK CFI 80218 .cfa: x29 32 + x19: .cfa -16 + ^ .ra: .cfa -24 + ^ x29: .cfa -32 + ^
STACK CFI 8025c .cfa: sp 32 +
STACK CFI 80264 .cfa: sp 0 +
STACK CFI 80268 .cfa: sp 32 +
STACK CFI 80270 .cfa: sp 0 +
STACK CFI INIT 80274 1c .cfa: sp 0 +
STACK CFI INIT 80470 44 .cfa: sp 0 +
STACK CFI 80474 .cfa: sp 32 +
STACK CFI 8047c .cfa: x29 32 + x19: .cfa -16 + ^ .ra: .cfa -24 + ^ x29: .cfa -32 + ^
STACK CFI 804a8 .cfa: sp 32 +
STACK CFI 804b0 .cfa: sp 0 +
STACK CFI INIT 80d00 4 .cfa: sp 0 +
STACK CFI INIT 80ff4 38 .cfa: sp 0 +
STACK CFI 80ff8 .cfa: sp 32 +
STACK CFI 81000 .cfa: x29 32 + x19: .cfa -8 + ^ x20: .cfa -16 + ^ .ra: .cfa -24 + ^ x29: .cfa -32 + ^
STACK CFI 81020 .cfa: sp 32 +
STACK CFI 81028 .cfa: sp 0 +
STACK CFI INIT 84074 1f4 .cfa: sp 0 +
STACK CFI 84078 .cfa: sp 192 +
STACK CFI 84094 .cfa: x29 96 + x19: .cfa -8 + ^ x20: .cfa -16 + ^ x21: .cfa -24 + ^ x22: .cfa -32 + ^ x23: .cfa -40 + ^ x24: .cfa -48 + ^ x25: .cfa -56 + ^ x26: .cfa -64 + ^ x27: .cfa -72 + ^ x28: .cfa -80 + ^ .ra: .cfa -88 + ^ x29: .cfa -96 + ^
STACK CFI 84248 .cfa: sp 192 +
STACK CFI 84264 .cfa: sp 0 +
STACK CFI INIT 84268 1b0 .cfa: sp 0 +
STACK CFI 8426c .cfa: sp 80 +
STACK CFI 84280 .cfa: x29 80 + x19: .cfa -8 + ^ x20: .cfa -16 + ^ x21: .cfa -24 + ^ x22: .cfa -32 + ^ x23: .cfa -40 + ^ x24: .cfa -48 + ^ x25: .cfa -64 + ^ .ra: .cfa -72 + ^ x29: .cfa -80 + ^
STACK CFI 84400 .cfa: sp 80 +
STACK CFI 84414 .cfa: sp 0 +
STACK CFI INIT 85690 68 .cfa: sp 0 +
STACK CFI 85694 .cfa: sp 32 +
STACK CFI 8569c .cfa: x29 32 + x19: .cfa -16 + ^ .ra: .cfa -24 + ^ x29: .cfa -32 + ^
STACK CFI 856e0 .cfa: sp 32 +
STACK CFI 856e8 .cfa: sp 0 +
STACK CFI 856ec .cfa: sp 32 +
STACK CFI 856f4 .cfa: sp 0 +
STACK CFI INIT 856f8 1c .cfa: sp 0 +
STACK CFI INIT 858e8 44 .cfa: sp 0 +
STACK CFI 858ec .cfa: sp 32 +
STACK CFI 858f4 .cfa: x29 32 + x19: .cfa -16 + ^ .ra: .cfa -24 + ^ x29: .cfa -32 + ^
STACK CFI 85920 .cfa: sp 32 +
STACK CFI 85928 .cfa: sp 0 +
STACK CFI INIT 8592c 118 .cfa: sp 0 +
STACK CFI 85930 .cfa: sp 80 +
STACK CFI 85940 .cfa: x29 48 + x19: .cfa -8 + ^ x20: .cfa -16 + ^ x21: .cfa -24 + ^ x22: .cfa -32 + ^ .ra: .cfa -40 + ^ x29: .cfa -48 + ^
STACK CFI 85a2c .cfa: sp 80 +
STACK CFI 85a3c .cfa: sp 0 +
STACK CFI 85a40 .cfa: x29 48 +
STACK CFI INIT 86298 4 .cfa: sp 0 +
STACK CFI INIT 86570 44 .cfa: sp 0 +
STACK CFI 86574 .cfa: sp 32 +
STACK CFI 8657c .cfa: x29 32 + x19: .cfa -8 + ^ x20: .cfa -16 + ^ .ra: .cfa -24 + ^ x29: .cfa -32 + ^
STACK CFI 865a8 .cfa: sp 32 +
STACK CFI 865b0 .cfa: sp 0 +
STACK CFI INIT 86be8 68 .cfa: sp 0 +
STACK CFI 86bec .cfa: sp 32 +
STACK CFI 86bf4 .cfa: x29 32 + x19: .cfa -16 + ^ .ra: .cfa -24 + ^ x29: .cfa -32 + ^
STACK CFI 86c38 .cfa: sp 32 +
STACK CFI 86c40 .cfa: sp 0 +
STACK CFI 86c44 .cfa: sp 32 +
STACK CFI 86c4c .cfa: sp 0 +
STACK CFI INIT 86c50 1c .cfa: sp 0 +
STACK CFI INIT 86e40 44 .cfa: sp 0 +
STACK CFI 86e44 .cfa: sp 32 +
STACK CFI 86e4c .cfa: x29 32 + x19: .cfa -16 + ^ .ra: .cfa -24 + ^ x29: .cfa -32 + ^
STACK CFI 86e78 .cfa: sp 32 +
STACK CFI 86e80 .cfa: sp 0 +
STACK CFI INIT 876d0 4 .cfa: sp 0 +
STACK CFI INIT 87a10 38 .cfa: sp 0 +
STACK CFI 87a14 .cfa: sp 32 +
STACK CFI 87a1c .cfa: x29 32 + x19: .cfa -8 + ^ x20: .cfa -16 + ^ .ra: .cfa -24 + ^ x29: .cfa -32 + ^
STACK CFI 87a3c .cfa: sp 32 +
STACK CFI 87a44 .cfa: sp 0 +
STACK CFI INIT 881a4 4 .cfa: sp 0 +
STACK CFI INIT 881a8 4 .cfa: sp 0 +
STACK CFI INIT 882b4 40 .cfa: sp 0 +
STACK CFI 882b8 .cfa: sp 32 +
STACK CFI 882c0 .cfa: x29 32 + x19: .cfa -16 + ^ .ra: .cfa -24 + ^ x29: .cfa -32 + ^
STACK CFI 882e8 .cfa: sp 32 +
STACK CFI 882f0 .cfa: sp 0 +
STACK CFI INIT 882f4 48 .cfa: sp 0 +
STACK CFI 882f8 .cfa: sp 32 +
STACK CFI 88300 .cfa: x29 32 + x19: .cfa -16 + ^ .ra: .cfa -24 + ^ x29: .cfa -32 + ^
STACK CFI 88330 .cfa: sp 32 +
STACK CFI 88338 .cfa: sp 0 +
STACK CFI INIT 8833c 4 .cfa: sp 0 +
STACK CFI INIT 88340 4 .cfa: sp 0 +
STACK CFI INIT 88344 c .cfa: sp 0 +
STACK CFI INIT 88350 34 .cfa: sp 0 +
STACK CFI 88354 .cfa: sp 32 +
STACK CFI 8835c .cfa: x29 32 + x19: .cfa -16 + ^ .ra: .cfa -24 + ^ x29: .cfa -32 + ^
STACK CFI 88378 .cfa: sp 32 +
STACK CFI 88380 .cfa: sp 0 +
STACK CFI INIT 88484 3c .cfa: sp 0 +
STACK CFI 88488 .cfa: sp 32 +
STACK CFI 88490 .cfa: x29 32 + x19: .cfa -16 + ^ .ra: .cfa -24 + ^ x29: .cfa -32 + ^
STACK CFI 8849c .cfa: sp 32 +
STACK CFI 884a4 .cfa: sp 0 +
STACK CFI 884a8 .cfa: x29 32 +
STACK CFI 884b4 .cfa: sp 32 +
STACK CFI 884bc .cfa: sp 0 +
STACK CFI INIT 884c0 4c .cfa: sp 0 +
STACK CFI 884c4 .cfa: sp 32 +
STACK CFI 884cc .cfa: x29 32 + x19: .cfa -16 + ^ .ra: .cfa -24 + ^ x29: .cfa -32 + ^
STACK CFI 884e0 .cfa: sp 32 +
STACK CFI 884e8 .cfa: sp 0 +
STACK CFI 884ec .cfa: x29 32 +
STACK CFI 88500 .cfa: sp 32 +
STACK CFI 88508 .cfa: sp 0 +
STACK CFI INIT 88830 bc .cfa: sp 0 +
STACK CFI 88834 .cfa: sp 48 +
STACK CFI 88840 .cfa: x29 48 + x19: .cfa -8 + ^ x20: .cfa -16 + ^ x21: .cfa -24 + ^ x22: .cfa -32 + ^ .ra: .cfa -40 + ^ x29: .cfa -48 + ^
STACK CFI 88854 .cfa: sp 48 +
STACK CFI 88860 .cfa: sp 0 +
STACK CFI 88864 .cfa: x29 48 +
STACK CFI 8887c .cfa: sp 48 +
STACK CFI 88888 .cfa: sp 0 +
STACK CFI 8888c .cfa: x29 48 +
STACK CFI 888d4 .cfa: sp 48 +
STACK CFI 888e0 .cfa: sp 0 +
STACK CFI 888e4 .cfa: x29 48 +
STACK CFI INIT 889ec 64 .cfa: sp 0 +
STACK CFI 889f0 .cfa: sp 32 +
STACK CFI 889f8 .cfa: x29 32 + x19: .cfa -16 + ^ .ra: .cfa -24 + ^ x29: .cfa -32 + ^
STACK CFI 88a24 .cfa: sp 32 +
STACK CFI 88a2c .cfa: sp 0 +
STACK CFI 88a30 .cfa: x29 32 +
STACK CFI 88a44 .cfa: sp 32 +
STACK CFI 88a4c .cfa: sp 0 +
STACK CFI INIT 88fd4 24 .cfa: sp 0 +
STACK CFI 88fd8 .cfa: sp 32 +
STACK CFI 88fe0 .cfa: x29 32 + x19: .cfa -16 + ^ .ra: .cfa -24 + ^ x29: .cfa -32 + ^
STACK CFI 88fec .cfa: sp 32 +
STACK CFI 88ff4 .cfa: sp 0 +
STACK CFI INIT 88ff8 8 .cfa: sp 0 +
STACK CFI INIT 89000 24 .cfa: sp 0 +
STACK CFI 89004 .cfa: sp 32 +
STACK CFI 8900c .cfa: x29 32 + x19: .cfa -16 + ^ .ra: .cfa -24 + ^ x29: .cfa -32 + ^
STACK CFI 89018 .cfa: sp 32 +
STACK CFI 89020 .cfa: sp 0 +
STACK CFI INIT 89024 28 .cfa: sp 0 +
STACK CFI 89028 .cfa: sp 32 +
STACK CFI 89030 .cfa: x29 32 + x19: .cfa -16 + ^ .ra: .cfa -24 + ^ x29: .cfa -32 + ^
STACK CFI 89040 .cfa: sp 32 +
STACK CFI 89048 .cfa: sp 0 +
STACK CFI INIT 8904c 24 .cfa: sp 0 +
STACK CFI 89050 .cfa: sp 32 +
STACK CFI 89058 .cfa: x29 32 + x19: .cfa -16 + ^ .ra: .cfa -24 + ^ x29: .cfa -32 + ^
STACK CFI 89064 .cfa: sp 32 +
STACK CFI 8906c .cfa: sp 0 +
STACK CFI INIT 8948c 24 .cfa: sp 0 +
STACK CFI 89490 .cfa: sp 32 +
STACK CFI 89498 .cfa: x29 32 + x19: .cfa -16 + ^ .ra: .cfa -24 + ^ x29: .cfa -32 + ^
STACK CFI 894a4 .cfa: sp 32 +
STACK CFI 894ac .cfa: sp 0 +
STACK CFI INIT 896b8 24 .cfa: sp 0 +
STACK CFI 896bc .cfa: sp 32 +
STACK CFI 896c4 .cfa: x29 32 + x19: .cfa -16 + ^ .ra: .cfa -24 + ^ x29: .cfa -32 + ^
STACK CFI 896d0 .cfa: sp 32 +
STACK CFI 896d8 .cfa: sp 0 +
STACK CFI INIT 8a1a8 2c .cfa: sp 0 +
STACK CFI 8a1ac .cfa: sp 32 +
STACK CFI 8a1b4 .cfa: x29 32 + x19: .cfa -16 + ^ .ra: .cfa -24 + ^ x29: .cfa -32 + ^
STACK CFI 8a1c8 .cfa: sp 32 +
STACK CFI 8a1d0 .cfa: sp 0 +
STACK CFI INIT 8a428 8 .cfa: sp 0 +
STACK CFI INIT 8a430 24 .cfa: sp 0 +
STACK CFI 8a434 .cfa: sp 32 +
STACK CFI 8a43c .cfa: x29 32 + x19: .cfa -16 + ^ .ra: .cfa -24 + ^ x29: .cfa -32 + ^
STACK CFI 8a448 .cfa: sp 32 +
STACK CFI 8a450 .cfa: sp 0 +
STACK CFI INIT 8a454 28 .cfa: sp 0 +
STACK CFI 8a458 .cfa: sp 32 +
STACK CFI 8a460 .cfa: x29 32 + x19: .cfa -16 + ^ .ra: .cfa -24 + ^ x29: .cfa -32 + ^
STACK CFI 8a470 .cfa: sp 32 +
STACK CFI 8a478 .cfa: sp 0 +
STACK CFI INIT 8a47c 44 .cfa: sp 0 +
STACK CFI 8a480 .cfa: sp 32 +
STACK CFI 8a488 .cfa: x29 32 + x19: .cfa -16 + ^ .ra: .cfa -24 + ^ x29: .cfa -32 + ^
STACK CFI 8a4b4 .cfa: sp 32 +
STACK CFI 8a4bc .cfa: sp 0 +
STACK CFI INIT 8a76c 4c .cfa: sp 0 +
STACK CFI 8a770 .cfa: sp 32 +
STACK CFI 8a778 .cfa: x29 32 + x19: .cfa -16 + ^ .ra: .cfa -24 + ^ x29: .cfa -32 + ^
STACK CFI 8a7ac .cfa: sp 32 +
STACK CFI 8a7b4 .cfa: sp 0 +
STACK CFI INIT 8a878 34 .cfa: sp 0 +
STACK CFI 8a87c .cfa: sp 32 +
STACK CFI 8a884 .cfa: x29 32 + x19: .cfa -16 + ^ .ra: .cfa -24 + ^ x29: .cfa -32 + ^
STACK CFI 8a8a0 .cfa: sp 32 +
STACK CFI 8a8a8 .cfa: sp 0 +
STACK CFI INIT 8a8ac 4 .cfa: sp 0 +
STACK CFI INIT 8af14 8 .cfa: sp 0 +
STACK CFI INIT 8af1c 18 .cfa: sp 0 +
STACK CFI 8af20 .cfa: sp 16 +
STACK CFI 8af24 .cfa: x29 16 + .ra: .cfa -8 + ^ x29: .cfa -16 + ^
STACK CFI 8af2c .cfa: sp 16 +
STACK CFI 8af30 .cfa: sp 0 +
STACK CFI INIT 8b210 4 .cfa: sp 0 +
STACK CFI INIT 8b214 24 .cfa: sp 0 +
STACK CFI 8b218 .cfa: sp 32 +
STACK CFI 8b220 .cfa: x29 32 + x19: .cfa -16 + ^ .ra: .cfa -24 + ^ x29: .cfa -32 + ^
STACK CFI 8b22c .cfa: sp 32 +
STACK CFI 8b234 .cfa: sp 0 +
STACK CFI INIT 8b238 3c .cfa: sp 0 +
STACK CFI 8b23c .cfa: sp 32 +
STACK CFI 8b244 .cfa: x29 32 + x19: .cfa -16 + ^ .ra: .cfa -24 + ^ x29: .cfa -32 + ^
STACK CFI 8b268 .cfa: sp 32 +
STACK CFI 8b270 .cfa: sp 0 +
STACK CFI INIT 8b274 44 .cfa: sp 0 +
STACK CFI 8b278 .cfa: sp 32 +
STACK CFI 8b280 .cfa: x29 32 + x19: .cfa -16 + ^ .ra: .cfa -24 + ^ x29: .cfa -32 + ^
STACK CFI 8b2ac .cfa: sp 32 +
STACK CFI 8b2b4 .cfa: sp 0 +
STACK CFI INIT 8b614 1d8 .cfa: sp 0 +
STACK CFI 8b618 .cfa: sp 32 +
STACK CFI 8b620 .cfa: x29 32 + x19: .cfa -8 + ^ x20: .cfa -16 + ^ .ra: .cfa -24 + ^ x29: .cfa -32 + ^
STACK CFI 8b6ac .cfa: sp 32 +
STACK CFI 8b6b4 .cfa: sp 0 +
STACK CFI 8b6b8 .cfa: x29 32 +
STACK CFI 8b6cc .cfa: sp 32 +
STACK CFI 8b6d4 .cfa: sp 0 +
STACK CFI 8b6d8 .cfa: x29 32 +
STACK CFI INIT 8b7ec 114 .cfa: sp 0 +
STACK CFI INIT 8b900 134 .cfa: sp 0 +
STACK CFI INIT 8ba84 30 .cfa: sp 0 +
STACK CFI 8ba88 .cfa: sp 32 +
STACK CFI 8ba90 .cfa: x29 32 + x19: .cfa -16 + ^ .ra: .cfa -24 + ^ x29: .cfa -32 + ^
STACK CFI 8baa8 .cfa: sp 32 +
STACK CFI 8bab0 .cfa: sp 0 +
STACK CFI INIT 8bdd8 7c .cfa: sp 0 +
STACK CFI 8bddc .cfa: sp 32 +
STACK CFI 8bde4 .cfa: x29 32 + x19: .cfa -16 + ^ .ra: .cfa -24 + ^ x29: .cfa -32 + ^
STACK CFI 8be10 .cfa: sp 32 +
STACK CFI 8be18 .cfa: sp 0 +
STACK CFI 8be1c .cfa: x29 32 +
STACK CFI 8be48 .cfa: sp 32 +
STACK CFI 8be50 .cfa: sp 0 +
STACK CFI INIT 8c15c 88 .cfa: sp 0 +
STACK CFI INIT 8c1e4 64 .cfa: sp 0 +
STACK CFI 8c1e8 .cfa: sp 32 +
STACK CFI 8c1f0 .cfa: x29 32 + x19: .cfa -16 + ^ .ra: .cfa -24 + ^ x29: .cfa -32 + ^
STACK CFI 8c20c .cfa: sp 32 +
STACK CFI 8c214 .cfa: sp 0 +
STACK CFI 8c218 .cfa: x29 32 +
STACK CFI 8c23c .cfa: sp 32 +
STACK CFI 8c244 .cfa: sp 0 +
STACK CFI INIT 8c36c 700 .cfa: sp 0 +
STACK CFI 8c370 .cfa: sp 192 +
STACK CFI 8c384 .cfa: x29 64 + x19: .cfa -8 + ^ x20: .cfa -16 + ^ x21: .cfa -24 + ^ x22: .cfa -32 + ^ x23: .cfa -40 + ^ x24: .cfa -48 + ^ .ra: .cfa -56 + ^ x29: .cfa -64 + ^
STACK CFI 8c5b4 .cfa: sp 192 +
STACK CFI 8c5c8 .cfa: sp 0 +
STACK CFI 8c5cc .cfa: x29 64 +
STACK CFI 8c630 .cfa: sp 192 +
STACK CFI 8c644 .cfa: sp 0 +
STACK CFI 8c648 .cfa: x29 64 +
STACK CFI 8c664 .cfa: sp 192 +
STACK CFI 8c678 .cfa: sp 0 +
STACK CFI 8c67c .cfa: x29 64 +
STACK CFI 8c738 .cfa: sp 192 +
STACK CFI 8c74c .cfa: sp 0 +
STACK CFI 8c750 .cfa: x29 64 +
STACK CFI 8c78c .cfa: sp 192 +
STACK CFI 8c7a0 .cfa: sp 0 +
STACK CFI 8c7a4 .cfa: x29 64 +
STACK CFI 8c7bc .cfa: sp 192 +
STACK CFI 8c7d0 .cfa: sp 0 +
STACK CFI 8c7d4 .cfa: x29 64 +
STACK CFI 8c7ec .cfa: sp 192 +
STACK CFI 8c800 .cfa: sp 0 +
STACK CFI 8c804 .cfa: x29 64 +
STACK CFI 8c820 .cfa: sp 192 +
STACK CFI 8c834 .cfa: sp 0 +
STACK CFI 8c838 .cfa: x29 64 +
STACK CFI 8c960 .cfa: sp 192 +
STACK CFI 8c974 .cfa: sp 0 +
STACK CFI 8c978 .cfa: x29 64 +
STACK CFI INIT 8ca6c 224 .cfa: sp 0 +
STACK CFI INIT 8cc90 308 .cfa: sp 0 +
STACK CFI INIT 8cf98 5ac .cfa: sp 0 +
STACK CFI INIT 8d65c 24 .cfa: sp 0 +
STACK CFI 8d660 .cfa: sp 32 +
STACK CFI 8d668 .cfa: x29 32 + x19: .cfa -16 + ^ .ra: .cfa -24 + ^ x29: .cfa -32 + ^
STACK CFI 8d674 .cfa: sp 32 +
STACK CFI 8d67c .cfa: sp 0 +
STACK CFI INIT 8d680 138 .cfa: sp 0 +
STACK CFI 8d684 .cfa: sp 48 +
STACK CFI 8d690 .cfa: x29 48 + x19: .cfa -8 + ^ x20: .cfa -16 + ^ x21: .cfa -32 + ^ .ra: .cfa -40 + ^ x29: .cfa -48 + ^
STACK CFI 8d798 .cfa: sp 48 +
STACK CFI 8d7a4 .cfa: sp 0 +
STACK CFI 8d7a8 .cfa: sp 48 +
STACK CFI 8d7b4 .cfa: sp 0 +
STACK CFI INIT 8d7b8 8c .cfa: sp 0 +
STACK CFI 8d7bc .cfa: sp 32 +
STACK CFI 8d7c4 .cfa: x29 32 + x19: .cfa -16 + ^ .ra: .cfa -24 + ^ x29: .cfa -32 + ^
STACK CFI 8d7f8 .cfa: sp 32 +
STACK CFI 8d800 .cfa: sp 0 +
STACK CFI 8d804 .cfa: x29 32 +
STACK CFI 8d838 .cfa: sp 32 +
STACK CFI 8d840 .cfa: sp 0 +
STACK CFI INIT 8d844 238 .cfa: sp 0 +
STACK CFI 8d848 .cfa: sp 80 +
STACK CFI 8d858 .cfa: x29 48 + x19: .cfa -8 + ^ x20: .cfa -16 + ^ x21: .cfa -24 + ^ x22: .cfa -32 + ^ .ra: .cfa -40 + ^ x29: .cfa -48 + ^
STACK CFI 8da24 .cfa: sp 80 +
STACK CFI 8da34 .cfa: sp 0 +
STACK CFI 8da38 .cfa: x29 48 +
STACK CFI INIT 8da7c 16c .cfa: sp 0 +
STACK CFI 8da80 .cfa: sp 48 +
STACK CFI 8da8c .cfa: x29 48 + x19: .cfa -8 + ^ x20: .cfa -16 + ^ x21: .cfa -24 + ^ x22: .cfa -32 + ^ .ra: .cfa -40 + ^ x29: .cfa -48 + ^
STACK CFI 8dbd8 .cfa: sp 48 +
STACK CFI 8dbe4 .cfa: sp 0 +
STACK CFI INIT 8dbe8 1ac .cfa: sp 0 +
STACK CFI 8dbec .cfa: sp 64 +
STACK CFI 8dbf8 .cfa: x29 32 + x19: .cfa -16 + ^ .ra: .cfa -24 + ^ x29: .cfa -32 + ^
STACK CFI 8dd5c .cfa: sp 64 +
STACK CFI 8dd68 .cfa: sp 0 +
STACK CFI 8dd6c .cfa: x29 32 +
STACK CFI INIT 8dd94 25c .cfa: sp 0 +
STACK CFI 8dd98 .cfa: sp 80 +
STACK CFI 8dda8 .cfa: x29 48 + x19: .cfa -8 + ^ x20: .cfa -16 + ^ x21: .cfa -24 + ^ x22: .cfa -32 + ^ .ra: .cfa -40 + ^ x29: .cfa -48 + ^
STACK CFI 8df98 .cfa: sp 80 +
STACK CFI 8dfa8 .cfa: sp 0 +
STACK CFI 8dfac .cfa: x29 48 +
STACK CFI INIT 8dff0 1d4 .cfa: sp 0 +
STACK CFI 8dff4 .cfa: sp 64 +
STACK CFI 8e000 .cfa: x29 32 + x19: .cfa -16 + ^ .ra: .cfa -24 + ^ x29: .cfa -32 + ^
STACK CFI 8e18c .cfa: sp 64 +
STACK CFI 8e198 .cfa: sp 0 +
STACK CFI 8e19c .cfa: x29 32 +
STACK CFI INIT 8e1c4 34c .cfa: sp 0 +
STACK CFI 8e1c8 .cfa: sp 160 +
STACK CFI 8e1e4 .cfa: x29 96 + x19: .cfa -8 + ^ x20: .cfa -16 + ^ x21: .cfa -24 + ^ x22: .cfa -32 + ^ x23: .cfa -40 + ^ x24: .cfa -48 + ^ x25: .cfa -56 + ^ x26: .cfa -64 + ^ x27: .cfa -72 + ^ x28: .cfa -80 + ^ .ra: .cfa -88 + ^ x29: .cfa -96 + ^
STACK CFI 8e49c .cfa: sp 160 +
STACK CFI 8e4b8 .cfa: sp 0 +
STACK CFI 8e4bc .cfa: x29 96 +
STACK CFI INIT 8e510 2d4 .cfa: sp 0 +
STACK CFI 8e514 .cfa: sp 144 +
STACK CFI 8e530 .cfa: x29 96 + x19: .cfa -8 + ^ x20: .cfa -16 + ^ x21: .cfa -24 + ^ x22: .cfa -32 + ^ x23: .cfa -40 + ^ x24: .cfa -48 + ^ x25: .cfa -56 + ^ x26: .cfa -64 + ^ x27: .cfa -72 + ^ x28: .cfa -80 + ^ .ra: .cfa -88 + ^ x29: .cfa -96 + ^
STACK CFI 8e7c0 .cfa: sp 144 +
STACK CFI 8e7dc .cfa: sp 0 +
STACK CFI 8e7e0 .cfa: x29 96 +
STACK CFI INIT 8e7e4 13c .cfa: sp 0 +
STACK CFI 8e7e8 .cfa: sp 96 +
STACK CFI 8e7f8 .cfa: x29 48 + x19: .cfa -8 + ^ x20: .cfa -16 + ^ x21: .cfa -24 + ^ x22: .cfa -32 + ^ .ra: .cfa -40 + ^ x29: .cfa -48 + ^
STACK CFI 8e864 .cfa: sp 96 +
STACK CFI 8e874 .cfa: sp 0 +
STACK CFI 8e878 .cfa: x29 48 +
STACK CFI 8e8bc .cfa: sp 96 +
STACK CFI 8e8cc .cfa: sp 0 +
STACK CFI 8e8d0 .cfa: x29 48 +
STACK CFI 8e908 .cfa: sp 96 +
STACK CFI 8e918 .cfa: sp 0 +
STACK CFI 8e91c .cfa: x29 48 +
STACK CFI INIT 8e920 1e8 .cfa: sp 0 +
STACK CFI 8e924 .cfa: sp 80 +
STACK CFI 8e938 .cfa: x29 80 + x19: .cfa -8 + ^ x20: .cfa -16 + ^ x21: .cfa -24 + ^ x22: .cfa -32 + ^ x23: .cfa -40 + ^ x24: .cfa -48 + ^ x25: .cfa -64 + ^ .ra: .cfa -72 + ^ x29: .cfa -80 + ^
STACK CFI 8eacc .cfa: sp 80 +
STACK CFI 8eae0 .cfa: sp 0 +
STACK CFI 8eae4 .cfa: x29 80 +
STACK CFI 8eaf0 .cfa: sp 80 +
STACK CFI 8eb04 .cfa: sp 0 +
STACK CFI INIT 8eb08 af0 .cfa: sp 0 +
STACK CFI 8eb0c .cfa: sp 144 +
STACK CFI 8eb28 .cfa: x29 96 + x19: .cfa -8 + ^ x20: .cfa -16 + ^ x21: .cfa -24 + ^ x22: .cfa -32 + ^ x23: .cfa -40 + ^ x24: .cfa -48 + ^ x25: .cfa -56 + ^ x26: .cfa -64 + ^ x27: .cfa -72 + ^ x28: .cfa -80 + ^ .ra: .cfa -88 + ^ x29: .cfa -96 + ^
STACK CFI 8eddc .cfa: sp 144 +
STACK CFI 8edf8 .cfa: sp 0 +
STACK CFI 8edfc .cfa: x29 96 +
STACK CFI 8f5b8 .cfa: sp 144 +
STACK CFI 8f5d4 .cfa: sp 0 +
STACK CFI 8f5d8 .cfa: x29 96 +
STACK CFI INIT 8f5f8 1f0 .cfa: sp 0 +
STACK CFI 8f5fc .cfa: sp 80 +
STACK CFI 8f610 .cfa: x29 80 + x19: .cfa -8 + ^ x20: .cfa -16 + ^ x21: .cfa -24 + ^ x22: .cfa -32 + ^ x23: .cfa -40 + ^ x24: .cfa -48 + ^ x25: .cfa -64 + ^ .ra: .cfa -72 + ^ x29: .cfa -80 + ^
STACK CFI 8f7d0 .cfa: sp 80 +
STACK CFI 8f7e4 .cfa: sp 0 +
STACK CFI INIT 8f7e8 190 .cfa: sp 0 +
STACK CFI 8f7ec .cfa: sp 96 +
STACK CFI 8f800 .cfa: x29 64 + x19: .cfa -8 + ^ x20: .cfa -16 + ^ x21: .cfa -24 + ^ x22: .cfa -32 + ^ x23: .cfa -48 + ^ .ra: .cfa -56 + ^ x29: .cfa -64 + ^
STACK CFI 8f95c .cfa: sp 96 +
STACK CFI 8f970 .cfa: sp 0 +
STACK CFI 8f974 .cfa: x29 64 +
STACK CFI INIT 8f978 1c0 .cfa: sp 0 +
STACK CFI 8f97c .cfa: sp 96 +
STACK CFI 8f990 .cfa: x29 64 + x19: .cfa -8 + ^ x20: .cfa -16 + ^ x21: .cfa -24 + ^ x22: .cfa -32 + ^ x23: .cfa -48 + ^ .ra: .cfa -56 + ^ x29: .cfa -64 + ^
STACK CFI 8fb1c .cfa: sp 96 +
STACK CFI 8fb30 .cfa: sp 0 +
STACK CFI 8fb34 .cfa: x29 64 +
STACK CFI INIT 8fb38 180 .cfa: sp 0 +
STACK CFI 8fb3c .cfa: sp 96 +
STACK CFI 8fb4c .cfa: x29 48 + x19: .cfa -8 + ^ x20: .cfa -16 + ^ x21: .cfa -32 + ^ .ra: .cfa -40 + ^ x29: .cfa -48 + ^
STACK CFI 8fc78 .cfa: sp 96 +
STACK CFI 8fc88 .cfa: sp 0 +
STACK CFI 8fc8c .cfa: x29 48 +
STACK CFI INIT 8fcb8 1fc .cfa: sp 0 +
STACK CFI 8fcbc .cfa: sp 48 +
STACK CFI 8fcc8 .cfa: x29 48 + x19: .cfa -8 + ^ x20: .cfa -16 + ^ x21: .cfa -32 + ^ .ra: .cfa -40 + ^ x29: .cfa -48 + ^
STACK CFI 8fd74 .cfa: sp 48 +
STACK CFI 8fd80 .cfa: sp 0 +
STACK CFI 8fd84 .cfa: x29 48 +
STACK CFI 8fe30 .cfa: sp 48 +
STACK CFI 8fe3c .cfa: sp 0 +
STACK CFI 8fe40 .cfa: x29 48 +
STACK CFI 8fe54 .cfa: sp 48 +
STACK CFI 8fe60 .cfa: sp 0 +
STACK CFI 8fe64 .cfa: x29 48 +
STACK CFI 8fe78 .cfa: sp 48 +
STACK CFI 8fe84 .cfa: sp 0 +
STACK CFI 8fe88 .cfa: x29 48 +
STACK CFI INIT 8feb4 180 .cfa: sp 0 +
STACK CFI 8feb8 .cfa: sp 80 +
STACK CFI 8fecc .cfa: x29 64 + x19: .cfa -8 + ^ x20: .cfa -16 + ^ x21: .cfa -24 + ^ x22: .cfa -32 + ^ x23: .cfa -40 + ^ x24: .cfa -48 + ^ .ra: .cfa -56 + ^ x29: .cfa -64 + ^
STACK CFI 90018 .cfa: sp 80 +
STACK CFI 9002c .cfa: sp 0 +
STACK CFI 90030 .cfa: x29 64 +
STACK CFI INIT 90034 180 .cfa: sp 0 +
STACK CFI 90038 .cfa: sp 80 +
STACK CFI 9004c .cfa: x29 64 + x19: .cfa -8 + ^ x20: .cfa -16 + ^ x21: .cfa -24 + ^ x22: .cfa -32 + ^ x23: .cfa -40 + ^ x24: .cfa -48 + ^ .ra: .cfa -56 + ^ x29: .cfa -64 + ^
STACK CFI 90198 .cfa: sp 80 +
STACK CFI 901ac .cfa: sp 0 +
STACK CFI 901b0 .cfa: x29 64 +
STACK CFI INIT 901b4 180 .cfa: sp 0 +
STACK CFI 901b8 .cfa: sp 80 +
STACK CFI 901cc .cfa: x29 64 + x19: .cfa -8 + ^ x20: .cfa -16 + ^ x21: .cfa -24 + ^ x22: .cfa -32 + ^ x23: .cfa -40 + ^ x24: .cfa -48 + ^ .ra: .cfa -56 + ^ x29: .cfa -64 + ^
STACK CFI 90318 .cfa: sp 80 +
STACK CFI 9032c .cfa: sp 0 +
STACK CFI 90330 .cfa: x29 64 +
STACK CFI INIT 90334 244 .cfa: sp 0 +
STACK CFI 90338 .cfa: sp 96 +
STACK CFI 90350 .cfa: x29 96 + x19: .cfa -8 + ^ x20: .cfa -16 + ^ x21: .cfa -24 + ^ x22: .cfa -32 + ^ x23: .cfa -40 + ^ x24: .cfa -48 + ^ x25: .cfa -56 + ^ x26: .cfa -64 + ^ x27: .cfa -72 + ^ x28: .cfa -80 + ^ .ra: .cfa -88 + ^ x29: .cfa -96 + ^
STACK CFI 90538 .cfa: sp 96 +
STACK CFI 90550 .cfa: sp 0 +
STACK CFI 90554 .cfa: x29 96 +
STACK CFI 9055c .cfa: sp 96 +
STACK CFI 90574 .cfa: sp 0 +
STACK CFI INIT 90c04 154 .cfa: sp 0 +
STACK CFI 90c08 .cfa: sp 80 +
STACK CFI 90c18 .cfa: x29 48 + x19: .cfa -8 + ^ x20: .cfa -16 + ^ x21: .cfa -24 + ^ x22: .cfa -32 + ^ .ra: .cfa -40 + ^ x29: .cfa -48 + ^
STACK CFI 90cfc .cfa: sp 80 +
STACK CFI 90d0c .cfa: sp 0 +
STACK CFI 90d10 .cfa: x29 48 +
STACK CFI INIT 90f18 44 .cfa: sp 0 +
STACK CFI 90f1c .cfa: sp 32 +
STACK CFI 90f24 .cfa: x29 32 + x19: .cfa -16 + ^ .ra: .cfa -24 + ^ x29: .cfa -32 + ^
STACK CFI 90f40 .cfa: sp 32 +
STACK CFI 90f48 .cfa: sp 0 +
STACK CFI 90f4c .cfa: x29 32 +
STACK CFI 90f50 .cfa: sp 32 +
STACK CFI 90f58 .cfa: sp 0 +
STACK CFI INIT 90f5c 1e8 .cfa: sp 0 +
STACK CFI 90f60 .cfa: sp 64 +
STACK CFI 90f70 .cfa: x29 64 + x19: .cfa -8 + ^ x20: .cfa -16 + ^ x21: .cfa -24 + ^ x22: .cfa -32 + ^ x23: .cfa -40 + ^ x24: .cfa -48 + ^ .ra: .cfa -56 + ^ x29: .cfa -64 + ^
STACK CFI 9103c .cfa: sp 64 +
STACK CFI 9104c .cfa: sp 0 +
STACK CFI 91050 .cfa: x29 64 +
STACK CFI INIT 91144 188 .cfa: sp 0 +
STACK CFI INIT 912cc 13c .cfa: sp 0 +
STACK CFI 912d0 .cfa: sp 48 +
STACK CFI 912dc .cfa: x29 48 + x19: .cfa -8 + ^ x20: .cfa -16 + ^ x21: .cfa -32 + ^ .ra: .cfa -40 + ^ x29: .cfa -48 + ^
STACK CFI 913f8 .cfa: sp 48 +
STACK CFI 91404 .cfa: sp 0 +
STACK CFI INIT 91aa8 110 .cfa: sp 0 +
STACK CFI 91aac .cfa: sp 48 +
STACK CFI 91ab8 .cfa: x29 48 + x19: .cfa -8 + ^ x20: .cfa -16 + ^ x21: .cfa -32 + ^ .ra: .cfa -40 + ^ x29: .cfa -48 + ^
STACK CFI 91b94 .cfa: sp 48 +
STACK CFI 91ba0 .cfa: sp 0 +
STACK CFI 91ba4 .cfa: sp 48 +
STACK CFI 91bb0 .cfa: sp 0 +
STACK CFI 91bb4 .cfa: x29 48 +
STACK CFI INIT 91bb8 16c .cfa: sp 0 +
STACK CFI 91bbc .cfa: sp 64 +
STACK CFI 91bcc .cfa: x29 64 + x19: .cfa -8 + ^ x20: .cfa -16 + ^ x21: .cfa -24 + ^ x22: .cfa -32 + ^ x23: .cfa -40 + ^ x24: .cfa -48 + ^ .ra: .cfa -56 + ^ x29: .cfa -64 + ^
STACK CFI 91cf0 .cfa: sp 64 +
STACK CFI 91d00 .cfa: sp 0 +
STACK CFI 91d04 .cfa: x29 64 +
STACK CFI 91d10 .cfa: sp 64 +
STACK CFI 91d20 .cfa: sp 0 +
STACK CFI INIT 91e68 224 .cfa: sp 0 +
STACK CFI 91e6c .cfa: sp 96 +
STACK CFI 91e80 .cfa: x29 64 + x19: .cfa -8 + ^ x20: .cfa -16 + ^ x21: .cfa -24 + ^ x22: .cfa -32 + ^ x23: .cfa -48 + ^ .ra: .cfa -56 + ^ x29: .cfa -64 + ^
STACK CFI 92070 .cfa: sp 96 +
STACK CFI 92084 .cfa: sp 0 +
STACK CFI 92088 .cfa: x29 64 +
STACK CFI INIT 92724 158 .cfa: sp 0 +
STACK CFI 92728 .cfa: sp 80 +
STACK CFI 92738 .cfa: x29 48 + x19: .cfa -8 + ^ x20: .cfa -16 + ^ x21: .cfa -24 + ^ x22: .cfa -32 + ^ .ra: .cfa -40 + ^ x29: .cfa -48 + ^
STACK CFI 92820 .cfa: sp 80 +
STACK CFI 92830 .cfa: sp 0 +
STACK CFI 92834 .cfa: x29 48 +
STACK CFI INIT 9287c 1ac .cfa: sp 0 +
STACK CFI INIT 92a28 13c .cfa: sp 0 +
STACK CFI 92a2c .cfa: sp 48 +
STACK CFI 92a38 .cfa: x29 48 + x19: .cfa -8 + ^ x20: .cfa -16 + ^ x21: .cfa -32 + ^ .ra: .cfa -40 + ^ x29: .cfa -48 + ^
STACK CFI 92b54 .cfa: sp 48 +
STACK CFI 92b60 .cfa: sp 0 +
STACK CFI INIT 92e40 16c .cfa: sp 0 +
STACK CFI 92e44 .cfa: sp 64 +
STACK CFI 92e54 .cfa: x29 64 + x19: .cfa -8 + ^ x20: .cfa -16 + ^ x21: .cfa -24 + ^ x22: .cfa -32 + ^ x23: .cfa -40 + ^ x24: .cfa -48 + ^ .ra: .cfa -56 + ^ x29: .cfa -64 + ^
STACK CFI 92f78 .cfa: sp 64 +
STACK CFI 92f88 .cfa: sp 0 +
STACK CFI 92f8c .cfa: x29 64 +
STACK CFI 92f98 .cfa: sp 64 +
STACK CFI 92fa8 .cfa: sp 0 +
STACK CFI INIT 930f0 230 .cfa: sp 0 +
STACK CFI 930f4 .cfa: sp 96 +
STACK CFI 93108 .cfa: x29 64 + x19: .cfa -8 + ^ x20: .cfa -16 + ^ x21: .cfa -24 + ^ x22: .cfa -32 + ^ x23: .cfa -48 + ^ .ra: .cfa -56 + ^ x29: .cfa -64 + ^
STACK CFI 93304 .cfa: sp 96 +
STACK CFI 93318 .cfa: sp 0 +
STACK CFI 9331c .cfa: x29 64 +
STACK CFI INIT 9375c 5b0 .cfa: sp 0 +
STACK CFI 93760 .cfa: sp 176 +
STACK CFI 9377c .cfa: x29 96 + x19: .cfa -8 + ^ x20: .cfa -16 + ^ x21: .cfa -24 + ^ x22: .cfa -32 + ^ x23: .cfa -40 + ^ x24: .cfa -48 + ^ x25: .cfa -56 + ^ x26: .cfa -64 + ^ x27: .cfa -72 + ^ x28: .cfa -80 + ^ .ra: .cfa -88 + ^ x29: .cfa -96 + ^
STACK CFI 93ce8 .cfa: sp 176 +
STACK CFI 93d04 .cfa: sp 0 +
STACK CFI 93d08 .cfa: x29 96 +
STACK CFI INIT 93d0c 1e8 .cfa: sp 0 +
STACK CFI 93d10 .cfa: sp 80 +
STACK CFI 93d24 .cfa: x29 80 + x19: .cfa -8 + ^ x20: .cfa -16 + ^ x21: .cfa -24 + ^ x22: .cfa -32 + ^ x23: .cfa -40 + ^ x24: .cfa -48 + ^ x25: .cfa -64 + ^ .ra: .cfa -72 + ^ x29: .cfa -80 + ^
STACK CFI 93eb8 .cfa: sp 80 +
STACK CFI 93ecc .cfa: sp 0 +
STACK CFI 93ed0 .cfa: x29 80 +
STACK CFI 93edc .cfa: sp 80 +
STACK CFI 93ef0 .cfa: sp 0 +
STACK CFI INIT 93ef4 2cc .cfa: sp 0 +
STACK CFI 93ef8 .cfa: sp 160 +
STACK CFI 93f0c .cfa: x29 64 + x19: .cfa -8 + ^ x20: .cfa -16 + ^ x21: .cfa -24 + ^ x22: .cfa -32 + ^ x23: .cfa -40 + ^ x24: .cfa -48 + ^ .ra: .cfa -56 + ^ x29: .cfa -64 + ^
STACK CFI 94180 .cfa: sp 160 +
STACK CFI 94194 .cfa: sp 0 +
STACK CFI 94198 .cfa: x29 64 +
STACK CFI INIT 95614 130 .cfa: sp 0 +
STACK CFI 95618 .cfa: sp 32 +
STACK CFI 95620 .cfa: x29 32 + x19: .cfa -8 + ^ x20: .cfa -16 + ^ .ra: .cfa -24 + ^ x29: .cfa -32 + ^
STACK CFI 95738 .cfa: sp 32 +
STACK CFI 95740 .cfa: sp 0 +
STACK CFI INIT 95744 170 .cfa: sp 0 +
STACK CFI 95748 .cfa: sp 48 +
STACK CFI 95754 .cfa: x29 48 + x19: .cfa -8 + ^ x20: .cfa -16 + ^ x21: .cfa -24 + ^ x22: .cfa -32 + ^ .ra: .cfa -40 + ^ x29: .cfa -48 + ^
STACK CFI 957c0 .cfa: sp 48 +
STACK CFI 957cc .cfa: sp 0 +
STACK CFI 957d0 .cfa: x29 48 +
STACK CFI 9580c .cfa: sp 48 +
STACK CFI 95818 .cfa: sp 0 +
STACK CFI 9581c .cfa: x29 48 +
STACK CFI INIT 958b4 374 .cfa: sp 0 +
STACK CFI 958b8 .cfa: sp 80 +
STACK CFI 958cc .cfa: x29 80 + x19: .cfa -8 + ^ x20: .cfa -16 + ^ x21: .cfa -24 + ^ x22: .cfa -32 + ^ x23: .cfa -40 + ^ x24: .cfa -48 + ^ x25: .cfa -64 + ^ .ra: .cfa -72 + ^ x29: .cfa -80 + ^
STACK CFI 95a64 .cfa: sp 80 +
STACK CFI 95a78 .cfa: sp 0 +
STACK CFI 95a7c .cfa: x29 80 +
STACK CFI INIT 95c28 110 .cfa: sp 0 +
STACK CFI 95c2c .cfa: sp 48 +
STACK CFI 95c38 .cfa: x29 48 + x19: .cfa -8 + ^ x20: .cfa -16 + ^ x21: .cfa -32 + ^ .ra: .cfa -40 + ^ x29: .cfa -48 + ^
STACK CFI 95d14 .cfa: sp 48 +
STACK CFI 95d20 .cfa: sp 0 +
STACK CFI 95d24 .cfa: sp 48 +
STACK CFI 95d30 .cfa: sp 0 +
STACK CFI 95d34 .cfa: x29 48 +
STACK CFI INIT 9695c 17c .cfa: sp 0 +
STACK CFI 96960 .cfa: sp 64 +
STACK CFI 96970 .cfa: x29 64 + x19: .cfa -8 + ^ x20: .cfa -16 + ^ x21: .cfa -24 + ^ x22: .cfa -32 + ^ x23: .cfa -40 + ^ x24: .cfa -48 + ^ .ra: .cfa -56 + ^ x29: .cfa -64 + ^
STACK CFI 96a80 .cfa: sp 64 +
STACK CFI 96a90 .cfa: sp 0 +
STACK CFI 96a94 .cfa: x29 64 +
STACK CFI INIT 96ad8 16c .cfa: sp 0 +
STACK CFI 96adc .cfa: sp 48 +
STACK CFI 96ae8 .cfa: x29 48 + x19: .cfa -8 + ^ x20: .cfa -16 + ^ x21: .cfa -24 + ^ x22: .cfa -32 + ^ .ra: .cfa -40 + ^ x29: .cfa -48 + ^
STACK CFI 96c34 .cfa: sp 48 +
STACK CFI 96c40 .cfa: sp 0 +
STACK CFI INIT 96c44 13c .cfa: sp 0 +
STACK CFI 96c48 .cfa: sp 48 +
STACK CFI 96c54 .cfa: x29 48 + x19: .cfa -8 + ^ x20: .cfa -16 + ^ x21: .cfa -32 + ^ .ra: .cfa -40 + ^ x29: .cfa -48 + ^
STACK CFI 96d70 .cfa: sp 48 +
STACK CFI 96d7c .cfa: sp 0 +
STACK CFI INIT 971a4 16c .cfa: sp 0 +
STACK CFI 971a8 .cfa: sp 64 +
STACK CFI 971b8 .cfa: x29 64 + x19: .cfa -8 + ^ x20: .cfa -16 + ^ x21: .cfa -24 + ^ x22: .cfa -32 + ^ x23: .cfa -40 + ^ x24: .cfa -48 + ^ .ra: .cfa -56 + ^ x29: .cfa -64 + ^
STACK CFI 972dc .cfa: sp 64 +
STACK CFI 972ec .cfa: sp 0 +
STACK CFI 972f0 .cfa: x29 64 +
STACK CFI 972fc .cfa: sp 64 +
STACK CFI 9730c .cfa: sp 0 +
STACK CFI INIT 97538 2a4 .cfa: sp 0 +
STACK CFI 9753c .cfa: sp 48 +
STACK CFI 97548 .cfa: x29 48 + x19: .cfa -8 + ^ x20: .cfa -16 + ^ x21: .cfa -24 + ^ x22: .cfa -32 + ^ .ra: .cfa -40 + ^ x29: .cfa -48 + ^
STACK CFI 977cc .cfa: sp 48 +
STACK CFI 977d8 .cfa: sp 0 +
STACK CFI INIT 977dc 1d0 .cfa: sp 0 +
STACK CFI 977e0 .cfa: sp 96 +
STACK CFI 977f4 .cfa: x29 64 + x19: .cfa -8 + ^ x20: .cfa -16 + ^ x21: .cfa -24 + ^ x22: .cfa -32 + ^ x23: .cfa -40 + ^ x24: .cfa -48 + ^ .ra: .cfa -56 + ^ x29: .cfa -64 + ^
STACK CFI 97940 .cfa: sp 96 +
STACK CFI 97954 .cfa: sp 0 +
STACK CFI 97958 .cfa: x29 64 +
STACK CFI INIT 979ac 634 .cfa: sp 0 +
STACK CFI 979b0 .cfa: sp 192 +
STACK CFI 979c4 .cfa: x29 64 + x19: .cfa -8 + ^ x20: .cfa -16 + ^ x21: .cfa -24 + ^ x22: .cfa -32 + ^ x23: .cfa -40 + ^ x24: .cfa -48 + ^ .ra: .cfa -56 + ^ x29: .cfa -64 + ^
STACK CFI 97f38 .cfa: sp 192 +
STACK CFI 97f4c .cfa: sp 0 +
STACK CFI 97f50 .cfa: x29 64 +
STACK CFI INIT 97fe0 b7c .cfa: sp 0 +
STACK CFI 97fe4 .cfa: sp 384 +
STACK CFI 98000 .cfa: x29 96 + x19: .cfa -8 + ^ x20: .cfa -16 + ^ x21: .cfa -24 + ^ x22: .cfa -32 + ^ x23: .cfa -40 + ^ x24: .cfa -48 + ^ x25: .cfa -56 + ^ x26: .cfa -64 + ^ x27: .cfa -72 + ^ x28: .cfa -80 + ^ .ra: .cfa -88 + ^ x29: .cfa -96 + ^
STACK CFI 98a7c .cfa: sp 384 +
STACK CFI 98a98 .cfa: sp 0 +
STACK CFI 98a9c .cfa: x29 96 +
STACK CFI INIT 98b5c 25c .cfa: sp 0 +
STACK CFI 98b60 .cfa: sp 112 +
STACK CFI 98b7c .cfa: x29 96 + x19: .cfa -8 + ^ x20: .cfa -16 + ^ x21: .cfa -24 + ^ x22: .cfa -32 + ^ x23: .cfa -40 + ^ x24: .cfa -48 + ^ x25: .cfa -56 + ^ x26: .cfa -64 + ^ x27: .cfa -72 + ^ x28: .cfa -80 + ^ .ra: .cfa -88 + ^ x29: .cfa -96 + ^
STACK CFI 98d80 .cfa: sp 112 +
STACK CFI 98d9c .cfa: sp 0 +
STACK CFI 98da0 .cfa: x29 96 +
STACK CFI INIT 98db8 110 .cfa: sp 0 +
STACK CFI 98dbc .cfa: sp 128 +
STACK CFI 98dcc .cfa: x29 48 + x19: .cfa -8 + ^ x20: .cfa -16 + ^ x21: .cfa -32 + ^ .ra: .cfa -40 + ^ x29: .cfa -48 + ^
STACK CFI 98e94 .cfa: sp 128 +
STACK CFI 98ea4 .cfa: sp 0 +
STACK CFI 98ea8 .cfa: x29 48 +
STACK CFI INIT 98ec8 110 .cfa: sp 0 +
STACK CFI 98ecc .cfa: sp 128 +
STACK CFI 98edc .cfa: x29 48 + x19: .cfa -8 + ^ x20: .cfa -16 + ^ x21: .cfa -32 + ^ .ra: .cfa -40 + ^ x29: .cfa -48 + ^
STACK CFI 98fa4 .cfa: sp 128 +
STACK CFI 98fb4 .cfa: sp 0 +
STACK CFI 98fb8 .cfa: x29 48 +
STACK CFI INIT 98fd8 1b8 .cfa: sp 0 +
STACK CFI 98fdc .cfa: sp 64 +
STACK CFI 98fe8 .cfa: x29 32 + x19: .cfa -8 + ^ x20: .cfa -16 + ^ .ra: .cfa -24 + ^ x29: .cfa -32 + ^
STACK CFI 99128 .cfa: sp 64 +
STACK CFI 99134 .cfa: sp 0 +
STACK CFI 99138 .cfa: x29 32 +
STACK CFI INIT 99190 190 .cfa: sp 0 +
STACK CFI 99194 .cfa: sp 16 +
STACK CFI 99198 .cfa: x29 16 + .ra: .cfa -8 + ^ x29: .cfa -16 + ^
STACK CFI 99228 .cfa: sp 16 +
STACK CFI 9922c .cfa: sp 0 +
STACK CFI 99230 .cfa: x29 16 +
STACK CFI 99300 .cfa: sp 16 +
STACK CFI 99304 .cfa: sp 0 +
STACK CFI 99308 .cfa: x29 16 +
STACK CFI INIT 99320 90 .cfa: sp 0 +
STACK CFI 99324 .cfa: sp 16 +
STACK CFI 99328 .cfa: x29 16 + .ra: .cfa -8 + ^ x29: .cfa -16 + ^
STACK CFI 99384 .cfa: sp 16 +
STACK CFI 99388 .cfa: sp 0 +
STACK CFI 9938c .cfa: x29 16 +
STACK CFI INIT 993b0 15c .cfa: sp 0 +
STACK CFI 993b4 .cfa: sp 112 +
STACK CFI 993d0 .cfa: x29 96 + x19: .cfa -8 + ^ x20: .cfa -16 + ^ x21: .cfa -24 + ^ x22: .cfa -32 + ^ x23: .cfa -40 + ^ x24: .cfa -48 + ^ x25: .cfa -56 + ^ x26: .cfa -64 + ^ x27: .cfa -72 + ^ x28: .cfa -80 + ^ .ra: .cfa -88 + ^ x29: .cfa -96 + ^
STACK CFI 994bc .cfa: sp 112 +
STACK CFI 994c0 .cfa: x29 96 +
STACK CFI 994c8 .cfa: sp 112 +
STACK CFI 994e4 .cfa: sp 0 +
STACK CFI 994e8 .cfa: x29 96 +
STACK CFI 99508 .cfa: sp 112 +
STACK CFI INIT 9950c 90 .cfa: sp 0 +
STACK CFI 99510 .cfa: sp 16 +
STACK CFI 99514 .cfa: x29 16 + .ra: .cfa -8 + ^ x29: .cfa -16 + ^
STACK CFI 99570 .cfa: sp 16 +
STACK CFI 99574 .cfa: sp 0 +
STACK CFI 99578 .cfa: x29 16 +
STACK CFI INIT 9959c b00 .cfa: sp 0 +
STACK CFI 995a0 .cfa: sp 176 +
STACK CFI 995bc .cfa: x29 96 + x19: .cfa -8 + ^ x20: .cfa -16 + ^ x21: .cfa -24 + ^ x22: .cfa -32 + ^ x23: .cfa -40 + ^ x24: .cfa -48 + ^ x25: .cfa -56 + ^ x26: .cfa -64 + ^ x27: .cfa -72 + ^ x28: .cfa -80 + ^ .ra: .cfa -88 + ^ x29: .cfa -96 + ^
STACK CFI 998ac .cfa: sp 176 +
STACK CFI 998c8 .cfa: sp 0 +
STACK CFI 998cc .cfa: x29 96 +
STACK CFI 9a05c .cfa: sp 176 +
STACK CFI 9a078 .cfa: sp 0 +
STACK CFI 9a07c .cfa: x29 96 +
STACK CFI INIT 9a09c 19c .cfa: sp 0 +
STACK CFI 9a0a0 .cfa: sp 96 +
STACK CFI 9a0b4 .cfa: x29 64 + x19: .cfa -8 + ^ x20: .cfa -16 + ^ x21: .cfa -24 + ^ x22: .cfa -32 + ^ x23: .cfa -48 + ^ .ra: .cfa -56 + ^ x29: .cfa -64 + ^
STACK CFI 9a21c .cfa: sp 96 +
STACK CFI 9a230 .cfa: sp 0 +
STACK CFI 9a234 .cfa: x29 64 +
STACK CFI INIT 9a238 1c4 .cfa: sp 0 +
STACK CFI 9a23c .cfa: sp 96 +
STACK CFI 9a250 .cfa: x29 64 + x19: .cfa -8 + ^ x20: .cfa -16 + ^ x21: .cfa -24 + ^ x22: .cfa -32 + ^ x23: .cfa -48 + ^ .ra: .cfa -56 + ^ x29: .cfa -64 + ^
STACK CFI 9a3e0 .cfa: sp 96 +
STACK CFI 9a3f4 .cfa: sp 0 +
STACK CFI 9a3f8 .cfa: x29 64 +
STACK CFI INIT 9a3fc cc4 .cfa: sp 0 +
STACK CFI 9a400 .cfa: sp 256 +
STACK CFI 9a41c .cfa: x29 96 + x19: .cfa -8 + ^ x20: .cfa -16 + ^ x21: .cfa -24 + ^ x22: .cfa -32 + ^ x23: .cfa -40 + ^ x24: .cfa -48 + ^ x25: .cfa -56 + ^ x26: .cfa -64 + ^ x27: .cfa -72 + ^ x28: .cfa -80 + ^ .ra: .cfa -88 + ^ x29: .cfa -96 + ^
STACK CFI 9a734 .cfa: sp 256 +
STACK CFI 9a750 .cfa: sp 0 +
STACK CFI 9a754 .cfa: x29 96 +
STACK CFI 9b060 .cfa: sp 256 +
STACK CFI 9b07c .cfa: sp 0 +
STACK CFI 9b080 .cfa: x29 96 +
STACK CFI INIT 9b0c0 1d4 .cfa: sp 0 +
STACK CFI 9b0c4 .cfa: sp 144 +
STACK CFI 9b0e0 .cfa: x29 96 + x19: .cfa -8 + ^ x20: .cfa -16 + ^ x21: .cfa -24 + ^ x22: .cfa -32 + ^ x23: .cfa -40 + ^ x24: .cfa -48 + ^ x25: .cfa -56 + ^ x26: .cfa -64 + ^ x27: .cfa -80 + ^ .ra: .cfa -88 + ^ x29: .cfa -96 + ^
STACK CFI 9b270 .cfa: sp 144 +
STACK CFI 9b28c .cfa: sp 0 +
STACK CFI 9b290 .cfa: x29 96 +
STACK CFI INIT 9b294 1dc .cfa: sp 0 +
STACK CFI 9b298 .cfa: sp 112 +
STACK CFI 9b2ac .cfa: x29 64 + x19: .cfa -8 + ^ x20: .cfa -16 + ^ x21: .cfa -24 + ^ x22: .cfa -32 + ^ x23: .cfa -48 + ^ .ra: .cfa -56 + ^ x29: .cfa -64 + ^
STACK CFI 9b454 .cfa: sp 112 +
STACK CFI 9b468 .cfa: sp 0 +
STACK CFI 9b46c .cfa: x29 64 +
STACK CFI INIT 9b470 1f4 .cfa: sp 0 +
STACK CFI 9b474 .cfa: sp 128 +
STACK CFI 9b48c .cfa: x29 80 + x19: .cfa -8 + ^ x20: .cfa -16 + ^ x21: .cfa -24 + ^ x22: .cfa -32 + ^ x23: .cfa -40 + ^ x24: .cfa -48 + ^ x25: .cfa -64 + ^ .ra: .cfa -72 + ^ x29: .cfa -80 + ^
STACK CFI 9b598 .cfa: sp 128 +
STACK CFI 9b5b0 .cfa: sp 0 +
STACK CFI 9b5b4 .cfa: x29 80 +
STACK CFI 9b628 .cfa: sp 128 +
STACK CFI 9b640 .cfa: sp 0 +
STACK CFI 9b644 .cfa: x29 80 +
STACK CFI INIT 9ba50 568 .cfa: sp 0 +
STACK CFI 9ba54 .cfa: sp 144 +
STACK CFI 9ba70 .cfa: x29 96 + x19: .cfa -8 + ^ x20: .cfa -16 + ^ x21: .cfa -24 + ^ x22: .cfa -32 + ^ x23: .cfa -40 + ^ x24: .cfa -48 + ^ x25: .cfa -56 + ^ x26: .cfa -64 + ^ x27: .cfa -72 + ^ x28: .cfa -80 + ^ .ra: .cfa -88 + ^ x29: .cfa -96 + ^
STACK CFI 9bf94 .cfa: sp 144 +
STACK CFI 9bfb0 .cfa: sp 0 +
STACK CFI 9bfb4 .cfa: x29 96 +
STACK CFI INIT 9c7a4 1d4 .cfa: sp 0 +
STACK CFI 9c7a8 .cfa: sp 64 +
STACK CFI 9c7b4 .cfa: x29 32 + x19: .cfa -16 + ^ .ra: .cfa -24 + ^ x29: .cfa -32 + ^
STACK CFI 9c940 .cfa: sp 64 +
STACK CFI 9c94c .cfa: sp 0 +
STACK CFI 9c950 .cfa: x29 32 +
STACK CFI INIT 9cd60 1d8 .cfa: sp 0 +
STACK CFI 9cd64 .cfa: sp 176 +
STACK CFI 9cd80 .cfa: x29 96 + x19: .cfa -8 + ^ x20: .cfa -16 + ^ x21: .cfa -24 + ^ x22: .cfa -32 + ^ x23: .cfa -40 + ^ x24: .cfa -48 + ^ x25: .cfa -56 + ^ x26: .cfa -64 + ^ x27: .cfa -72 + ^ x28: .cfa -80 + ^ .ra: .cfa -88 + ^ x29: .cfa -96 + ^
STACK CFI 9cf14 .cfa: sp 176 +
STACK CFI 9cf30 .cfa: sp 0 +
STACK CFI 9cf34 .cfa: x29 96 +
STACK CFI INIT 9cf38 40c .cfa: sp 0 +
STACK CFI 9cf3c .cfa: sp 144 +
STACK CFI 9cf58 .cfa: x29 96 + x19: .cfa -8 + ^ x20: .cfa -16 + ^ x21: .cfa -24 + ^ x22: .cfa -32 + ^ x23: .cfa -40 + ^ x24: .cfa -48 + ^ x25: .cfa -56 + ^ x26: .cfa -64 + ^ x27: .cfa -72 + ^ x28: .cfa -80 + ^ .ra: .cfa -88 + ^ x29: .cfa -96 + ^
STACK CFI 9d320 .cfa: sp 144 +
STACK CFI 9d33c .cfa: sp 0 +
STACK CFI 9d340 .cfa: x29 96 +
STACK CFI INIT 9d344 204 .cfa: sp 0 +
STACK CFI 9d348 .cfa: sp 80 +
STACK CFI 9d35c .cfa: x29 80 + x19: .cfa -8 + ^ x20: .cfa -16 + ^ x21: .cfa -24 + ^ x22: .cfa -32 + ^ x23: .cfa -40 + ^ x24: .cfa -48 + ^ x25: .cfa -64 + ^ .ra: .cfa -72 + ^ x29: .cfa -80 + ^
STACK CFI 9d3c8 .cfa: sp 80 +
STACK CFI 9d3dc .cfa: sp 0 +
STACK CFI 9d3e0 .cfa: x29 80 +
STACK CFI 9d3ec .cfa: sp 80 +
STACK CFI 9d400 .cfa: sp 0 +
STACK CFI 9d404 .cfa: x29 80 +
STACK CFI INIT 9d548 1a4 .cfa: sp 0 +
STACK CFI 9d54c .cfa: sp 32 +
STACK CFI 9d554 .cfa: x29 16 + .ra: .cfa -8 + ^ x29: .cfa -16 + ^
STACK CFI 9d598 .cfa: sp 32 +
STACK CFI 9d5a0 .cfa: sp 0 +
STACK CFI 9d5a4 .cfa: x29 16 +
STACK CFI INIT 9d6ec 1b4 .cfa: sp 0 +
STACK CFI INIT 9d8a0 5c0 .cfa: sp 0 +
STACK CFI 9d8a4 .cfa: sp 144 +
STACK CFI 9d8c0 .cfa: x29 96 + x19: .cfa -8 + ^ x20: .cfa -16 + ^ x21: .cfa -24 + ^ x22: .cfa -32 + ^ x23: .cfa -40 + ^ x24: .cfa -48 + ^ x25: .cfa -56 + ^ x26: .cfa -64 + ^ x27: .cfa -72 + ^ x28: .cfa -80 + ^ .ra: .cfa -88 + ^ x29: .cfa -96 + ^
STACK CFI 9de3c .cfa: sp 144 +
STACK CFI 9de58 .cfa: sp 0 +
STACK CFI 9de5c .cfa: x29 96 +
STACK CFI INIT 9ef30 248 .cfa: sp 0 +
STACK CFI 9ef34 .cfa: sp 128 +
STACK CFI 9ef4c .cfa: x29 80 + x19: .cfa -8 + ^ x20: .cfa -16 + ^ x21: .cfa -24 + ^ x22: .cfa -32 + ^ x23: .cfa -40 + ^ x24: .cfa -48 + ^ x25: .cfa -56 + ^ x26: .cfa -64 + ^ .ra: .cfa -72 + ^ x29: .cfa -80 + ^
STACK CFI 9f158 .cfa: sp 128 +
STACK CFI 9f170 .cfa: sp 0 +
STACK CFI 9f174 .cfa: x29 80 +
STACK CFI INIT 9f178 318 .cfa: sp 0 +
STACK CFI 9f17c .cfa: sp 176 +
STACK CFI 9f198 .cfa: x29 96 + x19: .cfa -8 + ^ x20: .cfa -16 + ^ x21: .cfa -24 + ^ x22: .cfa -32 + ^ x23: .cfa -40 + ^ x24: .cfa -48 + ^ x25: .cfa -56 + ^ x26: .cfa -64 + ^ x27: .cfa -72 + ^ x28: .cfa -80 + ^ .ra: .cfa -88 + ^ x29: .cfa -96 + ^
STACK CFI 9f46c .cfa: sp 176 +
STACK CFI 9f488 .cfa: sp 0 +
STACK CFI 9f48c .cfa: x29 96 +
STACK CFI INIT 9f490 a0 .cfa: sp 0 +
STACK CFI 9f49c .cfa: sp 32 +
STACK CFI 9f4f4 .cfa: sp 0 +
STACK CFI 9f4f8 .cfa: sp 32 +
STACK CFI 9f500 .cfa: sp 0 +
STACK CFI 9f504 .cfa: sp 32 +
STACK CFI 9f518 .cfa: sp 0 +
STACK CFI 9f51c .cfa: sp 32 +
STACK CFI 9f52c .cfa: sp 0 +
STACK CFI INIT 9f530 38 .cfa: sp 0 +
STACK CFI 9f53c .cfa: sp 32 +
STACK CFI 9f564 .cfa: sp 0 +
STACK CFI INIT 9f568 c .cfa: sp 0 +
STACK CFI INIT 9f574 234 .cfa: sp 0 +
STACK CFI INIT 9f7b0 30 .cfa: sp 0 +
STACK CFI INIT 9f7e0 98 .cfa: sp 0 +
STACK CFI INIT 9f878 438 .cfa: sp 0 +
STACK CFI 9f880 .cfa: sp 48 +
STACK CFI 9f888 x19: .cfa -8 + ^ x20: .cfa -16 + ^ x21: .cfa -24 + ^ x22: .cfa -32 + ^ x23: .cfa -40 + ^ x24: .cfa -48 + ^
STACK CFI 9f8a0 .cfa: sp 0 +
STACK CFI 9f8a4 .cfa: sp 48 +
STACK CFI 9fc90 .cfa: sp 0 +
STACK CFI 9fc94 .cfa: sp 48 +
STACK CFI 9fcac .cfa: sp 0 +
STACK CFI INIT 9fcb0 98 .cfa: sp 0 +
STACK CFI INIT 9fd50 30 .cfa: sp 0 +
STACK CFI INIT 36ea0 17c .cfa: sp 0 +
STACK CFI 36ea4 .cfa: sp 96 +
STACK CFI 36eb8 .cfa: x29 64 + x19: .cfa -8 + ^ x20: .cfa -16 + ^ x21: .cfa -24 + ^ x22: .cfa -32 + ^ x23: .cfa -40 + ^ x24: .cfa -48 + ^ .ra: .cfa -56 + ^ x29: .cfa -64 + ^
STACK CFI 36f6c .cfa: sp 96 +
STACK CFI 36f80 .cfa: sp 0 +
STACK CFI 36f84 .cfa: x29 64 +
STACK CFI INIT 370a0 498 .cfa: sp 0 +
STACK CFI 370a4 .cfa: sp 256 +
STACK CFI 370c0 .cfa: x29 96 + x19: .cfa -8 + ^ x20: .cfa -16 + ^ x21: .cfa -24 + ^ x22: .cfa -32 + ^ x23: .cfa -40 + ^ x24: .cfa -48 + ^ x25: .cfa -56 + ^ x26: .cfa -64 + ^ x27: .cfa -72 + ^ x28: .cfa -80 + ^ .ra: .cfa -88 + ^ x29: .cfa -96 + ^
STACK CFI 37434 .cfa: sp 256 +
STACK CFI 37450 .cfa: sp 0 +
STACK CFI 37454 .cfa: x29 96 +
STACK CFI INIT 37538 2c0 .cfa: sp 0 +
STACK CFI 3753c .cfa: sp 144 +
STACK CFI 37550 .cfa: x29 64 + x19: .cfa -8 + ^ x20: .cfa -16 + ^ x21: .cfa -24 + ^ x22: .cfa -32 + ^ x23: .cfa -48 + ^ .ra: .cfa -56 + ^ x29: .cfa -64 + ^
STACK CFI 37728 .cfa: sp 144 +
STACK CFI 3773c .cfa: sp 0 +
STACK CFI 37740 .cfa: x29 64 +
STACK CFI INIT 377f8 10c .cfa: sp 0 +
STACK CFI 377fc .cfa: sp 112 +
STACK CFI 37808 .cfa: x29 32 + x19: .cfa -8 + ^ x20: .cfa -16 + ^ .ra: .cfa -24 + ^ x29: .cfa -32 + ^
STACK CFI 378c4 .cfa: sp 112 +
STACK CFI 378d0 .cfa: sp 0 +
STACK CFI 378d4 .cfa: x29 32 +
STACK CFI INIT 379e4 1bc .cfa: sp 0 +
STACK CFI 379e8 .cfa: sp 176 +
STACK CFI 379fc .cfa: x29 64 + x19: .cfa -8 + ^ x20: .cfa -16 + ^ x21: .cfa -24 + ^ x22: .cfa -32 + ^ x23: .cfa -40 + ^ x24: .cfa -48 + ^ .ra: .cfa -56 + ^ x29: .cfa -64 + ^
STACK CFI 37aa4 .cfa: sp 176 +
STACK CFI 37ab8 .cfa: sp 0 +
STACK CFI 37abc .cfa: x29 64 +
STACK CFI INIT 37ba0 100 .cfa: sp 0 +
STACK CFI 37ba4 .cfa: sp 48 +
STACK CFI 37bb0 .cfa: x29 48 + x19: .cfa -8 + ^ x20: .cfa -16 + ^ x21: .cfa -24 + ^ x22: .cfa -32 + ^ .ra: .cfa -40 + ^ x29: .cfa -48 + ^
STACK CFI 37bc0 .cfa: sp 48 +
STACK CFI 37bcc .cfa: sp 0 +
STACK CFI 37bd0 .cfa: x29 48 +
STACK CFI INIT 37dac 18c .cfa: sp 0 +
STACK CFI 37db0 .cfa: sp 96 +
STACK CFI 37dc8 .cfa: x29 80 + x19: .cfa -8 + ^ x20: .cfa -16 + ^ x21: .cfa -24 + ^ x22: .cfa -32 + ^ x23: .cfa -40 + ^ x24: .cfa -48 + ^ x25: .cfa -64 + ^ .ra: .cfa -72 + ^ x29: .cfa -80 + ^
STACK CFI 37ee0 .cfa: sp 96 +
STACK CFI 37ef8 .cfa: sp 0 +
STACK CFI 37efc .cfa: x29 80 +
STACK CFI INIT 38084 50 .cfa: sp 0 +
STACK CFI 38088 .cfa: sp 32 +
STACK CFI 38090 .cfa: x29 32 + x19: .cfa -8 + ^ x20: .cfa -16 + ^ .ra: .cfa -24 + ^ x29: .cfa -32 + ^
STACK CFI INIT 38338 2a0 .cfa: sp 0 +
STACK CFI 3833c .cfa: sp 144 +
STACK CFI 38358 .cfa: x29 96 + x19: .cfa -8 + ^ x20: .cfa -16 + ^ x21: .cfa -24 + ^ x22: .cfa -32 + ^ x23: .cfa -40 + ^ x24: .cfa -48 + ^ x25: .cfa -56 + ^ x26: .cfa -64 + ^ x27: .cfa -80 + ^ .ra: .cfa -88 + ^ x29: .cfa -96 + ^
STACK CFI 384d8 .cfa: sp 144 +
STACK CFI 384f4 .cfa: sp 0 +
STACK CFI 384f8 .cfa: x29 96 +
STACK CFI 3854c .cfa: sp 144 +
STACK CFI 38568 .cfa: sp 0 +
STACK CFI 3856c .cfa: x29 96 +
STACK CFI INIT 38b80 118 .cfa: sp 0 +
STACK CFI 38b84 .cfa: sp 144 +
STACK CFI 38b9c .cfa: x29 80 + x19: .cfa -8 + ^ x20: .cfa -16 + ^ x21: .cfa -24 + ^ x22: .cfa -32 + ^ x23: .cfa -40 + ^ x24: .cfa -48 + ^ x25: .cfa -64 + ^ .ra: .cfa -72 + ^ x29: .cfa -80 + ^
STACK CFI 38c44 .cfa: sp 144 +
STACK CFI 38c5c .cfa: sp 0 +
STACK CFI 38c60 .cfa: x29 80 +
STACK CFI INIT 38cec 2a0 .cfa: sp 0 +
STACK CFI 38cf0 .cfa: sp 96 +
STACK CFI 38d04 .cfa: x29 64 + x19: .cfa -8 + ^ x20: .cfa -16 + ^ x21: .cfa -24 + ^ x22: .cfa -32 + ^ x23: .cfa -40 + ^ x24: .cfa -48 + ^ .ra: .cfa -56 + ^ x29: .cfa -64 + ^
STACK CFI 38e4c .cfa: sp 96 +
STACK CFI 38e60 .cfa: sp 0 +
STACK CFI 38e64 .cfa: x29 64 +
STACK CFI 38f2c .cfa: sp 96 +
STACK CFI 38f40 .cfa: sp 0 +
STACK CFI 38f44 .cfa: x29 64 +
STACK CFI INIT 39054 130 .cfa: sp 0 +
STACK CFI 39058 .cfa: sp 96 +
STACK CFI 3906c .cfa: x29 64 + x19: .cfa -8 + ^ x20: .cfa -16 + ^ x21: .cfa -24 + ^ x22: .cfa -32 + ^ x23: .cfa -40 + ^ x24: .cfa -48 + ^ .ra: .cfa -56 + ^ x29: .cfa -64 + ^
STACK CFI 3911c .cfa: sp 96 +
STACK CFI 39130 .cfa: sp 0 +
STACK CFI 39134 .cfa: x29 64 +
STACK CFI INIT 39184 248 .cfa: sp 0 +
STACK CFI 39188 .cfa: sp 96 +
STACK CFI 391a0 .cfa: x29 80 + x19: .cfa -8 + ^ x20: .cfa -16 + ^ x21: .cfa -24 + ^ x22: .cfa -32 + ^ x23: .cfa -40 + ^ x24: .cfa -48 + ^ x25: .cfa -64 + ^ .ra: .cfa -72 + ^ x29: .cfa -80 + ^
STACK CFI 393a8 .cfa: sp 96 +
STACK CFI 393c0 .cfa: sp 0 +
STACK CFI 393c4 .cfa: x29 80 +
STACK CFI INIT 39884 50 .cfa: sp 0 +
STACK CFI 39888 .cfa: sp 32 +
STACK CFI 39890 .cfa: x29 32 + x19: .cfa -8 + ^ x20: .cfa -16 + ^ .ra: .cfa -24 + ^ x29: .cfa -32 + ^
STACK CFI INIT 39904 1e0 .cfa: sp 0 +
STACK CFI 39908 .cfa: sp 464 +
STACK CFI 3991c .cfa: x29 64 + x19: .cfa -8 + ^ x20: .cfa -16 + ^ x21: .cfa -24 + ^ x22: .cfa -32 + ^ x28: .cfa -48 + ^ .ra: .cfa -56 + ^ x29: .cfa -64 + ^
STACK CFI 39a4c .cfa: sp 464 +
STACK CFI 39a60 .cfa: sp 0 +
STACK CFI 39a64 .cfa: x29 64 +
STACK CFI INIT 39ae4 264 .cfa: sp 0 +
STACK CFI 39ae8 .cfa: sp 112 +
STACK CFI 39b04 .cfa: x29 96 + x19: .cfa -8 + ^ x20: .cfa -16 + ^ x21: .cfa -24 + ^ x22: .cfa -32 + ^ x23: .cfa -40 + ^ x24: .cfa -48 + ^ x25: .cfa -56 + ^ x26: .cfa -64 + ^ x27: .cfa -72 + ^ x28: .cfa -80 + ^ .ra: .cfa -88 + ^ x29: .cfa -96 + ^
STACK CFI 39b3c .cfa: sp 112 +
STACK CFI 39b58 .cfa: sp 0 +
STACK CFI 39b5c .cfa: x29 96 +
STACK CFI INIT 39df4 c8 .cfa: sp 0 +
STACK CFI 39df8 .cfa: sp 416 +
STACK CFI 39e04 .cfa: x29 32 + x19: .cfa -8 + ^ x28: .cfa -16 + ^ .ra: .cfa -24 + ^ x29: .cfa -32 + ^
STACK CFI 39ea4 .cfa: sp 416 +
STACK CFI 39eb0 .cfa: sp 0 +
STACK CFI 39eb4 .cfa: x29 32 +
STACK CFI INIT 39ed0 230 .cfa: sp 0 +
STACK CFI 39ed4 .cfa: sp 128 +
STACK CFI 39eec .cfa: x29 80 + x19: .cfa -8 + ^ x20: .cfa -16 + ^ x21: .cfa -24 + ^ x22: .cfa -32 + ^ x23: .cfa -40 + ^ x24: .cfa -48 + ^ x25: .cfa -64 + ^ .ra: .cfa -72 + ^ x29: .cfa -80 + ^
STACK CFI 3a000 .cfa: sp 128 +
STACK CFI 3a018 .cfa: sp 0 +
STACK CFI 3a01c .cfa: x29 80 +
STACK CFI 3a04c .cfa: sp 128 +
STACK CFI 3a064 .cfa: sp 0 +
STACK CFI 3a068 .cfa: x29 80 +
STACK CFI INIT 3a1a0 40 .cfa: sp 0 +
STACK CFI 3a1a4 .cfa: sp 32 +
STACK CFI 3a1ac .cfa: x29 32 + x19: .cfa -16 + ^ .ra: .cfa -24 + ^ x29: .cfa -32 + ^
STACK CFI 3a1d0 .cfa: sp 32 +
STACK CFI 3a1d8 .cfa: sp 0 +
STACK CFI 3a1dc .cfa: x29 32 +
STACK CFI INIT 3a1e0 44 .cfa: sp 0 +
STACK CFI 3a1e4 .cfa: sp 32 +
STACK CFI 3a1ec .cfa: x29 32 + x19: .cfa -16 + ^ .ra: .cfa -24 + ^ x29: .cfa -32 + ^
STACK CFI 3a214 .cfa: sp 32 +
STACK CFI 3a21c .cfa: sp 0 +
STACK CFI 3a220 .cfa: x29 32 +
STACK CFI INIT 3a26c 1d4 .cfa: sp 0 +
STACK CFI 3a270 .cfa: sp 128 +
STACK CFI 3a280 .cfa: x29 48 + x19: .cfa -8 + ^ x20: .cfa -16 + ^ x21: .cfa -24 + ^ x22: .cfa -32 + ^ .ra: .cfa -40 + ^ x29: .cfa -48 + ^
STACK CFI 3a3d8 .cfa: sp 128 +
STACK CFI 3a3e8 .cfa: sp 0 +
STACK CFI 3a3ec .cfa: x29 48 +
STACK CFI INIT 3a440 50c .cfa: sp 0 +
STACK CFI 3a444 .cfa: sp 144 +
STACK CFI 3a460 .cfa: x29 96 + x19: .cfa -8 + ^ x20: .cfa -16 + ^ x21: .cfa -24 + ^ x22: .cfa -32 + ^ x23: .cfa -40 + ^ x24: .cfa -48 + ^ x25: .cfa -56 + ^ x26: .cfa -64 + ^ x27: .cfa -72 + ^ x28: .cfa -80 + ^ .ra: .cfa -88 + ^ x29: .cfa -96 + ^
STACK CFI 3a8dc .cfa: sp 144 +
STACK CFI 3a8f8 .cfa: sp 0 +
STACK CFI 3a8fc .cfa: x29 96 +
STACK CFI INIT 3ac34 bc .cfa: sp 0 +
STACK CFI 3ac38 .cfa: sp 80 +
STACK CFI 3ac44 .cfa: x29 32 + x19: .cfa -8 + ^ x20: .cfa -16 + ^ .ra: .cfa -24 + ^ x29: .cfa -32 + ^
STACK CFI 3acb0 .cfa: sp 80 +
STACK CFI 3acbc .cfa: sp 0 +
STACK CFI 3acc0 .cfa: x29 32 +
STACK CFI INIT 3acf0 5d8 .cfa: sp 0 +
STACK CFI 3acf4 .cfa: sp 144 +
STACK CFI 3ad10 .cfa: x29 80 + x19: .cfa -8 + ^ x20: .cfa -16 + ^ x21: .cfa -24 + ^ x22: .cfa -32 + ^ x23: .cfa -40 + ^ x24: .cfa -48 + ^ x25: .cfa -56 + ^ x26: .cfa -64 + ^ .ra: .cfa -72 + ^ x29: .cfa -80 + ^ v8: .cfa -88 + ^ v9: .cfa -96 + ^
STACK CFI 3b258 .cfa: sp 144 +
STACK CFI 3b274 .cfa: sp 0 +
STACK CFI 3b278 .cfa: x29 80 +
STACK CFI INIT 3b2c8 230 .cfa: sp 0 +
STACK CFI 3b2cc .cfa: sp 112 +
STACK CFI 3b2e4 .cfa: x29 80 + x19: .cfa -8 + ^ x20: .cfa -16 + ^ x21: .cfa -24 + ^ x22: .cfa -32 + ^ x23: .cfa -40 + ^ x24: .cfa -48 + ^ x25: .cfa -56 + ^ x26: .cfa -64 + ^ .ra: .cfa -72 + ^ x29: .cfa -80 + ^
STACK CFI 3b494 .cfa: sp 112 +
STACK CFI 3b4ac .cfa: sp 0 +
STACK CFI 3b4b0 .cfa: x29 80 +
STACK CFI INIT 3b4f8 230 .cfa: sp 0 +
STACK CFI 3b4fc .cfa: sp 112 +
STACK CFI 3b514 .cfa: x29 80 + x19: .cfa -8 + ^ x20: .cfa -16 + ^ x21: .cfa -24 + ^ x22: .cfa -32 + ^ x23: .cfa -40 + ^ x24: .cfa -48 + ^ x25: .cfa -56 + ^ x26: .cfa -64 + ^ .ra: .cfa -72 + ^ x29: .cfa -80 + ^
STACK CFI 3b6c4 .cfa: sp 112 +
STACK CFI 3b6dc .cfa: sp 0 +
STACK CFI 3b6e0 .cfa: x29 80 +
STACK CFI INIT 3b728 308 .cfa: sp 0 +
STACK CFI 3b72c .cfa: sp 144 +
STACK CFI 3b748 .cfa: x29 96 + x19: .cfa -8 + ^ x20: .cfa -16 + ^ x21: .cfa -24 + ^ x22: .cfa -32 + ^ x23: .cfa -40 + ^ x24: .cfa -48 + ^ x25: .cfa -56 + ^ x26: .cfa -64 + ^ x27: .cfa -72 + ^ x28: .cfa -80 + ^ .ra: .cfa -88 + ^ x29: .cfa -96 + ^
STACK CFI 3b9c4 .cfa: sp 144 +
STACK CFI 3b9e0 .cfa: sp 0 +
STACK CFI 3b9e4 .cfa: x29 96 +
STACK CFI INIT 3ba30 230 .cfa: sp 0 +
STACK CFI 3ba34 .cfa: sp 112 +
STACK CFI 3ba4c .cfa: x29 80 + x19: .cfa -8 + ^ x20: .cfa -16 + ^ x21: .cfa -24 + ^ x22: .cfa -32 + ^ x23: .cfa -40 + ^ x24: .cfa -48 + ^ x25: .cfa -56 + ^ x26: .cfa -64 + ^ .ra: .cfa -72 + ^ x29: .cfa -80 + ^
STACK CFI 3bbfc .cfa: sp 112 +
STACK CFI 3bc14 .cfa: sp 0 +
STACK CFI 3bc18 .cfa: x29 80 +
STACK CFI INIT 3bce4 1d4 .cfa: sp 0 +
STACK CFI 3bce8 .cfa: sp 128 +
STACK CFI 3bcf8 .cfa: x29 48 + x19: .cfa -8 + ^ x20: .cfa -16 + ^ x21: .cfa -24 + ^ x22: .cfa -32 + ^ .ra: .cfa -40 + ^ x29: .cfa -48 + ^
STACK CFI 3be50 .cfa: sp 128 +
STACK CFI 3be60 .cfa: sp 0 +
STACK CFI 3be64 .cfa: x29 48 +
STACK CFI INIT 3bffc 498 .cfa: sp 0 +
STACK CFI 3c000 .cfa: sp 256 +
STACK CFI 3c01c .cfa: x29 96 + x19: .cfa -8 + ^ x20: .cfa -16 + ^ x21: .cfa -24 + ^ x22: .cfa -32 + ^ x23: .cfa -40 + ^ x24: .cfa -48 + ^ x25: .cfa -56 + ^ x26: .cfa -64 + ^ x27: .cfa -72 + ^ x28: .cfa -80 + ^ .ra: .cfa -88 + ^ x29: .cfa -96 + ^
STACK CFI 3c390 .cfa: sp 256 +
STACK CFI 3c3ac .cfa: sp 0 +
STACK CFI 3c3b0 .cfa: x29 96 +
STACK CFI INIT 3c494 514 .cfa: sp 0 +
STACK CFI 3c498 .cfa: sp 176 +
STACK CFI 3c4ac .cfa: x29 64 + x19: .cfa -8 + ^ x20: .cfa -16 + ^ x21: .cfa -24 + ^ x22: .cfa -32 + ^ x23: .cfa -40 + ^ x24: .cfa -48 + ^ .ra: .cfa -56 + ^ x29: .cfa -64 + ^
STACK CFI 3c860 .cfa: sp 176 +
STACK CFI 3c874 .cfa: sp 0 +
STACK CFI 3c878 .cfa: x29 64 +
STACK CFI INIT 3c9a8 1b8 .cfa: sp 0 +
STACK CFI 3c9ac .cfa: sp 128 +
STACK CFI 3c9bc .cfa: x29 48 + x19: .cfa -8 + ^ x20: .cfa -16 + ^ x21: .cfa -32 + ^ .ra: .cfa -40 + ^ x29: .cfa -48 + ^
STACK CFI 3cb18 .cfa: sp 128 +
STACK CFI 3cb28 .cfa: sp 0 +
STACK CFI 3cb2c .cfa: x29 48 +
STACK CFI INIT 3cb64 1bc .cfa: sp 0 +
STACK CFI 3cb68 .cfa: sp 176 +
STACK CFI 3cb7c .cfa: x29 64 + x19: .cfa -8 + ^ x20: .cfa -16 + ^ x21: .cfa -24 + ^ x22: .cfa -32 + ^ x23: .cfa -40 + ^ x24: .cfa -48 + ^ .ra: .cfa -56 + ^ x29: .cfa -64 + ^
STACK CFI 3cc24 .cfa: sp 176 +
STACK CFI 3cc38 .cfa: sp 0 +
STACK CFI 3cc3c .cfa: x29 64 +
STACK CFI INIT 3cd20 118 .cfa: sp 0 +
STACK CFI 3cd24 .cfa: sp 144 +
STACK CFI 3cd3c .cfa: x29 80 + x19: .cfa -8 + ^ x20: .cfa -16 + ^ x21: .cfa -24 + ^ x22: .cfa -32 + ^ x23: .cfa -40 + ^ x24: .cfa -48 + ^ x25: .cfa -64 + ^ .ra: .cfa -72 + ^ x29: .cfa -80 + ^
STACK CFI 3cde4 .cfa: sp 144 +
STACK CFI 3cdfc .cfa: sp 0 +
STACK CFI 3ce00 .cfa: x29 80 +
STACK CFI INIT 3ce3c 134 .cfa: sp 0 +
STACK CFI 3ce40 .cfa: sp 128 +
STACK CFI 3ce54 .cfa: x29 64 + x19: .cfa -8 + ^ x20: .cfa -16 + ^ x21: .cfa -24 + ^ x22: .cfa -32 + ^ x23: .cfa -40 + ^ x24: .cfa -48 + ^ .ra: .cfa -56 + ^ x29: .cfa -64 + ^
STACK CFI 3cf20 .cfa: sp 128 +
STACK CFI 3cf34 .cfa: sp 0 +
STACK CFI 3cf38 .cfa: x29 64 +
STACK CFI INIT 3cfa8 388 .cfa: sp 0 +
STACK CFI 3cfac .cfa: sp 96 +
STACK CFI 3cfc4 .cfa: x29 80 + x19: .cfa -8 + ^ x20: .cfa -16 + ^ x21: .cfa -24 + ^ x22: .cfa -32 + ^ x23: .cfa -40 + ^ x24: .cfa -48 + ^ x25: .cfa -64 + ^ .ra: .cfa -72 + ^ x29: .cfa -80 + ^
STACK CFI 3d1d8 .cfa: sp 96 +
STACK CFI 3d1f0 .cfa: sp 0 +
STACK CFI 3d1f4 .cfa: x29 80 +
STACK CFI 3d2bc .cfa: sp 96 +
STACK CFI 3d2d4 .cfa: sp 0 +
STACK CFI 3d2d8 .cfa: x29 80 +
STACK CFI INIT 3d330 18c .cfa: sp 0 +
STACK CFI 3d334 .cfa: sp 112 +
STACK CFI 3d344 .cfa: x29 48 + x19: .cfa -8 + ^ x20: .cfa -16 + ^ x21: .cfa -32 + ^ .ra: .cfa -40 + ^ x29: .cfa -48 + ^
STACK CFI 3d46c .cfa: sp 112 +
STACK CFI 3d47c .cfa: sp 0 +
STACK CFI 3d480 .cfa: x29 48 +
STACK CFI INIT 3d4bc 130 .cfa: sp 0 +
STACK CFI 3d4c0 .cfa: sp 48 +
STACK CFI 3d4cc .cfa: x29 48 + x19: .cfa -8 + ^ x20: .cfa -16 + ^ x21: .cfa -24 + ^ x22: .cfa -32 + ^ .ra: .cfa -40 + ^ x29: .cfa -48 + ^
STACK CFI 3d518 .cfa: sp 48 +
STACK CFI 3d524 .cfa: sp 0 +
STACK CFI 3d528 .cfa: x29 48 +
STACK CFI 3d52c .cfa: sp 48 +
STACK CFI 3d538 .cfa: sp 0 +
STACK CFI 3d53c .cfa: x29 48 +
STACK CFI INIT 3d5ec 130 .cfa: sp 0 +
STACK CFI 3d5f0 .cfa: sp 96 +
STACK CFI 3d604 .cfa: x29 64 + x19: .cfa -8 + ^ x20: .cfa -16 + ^ x21: .cfa -24 + ^ x22: .cfa -32 + ^ x23: .cfa -40 + ^ x24: .cfa -48 + ^ .ra: .cfa -56 + ^ x29: .cfa -64 + ^
STACK CFI 3d6b4 .cfa: sp 96 +
STACK CFI 3d6c8 .cfa: sp 0 +
STACK CFI 3d6cc .cfa: x29 64 +
STACK CFI INIT 3d71c bc .cfa: sp 0 +
STACK CFI 3d720 .cfa: sp 80 +
STACK CFI 3d72c .cfa: x29 32 + x19: .cfa -8 + ^ x20: .cfa -16 + ^ .ra: .cfa -24 + ^ x29: .cfa -32 + ^
STACK CFI 3d798 .cfa: sp 80 +
STACK CFI 3d7a4 .cfa: sp 0 +
STACK CFI 3d7a8 .cfa: x29 32 +
STACK CFI INIT 3d7d8 620 .cfa: sp 0 +
STACK CFI 3d7dc .cfa: sp 112 +
STACK CFI 3d7f8 .cfa: x29 72 + x19: .cfa -8 + ^ x20: .cfa -16 + ^ x21: .cfa -24 + ^ x22: .cfa -32 + ^ x23: .cfa -40 + ^ x24: .cfa -48 + ^ x25: .cfa -56 + ^ .ra: .cfa -64 + ^ x29: .cfa -72 + ^ v8: .cfa -80 + ^
STACK CFI 3d820 .cfa: sp 112 +
STACK CFI 3d83c .cfa: sp 0 +
STACK CFI 3d840 .cfa: x29 72 +
STACK CFI INIT 3dfc0 1e0 .cfa: sp 0 +
STACK CFI 3dfc4 .cfa: sp 128 +
STACK CFI 3dfd4 .cfa: x29 48 + x19: .cfa -8 + ^ x20: .cfa -16 + ^ x21: .cfa -32 + ^ .ra: .cfa -40 + ^ x29: .cfa -48 + ^
STACK CFI 3e138 .cfa: sp 128 +
STACK CFI 3e148 .cfa: sp 0 +
STACK CFI 3e14c .cfa: x29 48 +
STACK CFI INIT 3e1e4 498 .cfa: sp 0 +
STACK CFI 3e1e8 .cfa: sp 256 +
STACK CFI 3e204 .cfa: x29 96 + x19: .cfa -8 + ^ x20: .cfa -16 + ^ x21: .cfa -24 + ^ x22: .cfa -32 + ^ x23: .cfa -40 + ^ x24: .cfa -48 + ^ x25: .cfa -56 + ^ x26: .cfa -64 + ^ x27: .cfa -72 + ^ x28: .cfa -80 + ^ .ra: .cfa -88 + ^ x29: .cfa -96 + ^
STACK CFI 3e578 .cfa: sp 256 +
STACK CFI 3e594 .cfa: sp 0 +
STACK CFI 3e598 .cfa: x29 96 +
STACK CFI INIT 3e67c 2e4 .cfa: sp 0 +
STACK CFI 3e680 .cfa: sp 176 +
STACK CFI 3e694 .cfa: x29 64 + x19: .cfa -8 + ^ x20: .cfa -16 + ^ x21: .cfa -24 + ^ x22: .cfa -32 + ^ x23: .cfa -48 + ^ .ra: .cfa -56 + ^ x29: .cfa -64 + ^
STACK CFI 3e888 .cfa: sp 176 +
STACK CFI 3e89c .cfa: sp 0 +
STACK CFI 3e8a0 .cfa: x29 64 +
STACK CFI INIT 3e960 120 .cfa: sp 0 +
STACK CFI 3e964 .cfa: sp 112 +
STACK CFI 3e970 .cfa: x29 32 + x19: .cfa -8 + ^ x20: .cfa -16 + ^ .ra: .cfa -24 + ^ x29: .cfa -32 + ^
STACK CFI 3ea40 .cfa: sp 112 +
STACK CFI 3ea4c .cfa: sp 0 +
STACK CFI 3ea50 .cfa: x29 32 +
STACK CFI INIT 3ea84 1bc .cfa: sp 0 +
STACK CFI 3ea88 .cfa: sp 176 +
STACK CFI 3ea9c .cfa: x29 64 + x19: .cfa -8 + ^ x20: .cfa -16 + ^ x21: .cfa -24 + ^ x22: .cfa -32 + ^ x23: .cfa -40 + ^ x24: .cfa -48 + ^ .ra: .cfa -56 + ^ x29: .cfa -64 + ^
STACK CFI 3eb44 .cfa: sp 176 +
STACK CFI 3eb58 .cfa: sp 0 +
STACK CFI 3eb5c .cfa: x29 64 +
STACK CFI INIT 3ec40 180 .cfa: sp 0 +
STACK CFI 3ec44 .cfa: sp 160 +
STACK CFI 3ec5c .cfa: x29 80 + x19: .cfa -8 + ^ x20: .cfa -16 + ^ x21: .cfa -24 + ^ x22: .cfa -32 + ^ x23: .cfa -40 + ^ x24: .cfa -48 + ^ x25: .cfa -64 + ^ .ra: .cfa -72 + ^ x29: .cfa -80 + ^
STACK CFI 3ed58 .cfa: sp 160 +
STACK CFI 3ed70 .cfa: sp 0 +
STACK CFI 3ed74 .cfa: x29 80 +
STACK CFI INIT 3edc4 a0 .cfa: sp 0 +
STACK CFI 3edc8 .cfa: sp 64 +
STACK CFI 3edd4 .cfa: x29 32 + x19: .cfa -8 + ^ x20: .cfa -16 + ^ .ra: .cfa -24 + ^ x29: .cfa -32 + ^
STACK CFI 3ee24 .cfa: sp 64 +
STACK CFI 3ee30 .cfa: sp 0 +
STACK CFI 3ee34 .cfa: x29 32 +
STACK CFI INIT 3ee64 13c .cfa: sp 0 +
STACK CFI 3ee68 .cfa: sp 96 +
STACK CFI 3ee7c .cfa: x29 64 + x19: .cfa -8 + ^ x20: .cfa -16 + ^ x21: .cfa -24 + ^ x22: .cfa -32 + ^ x23: .cfa -48 + ^ .ra: .cfa -56 + ^ x29: .cfa -64 + ^
STACK CFI 3ef38 .cfa: sp 96 +
STACK CFI 3ef4c .cfa: sp 0 +
STACK CFI 3ef50 .cfa: x29 64 +
STACK CFI INIT 3efa0 c0 .cfa: sp 0 +
STACK CFI 3efa4 .cfa: sp 80 +
STACK CFI 3efb0 .cfa: x29 32 + x19: .cfa -8 + ^ x20: .cfa -16 + ^ .ra: .cfa -24 + ^ x29: .cfa -32 + ^
STACK CFI 3f020 .cfa: sp 80 +
STACK CFI 3f02c .cfa: sp 0 +
STACK CFI 3f030 .cfa: x29 32 +
STACK CFI INIT 3f060 8b4 .cfa: sp 0 +
STACK CFI 3f064 .cfa: sp 224 +
STACK CFI 3f084 .cfa: x29 96 + x19: .cfa -8 + ^ x20: .cfa -16 + ^ x21: .cfa -24 + ^ x22: .cfa -32 + ^ x23: .cfa -40 + ^ x24: .cfa -48 + ^ x25: .cfa -56 + ^ x26: .cfa -64 + ^ x27: .cfa -72 + ^ x28: .cfa -80 + ^ .ra: .cfa -88 + ^ x29: .cfa -96 + ^ v8: .cfa -112 + ^
STACK CFI 3f8b8 .cfa: sp 224 +
STACK CFI 3f8d8 .cfa: sp 0 +
STACK CFI 3f8dc .cfa: x29 96 +
STACK CFI INIT 3f914 230 .cfa: sp 0 +
STACK CFI 3f918 .cfa: sp 112 +
STACK CFI 3f930 .cfa: x29 80 + x19: .cfa -8 + ^ x20: .cfa -16 + ^ x21: .cfa -24 + ^ x22: .cfa -32 + ^ x23: .cfa -40 + ^ x24: .cfa -48 + ^ x25: .cfa -56 + ^ x26: .cfa -64 + ^ .ra: .cfa -72 + ^ x29: .cfa -80 + ^
STACK CFI 3fae0 .cfa: sp 112 +
STACK CFI 3faf8 .cfa: sp 0 +
STACK CFI 3fafc .cfa: x29 80 +
STACK CFI INIT 3fb44 240 .cfa: sp 0 +
STACK CFI 3fb48 .cfa: sp 144 +
STACK CFI 3fb64 .cfa: x29 96 + x19: .cfa -8 + ^ x20: .cfa -16 + ^ x21: .cfa -24 + ^ x22: .cfa -32 + ^ x23: .cfa -40 + ^ x24: .cfa -48 + ^ x25: .cfa -56 + ^ x26: .cfa -64 + ^ x27: .cfa -72 + ^ x28: .cfa -80 + ^ .ra: .cfa -88 + ^ x29: .cfa -96 + ^
STACK CFI 3fd1c .cfa: sp 144 +
STACK CFI 3fd38 .cfa: sp 0 +
STACK CFI 3fd3c .cfa: x29 96 +
STACK CFI INIT 3fe08 1d8 .cfa: sp 0 +
STACK CFI 3fe0c .cfa: sp 128 +
STACK CFI 3fe1c .cfa: x29 48 + x19: .cfa -8 + ^ x20: .cfa -16 + ^ x21: .cfa -32 + ^ .ra: .cfa -40 + ^ x29: .cfa -48 + ^
STACK CFI 3ff78 .cfa: sp 128 +
STACK CFI 3ff88 .cfa: sp 0 +
STACK CFI 3ff8c .cfa: x29 48 +
STACK CFI INIT 40024 498 .cfa: sp 0 +
STACK CFI 40028 .cfa: sp 256 +
STACK CFI 40044 .cfa: x29 96 + x19: .cfa -8 + ^ x20: .cfa -16 + ^ x21: .cfa -24 + ^ x22: .cfa -32 + ^ x23: .cfa -40 + ^ x24: .cfa -48 + ^ x25: .cfa -56 + ^ x26: .cfa -64 + ^ x27: .cfa -72 + ^ x28: .cfa -80 + ^ .ra: .cfa -88 + ^ x29: .cfa -96 + ^
STACK CFI 403b8 .cfa: sp 256 +
STACK CFI 403d4 .cfa: sp 0 +
STACK CFI 403d8 .cfa: x29 96 +
STACK CFI INIT 404bc 2b8 .cfa: sp 0 +
STACK CFI 404c0 .cfa: sp 144 +
STACK CFI 404d4 .cfa: x29 64 + x19: .cfa -8 + ^ x20: .cfa -16 + ^ x21: .cfa -24 + ^ x22: .cfa -32 + ^ x23: .cfa -48 + ^ .ra: .cfa -56 + ^ x29: .cfa -64 + ^
STACK CFI 406a4 .cfa: sp 144 +
STACK CFI 406b8 .cfa: sp 0 +
STACK CFI 406bc .cfa: x29 64 +
STACK CFI INIT 40774 108 .cfa: sp 0 +
STACK CFI 40778 .cfa: sp 112 +
STACK CFI 40784 .cfa: x29 32 + x19: .cfa -8 + ^ x20: .cfa -16 + ^ .ra: .cfa -24 + ^ x29: .cfa -32 + ^
STACK CFI 4083c .cfa: sp 112 +
STACK CFI 40848 .cfa: sp 0 +
STACK CFI 4084c .cfa: x29 32 +
STACK CFI INIT 40880 1bc .cfa: sp 0 +
STACK CFI 40884 .cfa: sp 176 +
STACK CFI 40898 .cfa: x29 64 + x19: .cfa -8 + ^ x20: .cfa -16 + ^ x21: .cfa -24 + ^ x22: .cfa -32 + ^ x23: .cfa -40 + ^ x24: .cfa -48 + ^ .ra: .cfa -56 + ^ x29: .cfa -64 + ^
STACK CFI 40940 .cfa: sp 176 +
STACK CFI 40954 .cfa: sp 0 +
STACK CFI 40958 .cfa: x29 64 +
STACK CFI INIT 40a3c 134 .cfa: sp 0 +
STACK CFI 40a40 .cfa: sp 128 +
STACK CFI 40a54 .cfa: x29 64 + x19: .cfa -8 + ^ x20: .cfa -16 + ^ x21: .cfa -24 + ^ x22: .cfa -32 + ^ x23: .cfa -40 + ^ x24: .cfa -48 + ^ .ra: .cfa -56 + ^ x29: .cfa -64 + ^
STACK CFI 40b20 .cfa: sp 128 +
STACK CFI 40b34 .cfa: sp 0 +
STACK CFI 40b38 .cfa: x29 64 +
STACK CFI INIT 40ba8 15c .cfa: sp 0 +
STACK CFI 40bac .cfa: sp 48 +
STACK CFI 40bb8 .cfa: x29 48 + x19: .cfa -8 + ^ x20: .cfa -16 + ^ x21: .cfa -24 + ^ x22: .cfa -32 + ^ .ra: .cfa -40 + ^ x29: .cfa -48 + ^
STACK CFI 40c04 .cfa: sp 48 +
STACK CFI 40c10 .cfa: sp 0 +
STACK CFI 40c14 .cfa: x29 48 +
STACK CFI 40c18 .cfa: sp 48 +
STACK CFI 40c24 .cfa: sp 0 +
STACK CFI 40c28 .cfa: x29 48 +
STACK CFI INIT 40d04 13c .cfa: sp 0 +
STACK CFI 40d08 .cfa: sp 96 +
STACK CFI 40d1c .cfa: x29 64 + x19: .cfa -8 + ^ x20: .cfa -16 + ^ x21: .cfa -24 + ^ x22: .cfa -32 + ^ x23: .cfa -48 + ^ .ra: .cfa -56 + ^ x29: .cfa -64 + ^
STACK CFI 40dd8 .cfa: sp 96 +
STACK CFI 40dec .cfa: sp 0 +
STACK CFI 40df0 .cfa: x29 64 +
STACK CFI INIT 40e40 c0 .cfa: sp 0 +
STACK CFI 40e44 .cfa: sp 80 +
STACK CFI 40e50 .cfa: x29 32 + x19: .cfa -8 + ^ x20: .cfa -16 + ^ .ra: .cfa -24 + ^ x29: .cfa -32 + ^
STACK CFI 40ec0 .cfa: sp 80 +
STACK CFI 40ecc .cfa: sp 0 +
STACK CFI 40ed0 .cfa: x29 32 +
STACK CFI INIT 40f00 1d0c .cfa: sp 0 +
STACK CFI 40f04 .cfa: sp 112 +
STACK CFI 40f20 .cfa: x29 96 + x19: .cfa -8 + ^ x20: .cfa -16 + ^ x21: .cfa -24 + ^ x22: .cfa -32 + ^ x23: .cfa -40 + ^ x24: .cfa -48 + ^ x25: .cfa -56 + ^ x26: .cfa -64 + ^ x27: .cfa -72 + ^ x28: .cfa -80 + ^ .ra: .cfa -88 + ^ x29: .cfa -96 + ^ v8: .cfa -104 + ^ v9: .cfa -112 + ^
STACK CFI 42884 .cfa: sp 112 +
STACK CFI 428a0 .cfa: sp 0 +
STACK CFI 428a4 .cfa: x29 96 +
STACK CFI INIT 42e58 348 .cfa: sp 0 +
STACK CFI 42e5c .cfa: sp 144 +
STACK CFI 42e78 .cfa: x29 96 + x19: .cfa -8 + ^ x20: .cfa -16 + ^ x21: .cfa -24 + ^ x22: .cfa -32 + ^ x23: .cfa -40 + ^ x24: .cfa -48 + ^ x25: .cfa -56 + ^ x26: .cfa -64 + ^ x27: .cfa -72 + ^ x28: .cfa -80 + ^ .ra: .cfa -88 + ^ x29: .cfa -96 + ^
STACK CFI 43134 .cfa: sp 144 +
STACK CFI 43150 .cfa: sp 0 +
STACK CFI 43154 .cfa: x29 96 +
STACK CFI INIT 431a0 308 .cfa: sp 0 +
STACK CFI 431a4 .cfa: sp 144 +
STACK CFI 431c0 .cfa: x29 96 + x19: .cfa -8 + ^ x20: .cfa -16 + ^ x21: .cfa -24 + ^ x22: .cfa -32 + ^ x23: .cfa -40 + ^ x24: .cfa -48 + ^ x25: .cfa -56 + ^ x26: .cfa -64 + ^ x27: .cfa -72 + ^ x28: .cfa -80 + ^ .ra: .cfa -88 + ^ x29: .cfa -96 + ^
STACK CFI 4343c .cfa: sp 144 +
STACK CFI 43458 .cfa: sp 0 +
STACK CFI 4345c .cfa: x29 96 +
STACK CFI INIT 4352c 1f4 .cfa: sp 0 +
STACK CFI 43530 .cfa: sp 144 +
STACK CFI 43540 .cfa: x29 48 + x19: .cfa -8 + ^ x20: .cfa -16 + ^ x21: .cfa -32 + ^ .ra: .cfa -40 + ^ x29: .cfa -48 + ^
STACK CFI 436b8 .cfa: sp 144 +
STACK CFI 436c8 .cfa: sp 0 +
STACK CFI 436cc .cfa: x29 48 +
STACK CFI INIT 4387c 498 .cfa: sp 0 +
STACK CFI 43880 .cfa: sp 256 +
STACK CFI 4389c .cfa: x29 96 + x19: .cfa -8 + ^ x20: .cfa -16 + ^ x21: .cfa -24 + ^ x22: .cfa -32 + ^ x23: .cfa -40 + ^ x24: .cfa -48 + ^ x25: .cfa -56 + ^ x26: .cfa -64 + ^ x27: .cfa -72 + ^ x28: .cfa -80 + ^ .ra: .cfa -88 + ^ x29: .cfa -96 + ^
STACK CFI 43c10 .cfa: sp 256 +
STACK CFI 43c2c .cfa: sp 0 +
STACK CFI 43c30 .cfa: x29 96 +
STACK CFI INIT 43d14 538 .cfa: sp 0 +
STACK CFI 43d18 .cfa: sp 176 +
STACK CFI 43d2c .cfa: x29 64 + x19: .cfa -8 + ^ x20: .cfa -16 + ^ x21: .cfa -24 + ^ x22: .cfa -32 + ^ x23: .cfa -40 + ^ x24: .cfa -48 + ^ .ra: .cfa -56 + ^ x29: .cfa -64 + ^
STACK CFI 440fc .cfa: sp 176 +
STACK CFI 44110 .cfa: sp 0 +
STACK CFI 44114 .cfa: x29 64 +
STACK CFI INIT 4424c 120 .cfa: sp 0 +
STACK CFI 44250 .cfa: sp 112 +
STACK CFI 4425c .cfa: x29 32 + x19: .cfa -8 + ^ x20: .cfa -16 + ^ .ra: .cfa -24 + ^ x29: .cfa -32 + ^
STACK CFI 4432c .cfa: sp 112 +
STACK CFI 44338 .cfa: sp 0 +
STACK CFI 4433c .cfa: x29 32 +
STACK CFI INIT 44370 1bc .cfa: sp 0 +
STACK CFI 44374 .cfa: sp 176 +
STACK CFI 44388 .cfa: x29 64 + x19: .cfa -8 + ^ x20: .cfa -16 + ^ x21: .cfa -24 + ^ x22: .cfa -32 + ^ x23: .cfa -40 + ^ x24: .cfa -48 + ^ .ra: .cfa -56 + ^ x29: .cfa -64 + ^
STACK CFI 44430 .cfa: sp 176 +
STACK CFI 44444 .cfa: sp 0 +
STACK CFI 44448 .cfa: x29 64 +
STACK CFI INIT 4452c 118 .cfa: sp 0 +
STACK CFI 44530 .cfa: sp 144 +
STACK CFI 44548 .cfa: x29 80 + x19: .cfa -8 + ^ x20: .cfa -16 + ^ x21: .cfa -24 + ^ x22: .cfa -32 + ^ x23: .cfa -40 + ^ x24: .cfa -48 + ^ x25: .cfa -64 + ^ .ra: .cfa -72 + ^ x29: .cfa -80 + ^
STACK CFI 445f0 .cfa: sp 144 +
STACK CFI 44608 .cfa: sp 0 +
STACK CFI 4460c .cfa: x29 80 +
STACK CFI INIT 44690 134 .cfa: sp 0 +
STACK CFI 44694 .cfa: sp 128 +
STACK CFI 446a8 .cfa: x29 64 + x19: .cfa -8 + ^ x20: .cfa -16 + ^ x21: .cfa -24 + ^ x22: .cfa -32 + ^ x23: .cfa -40 + ^ x24: .cfa -48 + ^ .ra: .cfa -56 + ^ x29: .cfa -64 + ^
STACK CFI 44774 .cfa: sp 128 +
STACK CFI 44788 .cfa: sp 0 +
STACK CFI 4478c .cfa: x29 64 +
STACK CFI INIT 447c8 1bc .cfa: sp 0 +
STACK CFI 447cc .cfa: sp 80 +
STACK CFI 447e0 .cfa: x29 64 + x19: .cfa -8 + ^ x20: .cfa -16 + ^ x21: .cfa -24 + ^ x22: .cfa -32 + ^ x23: .cfa -40 + ^ x24: .cfa -48 + ^ .ra: .cfa -56 + ^ x29: .cfa -64 + ^
STACK CFI 44910 .cfa: sp 80 +
STACK CFI 44924 .cfa: sp 0 +
STACK CFI 44928 .cfa: x29 64 +
STACK CFI 44934 .cfa: sp 80 +
STACK CFI 44948 .cfa: sp 0 +
STACK CFI 4494c .cfa: x29 64 +
STACK CFI INIT 44984 13c .cfa: sp 0 +
STACK CFI 44988 .cfa: sp 96 +
STACK CFI 44998 .cfa: x29 48 + x19: .cfa -8 + ^ x20: .cfa -16 + ^ x21: .cfa -24 + ^ x22: .cfa -32 + ^ .ra: .cfa -40 + ^ x29: .cfa -48 + ^
STACK CFI 44a5c .cfa: sp 96 +
STACK CFI 44a6c .cfa: sp 0 +
STACK CFI 44a70 .cfa: x29 48 +
STACK CFI INIT 44bcc 14c .cfa: sp 0 +
STACK CFI 44bd0 .cfa: sp 112 +
STACK CFI 44be8 .cfa: x29 80 + x19: .cfa -8 + ^ x20: .cfa -16 + ^ x21: .cfa -24 + ^ x22: .cfa -32 + ^ x23: .cfa -40 + ^ x24: .cfa -48 + ^ x25: .cfa -56 + ^ x26: .cfa -64 + ^ .ra: .cfa -72 + ^ x29: .cfa -80 + ^
STACK CFI 44cb4 .cfa: sp 112 +
STACK CFI 44ccc .cfa: sp 0 +
STACK CFI 44cd0 .cfa: x29 80 +
STACK CFI INIT 44d18 14c .cfa: sp 0 +
STACK CFI 44d1c .cfa: sp 112 +
STACK CFI 44d34 .cfa: x29 80 + x19: .cfa -8 + ^ x20: .cfa -16 + ^ x21: .cfa -24 + ^ x22: .cfa -32 + ^ x23: .cfa -40 + ^ x24: .cfa -48 + ^ x25: .cfa -56 + ^ x26: .cfa -64 + ^ .ra: .cfa -72 + ^ x29: .cfa -80 + ^
STACK CFI 44e00 .cfa: sp 112 +
STACK CFI 44e18 .cfa: sp 0 +
STACK CFI 44e1c .cfa: x29 80 +
STACK CFI INIT 44e64 c0 .cfa: sp 0 +
STACK CFI 44e68 .cfa: sp 80 +
STACK CFI 44e74 .cfa: x29 32 + x19: .cfa -8 + ^ x20: .cfa -16 + ^ .ra: .cfa -24 + ^ x29: .cfa -32 + ^
STACK CFI 44ee4 .cfa: sp 80 +
STACK CFI 44ef0 .cfa: sp 0 +
STACK CFI 44ef4 .cfa: x29 32 +
STACK CFI INIT 44f24 90c .cfa: sp 0 +
STACK CFI 44f28 .cfa: sp 128 +
STACK CFI 44f44 .cfa: x29 96 + x19: .cfa -8 + ^ x20: .cfa -16 + ^ x21: .cfa -24 + ^ x22: .cfa -32 + ^ x23: .cfa -40 + ^ x24: .cfa -48 + ^ x25: .cfa -56 + ^ x26: .cfa -64 + ^ x27: .cfa -72 + ^ x28: .cfa -80 + ^ .ra: .cfa -88 + ^ x29: .cfa -96 + ^
STACK CFI 457b8 .cfa: sp 128 +
STACK CFI 457d4 .cfa: sp 0 +
STACK CFI 457d8 .cfa: x29 96 +
STACK CFI INIT 458b4 498 .cfa: sp 0 +
STACK CFI 458b8 .cfa: sp 256 +
STACK CFI 458d4 .cfa: x29 96 + x19: .cfa -8 + ^ x20: .cfa -16 + ^ x21: .cfa -24 + ^ x22: .cfa -32 + ^ x23: .cfa -40 + ^ x24: .cfa -48 + ^ x25: .cfa -56 + ^ x26: .cfa -64 + ^ x27: .cfa -72 + ^ x28: .cfa -80 + ^ .ra: .cfa -88 + ^ x29: .cfa -96 + ^
STACK CFI 45c48 .cfa: sp 256 +
STACK CFI 45c64 .cfa: sp 0 +
STACK CFI 45c68 .cfa: x29 96 +
STACK CFI INIT 45d4c 2c0 .cfa: sp 0 +
STACK CFI 45d50 .cfa: sp 144 +
STACK CFI 45d64 .cfa: x29 64 + x19: .cfa -8 + ^ x20: .cfa -16 + ^ x21: .cfa -24 + ^ x22: .cfa -32 + ^ x23: .cfa -48 + ^ .ra: .cfa -56 + ^ x29: .cfa -64 + ^
STACK CFI 45f3c .cfa: sp 144 +
STACK CFI 45f50 .cfa: sp 0 +
STACK CFI 45f54 .cfa: x29 64 +
STACK CFI INIT 4600c 10c .cfa: sp 0 +
STACK CFI 46010 .cfa: sp 112 +
STACK CFI 4601c .cfa: x29 32 + x19: .cfa -8 + ^ x20: .cfa -16 + ^ .ra: .cfa -24 + ^ x29: .cfa -32 + ^
STACK CFI 460d8 .cfa: sp 112 +
STACK CFI 460e4 .cfa: sp 0 +
STACK CFI 460e8 .cfa: x29 32 +
STACK CFI INIT 4611c 1bc .cfa: sp 0 +
STACK CFI 46120 .cfa: sp 176 +
STACK CFI 46134 .cfa: x29 64 + x19: .cfa -8 + ^ x20: .cfa -16 + ^ x21: .cfa -24 + ^ x22: .cfa -32 + ^ x23: .cfa -40 + ^ x24: .cfa -48 + ^ .ra: .cfa -56 + ^ x29: .cfa -64 + ^
STACK CFI 461dc .cfa: sp 176 +
STACK CFI 461f0 .cfa: sp 0 +
STACK CFI 461f4 .cfa: x29 64 +
STACK CFI INIT 462d8 118 .cfa: sp 0 +
STACK CFI 462dc .cfa: sp 144 +
STACK CFI 462f4 .cfa: x29 80 + x19: .cfa -8 + ^ x20: .cfa -16 + ^ x21: .cfa -24 + ^ x22: .cfa -32 + ^ x23: .cfa -40 + ^ x24: .cfa -48 + ^ x25: .cfa -64 + ^ .ra: .cfa -72 + ^ x29: .cfa -80 + ^
STACK CFI 4639c .cfa: sp 144 +
STACK CFI 463b4 .cfa: sp 0 +
STACK CFI 463b8 .cfa: x29 80 +
STACK CFI INIT 46444 2a0 .cfa: sp 0 +
STACK CFI 46448 .cfa: sp 96 +
STACK CFI 4645c .cfa: x29 64 + x19: .cfa -8 + ^ x20: .cfa -16 + ^ x21: .cfa -24 + ^ x22: .cfa -32 + ^ x23: .cfa -40 + ^ x24: .cfa -48 + ^ .ra: .cfa -56 + ^ x29: .cfa -64 + ^
STACK CFI 465a4 .cfa: sp 96 +
STACK CFI 465b8 .cfa: sp 0 +
STACK CFI 465bc .cfa: x29 64 +
STACK CFI 46684 .cfa: sp 96 +
STACK CFI 46698 .cfa: sp 0 +
STACK CFI 4669c .cfa: x29 64 +
STACK CFI INIT 466e4 130 .cfa: sp 0 +
STACK CFI 466e8 .cfa: sp 96 +
STACK CFI 466fc .cfa: x29 64 + x19: .cfa -8 + ^ x20: .cfa -16 + ^ x21: .cfa -24 + ^ x22: .cfa -32 + ^ x23: .cfa -40 + ^ x24: .cfa -48 + ^ .ra: .cfa -56 + ^ x29: .cfa -64 + ^
STACK CFI 467ac .cfa: sp 96 +
STACK CFI 467c0 .cfa: sp 0 +
STACK CFI 467c4 .cfa: x29 64 +
STACK CFI INIT 46814 1e4 .cfa: sp 0 +
STACK CFI 46818 .cfa: sp 464 +
STACK CFI 4682c .cfa: x29 64 + x19: .cfa -8 + ^ x20: .cfa -16 + ^ x21: .cfa -24 + ^ x22: .cfa -32 + ^ x28: .cfa -48 + ^ .ra: .cfa -56 + ^ x29: .cfa -64 + ^
STACK CFI 4695c .cfa: sp 464 +
STACK CFI 46970 .cfa: sp 0 +
STACK CFI 46974 .cfa: x29 64 +
STACK CFI INIT 469f8 c4 .cfa: sp 0 +
STACK CFI 469fc .cfa: sp 432 +
STACK CFI 46a08 .cfa: x29 32 + x19: .cfa -8 + ^ x28: .cfa -16 + ^ .ra: .cfa -24 + ^ x29: .cfa -32 + ^
STACK CFI 46aa4 .cfa: sp 432 +
STACK CFI 46ab0 .cfa: sp 0 +
STACK CFI 46ab4 .cfa: x29 32 +
STACK CFI INIT 46abc 48 .cfa: sp 0 +
STACK CFI 46ac0 .cfa: sp 32 +
STACK CFI 46ac8 .cfa: x29 32 + x19: .cfa -16 + ^ .ra: .cfa -24 + ^ x29: .cfa -32 + ^
STACK CFI 46af4 .cfa: sp 32 +
STACK CFI 46afc .cfa: sp 0 +
STACK CFI 46b00 .cfa: x29 32 +
STACK CFI INIT 46b04 4c .cfa: sp 0 +
STACK CFI 46b08 .cfa: sp 32 +
STACK CFI 46b10 .cfa: x29 32 + x19: .cfa -16 + ^ .ra: .cfa -24 + ^ x29: .cfa -32 + ^
STACK CFI 46b40 .cfa: sp 32 +
STACK CFI 46b48 .cfa: sp 0 +
STACK CFI 46b4c .cfa: x29 32 +
STACK CFI INIT 46b50 1d4 .cfa: sp 0 +
STACK CFI 46b54 .cfa: sp 128 +
STACK CFI 46b64 .cfa: x29 48 + x19: .cfa -8 + ^ x20: .cfa -16 + ^ x21: .cfa -24 + ^ x22: .cfa -32 + ^ .ra: .cfa -40 + ^ x29: .cfa -48 + ^
STACK CFI 46cbc .cfa: sp 128 +
STACK CFI 46ccc .cfa: sp 0 +
STACK CFI 46cd0 .cfa: x29 48 +
STACK CFI INIT 46d68 bc .cfa: sp 0 +
STACK CFI 46d6c .cfa: sp 80 +
STACK CFI 46d78 .cfa: x29 32 + x19: .cfa -8 + ^ x20: .cfa -16 + ^ .ra: .cfa -24 + ^ x29: .cfa -32 + ^
STACK CFI 46de4 .cfa: sp 80 +
STACK CFI 46df0 .cfa: sp 0 +
STACK CFI 46df4 .cfa: x29 32 +
STACK CFI INIT 46e24 978 .cfa: sp 0 +
STACK CFI 46e28 .cfa: sp 96 +
STACK CFI 46e3c .cfa: x29 64 + x19: .cfa -8 + ^ x20: .cfa -16 + ^ x21: .cfa -24 + ^ x22: .cfa -32 + ^ x23: .cfa -40 + ^ x24: .cfa -48 + ^ .ra: .cfa -56 + ^ x29: .cfa -64 + ^
STACK CFI 47728 .cfa: sp 96 +
STACK CFI 4773c .cfa: sp 0 +
STACK CFI 47740 .cfa: x29 64 +
STACK CFI INIT 47820 1d4 .cfa: sp 0 +
STACK CFI 47824 .cfa: sp 128 +
STACK CFI 47834 .cfa: x29 48 + x19: .cfa -8 + ^ x20: .cfa -16 + ^ x21: .cfa -24 + ^ x22: .cfa -32 + ^ .ra: .cfa -40 + ^ x29: .cfa -48 + ^
STACK CFI 4798c .cfa: sp 128 +
STACK CFI 4799c .cfa: sp 0 +
STACK CFI 479a0 .cfa: x29 48 +
STACK CFI INIT 47a38 498 .cfa: sp 0 +
STACK CFI 47a3c .cfa: sp 256 +
STACK CFI 47a58 .cfa: x29 96 + x19: .cfa -8 + ^ x20: .cfa -16 + ^ x21: .cfa -24 + ^ x22: .cfa -32 + ^ x23: .cfa -40 + ^ x24: .cfa -48 + ^ x25: .cfa -56 + ^ x26: .cfa -64 + ^ x27: .cfa -72 + ^ x28: .cfa -80 + ^ .ra: .cfa -88 + ^ x29: .cfa -96 + ^
STACK CFI 47dcc .cfa: sp 256 +
STACK CFI 47de8 .cfa: sp 0 +
STACK CFI 47dec .cfa: x29 96 +
STACK CFI INIT 47ed0 2c0 .cfa: sp 0 +
STACK CFI 47ed4 .cfa: sp 144 +
STACK CFI 47ee8 .cfa: x29 64 + x19: .cfa -8 + ^ x20: .cfa -16 + ^ x21: .cfa -24 + ^ x22: .cfa -32 + ^ x23: .cfa -48 + ^ .ra: .cfa -56 + ^ x29: .cfa -64 + ^
STACK CFI 480c0 .cfa: sp 144 +
STACK CFI 480d4 .cfa: sp 0 +
STACK CFI 480d8 .cfa: x29 64 +
STACK CFI INIT 48190 10c .cfa: sp 0 +
STACK CFI 48194 .cfa: sp 112 +
STACK CFI 481a0 .cfa: x29 32 + x19: .cfa -8 + ^ x20: .cfa -16 + ^ .ra: .cfa -24 + ^ x29: .cfa -32 + ^
STACK CFI 4825c .cfa: sp 112 +
STACK CFI 48268 .cfa: sp 0 +
STACK CFI 4826c .cfa: x29 32 +
STACK CFI INIT 482a0 1bc .cfa: sp 0 +
STACK CFI 482a4 .cfa: sp 176 +
STACK CFI 482b8 .cfa: x29 64 + x19: .cfa -8 + ^ x20: .cfa -16 + ^ x21: .cfa -24 + ^ x22: .cfa -32 + ^ x23: .cfa -40 + ^ x24: .cfa -48 + ^ .ra: .cfa -56 + ^ x29: .cfa -64 + ^
STACK CFI 48360 .cfa: sp 176 +
STACK CFI 48374 .cfa: sp 0 +
STACK CFI 48378 .cfa: x29 64 +
STACK CFI INIT 4845c 180 .cfa: sp 0 +
STACK CFI 48460 .cfa: sp 144 +
STACK CFI 48478 .cfa: x29 80 + x19: .cfa -8 + ^ x20: .cfa -16 + ^ x21: .cfa -24 + ^ x22: .cfa -32 + ^ x23: .cfa -40 + ^ x24: .cfa -48 + ^ x25: .cfa -64 + ^ .ra: .cfa -72 + ^ x29: .cfa -80 + ^
STACK CFI 48574 .cfa: sp 144 +
STACK CFI 4858c .cfa: sp 0 +
STACK CFI 48590 .cfa: x29 80 +
STACK CFI INIT 48614 130 .cfa: sp 0 +
STACK CFI 48618 .cfa: sp 96 +
STACK CFI 4862c .cfa: x29 64 + x19: .cfa -8 + ^ x20: .cfa -16 + ^ x21: .cfa -24 + ^ x22: .cfa -32 + ^ x23: .cfa -40 + ^ x24: .cfa -48 + ^ .ra: .cfa -56 + ^ x29: .cfa -64 + ^
STACK CFI 486dc .cfa: sp 96 +
STACK CFI 486f0 .cfa: sp 0 +
STACK CFI 486f4 .cfa: x29 64 +
STACK CFI INIT 48744 bc .cfa: sp 0 +
STACK CFI 48748 .cfa: sp 80 +
STACK CFI 48754 .cfa: x29 32 + x19: .cfa -8 + ^ x20: .cfa -16 + ^ .ra: .cfa -24 + ^ x29: .cfa -32 + ^
STACK CFI 487c0 .cfa: sp 80 +
STACK CFI 487cc .cfa: sp 0 +
STACK CFI 487d0 .cfa: x29 32 +
STACK CFI INIT 48800 974 .cfa: sp 0 +
STACK CFI 48804 .cfa: sp 256 +
STACK CFI 48824 .cfa: x29 88 + x19: .cfa -8 + ^ x20: .cfa -16 + ^ x21: .cfa -24 + ^ x22: .cfa -32 + ^ x23: .cfa -40 + ^ x24: .cfa -48 + ^ x25: .cfa -56 + ^ x26: .cfa -64 + ^ x27: .cfa -72 + ^ .ra: .cfa -80 + ^ x29: .cfa -88 + ^ v8: .cfa -96 + ^
STACK CFI 490d8 .cfa: sp 256 +
STACK CFI 490f8 .cfa: sp 0 +
STACK CFI 490fc .cfa: x29 88 +
STACK CFI INIT 4937c 1d4 .cfa: sp 0 +
STACK CFI 49380 .cfa: sp 128 +
STACK CFI 49390 .cfa: x29 48 + x19: .cfa -8 + ^ x20: .cfa -16 + ^ x21: .cfa -24 + ^ x22: .cfa -32 + ^ .ra: .cfa -40 + ^ x29: .cfa -48 + ^
STACK CFI 494e8 .cfa: sp 128 +
STACK CFI 494f8 .cfa: sp 0 +
STACK CFI 494fc .cfa: x29 48 +
STACK CFI INIT 49594 498 .cfa: sp 0 +
STACK CFI 49598 .cfa: sp 256 +
STACK CFI 495b4 .cfa: x29 96 + x19: .cfa -8 + ^ x20: .cfa -16 + ^ x21: .cfa -24 + ^ x22: .cfa -32 + ^ x23: .cfa -40 + ^ x24: .cfa -48 + ^ x25: .cfa -56 + ^ x26: .cfa -64 + ^ x27: .cfa -72 + ^ x28: .cfa -80 + ^ .ra: .cfa -88 + ^ x29: .cfa -96 + ^
STACK CFI 49928 .cfa: sp 256 +
STACK CFI 49944 .cfa: sp 0 +
STACK CFI 49948 .cfa: x29 96 +
STACK CFI INIT 49a2c 2c0 .cfa: sp 0 +
STACK CFI 49a30 .cfa: sp 144 +
STACK CFI 49a44 .cfa: x29 64 + x19: .cfa -8 + ^ x20: .cfa -16 + ^ x21: .cfa -24 + ^ x22: .cfa -32 + ^ x23: .cfa -48 + ^ .ra: .cfa -56 + ^ x29: .cfa -64 + ^
STACK CFI 49c1c .cfa: sp 144 +
STACK CFI 49c30 .cfa: sp 0 +
STACK CFI 49c34 .cfa: x29 64 +
STACK CFI INIT 49cec 10c .cfa: sp 0 +
STACK CFI 49cf0 .cfa: sp 112 +
STACK CFI 49cfc .cfa: x29 32 + x19: .cfa -8 + ^ x20: .cfa -16 + ^ .ra: .cfa -24 + ^ x29: .cfa -32 + ^
STACK CFI 49db8 .cfa: sp 112 +
STACK CFI 49dc4 .cfa: sp 0 +
STACK CFI 49dc8 .cfa: x29 32 +
STACK CFI INIT 49dfc 1bc .cfa: sp 0 +
STACK CFI 49e00 .cfa: sp 176 +
STACK CFI 49e14 .cfa: x29 64 + x19: .cfa -8 + ^ x20: .cfa -16 + ^ x21: .cfa -24 + ^ x22: .cfa -32 + ^ x23: .cfa -40 + ^ x24: .cfa -48 + ^ .ra: .cfa -56 + ^ x29: .cfa -64 + ^
STACK CFI 49ebc .cfa: sp 176 +
STACK CFI 49ed0 .cfa: sp 0 +
STACK CFI 49ed4 .cfa: x29 64 +
STACK CFI INIT 49fb8 180 .cfa: sp 0 +
STACK CFI 49fbc .cfa: sp 160 +
STACK CFI 49fd4 .cfa: x29 80 + x19: .cfa -8 + ^ x20: .cfa -16 + ^ x21: .cfa -24 + ^ x22: .cfa -32 + ^ x23: .cfa -40 + ^ x24: .cfa -48 + ^ x25: .cfa -64 + ^ .ra: .cfa -72 + ^ x29: .cfa -80 + ^
STACK CFI 4a0d0 .cfa: sp 160 +
STACK CFI 4a0e8 .cfa: sp 0 +
STACK CFI 4a0ec .cfa: x29 80 +
STACK CFI INIT 4a170 130 .cfa: sp 0 +
STACK CFI 4a174 .cfa: sp 96 +
STACK CFI 4a188 .cfa: x29 64 + x19: .cfa -8 + ^ x20: .cfa -16 + ^ x21: .cfa -24 + ^ x22: .cfa -32 + ^ x23: .cfa -40 + ^ x24: .cfa -48 + ^ .ra: .cfa -56 + ^ x29: .cfa -64 + ^
STACK CFI 4a238 .cfa: sp 96 +
STACK CFI 4a24c .cfa: sp 0 +
STACK CFI 4a250 .cfa: x29 64 +
STACK CFI INIT 4a2a0 bc .cfa: sp 0 +
STACK CFI 4a2a4 .cfa: sp 80 +
STACK CFI 4a2b0 .cfa: x29 32 + x19: .cfa -8 + ^ x20: .cfa -16 + ^ .ra: .cfa -24 + ^ x29: .cfa -32 + ^
STACK CFI 4a31c .cfa: sp 80 +
STACK CFI 4a328 .cfa: sp 0 +
STACK CFI 4a32c .cfa: x29 32 +
STACK CFI INIT 4a35c 27e0 .cfa: sp 0 +
STACK CFI 4a360 .cfa: sp 112 +
STACK CFI 4a37c .cfa: x29 96 + x19: .cfa -8 + ^ x20: .cfa -16 + ^ x21: .cfa -24 + ^ x22: .cfa -32 + ^ x23: .cfa -40 + ^ x24: .cfa -48 + ^ x25: .cfa -56 + ^ x26: .cfa -64 + ^ x27: .cfa -72 + ^ x28: .cfa -80 + ^ .ra: .cfa -88 + ^ x29: .cfa -96 + ^ v8: .cfa -112 + ^
STACK CFI 4c5dc .cfa: sp 112 +
STACK CFI 4c5f8 .cfa: sp 0 +
STACK CFI 4c5fc .cfa: x29 96 +
STACK CFI INIT 4cf6c 20 .cfa: sp 0 +
STACK CFI 4cf70 .cfa: sp 16 +
STACK CFI 4cf74 .cfa: x29 16 + .ra: .cfa -8 + ^ x29: .cfa -16 + ^
STACK CFI 4cf80 .cfa: sp 16 +
STACK CFI 4cf84 .cfa: sp 0 +
STACK CFI 4cf88 .cfa: x29 16 +
STACK CFI INIT 4cf8c 124 .cfa: sp 0 +
STACK CFI 4cf90 .cfa: sp 32 +
STACK CFI 4cf98 .cfa: x29 32 + x19: .cfa -8 + ^ x20: .cfa -16 + ^ .ra: .cfa -24 + ^ x29: .cfa -32 + ^
STACK CFI 4d06c .cfa: sp 32 +
STACK CFI 4d074 .cfa: sp 0 +
STACK CFI 4d078 .cfa: x29 32 +
STACK CFI 4d090 .cfa: sp 32 +
STACK CFI 4d098 .cfa: sp 0 +
STACK CFI 4d09c .cfa: x29 32 +
STACK CFI INIT 4d264 1cc .cfa: sp 0 +
STACK CFI 4d268 .cfa: sp 144 +
STACK CFI 4d278 .cfa: x29 48 + x19: .cfa -8 + ^ x20: .cfa -16 + ^ x21: .cfa -32 + ^ .ra: .cfa -40 + ^ x29: .cfa -48 + ^
STACK CFI 4d3c8 .cfa: sp 144 +
STACK CFI 4d3d8 .cfa: sp 0 +
STACK CFI 4d3dc .cfa: x29 48 +
STACK CFI INIT 4d58c 498 .cfa: sp 0 +
STACK CFI 4d590 .cfa: sp 256 +
STACK CFI 4d5ac .cfa: x29 96 + x19: .cfa -8 + ^ x20: .cfa -16 + ^ x21: .cfa -24 + ^ x22: .cfa -32 + ^ x23: .cfa -40 + ^ x24: .cfa -48 + ^ x25: .cfa -56 + ^ x26: .cfa -64 + ^ x27: .cfa -72 + ^ x28: .cfa -80 + ^ .ra: .cfa -88 + ^ x29: .cfa -96 + ^
STACK CFI 4d920 .cfa: sp 256 +
STACK CFI 4d93c .cfa: sp 0 +
STACK CFI 4d940 .cfa: x29 96 +
STACK CFI INIT 4da24 2b4 .cfa: sp 0 +
STACK CFI 4da28 .cfa: sp 144 +
STACK CFI 4da3c .cfa: x29 64 + x19: .cfa -8 + ^ x20: .cfa -16 + ^ x21: .cfa -24 + ^ x22: .cfa -32 + ^ x23: .cfa -48 + ^ .ra: .cfa -56 + ^ x29: .cfa -64 + ^
STACK CFI 4dc08 .cfa: sp 144 +
STACK CFI 4dc1c .cfa: sp 0 +
STACK CFI 4dc20 .cfa: x29 64 +
STACK CFI INIT 4dcd8 108 .cfa: sp 0 +
STACK CFI 4dcdc .cfa: sp 112 +
STACK CFI 4dce8 .cfa: x29 32 + x19: .cfa -8 + ^ x20: .cfa -16 + ^ .ra: .cfa -24 + ^ x29: .cfa -32 + ^
STACK CFI 4dda0 .cfa: sp 112 +
STACK CFI 4ddac .cfa: sp 0 +
STACK CFI 4ddb0 .cfa: x29 32 +
STACK CFI INIT 4dde4 1bc .cfa: sp 0 +
STACK CFI 4dde8 .cfa: sp 176 +
STACK CFI 4ddfc .cfa: x29 64 + x19: .cfa -8 + ^ x20: .cfa -16 + ^ x21: .cfa -24 + ^ x22: .cfa -32 + ^ x23: .cfa -40 + ^ x24: .cfa -48 + ^ .ra: .cfa -56 + ^ x29: .cfa -64 + ^
STACK CFI 4dea4 .cfa: sp 176 +
STACK CFI 4deb8 .cfa: sp 0 +
STACK CFI 4debc .cfa: x29 64 +
STACK CFI INIT 4dfa0 180 .cfa: sp 0 +
STACK CFI 4dfa4 .cfa: sp 160 +
STACK CFI 4dfbc .cfa: x29 80 + x19: .cfa -8 + ^ x20: .cfa -16 + ^ x21: .cfa -24 + ^ x22: .cfa -32 + ^ x23: .cfa -40 + ^ x24: .cfa -48 + ^ x25: .cfa -64 + ^ .ra: .cfa -72 + ^ x29: .cfa -80 + ^
STACK CFI 4e0b8 .cfa: sp 160 +
STACK CFI 4e0d0 .cfa: sp 0 +
STACK CFI 4e0d4 .cfa: x29 80 +
STACK CFI INIT 4e158 124 .cfa: sp 0 +
STACK CFI 4e15c .cfa: sp 96 +
STACK CFI 4e16c .cfa: x29 48 + x19: .cfa -8 + ^ x20: .cfa -16 + ^ x21: .cfa -24 + ^ x22: .cfa -32 + ^ .ra: .cfa -40 + ^ x29: .cfa -48 + ^
STACK CFI 4e218 .cfa: sp 96 +
STACK CFI 4e228 .cfa: sp 0 +
STACK CFI 4e22c .cfa: x29 48 +
STACK CFI INIT 4e27c b4 .cfa: sp 0 +
STACK CFI 4e280 .cfa: sp 80 +
STACK CFI 4e28c .cfa: x29 32 + x19: .cfa -8 + ^ x20: .cfa -16 + ^ .ra: .cfa -24 + ^ x29: .cfa -32 + ^
STACK CFI 4e2f0 .cfa: sp 80 +
STACK CFI 4e2fc .cfa: sp 0 +
STACK CFI 4e300 .cfa: x29 32 +
STACK CFI INIT 4e330 2630 .cfa: sp 0 +
STACK CFI 4e334 .cfa: sp 112 +
STACK CFI 4e350 .cfa: x29 96 + x19: .cfa -8 + ^ x20: .cfa -16 + ^ x21: .cfa -24 + ^ x22: .cfa -32 + ^ x23: .cfa -40 + ^ x24: .cfa -48 + ^ x25: .cfa -56 + ^ x26: .cfa -64 + ^ x27: .cfa -72 + ^ x28: .cfa -80 + ^ .ra: .cfa -88 + ^ x29: .cfa -96 + ^ v8: .cfa -104 + ^ v9: .cfa -112 + ^
STACK CFI 50530 .cfa: sp 112 +
STACK CFI 5054c .cfa: sp 0 +
STACK CFI 50550 .cfa: x29 96 +
STACK CFI INIT 50afc 370 .cfa: sp 0 +
STACK CFI 50b00 .cfa: sp 160 +
STACK CFI 50b1c .cfa: x29 96 + x19: .cfa -8 + ^ x20: .cfa -16 + ^ x21: .cfa -24 + ^ x22: .cfa -32 + ^ x23: .cfa -40 + ^ x24: .cfa -48 + ^ x25: .cfa -56 + ^ x26: .cfa -64 + ^ x27: .cfa -72 + ^ x28: .cfa -80 + ^ .ra: .cfa -88 + ^ x29: .cfa -96 + ^
STACK CFI 50e00 .cfa: sp 160 +
STACK CFI 50e1c .cfa: sp 0 +
STACK CFI 50e20 .cfa: x29 96 +
STACK CFI INIT 50e6c 34c .cfa: sp 0 +
STACK CFI 50e70 .cfa: sp 160 +
STACK CFI 50e8c .cfa: x29 96 + x19: .cfa -8 + ^ x20: .cfa -16 + ^ x21: .cfa -24 + ^ x22: .cfa -32 + ^ x23: .cfa -40 + ^ x24: .cfa -48 + ^ x25: .cfa -56 + ^ x26: .cfa -64 + ^ x27: .cfa -72 + ^ x28: .cfa -80 + ^ .ra: .cfa -88 + ^ x29: .cfa -96 + ^
STACK CFI 51138 .cfa: sp 160 +
STACK CFI 51154 .cfa: sp 0 +
STACK CFI 51158 .cfa: x29 96 +
STACK CFI INIT 511b8 348 .cfa: sp 0 +
STACK CFI 511bc .cfa: sp 144 +
STACK CFI 511d8 .cfa: x29 96 + x19: .cfa -8 + ^ x20: .cfa -16 + ^ x21: .cfa -24 + ^ x22: .cfa -32 + ^ x23: .cfa -40 + ^ x24: .cfa -48 + ^ x25: .cfa -56 + ^ x26: .cfa -64 + ^ x27: .cfa -72 + ^ x28: .cfa -80 + ^ .ra: .cfa -88 + ^ x29: .cfa -96 + ^
STACK CFI 51494 .cfa: sp 144 +
STACK CFI 514b0 .cfa: sp 0 +
STACK CFI 514b4 .cfa: x29 96 +
STACK CFI INIT 5185c 1a4 .cfa: sp 0 +
STACK CFI 51860 .cfa: sp 128 +
STACK CFI 51870 .cfa: x29 48 + x19: .cfa -8 + ^ x20: .cfa -16 + ^ x21: .cfa -24 + ^ x22: .cfa -32 + ^ .ra: .cfa -40 + ^ x29: .cfa -48 + ^
STACK CFI 51998 .cfa: sp 128 +
STACK CFI 519a8 .cfa: sp 0 +
STACK CFI 519ac .cfa: x29 48 +
STACK CFI INIT 51b5c 498 .cfa: sp 0 +
STACK CFI 51b60 .cfa: sp 256 +
STACK CFI 51b7c .cfa: x29 96 + x19: .cfa -8 + ^ x20: .cfa -16 + ^ x21: .cfa -24 + ^ x22: .cfa -32 + ^ x23: .cfa -40 + ^ x24: .cfa -48 + ^ x25: .cfa -56 + ^ x26: .cfa -64 + ^ x27: .cfa -72 + ^ x28: .cfa -80 + ^ .ra: .cfa -88 + ^ x29: .cfa -96 + ^
STACK CFI 51ef0 .cfa: sp 256 +
STACK CFI 51f0c .cfa: sp 0 +
STACK CFI 51f10 .cfa: x29 96 +
STACK CFI INIT 51ff4 2ac .cfa: sp 0 +
STACK CFI 51ff8 .cfa: sp 128 +
STACK CFI 5200c .cfa: x29 64 + x19: .cfa -8 + ^ x20: .cfa -16 + ^ x21: .cfa -24 + ^ x22: .cfa -32 + ^ x23: .cfa -48 + ^ .ra: .cfa -56 + ^ x29: .cfa -64 + ^
STACK CFI 521d0 .cfa: sp 128 +
STACK CFI 521e4 .cfa: sp 0 +
STACK CFI 521e8 .cfa: x29 64 +
STACK CFI INIT 522a0 108 .cfa: sp 0 +
STACK CFI 522a4 .cfa: sp 112 +
STACK CFI 522b0 .cfa: x29 32 + x19: .cfa -8 + ^ x20: .cfa -16 + ^ .ra: .cfa -24 + ^ x29: .cfa -32 + ^
STACK CFI 52368 .cfa: sp 112 +
STACK CFI 52374 .cfa: sp 0 +
STACK CFI 52378 .cfa: x29 32 +
STACK CFI INIT 523ac 1bc .cfa: sp 0 +
STACK CFI 523b0 .cfa: sp 176 +
STACK CFI 523c4 .cfa: x29 64 + x19: .cfa -8 + ^ x20: .cfa -16 + ^ x21: .cfa -24 + ^ x22: .cfa -32 + ^ x23: .cfa -40 + ^ x24: .cfa -48 + ^ .ra: .cfa -56 + ^ x29: .cfa -64 + ^
STACK CFI 5246c .cfa: sp 176 +
STACK CFI 52480 .cfa: sp 0 +
STACK CFI 52484 .cfa: x29 64 +
STACK CFI INIT 52568 180 .cfa: sp 0 +
STACK CFI 5256c .cfa: sp 160 +
STACK CFI 52584 .cfa: x29 80 + x19: .cfa -8 + ^ x20: .cfa -16 + ^ x21: .cfa -24 + ^ x22: .cfa -32 + ^ x23: .cfa -40 + ^ x24: .cfa -48 + ^ x25: .cfa -64 + ^ .ra: .cfa -72 + ^ x29: .cfa -80 + ^
STACK CFI 52680 .cfa: sp 160 +
STACK CFI 52698 .cfa: sp 0 +
STACK CFI 5269c .cfa: x29 80 +
STACK CFI INIT 52720 128 .cfa: sp 0 +
STACK CFI 52724 .cfa: sp 96 +
STACK CFI 52738 .cfa: x29 64 + x19: .cfa -8 + ^ x20: .cfa -16 + ^ x21: .cfa -24 + ^ x22: .cfa -32 + ^ x23: .cfa -48 + ^ .ra: .cfa -56 + ^ x29: .cfa -64 + ^
STACK CFI 527e0 .cfa: sp 96 +
STACK CFI 527f4 .cfa: sp 0 +
STACK CFI 527f8 .cfa: x29 64 +
STACK CFI INIT 52848 b8 .cfa: sp 0 +
STACK CFI 5284c .cfa: sp 80 +
STACK CFI 52858 .cfa: x29 32 + x19: .cfa -8 + ^ x20: .cfa -16 + ^ .ra: .cfa -24 + ^ x29: .cfa -32 + ^
STACK CFI 528c0 .cfa: sp 80 +
STACK CFI 528cc .cfa: sp 0 +
STACK CFI 528d0 .cfa: x29 32 +
STACK CFI INIT 52900 112c .cfa: sp 0 +
STACK CFI 52904 .cfa: sp 224 +
STACK CFI 52920 .cfa: x29 96 + x19: .cfa -8 + ^ x20: .cfa -16 + ^ x21: .cfa -24 + ^ x22: .cfa -32 + ^ x23: .cfa -40 + ^ x24: .cfa -48 + ^ x25: .cfa -56 + ^ x26: .cfa -64 + ^ x27: .cfa -72 + ^ x28: .cfa -80 + ^ .ra: .cfa -88 + ^ x29: .cfa -96 + ^
STACK CFI 5385c .cfa: sp 224 +
STACK CFI 53878 .cfa: sp 0 +
STACK CFI 5387c .cfa: x29 96 +
STACK CFI INIT 53c7c 1d4 .cfa: sp 0 +
STACK CFI 53c80 .cfa: sp 128 +
STACK CFI 53c90 .cfa: x29 48 + x19: .cfa -8 + ^ x20: .cfa -16 + ^ x21: .cfa -24 + ^ x22: .cfa -32 + ^ .ra: .cfa -40 + ^ x29: .cfa -48 + ^
STACK CFI 53de8 .cfa: sp 128 +
STACK CFI 53df8 .cfa: sp 0 +
STACK CFI 53dfc .cfa: x29 48 +
STACK CFI INIT 53e94 498 .cfa: sp 0 +
STACK CFI 53e98 .cfa: sp 256 +
STACK CFI 53eb4 .cfa: x29 96 + x19: .cfa -8 + ^ x20: .cfa -16 + ^ x21: .cfa -24 + ^ x22: .cfa -32 + ^ x23: .cfa -40 + ^ x24: .cfa -48 + ^ x25: .cfa -56 + ^ x26: .cfa -64 + ^ x27: .cfa -72 + ^ x28: .cfa -80 + ^ .ra: .cfa -88 + ^ x29: .cfa -96 + ^
STACK CFI 54228 .cfa: sp 256 +
STACK CFI 54244 .cfa: sp 0 +
STACK CFI 54248 .cfa: x29 96 +
STACK CFI INIT 5432c 528 .cfa: sp 0 +
STACK CFI 54330 .cfa: sp 176 +
STACK CFI 54344 .cfa: x29 64 + x19: .cfa -8 + ^ x20: .cfa -16 + ^ x21: .cfa -24 + ^ x22: .cfa -32 + ^ x23: .cfa -40 + ^ x24: .cfa -48 + ^ .ra: .cfa -56 + ^ x29: .cfa -64 + ^
STACK CFI 54704 .cfa: sp 176 +
STACK CFI 54718 .cfa: sp 0 +
STACK CFI 5471c .cfa: x29 64 +
STACK CFI INIT 54854 1c4 .cfa: sp 0 +
STACK CFI 54858 .cfa: sp 128 +
STACK CFI 54868 .cfa: x29 48 + x19: .cfa -8 + ^ x20: .cfa -16 + ^ x21: .cfa -32 + ^ .ra: .cfa -40 + ^ x29: .cfa -48 + ^
STACK CFI 549d0 .cfa: sp 128 +
STACK CFI 549e0 .cfa: sp 0 +
STACK CFI 549e4 .cfa: x29 48 +
STACK CFI INIT 54a1c 1bc .cfa: sp 0 +
STACK CFI 54a20 .cfa: sp 176 +
STACK CFI 54a34 .cfa: x29 64 + x19: .cfa -8 + ^ x20: .cfa -16 + ^ x21: .cfa -24 + ^ x22: .cfa -32 + ^ x23: .cfa -40 + ^ x24: .cfa -48 + ^ .ra: .cfa -56 + ^ x29: .cfa -64 + ^
STACK CFI 54adc .cfa: sp 176 +
STACK CFI 54af0 .cfa: sp 0 +
STACK CFI 54af4 .cfa: x29 64 +
STACK CFI INIT 54bd8 134 .cfa: sp 0 +
STACK CFI 54bdc .cfa: sp 128 +
STACK CFI 54bf0 .cfa: x29 64 + x19: .cfa -8 + ^ x20: .cfa -16 + ^ x21: .cfa -24 + ^ x22: .cfa -32 + ^ x23: .cfa -40 + ^ x24: .cfa -48 + ^ .ra: .cfa -56 + ^ x29: .cfa -64 + ^
STACK CFI 54cbc .cfa: sp 128 +
STACK CFI 54cd0 .cfa: sp 0 +
STACK CFI 54cd4 .cfa: x29 64 +
STACK CFI INIT 54d34 180 .cfa: sp 0 +
STACK CFI 54d38 .cfa: sp 160 +
STACK CFI 54d50 .cfa: x29 80 + x19: .cfa -8 + ^ x20: .cfa -16 + ^ x21: .cfa -24 + ^ x22: .cfa -32 + ^ x23: .cfa -40 + ^ x24: .cfa -48 + ^ x25: .cfa -64 + ^ .ra: .cfa -72 + ^ x29: .cfa -80 + ^
STACK CFI 54e4c .cfa: sp 160 +
STACK CFI 54e64 .cfa: sp 0 +
STACK CFI 54e68 .cfa: x29 80 +
STACK CFI INIT 54eb8 118 .cfa: sp 0 +
STACK CFI 54ebc .cfa: sp 48 +
STACK CFI 54ec8 .cfa: x29 48 + x19: .cfa -8 + ^ x20: .cfa -16 + ^ x21: .cfa -24 + ^ x22: .cfa -32 + ^ .ra: .cfa -40 + ^ x29: .cfa -48 + ^
STACK CFI 54f14 .cfa: sp 48 +
STACK CFI 54f20 .cfa: sp 0 +
STACK CFI 54f24 .cfa: x29 48 +
STACK CFI 54f28 .cfa: sp 48 +
STACK CFI 54f34 .cfa: sp 0 +
STACK CFI 54f38 .cfa: x29 48 +
STACK CFI INIT 54fd0 130 .cfa: sp 0 +
STACK CFI 54fd4 .cfa: sp 96 +
STACK CFI 54fe8 .cfa: x29 64 + x19: .cfa -8 + ^ x20: .cfa -16 + ^ x21: .cfa -24 + ^ x22: .cfa -32 + ^ x23: .cfa -40 + ^ x24: .cfa -48 + ^ .ra: .cfa -56 + ^ x29: .cfa -64 + ^
STACK CFI 55098 .cfa: sp 96 +
STACK CFI 550ac .cfa: sp 0 +
STACK CFI 550b0 .cfa: x29 64 +
STACK CFI INIT 55100 118 .cfa: sp 0 +
STACK CFI 55104 .cfa: sp 48 +
STACK CFI 55110 .cfa: x29 48 + x19: .cfa -8 + ^ x20: .cfa -16 + ^ x21: .cfa -24 + ^ x22: .cfa -32 + ^ .ra: .cfa -40 + ^ x29: .cfa -48 + ^
STACK CFI 5515c .cfa: sp 48 +
STACK CFI 55168 .cfa: sp 0 +
STACK CFI 5516c .cfa: x29 48 +
STACK CFI 55170 .cfa: sp 48 +
STACK CFI 5517c .cfa: sp 0 +
STACK CFI 55180 .cfa: x29 48 +
STACK CFI INIT 55218 898 .cfa: sp 0 +
STACK CFI 5521c .cfa: sp 160 +
STACK CFI 55238 .cfa: x29 96 + x19: .cfa -8 + ^ x20: .cfa -16 + ^ x21: .cfa -24 + ^ x22: .cfa -32 + ^ x23: .cfa -40 + ^ x24: .cfa -48 + ^ x25: .cfa -56 + ^ x26: .cfa -64 + ^ x27: .cfa -72 + ^ x28: .cfa -80 + ^ .ra: .cfa -88 + ^ x29: .cfa -96 + ^
STACK CFI 55934 .cfa: sp 160 +
STACK CFI 55950 .cfa: sp 0 +
STACK CFI 55954 .cfa: x29 96 +
STACK CFI INIT 55ab0 bc .cfa: sp 0 +
STACK CFI 55ab4 .cfa: sp 80 +
STACK CFI 55ac0 .cfa: x29 32 + x19: .cfa -8 + ^ x20: .cfa -16 + ^ .ra: .cfa -24 + ^ x29: .cfa -32 + ^
STACK CFI 55b2c .cfa: sp 80 +
STACK CFI 55b38 .cfa: sp 0 +
STACK CFI 55b3c .cfa: x29 32 +
STACK CFI INIT 55b6c 7c0 .cfa: sp 0 +
STACK CFI 55b70 .cfa: sp 144 +
STACK CFI 55b8c .cfa: x29 96 + x19: .cfa -8 + ^ x20: .cfa -16 + ^ x21: .cfa -24 + ^ x22: .cfa -32 + ^ x23: .cfa -40 + ^ x24: .cfa -48 + ^ x25: .cfa -56 + ^ x26: .cfa -64 + ^ x27: .cfa -80 + ^ .ra: .cfa -88 + ^ x29: .cfa -96 + ^
STACK CFI 562ac .cfa: sp 144 +
STACK CFI 562c8 .cfa: sp 0 +
STACK CFI 562cc .cfa: x29 96 +
STACK CFI INIT 563b0 1d8 .cfa: sp 0 +
STACK CFI 563b4 .cfa: sp 128 +
STACK CFI 563c4 .cfa: x29 48 + x19: .cfa -8 + ^ x20: .cfa -16 + ^ x21: .cfa -32 + ^ .ra: .cfa -40 + ^ x29: .cfa -48 + ^
STACK CFI 56520 .cfa: sp 128 +
STACK CFI 56530 .cfa: sp 0 +
STACK CFI 56534 .cfa: x29 48 +
STACK CFI INIT 565cc 498 .cfa: sp 0 +
STACK CFI 565d0 .cfa: sp 256 +
STACK CFI 565ec .cfa: x29 96 + x19: .cfa -8 + ^ x20: .cfa -16 + ^ x21: .cfa -24 + ^ x22: .cfa -32 + ^ x23: .cfa -40 + ^ x24: .cfa -48 + ^ x25: .cfa -56 + ^ x26: .cfa -64 + ^ x27: .cfa -72 + ^ x28: .cfa -80 + ^ .ra: .cfa -88 + ^ x29: .cfa -96 + ^
STACK CFI 56960 .cfa: sp 256 +
STACK CFI 5697c .cfa: sp 0 +
STACK CFI 56980 .cfa: x29 96 +
STACK CFI INIT 56a64 2c8 .cfa: sp 0 +
STACK CFI 56a68 .cfa: sp 144 +
STACK CFI 56a7c .cfa: x29 64 + x19: .cfa -8 + ^ x20: .cfa -16 + ^ x21: .cfa -24 + ^ x22: .cfa -32 + ^ x23: .cfa -48 + ^ .ra: .cfa -56 + ^ x29: .cfa -64 + ^
STACK CFI 56c4c .cfa: sp 144 +
STACK CFI 56c60 .cfa: sp 0 +
STACK CFI 56c64 .cfa: x29 64 +
STACK CFI INIT 56d2c 108 .cfa: sp 0 +
STACK CFI 56d30 .cfa: sp 112 +
STACK CFI 56d3c .cfa: x29 32 + x19: .cfa -8 + ^ x20: .cfa -16 + ^ .ra: .cfa -24 + ^ x29: .cfa -32 + ^
STACK CFI 56df4 .cfa: sp 112 +
STACK CFI 56e00 .cfa: sp 0 +
STACK CFI 56e04 .cfa: x29 32 +
STACK CFI INIT 56e38 1bc .cfa: sp 0 +
STACK CFI 56e3c .cfa: sp 176 +
STACK CFI 56e50 .cfa: x29 64 + x19: .cfa -8 + ^ x20: .cfa -16 + ^ x21: .cfa -24 + ^ x22: .cfa -32 + ^ x23: .cfa -40 + ^ x24: .cfa -48 + ^ .ra: .cfa -56 + ^ x29: .cfa -64 + ^
STACK CFI 56ef8 .cfa: sp 176 +
STACK CFI 56f0c .cfa: sp 0 +
STACK CFI 56f10 .cfa: x29 64 +
STACK CFI INIT 56ff4 118 .cfa: sp 0 +
STACK CFI 56ff8 .cfa: sp 144 +
STACK CFI 57010 .cfa: x29 80 + x19: .cfa -8 + ^ x20: .cfa -16 + ^ x21: .cfa -24 + ^ x22: .cfa -32 + ^ x23: .cfa -40 + ^ x24: .cfa -48 + ^ x25: .cfa -64 + ^ .ra: .cfa -72 + ^ x29: .cfa -80 + ^
STACK CFI 570b8 .cfa: sp 144 +
STACK CFI 570d0 .cfa: sp 0 +
STACK CFI 570d4 .cfa: x29 80 +
STACK CFI INIT 5710c 12c .cfa: sp 0 +
STACK CFI 57110 .cfa: sp 128 +
STACK CFI 57130 .cfa: x29 72 + x19: .cfa -8 + ^ x20: .cfa -16 + ^ x21: .cfa -24 + ^ x22: .cfa -32 + ^ x23: .cfa -40 + ^ x24: .cfa -48 + ^ x25: .cfa -56 + ^ .ra: .cfa -64 + ^ x29: .cfa -72 + ^ v8: .cfa -80 + ^ v9: .cfa -88 + ^ v10: .cfa -96 + ^
STACK CFI 571dc .cfa: sp 128 +
STACK CFI 571fc .cfa: sp 0 +
STACK CFI 57200 .cfa: x29 72 +
STACK CFI INIT 57238 8f4 .cfa: sp 0 +
STACK CFI 5723c .cfa: sp 112 +
STACK CFI 57254 .cfa: x29 80 + x19: .cfa -8 + ^ x20: .cfa -16 + ^ x21: .cfa -24 + ^ x22: .cfa -32 + ^ x23: .cfa -40 + ^ x24: .cfa -48 + ^ x25: .cfa -56 + ^ x26: .cfa -64 + ^ .ra: .cfa -72 + ^ x29: .cfa -80 + ^
STACK CFI 57974 .cfa: sp 112 +
STACK CFI 5798c .cfa: sp 0 +
STACK CFI 57990 .cfa: x29 80 +
STACK CFI 57a68 .cfa: sp 112 +
STACK CFI 57a80 .cfa: sp 0 +
STACK CFI 57a84 .cfa: x29 80 +
STACK CFI INIT 57b2c 13c .cfa: sp 0 +
STACK CFI 57b30 .cfa: sp 96 +
STACK CFI 57b44 .cfa: x29 64 + x19: .cfa -8 + ^ x20: .cfa -16 + ^ x21: .cfa -24 + ^ x22: .cfa -32 + ^ x23: .cfa -48 + ^ .ra: .cfa -56 + ^ x29: .cfa -64 + ^
STACK CFI 57c00 .cfa: sp 96 +
STACK CFI 57c14 .cfa: sp 0 +
STACK CFI 57c18 .cfa: x29 64 +
STACK CFI INIT 57c68 c0 .cfa: sp 0 +
STACK CFI 57c6c .cfa: sp 80 +
STACK CFI 57c78 .cfa: x29 32 + x19: .cfa -8 + ^ x20: .cfa -16 + ^ .ra: .cfa -24 + ^ x29: .cfa -32 + ^
STACK CFI 57ce8 .cfa: sp 80 +
STACK CFI 57cf4 .cfa: sp 0 +
STACK CFI 57cf8 .cfa: x29 32 +
STACK CFI INIT 57dac 244 .cfa: sp 0 +
STACK CFI 57db0 .cfa: sp 144 +
STACK CFI 57dc0 .cfa: x29 48 + x19: .cfa -8 + ^ x20: .cfa -16 + ^ x21: .cfa -32 + ^ .ra: .cfa -40 + ^ x29: .cfa -48 + ^
STACK CFI 57f88 .cfa: sp 144 +
STACK CFI 57f98 .cfa: sp 0 +
STACK CFI 57f9c .cfa: x29 48 +
STACK CFI INIT 58034 498 .cfa: sp 0 +
STACK CFI 58038 .cfa: sp 256 +
STACK CFI 58054 .cfa: x29 96 + x19: .cfa -8 + ^ x20: .cfa -16 + ^ x21: .cfa -24 + ^ x22: .cfa -32 + ^ x23: .cfa -40 + ^ x24: .cfa -48 + ^ x25: .cfa -56 + ^ x26: .cfa -64 + ^ x27: .cfa -72 + ^ x28: .cfa -80 + ^ .ra: .cfa -88 + ^ x29: .cfa -96 + ^
STACK CFI 583c8 .cfa: sp 256 +
STACK CFI 583e4 .cfa: sp 0 +
STACK CFI 583e8 .cfa: x29 96 +
STACK CFI INIT 584cc 2e4 .cfa: sp 0 +
STACK CFI 584d0 .cfa: sp 176 +
STACK CFI 584e4 .cfa: x29 64 + x19: .cfa -8 + ^ x20: .cfa -16 + ^ x21: .cfa -24 + ^ x22: .cfa -32 + ^ x23: .cfa -48 + ^ .ra: .cfa -56 + ^ x29: .cfa -64 + ^
STACK CFI 586d8 .cfa: sp 176 +
STACK CFI 586ec .cfa: sp 0 +
STACK CFI 586f0 .cfa: x29 64 +
STACK CFI INIT 587b0 120 .cfa: sp 0 +
STACK CFI 587b4 .cfa: sp 112 +
STACK CFI 587c0 .cfa: x29 32 + x19: .cfa -8 + ^ x20: .cfa -16 + ^ .ra: .cfa -24 + ^ x29: .cfa -32 + ^
STACK CFI 58890 .cfa: sp 112 +
STACK CFI 5889c .cfa: sp 0 +
STACK CFI 588a0 .cfa: x29 32 +
STACK CFI INIT 588d4 1bc .cfa: sp 0 +
STACK CFI 588d8 .cfa: sp 176 +
STACK CFI 588ec .cfa: x29 64 + x19: .cfa -8 + ^ x20: .cfa -16 + ^ x21: .cfa -24 + ^ x22: .cfa -32 + ^ x23: .cfa -40 + ^ x24: .cfa -48 + ^ .ra: .cfa -56 + ^ x29: .cfa -64 + ^
STACK CFI 58994 .cfa: sp 176 +
STACK CFI 589a8 .cfa: sp 0 +
STACK CFI 589ac .cfa: x29 64 +
STACK CFI INIT 58a90 118 .cfa: sp 0 +
STACK CFI 58a94 .cfa: sp 144 +
STACK CFI 58aac .cfa: x29 80 + x19: .cfa -8 + ^ x20: .cfa -16 + ^ x21: .cfa -24 + ^ x22: .cfa -32 + ^ x23: .cfa -40 + ^ x24: .cfa -48 + ^ x25: .cfa -64 + ^ .ra: .cfa -72 + ^ x29: .cfa -80 + ^
STACK CFI 58b54 .cfa: sp 144 +
STACK CFI 58b6c .cfa: sp 0 +
STACK CFI 58b70 .cfa: x29 80 +
STACK CFI INIT 58be0 480 .cfa: sp 0 +
STACK CFI 58be4 .cfa: sp 96 +
STACK CFI 58bfc .cfa: x29 80 + x19: .cfa -8 + ^ x20: .cfa -16 + ^ x21: .cfa -24 + ^ x22: .cfa -32 + ^ x23: .cfa -40 + ^ x24: .cfa -48 + ^ x25: .cfa -64 + ^ .ra: .cfa -72 + ^ x29: .cfa -80 + ^
STACK CFI 58ef4 .cfa: sp 96 +
STACK CFI 58f0c .cfa: sp 0 +
STACK CFI 58f10 .cfa: x29 80 +
STACK CFI 58fdc .cfa: sp 96 +
STACK CFI 58ff4 .cfa: sp 0 +
STACK CFI 58ff8 .cfa: x29 80 +
STACK CFI INIT 59060 134 .cfa: sp 0 +
STACK CFI 59064 .cfa: sp 96 +
STACK CFI 59074 .cfa: x29 48 + x19: .cfa -8 + ^ x20: .cfa -16 + ^ x21: .cfa -24 + ^ x22: .cfa -32 + ^ .ra: .cfa -40 + ^ x29: .cfa -48 + ^
STACK CFI 59130 .cfa: sp 96 +
STACK CFI 59140 .cfa: sp 0 +
STACK CFI 59144 .cfa: x29 48 +
STACK CFI INIT 59194 bc .cfa: sp 0 +
STACK CFI 59198 .cfa: sp 80 +
STACK CFI 591a4 .cfa: x29 32 + x19: .cfa -8 + ^ x20: .cfa -16 + ^ .ra: .cfa -24 + ^ x29: .cfa -32 + ^
STACK CFI 59210 .cfa: sp 80 +
STACK CFI 5921c .cfa: sp 0 +
STACK CFI 59220 .cfa: x29 32 +
STACK CFI INIT 59250 a6c .cfa: sp 0 +
STACK CFI 59254 .cfa: sp 240 +
STACK CFI 59274 .cfa: x29 88 + x19: .cfa -8 + ^ x20: .cfa -16 + ^ x21: .cfa -24 + ^ x22: .cfa -32 + ^ x23: .cfa -40 + ^ x24: .cfa -48 + ^ x25: .cfa -56 + ^ x26: .cfa -64 + ^ x27: .cfa -72 + ^ .ra: .cfa -80 + ^ x29: .cfa -88 + ^ v8: .cfa -96 + ^
STACK CFI 59c30 .cfa: sp 240 +
STACK CFI 59c50 .cfa: sp 0 +
STACK CFI 59c54 .cfa: x29 88 +
STACK CFI INIT 59e00 240 .cfa: sp 0 +
STACK CFI 59e04 .cfa: sp 144 +
STACK CFI 59e20 .cfa: x29 96 + x19: .cfa -8 + ^ x20: .cfa -16 + ^ x21: .cfa -24 + ^ x22: .cfa -32 + ^ x23: .cfa -40 + ^ x24: .cfa -48 + ^ x25: .cfa -56 + ^ x26: .cfa -64 + ^ x27: .cfa -72 + ^ x28: .cfa -80 + ^ .ra: .cfa -88 + ^ x29: .cfa -96 + ^
STACK CFI 59fd8 .cfa: sp 144 +
STACK CFI 59ff4 .cfa: sp 0 +
STACK CFI 59ff8 .cfa: x29 96 +
STACK CFI INIT 5a0c4 1d4 .cfa: sp 0 +
STACK CFI 5a0c8 .cfa: sp 128 +
STACK CFI 5a0d8 .cfa: x29 48 + x19: .cfa -8 + ^ x20: .cfa -16 + ^ x21: .cfa -24 + ^ x22: .cfa -32 + ^ .ra: .cfa -40 + ^ x29: .cfa -48 + ^
STACK CFI 5a230 .cfa: sp 128 +
STACK CFI 5a240 .cfa: sp 0 +
STACK CFI 5a244 .cfa: x29 48 +
STACK CFI INIT 5a2dc 498 .cfa: sp 0 +
STACK CFI 5a2e0 .cfa: sp 256 +
STACK CFI 5a2fc .cfa: x29 96 + x19: .cfa -8 + ^ x20: .cfa -16 + ^ x21: .cfa -24 + ^ x22: .cfa -32 + ^ x23: .cfa -40 + ^ x24: .cfa -48 + ^ x25: .cfa -56 + ^ x26: .cfa -64 + ^ x27: .cfa -72 + ^ x28: .cfa -80 + ^ .ra: .cfa -88 + ^ x29: .cfa -96 + ^
STACK CFI 5a670 .cfa: sp 256 +
STACK CFI 5a68c .cfa: sp 0 +
STACK CFI 5a690 .cfa: x29 96 +
STACK CFI INIT 5a774 504 .cfa: sp 0 +
STACK CFI 5a778 .cfa: sp 160 +
STACK CFI 5a78c .cfa: x29 64 + x19: .cfa -8 + ^ x20: .cfa -16 + ^ x21: .cfa -24 + ^ x22: .cfa -32 + ^ x23: .cfa -40 + ^ x24: .cfa -48 + ^ .ra: .cfa -56 + ^ x29: .cfa -64 + ^
STACK CFI 5ab30 .cfa: sp 160 +
STACK CFI 5ab44 .cfa: sp 0 +
STACK CFI 5ab48 .cfa: x29 64 +
STACK CFI INIT 5ac78 10c .cfa: sp 0 +
STACK CFI 5ac7c .cfa: sp 112 +
STACK CFI 5ac88 .cfa: x29 32 + x19: .cfa -8 + ^ x20: .cfa -16 + ^ .ra: .cfa -24 + ^ x29: .cfa -32 + ^
STACK CFI 5ad44 .cfa: sp 112 +
STACK CFI 5ad50 .cfa: sp 0 +
STACK CFI 5ad54 .cfa: x29 32 +
STACK CFI INIT 5ad88 1bc .cfa: sp 0 +
STACK CFI 5ad8c .cfa: sp 176 +
STACK CFI 5ada0 .cfa: x29 64 + x19: .cfa -8 + ^ x20: .cfa -16 + ^ x21: .cfa -24 + ^ x22: .cfa -32 + ^ x23: .cfa -40 + ^ x24: .cfa -48 + ^ .ra: .cfa -56 + ^ x29: .cfa -64 + ^
STACK CFI 5ae48 .cfa: sp 176 +
STACK CFI 5ae5c .cfa: sp 0 +
STACK CFI 5ae60 .cfa: x29 64 +
STACK CFI INIT 5af44 118 .cfa: sp 0 +
STACK CFI 5af48 .cfa: sp 144 +
STACK CFI 5af60 .cfa: x29 80 + x19: .cfa -8 + ^ x20: .cfa -16 + ^ x21: .cfa -24 + ^ x22: .cfa -32 + ^ x23: .cfa -40 + ^ x24: .cfa -48 + ^ x25: .cfa -64 + ^ .ra: .cfa -72 + ^ x29: .cfa -80 + ^
STACK CFI 5b008 .cfa: sp 144 +
STACK CFI 5b020 .cfa: sp 0 +
STACK CFI 5b024 .cfa: x29 80 +
STACK CFI INIT 5b05c cc .cfa: sp 0 +
STACK CFI 5b060 .cfa: sp 64 +
STACK CFI 5b06c .cfa: x29 32 + x19: .cfa -8 + ^ x20: .cfa -16 + ^ .ra: .cfa -24 + ^ x29: .cfa -32 + ^
STACK CFI 5b0e8 .cfa: sp 64 +
STACK CFI 5b0f4 .cfa: sp 0 +
STACK CFI 5b0f8 .cfa: x29 32 +
STACK CFI INIT 5b128 134 .cfa: sp 0 +
STACK CFI 5b12c .cfa: sp 128 +
STACK CFI 5b140 .cfa: x29 64 + x19: .cfa -8 + ^ x20: .cfa -16 + ^ x21: .cfa -24 + ^ x22: .cfa -32 + ^ x23: .cfa -40 + ^ x24: .cfa -48 + ^ .ra: .cfa -56 + ^ x29: .cfa -64 + ^
STACK CFI 5b20c .cfa: sp 128 +
STACK CFI 5b220 .cfa: sp 0 +
STACK CFI 5b224 .cfa: x29 64 +
STACK CFI INIT 5b294 1a0 .cfa: sp 0 +
STACK CFI 5b298 .cfa: sp 80 +
STACK CFI 5b2ac .cfa: x29 64 + x19: .cfa -8 + ^ x20: .cfa -16 + ^ x21: .cfa -24 + ^ x22: .cfa -32 + ^ x23: .cfa -40 + ^ x24: .cfa -48 + ^ .ra: .cfa -56 + ^ x29: .cfa -64 + ^
STACK CFI 5b3c0 .cfa: sp 80 +
STACK CFI 5b3d4 .cfa: sp 0 +
STACK CFI 5b3d8 .cfa: x29 64 +
STACK CFI 5b3e4 .cfa: sp 80 +
STACK CFI 5b3f8 .cfa: sp 0 +
STACK CFI 5b3fc .cfa: x29 64 +
STACK CFI INIT 5b434 174 .cfa: sp 0 +
STACK CFI 5b438 .cfa: sp 48 +
STACK CFI 5b444 .cfa: x29 48 + x19: .cfa -8 + ^ x20: .cfa -16 + ^ x21: .cfa -24 + ^ x22: .cfa -32 + ^ .ra: .cfa -40 + ^ x29: .cfa -48 + ^
STACK CFI 5b490 .cfa: sp 48 +
STACK CFI 5b49c .cfa: sp 0 +
STACK CFI 5b4a0 .cfa: x29 48 +
STACK CFI 5b4a4 .cfa: sp 48 +
STACK CFI 5b4b0 .cfa: sp 0 +
STACK CFI 5b4b4 .cfa: x29 48 +
STACK CFI INIT 5b5a8 130 .cfa: sp 0 +
STACK CFI 5b5ac .cfa: sp 96 +
STACK CFI 5b5c0 .cfa: x29 64 + x19: .cfa -8 + ^ x20: .cfa -16 + ^ x21: .cfa -24 + ^ x22: .cfa -32 + ^ x23: .cfa -40 + ^ x24: .cfa -48 + ^ .ra: .cfa -56 + ^ x29: .cfa -64 + ^
STACK CFI 5b670 .cfa: sp 96 +
STACK CFI 5b684 .cfa: sp 0 +
STACK CFI 5b688 .cfa: x29 64 +
STACK CFI INIT 5b6d8 bc .cfa: sp 0 +
STACK CFI 5b6dc .cfa: sp 80 +
STACK CFI 5b6e8 .cfa: x29 32 + x19: .cfa -8 + ^ x20: .cfa -16 + ^ .ra: .cfa -24 + ^ x29: .cfa -32 + ^
STACK CFI 5b754 .cfa: sp 80 +
STACK CFI 5b760 .cfa: sp 0 +
STACK CFI 5b764 .cfa: x29 32 +
STACK CFI INIT 5b794 490 .cfa: sp 0 +
STACK CFI 5b798 .cfa: sp 208 +
STACK CFI 5b7b4 .cfa: x29 96 + x19: .cfa -8 + ^ x20: .cfa -16 + ^ x21: .cfa -24 + ^ x22: .cfa -32 + ^ x23: .cfa -40 + ^ x24: .cfa -48 + ^ x25: .cfa -56 + ^ x26: .cfa -64 + ^ x27: .cfa -72 + ^ x28: .cfa -80 + ^ .ra: .cfa -88 + ^ x29: .cfa -96 + ^
STACK CFI 5bba8 .cfa: sp 208 +
STACK CFI 5bbc4 .cfa: sp 0 +
STACK CFI 5bbc8 .cfa: x29 96 +
STACK CFI INIT 5bca8 1e0 .cfa: sp 0 +
STACK CFI 5bcac .cfa: sp 128 +
STACK CFI 5bcbc .cfa: x29 48 + x19: .cfa -8 + ^ x20: .cfa -16 + ^ x21: .cfa -32 + ^ .ra: .cfa -40 + ^ x29: .cfa -48 + ^
STACK CFI 5be20 .cfa: sp 128 +
STACK CFI 5be30 .cfa: sp 0 +
STACK CFI 5be34 .cfa: x29 48 +
STACK CFI INIT 5becc 498 .cfa: sp 0 +
STACK CFI 5bed0 .cfa: sp 256 +
STACK CFI 5beec .cfa: x29 96 + x19: .cfa -8 + ^ x20: .cfa -16 + ^ x21: .cfa -24 + ^ x22: .cfa -32 + ^ x23: .cfa -40 + ^ x24: .cfa -48 + ^ x25: .cfa -56 + ^ x26: .cfa -64 + ^ x27: .cfa -72 + ^ x28: .cfa -80 + ^ .ra: .cfa -88 + ^ x29: .cfa -96 + ^
STACK CFI 5c260 .cfa: sp 256 +
STACK CFI 5c27c .cfa: sp 0 +
STACK CFI 5c280 .cfa: x29 96 +
STACK CFI INIT 5c364 2e4 .cfa: sp 0 +
STACK CFI 5c368 .cfa: sp 176 +
STACK CFI 5c37c .cfa: x29 64 + x19: .cfa -8 + ^ x20: .cfa -16 + ^ x21: .cfa -24 + ^ x22: .cfa -32 + ^ x23: .cfa -48 + ^ .ra: .cfa -56 + ^ x29: .cfa -64 + ^
STACK CFI 5c570 .cfa: sp 176 +
STACK CFI 5c584 .cfa: sp 0 +
STACK CFI 5c588 .cfa: x29 64 +
STACK CFI INIT 5c648 120 .cfa: sp 0 +
STACK CFI 5c64c .cfa: sp 112 +
STACK CFI 5c658 .cfa: x29 32 + x19: .cfa -8 + ^ x20: .cfa -16 + ^ .ra: .cfa -24 + ^ x29: .cfa -32 + ^
STACK CFI 5c728 .cfa: sp 112 +
STACK CFI 5c734 .cfa: sp 0 +
STACK CFI 5c738 .cfa: x29 32 +
STACK CFI INIT 5c76c 1bc .cfa: sp 0 +
STACK CFI 5c770 .cfa: sp 176 +
STACK CFI 5c784 .cfa: x29 64 + x19: .cfa -8 + ^ x20: .cfa -16 + ^ x21: .cfa -24 + ^ x22: .cfa -32 + ^ x23: .cfa -40 + ^ x24: .cfa -48 + ^ .ra: .cfa -56 + ^ x29: .cfa -64 + ^
STACK CFI 5c82c .cfa: sp 176 +
STACK CFI 5c840 .cfa: sp 0 +
STACK CFI 5c844 .cfa: x29 64 +
STACK CFI INIT 5c928 180 .cfa: sp 0 +
STACK CFI 5c92c .cfa: sp 160 +
STACK CFI 5c944 .cfa: x29 80 + x19: .cfa -8 + ^ x20: .cfa -16 + ^ x21: .cfa -24 + ^ x22: .cfa -32 + ^ x23: .cfa -40 + ^ x24: .cfa -48 + ^ x25: .cfa -64 + ^ .ra: .cfa -72 + ^ x29: .cfa -80 + ^
STACK CFI 5ca40 .cfa: sp 160 +
STACK CFI 5ca58 .cfa: sp 0 +
STACK CFI 5ca5c .cfa: x29 80 +
STACK CFI INIT 5cad0 13c .cfa: sp 0 +
STACK CFI 5cad4 .cfa: sp 96 +
STACK CFI 5cae8 .cfa: x29 64 + x19: .cfa -8 + ^ x20: .cfa -16 + ^ x21: .cfa -24 + ^ x22: .cfa -32 + ^ x23: .cfa -48 + ^ .ra: .cfa -56 + ^ x29: .cfa -64 + ^
STACK CFI 5cba4 .cfa: sp 96 +
STACK CFI 5cbb8 .cfa: sp 0 +
STACK CFI 5cbbc .cfa: x29 64 +
STACK CFI INIT 5cc0c c0 .cfa: sp 0 +
STACK CFI 5cc10 .cfa: sp 80 +
STACK CFI 5cc1c .cfa: x29 32 + x19: .cfa -8 + ^ x20: .cfa -16 + ^ .ra: .cfa -24 + ^ x29: .cfa -32 + ^
STACK CFI 5cc8c .cfa: sp 80 +
STACK CFI 5cc98 .cfa: sp 0 +
STACK CFI 5cc9c .cfa: x29 32 +
STACK CFI INIT 5cd50 498 .cfa: sp 0 +
STACK CFI 5cd54 .cfa: sp 256 +
STACK CFI 5cd70 .cfa: x29 96 + x19: .cfa -8 + ^ x20: .cfa -16 + ^ x21: .cfa -24 + ^ x22: .cfa -32 + ^ x23: .cfa -40 + ^ x24: .cfa -48 + ^ x25: .cfa -56 + ^ x26: .cfa -64 + ^ x27: .cfa -72 + ^ x28: .cfa -80 + ^ .ra: .cfa -88 + ^ x29: .cfa -96 + ^
STACK CFI 5d0e4 .cfa: sp 256 +
STACK CFI 5d100 .cfa: sp 0 +
STACK CFI 5d104 .cfa: x29 96 +
STACK CFI INIT 5d1e8 530 .cfa: sp 0 +
STACK CFI 5d1ec .cfa: sp 176 +
STACK CFI 5d200 .cfa: x29 64 + x19: .cfa -8 + ^ x20: .cfa -16 + ^ x21: .cfa -24 + ^ x22: .cfa -32 + ^ x23: .cfa -40 + ^ x24: .cfa -48 + ^ .ra: .cfa -56 + ^ x29: .cfa -64 + ^
STACK CFI 5d5c8 .cfa: sp 176 +
STACK CFI 5d5dc .cfa: sp 0 +
STACK CFI 5d5e0 .cfa: x29 64 +
STACK CFI INIT 5d718 1c4 .cfa: sp 0 +
STACK CFI 5d71c .cfa: sp 128 +
STACK CFI 5d72c .cfa: x29 48 + x19: .cfa -8 + ^ x20: .cfa -16 + ^ x21: .cfa -32 + ^ .ra: .cfa -40 + ^ x29: .cfa -48 + ^
STACK CFI 5d894 .cfa: sp 128 +
STACK CFI 5d8a4 .cfa: sp 0 +
STACK CFI 5d8a8 .cfa: x29 48 +
STACK CFI INIT 5d8e0 1bc .cfa: sp 0 +
STACK CFI 5d8e4 .cfa: sp 176 +
STACK CFI 5d8f8 .cfa: x29 64 + x19: .cfa -8 + ^ x20: .cfa -16 + ^ x21: .cfa -24 + ^ x22: .cfa -32 + ^ x23: .cfa -40 + ^ x24: .cfa -48 + ^ .ra: .cfa -56 + ^ x29: .cfa -64 + ^
STACK CFI 5d9a0 .cfa: sp 176 +
STACK CFI 5d9b4 .cfa: sp 0 +
STACK CFI 5d9b8 .cfa: x29 64 +
STACK CFI INIT 5da9c 180 .cfa: sp 0 +
STACK CFI 5daa0 .cfa: sp 160 +
STACK CFI 5dab8 .cfa: x29 80 + x19: .cfa -8 + ^ x20: .cfa -16 + ^ x21: .cfa -24 + ^ x22: .cfa -32 + ^ x23: .cfa -40 + ^ x24: .cfa -48 + ^ x25: .cfa -64 + ^ .ra: .cfa -72 + ^ x29: .cfa -80 + ^
STACK CFI 5dbb4 .cfa: sp 160 +
STACK CFI 5dbcc .cfa: sp 0 +
STACK CFI 5dbd0 .cfa: x29 80 +
STACK CFI INIT 5dc20 134 .cfa: sp 0 +
STACK CFI 5dc24 .cfa: sp 128 +
STACK CFI 5dc38 .cfa: x29 64 + x19: .cfa -8 + ^ x20: .cfa -16 + ^ x21: .cfa -24 + ^ x22: .cfa -32 + ^ x23: .cfa -40 + ^ x24: .cfa -48 + ^ .ra: .cfa -56 + ^ x29: .cfa -64 + ^
STACK CFI 5dd04 .cfa: sp 128 +
STACK CFI 5dd18 .cfa: sp 0 +
STACK CFI 5dd1c .cfa: x29 64 +
STACK CFI INIT 5dd58 ec .cfa: sp 0 +
STACK CFI 5dd5c .cfa: sp 80 +
STACK CFI 5dd6c .cfa: x29 48 + x19: .cfa -8 + ^ x20: .cfa -16 + ^ x21: .cfa -32 + ^ .ra: .cfa -40 + ^ x29: .cfa -48 + ^
STACK CFI 5de00 .cfa: sp 80 +
STACK CFI 5de10 .cfa: sp 0 +
STACK CFI 5de14 .cfa: x29 48 +
STACK CFI INIT 5de44 1e4 .cfa: sp 0 +
STACK CFI 5de48 .cfa: sp 80 +
STACK CFI 5de58 .cfa: x29 48 + x19: .cfa -8 + ^ x20: .cfa -16 + ^ x21: .cfa -32 + ^ .ra: .cfa -40 + ^ x29: .cfa -48 + ^
STACK CFI 5dfdc .cfa: sp 80 +
STACK CFI 5dfec .cfa: sp 0 +
STACK CFI 5dff0 .cfa: x29 48 +
STACK CFI INIT 5e028 2780 .cfa: sp 0 +
STACK CFI 5e02c .cfa: sp 224 +
STACK CFI 5e048 .cfa: x29 96 + x19: .cfa -8 + ^ x20: .cfa -16 + ^ x21: .cfa -24 + ^ x22: .cfa -32 + ^ x23: .cfa -40 + ^ x24: .cfa -48 + ^ x25: .cfa -56 + ^ x26: .cfa -64 + ^ x27: .cfa -72 + ^ x28: .cfa -80 + ^ .ra: .cfa -88 + ^ x29: .cfa -96 + ^
STACK CFI 60618 .cfa: sp 224 +
STACK CFI 60634 .cfa: sp 0 +
STACK CFI 60638 .cfa: x29 96 +
STACK CFI INIT 60ad0 1c4 .cfa: sp 0 +
STACK CFI 60ad4 .cfa: sp 128 +
STACK CFI 60ae4 .cfa: x29 48 + x19: .cfa -8 + ^ x20: .cfa -16 + ^ x21: .cfa -32 + ^ .ra: .cfa -40 + ^ x29: .cfa -48 + ^
STACK CFI 60c2c .cfa: sp 128 +
STACK CFI 60c3c .cfa: sp 0 +
STACK CFI 60c40 .cfa: x29 48 +
STACK CFI INIT 60cd8 498 .cfa: sp 0 +
STACK CFI 60cdc .cfa: sp 256 +
STACK CFI 60cf8 .cfa: x29 96 + x19: .cfa -8 + ^ x20: .cfa -16 + ^ x21: .cfa -24 + ^ x22: .cfa -32 + ^ x23: .cfa -40 + ^ x24: .cfa -48 + ^ x25: .cfa -56 + ^ x26: .cfa -64 + ^ x27: .cfa -72 + ^ x28: .cfa -80 + ^ .ra: .cfa -88 + ^ x29: .cfa -96 + ^
STACK CFI 6106c .cfa: sp 256 +
STACK CFI 61088 .cfa: sp 0 +
STACK CFI 6108c .cfa: x29 96 +
STACK CFI INIT 61170 500 .cfa: sp 0 +
STACK CFI 61174 .cfa: sp 176 +
STACK CFI 61188 .cfa: x29 64 + x19: .cfa -8 + ^ x20: .cfa -16 + ^ x21: .cfa -24 + ^ x22: .cfa -32 + ^ x23: .cfa -40 + ^ x24: .cfa -48 + ^ .ra: .cfa -56 + ^ x29: .cfa -64 + ^
STACK CFI 61528 .cfa: sp 176 +
STACK CFI 6153c .cfa: sp 0 +
STACK CFI 61540 .cfa: x29 64 +
STACK CFI INIT 61670 1b0 .cfa: sp 0 +
STACK CFI 61674 .cfa: sp 128 +
STACK CFI 61684 .cfa: x29 48 + x19: .cfa -8 + ^ x20: .cfa -16 + ^ x21: .cfa -32 + ^ .ra: .cfa -40 + ^ x29: .cfa -48 + ^
STACK CFI 617d8 .cfa: sp 128 +
STACK CFI 617e8 .cfa: sp 0 +
STACK CFI 617ec .cfa: x29 48 +
STACK CFI INIT 61824 1bc .cfa: sp 0 +
STACK CFI 61828 .cfa: sp 176 +
STACK CFI 6183c .cfa: x29 64 + x19: .cfa -8 + ^ x20: .cfa -16 + ^ x21: .cfa -24 + ^ x22: .cfa -32 + ^ x23: .cfa -40 + ^ x24: .cfa -48 + ^ .ra: .cfa -56 + ^ x29: .cfa -64 + ^
STACK CFI 618e4 .cfa: sp 176 +
STACK CFI 618f8 .cfa: sp 0 +
STACK CFI 618fc .cfa: x29 64 +
STACK CFI INIT 619e0 118 .cfa: sp 0 +
STACK CFI 619e4 .cfa: sp 144 +
STACK CFI 619fc .cfa: x29 80 + x19: .cfa -8 + ^ x20: .cfa -16 + ^ x21: .cfa -24 + ^ x22: .cfa -32 + ^ x23: .cfa -40 + ^ x24: .cfa -48 + ^ x25: .cfa -64 + ^ .ra: .cfa -72 + ^ x29: .cfa -80 + ^
STACK CFI 61aa4 .cfa: sp 144 +
STACK CFI 61abc .cfa: sp 0 +
STACK CFI 61ac0 .cfa: x29 80 +
STACK CFI INIT 61b30 180 .cfa: sp 0 +
STACK CFI 61b34 .cfa: sp 160 +
STACK CFI 61b4c .cfa: x29 80 + x19: .cfa -8 + ^ x20: .cfa -16 + ^ x21: .cfa -24 + ^ x22: .cfa -32 + ^ x23: .cfa -40 + ^ x24: .cfa -48 + ^ x25: .cfa -64 + ^ .ra: .cfa -72 + ^ x29: .cfa -80 + ^
STACK CFI 61c48 .cfa: sp 160 +
STACK CFI 61c60 .cfa: sp 0 +
STACK CFI 61c64 .cfa: x29 80 +
STACK CFI INIT 61cd8 2b0 .cfa: sp 0 +
STACK CFI 61cdc .cfa: sp 80 +
STACK CFI 61cf0 .cfa: x29 64 + x19: .cfa -8 + ^ x20: .cfa -16 + ^ x21: .cfa -24 + ^ x22: .cfa -32 + ^ x23: .cfa -40 + ^ x24: .cfa -48 + ^ .ra: .cfa -56 + ^ x29: .cfa -64 + ^
STACK CFI 61e2c .cfa: sp 80 +
STACK CFI 61e40 .cfa: sp 0 +
STACK CFI 61e44 .cfa: x29 64 +
STACK CFI 61f28 .cfa: sp 80 +
STACK CFI 61f3c .cfa: sp 0 +
STACK CFI 61f40 .cfa: x29 64 +
STACK CFI INIT 61f88 12c .cfa: sp 0 +
STACK CFI 61f8c .cfa: sp 96 +
STACK CFI 61fa0 .cfa: x29 64 + x19: .cfa -8 + ^ x20: .cfa -16 + ^ x21: .cfa -24 + ^ x22: .cfa -32 + ^ x23: .cfa -48 + ^ .ra: .cfa -56 + ^ x29: .cfa -64 + ^
STACK CFI 6204c .cfa: sp 96 +
STACK CFI 62060 .cfa: sp 0 +
STACK CFI 62064 .cfa: x29 64 +
STACK CFI INIT 620b4 b8 .cfa: sp 0 +
STACK CFI 620b8 .cfa: sp 80 +
STACK CFI 620c4 .cfa: x29 32 + x19: .cfa -8 + ^ x20: .cfa -16 + ^ .ra: .cfa -24 + ^ x29: .cfa -32 + ^
STACK CFI 6212c .cfa: sp 80 +
STACK CFI 62138 .cfa: sp 0 +
STACK CFI 6213c .cfa: x29 32 +
STACK CFI INIT 6216c 2b8 .cfa: sp 0 +
STACK CFI 62170 .cfa: sp 144 +
STACK CFI 62180 .cfa: x29 48 + x19: .cfa -8 + ^ x20: .cfa -16 + ^ x21: .cfa -24 + ^ x22: .cfa -32 + ^ .ra: .cfa -40 + ^ x29: .cfa -48 + ^
STACK CFI 623dc .cfa: sp 144 +
STACK CFI 623ec .cfa: sp 0 +
STACK CFI 623f0 .cfa: x29 48 +
STACK CFI INIT 624a8 1e0 .cfa: sp 0 +
STACK CFI 624ac .cfa: sp 144 +
STACK CFI 624bc .cfa: x29 48 + x19: .cfa -8 + ^ x20: .cfa -16 + ^ x21: .cfa -32 + ^ .ra: .cfa -40 + ^ x29: .cfa -48 + ^
STACK CFI 62620 .cfa: sp 144 +
STACK CFI 62630 .cfa: sp 0 +
STACK CFI 62634 .cfa: x29 48 +
STACK CFI INIT 626cc 498 .cfa: sp 0 +
STACK CFI 626d0 .cfa: sp 256 +
STACK CFI 626ec .cfa: x29 96 + x19: .cfa -8 + ^ x20: .cfa -16 + ^ x21: .cfa -24 + ^ x22: .cfa -32 + ^ x23: .cfa -40 + ^ x24: .cfa -48 + ^ x25: .cfa -56 + ^ x26: .cfa -64 + ^ x27: .cfa -72 + ^ x28: .cfa -80 + ^ .ra: .cfa -88 + ^ x29: .cfa -96 + ^
STACK CFI 62a60 .cfa: sp 256 +
STACK CFI 62a7c .cfa: sp 0 +
STACK CFI 62a80 .cfa: x29 96 +
STACK CFI INIT 62b64 2dc .cfa: sp 0 +
STACK CFI 62b68 .cfa: sp 160 +
STACK CFI 62b7c .cfa: x29 64 + x19: .cfa -8 + ^ x20: .cfa -16 + ^ x21: .cfa -24 + ^ x22: .cfa -32 + ^ x23: .cfa -48 + ^ .ra: .cfa -56 + ^ x29: .cfa -64 + ^
STACK CFI 62d68 .cfa: sp 160 +
STACK CFI 62d7c .cfa: sp 0 +
STACK CFI 62d80 .cfa: x29 64 +
STACK CFI INIT 62e40 120 .cfa: sp 0 +
STACK CFI 62e44 .cfa: sp 112 +
STACK CFI 62e50 .cfa: x29 32 + x19: .cfa -8 + ^ x20: .cfa -16 + ^ .ra: .cfa -24 + ^ x29: .cfa -32 + ^
STACK CFI 62f20 .cfa: sp 112 +
STACK CFI 62f2c .cfa: sp 0 +
STACK CFI 62f30 .cfa: x29 32 +
STACK CFI INIT 62f64 1bc .cfa: sp 0 +
STACK CFI 62f68 .cfa: sp 176 +
STACK CFI 62f7c .cfa: x29 64 + x19: .cfa -8 + ^ x20: .cfa -16 + ^ x21: .cfa -24 + ^ x22: .cfa -32 + ^ x23: .cfa -40 + ^ x24: .cfa -48 + ^ .ra: .cfa -56 + ^ x29: .cfa -64 + ^
STACK CFI 63024 .cfa: sp 176 +
STACK CFI 63038 .cfa: sp 0 +
STACK CFI 6303c .cfa: x29 64 +
STACK CFI INIT 63120 180 .cfa: sp 0 +
STACK CFI 63124 .cfa: sp 144 +
STACK CFI 6313c .cfa: x29 80 + x19: .cfa -8 + ^ x20: .cfa -16 + ^ x21: .cfa -24 + ^ x22: .cfa -32 + ^ x23: .cfa -40 + ^ x24: .cfa -48 + ^ x25: .cfa -64 + ^ .ra: .cfa -72 + ^ x29: .cfa -80 + ^
STACK CFI 63238 .cfa: sp 144 +
STACK CFI 63250 .cfa: sp 0 +
STACK CFI 63254 .cfa: x29 80 +
STACK CFI INIT 632d8 12c .cfa: sp 0 +
STACK CFI 632dc .cfa: sp 96 +
STACK CFI 632ec .cfa: x29 48 + x19: .cfa -8 + ^ x20: .cfa -16 + ^ x21: .cfa -24 + ^ x22: .cfa -32 + ^ .ra: .cfa -40 + ^ x29: .cfa -48 + ^
STACK CFI 633a0 .cfa: sp 96 +
STACK CFI 633b0 .cfa: sp 0 +
STACK CFI 633b4 .cfa: x29 48 +
STACK CFI INIT 63404 b8 .cfa: sp 0 +
STACK CFI 63408 .cfa: sp 80 +
STACK CFI 63414 .cfa: x29 32 + x19: .cfa -8 + ^ x20: .cfa -16 + ^ .ra: .cfa -24 + ^ x29: .cfa -32 + ^
STACK CFI 6347c .cfa: sp 80 +
STACK CFI 63488 .cfa: sp 0 +
STACK CFI 6348c .cfa: x29 32 +
STACK CFI INIT 634bc 73c .cfa: sp 0 +
STACK CFI 634c0 .cfa: sp 240 +
STACK CFI 634dc .cfa: x29 96 + x19: .cfa -8 + ^ x20: .cfa -16 + ^ x21: .cfa -24 + ^ x22: .cfa -32 + ^ x23: .cfa -40 + ^ x24: .cfa -48 + ^ x25: .cfa -56 + ^ x26: .cfa -64 + ^ x27: .cfa -72 + ^ x28: .cfa -80 + ^ .ra: .cfa -88 + ^ x29: .cfa -96 + ^
STACK CFI 63b54 .cfa: sp 240 +
STACK CFI 63b70 .cfa: sp 0 +
STACK CFI 63b74 .cfa: x29 96 +
STACK CFI INIT 63d78 1fc .cfa: sp 0 +
STACK CFI 63d7c .cfa: sp 144 +
STACK CFI 63d8c .cfa: x29 48 + x19: .cfa -8 + ^ x20: .cfa -16 + ^ x21: .cfa -32 + ^ .ra: .cfa -40 + ^ x29: .cfa -48 + ^
STACK CFI 63f0c .cfa: sp 144 +
STACK CFI 63f1c .cfa: sp 0 +
STACK CFI 63f20 .cfa: x29 48 +
STACK CFI INIT 63fb8 498 .cfa: sp 0 +
STACK CFI 63fbc .cfa: sp 256 +
STACK CFI 63fd8 .cfa: x29 96 + x19: .cfa -8 + ^ x20: .cfa -16 + ^ x21: .cfa -24 + ^ x22: .cfa -32 + ^ x23: .cfa -40 + ^ x24: .cfa -48 + ^ x25: .cfa -56 + ^ x26: .cfa -64 + ^ x27: .cfa -72 + ^ x28: .cfa -80 + ^ .ra: .cfa -88 + ^ x29: .cfa -96 + ^
STACK CFI 6434c .cfa: sp 256 +
STACK CFI 64368 .cfa: sp 0 +
STACK CFI 6436c .cfa: x29 96 +
STACK CFI INIT 64450 2e4 .cfa: sp 0 +
STACK CFI 64454 .cfa: sp 176 +
STACK CFI 64468 .cfa: x29 64 + x19: .cfa -8 + ^ x20: .cfa -16 + ^ x21: .cfa -24 + ^ x22: .cfa -32 + ^ x23: .cfa -48 + ^ .ra: .cfa -56 + ^ x29: .cfa -64 + ^
STACK CFI 6465c .cfa: sp 176 +
STACK CFI 64670 .cfa: sp 0 +
STACK CFI 64674 .cfa: x29 64 +
STACK CFI INIT 64734 120 .cfa: sp 0 +
STACK CFI 64738 .cfa: sp 112 +
STACK CFI 64744 .cfa: x29 32 + x19: .cfa -8 + ^ x20: .cfa -16 + ^ .ra: .cfa -24 + ^ x29: .cfa -32 + ^
STACK CFI 64814 .cfa: sp 112 +
STACK CFI 64820 .cfa: sp 0 +
STACK CFI 64824 .cfa: x29 32 +
STACK CFI INIT 64858 1bc .cfa: sp 0 +
STACK CFI 6485c .cfa: sp 176 +
STACK CFI 64870 .cfa: x29 64 + x19: .cfa -8 + ^ x20: .cfa -16 + ^ x21: .cfa -24 + ^ x22: .cfa -32 + ^ x23: .cfa -40 + ^ x24: .cfa -48 + ^ .ra: .cfa -56 + ^ x29: .cfa -64 + ^
STACK CFI 64918 .cfa: sp 176 +
STACK CFI 6492c .cfa: sp 0 +
STACK CFI 64930 .cfa: x29 64 +
STACK CFI INIT 64a14 180 .cfa: sp 0 +
STACK CFI 64a18 .cfa: sp 160 +
STACK CFI 64a30 .cfa: x29 80 + x19: .cfa -8 + ^ x20: .cfa -16 + ^ x21: .cfa -24 + ^ x22: .cfa -32 + ^ x23: .cfa -40 + ^ x24: .cfa -48 + ^ x25: .cfa -64 + ^ .ra: .cfa -72 + ^ x29: .cfa -80 + ^
STACK CFI 64b2c .cfa: sp 160 +
STACK CFI 64b44 .cfa: sp 0 +
STACK CFI 64b48 .cfa: x29 80 +
STACK CFI INIT 64bcc 13c .cfa: sp 0 +
STACK CFI 64bd0 .cfa: sp 96 +
STACK CFI 64be0 .cfa: x29 48 + x19: .cfa -8 + ^ x20: .cfa -16 + ^ x21: .cfa -24 + ^ x22: .cfa -32 + ^ .ra: .cfa -40 + ^ x29: .cfa -48 + ^
STACK CFI 64ca4 .cfa: sp 96 +
STACK CFI 64cb4 .cfa: sp 0 +
STACK CFI 64cb8 .cfa: x29 48 +
STACK CFI INIT 64d08 c0 .cfa: sp 0 +
STACK CFI 64d0c .cfa: sp 80 +
STACK CFI 64d18 .cfa: x29 32 + x19: .cfa -8 + ^ x20: .cfa -16 + ^ .ra: .cfa -24 + ^ x29: .cfa -32 + ^
STACK CFI 64d88 .cfa: sp 80 +
STACK CFI 64d94 .cfa: sp 0 +
STACK CFI 64d98 .cfa: x29 32 +
STACK CFI INIT 64dc8 30e0 .cfa: sp 0 +
STACK CFI 64dcc .cfa: sp 256 +
STACK CFI 64df4 .cfa: x29 96 + x19: .cfa -8 + ^ x20: .cfa -16 + ^ x21: .cfa -24 + ^ x22: .cfa -32 + ^ x23: .cfa -40 + ^ x24: .cfa -48 + ^ x25: .cfa -56 + ^ x26: .cfa -64 + ^ x27: .cfa -72 + ^ x28: .cfa -80 + ^ .ra: .cfa -88 + ^ x29: .cfa -96 + ^ v8: .cfa -104 + ^ v9: .cfa -112 + ^ v10: .cfa -120 + ^ v11: .cfa -128 + ^ v12: .cfa -144 + ^
STACK CFI 67790 .cfa: sp 256 +
STACK CFI 677b8 .cfa: sp 0 +
STACK CFI 677bc .cfa: x29 96 +
STACK CFI INIT 67ea8 240 .cfa: sp 0 +
STACK CFI 67eac .cfa: sp 144 +
STACK CFI 67ec8 .cfa: x29 96 + x19: .cfa -8 + ^ x20: .cfa -16 + ^ x21: .cfa -24 + ^ x22: .cfa -32 + ^ x23: .cfa -40 + ^ x24: .cfa -48 + ^ x25: .cfa -56 + ^ x26: .cfa -64 + ^ x27: .cfa -72 + ^ x28: .cfa -80 + ^ .ra: .cfa -88 + ^ x29: .cfa -96 + ^
STACK CFI 68080 .cfa: sp 144 +
STACK CFI 6809c .cfa: sp 0 +
STACK CFI 680a0 .cfa: x29 96 +
STACK CFI INIT 6816c 1e0 .cfa: sp 0 +
STACK CFI 68170 .cfa: sp 144 +
STACK CFI 68180 .cfa: x29 48 + x19: .cfa -8 + ^ x20: .cfa -16 + ^ x21: .cfa -32 + ^ .ra: .cfa -40 + ^ x29: .cfa -48 + ^
STACK CFI 682e4 .cfa: sp 144 +
STACK CFI 682f4 .cfa: sp 0 +
STACK CFI 682f8 .cfa: x29 48 +
STACK CFI INIT 684a8 498 .cfa: sp 0 +
STACK CFI 684ac .cfa: sp 256 +
STACK CFI 684c8 .cfa: x29 96 + x19: .cfa -8 + ^ x20: .cfa -16 + ^ x21: .cfa -24 + ^ x22: .cfa -32 + ^ x23: .cfa -40 + ^ x24: .cfa -48 + ^ x25: .cfa -56 + ^ x26: .cfa -64 + ^ x27: .cfa -72 + ^ x28: .cfa -80 + ^ .ra: .cfa -88 + ^ x29: .cfa -96 + ^
STACK CFI 6883c .cfa: sp 256 +
STACK CFI 68858 .cfa: sp 0 +
STACK CFI 6885c .cfa: x29 96 +
STACK CFI INIT 68940 2dc .cfa: sp 0 +
STACK CFI 68944 .cfa: sp 160 +
STACK CFI 68958 .cfa: x29 64 + x19: .cfa -8 + ^ x20: .cfa -16 + ^ x21: .cfa -24 + ^ x22: .cfa -32 + ^ x23: .cfa -48 + ^ .ra: .cfa -56 + ^ x29: .cfa -64 + ^
STACK CFI 68b44 .cfa: sp 160 +
STACK CFI 68b58 .cfa: sp 0 +
STACK CFI 68b5c .cfa: x29 64 +
STACK CFI INIT 68c1c 120 .cfa: sp 0 +
STACK CFI 68c20 .cfa: sp 112 +
STACK CFI 68c2c .cfa: x29 32 + x19: .cfa -8 + ^ x20: .cfa -16 + ^ .ra: .cfa -24 + ^ x29: .cfa -32 + ^
STACK CFI 68cfc .cfa: sp 112 +
STACK CFI 68d08 .cfa: sp 0 +
STACK CFI 68d0c .cfa: x29 32 +
STACK CFI INIT 68d40 1bc .cfa: sp 0 +
STACK CFI 68d44 .cfa: sp 176 +
STACK CFI 68d58 .cfa: x29 64 + x19: .cfa -8 + ^ x20: .cfa -16 + ^ x21: .cfa -24 + ^ x22: .cfa -32 + ^ x23: .cfa -40 + ^ x24: .cfa -48 + ^ .ra: .cfa -56 + ^ x29: .cfa -64 + ^
STACK CFI 68e00 .cfa: sp 176 +
STACK CFI 68e14 .cfa: sp 0 +
STACK CFI 68e18 .cfa: x29 64 +
STACK CFI INIT 68efc 180 .cfa: sp 0 +
STACK CFI 68f00 .cfa: sp 160 +
STACK CFI 68f18 .cfa: x29 80 + x19: .cfa -8 + ^ x20: .cfa -16 + ^ x21: .cfa -24 + ^ x22: .cfa -32 + ^ x23: .cfa -40 + ^ x24: .cfa -48 + ^ x25: .cfa -64 + ^ .ra: .cfa -72 + ^ x29: .cfa -80 + ^
STACK CFI 69014 .cfa: sp 160 +
STACK CFI 6902c .cfa: sp 0 +
STACK CFI 69030 .cfa: x29 80 +
STACK CFI INIT 690b4 12c .cfa: sp 0 +
STACK CFI 690b8 .cfa: sp 96 +
STACK CFI 690c8 .cfa: x29 48 + x19: .cfa -8 + ^ x20: .cfa -16 + ^ x21: .cfa -24 + ^ x22: .cfa -32 + ^ .ra: .cfa -40 + ^ x29: .cfa -48 + ^
STACK CFI 6917c .cfa: sp 96 +
STACK CFI 6918c .cfa: sp 0 +
STACK CFI 69190 .cfa: x29 48 +
STACK CFI INIT 691e0 b8 .cfa: sp 0 +
STACK CFI 691e4 .cfa: sp 80 +
STACK CFI 691f0 .cfa: x29 32 + x19: .cfa -8 + ^ x20: .cfa -16 + ^ .ra: .cfa -24 + ^ x29: .cfa -32 + ^
STACK CFI 69258 .cfa: sp 80 +
STACK CFI 69264 .cfa: sp 0 +
STACK CFI 69268 .cfa: x29 32 +
STACK CFI INIT 69298 1bfc .cfa: sp 0 +
STACK CFI 6929c .cfa: sp 176 +
STACK CFI 692b8 .cfa: x29 96 + x19: .cfa -8 + ^ x20: .cfa -16 + ^ x21: .cfa -24 + ^ x22: .cfa -32 + ^ x23: .cfa -40 + ^ x24: .cfa -48 + ^ x25: .cfa -56 + ^ x26: .cfa -64 + ^ x27: .cfa -72 + ^ x28: .cfa -80 + ^ .ra: .cfa -88 + ^ x29: .cfa -96 + ^
STACK CFI 6ad7c .cfa: sp 176 +
STACK CFI 6ad98 .cfa: sp 0 +
STACK CFI 6ad9c .cfa: x29 96 +
STACK CFI INIT 6b05c 498 .cfa: sp 0 +
STACK CFI 6b060 .cfa: sp 256 +
STACK CFI 6b07c .cfa: x29 96 + x19: .cfa -8 + ^ x20: .cfa -16 + ^ x21: .cfa -24 + ^ x22: .cfa -32 + ^ x23: .cfa -40 + ^ x24: .cfa -48 + ^ x25: .cfa -56 + ^ x26: .cfa -64 + ^ x27: .cfa -72 + ^ x28: .cfa -80 + ^ .ra: .cfa -88 + ^ x29: .cfa -96 + ^
STACK CFI 6b3f0 .cfa: sp 256 +
STACK CFI 6b40c .cfa: sp 0 +
STACK CFI 6b410 .cfa: x29 96 +
STACK CFI INIT 6b4f4 784 .cfa: sp 0 +
STACK CFI 6b4f8 .cfa: sp 176 +
STACK CFI 6b50c .cfa: x29 64 + x19: .cfa -8 + ^ x20: .cfa -16 + ^ x21: .cfa -24 + ^ x22: .cfa -32 + ^ x23: .cfa -40 + ^ x24: .cfa -48 + ^ .ra: .cfa -56 + ^ x29: .cfa -64 + ^
STACK CFI 6bab0 .cfa: sp 176 +
STACK CFI 6bac4 .cfa: sp 0 +
STACK CFI 6bac8 .cfa: x29 64 +
STACK CFI INIT 6bc78 260 .cfa: sp 0 +
STACK CFI 6bc7c .cfa: sp 128 +
STACK CFI 6bc8c .cfa: x29 48 + x19: .cfa -8 + ^ x20: .cfa -16 + ^ x21: .cfa -32 + ^ .ra: .cfa -40 + ^ x29: .cfa -48 + ^
STACK CFI 6be8c .cfa: sp 128 +
STACK CFI 6be9c .cfa: sp 0 +
STACK CFI 6bea0 .cfa: x29 48 +
STACK CFI INIT 6bedc 1bc .cfa: sp 0 +
STACK CFI 6bee0 .cfa: sp 176 +
STACK CFI 6bef4 .cfa: x29 64 + x19: .cfa -8 + ^ x20: .cfa -16 + ^ x21: .cfa -24 + ^ x22: .cfa -32 + ^ x23: .cfa -40 + ^ x24: .cfa -48 + ^ .ra: .cfa -56 + ^ x29: .cfa -64 + ^
STACK CFI 6bf9c .cfa: sp 176 +
STACK CFI 6bfb0 .cfa: sp 0 +
STACK CFI 6bfb4 .cfa: x29 64 +
STACK CFI INIT 6c098 134 .cfa: sp 0 +
STACK CFI 6c09c .cfa: sp 128 +
STACK CFI 6c0b0 .cfa: x29 64 + x19: .cfa -8 + ^ x20: .cfa -16 + ^ x21: .cfa -24 + ^ x22: .cfa -32 + ^ x23: .cfa -40 + ^ x24: .cfa -48 + ^ .ra: .cfa -56 + ^ x29: .cfa -64 + ^
STACK CFI 6c17c .cfa: sp 128 +
STACK CFI 6c190 .cfa: sp 0 +
STACK CFI 6c194 .cfa: x29 64 +
STACK CFI INIT 6c200 180 .cfa: sp 0 +
STACK CFI 6c204 .cfa: sp 160 +
STACK CFI 6c21c .cfa: x29 80 + x19: .cfa -8 + ^ x20: .cfa -16 + ^ x21: .cfa -24 + ^ x22: .cfa -32 + ^ x23: .cfa -40 + ^ x24: .cfa -48 + ^ x25: .cfa -64 + ^ .ra: .cfa -72 + ^ x29: .cfa -80 + ^
STACK CFI 6c318 .cfa: sp 160 +
STACK CFI 6c330 .cfa: sp 0 +
STACK CFI 6c334 .cfa: x29 80 +
STACK CFI INIT 6c380 cc .cfa: sp 0 +
STACK CFI 6c384 .cfa: sp 64 +
STACK CFI 6c390 .cfa: x29 32 + x19: .cfa -8 + ^ x20: .cfa -16 + ^ .ra: .cfa -24 + ^ x29: .cfa -32 + ^
STACK CFI 6c40c .cfa: sp 64 +
STACK CFI 6c418 .cfa: sp 0 +
STACK CFI 6c41c .cfa: x29 32 +
STACK CFI INIT 6c484 12c .cfa: sp 0 +
STACK CFI 6c488 .cfa: sp 96 +
STACK CFI 6c49c .cfa: x29 64 + x19: .cfa -8 + ^ x20: .cfa -16 + ^ x21: .cfa -24 + ^ x22: .cfa -32 + ^ x23: .cfa -48 + ^ .ra: .cfa -56 + ^ x29: .cfa -64 + ^
STACK CFI 6c548 .cfa: sp 96 +
STACK CFI 6c55c .cfa: sp 0 +
STACK CFI 6c560 .cfa: x29 64 +
STACK CFI INIT 6c5b0 1c4 .cfa: sp 0 +
STACK CFI 6c5b4 .cfa: sp 64 +
STACK CFI 6c5c4 .cfa: x29 64 + x19: .cfa -8 + ^ x20: .cfa -16 + ^ x21: .cfa -24 + ^ x22: .cfa -32 + ^ x28: .cfa -48 + ^ .ra: .cfa -56 + ^ x29: .cfa -64 + ^
STACK CFI 6c6dc .cfa: sp 64 +
STACK CFI 6c6ec .cfa: sp 0 +
STACK CFI 6c6f0 .cfa: x29 64 +
STACK CFI INIT 6c774 a8 .cfa: sp 0 +
STACK CFI 6c778 .cfa: sp 48 +
STACK CFI 6c784 .cfa: x29 48 + x19: .cfa -8 + ^ x20: .cfa -16 + ^ x28: .cfa -32 + ^ .ra: .cfa -40 + ^ x29: .cfa -48 + ^
STACK CFI 6c804 .cfa: sp 48 +
STACK CFI 6c810 .cfa: sp 0 +
STACK CFI 6c814 .cfa: x29 48 +
STACK CFI INIT 6c81c 60 .cfa: sp 0 +
STACK CFI 6c820 .cfa: sp 32 +
STACK CFI 6c828 .cfa: x29 32 + x19: .cfa -16 + ^ .ra: .cfa -24 + ^ x29: .cfa -32 + ^
STACK CFI 6c86c .cfa: sp 32 +
STACK CFI 6c874 .cfa: sp 0 +
STACK CFI 6c878 .cfa: x29 32 +
STACK CFI INIT 6c87c e8 .cfa: sp 0 +
STACK CFI 6c880 .cfa: sp 48 +
STACK CFI 6c88c .cfa: x29 48 + x19: .cfa -8 + ^ x20: .cfa -16 + ^ x21: .cfa -32 + ^ .ra: .cfa -40 + ^ x29: .cfa -48 + ^
STACK CFI 6c930 .cfa: sp 48 +
STACK CFI 6c93c .cfa: sp 0 +
STACK CFI 6c940 .cfa: x29 48 +
STACK CFI INIT 6c964 64 .cfa: sp 0 +
STACK CFI 6c968 .cfa: sp 32 +
STACK CFI 6c970 .cfa: x29 32 + x19: .cfa -16 + ^ .ra: .cfa -24 + ^ x29: .cfa -32 + ^
STACK CFI 6c9b8 .cfa: sp 32 +
STACK CFI 6c9c0 .cfa: sp 0 +
STACK CFI 6c9c4 .cfa: x29 32 +
STACK CFI INIT 6c9c8 64 .cfa: sp 0 +
STACK CFI 6c9cc .cfa: sp 32 +
STACK CFI 6c9d4 .cfa: x29 32 + x19: .cfa -16 + ^ .ra: .cfa -24 + ^ x29: .cfa -32 + ^
STACK CFI 6ca1c .cfa: sp 32 +
STACK CFI 6ca24 .cfa: sp 0 +
STACK CFI 6ca28 .cfa: x29 32 +
STACK CFI INIT 6ca2c 68 .cfa: sp 0 +
STACK CFI 6ca30 .cfa: sp 32 +
STACK CFI 6ca38 .cfa: x29 32 + x19: .cfa -16 + ^ .ra: .cfa -24 + ^ x29: .cfa -32 + ^
STACK CFI 6ca84 .cfa: sp 32 +
STACK CFI 6ca8c .cfa: sp 0 +
STACK CFI 6ca90 .cfa: x29 32 +
STACK CFI INIT 6caa4 1c4 .cfa: sp 0 +
STACK CFI 6caa8 .cfa: sp 128 +
STACK CFI 6cab8 .cfa: x29 48 + x19: .cfa -8 + ^ x20: .cfa -16 + ^ x21: .cfa -32 + ^ .ra: .cfa -40 + ^ x29: .cfa -48 + ^
STACK CFI 6cc00 .cfa: sp 128 +
STACK CFI 6cc10 .cfa: sp 0 +
STACK CFI 6cc14 .cfa: x29 48 +
STACK CFI INIT 6ccac b8 .cfa: sp 0 +
STACK CFI 6ccb0 .cfa: sp 80 +
STACK CFI 6ccbc .cfa: x29 32 + x19: .cfa -8 + ^ x20: .cfa -16 + ^ .ra: .cfa -24 + ^ x29: .cfa -32 + ^
STACK CFI 6cd24 .cfa: sp 80 +
STACK CFI 6cd30 .cfa: sp 0 +
STACK CFI 6cd34 .cfa: x29 32 +
STACK CFI INIT 6cd64 1508 .cfa: sp 0 +
STACK CFI 6cd68 .cfa: sp 176 +
STACK CFI 6cd88 .cfa: x29 96 + x19: .cfa -8 + ^ x20: .cfa -16 + ^ x21: .cfa -24 + ^ x22: .cfa -32 + ^ x23: .cfa -40 + ^ x24: .cfa -48 + ^ x25: .cfa -56 + ^ x26: .cfa -64 + ^ x27: .cfa -72 + ^ x28: .cfa -80 + ^ .ra: .cfa -88 + ^ x29: .cfa -96 + ^ v8: .cfa -104 + ^ v9: .cfa -112 + ^
STACK CFI 6e180 .cfa: sp 176 +
STACK CFI 6e1a0 .cfa: sp 0 +
STACK CFI 6e1a4 .cfa: x29 96 +
STACK CFI INIT 6e26c 20 .cfa: sp 0 +
STACK CFI 6e270 .cfa: sp 16 +
STACK CFI 6e274 .cfa: x29 16 + .ra: .cfa -8 + ^ x29: .cfa -16 + ^
STACK CFI 6e280 .cfa: sp 16 +
STACK CFI 6e284 .cfa: sp 0 +
STACK CFI 6e288 .cfa: x29 16 +
STACK CFI INIT 6e310 1d4 .cfa: sp 0 +
STACK CFI 6e314 .cfa: sp 128 +
STACK CFI 6e324 .cfa: x29 48 + x19: .cfa -8 + ^ x20: .cfa -16 + ^ x21: .cfa -24 + ^ x22: .cfa -32 + ^ .ra: .cfa -40 + ^ x29: .cfa -48 + ^
STACK CFI 6e47c .cfa: sp 128 +
STACK CFI 6e48c .cfa: sp 0 +
STACK CFI 6e490 .cfa: x29 48 +
STACK CFI INIT 6e528 498 .cfa: sp 0 +
STACK CFI 6e52c .cfa: sp 256 +
STACK CFI 6e548 .cfa: x29 96 + x19: .cfa -8 + ^ x20: .cfa -16 + ^ x21: .cfa -24 + ^ x22: .cfa -32 + ^ x23: .cfa -40 + ^ x24: .cfa -48 + ^ x25: .cfa -56 + ^ x26: .cfa -64 + ^ x27: .cfa -72 + ^ x28: .cfa -80 + ^ .ra: .cfa -88 + ^ x29: .cfa -96 + ^
STACK CFI 6e8bc .cfa: sp 256 +
STACK CFI 6e8d8 .cfa: sp 0 +
STACK CFI 6e8dc .cfa: x29 96 +
STACK CFI INIT 6e9c0 9a8 .cfa: sp 0 +
STACK CFI 6e9c4 .cfa: sp 192 +
STACK CFI 6e9dc .cfa: x29 80 + x19: .cfa -8 + ^ x20: .cfa -16 + ^ x21: .cfa -24 + ^ x22: .cfa -32 + ^ x23: .cfa -40 + ^ x24: .cfa -48 + ^ x25: .cfa -64 + ^ .ra: .cfa -72 + ^ x29: .cfa -80 + ^
STACK CFI 6f12c .cfa: sp 192 +
STACK CFI 6f144 .cfa: sp 0 +
STACK CFI 6f148 .cfa: x29 80 +
STACK CFI INIT 6f368 10c .cfa: sp 0 +
STACK CFI 6f36c .cfa: sp 112 +
STACK CFI 6f378 .cfa: x29 32 + x19: .cfa -8 + ^ x20: .cfa -16 + ^ .ra: .cfa -24 + ^ x29: .cfa -32 + ^
STACK CFI 6f434 .cfa: sp 112 +
STACK CFI 6f440 .cfa: sp 0 +
STACK CFI 6f444 .cfa: x29 32 +
STACK CFI INIT 6f478 1bc .cfa: sp 0 +
STACK CFI 6f47c .cfa: sp 176 +
STACK CFI 6f490 .cfa: x29 64 + x19: .cfa -8 + ^ x20: .cfa -16 + ^ x21: .cfa -24 + ^ x22: .cfa -32 + ^ x23: .cfa -40 + ^ x24: .cfa -48 + ^ .ra: .cfa -56 + ^ x29: .cfa -64 + ^
STACK CFI 6f538 .cfa: sp 176 +
STACK CFI 6f54c .cfa: sp 0 +
STACK CFI 6f550 .cfa: x29 64 +
STACK CFI INIT 6f634 118 .cfa: sp 0 +
STACK CFI 6f638 .cfa: sp 144 +
STACK CFI 6f650 .cfa: x29 80 + x19: .cfa -8 + ^ x20: .cfa -16 + ^ x21: .cfa -24 + ^ x22: .cfa -32 + ^ x23: .cfa -40 + ^ x24: .cfa -48 + ^ x25: .cfa -64 + ^ .ra: .cfa -72 + ^ x29: .cfa -80 + ^
STACK CFI 6f6f8 .cfa: sp 144 +
STACK CFI 6f710 .cfa: sp 0 +
STACK CFI 6f714 .cfa: x29 80 +
STACK CFI INIT 6f784 134 .cfa: sp 0 +
STACK CFI 6f788 .cfa: sp 128 +
STACK CFI 6f79c .cfa: x29 64 + x19: .cfa -8 + ^ x20: .cfa -16 + ^ x21: .cfa -24 + ^ x22: .cfa -32 + ^ x23: .cfa -40 + ^ x24: .cfa -48 + ^ .ra: .cfa -56 + ^ x29: .cfa -64 + ^
STACK CFI 6f868 .cfa: sp 128 +
STACK CFI 6f87c .cfa: sp 0 +
STACK CFI 6f880 .cfa: x29 64 +
STACK CFI INIT 6f8c4 1a0 .cfa: sp 0 +
STACK CFI 6f8c8 .cfa: sp 96 +
STACK CFI 6f8dc .cfa: x29 64 + x19: .cfa -8 + ^ x20: .cfa -16 + ^ x21: .cfa -24 + ^ x22: .cfa -32 + ^ x23: .cfa -40 + ^ x24: .cfa -48 + ^ .ra: .cfa -56 + ^ x29: .cfa -64 + ^
STACK CFI 6f9f0 .cfa: sp 96 +
STACK CFI 6fa04 .cfa: sp 0 +
STACK CFI 6fa08 .cfa: x29 64 +
STACK CFI 6fa14 .cfa: sp 96 +
STACK CFI 6fa28 .cfa: sp 0 +
STACK CFI 6fa2c .cfa: x29 64 +
STACK CFI INIT 6fa64 130 .cfa: sp 0 +
STACK CFI 6fa68 .cfa: sp 96 +
STACK CFI 6fa7c .cfa: x29 64 + x19: .cfa -8 + ^ x20: .cfa -16 + ^ x21: .cfa -24 + ^ x22: .cfa -32 + ^ x23: .cfa -40 + ^ x24: .cfa -48 + ^ .ra: .cfa -56 + ^ x29: .cfa -64 + ^
STACK CFI 6fb2c .cfa: sp 96 +
STACK CFI 6fb40 .cfa: sp 0 +
STACK CFI 6fb44 .cfa: x29 64 +
STACK CFI INIT 6fb94 174 .cfa: sp 0 +
STACK CFI 6fb98 .cfa: sp 80 +
STACK CFI 6fba8 .cfa: x29 48 + x19: .cfa -8 + ^ x20: .cfa -16 + ^ x21: .cfa -24 + ^ x22: .cfa -32 + ^ .ra: .cfa -40 + ^ x29: .cfa -48 + ^
STACK CFI 6fcc0 .cfa: sp 80 +
STACK CFI 6fcd0 .cfa: sp 0 +
STACK CFI 6fcd4 .cfa: x29 48 +
STACK CFI INIT 6fd08 32c .cfa: sp 0 +
STACK CFI 6fd0c .cfa: sp 80 +
STACK CFI 6fd1c .cfa: x29 48 + x19: .cfa -8 + ^ x20: .cfa -16 + ^ x21: .cfa -32 + ^ .ra: .cfa -40 + ^ x29: .cfa -48 + ^
STACK CFI 6ffdc .cfa: sp 80 +
STACK CFI 6ffec .cfa: sp 0 +
STACK CFI 6fff0 .cfa: x29 48 +
STACK CFI INIT 70034 140 .cfa: sp 0 +
STACK CFI 70038 .cfa: sp 144 +
STACK CFI 70050 .cfa: x29 80 + x19: .cfa -8 + ^ x20: .cfa -16 + ^ x21: .cfa -24 + ^ x22: .cfa -32 + ^ x23: .cfa -40 + ^ x24: .cfa -48 + ^ x25: .cfa -64 + ^ .ra: .cfa -72 + ^ x29: .cfa -80 + ^
STACK CFI 70110 .cfa: sp 144 +
STACK CFI 70128 .cfa: sp 0 +
STACK CFI 7012c .cfa: x29 80 +
STACK CFI INIT 70174 bc .cfa: sp 0 +
STACK CFI 70178 .cfa: sp 80 +
STACK CFI 70184 .cfa: x29 32 + x19: .cfa -8 + ^ x20: .cfa -16 + ^ .ra: .cfa -24 + ^ x29: .cfa -32 + ^
STACK CFI 701f0 .cfa: sp 80 +
STACK CFI 701fc .cfa: sp 0 +
STACK CFI 70200 .cfa: x29 32 +
STACK CFI INIT 70230 1030 .cfa: sp 0 +
STACK CFI 70234 .cfa: sp 208 +
STACK CFI 70254 .cfa: x29 96 + x19: .cfa -8 + ^ x20: .cfa -16 + ^ x21: .cfa -24 + ^ x22: .cfa -32 + ^ x23: .cfa -40 + ^ x24: .cfa -48 + ^ x25: .cfa -56 + ^ x26: .cfa -64 + ^ x27: .cfa -72 + ^ x28: .cfa -80 + ^ .ra: .cfa -88 + ^ x29: .cfa -96 + ^ v8: .cfa -112 + ^
STACK CFI 71150 .cfa: sp 208 +
STACK CFI 71170 .cfa: sp 0 +
STACK CFI 71174 .cfa: x29 96 +
STACK CFI INIT 712e4 1cc .cfa: sp 0 +
STACK CFI 712e8 .cfa: sp 144 +
STACK CFI 712f8 .cfa: x29 48 + x19: .cfa -8 + ^ x20: .cfa -16 + ^ x21: .cfa -32 + ^ .ra: .cfa -40 + ^ x29: .cfa -48 + ^
STACK CFI 71448 .cfa: sp 144 +
STACK CFI 71458 .cfa: sp 0 +
STACK CFI 7145c .cfa: x29 48 +
STACK CFI INIT 714f4 498 .cfa: sp 0 +
STACK CFI 714f8 .cfa: sp 256 +
STACK CFI 71514 .cfa: x29 96 + x19: .cfa -8 + ^ x20: .cfa -16 + ^ x21: .cfa -24 + ^ x22: .cfa -32 + ^ x23: .cfa -40 + ^ x24: .cfa -48 + ^ x25: .cfa -56 + ^ x26: .cfa -64 + ^ x27: .cfa -72 + ^ x28: .cfa -80 + ^ .ra: .cfa -88 + ^ x29: .cfa -96 + ^
STACK CFI 71888 .cfa: sp 256 +
STACK CFI 718a4 .cfa: sp 0 +
STACK CFI 718a8 .cfa: x29 96 +
STACK CFI INIT 7198c 2b4 .cfa: sp 0 +
STACK CFI 71990 .cfa: sp 144 +
STACK CFI 719a4 .cfa: x29 64 + x19: .cfa -8 + ^ x20: .cfa -16 + ^ x21: .cfa -24 + ^ x22: .cfa -32 + ^ x23: .cfa -48 + ^ .ra: .cfa -56 + ^ x29: .cfa -64 + ^
STACK CFI 71b70 .cfa: sp 144 +
STACK CFI 71b84 .cfa: sp 0 +
STACK CFI 71b88 .cfa: x29 64 +
STACK CFI INIT 71c40 108 .cfa: sp 0 +
STACK CFI 71c44 .cfa: sp 112 +
STACK CFI 71c50 .cfa: x29 32 + x19: .cfa -8 + ^ x20: .cfa -16 + ^ .ra: .cfa -24 + ^ x29: .cfa -32 + ^
STACK CFI 71d08 .cfa: sp 112 +
STACK CFI 71d14 .cfa: sp 0 +
STACK CFI 71d18 .cfa: x29 32 +
STACK CFI INIT 71d4c 1bc .cfa: sp 0 +
STACK CFI 71d50 .cfa: sp 176 +
STACK CFI 71d64 .cfa: x29 64 + x19: .cfa -8 + ^ x20: .cfa -16 + ^ x21: .cfa -24 + ^ x22: .cfa -32 + ^ x23: .cfa -40 + ^ x24: .cfa -48 + ^ .ra: .cfa -56 + ^ x29: .cfa -64 + ^
STACK CFI 71e0c .cfa: sp 176 +
STACK CFI 71e20 .cfa: sp 0 +
STACK CFI 71e24 .cfa: x29 64 +
STACK CFI INIT 71f08 118 .cfa: sp 0 +
STACK CFI 71f0c .cfa: sp 144 +
STACK CFI 71f24 .cfa: x29 80 + x19: .cfa -8 + ^ x20: .cfa -16 + ^ x21: .cfa -24 + ^ x22: .cfa -32 + ^ x23: .cfa -40 + ^ x24: .cfa -48 + ^ x25: .cfa -64 + ^ .ra: .cfa -72 + ^ x29: .cfa -80 + ^
STACK CFI 71fcc .cfa: sp 144 +
STACK CFI 71fe4 .cfa: sp 0 +
STACK CFI 71fe8 .cfa: x29 80 +
STACK CFI INIT 72058 284 .cfa: sp 0 +
STACK CFI 7205c .cfa: sp 80 +
STACK CFI 72070 .cfa: x29 64 + x19: .cfa -8 + ^ x20: .cfa -16 + ^ x21: .cfa -24 + ^ x22: .cfa -32 + ^ x23: .cfa -40 + ^ x24: .cfa -48 + ^ .ra: .cfa -56 + ^ x29: .cfa -64 + ^
STACK CFI 7219c .cfa: sp 80 +
STACK CFI 721b0 .cfa: sp 0 +
STACK CFI 721b4 .cfa: x29 64 +
STACK CFI 7227c .cfa: sp 80 +
STACK CFI 72290 .cfa: sp 0 +
STACK CFI 72294 .cfa: x29 64 +
STACK CFI INIT 722dc 124 .cfa: sp 0 +
STACK CFI 722e0 .cfa: sp 96 +
STACK CFI 722f0 .cfa: x29 48 + x19: .cfa -8 + ^ x20: .cfa -16 + ^ x21: .cfa -24 + ^ x22: .cfa -32 + ^ .ra: .cfa -40 + ^ x29: .cfa -48 + ^
STACK CFI 7239c .cfa: sp 96 +
STACK CFI 723ac .cfa: sp 0 +
STACK CFI 723b0 .cfa: x29 48 +
STACK CFI INIT 72400 b4 .cfa: sp 0 +
STACK CFI 72404 .cfa: sp 80 +
STACK CFI 72410 .cfa: x29 32 + x19: .cfa -8 + ^ x20: .cfa -16 + ^ .ra: .cfa -24 + ^ x29: .cfa -32 + ^
STACK CFI 72474 .cfa: sp 80 +
STACK CFI 72480 .cfa: sp 0 +
STACK CFI 72484 .cfa: x29 32 +
STACK CFI INIT 724b4 f70 .cfa: sp 0 +
STACK CFI 724b8 .cfa: sp 96 +
STACK CFI 724cc .cfa: x29 64 + x19: .cfa -8 + ^ x20: .cfa -16 + ^ x21: .cfa -24 + ^ x22: .cfa -32 + ^ x23: .cfa -40 + ^ x24: .cfa -48 + ^ .ra: .cfa -56 + ^ x29: .cfa -64 + ^
STACK CFI 733a0 .cfa: sp 96 +
STACK CFI 733b4 .cfa: sp 0 +
STACK CFI 733b8 .cfa: x29 64 +
STACK CFI INIT 734a8 1cc .cfa: sp 0 +
STACK CFI 734ac .cfa: sp 144 +
STACK CFI 734bc .cfa: x29 48 + x19: .cfa -8 + ^ x20: .cfa -16 + ^ x21: .cfa -32 + ^ .ra: .cfa -40 + ^ x29: .cfa -48 + ^
STACK CFI 7360c .cfa: sp 144 +
STACK CFI 7361c .cfa: sp 0 +
STACK CFI 73620 .cfa: x29 48 +
STACK CFI INIT 736b8 498 .cfa: sp 0 +
STACK CFI 736bc .cfa: sp 256 +
STACK CFI 736d8 .cfa: x29 96 + x19: .cfa -8 + ^ x20: .cfa -16 + ^ x21: .cfa -24 + ^ x22: .cfa -32 + ^ x23: .cfa -40 + ^ x24: .cfa -48 + ^ x25: .cfa -56 + ^ x26: .cfa -64 + ^ x27: .cfa -72 + ^ x28: .cfa -80 + ^ .ra: .cfa -88 + ^ x29: .cfa -96 + ^
STACK CFI 73a4c .cfa: sp 256 +
STACK CFI 73a68 .cfa: sp 0 +
STACK CFI 73a6c .cfa: x29 96 +
STACK CFI INIT 73b50 2b4 .cfa: sp 0 +
STACK CFI 73b54 .cfa: sp 144 +
STACK CFI 73b68 .cfa: x29 64 + x19: .cfa -8 + ^ x20: .cfa -16 + ^ x21: .cfa -24 + ^ x22: .cfa -32 + ^ x23: .cfa -48 + ^ .ra: .cfa -56 + ^ x29: .cfa -64 + ^
STACK CFI 73d34 .cfa: sp 144 +
STACK CFI 73d48 .cfa: sp 0 +
STACK CFI 73d4c .cfa: x29 64 +
STACK CFI INIT 73e04 108 .cfa: sp 0 +
STACK CFI 73e08 .cfa: sp 112 +
STACK CFI 73e14 .cfa: x29 32 + x19: .cfa -8 + ^ x20: .cfa -16 + ^ .ra: .cfa -24 + ^ x29: .cfa -32 + ^
STACK CFI 73ecc .cfa: sp 112 +
STACK CFI 73ed8 .cfa: sp 0 +
STACK CFI 73edc .cfa: x29 32 +
STACK CFI INIT 73f10 1bc .cfa: sp 0 +
STACK CFI 73f14 .cfa: sp 176 +
STACK CFI 73f28 .cfa: x29 64 + x19: .cfa -8 + ^ x20: .cfa -16 + ^ x21: .cfa -24 + ^ x22: .cfa -32 + ^ x23: .cfa -40 + ^ x24: .cfa -48 + ^ .ra: .cfa -56 + ^ x29: .cfa -64 + ^
STACK CFI 73fd0 .cfa: sp 176 +
STACK CFI 73fe4 .cfa: sp 0 +
STACK CFI 73fe8 .cfa: x29 64 +
STACK CFI INIT 740cc 180 .cfa: sp 0 +
STACK CFI 740d0 .cfa: sp 144 +
STACK CFI 740e8 .cfa: x29 80 + x19: .cfa -8 + ^ x20: .cfa -16 + ^ x21: .cfa -24 + ^ x22: .cfa -32 + ^ x23: .cfa -40 + ^ x24: .cfa -48 + ^ x25: .cfa -64 + ^ .ra: .cfa -72 + ^ x29: .cfa -80 + ^
STACK CFI 741e4 .cfa: sp 144 +
STACK CFI 741fc .cfa: sp 0 +
STACK CFI 74200 .cfa: x29 80 +
STACK CFI INIT 74284 124 .cfa: sp 0 +
STACK CFI 74288 .cfa: sp 96 +
STACK CFI 74298 .cfa: x29 48 + x19: .cfa -8 + ^ x20: .cfa -16 + ^ x21: .cfa -24 + ^ x22: .cfa -32 + ^ .ra: .cfa -40 + ^ x29: .cfa -48 + ^
STACK CFI 74344 .cfa: sp 96 +
STACK CFI 74354 .cfa: sp 0 +
STACK CFI 74358 .cfa: x29 48 +
STACK CFI INIT 743a8 b4 .cfa: sp 0 +
STACK CFI 743ac .cfa: sp 80 +
STACK CFI 743b8 .cfa: x29 32 + x19: .cfa -8 + ^ x20: .cfa -16 + ^ .ra: .cfa -24 + ^ x29: .cfa -32 + ^
STACK CFI 7441c .cfa: sp 80 +
STACK CFI 74428 .cfa: sp 0 +
STACK CFI 7442c .cfa: x29 32 +
STACK CFI INIT 7445c 1150 .cfa: sp 0 +
STACK CFI 74460 .cfa: sp 144 +
STACK CFI 7447c .cfa: x29 80 + x19: .cfa -8 + ^ x20: .cfa -16 + ^ x21: .cfa -24 + ^ x22: .cfa -32 + ^ x23: .cfa -40 + ^ x24: .cfa -48 + ^ x25: .cfa -56 + ^ x26: .cfa -64 + ^ .ra: .cfa -72 + ^ x29: .cfa -80 + ^ v8: .cfa -88 + ^ v9: .cfa -96 + ^
STACK CFI 754f4 .cfa: sp 144 +
STACK CFI 75510 .cfa: sp 0 +
STACK CFI 75514 .cfa: x29 80 +
STACK CFI INIT 75630 1d8 .cfa: sp 0 +
STACK CFI 75634 .cfa: sp 128 +
STACK CFI 75644 .cfa: x29 48 + x19: .cfa -8 + ^ x20: .cfa -16 + ^ x21: .cfa -32 + ^ .ra: .cfa -40 + ^ x29: .cfa -48 + ^
STACK CFI 757a0 .cfa: sp 128 +
STACK CFI 757b0 .cfa: sp 0 +
STACK CFI 757b4 .cfa: x29 48 +
STACK CFI INIT 7584c 498 .cfa: sp 0 +
STACK CFI 75850 .cfa: sp 256 +
STACK CFI 7586c .cfa: x29 96 + x19: .cfa -8 + ^ x20: .cfa -16 + ^ x21: .cfa -24 + ^ x22: .cfa -32 + ^ x23: .cfa -40 + ^ x24: .cfa -48 + ^ x25: .cfa -56 + ^ x26: .cfa -64 + ^ x27: .cfa -72 + ^ x28: .cfa -80 + ^ .ra: .cfa -88 + ^ x29: .cfa -96 + ^
STACK CFI 75be0 .cfa: sp 256 +
STACK CFI 75bfc .cfa: sp 0 +
STACK CFI 75c00 .cfa: x29 96 +
STACK CFI INIT 75ce4 2e4 .cfa: sp 0 +
STACK CFI 75ce8 .cfa: sp 176 +
STACK CFI 75cfc .cfa: x29 64 + x19: .cfa -8 + ^ x20: .cfa -16 + ^ x21: .cfa -24 + ^ x22: .cfa -32 + ^ x23: .cfa -48 + ^ .ra: .cfa -56 + ^ x29: .cfa -64 + ^
STACK CFI 75ef0 .cfa: sp 176 +
STACK CFI 75f04 .cfa: sp 0 +
STACK CFI 75f08 .cfa: x29 64 +
STACK CFI INIT 75fc8 120 .cfa: sp 0 +
STACK CFI 75fcc .cfa: sp 112 +
STACK CFI 75fd8 .cfa: x29 32 + x19: .cfa -8 + ^ x20: .cfa -16 + ^ .ra: .cfa -24 + ^ x29: .cfa -32 + ^
STACK CFI 760a8 .cfa: sp 112 +
STACK CFI 760b4 .cfa: sp 0 +
STACK CFI 760b8 .cfa: x29 32 +
STACK CFI INIT 760ec 1bc .cfa: sp 0 +
STACK CFI 760f0 .cfa: sp 176 +
STACK CFI 76104 .cfa: x29 64 + x19: .cfa -8 + ^ x20: .cfa -16 + ^ x21: .cfa -24 + ^ x22: .cfa -32 + ^ x23: .cfa -40 + ^ x24: .cfa -48 + ^ .ra: .cfa -56 + ^ x29: .cfa -64 + ^
STACK CFI 761ac .cfa: sp 176 +
STACK CFI 761c0 .cfa: sp 0 +
STACK CFI 761c4 .cfa: x29 64 +
STACK CFI INIT 762a8 134 .cfa: sp 0 +
STACK CFI 762ac .cfa: sp 128 +
STACK CFI 762c0 .cfa: x29 64 + x19: .cfa -8 + ^ x20: .cfa -16 + ^ x21: .cfa -24 + ^ x22: .cfa -32 + ^ x23: .cfa -40 + ^ x24: .cfa -48 + ^ .ra: .cfa -56 + ^ x29: .cfa -64 + ^
STACK CFI 7638c .cfa: sp 128 +
STACK CFI 763a0 .cfa: sp 0 +
STACK CFI 763a4 .cfa: x29 64 +
STACK CFI INIT 76404 120 .cfa: sp 0 +
STACK CFI 76408 .cfa: sp 48 +
STACK CFI 76414 .cfa: x29 48 + x19: .cfa -8 + ^ x20: .cfa -16 + ^ x21: .cfa -24 + ^ x22: .cfa -32 + ^ .ra: .cfa -40 + ^ x29: .cfa -48 + ^
STACK CFI 76460 .cfa: sp 48 +
STACK CFI 7646c .cfa: sp 0 +
STACK CFI 76470 .cfa: x29 48 +
STACK CFI 76474 .cfa: sp 48 +
STACK CFI 76480 .cfa: sp 0 +
STACK CFI 76484 .cfa: x29 48 +
STACK CFI INIT 76524 13c .cfa: sp 0 +
STACK CFI 76528 .cfa: sp 96 +
STACK CFI 7653c .cfa: x29 64 + x19: .cfa -8 + ^ x20: .cfa -16 + ^ x21: .cfa -24 + ^ x22: .cfa -32 + ^ x23: .cfa -48 + ^ .ra: .cfa -56 + ^ x29: .cfa -64 + ^
STACK CFI 765f8 .cfa: sp 96 +
STACK CFI 7660c .cfa: sp 0 +
STACK CFI 76610 .cfa: x29 64 +
STACK CFI INIT 76660 c0 .cfa: sp 0 +
STACK CFI 76664 .cfa: sp 80 +
STACK CFI 76670 .cfa: x29 32 + x19: .cfa -8 + ^ x20: .cfa -16 + ^ .ra: .cfa -24 + ^ x29: .cfa -32 + ^
STACK CFI 766e0 .cfa: sp 80 +
STACK CFI 766ec .cfa: sp 0 +
STACK CFI 766f0 .cfa: x29 32 +
STACK CFI INIT 76720 ab8 .cfa: sp 0 +
STACK CFI 76724 .cfa: sp 160 +
STACK CFI 76740 .cfa: x29 96 + x19: .cfa -8 + ^ x20: .cfa -16 + ^ x21: .cfa -24 + ^ x22: .cfa -32 + ^ x23: .cfa -40 + ^ x24: .cfa -48 + ^ x25: .cfa -56 + ^ x26: .cfa -64 + ^ x27: .cfa -72 + ^ x28: .cfa -80 + ^ .ra: .cfa -88 + ^ x29: .cfa -96 + ^
STACK CFI 770b8 .cfa: sp 160 +
STACK CFI 770d4 .cfa: sp 0 +
STACK CFI 770d8 .cfa: x29 96 +
STACK CFI INIT 77444 1cc .cfa: sp 0 +
STACK CFI 77448 .cfa: sp 128 +
STACK CFI 77458 .cfa: x29 48 + x19: .cfa -8 + ^ x20: .cfa -16 + ^ x21: .cfa -32 + ^ .ra: .cfa -40 + ^ x29: .cfa -48 + ^
STACK CFI 775a8 .cfa: sp 128 +
STACK CFI 775b8 .cfa: sp 0 +
STACK CFI 775bc .cfa: x29 48 +
STACK CFI INIT 77654 498 .cfa: sp 0 +
STACK CFI 77658 .cfa: sp 256 +
STACK CFI 77674 .cfa: x29 96 + x19: .cfa -8 + ^ x20: .cfa -16 + ^ x21: .cfa -24 + ^ x22: .cfa -32 + ^ x23: .cfa -40 + ^ x24: .cfa -48 + ^ x25: .cfa -56 + ^ x26: .cfa -64 + ^ x27: .cfa -72 + ^ x28: .cfa -80 + ^ .ra: .cfa -88 + ^ x29: .cfa -96 + ^
STACK CFI 779e8 .cfa: sp 256 +
STACK CFI 77a04 .cfa: sp 0 +
STACK CFI 77a08 .cfa: x29 96 +
STACK CFI INIT 77aec 2dc .cfa: sp 0 +
STACK CFI 77af0 .cfa: sp 160 +
STACK CFI 77b04 .cfa: x29 64 + x19: .cfa -8 + ^ x20: .cfa -16 + ^ x21: .cfa -24 + ^ x22: .cfa -32 + ^ x23: .cfa -48 + ^ .ra: .cfa -56 + ^ x29: .cfa -64 + ^
STACK CFI 77cf0 .cfa: sp 160 +
STACK CFI 77d04 .cfa: sp 0 +
STACK CFI 77d08 .cfa: x29 64 +
STACK CFI INIT 77dc8 120 .cfa: sp 0 +
STACK CFI 77dcc .cfa: sp 112 +
STACK CFI 77dd8 .cfa: x29 32 + x19: .cfa -8 + ^ x20: .cfa -16 + ^ .ra: .cfa -24 + ^ x29: .cfa -32 + ^
STACK CFI 77ea8 .cfa: sp 112 +
STACK CFI 77eb4 .cfa: sp 0 +
STACK CFI 77eb8 .cfa: x29 32 +
STACK CFI INIT 77eec 1bc .cfa: sp 0 +
STACK CFI 77ef0 .cfa: sp 176 +
STACK CFI 77f04 .cfa: x29 64 + x19: .cfa -8 + ^ x20: .cfa -16 + ^ x21: .cfa -24 + ^ x22: .cfa -32 + ^ x23: .cfa -40 + ^ x24: .cfa -48 + ^ .ra: .cfa -56 + ^ x29: .cfa -64 + ^
STACK CFI 77fac .cfa: sp 176 +
STACK CFI 77fc0 .cfa: sp 0 +
STACK CFI 77fc4 .cfa: x29 64 +
STACK CFI INIT 780a8 134 .cfa: sp 0 +
STACK CFI 780ac .cfa: sp 128 +
STACK CFI 780c0 .cfa: x29 64 + x19: .cfa -8 + ^ x20: .cfa -16 + ^ x21: .cfa -24 + ^ x22: .cfa -32 + ^ x23: .cfa -40 + ^ x24: .cfa -48 + ^ .ra: .cfa -56 + ^ x29: .cfa -64 + ^
STACK CFI 7818c .cfa: sp 128 +
STACK CFI 781a0 .cfa: sp 0 +
STACK CFI 781a4 .cfa: x29 64 +
STACK CFI INIT 78204 118 .cfa: sp 0 +
STACK CFI 78208 .cfa: sp 48 +
STACK CFI 78214 .cfa: x29 48 + x19: .cfa -8 + ^ x20: .cfa -16 + ^ x21: .cfa -24 + ^ x22: .cfa -32 + ^ .ra: .cfa -40 + ^ x29: .cfa -48 + ^
STACK CFI 78260 .cfa: sp 48 +
STACK CFI 7826c .cfa: sp 0 +
STACK CFI 78270 .cfa: x29 48 +
STACK CFI 78274 .cfa: sp 48 +
STACK CFI 78280 .cfa: sp 0 +
STACK CFI 78284 .cfa: x29 48 +
STACK CFI INIT 7831c 134 .cfa: sp 0 +
STACK CFI 78320 .cfa: sp 96 +
STACK CFI 78334 .cfa: x29 64 + x19: .cfa -8 + ^ x20: .cfa -16 + ^ x21: .cfa -24 + ^ x22: .cfa -32 + ^ x23: .cfa -48 + ^ .ra: .cfa -56 + ^ x29: .cfa -64 + ^
STACK CFI 783e8 .cfa: sp 96 +
STACK CFI 783fc .cfa: sp 0 +
STACK CFI 78400 .cfa: x29 64 +
STACK CFI INIT 78450 bc .cfa: sp 0 +
STACK CFI 78454 .cfa: sp 80 +
STACK CFI 78460 .cfa: x29 32 + x19: .cfa -8 + ^ x20: .cfa -16 + ^ .ra: .cfa -24 + ^ x29: .cfa -32 + ^
STACK CFI 784cc .cfa: sp 80 +
STACK CFI 784d8 .cfa: sp 0 +
STACK CFI 784dc .cfa: x29 32 +
STACK CFI INIT 7850c 230 .cfa: sp 0 +
STACK CFI 78510 .cfa: sp 112 +
STACK CFI 78528 .cfa: x29 80 + x19: .cfa -8 + ^ x20: .cfa -16 + ^ x21: .cfa -24 + ^ x22: .cfa -32 + ^ x23: .cfa -40 + ^ x24: .cfa -48 + ^ x25: .cfa -56 + ^ x26: .cfa -64 + ^ .ra: .cfa -72 + ^ x29: .cfa -80 + ^
STACK CFI 786d8 .cfa: sp 112 +
STACK CFI 786f0 .cfa: sp 0 +
STACK CFI 786f4 .cfa: x29 80 +
STACK CFI INIT 787c0 250 .cfa: sp 0 +
STACK CFI 787c4 .cfa: sp 128 +
STACK CFI 787d4 .cfa: x29 48 + x19: .cfa -8 + ^ x20: .cfa -16 + ^ x21: .cfa -32 + ^ .ra: .cfa -40 + ^ x29: .cfa -48 + ^
STACK CFI 789a8 .cfa: sp 128 +
STACK CFI 789b8 .cfa: sp 0 +
STACK CFI 789bc .cfa: x29 48 +
STACK CFI INIT 78a54 498 .cfa: sp 0 +
STACK CFI 78a58 .cfa: sp 256 +
STACK CFI 78a74 .cfa: x29 96 + x19: .cfa -8 + ^ x20: .cfa -16 + ^ x21: .cfa -24 + ^ x22: .cfa -32 + ^ x23: .cfa -40 + ^ x24: .cfa -48 + ^ x25: .cfa -56 + ^ x26: .cfa -64 + ^ x27: .cfa -72 + ^ x28: .cfa -80 + ^ .ra: .cfa -88 + ^ x29: .cfa -96 + ^
STACK CFI 78de8 .cfa: sp 256 +
STACK CFI 78e04 .cfa: sp 0 +
STACK CFI 78e08 .cfa: x29 96 +
STACK CFI INIT 78eec 2ac .cfa: sp 0 +
STACK CFI 78ef0 .cfa: sp 128 +
STACK CFI 78f04 .cfa: x29 64 + x19: .cfa -8 + ^ x20: .cfa -16 + ^ x21: .cfa -24 + ^ x22: .cfa -32 + ^ x23: .cfa -48 + ^ .ra: .cfa -56 + ^ x29: .cfa -64 + ^
STACK CFI 790c8 .cfa: sp 128 +
STACK CFI 790dc .cfa: sp 0 +
STACK CFI 790e0 .cfa: x29 64 +
STACK CFI INIT 79198 108 .cfa: sp 0 +
STACK CFI 7919c .cfa: sp 112 +
STACK CFI 791a8 .cfa: x29 32 + x19: .cfa -8 + ^ x20: .cfa -16 + ^ .ra: .cfa -24 + ^ x29: .cfa -32 + ^
STACK CFI 79260 .cfa: sp 112 +
STACK CFI 7926c .cfa: sp 0 +
STACK CFI 79270 .cfa: x29 32 +
STACK CFI INIT 792a4 1bc .cfa: sp 0 +
STACK CFI 792a8 .cfa: sp 176 +
STACK CFI 792bc .cfa: x29 64 + x19: .cfa -8 + ^ x20: .cfa -16 + ^ x21: .cfa -24 + ^ x22: .cfa -32 + ^ x23: .cfa -40 + ^ x24: .cfa -48 + ^ .ra: .cfa -56 + ^ x29: .cfa -64 + ^
STACK CFI 79364 .cfa: sp 176 +
STACK CFI 79378 .cfa: sp 0 +
STACK CFI 7937c .cfa: x29 64 +
STACK CFI INIT 79460 118 .cfa: sp 0 +
STACK CFI 79464 .cfa: sp 144 +
STACK CFI 7947c .cfa: x29 80 + x19: .cfa -8 + ^ x20: .cfa -16 + ^ x21: .cfa -24 + ^ x22: .cfa -32 + ^ x23: .cfa -40 + ^ x24: .cfa -48 + ^ x25: .cfa -64 + ^ .ra: .cfa -72 + ^ x29: .cfa -80 + ^
STACK CFI 79524 .cfa: sp 144 +
STACK CFI 7953c .cfa: sp 0 +
STACK CFI 79540 .cfa: x29 80 +
STACK CFI INIT 795b0 280 .cfa: sp 0 +
STACK CFI 795b4 .cfa: sp 96 +
STACK CFI 795c8 .cfa: x29 64 + x19: .cfa -8 + ^ x20: .cfa -16 + ^ x21: .cfa -24 + ^ x22: .cfa -32 + ^ x23: .cfa -40 + ^ x24: .cfa -48 + ^ .ra: .cfa -56 + ^ x29: .cfa -64 + ^
STACK CFI 796f0 .cfa: sp 96 +
STACK CFI 79704 .cfa: sp 0 +
STACK CFI 79708 .cfa: x29 64 +
STACK CFI 797d0 .cfa: sp 96 +
STACK CFI 797e4 .cfa: sp 0 +
STACK CFI 797e8 .cfa: x29 64 +
STACK CFI INIT 79830 12c .cfa: sp 0 +
STACK CFI 79834 .cfa: sp 96 +
STACK CFI 79848 .cfa: x29 64 + x19: .cfa -8 + ^ x20: .cfa -16 + ^ x21: .cfa -24 + ^ x22: .cfa -32 + ^ x23: .cfa -48 + ^ .ra: .cfa -56 + ^ x29: .cfa -64 + ^
STACK CFI 798f4 .cfa: sp 96 +
STACK CFI 79908 .cfa: sp 0 +
STACK CFI 7990c .cfa: x29 64 +
STACK CFI INIT 7995c b8 .cfa: sp 0 +
STACK CFI 79960 .cfa: sp 80 +
STACK CFI 7996c .cfa: x29 32 + x19: .cfa -8 + ^ x20: .cfa -16 + ^ .ra: .cfa -24 + ^ x29: .cfa -32 + ^
STACK CFI 799d4 .cfa: sp 80 +
STACK CFI 799e0 .cfa: sp 0 +
STACK CFI 799e4 .cfa: x29 32 +
STACK CFI INIT 79a14 27c .cfa: sp 0 +
STACK CFI 79a18 .cfa: sp 96 +
STACK CFI 79a2c .cfa: x29 64 + x19: .cfa -8 + ^ x20: .cfa -16 + ^ x21: .cfa -24 + ^ x22: .cfa -32 + ^ x23: .cfa -48 + ^ .ra: .cfa -56 + ^ x29: .cfa -64 + ^
STACK CFI 79c40 .cfa: sp 96 +
STACK CFI 79c54 .cfa: sp 0 +
STACK CFI 79c58 .cfa: x29 64 +
STACK CFI INIT 79d14 1d8 .cfa: sp 0 +
STACK CFI 79d18 .cfa: sp 128 +
STACK CFI 79d28 .cfa: x29 48 + x19: .cfa -8 + ^ x20: .cfa -16 + ^ x21: .cfa -32 + ^ .ra: .cfa -40 + ^ x29: .cfa -48 + ^
STACK CFI 79e84 .cfa: sp 128 +
STACK CFI 79e94 .cfa: sp 0 +
STACK CFI 79e98 .cfa: x29 48 +
STACK CFI INIT 79f30 498 .cfa: sp 0 +
STACK CFI 79f34 .cfa: sp 256 +
STACK CFI 79f50 .cfa: x29 96 + x19: .cfa -8 + ^ x20: .cfa -16 + ^ x21: .cfa -24 + ^ x22: .cfa -32 + ^ x23: .cfa -40 + ^ x24: .cfa -48 + ^ x25: .cfa -56 + ^ x26: .cfa -64 + ^ x27: .cfa -72 + ^ x28: .cfa -80 + ^ .ra: .cfa -88 + ^ x29: .cfa -96 + ^
STACK CFI 7a2c4 .cfa: sp 256 +
STACK CFI 7a2e0 .cfa: sp 0 +
STACK CFI 7a2e4 .cfa: x29 96 +
STACK CFI INIT 7a3c8 2b8 .cfa: sp 0 +
STACK CFI 7a3cc .cfa: sp 144 +
STACK CFI 7a3e0 .cfa: x29 64 + x19: .cfa -8 + ^ x20: .cfa -16 + ^ x21: .cfa -24 + ^ x22: .cfa -32 + ^ x23: .cfa -48 + ^ .ra: .cfa -56 + ^ x29: .cfa -64 + ^
STACK CFI 7a5b0 .cfa: sp 144 +
STACK CFI 7a5c4 .cfa: sp 0 +
STACK CFI 7a5c8 .cfa: x29 64 +
STACK CFI INIT 7a680 108 .cfa: sp 0 +
STACK CFI 7a684 .cfa: sp 112 +
STACK CFI 7a690 .cfa: x29 32 + x19: .cfa -8 + ^ x20: .cfa -16 + ^ .ra: .cfa -24 + ^ x29: .cfa -32 + ^
STACK CFI 7a748 .cfa: sp 112 +
STACK CFI 7a754 .cfa: sp 0 +
STACK CFI 7a758 .cfa: x29 32 +
STACK CFI INIT 7a78c 1bc .cfa: sp 0 +
STACK CFI 7a790 .cfa: sp 176 +
STACK CFI 7a7a4 .cfa: x29 64 + x19: .cfa -8 + ^ x20: .cfa -16 + ^ x21: .cfa -24 + ^ x22: .cfa -32 + ^ x23: .cfa -40 + ^ x24: .cfa -48 + ^ .ra: .cfa -56 + ^ x29: .cfa -64 + ^
STACK CFI 7a84c .cfa: sp 176 +
STACK CFI 7a860 .cfa: sp 0 +
STACK CFI 7a864 .cfa: x29 64 +
STACK CFI INIT 7a948 118 .cfa: sp 0 +
STACK CFI 7a94c .cfa: sp 144 +
STACK CFI 7a964 .cfa: x29 80 + x19: .cfa -8 + ^ x20: .cfa -16 + ^ x21: .cfa -24 + ^ x22: .cfa -32 + ^ x23: .cfa -40 + ^ x24: .cfa -48 + ^ x25: .cfa -64 + ^ .ra: .cfa -72 + ^ x29: .cfa -80 + ^
STACK CFI 7aa0c .cfa: sp 144 +
STACK CFI 7aa24 .cfa: sp 0 +
STACK CFI 7aa28 .cfa: x29 80 +
STACK CFI INIT 7aa98 474 .cfa: sp 0 +
STACK CFI 7aa9c .cfa: sp 128 +
STACK CFI 7aab4 .cfa: x29 80 + x19: .cfa -8 + ^ x20: .cfa -16 + ^ x21: .cfa -24 + ^ x22: .cfa -32 + ^ x23: .cfa -40 + ^ x24: .cfa -48 + ^ x25: .cfa -64 + ^ .ra: .cfa -72 + ^ x29: .cfa -80 + ^
STACK CFI 7ada4 .cfa: sp 128 +
STACK CFI 7adbc .cfa: sp 0 +
STACK CFI 7adc0 .cfa: x29 80 +
STACK CFI 7ae88 .cfa: sp 128 +
STACK CFI 7aea0 .cfa: sp 0 +
STACK CFI 7aea4 .cfa: x29 80 +
STACK CFI INIT 7af0c 13c .cfa: sp 0 +
STACK CFI 7af10 .cfa: sp 96 +
STACK CFI 7af24 .cfa: x29 64 + x19: .cfa -8 + ^ x20: .cfa -16 + ^ x21: .cfa -24 + ^ x22: .cfa -32 + ^ x23: .cfa -48 + ^ .ra: .cfa -56 + ^ x29: .cfa -64 + ^
STACK CFI 7afe0 .cfa: sp 96 +
STACK CFI 7aff4 .cfa: sp 0 +
STACK CFI 7aff8 .cfa: x29 64 +
STACK CFI INIT 7b048 c0 .cfa: sp 0 +
STACK CFI 7b04c .cfa: sp 80 +
STACK CFI 7b058 .cfa: x29 32 + x19: .cfa -8 + ^ x20: .cfa -16 + ^ .ra: .cfa -24 + ^ x29: .cfa -32 + ^
STACK CFI 7b0c8 .cfa: sp 80 +
STACK CFI 7b0d4 .cfa: sp 0 +
STACK CFI 7b0d8 .cfa: x29 32 +
STACK CFI INIT 7b108 cc0 .cfa: sp 0 +
STACK CFI 7b10c .cfa: sp 128 +
STACK CFI 7b124 .cfa: x29 80 + x19: .cfa -8 + ^ x20: .cfa -16 + ^ x21: .cfa -24 + ^ x22: .cfa -32 + ^ x23: .cfa -40 + ^ x24: .cfa -48 + ^ x25: .cfa -56 + ^ x26: .cfa -64 + ^ .ra: .cfa -72 + ^ x29: .cfa -80 + ^
STACK CFI 7bd40 .cfa: sp 128 +
STACK CFI 7bd58 .cfa: sp 0 +
STACK CFI 7bd5c .cfa: x29 80 +
STACK CFI INIT 7bdc8 200 .cfa: sp 0 +
STACK CFI 7bdcc .cfa: sp 96 +
STACK CFI 7bde0 .cfa: x29 64 + x19: .cfa -8 + ^ x20: .cfa -16 + ^ x21: .cfa -24 + ^ x22: .cfa -32 + ^ x23: .cfa -48 + ^ .ra: .cfa -56 + ^ x29: .cfa -64 + ^
STACK CFI 7bf80 .cfa: sp 96 +
STACK CFI 7bf94 .cfa: sp 0 +
STACK CFI 7bf98 .cfa: x29 64 +
STACK CFI INIT 7c04c 1e0 .cfa: sp 0 +
STACK CFI 7c050 .cfa: sp 128 +
STACK CFI 7c060 .cfa: x29 48 + x19: .cfa -8 + ^ x20: .cfa -16 + ^ x21: .cfa -32 + ^ .ra: .cfa -40 + ^ x29: .cfa -48 + ^
STACK CFI 7c1c4 .cfa: sp 128 +
STACK CFI 7c1d4 .cfa: sp 0 +
STACK CFI 7c1d8 .cfa: x29 48 +
STACK CFI INIT 7c270 498 .cfa: sp 0 +
STACK CFI 7c274 .cfa: sp 256 +
STACK CFI 7c290 .cfa: x29 96 + x19: .cfa -8 + ^ x20: .cfa -16 + ^ x21: .cfa -24 + ^ x22: .cfa -32 + ^ x23: .cfa -40 + ^ x24: .cfa -48 + ^ x25: .cfa -56 + ^ x26: .cfa -64 + ^ x27: .cfa -72 + ^ x28: .cfa -80 + ^ .ra: .cfa -88 + ^ x29: .cfa -96 + ^
STACK CFI 7c604 .cfa: sp 256 +
STACK CFI 7c620 .cfa: sp 0 +
STACK CFI 7c624 .cfa: x29 96 +
STACK CFI INIT 7c708 4fc .cfa: sp 0 +
STACK CFI 7c70c .cfa: sp 176 +
STACK CFI 7c720 .cfa: x29 64 + x19: .cfa -8 + ^ x20: .cfa -16 + ^ x21: .cfa -24 + ^ x22: .cfa -32 + ^ x23: .cfa -40 + ^ x24: .cfa -48 + ^ .ra: .cfa -56 + ^ x29: .cfa -64 + ^
STACK CFI 7cabc .cfa: sp 176 +
STACK CFI 7cad0 .cfa: sp 0 +
STACK CFI 7cad4 .cfa: x29 64 +
STACK CFI INIT 7cc04 1a8 .cfa: sp 0 +
STACK CFI 7cc08 .cfa: sp 128 +
STACK CFI 7cc18 .cfa: x29 48 + x19: .cfa -8 + ^ x20: .cfa -16 + ^ x21: .cfa -32 + ^ .ra: .cfa -40 + ^ x29: .cfa -48 + ^
STACK CFI 7cd64 .cfa: sp 128 +
STACK CFI 7cd74 .cfa: sp 0 +
STACK CFI 7cd78 .cfa: x29 48 +
STACK CFI INIT 7cdb0 1bc .cfa: sp 0 +
STACK CFI 7cdb4 .cfa: sp 176 +
STACK CFI 7cdc8 .cfa: x29 64 + x19: .cfa -8 + ^ x20: .cfa -16 + ^ x21: .cfa -24 + ^ x22: .cfa -32 + ^ x23: .cfa -40 + ^ x24: .cfa -48 + ^ .ra: .cfa -56 + ^ x29: .cfa -64 + ^
STACK CFI 7ce70 .cfa: sp 176 +
STACK CFI 7ce84 .cfa: sp 0 +
STACK CFI 7ce88 .cfa: x29 64 +
STACK CFI INIT 7cf6c 118 .cfa: sp 0 +
STACK CFI 7cf70 .cfa: sp 144 +
STACK CFI 7cf88 .cfa: x29 80 + x19: .cfa -8 + ^ x20: .cfa -16 + ^ x21: .cfa -24 + ^ x22: .cfa -32 + ^ x23: .cfa -40 + ^ x24: .cfa -48 + ^ x25: .cfa -64 + ^ .ra: .cfa -72 + ^ x29: .cfa -80 + ^
STACK CFI 7d030 .cfa: sp 144 +
STACK CFI 7d048 .cfa: sp 0 +
STACK CFI 7d04c .cfa: x29 80 +
STACK CFI INIT 7d0bc 180 .cfa: sp 0 +
STACK CFI 7d0c0 .cfa: sp 160 +
STACK CFI 7d0d8 .cfa: x29 80 + x19: .cfa -8 + ^ x20: .cfa -16 + ^ x21: .cfa -24 + ^ x22: .cfa -32 + ^ x23: .cfa -40 + ^ x24: .cfa -48 + ^ x25: .cfa -64 + ^ .ra: .cfa -72 + ^ x29: .cfa -80 + ^
STACK CFI 7d1d4 .cfa: sp 160 +
STACK CFI 7d1ec .cfa: sp 0 +
STACK CFI 7d1f0 .cfa: x29 80 +
STACK CFI INIT 7d240 1a0 .cfa: sp 0 +
STACK CFI 7d244 .cfa: sp 80 +
STACK CFI 7d258 .cfa: x29 64 + x19: .cfa -8 + ^ x20: .cfa -16 + ^ x21: .cfa -24 + ^ x22: .cfa -32 + ^ x23: .cfa -40 + ^ x24: .cfa -48 + ^ .ra: .cfa -56 + ^ x29: .cfa -64 + ^
STACK CFI 7d36c .cfa: sp 80 +
STACK CFI 7d380 .cfa: sp 0 +
STACK CFI 7d384 .cfa: x29 64 +
STACK CFI 7d390 .cfa: sp 80 +
STACK CFI 7d3a4 .cfa: sp 0 +
STACK CFI 7d3a8 .cfa: x29 64 +
STACK CFI INIT 7d3e0 13c .cfa: sp 0 +
STACK CFI 7d3e4 .cfa: sp 96 +
STACK CFI 7d3f8 .cfa: x29 64 + x19: .cfa -8 + ^ x20: .cfa -16 + ^ x21: .cfa -24 + ^ x22: .cfa -32 + ^ x23: .cfa -48 + ^ .ra: .cfa -56 + ^ x29: .cfa -64 + ^
STACK CFI 7d4b4 .cfa: sp 96 +
STACK CFI 7d4c8 .cfa: sp 0 +
STACK CFI 7d4cc .cfa: x29 64 +
STACK CFI INIT 7d51c 2288 .cfa: sp 0 +
STACK CFI 7d520 .cfa: sp 112 +
STACK CFI 7d53c .cfa: x29 96 + x19: .cfa -8 + ^ x20: .cfa -16 + ^ x21: .cfa -24 + ^ x22: .cfa -32 + ^ x23: .cfa -40 + ^ x24: .cfa -48 + ^ x25: .cfa -56 + ^ x26: .cfa -64 + ^ x27: .cfa -72 + ^ x28: .cfa -80 + ^ .ra: .cfa -88 + ^ x29: .cfa -96 + ^ v8: .cfa -104 + ^ v9: .cfa -112 + ^
STACK CFI 7f480 .cfa: sp 112 +
STACK CFI 7f49c .cfa: sp 0 +
STACK CFI 7f4a0 .cfa: x29 96 +
STACK CFI INIT 7f8bc c0 .cfa: sp 0 +
STACK CFI 7f8c0 .cfa: sp 80 +
STACK CFI 7f8cc .cfa: x29 32 + x19: .cfa -8 + ^ x20: .cfa -16 + ^ .ra: .cfa -24 + ^ x29: .cfa -32 + ^
STACK CFI 7f93c .cfa: sp 80 +
STACK CFI 7f948 .cfa: sp 0 +
STACK CFI 7f94c .cfa: x29 32 +
STACK CFI INIT 7f97c 7e4 .cfa: sp 0 +
STACK CFI 7f980 .cfa: sp 288 +
STACK CFI 7f99c .cfa: x29 96 + x19: .cfa -8 + ^ x20: .cfa -16 + ^ x21: .cfa -24 + ^ x22: .cfa -32 + ^ x23: .cfa -40 + ^ x24: .cfa -48 + ^ x25: .cfa -56 + ^ x26: .cfa -64 + ^ x28: .cfa -80 + ^ .ra: .cfa -88 + ^ x29: .cfa -96 + ^
STACK CFI 8008c .cfa: sp 288 +
STACK CFI 800a8 .cfa: sp 0 +
STACK CFI 800ac .cfa: x29 96 +
STACK CFI INIT 80290 1e0 .cfa: sp 0 +
STACK CFI 80294 .cfa: sp 128 +
STACK CFI 802a4 .cfa: x29 48 + x19: .cfa -8 + ^ x20: .cfa -16 + ^ x21: .cfa -32 + ^ .ra: .cfa -40 + ^ x29: .cfa -48 + ^
STACK CFI 80408 .cfa: sp 128 +
STACK CFI 80418 .cfa: sp 0 +
STACK CFI 8041c .cfa: x29 48 +
STACK CFI INIT 804b4 498 .cfa: sp 0 +
STACK CFI 804b8 .cfa: sp 256 +
STACK CFI 804d4 .cfa: x29 96 + x19: .cfa -8 + ^ x20: .cfa -16 + ^ x21: .cfa -24 + ^ x22: .cfa -32 + ^ x23: .cfa -40 + ^ x24: .cfa -48 + ^ x25: .cfa -56 + ^ x26: .cfa -64 + ^ x27: .cfa -72 + ^ x28: .cfa -80 + ^ .ra: .cfa -88 + ^ x29: .cfa -96 + ^
STACK CFI 80848 .cfa: sp 256 +
STACK CFI 80864 .cfa: sp 0 +
STACK CFI 80868 .cfa: x29 96 +
STACK CFI INIT 8094c 2b0 .cfa: sp 0 +
STACK CFI 80950 .cfa: sp 144 +
STACK CFI 80964 .cfa: x29 64 + x19: .cfa -8 + ^ x20: .cfa -16 + ^ x21: .cfa -24 + ^ x22: .cfa -32 + ^ x23: .cfa -48 + ^ .ra: .cfa -56 + ^ x29: .cfa -64 + ^
STACK CFI 80b2c .cfa: sp 144 +
STACK CFI 80b40 .cfa: sp 0 +
STACK CFI 80b44 .cfa: x29 64 +
STACK CFI INIT 80bfc 104 .cfa: sp 0 +
STACK CFI 80c00 .cfa: sp 112 +
STACK CFI 80c0c .cfa: x29 32 + x19: .cfa -8 + ^ x20: .cfa -16 + ^ .ra: .cfa -24 + ^ x29: .cfa -32 + ^
STACK CFI 80cc0 .cfa: sp 112 +
STACK CFI 80ccc .cfa: sp 0 +
STACK CFI 80cd0 .cfa: x29 32 +
STACK CFI INIT 80d04 1bc .cfa: sp 0 +
STACK CFI 80d08 .cfa: sp 176 +
STACK CFI 80d1c .cfa: x29 64 + x19: .cfa -8 + ^ x20: .cfa -16 + ^ x21: .cfa -24 + ^ x22: .cfa -32 + ^ x23: .cfa -40 + ^ x24: .cfa -48 + ^ .ra: .cfa -56 + ^ x29: .cfa -64 + ^
STACK CFI 80dc4 .cfa: sp 176 +
STACK CFI 80dd8 .cfa: sp 0 +
STACK CFI 80ddc .cfa: x29 64 +
STACK CFI INIT 80ec0 134 .cfa: sp 0 +
STACK CFI 80ec4 .cfa: sp 128 +
STACK CFI 80ed8 .cfa: x29 64 + x19: .cfa -8 + ^ x20: .cfa -16 + ^ x21: .cfa -24 + ^ x22: .cfa -32 + ^ x23: .cfa -40 + ^ x24: .cfa -48 + ^ .ra: .cfa -56 + ^ x29: .cfa -64 + ^
STACK CFI 80fa4 .cfa: sp 128 +
STACK CFI 80fb8 .cfa: sp 0 +
STACK CFI 80fbc .cfa: x29 64 +
STACK CFI INIT 8102c 128 .cfa: sp 0 +
STACK CFI 81030 .cfa: sp 48 +
STACK CFI 8103c .cfa: x29 48 + x19: .cfa -8 + ^ x20: .cfa -16 + ^ x21: .cfa -24 + ^ x22: .cfa -32 + ^ .ra: .cfa -40 + ^ x29: .cfa -48 + ^
STACK CFI 81088 .cfa: sp 48 +
STACK CFI 81094 .cfa: sp 0 +
STACK CFI 81098 .cfa: x29 48 +
STACK CFI 8109c .cfa: sp 48 +
STACK CFI 810a8 .cfa: sp 0 +
STACK CFI 810ac .cfa: x29 48 +
STACK CFI INIT 81154 13c .cfa: sp 0 +
STACK CFI 81158 .cfa: sp 96 +
STACK CFI 8116c .cfa: x29 64 + x19: .cfa -8 + ^ x20: .cfa -16 + ^ x21: .cfa -24 + ^ x22: .cfa -32 + ^ x23: .cfa -48 + ^ .ra: .cfa -56 + ^ x29: .cfa -64 + ^
STACK CFI 81228 .cfa: sp 96 +
STACK CFI 8123c .cfa: sp 0 +
STACK CFI 81240 .cfa: x29 64 +
STACK CFI INIT 81290 c0 .cfa: sp 0 +
STACK CFI 81294 .cfa: sp 80 +
STACK CFI 812a0 .cfa: x29 32 + x19: .cfa -8 + ^ x20: .cfa -16 + ^ .ra: .cfa -24 + ^ x29: .cfa -32 + ^
STACK CFI 81310 .cfa: sp 80 +
STACK CFI 8131c .cfa: sp 0 +
STACK CFI 81320 .cfa: x29 32 +
STACK CFI INIT 81350 2d24 .cfa: sp 0 +
STACK CFI 81354 .cfa: sp 112 +
STACK CFI 81370 .cfa: x29 96 + x19: .cfa -8 + ^ x20: .cfa -16 + ^ x21: .cfa -24 + ^ x22: .cfa -32 + ^ x23: .cfa -40 + ^ x24: .cfa -48 + ^ x25: .cfa -56 + ^ x26: .cfa -64 + ^ x27: .cfa -72 + ^ x28: .cfa -80 + ^ .ra: .cfa -88 + ^ x29: .cfa -96 + ^ v8: .cfa -104 + ^ v9: .cfa -112 + ^
STACK CFI 83aa4 .cfa: sp 112 +
STACK CFI 83ac0 .cfa: sp 0 +
STACK CFI 83ac4 .cfa: x29 96 +
STACK CFI INIT 84418 404 .cfa: sp 0 +
STACK CFI 8441c .cfa: sp 160 +
STACK CFI 8443c .cfa: x29 88 + x19: .cfa -8 + ^ x20: .cfa -16 + ^ x21: .cfa -24 + ^ x22: .cfa -32 + ^ x23: .cfa -40 + ^ x24: .cfa -48 + ^ x25: .cfa -56 + ^ x26: .cfa -64 + ^ x27: .cfa -72 + ^ .ra: .cfa -80 + ^ x29: .cfa -88 + ^ v8: .cfa -96 + ^
STACK CFI 8475c .cfa: sp 160 +
STACK CFI 8477c .cfa: sp 0 +
STACK CFI 84780 .cfa: x29 88 +
STACK CFI INIT 8481c 308 .cfa: sp 0 +
STACK CFI 84820 .cfa: sp 144 +
STACK CFI 8483c .cfa: x29 96 + x19: .cfa -8 + ^ x20: .cfa -16 + ^ x21: .cfa -24 + ^ x22: .cfa -32 + ^ x23: .cfa -40 + ^ x24: .cfa -48 + ^ x25: .cfa -56 + ^ x26: .cfa -64 + ^ x27: .cfa -72 + ^ x28: .cfa -80 + ^ .ra: .cfa -88 + ^ x29: .cfa -96 + ^
STACK CFI 84ab8 .cfa: sp 144 +
STACK CFI 84ad4 .cfa: sp 0 +
STACK CFI 84ad8 .cfa: x29 96 +
STACK CFI INIT 84b24 358 .cfa: sp 0 +
STACK CFI 84b28 .cfa: sp 176 +
STACK CFI 84b44 .cfa: x29 96 + x19: .cfa -8 + ^ x20: .cfa -16 + ^ x21: .cfa -24 + ^ x22: .cfa -32 + ^ x23: .cfa -40 + ^ x24: .cfa -48 + ^ x25: .cfa -56 + ^ x26: .cfa -64 + ^ x27: .cfa -72 + ^ x28: .cfa -80 + ^ .ra: .cfa -88 + ^ x29: .cfa -96 + ^
STACK CFI 84e10 .cfa: sp 176 +
STACK CFI 84e2c .cfa: sp 0 +
STACK CFI 84e30 .cfa: x29 96 +
STACK CFI INIT 84e7c 160 .cfa: sp 0 +
STACK CFI 84e80 .cfa: sp 128 +
STACK CFI 84ea0 .cfa: x29 72 + x19: .cfa -8 + ^ x20: .cfa -16 + ^ x21: .cfa -24 + ^ x22: .cfa -32 + ^ x23: .cfa -40 + ^ x24: .cfa -48 + ^ x25: .cfa -56 + ^ .ra: .cfa -64 + ^ x29: .cfa -72 + ^ v8: .cfa -80 + ^ v9: .cfa -88 + ^ v10: .cfa -96 + ^
STACK CFI 84f84 .cfa: sp 128 +
STACK CFI 84fa4 .cfa: sp 0 +
STACK CFI 84fa8 .cfa: x29 72 +
STACK CFI INIT 84fdc 36c .cfa: sp 0 +
STACK CFI 84fe0 .cfa: sp 160 +
STACK CFI 84ffc .cfa: x29 96 + x19: .cfa -8 + ^ x20: .cfa -16 + ^ x21: .cfa -24 + ^ x22: .cfa -32 + ^ x23: .cfa -40 + ^ x24: .cfa -48 + ^ x25: .cfa -56 + ^ x26: .cfa -64 + ^ x27: .cfa -72 + ^ x28: .cfa -80 + ^ .ra: .cfa -88 + ^ x29: .cfa -96 + ^
STACK CFI 852dc .cfa: sp 160 +
STACK CFI 852f8 .cfa: sp 0 +
STACK CFI 852fc .cfa: x29 96 +
STACK CFI INIT 85348 348 .cfa: sp 0 +
STACK CFI 8534c .cfa: sp 144 +
STACK CFI 85368 .cfa: x29 96 + x19: .cfa -8 + ^ x20: .cfa -16 + ^ x21: .cfa -24 + ^ x22: .cfa -32 + ^ x23: .cfa -40 + ^ x24: .cfa -48 + ^ x25: .cfa -56 + ^ x26: .cfa -64 + ^ x27: .cfa -72 + ^ x28: .cfa -80 + ^ .ra: .cfa -88 + ^ x29: .cfa -96 + ^
STACK CFI 85624 .cfa: sp 144 +
STACK CFI 85640 .cfa: sp 0 +
STACK CFI 85644 .cfa: x29 96 +
STACK CFI INIT 85714 1d4 .cfa: sp 0 +
STACK CFI 85718 .cfa: sp 128 +
STACK CFI 85728 .cfa: x29 48 + x19: .cfa -8 + ^ x20: .cfa -16 + ^ x21: .cfa -24 + ^ x22: .cfa -32 + ^ .ra: .cfa -40 + ^ x29: .cfa -48 + ^
STACK CFI 85880 .cfa: sp 128 +
STACK CFI 85890 .cfa: sp 0 +
STACK CFI 85894 .cfa: x29 48 +
STACK CFI INIT 85a44 498 .cfa: sp 0 +
STACK CFI 85a48 .cfa: sp 256 +
STACK CFI 85a64 .cfa: x29 96 + x19: .cfa -8 + ^ x20: .cfa -16 + ^ x21: .cfa -24 + ^ x22: .cfa -32 + ^ x23: .cfa -40 + ^ x24: .cfa -48 + ^ x25: .cfa -56 + ^ x26: .cfa -64 + ^ x27: .cfa -72 + ^ x28: .cfa -80 + ^ .ra: .cfa -88 + ^ x29: .cfa -96 + ^
STACK CFI 85dd8 .cfa: sp 256 +
STACK CFI 85df4 .cfa: sp 0 +
STACK CFI 85df8 .cfa: x29 96 +
STACK CFI INIT 85edc 2b4 .cfa: sp 0 +
STACK CFI 85ee0 .cfa: sp 144 +
STACK CFI 85ef4 .cfa: x29 64 + x19: .cfa -8 + ^ x20: .cfa -16 + ^ x21: .cfa -24 + ^ x22: .cfa -32 + ^ x23: .cfa -48 + ^ .ra: .cfa -56 + ^ x29: .cfa -64 + ^
STACK CFI 860c0 .cfa: sp 144 +
STACK CFI 860d4 .cfa: sp 0 +
STACK CFI 860d8 .cfa: x29 64 +
STACK CFI INIT 86190 108 .cfa: sp 0 +
STACK CFI 86194 .cfa: sp 112 +
STACK CFI 861a0 .cfa: x29 32 + x19: .cfa -8 + ^ x20: .cfa -16 + ^ .ra: .cfa -24 + ^ x29: .cfa -32 + ^
STACK CFI 86258 .cfa: sp 112 +
STACK CFI 86264 .cfa: sp 0 +
STACK CFI 86268 .cfa: x29 32 +
STACK CFI INIT 8629c 1bc .cfa: sp 0 +
STACK CFI 862a0 .cfa: sp 176 +
STACK CFI 862b4 .cfa: x29 64 + x19: .cfa -8 + ^ x20: .cfa -16 + ^ x21: .cfa -24 + ^ x22: .cfa -32 + ^ x23: .cfa -40 + ^ x24: .cfa -48 + ^ .ra: .cfa -56 + ^ x29: .cfa -64 + ^
STACK CFI 8635c .cfa: sp 176 +
STACK CFI 86370 .cfa: sp 0 +
STACK CFI 86374 .cfa: x29 64 +
STACK CFI INIT 86458 118 .cfa: sp 0 +
STACK CFI 8645c .cfa: sp 144 +
STACK CFI 86474 .cfa: x29 80 + x19: .cfa -8 + ^ x20: .cfa -16 + ^ x21: .cfa -24 + ^ x22: .cfa -32 + ^ x23: .cfa -40 + ^ x24: .cfa -48 + ^ x25: .cfa -64 + ^ .ra: .cfa -72 + ^ x29: .cfa -80 + ^
STACK CFI 8651c .cfa: sp 144 +
STACK CFI 86534 .cfa: sp 0 +
STACK CFI 86538 .cfa: x29 80 +
STACK CFI INIT 865b4 1bc .cfa: sp 0 +
STACK CFI 865b8 .cfa: sp 80 +
STACK CFI 865cc .cfa: x29 64 + x19: .cfa -8 + ^ x20: .cfa -16 + ^ x21: .cfa -24 + ^ x22: .cfa -32 + ^ x23: .cfa -40 + ^ x24: .cfa -48 + ^ .ra: .cfa -56 + ^ x29: .cfa -64 + ^
STACK CFI 866fc .cfa: sp 80 +
STACK CFI 86710 .cfa: sp 0 +
STACK CFI 86714 .cfa: x29 64 +
STACK CFI 86720 .cfa: sp 80 +
STACK CFI 86734 .cfa: sp 0 +
STACK CFI 86738 .cfa: x29 64 +
STACK CFI INIT 86770 130 .cfa: sp 0 +
STACK CFI 86774 .cfa: sp 96 +
STACK CFI 86788 .cfa: x29 64 + x19: .cfa -8 + ^ x20: .cfa -16 + ^ x21: .cfa -24 + ^ x22: .cfa -32 + ^ x23: .cfa -40 + ^ x24: .cfa -48 + ^ .ra: .cfa -56 + ^ x29: .cfa -64 + ^
STACK CFI 86838 .cfa: sp 96 +
STACK CFI 8684c .cfa: sp 0 +
STACK CFI 86850 .cfa: x29 64 +
STACK CFI INIT 868a0 bc .cfa: sp 0 +
STACK CFI 868a4 .cfa: sp 80 +
STACK CFI 868b0 .cfa: x29 32 + x19: .cfa -8 + ^ x20: .cfa -16 + ^ .ra: .cfa -24 + ^ x29: .cfa -32 + ^
STACK CFI 8691c .cfa: sp 80 +
STACK CFI 86928 .cfa: sp 0 +
STACK CFI 8692c .cfa: x29 32 +
STACK CFI INIT 8695c 28c .cfa: sp 0 +
STACK CFI 86960 .cfa: sp 96 +
STACK CFI 86974 .cfa: x29 64 + x19: .cfa -8 + ^ x20: .cfa -16 + ^ x21: .cfa -24 + ^ x22: .cfa -32 + ^ x23: .cfa -48 + ^ .ra: .cfa -56 + ^ x29: .cfa -64 + ^
STACK CFI 86b94 .cfa: sp 96 +
STACK CFI 86ba8 .cfa: sp 0 +
STACK CFI 86bac .cfa: x29 64 +
STACK CFI INIT 86c6c 1d4 .cfa: sp 0 +
STACK CFI 86c70 .cfa: sp 128 +
STACK CFI 86c80 .cfa: x29 48 + x19: .cfa -8 + ^ x20: .cfa -16 + ^ x21: .cfa -32 + ^ .ra: .cfa -40 + ^ x29: .cfa -48 + ^
STACK CFI 86dd8 .cfa: sp 128 +
STACK CFI 86de8 .cfa: sp 0 +
STACK CFI 86dec .cfa: x29 48 +
STACK CFI INIT 86e84 498 .cfa: sp 0 +
STACK CFI 86e88 .cfa: sp 256 +
STACK CFI 86ea4 .cfa: x29 96 + x19: .cfa -8 + ^ x20: .cfa -16 + ^ x21: .cfa -24 + ^ x22: .cfa -32 + ^ x23: .cfa -40 + ^ x24: .cfa -48 + ^ x25: .cfa -56 + ^ x26: .cfa -64 + ^ x27: .cfa -72 + ^ x28: .cfa -80 + ^ .ra: .cfa -88 + ^ x29: .cfa -96 + ^
STACK CFI 87218 .cfa: sp 256 +
STACK CFI 87234 .cfa: sp 0 +
STACK CFI 87238 .cfa: x29 96 +
STACK CFI INIT 8731c 2ac .cfa: sp 0 +
STACK CFI 87320 .cfa: sp 128 +
STACK CFI 87334 .cfa: x29 64 + x19: .cfa -8 + ^ x20: .cfa -16 + ^ x21: .cfa -24 + ^ x22: .cfa -32 + ^ x23: .cfa -48 + ^ .ra: .cfa -56 + ^ x29: .cfa -64 + ^
STACK CFI 874f8 .cfa: sp 128 +
STACK CFI 8750c .cfa: sp 0 +
STACK CFI 87510 .cfa: x29 64 +
STACK CFI INIT 875c8 108 .cfa: sp 0 +
STACK CFI 875cc .cfa: sp 112 +
STACK CFI 875d8 .cfa: x29 32 + x19: .cfa -8 + ^ x20: .cfa -16 + ^ .ra: .cfa -24 + ^ x29: .cfa -32 + ^
STACK CFI 87690 .cfa: sp 112 +
STACK CFI 8769c .cfa: sp 0 +
STACK CFI 876a0 .cfa: x29 32 +
STACK CFI INIT 876d4 1bc .cfa: sp 0 +
STACK CFI 876d8 .cfa: sp 176 +
STACK CFI 876ec .cfa: x29 64 + x19: .cfa -8 + ^ x20: .cfa -16 + ^ x21: .cfa -24 + ^ x22: .cfa -32 + ^ x23: .cfa -40 + ^ x24: .cfa -48 + ^ .ra: .cfa -56 + ^ x29: .cfa -64 + ^
STACK CFI 87794 .cfa: sp 176 +
STACK CFI 877a8 .cfa: sp 0 +
STACK CFI 877ac .cfa: x29 64 +
STACK CFI INIT 87890 180 .cfa: sp 0 +
STACK CFI 87894 .cfa: sp 160 +
STACK CFI 878ac .cfa: x29 80 + x19: .cfa -8 + ^ x20: .cfa -16 + ^ x21: .cfa -24 + ^ x22: .cfa -32 + ^ x23: .cfa -40 + ^ x24: .cfa -48 + ^ x25: .cfa -64 + ^ .ra: .cfa -72 + ^ x29: .cfa -80 + ^
STACK CFI 879a8 .cfa: sp 160 +
STACK CFI 879c0 .cfa: sp 0 +
STACK CFI 879c4 .cfa: x29 80 +
STACK CFI INIT 87a48 138 .cfa: sp 0 +
STACK CFI 87a4c .cfa: sp 80 +
STACK CFI 87a5c .cfa: x29 48 + x19: .cfa -8 + ^ x20: .cfa -16 + ^ x21: .cfa -24 + ^ x22: .cfa -32 + ^ .ra: .cfa -40 + ^ x29: .cfa -48 + ^
STACK CFI 87b1c .cfa: sp 80 +
STACK CFI 87b2c .cfa: sp 0 +
STACK CFI 87b30 .cfa: x29 48 +
STACK CFI INIT 87b80 bc .cfa: sp 0 +
STACK CFI 87b84 .cfa: sp 80 +
STACK CFI 87b90 .cfa: x29 32 + x19: .cfa -8 + ^ x20: .cfa -16 + ^ .ra: .cfa -24 + ^ x29: .cfa -32 + ^
STACK CFI 87bfc .cfa: sp 80 +
STACK CFI 87c08 .cfa: sp 0 +
STACK CFI 87c0c .cfa: x29 32 +
STACK CFI INIT 87c3c 20c .cfa: sp 0 +
STACK CFI 87c40 .cfa: sp 144 +
STACK CFI 87c54 .cfa: x29 64 + x19: .cfa -8 + ^ x20: .cfa -16 + ^ x21: .cfa -24 + ^ x22: .cfa -32 + ^ x23: .cfa -40 + ^ x24: .cfa -48 + ^ .ra: .cfa -56 + ^ x29: .cfa -64 + ^
STACK CFI 87dc0 .cfa: sp 144 +
STACK CFI 87dd4 .cfa: sp 0 +
STACK CFI 87dd8 .cfa: x29 64 +
STACK CFI INIT 87e48 1a0 .cfa: sp 0 +
STACK CFI 87e4c .cfa: sp 112 +
STACK CFI 87e60 .cfa: x29 64 + x19: .cfa -8 + ^ x20: .cfa -16 + ^ x21: .cfa -24 + ^ x22: .cfa -32 + ^ x23: .cfa -48 + ^ .ra: .cfa -56 + ^ x29: .cfa -64 + ^
STACK CFI 87f14 .cfa: sp 112 +
STACK CFI 87f28 .cfa: sp 0 +
STACK CFI 87f2c .cfa: x29 64 +
STACK CFI 87f90 .cfa: sp 112 +
STACK CFI 87fa4 .cfa: sp 0 +
STACK CFI 87fa8 .cfa: x29 64 +
STACK CFI INIT 87fe8 1bc .cfa: sp 0 +
STACK CFI 87fec .cfa: sp 128 +
STACK CFI 88004 .cfa: x29 80 + x19: .cfa -8 + ^ x20: .cfa -16 + ^ x21: .cfa -24 + ^ x22: .cfa -32 + ^ x23: .cfa -40 + ^ x24: .cfa -48 + ^ x25: .cfa -56 + ^ x26: .cfa -64 + ^ .ra: .cfa -72 + ^ x29: .cfa -80 + ^
STACK CFI 880f8 .cfa: sp 128 +
STACK CFI 88110 .cfa: sp 0 +
STACK CFI 88114 .cfa: x29 80 +
STACK CFI INIT 881ac 108 .cfa: sp 0 +
STACK CFI 881b0 .cfa: sp 64 +
STACK CFI 881c0 .cfa: x29 48 + x19: .cfa -8 + ^ x20: .cfa -16 + ^ x21: .cfa -32 + ^ .ra: .cfa -40 + ^ x29: .cfa -48 + ^
STACK CFI 88268 .cfa: sp 64 +
STACK CFI 88278 .cfa: sp 0 +
STACK CFI 8827c .cfa: x29 48 +
STACK CFI INIT 88384 100 .cfa: sp 0 +
STACK CFI 88388 .cfa: sp 80 +
STACK CFI 88398 .cfa: x29 48 + x19: .cfa -8 + ^ x20: .cfa -16 + ^ x21: .cfa -32 + ^ .ra: .cfa -40 + ^ x29: .cfa -48 + ^
STACK CFI 88418 .cfa: sp 80 +
STACK CFI 88428 .cfa: sp 0 +
STACK CFI 8842c .cfa: x29 48 +
STACK CFI INIT 8850c e8 .cfa: sp 0 +
STACK CFI 88510 .cfa: sp 64 +
STACK CFI 8851c .cfa: x29 32 + x19: .cfa -16 + ^ .ra: .cfa -24 + ^ x29: .cfa -32 + ^
STACK CFI 88578 .cfa: sp 64 +
STACK CFI 88584 .cfa: sp 0 +
STACK CFI 88588 .cfa: x29 32 +
STACK CFI INIT 885f4 100 .cfa: sp 0 +
STACK CFI 885f8 .cfa: sp 96 +
STACK CFI 88608 .cfa: x29 48 + x19: .cfa -8 + ^ x20: .cfa -16 + ^ x21: .cfa -32 + ^ .ra: .cfa -40 + ^ x29: .cfa -48 + ^
STACK CFI 88680 .cfa: sp 96 +
STACK CFI 88690 .cfa: sp 0 +
STACK CFI 88694 .cfa: x29 48 +
STACK CFI INIT 886f4 13c .cfa: sp 0 +
STACK CFI 886f8 .cfa: sp 112 +
STACK CFI 88708 .cfa: x29 48 + x19: .cfa -8 + ^ x20: .cfa -16 + ^ x21: .cfa -24 + ^ x22: .cfa -32 + ^ .ra: .cfa -40 + ^ x29: .cfa -48 + ^
STACK CFI 8875c .cfa: sp 112 +
STACK CFI 8876c .cfa: sp 0 +
STACK CFI 88770 .cfa: x29 48 +
STACK CFI INIT 888ec 100 .cfa: sp 0 +
STACK CFI 888f0 .cfa: sp 48 +
STACK CFI 888fc .cfa: x29 48 + x19: .cfa -8 + ^ x20: .cfa -16 + ^ x21: .cfa -24 + ^ x22: .cfa -32 + ^ .ra: .cfa -40 + ^ x29: .cfa -48 + ^
STACK CFI 8890c .cfa: sp 48 +
STACK CFI 88918 .cfa: sp 0 +
STACK CFI 8891c .cfa: x29 48 +
STACK CFI INIT 88a50 18c .cfa: sp 0 +
STACK CFI 88a54 .cfa: sp 112 +
STACK CFI 88a64 .cfa: x29 48 + x19: .cfa -8 + ^ x20: .cfa -16 + ^ x21: .cfa -32 + ^ .ra: .cfa -40 + ^ x29: .cfa -48 + ^
STACK CFI 88ad0 .cfa: sp 112 +
STACK CFI 88ae0 .cfa: sp 0 +
STACK CFI 88ae4 .cfa: x29 48 +
STACK CFI INIT 88bdc 16c .cfa: sp 0 +
STACK CFI 88be0 .cfa: sp 112 +
STACK CFI 88bf0 .cfa: x29 48 + x19: .cfa -8 + ^ x20: .cfa -16 + ^ x21: .cfa -32 + ^ .ra: .cfa -40 + ^ x29: .cfa -48 + ^
STACK CFI 88c3c .cfa: sp 112 +
STACK CFI 88c4c .cfa: sp 0 +
STACK CFI 88c50 .cfa: x29 48 +
STACK CFI INIT 88d48 28c .cfa: sp 0 +
STACK CFI 88d4c .cfa: sp 144 +
STACK CFI 88d60 .cfa: x29 64 + x19: .cfa -8 + ^ x20: .cfa -16 + ^ x21: .cfa -24 + ^ x22: .cfa -32 + ^ x23: .cfa -40 + ^ x24: .cfa -48 + ^ .ra: .cfa -56 + ^ x29: .cfa -64 + ^
STACK CFI 88e7c .cfa: sp 144 +
STACK CFI 88e90 .cfa: sp 0 +
STACK CFI 88e94 .cfa: x29 64 +
STACK CFI INIT 89070 178 .cfa: sp 0 +
STACK CFI 89074 .cfa: sp 112 +
STACK CFI 89084 .cfa: x29 48 + x19: .cfa -8 + ^ x20: .cfa -16 + ^ x21: .cfa -32 + ^ .ra: .cfa -40 + ^ x29: .cfa -48 + ^
STACK CFI 890dc .cfa: sp 112 +
STACK CFI 890ec .cfa: sp 0 +
STACK CFI 890f0 .cfa: x29 48 +
STACK CFI INIT 891e8 2a4 .cfa: sp 0 +
STACK CFI 891ec .cfa: sp 144 +
STACK CFI 89200 .cfa: x29 64 + x19: .cfa -8 + ^ x20: .cfa -16 + ^ x21: .cfa -24 + ^ x22: .cfa -32 + ^ x23: .cfa -40 + ^ x24: .cfa -48 + ^ .ra: .cfa -56 + ^ x29: .cfa -64 + ^
STACK CFI 89334 .cfa: sp 144 +
STACK CFI 89348 .cfa: sp 0 +
STACK CFI 8934c .cfa: x29 64 +
STACK CFI INIT 894b0 140 .cfa: sp 0 +
STACK CFI 894b4 .cfa: sp 128 +
STACK CFI 894c4 .cfa: x29 48 + x19: .cfa -8 + ^ x20: .cfa -16 + ^ x21: .cfa -24 + ^ x22: .cfa -32 + ^ .ra: .cfa -40 + ^ x29: .cfa -48 + ^
STACK CFI 8950c .cfa: sp 128 +
STACK CFI 8951c .cfa: sp 0 +
STACK CFI 89520 .cfa: x29 48 +
STACK CFI INIT 895f0 c8 .cfa: sp 0 +
STACK CFI 895f4 .cfa: sp 64 +
STACK CFI 89604 .cfa: x29 48 + x19: .cfa -8 + ^ x20: .cfa -16 + ^ x21: .cfa -32 + ^ .ra: .cfa -40 + ^ x29: .cfa -48 + ^
STACK CFI 89670 .cfa: sp 64 +
STACK CFI 89680 .cfa: sp 0 +
STACK CFI 89684 .cfa: sp 64 +
STACK CFI 89694 .cfa: sp 0 +
STACK CFI 89698 .cfa: x29 48 +
STACK CFI INIT 896dc 1d8 .cfa: sp 0 +
STACK CFI 896e0 .cfa: sp 192 +
STACK CFI 89704 .cfa: x29 88 + x19: .cfa -8 + ^ x20: .cfa -16 + ^ x21: .cfa -24 + ^ x22: .cfa -32 + ^ x23: .cfa -40 + ^ x24: .cfa -48 + ^ x25: .cfa -56 + ^ x26: .cfa -64 + ^ x27: .cfa -72 + ^ .ra: .cfa -80 + ^ x29: .cfa -88 + ^ v8: .cfa -96 + ^ v9: .cfa -104 + ^ v10: .cfa -112 + ^
STACK CFI 897a8 .cfa: sp 192 +
STACK CFI 897cc .cfa: sp 0 +
STACK CFI 897d0 .cfa: x29 88 +
STACK CFI INIT 898b4 8f4 .cfa: sp 0 +
STACK CFI 898b8 .cfa: sp 112 +
STACK CFI 898d0 .cfa: x29 80 + x19: .cfa -8 + ^ x20: .cfa -16 + ^ x21: .cfa -24 + ^ x22: .cfa -32 + ^ x23: .cfa -40 + ^ x24: .cfa -48 + ^ x25: .cfa -56 + ^ x26: .cfa -64 + ^ .ra: .cfa -72 + ^ x29: .cfa -80 + ^
STACK CFI 89ff0 .cfa: sp 112 +
STACK CFI 8a008 .cfa: sp 0 +
STACK CFI 8a00c .cfa: x29 80 +
STACK CFI 8a0e4 .cfa: sp 112 +
STACK CFI 8a0fc .cfa: sp 0 +
STACK CFI 8a100 .cfa: x29 80 +
STACK CFI INIT 8a1d4 254 .cfa: sp 0 +
STACK CFI 8a1d8 .cfa: sp 144 +
STACK CFI 8a1ec .cfa: x29 64 + x19: .cfa -8 + ^ x20: .cfa -16 + ^ x21: .cfa -24 + ^ x22: .cfa -32 + ^ x23: .cfa -40 + ^ x24: .cfa -48 + ^ .ra: .cfa -56 + ^ x29: .cfa -64 + ^
STACK CFI 8a2d0 .cfa: sp 144 +
STACK CFI 8a2e4 .cfa: sp 0 +
STACK CFI 8a2e8 .cfa: x29 64 +
STACK CFI INIT 8a4c0 2ac .cfa: sp 0 +
STACK CFI 8a4c4 .cfa: sp 144 +
STACK CFI 8a4d8 .cfa: x29 64 + x19: .cfa -8 + ^ x20: .cfa -16 + ^ x21: .cfa -24 + ^ x22: .cfa -32 + ^ x23: .cfa -40 + ^ x24: .cfa -48 + ^ .ra: .cfa -56 + ^ x29: .cfa -64 + ^
STACK CFI 8a614 .cfa: sp 144 +
STACK CFI 8a628 .cfa: sp 0 +
STACK CFI 8a62c .cfa: x29 64 +
STACK CFI INIT 8a7b8 c0 .cfa: sp 0 +
STACK CFI 8a7bc .cfa: sp 48 +
STACK CFI 8a7c8 .cfa: x29 48 + x19: .cfa -8 + ^ x20: .cfa -16 + ^ x21: .cfa -32 + ^ .ra: .cfa -40 + ^ x29: .cfa -48 + ^
STACK CFI 8a844 .cfa: sp 48 +
STACK CFI 8a850 .cfa: sp 0 +
STACK CFI 8a854 .cfa: x29 48 +
STACK CFI INIT 8a8b0 90 .cfa: sp 0 +
STACK CFI 8a8b4 .cfa: sp 48 +
STACK CFI 8a8c0 .cfa: x29 32 + x19: .cfa -8 + ^ x20: .cfa -16 + ^ .ra: .cfa -24 + ^ x29: .cfa -32 + ^
STACK CFI 8a908 .cfa: sp 48 +
STACK CFI 8a914 .cfa: sp 0 +
STACK CFI 8a918 .cfa: x29 32 +
STACK CFI INIT 8a940 9c .cfa: sp 0 +
STACK CFI 8a944 .cfa: sp 48 +
STACK CFI 8a950 .cfa: x29 32 + x19: .cfa -8 + ^ x20: .cfa -16 + ^ .ra: .cfa -24 + ^ x29: .cfa -32 + ^
STACK CFI 8a9a4 .cfa: sp 48 +
STACK CFI 8a9b0 .cfa: sp 0 +
STACK CFI 8a9b4 .cfa: x29 32 +
STACK CFI INIT 8a9dc c0 .cfa: sp 0 +
STACK CFI 8a9e0 .cfa: sp 48 +
STACK CFI 8a9ec .cfa: x29 48 + x19: .cfa -8 + ^ x20: .cfa -16 + ^ x21: .cfa -32 + ^ .ra: .cfa -40 + ^ x29: .cfa -48 + ^
STACK CFI 8aa5c .cfa: sp 48 +
STACK CFI 8aa68 .cfa: sp 0 +
STACK CFI 8aa6c .cfa: sp 48 +
STACK CFI 8aa78 .cfa: sp 0 +
STACK CFI 8aa7c .cfa: x29 48 +
STACK CFI INIT 8aa9c 170 .cfa: sp 0 +
STACK CFI 8aaa0 .cfa: sp 128 +
STACK CFI 8aab0 .cfa: x29 48 + x19: .cfa -8 + ^ x20: .cfa -16 + ^ x21: .cfa -24 + ^ x22: .cfa -32 + ^ .ra: .cfa -40 + ^ x29: .cfa -48 + ^
STACK CFI 8ab14 .cfa: sp 128 +
STACK CFI 8ab24 .cfa: sp 0 +
STACK CFI 8ab28 .cfa: x29 48 +
STACK CFI INIT 8ac0c 308 .cfa: sp 0 +
STACK CFI 8ac10 .cfa: sp 144 +
STACK CFI 8ac24 .cfa: x29 64 + x19: .cfa -8 + ^ x20: .cfa -16 + ^ x21: .cfa -24 + ^ x22: .cfa -32 + ^ x23: .cfa -40 + ^ x24: .cfa -48 + ^ .ra: .cfa -56 + ^ x29: .cfa -64 + ^
STACK CFI 8ad94 .cfa: sp 144 +
STACK CFI 8ada8 .cfa: sp 0 +
STACK CFI 8adac .cfa: x29 64 +
STACK CFI INIT 8af34 2dc .cfa: sp 0 +
STACK CFI 8af38 .cfa: sp 144 +
STACK CFI 8af4c .cfa: x29 64 + x19: .cfa -8 + ^ x20: .cfa -16 + ^ x21: .cfa -24 + ^ x22: .cfa -32 + ^ x23: .cfa -40 + ^ x24: .cfa -48 + ^ .ra: .cfa -56 + ^ x29: .cfa -64 + ^
STACK CFI 8b0b8 .cfa: sp 144 +
STACK CFI 8b0cc .cfa: sp 0 +
STACK CFI 8b0d0 .cfa: x29 64 +
STACK CFI INIT 8b2b8 35c .cfa: sp 0 +
STACK CFI 8b2bc .cfa: sp 64 +
STACK CFI 8b2cc .cfa: x29 64 + x19: .cfa -8 + ^ x20: .cfa -16 + ^ x21: .cfa -24 + ^ x22: .cfa -32 + ^ x23: .cfa -40 + ^ x24: .cfa -48 + ^ .ra: .cfa -56 + ^ x29: .cfa -64 + ^
STACK CFI 8b3a8 .cfa: sp 64 +
STACK CFI 8b3b8 .cfa: sp 0 +
STACK CFI 8b3bc .cfa: x29 64 +
STACK CFI 8b5ec .cfa: sp 64 +
STACK CFI 8b5fc .cfa: sp 0 +
STACK CFI 8b600 .cfa: x29 64 +
STACK CFI INIT 8ba34 50 .cfa: sp 0 +
STACK CFI 8ba38 .cfa: sp 32 +
STACK CFI 8ba40 .cfa: x29 32 + x19: .cfa -8 + ^ x20: .cfa -16 + ^ .ra: .cfa -24 + ^ x29: .cfa -32 + ^
STACK CFI INIT 8bab4 18c .cfa: sp 0 +
STACK CFI 8bab8 .cfa: sp 208 +
STACK CFI 8bac8 .cfa: x29 48 + x19: .cfa -8 + ^ x20: .cfa -16 + ^ x21: .cfa -24 + ^ x22: .cfa -32 + ^ .ra: .cfa -40 + ^ x29: .cfa -48 + ^
STACK CFI 8bbc8 .cfa: sp 208 +
STACK CFI 8bbd8 .cfa: sp 0 +
STACK CFI 8bbdc .cfa: x29 48 +
STACK CFI INIT 8bc40 198 .cfa: sp 0 +
STACK CFI 8bc44 .cfa: sp 96 +
STACK CFI 8bc58 .cfa: x29 64 + x19: .cfa -8 + ^ x20: .cfa -16 + ^ x21: .cfa -24 + ^ x22: .cfa -32 + ^ x23: .cfa -48 + ^ .ra: .cfa -56 + ^ x29: .cfa -64 + ^
STACK CFI 8bd38 .cfa: sp 96 +
STACK CFI 8bd4c .cfa: sp 0 +
STACK CFI 8bd50 .cfa: x29 64 +
STACK CFI INIT 8be54 308 .cfa: sp 0 +
STACK CFI 8be58 .cfa: sp 160 +
STACK CFI 8be6c .cfa: x29 64 + x19: .cfa -8 + ^ x20: .cfa -16 + ^ x21: .cfa -24 + ^ x22: .cfa -32 + ^ x23: .cfa -40 + ^ x24: .cfa -48 + ^ .ra: .cfa -56 + ^ x29: .cfa -64 + ^
STACK CFI 8c080 .cfa: sp 160 +
STACK CFI 8c094 .cfa: sp 0 +
STACK CFI 8c098 .cfa: x29 64 +
STACK CFI INIT 8c248 124 .cfa: sp 0 +
STACK CFI 8c24c .cfa: sp 80 +
STACK CFI 8c260 .cfa: x29 80 + x19: .cfa -8 + ^ x20: .cfa -16 + ^ x21: .cfa -24 + ^ x22: .cfa -32 + ^ x23: .cfa -40 + ^ x24: .cfa -48 + ^ x28: .cfa -64 + ^ .ra: .cfa -72 + ^ x29: .cfa -80 + ^
STACK CFI 8c320 .cfa: sp 80 +
STACK CFI 8c334 .cfa: sp 0 +
STACK CFI 8c338 .cfa: x29 80 +
STACK CFI INIT 8d544 118 .cfa: sp 0 +
STACK CFI 8d548 .cfa: sp 80 +
STACK CFI 8d558 .cfa: x29 48 + x19: .cfa -8 + ^ x20: .cfa -16 + ^ x21: .cfa -32 + ^ .ra: .cfa -40 + ^ x29: .cfa -48 + ^
STACK CFI 8d608 .cfa: sp 80 +
STACK CFI 8d618 .cfa: sp 0 +
STACK CFI 8d61c .cfa: x29 48 +
STACK CFI INIT 90578 68c .cfa: sp 0 +
STACK CFI 9057c .cfa: sp 288 +
STACK CFI 90598 .cfa: x29 96 + x19: .cfa -8 + ^ x20: .cfa -16 + ^ x21: .cfa -24 + ^ x22: .cfa -32 + ^ x23: .cfa -40 + ^ x24: .cfa -48 + ^ x25: .cfa -56 + ^ x26: .cfa -64 + ^ x27: .cfa -72 + ^ x28: .cfa -80 + ^ .ra: .cfa -88 + ^ x29: .cfa -96 + ^
STACK CFI 90b00 .cfa: sp 288 +
STACK CFI 90b1c .cfa: sp 0 +
STACK CFI 90b20 .cfa: x29 96 +
STACK CFI INIT 90d58 1c0 .cfa: sp 0 +
STACK CFI 90d5c .cfa: sp 144 +
STACK CFI 90d70 .cfa: x29 64 + x19: .cfa -8 + ^ x20: .cfa -16 + ^ x21: .cfa -24 + ^ x22: .cfa -32 + ^ x23: .cfa -40 + ^ x24: .cfa -48 + ^ .ra: .cfa -56 + ^ x29: .cfa -64 + ^
STACK CFI 90e64 .cfa: sp 144 +
STACK CFI 90e78 .cfa: sp 0 +
STACK CFI 90e7c .cfa: x29 64 +
STACK CFI INIT 91408 2c4 .cfa: sp 0 +
STACK CFI 9140c .cfa: sp 80 +
STACK CFI 91420 .cfa: x29 80 + x19: .cfa -8 + ^ x20: .cfa -16 + ^ x21: .cfa -24 + ^ x22: .cfa -32 + ^ x23: .cfa -40 + ^ x24: .cfa -48 + ^ x28: .cfa -64 + ^ .ra: .cfa -72 + ^ x29: .cfa -80 + ^
STACK CFI 91680 .cfa: sp 80 +
STACK CFI 91694 .cfa: sp 0 +
STACK CFI 91698 .cfa: x29 80 +
STACK CFI INIT 916cc 3dc .cfa: sp 0 +
STACK CFI 916d0 .cfa: sp 96 +
STACK CFI 916e8 .cfa: x29 96 + x19: .cfa -8 + ^ x20: .cfa -16 + ^ x21: .cfa -24 + ^ x22: .cfa -32 + ^ x23: .cfa -40 + ^ x24: .cfa -48 + ^ x25: .cfa -56 + ^ x26: .cfa -64 + ^ x27: .cfa -72 + ^ x28: .cfa -80 + ^ .ra: .cfa -88 + ^ x29: .cfa -96 + ^
STACK CFI 91a48 .cfa: sp 96 +
STACK CFI 91a60 .cfa: sp 0 +
STACK CFI 91a64 .cfa: x29 96 +
STACK CFI INIT 91d24 144 .cfa: sp 0 +
STACK CFI 91d28 .cfa: sp 64 +
STACK CFI 91d38 .cfa: x29 64 + x19: .cfa -8 + ^ x20: .cfa -16 + ^ x21: .cfa -24 + ^ x22: .cfa -32 + ^ x23: .cfa -40 + ^ x28: .cfa -48 + ^ .ra: .cfa -56 + ^ x29: .cfa -64 + ^
STACK CFI 91e20 .cfa: sp 64 +
STACK CFI 91e30 .cfa: sp 0 +
STACK CFI 91e34 .cfa: x29 64 +
STACK CFI INIT 9208c 698 .cfa: sp 0 +
STACK CFI 92090 .cfa: sp 288 +
STACK CFI 920ac .cfa: x29 96 + x19: .cfa -8 + ^ x20: .cfa -16 + ^ x21: .cfa -24 + ^ x22: .cfa -32 + ^ x23: .cfa -40 + ^ x24: .cfa -48 + ^ x25: .cfa -56 + ^ x26: .cfa -64 + ^ x27: .cfa -72 + ^ x28: .cfa -80 + ^ .ra: .cfa -88 + ^ x29: .cfa -96 + ^
STACK CFI 92620 .cfa: sp 288 +
STACK CFI 9263c .cfa: sp 0 +
STACK CFI 92640 .cfa: x29 96 +
STACK CFI INIT 92b64 2dc .cfa: sp 0 +
STACK CFI 92b68 .cfa: sp 80 +
STACK CFI 92b7c .cfa: x29 80 + x19: .cfa -8 + ^ x20: .cfa -16 + ^ x21: .cfa -24 + ^ x22: .cfa -32 + ^ x23: .cfa -40 + ^ x24: .cfa -48 + ^ x28: .cfa -64 + ^ .ra: .cfa -72 + ^ x29: .cfa -80 + ^
STACK CFI 92df4 .cfa: sp 80 +
STACK CFI 92e08 .cfa: sp 0 +
STACK CFI 92e0c .cfa: x29 80 +
STACK CFI INIT 92fac 144 .cfa: sp 0 +
STACK CFI 92fb0 .cfa: sp 64 +
STACK CFI 92fc0 .cfa: x29 64 + x19: .cfa -8 + ^ x20: .cfa -16 + ^ x21: .cfa -24 + ^ x22: .cfa -32 + ^ x23: .cfa -40 + ^ x28: .cfa -48 + ^ .ra: .cfa -56 + ^ x29: .cfa -64 + ^
STACK CFI 930a8 .cfa: sp 64 +
STACK CFI 930b8 .cfa: sp 0 +
STACK CFI 930bc .cfa: x29 64 +
STACK CFI INIT 93320 43c .cfa: sp 0 +
STACK CFI 93324 .cfa: sp 80 +
STACK CFI 93338 .cfa: x29 80 + x19: .cfa -8 + ^ x20: .cfa -16 + ^ x21: .cfa -24 + ^ x22: .cfa -32 + ^ x23: .cfa -40 + ^ x24: .cfa -48 + ^ x25: .cfa -56 + ^ x28: .cfa -64 + ^ .ra: .cfa -72 + ^ x29: .cfa -80 + ^
STACK CFI 936d0 .cfa: sp 80 +
STACK CFI 936e4 .cfa: sp 0 +
STACK CFI 936e8 .cfa: x29 80 +
STACK CFI INIT 941c0 1454 .cfa: sp 0 +
STACK CFI 941c4 .cfa: sp 96 +
STACK CFI 941dc .cfa: x29 96 + x19: .cfa -8 + ^ x20: .cfa -16 + ^ x21: .cfa -24 + ^ x22: .cfa -32 + ^ x23: .cfa -40 + ^ x24: .cfa -48 + ^ x25: .cfa -56 + ^ x26: .cfa -64 + ^ x27: .cfa -72 + ^ x28: .cfa -80 + ^ .ra: .cfa -88 + ^ x29: .cfa -96 + ^
STACK CFI 95344 .cfa: sp 96 +
STACK CFI 9535c .cfa: sp 0 +
STACK CFI 95360 .cfa: x29 96 +
STACK CFI INIT 95d38 5b0 .cfa: sp 0 +
STACK CFI 95d3c .cfa: sp 304 +
STACK CFI 95d58 .cfa: x29 96 + x19: .cfa -8 + ^ x20: .cfa -16 + ^ x21: .cfa -24 + ^ x22: .cfa -32 + ^ x23: .cfa -40 + ^ x24: .cfa -48 + ^ x25: .cfa -56 + ^ x26: .cfa -64 + ^ x27: .cfa -72 + ^ x28: .cfa -80 + ^ .ra: .cfa -88 + ^ x29: .cfa -96 + ^
STACK CFI 9626c .cfa: sp 304 +
STACK CFI 96288 .cfa: sp 0 +
STACK CFI 9628c .cfa: x29 96 +
STACK CFI INIT 962e8 674 .cfa: sp 0 +
STACK CFI 962ec .cfa: sp 288 +
STACK CFI 96308 .cfa: x29 96 + x19: .cfa -8 + ^ x20: .cfa -16 + ^ x21: .cfa -24 + ^ x22: .cfa -32 + ^ x23: .cfa -40 + ^ x24: .cfa -48 + ^ x25: .cfa -56 + ^ x26: .cfa -64 + ^ x27: .cfa -72 + ^ x28: .cfa -80 + ^ .ra: .cfa -88 + ^ x29: .cfa -96 + ^
STACK CFI 96858 .cfa: sp 288 +
STACK CFI 96874 .cfa: sp 0 +
STACK CFI 96878 .cfa: x29 96 +
STACK CFI INIT 96d80 424 .cfa: sp 0 +
STACK CFI 96d84 .cfa: sp 96 +
STACK CFI 96d9c .cfa: x29 96 + x19: .cfa -8 + ^ x20: .cfa -16 + ^ x21: .cfa -24 + ^ x22: .cfa -32 + ^ x23: .cfa -40 + ^ x24: .cfa -48 + ^ x25: .cfa -56 + ^ x26: .cfa -64 + ^ x28: .cfa -80 + ^ .ra: .cfa -88 + ^ x29: .cfa -96 + ^
STACK CFI 97150 .cfa: sp 96 +
STACK CFI 97168 .cfa: sp 0 +
STACK CFI 9716c .cfa: x29 96 +
STACK CFI INIT 97310 228 .cfa: sp 0 +
STACK CFI 97314 .cfa: sp 96 +
STACK CFI 9732c .cfa: x29 96 + x19: .cfa -8 + ^ x20: .cfa -16 + ^ x21: .cfa -24 + ^ x22: .cfa -32 + ^ x23: .cfa -40 + ^ x24: .cfa -48 + ^ x25: .cfa -56 + ^ x26: .cfa -64 + ^ x27: .cfa -72 + ^ x28: .cfa -80 + ^ .ra: .cfa -88 + ^ x29: .cfa -96 + ^
STACK CFI 974b4 .cfa: sp 96 +
STACK CFI 974cc .cfa: sp 0 +
STACK CFI 974d0 .cfa: x29 96 +
STACK CFI 974e8 .cfa: sp 96 +
STACK CFI 97500 .cfa: sp 0 +
STACK CFI 97504 .cfa: x29 96 +
STACK CFI INIT 9b664 3ec .cfa: sp 0 +
STACK CFI 9b668 .cfa: sp 80 +
STACK CFI 9b680 .cfa: x29 72 + x19: .cfa -8 + ^ x20: .cfa -16 + ^ x21: .cfa -24 + ^ x22: .cfa -32 + ^ x23: .cfa -40 + ^ x24: .cfa -48 + ^ x28: .cfa -56 + ^ .ra: .cfa -64 + ^ x29: .cfa -72 + ^ v8: .cfa -80 + ^
STACK CFI 9b9c0 .cfa: sp 80 +
STACK CFI 9b9d8 .cfa: sp 0 +
STACK CFI 9b9dc .cfa: x29 72 +
STACK CFI INIT 9bfb8 7ec .cfa: sp 0 +
STACK CFI 9bfbc .cfa: sp 144 +
STACK CFI 9bfd4 .cfa: x29 80 + x19: .cfa -8 + ^ x20: .cfa -16 + ^ x21: .cfa -24 + ^ x22: .cfa -32 + ^ x23: .cfa -40 + ^ x24: .cfa -48 + ^ x25: .cfa -64 + ^ .ra: .cfa -72 + ^ x29: .cfa -80 + ^
STACK CFI 9c6fc .cfa: sp 144 +
STACK CFI 9c714 .cfa: sp 0 +
STACK CFI 9c718 .cfa: x29 80 +
STACK CFI INIT 9c978 3e8 .cfa: sp 0 +
STACK CFI 9c97c .cfa: sp 80 +
STACK CFI 9c994 .cfa: x29 72 + x19: .cfa -8 + ^ x20: .cfa -16 + ^ x21: .cfa -24 + ^ x22: .cfa -32 + ^ x23: .cfa -40 + ^ x24: .cfa -48 + ^ x28: .cfa -56 + ^ .ra: .cfa -64 + ^ x29: .cfa -72 + ^ v8: .cfa -80 + ^
STACK CFI 9ccd0 .cfa: sp 80 +
STACK CFI 9cce8 .cfa: sp 0 +
STACK CFI 9ccec .cfa: x29 72 +
STACK CFI INIT 9de60 2dc .cfa: sp 0 +
STACK CFI 9de64 .cfa: sp 224 +
STACK CFI 9de80 .cfa: x29 96 + x19: .cfa -8 + ^ x20: .cfa -16 + ^ x21: .cfa -24 + ^ x22: .cfa -32 + ^ x23: .cfa -40 + ^ x24: .cfa -48 + ^ x25: .cfa -56 + ^ x26: .cfa -64 + ^ x27: .cfa -80 + ^ .ra: .cfa -88 + ^ x29: .cfa -96 + ^
STACK CFI 9e07c .cfa: sp 224 +
STACK CFI 9e098 .cfa: sp 0 +
STACK CFI 9e09c .cfa: x29 96 +
STACK CFI INIT 9e13c 2b8 .cfa: sp 0 +
STACK CFI 9e140 .cfa: sp 224 +
STACK CFI 9e15c .cfa: x29 96 + x19: .cfa -8 + ^ x20: .cfa -16 + ^ x21: .cfa -24 + ^ x22: .cfa -32 + ^ x23: .cfa -40 + ^ x24: .cfa -48 + ^ x25: .cfa -56 + ^ x26: .cfa -64 + ^ x27: .cfa -80 + ^ .ra: .cfa -88 + ^ x29: .cfa -96 + ^
STACK CFI 9e334 .cfa: sp 224 +
STACK CFI 9e350 .cfa: sp 0 +
STACK CFI 9e354 .cfa: x29 96 +
STACK CFI INIT 9e3f4 2dc .cfa: sp 0 +
STACK CFI 9e3f8 .cfa: sp 224 +
STACK CFI 9e414 .cfa: x29 96 + x19: .cfa -8 + ^ x20: .cfa -16 + ^ x21: .cfa -24 + ^ x22: .cfa -32 + ^ x23: .cfa -40 + ^ x24: .cfa -48 + ^ x25: .cfa -56 + ^ x26: .cfa -64 + ^ x27: .cfa -80 + ^ .ra: .cfa -88 + ^ x29: .cfa -96 + ^
STACK CFI 9e610 .cfa: sp 224 +
STACK CFI 9e62c .cfa: sp 0 +
STACK CFI 9e630 .cfa: x29 96 +
STACK CFI INIT 9e6d0 2b8 .cfa: sp 0 +
STACK CFI 9e6d4 .cfa: sp 224 +
STACK CFI 9e6f0 .cfa: x29 96 + x19: .cfa -8 + ^ x20: .cfa -16 + ^ x21: .cfa -24 + ^ x22: .cfa -32 + ^ x23: .cfa -40 + ^ x24: .cfa -48 + ^ x25: .cfa -56 + ^ x26: .cfa -64 + ^ x27: .cfa -80 + ^ .ra: .cfa -88 + ^ x29: .cfa -96 + ^
STACK CFI 9e8c8 .cfa: sp 224 +
STACK CFI 9e8e4 .cfa: sp 0 +
STACK CFI 9e8e8 .cfa: x29 96 +
STACK CFI INIT 9e988 2e8 .cfa: sp 0 +
STACK CFI 9e98c .cfa: sp 224 +
STACK CFI 9e9a8 .cfa: x29 96 + x19: .cfa -8 + ^ x20: .cfa -16 + ^ x21: .cfa -24 + ^ x22: .cfa -32 + ^ x23: .cfa -40 + ^ x24: .cfa -48 + ^ x25: .cfa -56 + ^ x26: .cfa -64 + ^ x27: .cfa -72 + ^ x28: .cfa -80 + ^ .ra: .cfa -88 + ^ x29: .cfa -96 + ^
STACK CFI 9ebb0 .cfa: sp 224 +
STACK CFI 9ebcc .cfa: sp 0 +
STACK CFI 9ebd0 .cfa: x29 96 +
STACK CFI INIT 9ec70 2c0 .cfa: sp 0 +
STACK CFI 9ec74 .cfa: sp 224 +
STACK CFI 9ec90 .cfa: x29 96 + x19: .cfa -8 + ^ x20: .cfa -16 + ^ x21: .cfa -24 + ^ x22: .cfa -32 + ^ x23: .cfa -40 + ^ x24: .cfa -48 + ^ x25: .cfa -56 + ^ x26: .cfa -64 + ^ x27: .cfa -72 + ^ x28: .cfa -80 + ^ .ra: .cfa -88 + ^ x29: .cfa -96 + ^
STACK CFI 9ee70 .cfa: sp 224 +
STACK CFI 9ee8c .cfa: sp 0 +
STACK CFI 9ee90 .cfa: x29 96 +
