MODULE Linux arm64 F2933D891E6D4863C06B7DC415EEAB6F0 libc.so
INFO CODE_ID 893D93F26D1E6348C06B7DC415EEAB6F
INFO GENERATOR mozilla/dump_syms 2.2.2
PUBLIC 3b000 0 __on_dlclose
PUBLIC m 3b010 0 __emutls_unregister_key
PUBLIC 3b018 0 __on_dlclose_late
PUBLIC m 3b020 0 pthread_atfork
PUBLIC 3b030 0 gwp_asan_initialize(MallocDispatch const*, bool*, char const*)
PUBLIC 3b0d8 0 gwp_asan_finalize()
PUBLIC 3b0e0 0 gwp_asan_get_malloc_leak_info(unsigned char**, unsigned long*, unsigned long*, unsigned long*, unsigned long*)
PUBLIC 3b0e8 0 gwp_asan_free_malloc_leak_info(unsigned char*)
PUBLIC 3b0f0 0 gwp_asan_malloc_backtrace(void*, unsigned long*, unsigned long)
PUBLIC 3b0f8 0 gwp_asan_write_malloc_leak_info(__sFILE*)
PUBLIC 3b100 0 gwp_asan_calloc(unsigned long, unsigned long)
PUBLIC 3b1b0 0 gwp_asan_free(void*)
PUBLIC 3b1f0 0 gwp_asan_malloc(unsigned long)
PUBLIC 3b290 0 gwp_asan_malloc_usable_size(void const*)
PUBLIC 3b2d0 0 gwp_asan_realloc(void*, unsigned long)
PUBLIC 3b380 0 gwp_asan_malloc_iterate(unsigned long, unsigned long, void (*)(unsigned long, unsigned long, void*), void*)
PUBLIC 3b3f0 0 gwp_asan_malloc_disable()
PUBLIC 3b418 0 gwp_asan_malloc_enable()
PUBLIC 3b440 0 MaybeInitGwpAsanFromLibc(libc_globals*)
PUBLIC 3b490 0 MaybeInitGwpAsan(libc_globals*, bool)
PUBLIC 3b608 0 DispatchIsGwpAsan(MallocDispatch const*)
PUBLIC 3b620 0 SetDefaultHeapTaggingLevel()
PUBLIC 3b6e0 0 SetHeapTaggingLevel(void*, unsigned long)
PUBLIC 3b820 0 __find_icu_symbol(char const*)
PUBLIC 3b948 0 __find_icu()
PUBLIC 3b9a8 0 snprintf(char*, unsigned long pass_object_size1, char const*, ...)
PUBLIC m 3ba58 0 calloc
PUBLIC m 3bb08 0 free
PUBLIC m 3bb70 0 mallinfo
PUBLIC m 3bb90 0 malloc_info
PUBLIC m 3bbb0 0 mallopt
PUBLIC m 3bbd0 0 malloc
PUBLIC m 3bc48 0 malloc_usable_size
PUBLIC m 3bcb0 0 memalign
PUBLIC m 3bd60 0 posix_memalign
PUBLIC m 3bdc8 0 aligned_alloc
PUBLIC m 3be78 0 realloc
PUBLIC m 3bf68 0 reallocarray
PUBLIC 3bfc8 0 CallbackWrapper(unsigned long, unsigned long, void*)
PUBLIC m 3bfe8 0 malloc_iterate
PUBLIC m 3c068 0 malloc_disable
PUBLIC m 3c088 0 malloc_enable
PUBLIC 3c0a8 0 NativeAllocatorDispatch()
PUBLIC 3c0b8 0 SetGlobalFunctions(void**)
PUBLIC 3c0d8 0 InitSharedLibrary(void*, char const*, char const*, MallocDispatch*)
PUBLIC 3c688 0 snprintf(char*, unsigned long pass_object_size1, char const*, ...)
PUBLIC 3c730 0 LoadSharedLibrary(char const*, char const*, MallocDispatch*)
PUBLIC 3c838 0 FinishInstallHooks(libc_globals*, char const*, char const*)
PUBLIC 3c930 0 MallocFiniImpl(void*)
PUBLIC 3c978 0 __libc_init_malloc(libc_globals*)
PUBLIC 3cb30 0 WriteMallocLeakInfo(__sFILE*)
PUBLIC m 3cbe0 0 malloc_backtrace
PUBLIC m 3cbf8 0 android_mallopt
PUBLIC 3ce38 0 __libc_init_profiling_handlers()
PUBLIC 3ceb8 0 HandleProfilingSignal(int, siginfo*, void*)
PUBLIC 3d248 0 HandleSigsysSeccompOverride(int, siginfo*, void*)
PUBLIC 3d2b0 0 HandleHeapprofdSignal()
PUBLIC 3d4e0 0 HeapprofdShouldLoad()
PUBLIC 3d7b8 0 HeapprofdRememberHookConflict()
PUBLIC 3d7d0 0 HeapprofdInstallHooksAtInit(libc_globals*)
PUBLIC 3d890 0 MallocInitHeapprofdHook
PUBLIC 3dac8 0 HeapprofdInitZygoteChildProfiling()
PUBLIC 3dae8 0 HeapprofdMallopt(int, void*, unsigned long)
PUBLIC 3dcc0 0 CommonInstallHooks(libc_globals*)
PUBLIC 3ddb0 0 InitHeapprofd(void*)
PUBLIC 3df00 0 MallocLimitInstalled()
PUBLIC 3df20 0 LimitEnable(void*, unsigned long)
PUBLIC 3e138 0 LimitCalloc(unsigned long, unsigned long)
PUBLIC 3e230 0 LimitFree(void*)
PUBLIC 3e2b0 0 LimitMallinfo()
PUBLIC 3e2d0 0 LimitMalloc(unsigned long)
PUBLIC 3e3a0 0 LimitUsableSize(void const*)
PUBLIC 3e3c0 0 LimitMemalign(unsigned long, unsigned long)
PUBLIC 3e4a0 0 LimitPosixMemalign(void**, unsigned long, unsigned long)
PUBLIC 3e580 0 LimitRealloc(void*, unsigned long)
PUBLIC 3e738 0 LimitIterate(unsigned long, unsigned long, void (*)(unsigned long, unsigned long, void*), void*)
PUBLIC 3e758 0 LimitMallocDisable()
PUBLIC 3e778 0 LimitMallocEnable()
PUBLIC 3e798 0 LimitMallopt(int, int)
PUBLIC 3e7b8 0 LimitAlignedAlloc(unsigned long, unsigned long)
PUBLIC 3e898 0 LimitMallocInfo(int, __sFILE*)
PUBLIC 3e8b8 0 IncrementLimit(void*)
PUBLIC 3e920 0 netdClientInit
PUBLIC 3e968 0 netdClientInitImpl()
PUBLIC 3eafc 0 read_uleb128
PUBLIC 3eb24 0 read_sleb128
PUBLIC 3eb64 0 read_encoded_value_with_base
PUBLIC 3ec54 0 init_dwarf_reg_size_table
PUBLIC 3ed68 0 _Unwind_SetSpColumn
PUBLIC m 3eda4 0 _Unwind_GetGR.localalias.0
PUBLIC 3edfc 0 uw_install_context_1
PUBLIC m 3ef08 0 _Unwind_GetCFA
PUBLIC m 3ef10 0 _Unwind_SetGR
PUBLIC m 3ef68 0 _Unwind_GetIP
PUBLIC m 3ef70 0 _Unwind_GetIPInfo
PUBLIC m 3ef84 0 _Unwind_SetIP
PUBLIC m 3ef8c 0 _Unwind_GetLanguageSpecificData
PUBLIC m 3ef94 0 _Unwind_GetRegionStart
PUBLIC m 3ef9c 0 _Unwind_FindEnclosingFunction
PUBLIC m 3efc4 0 _Unwind_GetDataRelBase
PUBLIC m 3efcc 0 _Unwind_GetTextRelBase
PUBLIC 3efd4 0 base_of_encoded_value
PUBLIC 3f04c 0 execute_cfa_program
PUBLIC 3f544 0 uw_frame_state_for
PUBLIC 3f968 0 execute_stack_op
PUBLIC 3ff1c 0 uw_update_context_1
PUBLIC 40128 0 uw_init_context_1
PUBLIC 40204 0 uw_update_context
PUBLIC 40250 0 _Unwind_RaiseException_Phase2
PUBLIC 40310 0 _Unwind_ForcedUnwind_Phase2
PUBLIC 403fc 0 __frame_state_for
PUBLIC 404f0 0 _Unwind_DebugHook
PUBLIC m 404f4 0 _Unwind_RaiseException
PUBLIC m 4066c 0 _Unwind_ForcedUnwind
PUBLIC m 40760 0 _Unwind_Resume
PUBLIC m 4085c 0 _Unwind_Resume_or_Rethrow
PUBLIC m 40954 0 _Unwind_DeleteException
PUBLIC m 40978 0 _Unwind_Backtrace
PUBLIC 40a48 0 read_uleb128
PUBLIC 40a70 0 read_sleb128
PUBLIC 40ab0 0 fde_unencoded_compare
PUBLIC 40acc 0 frame_downheap
PUBLIC 40b8c 0 frame_heapsort
PUBLIC 40c40 0 size_of_encoded_value
PUBLIC 40ca0 0 base_from_object
PUBLIC 40d00 0 base_from_cb_data
PUBLIC 40d60 0 read_encoded_value_with_base
PUBLIC 40e50 0 fde_single_encoding_compare
PUBLIC 40ee0 0 get_cie_encoding
PUBLIC 40fdc 0 linear_search_fdes
PUBLIC 4113c 0 get_fde_encoding
PUBLIC 4114c 0 _Unwind_IteratePhdrCallback
PUBLIC 41568 0 fde_mixed_encoding_compare
PUBLIC 41604 0 classify_object_over_fdes
PUBLIC 41764 0 add_fdes
PUBLIC 41898 0 search_object
PUBLIC 41e08 0 __register_frame_info_bases
PUBLIC 41ea4 0 __register_frame_info
PUBLIC m 41eb0 0 __register_frame
PUBLIC 41ef0 0 __register_frame_info_table_bases
PUBLIC 41f84 0 __register_frame_info_table
PUBLIC 41f90 0 __register_frame_table
PUBLIC 41fbc 0 __deregister_frame_info_bases
PUBLIC 420bc 0 __deregister_frame_info
PUBLIC m 420c0 0 __deregister_frame
PUBLIC m 420e4 0 _Unwind_Find_FDE
PUBLIC 422a8 0 scudo::hasHardwareCRC32()
PUBLIC 422c8 0 scudo::dieOnMapUnmapError(bool)
PUBLIC 42308 0 scudo::getFlags()
PUBLIC 42318 0 scudo::registerFlags(scudo::FlagParser*, scudo::Flags*)
PUBLIC 42450 0 scudo::initFlags()
PUBLIC 42508 0 scudo::reportUnrecognizedFlags()
PUBLIC 42580 0 scudo::FlagParser::parseFlag()
PUBLIC 426d0 0 scudo::FlagParser::runHandler(char const*, char const*)
PUBLIC 428c0 0 scudo::FlagParser::parseString(char const*)
PUBLIC 42978 0 scudo::FlagParser::registerFlag(char const*, char const*, scudo::FlagType, void*)
PUBLIC 429d8 0 scudo::die()
PUBLIC 429e8 0 scudo::map(void*, unsigned long, char const*, unsigned long, scudo::MapPlatformData*)
PUBLIC 42aa0 0 scudo::unmap(void*, unsigned long, unsigned long, scudo::MapPlatformData*)
PUBLIC 42ac0 0 scudo::releasePagesToOS(unsigned long, unsigned long, unsigned long, scudo::MapPlatformData*)
PUBLIC 42b08 0 scudo::getEnv(char const*)
PUBLIC 42b10 0 scudo::HybridMutex::tryLock()
PUBLIC 42b40 0 scudo::HybridMutex::lockSlow()
PUBLIC 42be0 0 scudo::HybridMutex::unlock()
PUBLIC 42c20 0 scudo::getMonotonicTime()
PUBLIC 42c58 0 scudo::getNumberOfCPUs()
PUBLIC 42cb8 0 scudo::getRandom(void*, unsigned long, bool)
PUBLIC 42d80 0 scudo::outputRaw(char const*)
PUBLIC 42e90 0 scudo::setAbortMessage(char const*)
PUBLIC 42eb0 0 scudo::reportCheckFailed(char const*, int, char const*, unsigned long long, unsigned long long)
PUBLIC 42f40 0 scudo::ScopedErrorReport::ScopedErrorReport()
PUBLIC m 42ff0 0 scudo::ScopedErrorReport::append(char const*, ...)
PUBLIC 43068 0 scudo::ScopedErrorReport::~ScopedErrorReport()
PUBLIC 43090 0 scudo::reportError(char const*)
PUBLIC 430d0 0 scudo::reportInvalidFlag(char const*, char const*)
PUBLIC 43118 0 scudo::reportHeaderCorruption(void*)
PUBLIC 43158 0 scudo::reportHeaderRace(void*)
PUBLIC 43198 0 scudo::reportAlignmentTooBig(unsigned long, unsigned long)
PUBLIC 431e0 0 scudo::reportAllocationSizeTooBig(unsigned long, unsigned long, unsigned long)
PUBLIC 43238 0 scudo::reportOutOfMemory(unsigned long)
PUBLIC 43278 0 scudo::reportInvalidChunkState(scudo::AllocatorAction, void*)
PUBLIC 432c8 0 scudo::stringifyAction(scudo::AllocatorAction)
PUBLIC 432f8 0 scudo::reportMisalignedPointer(scudo::AllocatorAction, void*)
PUBLIC 43348 0 scudo::reportDeallocTypeMismatch(scudo::AllocatorAction, void*, unsigned char, unsigned char)
PUBLIC 433b0 0 scudo::reportDeleteSizeMismatch(void*, unsigned long, unsigned long)
PUBLIC 43408 0 scudo::reportCallocOverflow(unsigned long, unsigned long)
PUBLIC 43450 0 scudo::reportInvalidPosixMemalignAlignment(unsigned long)
PUBLIC 43498 0 scudo::reportInvalidAlignedAllocAlignment(unsigned long, unsigned long)
PUBLIC 434e0 0 scudo::formatString(char*, unsigned long, char const*, std::__va_list)
PUBLIC 43b40 0 scudo::ScopedString::append(char const*, std::__va_list)
PUBLIC 43c90 0 scudo::Printf(char const*, ...)
PUBLIC 43d88 0 scudo::appendNumber(char**, char const*, unsigned long long, unsigned char, unsigned char, bool, bool, bool)
PUBLIC 44058 0 scudo_calloc
PUBLIC 44108 0 scudo::Allocator<scudo::AndroidConfig, &scudo_malloc_postinit>::allocate(unsigned long, scudo::Chunk::Origin, unsigned long, bool)
PUBLIC 44588 0 scudo_free
PUBLIC 445a8 0 scudo::Allocator<scudo::AndroidConfig, &scudo_malloc_postinit>::deallocate(void*, scudo::Chunk::Origin, unsigned long, unsigned long)
PUBLIC 44720 0 scudo_mallinfo
PUBLIC 447e0 0 scudo_malloc
PUBLIC 44840 0 scudo_malloc_usable_size
PUBLIC 44910 0 scudo_memalign
PUBLIC 44950 0 scudo_posix_memalign
PUBLIC 44a20 0 scudo_realloc
PUBLIC 44ab0 0 scudo::Allocator<scudo::AndroidConfig, &scudo_malloc_postinit>::reallocate(void*, unsigned long, unsigned long)
PUBLIC 44d60 0 scudo_malloc_iterate
PUBLIC 44d90 0 scudo::Allocator<scudo::AndroidConfig, &scudo_malloc_postinit>::iterateOverChunks(unsigned long, unsigned long, void (*)(unsigned long, unsigned long, void*), void*)
PUBLIC 44fe0 0 scudo_malloc_enable
PUBLIC 44ff0 0 scudo::Allocator<scudo::AndroidConfig, &scudo_malloc_postinit>::enable()
PUBLIC 450e0 0 scudo_malloc_disable
PUBLIC 450f0 0 scudo::Allocator<scudo::AndroidConfig, &scudo_malloc_postinit>::disable()
PUBLIC 45210 0 scudo_malloc_postinit
PUBLIC 45228 0 scudo_mallopt
PUBLIC 45328 0 scudo::Allocator<scudo::AndroidConfig, &scudo_malloc_postinit>::setOption(scudo::Option, long)
PUBLIC 454a0 0 scudo::Allocator<scudo::AndroidConfig, &scudo_malloc_postinit>::releaseToOS()
PUBLIC 455a0 0 scudo_aligned_alloc
PUBLIC 45670 0 scudo_malloc_info
PUBLIC 45938 0 scudo_malloc_disable_memory_tagging
PUBLIC 45948 0 scudo::TSDRegistrySharedT<scudo::Allocator<scudo::AndroidConfig, &scudo_malloc_postinit>, (unsigned int)8, (unsigned int)2>::initThread(scudo::Allocator<scudo::AndroidConfig, &scudo_malloc_postinit>*)
PUBLIC 459e0 0 scudo::TSDRegistrySharedT<scudo::Allocator<scudo::AndroidConfig, &scudo_malloc_postinit>, (unsigned int)8, (unsigned int)2>::initLinkerInitialized(scudo::Allocator<scudo::AndroidConfig, &scudo_malloc_postinit>*)
PUBLIC 45e30 0 scudo::HybridMutex::lock()
PUBLIC 45ea8 0 scudo::Allocator<scudo::AndroidConfig, &scudo_malloc_postinit>::initLinkerInitialized()
PUBLIC 460d8 0 scudo::SizeClassAllocator64<scudo::TableSizeClassMap<scudo::AndroidSizeClassConfig>, (unsigned long)28, 1000, 1000, true>::initLinkerInitialized(int)
PUBLIC 46210 0 scudo::SizeClassAllocatorLocalCache<scudo::SizeClassAllocator64<scudo::TableSizeClassMap<scudo::AndroidSizeClassConfig>, (unsigned long)28, 1000, 1000, true> >::allocate(unsigned long)
PUBLIC 462a8 0 scudo::MapAllocator<scudo::MapAllocatorCache<(unsigned int)256, (unsigned int)32, (unsigned long)2097152, 0, 1000> >::allocate(unsigned long, unsigned long, unsigned long*, bool)
PUBLIC 46578 0 scudo::TSDRegistrySharedT<scudo::Allocator<scudo::AndroidConfig, &scudo_malloc_postinit>, (unsigned int)8, (unsigned int)2>::getTSDAndLockSlow(scudo::TSD<scudo::Allocator<scudo::AndroidConfig, &scudo_malloc_postinit> >*)
PUBLIC 466e8 0 scudo::SizeClassAllocatorLocalCache<scudo::SizeClassAllocator64<scudo::TableSizeClassMap<scudo::AndroidSizeClassConfig>, (unsigned long)28, 1000, 1000, true> >::refill(scudo::SizeClassAllocatorLocalCache<scudo::SizeClassAllocator64<scudo::TableSizeClassMap<scudo::AndroidSizeClassConfig>, (unsigned long)28, 1000, 1000, true> >::PerClass*, unsigned long)
PUBLIC 46858 0 scudo::SizeClassAllocatorLocalCache<scudo::SizeClassAllocator64<scudo::TableSizeClassMap<scudo::AndroidSizeClassConfig>, (unsigned long)28, 1000, 1000, true> >::initCache()
PUBLIC 468b8 0 scudo::SizeClassAllocator64<scudo::TableSizeClassMap<scudo::AndroidSizeClassConfig>, (unsigned long)28, 1000, 1000, true>::populateFreeList(scudo::SizeClassAllocatorLocalCache<scudo::SizeClassAllocator64<scudo::TableSizeClassMap<scudo::AndroidSizeClassConfig>, (unsigned long)28, 1000, 1000, true> >*, unsigned long, scudo::SizeClassAllocator64<scudo::TableSizeClassMap<scudo::AndroidSizeClassConfig>, (unsigned long)28, 1000, 1000, true>::RegionInfo*)
PUBLIC 46bc0 0 scudo::SizeClassAllocator64<scudo::TableSizeClassMap<scudo::AndroidSizeClassConfig>, (unsigned long)28, 1000, 1000, true>::getStats(scudo::ScopedString*)
PUBLIC 46ec0 0 scudo::SizeClassAllocator64<scudo::TableSizeClassMap<scudo::AndroidSizeClassConfig>, (unsigned long)28, 1000, 1000, true>::populateBatches(scudo::SizeClassAllocatorLocalCache<scudo::SizeClassAllocator64<scudo::TableSizeClassMap<scudo::AndroidSizeClassConfig>, (unsigned long)28, 1000, 1000, true> >*, scudo::SizeClassAllocator64<scudo::TableSizeClassMap<scudo::AndroidSizeClassConfig>, (unsigned long)28, 1000, 1000, true>::RegionInfo*, unsigned long, scudo::SizeClassAllocatorLocalCache<scudo::SizeClassAllocator64<scudo::TableSizeClassMap<scudo::AndroidSizeClassConfig>, (unsigned long)28, 1000, 1000, true> >*::TransferBatch*, unsigned int, void**, unsigned int)
PUBLIC 47040 0 scudo::Vector<char>::Vector(unsigned long)
PUBLIC 47140 0 scudo::SizeClassAllocator64<scudo::TableSizeClassMap<scudo::AndroidSizeClassConfig>, (unsigned long)28, 1000, 1000, true>::getStats(scudo::ScopedString*, unsigned long, unsigned long)
PUBLIC 47210 0 scudo::SizeClassAllocatorLocalCache<scudo::SizeClassAllocator64<scudo::TableSizeClassMap<scudo::AndroidSizeClassConfig>, (unsigned long)28, 1000, 1000, true> >::drain(scudo::SizeClassAllocatorLocalCache<scudo::SizeClassAllocator64<scudo::TableSizeClassMap<scudo::AndroidSizeClassConfig>, (unsigned long)28, 1000, 1000, true> >::PerClass*, unsigned long)
PUBLIC 473f0 0 scudo::SizeClassAllocator64<scudo::TableSizeClassMap<scudo::AndroidSizeClassConfig>, (unsigned long)28, 1000, 1000, true>::releaseToOSMaybe(scudo::SizeClassAllocator64<scudo::TableSizeClassMap<scudo::AndroidSizeClassConfig>, (unsigned long)28, 1000, 1000, true>::RegionInfo*, unsigned long, bool)
PUBLIC 47548 0 scudo::releaseFreeMemoryToOS<scudo::SizeClassAllocatorLocalCache<scudo::SizeClassAllocator64<scudo::TableSizeClassMap<scudo::AndroidSizeClassConfig>, (unsigned long)28, 1000, 1000, true> >::TransferBatch, scudo::ReleaseRecorder, scudo::SizeClassAllocator64<scudo::TableSizeClassMap<scudo::AndroidSizeClassConfig>, (unsigned long)28, 1000, 1000, true>(scudo::SizeClassAllocator64<scudo::TableSizeClassMap<scudo::AndroidSizeClassConfig>, (unsigned long)28, 1000, 1000, true>*::RegionInfo, unsigned long, bool)::releaseToOSMaybe::{lambda(unsigned long)#1}>(scudo::IntrusiveList<scudo::SizeClassAllocatorLocalCache<scudo::SizeClassAllocator64<scudo::TableSizeClassMap<scudo::AndroidSizeClassConfig>, (unsigned long)28, 1000, 1000, true> >::TransferBatch> const&, unsigned long, unsigned long, unsigned long, unsigned long, scudo::ReleaseRecorder*, scudo::SizeClassAllocator64<scudo::TableSizeClassMap<scudo::AndroidSizeClassConfig>, (unsigned long)28, 1000, 1000, true>(scudo::SizeClassAllocator64<scudo::TableSizeClassMap<scudo::AndroidSizeClassConfig>, (unsigned long)28, 1000, 1000, true>*::RegionInfo, unsigned long, bool)::releaseToOSMaybe::{lambda(unsigned long)#1})
PUBLIC 47ac0 0 scudo::PackedCounterArray::PackedCounterArray(unsigned long, unsigned long, unsigned long)
PUBLIC 47c68 0 scudo::Allocator<scudo::AndroidConfig, &scudo_malloc_postinit>::quarantineOrDeallocateChunk(void*, scudo::Chunk::UnpackedHeader*, unsigned long)
PUBLIC 47f58 0 scudo::MapAllocator<scudo::MapAllocatorCache<(unsigned int)256, (unsigned int)32, (unsigned long)2097152, 0, 1000> >::deallocate(void*)
PUBLIC 480c0 0 scudo::MapAllocatorCache<(unsigned int)256, (unsigned int)32, (unsigned long)2097152, 0, 1000>::store(scudo::LargeBlock::Header*)
PUBLIC 482f0 0 scudo::QuarantineCache<scudo::Allocator<scudo::AndroidConfig, &scudo_malloc_postinit>::QuarantineCallback>::enqueue(scudo::Allocator<scudo::AndroidConfig, &scudo_malloc_postinit>::QuarantineCallback, void*, unsigned long)
PUBLIC 48450 0 scudo::GlobalQuarantine<scudo::Allocator<scudo::AndroidConfig, &scudo_malloc_postinit>::QuarantineCallback, void>::drain(scudo::QuarantineCache<scudo::Allocator<scudo::AndroidConfig, &scudo_malloc_postinit>::QuarantineCallback>*, scudo::Allocator<scudo::AndroidConfig, &scudo_malloc_postinit>::QuarantineCallback)
PUBLIC 48530 0 scudo::GlobalQuarantine<scudo::Allocator<scudo::AndroidConfig, &scudo_malloc_postinit>::QuarantineCallback, void>::recycle(unsigned long, scudo::Allocator<scudo::AndroidConfig, &scudo_malloc_postinit>::QuarantineCallback)
PUBLIC 48680 0 scudo::QuarantineCache<scudo::Allocator<scudo::AndroidConfig, &scudo_malloc_postinit>::QuarantineCallback>::mergeBatches(scudo::QuarantineCache<scudo::Allocator<scudo::AndroidConfig, &scudo_malloc_postinit>::QuarantineCallback>*)
PUBLIC 487c8 0 scudo::GlobalQuarantine<scudo::Allocator<scudo::AndroidConfig, &scudo_malloc_postinit>::QuarantineCallback, void>::doRecycle(scudo::QuarantineCache<scudo::Allocator<scudo::AndroidConfig, &scudo_malloc_postinit>::QuarantineCallback>*, scudo::Allocator<scudo::AndroidConfig, &scudo_malloc_postinit>::QuarantineCallback)
PUBLIC 48ab8 0 scudo::Allocator<scudo::AndroidConfig, &scudo_malloc_postinit>::QuarantineCallback::deallocate(void*)
PUBLIC 48be8 0 scudo::SizeClassAllocator64<scudo::TableSizeClassMap<scudo::AndroidSizeClassConfig>, (unsigned long)28, 1000, 1000, true>::enable()
PUBLIC 48d10 0 scudo::SizeClassAllocator64<scudo::TableSizeClassMap<scudo::AndroidSizeClassConfig>, (unsigned long)28, 1000, 1000, true>::disable()
PUBLIC 48e38 0 scudo::computeHardwareCRC32(unsigned int, unsigned long)
PUBLIC 48e40 0 gwp_asan::AllocationMetadata::RecordAllocation(unsigned long, unsigned long)
PUBLIC 48e78 0 gwp_asan::AllocationMetadata::RecordDeallocation()
PUBLIC 48ea8 0 gwp_asan::AllocationMetadata::CallSiteInfo::RecordBacktrace(unsigned long (*)(unsigned long*, unsigned long))
PUBLIC m 48f48 0 gwp_asan::AllocatorState::maximumAllocationSize() const
PUBLIC 48f50 0 gwp_asan::AllocatorState::slotToAddr(unsigned long) const
PUBLIC 48f68 0 gwp_asan::AllocatorState::getNearestSlot(unsigned long) const
PUBLIC 48fd8 0 gwp_asan::GuardedPoolAllocator::getSingleton()
PUBLIC 48fe8 0 gwp_asan::GuardedPoolAllocator::init(gwp_asan::options::Options const&)
PUBLIC 491b0 0 gwp_asan::GuardedPoolAllocator::disable()
PUBLIC 491b8 0 gwp_asan::GuardedPoolAllocator::enable()
PUBLIC 491c0 0 gwp_asan::GuardedPoolAllocator::iterate(void*, unsigned long, void (*)(unsigned long, unsigned long, void*), void*)
PUBLIC 49268 0 gwp_asan::GuardedPoolAllocator::allocate(unsigned long)
PUBLIC 49400 0 gwp_asan::GuardedPoolAllocator::deallocate(void*)
PUBLIC 49540 0 gwp_asan::GuardedPoolAllocator::getSize(void const*)
PUBLIC 495a0 0 gwp_asan::getThreadID()
PUBLIC 495a8 0 gwp_asan::GuardedPoolAllocator::mapMemory(unsigned long, char const*) const
PUBLIC 49620 0 gwp_asan::GuardedPoolAllocator::markReadWrite(void*, unsigned long, char const*) const
PUBLIC 49688 0 gwp_asan::GuardedPoolAllocator::markInaccessible(void*, unsigned long, char const*) const
PUBLIC 49700 0 gwp_asan::GuardedPoolAllocator::getPlatformPageSize()
PUBLIC 49708 0 gwp_asan::GuardedPoolAllocator::installAtFork()
PUBLIC 49720 0 gwp_asan::GuardedPoolAllocator::installAtFork()::$_0::__invoke()
PUBLIC 49740 0 gwp_asan::GuardedPoolAllocator::installAtFork()::$_1::__invoke()
PUBLIC 49760 0 gwp_asan::Mutex::lock()
PUBLIC 49768 0 gwp_asan::Mutex::unlock()
PUBLIC 49770 0 gwp_asan::Check(bool, char const*)
PUBLIC 49798 0 gwp_asan::rightAlignedAllocationSize(unsigned long, gwp_asan::AlignmentStrategy)
PUBLIC 49808 0 gwp_asan::initPRNG()
PUBLIC 49848 0 gwp_asan::getRandomUnsigned32()
PUBLIC 49870 0 gwp_asan::compression::pack(unsigned long const*, unsigned long, unsigned char*, unsigned long)
PUBLIC 498f0 0 __libc_preinit()
PUBLIC 49908 0 __libc_preinit_impl()
PUBLIC m 499c8 0 __libc_init
PUBLIC 49a40 0 __libc_shared_globals()
PUBLIC m 49a48 0 sysconf
PUBLIC m 49c78 0 clock_gettime
PUBLIC m 49cc8 0 clock_getres
PUBLIC m 49d18 0 gettimeofday
PUBLIC m 49d68 0 time
PUBLIC 49df0 0 __libc_init_vdso(libc_globals*)
PUBLIC 4a030 0 __libc_init_setjmp_cookie(libc_globals*)
PUBLIC 4a090 0 __bionic_setjmp_cookie_get
PUBLIC 4a0c8 0 __bionic_setjmp_cookie_check
PUBLIC 4a100 0 __bionic_setjmp_checksum_mismatch
PUBLIC m 4a118 0 android_set_abort_message
PUBLIC 4a1d0 0 fill_abort_message_magic(magic_abort_msg_t*)
PUBLIC m 4a1e0 0 strrchr
PUBLIC m 4a200 0 memcmp
PUBLIC 4a310 0 __memcpy
PUBLIC m 4a480 0 memcpy
PUBLIC m 4a530 0 __memset_chk
PUBLIC m 4a540 0 memset
PUBLIC m 4a720 0 stpcpy
PUBLIC m 4a860 0 strcpy
PUBLIC m 4a990 0 wmemmove
PUBLIC 4aa40 0 memchr_default
PUBLIC 4ab20 0 strchr_default
PUBLIC 4ac00 0 strcmp_default
PUBLIC 4acf0 0 strlen_default
PUBLIC 4ae60 0 strncmp_default
PUBLIC 4b070 0 strnlen_default
PUBLIC 4b130 0 __bionic_clone
PUBLIC 4b160 0 _exit_with_stack_teardown
PUBLIC m 4b180 0 setjmp
PUBLIC m 4b190 0 _setjmp
PUBLIC m 4b1a0 0 sigsetjmp
PUBLIC m 4b350 0 _longjmp
PUBLIC m 4b4f0 0 syscall
PUBLIC m 4b520 0 vfork
PUBLIC 4b568 0 android::properties::PropertyInfoArea::GetPropertyInfoIndexes(char const*, unsigned int*, unsigned int*) const
PUBLIC 4b8f8 0 android::properties::PropertyInfoAreaFile::LoadDefaultPath()
PUBLIC 4b908 0 android::properties::PropertyInfoAreaFile::LoadPath(char const*)
PUBLIC 4ba30 0 android::properties::PropertyInfoAreaFile::Reset()
PUBLIC 4ba60 0 ContextNode::Open(bool, bool*)
PUBLIC 4bcc0 0 ContextNode::CheckAccessAndOpen()
PUBLIC 4bd88 0 ContextNode::ResetAccess()
PUBLIC 4be50 0 ContextNode::Unmap()
PUBLIC m 4be88 0 __futex_wait_ex(void volatile*, bool, int)
PUBLIC 4bef8 0 ContextsSplit::InitializePropertiesFromFile(char const*)
PUBLIC 4c1b0 0 read_spec_entries(char*, int, ...)
PUBLIC 4c390 0 ContextsSplit::InitializeProperties()
PUBLIC 4c470 0 ContextsSplit::Initialize(bool, char const*, bool*)
PUBLIC 4c5d8 0 ContextsSplit::GetPropAreaForName(char const*)
PUBLIC 4c650 0 ContextsSplit::ForEach(void (*)(prop_info const*, void*), void*)
PUBLIC 4c6b0 0 ContextsSplit::ResetAccess()
PUBLIC 4c6e0 0 ContextsSplit::FreeAndUnmap()
PUBLIC m 4c770 0 ContextsSplit::~ContextsSplit()
PUBLIC 4c778 0 ContextsSerialized::InitializeContextNodes()
PUBLIC 4c868 0 ContextsSerialized::Initialize(bool, char const*, bool*)
PUBLIC 4c9f8 0 ContextsSerialized::GetPropAreaForName(char const*)
PUBLIC 4cac8 0 ContextsSerialized::ForEach(void (*)(prop_info const*, void*), void*)
PUBLIC 4cb50 0 ContextsSerialized::ResetAccess()
PUBLIC 4cba8 0 ContextsSerialized::FreeAndUnmap()
PUBLIC 4cc50 0 ContextsSerialized::~ContextsSerialized()
PUBLIC 4cc68 0 ContextsSerialized::~ContextsSerialized()
PUBLIC 4cca0 0 ContextsSerialized::GetSerialPropArea()
PUBLIC 4cca8 0 prop_area::map_prop_area_rw(char const*, char const*, bool*)
PUBLIC 4ce00 0 prop_area::map_fd_ro(int)
PUBLIC 4cf08 0 prop_area::map_prop_area(char const*)
PUBLIC 4cf58 0 prop_area::find_prop_bt(prop_bt*, char const*, unsigned int, bool)
PUBLIC 4d0b8 0 prop_area::find_property(prop_bt*, char const*, unsigned int, char const*, unsigned int, bool)
PUBLIC 4d318 0 prop_area::foreach_property(prop_bt*, void (*)(prop_info const*, void*), void*)
PUBLIC 4d430 0 prop_area::find(char const*)
PUBLIC 4d480 0 prop_area::add(char const*, unsigned int, char const*, unsigned int)
PUBLIC 4d4b8 0 prop_area::foreach(void (*)(prop_info const*, void*), void*)
PUBLIC m 4d4d0 0 prop_info::prop_info(char const*, unsigned int, char const*, unsigned int)
PUBLIC m 4d540 0 prop_info::prop_info(char const*, unsigned int, unsigned int)
PUBLIC 4d5b8 0 SystemProperties::Init(char const*)
PUBLIC 4d748 0 SystemProperties::AreaInit(char const*, bool*)
PUBLIC 4d7e8 0 SystemProperties::AreaSerial()
PUBLIC 4d828 0 SystemProperties::Find(char const*)
PUBLIC 4d890 0 SystemProperties::Read(prop_info const*, char*, char*)
PUBLIC 4d9c0 0 SystemProperties::ReadCallback(prop_info const*, void (*)(void*, char const*, char const*, unsigned int), void*)
PUBLIC 4db00 0 SystemProperties::Get(char const*, char*)
PUBLIC 4db98 0 SystemProperties::Update(prop_info*, char const*, unsigned int)
PUBLIC 4dd10 0 SystemProperties::Add(char const*, unsigned int, char const*, unsigned int)
PUBLIC 4de48 0 SystemProperties::WaitAny(unsigned int)
PUBLIC 4df00 0 SystemProperties::Wait(prop_info const*, unsigned int, unsigned int*, timespec const*)
PUBLIC 4dfe8 0 SystemProperties::FindNth(unsigned int)
PUBLIC 4e060 0 SystemProperties::Foreach(void (*)(prop_info const*, void*), void*)
PUBLIC 4e098 0 SystemProperties::FindNth(unsigned int)::find_nth::fn(prop_info const*, void*)
PUBLIC 4e0b8 0 ContextsPreSplit::Initialize(bool, char const*, bool*)
PUBLIC m 4e0f0 0 ContextsPreSplit::GetSerialPropArea()
PUBLIC 4e0f8 0 ContextsPreSplit::ForEach(void (*)(prop_info const*, void*), void*)
PUBLIC 4e100 0 ContextsPreSplit::FreeAndUnmap()
PUBLIC 4e138 0 fallBackNetIdForResolv(unsigned int)
PUBLIC 4e140 0 fallBackDnsOpenProxy()
PUBLIC m 4e148 0 accept4
PUBLIC m 4e228 0 connect
PUBLIC m 4e238 0 sendmmsg
PUBLIC m 4e248 0 sendmsg
PUBLIC m 4e258 0 sendto
PUBLIC m 4e278 0 socket
PUBLIC 4e358 0 __bionic_get_shell_path
PUBLIC 4e3b8 0 init_sh_path()
PUBLIC m 4e448 0 __cmsg_nxthdr
PUBLIC m 4e470 0 __errno
PUBLIC m 4e480 0 __gnu_basename
PUBLIC m 4e4b0 0 __libc_current_sigrtmax
PUBLIC m 4e4b8 0 __libc_current_sigrtmin
PUBLIC m 4e4c0 0 abort
PUBLIC m 4e600 0 accept
PUBLIC m 4e608 0 access
PUBLIC m 4e620 0 inet_network
PUBLIC m 4e680 0 inet_addr
PUBLIC m 4e6d8 0 inet_aton
PUBLIC m 4e908 0 __assert
PUBLIC m 4e930 0 __assert2
PUBLIC m 4e958 0 atof
PUBLIC 4e960 0 BionicSmallObjectAllocator::alloc()
PUBLIC 4ea98 0 BionicSmallObjectAllocator::alloc_page()
PUBLIC 4eb80 0 BionicSmallObjectAllocator::free(void*)
PUBLIC 4ecb0 0 BionicAllocator::alloc_mmap(unsigned long, unsigned long)
PUBLIC 4ed90 0 BionicAllocator::alloc(unsigned long)
PUBLIC 4eda0 0 BionicAllocator::alloc_impl(unsigned long, unsigned long)
PUBLIC 4eec8 0 BionicAllocator::memalign(unsigned long, unsigned long)
PUBLIC 4ef08 0 BionicAllocator::free(void*)
PUBLIC 4f070 0 __libc_safe_arc4random_buf(void*, unsigned long)
PUBLIC 4f168 0 __futex_wait_ex(void volatile*, bool, int, bool, timespec const*)
PUBLIC 4f250 0 __futex_pi_lock_ex(void volatile*, bool, bool, timespec const*)
PUBLIC m 4f328 0 NetlinkConnection::NetlinkConnection()
PUBLIC m 4f360 0 NetlinkConnection::~NetlinkConnection()
PUBLIC 4f3c0 0 NetlinkConnection::SendRequest(int)
PUBLIC 4f510 0 NetlinkConnection::ReadResponses(void (*)(void*, nlmsghdr*), void*)
PUBLIC 4f618 0 bionic_trace_begin(char const*)
PUBLIC 4fab8 0 bionic_trace_end()
PUBLIC m 4fec8 0 ScopedTrace::ScopedTrace(char const*)
PUBLIC m 4fed8 0 ScopedTrace::~ScopedTrace()
PUBLIC 4ff08 0 CachedProperty::Callback(void*, char const*, char const*, unsigned int)
PUBLIC 4ff30 0 timespec_from_timeval
PUBLIC 4ff70 0 timespec_from_ms
PUBLIC 4ffb0 0 timeval_from_timespec
PUBLIC 4ffe0 0 monotonic_time_from_realtime_time
PUBLIC m 500c8 0 brk
PUBLIC m 50118 0 sbrk
PUBLIC m 501b0 0 c16rtomb
PUBLIC m 502a0 0 c32rtomb
PUBLIC m 503b0 0 chmod
PUBLIC m 503c8 0 chown
PUBLIC m 503e8 0 clearenv
PUBLIC m 50420 0 clock
PUBLIC m 504b0 0 clock_getcpuclockid
PUBLIC m 50518 0 clock_nanosleep
PUBLIC 50590 0 __start_thread
PUBLIC m 505d8 0 clone
PUBLIC m 50820 0 isalnum
PUBLIC m 50840 0 isalpha
PUBLIC m 50858 0 isblank
PUBLIC m 50870 0 iscntrl
PUBLIC m 50888 0 isdigit
PUBLIC m 50898 0 isgraph
PUBLIC m 508a8 0 islower
PUBLIC m 508b8 0 isprint
PUBLIC m 508c8 0 ispunct
PUBLIC m 508e8 0 isspace
PUBLIC m 50908 0 isupper
PUBLIC m 50918 0 isxdigit
PUBLIC m 50940 0 _tolower
PUBLIC m 50948 0 tolower
PUBLIC m 50960 0 _toupper
PUBLIC m 50968 0 toupper
PUBLIC m 50980 0 isascii
PUBLIC m 50990 0 toascii
PUBLIC m 50998 0 isalnum_l
PUBLIC m 509b8 0 isalpha_l
PUBLIC m 509d0 0 isblank_l
PUBLIC m 509e8 0 iscntrl_l
PUBLIC m 50a00 0 isdigit_l
PUBLIC m 50a10 0 isgraph_l
PUBLIC m 50a20 0 islower_l
PUBLIC m 50a30 0 isprint_l
PUBLIC m 50a40 0 ispunct_l
PUBLIC m 50a60 0 isspace_l
PUBLIC m 50a80 0 isupper_l
PUBLIC m 50a90 0 isxdigit_l
PUBLIC m 50ab8 0 toupper_l
PUBLIC m 50ad0 0 tolower_l
PUBLIC m 50ae8 0 dirfd
PUBLIC 50b10 0 __fortify_fatal(char const*, ...)
PUBLIC m 50b90 0 fdopendir
PUBLIC m 50c78 0 opendir
PUBLIC m 50cf8 0 readdir
PUBLIC m 50dc0 0 readdir64_r
PUBLIC m 50ee0 0 closedir
PUBLIC m 50f48 0 rewinddir
PUBLIC m 50fa0 0 seekdir
PUBLIC m 51008 0 telldir
PUBLIC m 51030 0 alphasort
PUBLIC m 51048 0 dup
PUBLIC m 51120 0 dup2
PUBLIC m 51228 0 dup3
PUBLIC m 51300 0 error
PUBLIC m 51480 0 error_at_line
PUBLIC m 51650 0 eventfd
PUBLIC m 51728 0 eventfd_read
PUBLIC m 51748 0 eventfd_write
PUBLIC m 517a0 0 execl
PUBLIC 51848 0 __execl(char const*, char const*, ExecVariant, std::__va_list)
PUBLIC m 519f8 0 execle
PUBLIC m 51aa0 0 execlp
PUBLIC m 51b48 0 execv
PUBLIC m 51b58 0 execvp
PUBLIC m 51b68 0 execvpe
PUBLIC 51e18 0 __exec_as_script(char const*, char* const*, char* const*)
PUBLIC m 51ee8 0 fexecve
PUBLIC m 51f78 0 snprintf(char*, unsigned long pass_object_size1, char const*, ...)
PUBLIC m 52028 0 faccessat
PUBLIC m 52068 0 fchmod
PUBLIC m 52150 0 fchmodat
PUBLIC m 521e8 0 fcntl
PUBLIC 523c0 0 __libc_init_fdsan()
PUBLIC 523c8 0 android_fdsan_set_error_level_from_property
PUBLIC m 52448 0 android_fdsan_get_fd_table
PUBLIC m 52450 0 android_fdsan_create_owner_tag
PUBLIC m 52488 0 android_fdsan_get_tag_type
PUBLIC m 52570 0 android_fdsan_get_tag_value
PUBLIC m 52578 0 android_fdsan_close_with_tag
PUBLIC 52918 0 fdsan_error(char const*, ...)
PUBLIC m 52b70 0 android_fdsan_get_owner_tag
PUBLIC m 52bb0 0 android_fdsan_exchange_owner_tag
PUBLIC m 52f58 0 android_fdsan_get_error_level
PUBLIC m 52f78 0 android_fdsan_set_error_level
PUBLIC m 52fc8 0 close
PUBLIC 53010 0 FdTableImpl<(unsigned long)128>::at(unsigned long)
PUBLIC 53158 0 android_fdsan_set_error_level_from_property::$_0::__invoke(void*, char const*, char const*, unsigned int)
PUBLIC m 53228 0 android_fdtrack_get_enabled
PUBLIC m 53248 0 android_fdtrack_set_enabled
PUBLIC m 53278 0 android_fdtrack_compare_exchange_hook
PUBLIC 532c0 0 __libc_init_fdtrack()
PUBLIC 532d0 0 __libc_init_fdtrack()::$_0::__invoke(int)
PUBLIC m 532d8 0 ffs
PUBLIC m 532f0 0 fgetxattr
PUBLIC m 533e8 0 flistxattr
PUBLIC m 534c8 0 flockfile
PUBLIC m 534e0 0 ftrylockfile
PUBLIC m 534f8 0 funlockfile
PUBLIC m 53510 0 __fpclassify
PUBLIC m 53568 0 __fpclassifyf
PUBLIC m 535c0 0 __isinf
PUBLIC m 535d8 0 __isinff
PUBLIC m 535f0 0 __isnan
PUBLIC m 53600 0 __isnanf
PUBLIC m 53610 0 __isfinite
PUBLIC m 53630 0 __isfinitef
PUBLIC m 53650 0 __isnormal
PUBLIC m 53688 0 __isnormalf
PUBLIC m 536c0 0 __fpclassifyl
PUBLIC m 53760 0 __isinfl
PUBLIC m 537a0 0 __isnanl
PUBLIC m 537c0 0 __isfinitel
PUBLIC m 53828 0 __isnormall
PUBLIC m 538b0 0 fsetxattr
PUBLIC m 539a8 0 ftw
PUBLIC 539b8 0 do_nftw(char const*, int (*)(char const*, stat const*, int), int (*)(char const*, stat const*, int, FTW*), int, int)
PUBLIC m 53bc8 0 nftw
PUBLIC m 53be0 0 futimens
PUBLIC m 53bf0 0 getcwd
PUBLIC m 53cb8 0 getdomainname
PUBLIC m 53db0 0 getentropy
PUBLIC m 53f08 0 gethostname
PUBLIC m 53ff8 0 getloadavg
PUBLIC m 54128 0 getpagesize
PUBLIC m 54130 0 getpgrp
PUBLIC 54138 0 __get_cached_pid()
PUBLIC m 54160 0 getpid
PUBLIC m 54180 0 getpriority
PUBLIC m 541a8 0 gettid
PUBLIC m 541f8 0 android_get_device_api_level
PUBLIC 54280 0 getpwuid_internal(unsigned int, passwd_state_t*)
PUBLIC 54330 0 oem_id_to_passwd(unsigned int, passwd_state_t*)
PUBLIC 54428 0 app_id_to_passwd(unsigned int, passwd_state_t*)
PUBLIC m 54628 0 getpwuid
PUBLIC 54678 0 getpwnam_internal(char const*, passwd_state_t*)
PUBLIC 54848 0 app_id_from_name(char const*, bool)
PUBLIC m 54b08 0 getpwnam
PUBLIC m 54b58 0 getpwnam_r
PUBLIC m 54c38 0 getpwuid_r
PUBLIC m 54d18 0 getgrouplist
PUBLIC m 54d40 0 getlogin
PUBLIC m 54db0 0 getlogin_r
PUBLIC m 54e70 0 setpwent
PUBLIC m 54ec8 0 endpwent
PUBLIC m 54f20 0 getpwent
PUBLIC m 550f0 0 getgrgid
PUBLIC m 551c0 0 getgrnam
PUBLIC 55208 0 getgrnam_internal(char const*, group_state_t*)
PUBLIC m 553b0 0 getgrgid_r
PUBLIC m 554d8 0 getgrnam_r
PUBLIC m 555a0 0 setgrent
PUBLIC m 555f0 0 endgrent
PUBLIC m 55640 0 getgrent
PUBLIC 557f0 0 oem_id_to_group(unsigned int, group_state_t*)
PUBLIC 558c0 0 app_id_to_group(unsigned int, group_state_t*)
PUBLIC 55b20 0 snprintf(char*, unsigned long pass_object_size1, char const*, ...)
PUBLIC 55bd0 0 is_oem_id(unsigned int)
PUBLIC 55d20 0 _GLOBAL__sub_I_grp_pwd.cpp
PUBLIC 55e48 0 MmapFile::GetFile(char const**, char const**)
PUBLIC 55ff8 0 MmapFile::DoMmap()
PUBLIC m 56108 0 PasswdFile::PasswdFile(char const*, char const*)
PUBLIC 56120 0 PasswdFile::FindById(unsigned int, passwd_state_t*)
PUBLIC 56358 0 (anonymous namespace)::PasswdLine::ToPasswdState(passwd_state_t*)
PUBLIC 56568 0 PasswdFile::FindByName(char const*, passwd_state_t*)
PUBLIC 56790 0 GroupFile::FindById(unsigned int, group_state_t*)
PUBLIC 56a68 0 GroupFile::FindByName(char const*, group_state_t*)
PUBLIC m 56d30 0 iconv_open
PUBLIC 56db0 0 __parse_encoding(char const*, Encoding*, Mode*)
PUBLIC m 56f18 0 iconv
PUBLIC m 56fc8 0 iconv_close
PUBLIC 57008 0 __match_encoding(char const*, char const*)
PUBLIC 570f0 0 __iconv_t::GetNext()
PUBLIC 57320 0 __iconv_t::Convert()
PUBLIC 575a8 0 __icu_charType(unsigned int)
PUBLIC 57640 0 __icu_getIntPropertyValue(unsigned int, UProperty)
PUBLIC 576e0 0 __icu_hasBinaryProperty(unsigned int, UProperty, int (*)(int))
PUBLIC m 57798 0 getifaddrs
PUBLIC 57a28 0 __getifaddrs_callback(void*, nlmsghdr*)
PUBLIC m 57f70 0 freeifaddrs
PUBLIC 57fa0 0 ifaddrs_storage::SetAddress(int, void const*, unsigned long)
PUBLIC m 58110 0 inotify_init
PUBLIC m 58118 0 ioctl
PUBLIC m 581e0 0 killpg
PUBLIC m 58210 0 nl_langinfo
PUBLIC m 58490 0 nl_langinfo_l
PUBLIC m 58498 0 lchown
PUBLIC m 584b8 0 mkstemp64
PUBLIC m 584c0 0 mkostemp64
PUBLIC m 584c8 0 mkstemps64
PUBLIC m 584d0 0 mkostemps64
PUBLIC m 584d8 0 ftw64
PUBLIC m 584e0 0 nftw64
PUBLIC 584e8 0 __libc_init_globals()
PUBLIC 585c0 0 __libc_add_main_thread()
PUBLIC 585d0 0 __libc_init_common()
PUBLIC 58628 0 __libc_init_fork_handler()
PUBLIC 58640 0 arc4random_fork_handler()
PUBLIC 58658 0 __libc_fini
PUBLIC 586d8 0 __dirname_r(char const*, char*, unsigned long)
PUBLIC m 58840 0 basename
PUBLIC m 58950 0 dirname
PUBLIC m 58990 0 link
PUBLIC m 589b0 0 __ctype_get_mb_cur_max
PUBLIC m 589e8 0 uselocale
PUBLIC m 58a10 0 localeconv
PUBLIC 58a40 0 __locale_init()
PUBLIC m 58a80 0 duplocale
PUBLIC m 58ad0 0 freelocale
PUBLIC m 58ae0 0 newlocale
PUBLIC m 58bc8 0 setlocale
PUBLIC m 58cc0 0 lockf64
PUBLIC m 58dc8 0 lockf
PUBLIC m 58dd0 0 lstat
PUBLIC m 58de8 0 mblen
PUBLIC m 58e38 0 mbrtoc16
PUBLIC m 58f40 0 mbrtoc32
PUBLIC m 59198 0 memmem
PUBLIC m 592a0 0 mempcpy
PUBLIC m 592c8 0 mkdir
PUBLIC m 592e0 0 mkfifo
PUBLIC m 59300 0 mkfifoat
PUBLIC m 59310 0 mknod
PUBLIC m 59328 0 getmntent
PUBLIC m 59348 0 getmntent_r
PUBLIC m 59498 0 setmntent
PUBLIC m 594a0 0 endmntent
PUBLIC m 594c0 0 hasmntopt
PUBLIC m 59588 0 mremap
PUBLIC m 59680 0 if_indextoname
PUBLIC m 59768 0 if_nametoindex
PUBLIC m 59840 0 if_nameindex
PUBLIC 59988 0 __if_nameindex_callback(void*, nlmsghdr*)
PUBLIC m 59a40 0 if_freenameindex
PUBLIC m 59a90 0 endnetent
PUBLIC m 59a98 0 endprotoent
PUBLIC m 59aa0 0 getnetbyaddr
PUBLIC m 59aa8 0 getnetbyname
PUBLIC m 59ab0 0 getnetent
PUBLIC m 59ab8 0 getprotobyname
PUBLIC m 59ac0 0 getprotobynumber
PUBLIC m 59ac8 0 getprotoent
PUBLIC m 59ad0 0 setnetent
PUBLIC m 59ad8 0 setprotoent
PUBLIC m 59ae0 0 bindresvport
PUBLIC m 59c30 0 catopen
PUBLIC m 59c38 0 catgets
PUBLIC m 59c40 0 catclose
PUBLIC m 59c68 0 creat
PUBLIC m 59c78 0 open
PUBLIC m 59e10 0 __open_2
PUBLIC 59f18 0 __fortify_fatal(char const*, ...)
PUBLIC m 59f98 0 openat
PUBLIC m 5a118 0 __openat_2
PUBLIC m 5a210 0 pathconf
PUBLIC 5a290 0 __pathconf(statfs const&, int)
PUBLIC m 5a460 0 fpathconf
PUBLIC m 5a4e0 0 pause
PUBLIC m 5a530 0 pipe
PUBLIC m 5a6a8 0 pipe2
PUBLIC m 5a820 0 poll
PUBLIC m 5a8a8 0 ppoll
PUBLIC m 5a900 0 ppoll64
PUBLIC m 5aa08 0 select
PUBLIC m 5aae8 0 pselect
PUBLIC m 5ab40 0 pselect64
PUBLIC m 5ac68 0 posix_fadvise
PUBLIC m 5acd0 0 posix_fadvise64
PUBLIC m 5ad38 0 posix_fallocate
PUBLIC m 5ad98 0 posix_fallocate64
PUBLIC m 5adf8 0 posix_madvise
PUBLIC m 5ae68 0 timer_create
PUBLIC 5b098 0 __timer_thread_start(void*)
PUBLIC 5b158 0 snprintf(char*, unsigned long pass_object_size1, char const*, ...)
PUBLIC m 5b200 0 timer_delete
PUBLIC m 5b260 0 timer_gettime
PUBLIC m 5b268 0 timer_settime
PUBLIC m 5b270 0 timer_getoverrun
PUBLIC m 5b278 0 ptrace
PUBLIC m 5b3f8 0 getpt
PUBLIC m 5b408 0 posix_openpt
PUBLIC m 5b418 0 grantpt
PUBLIC m 5b420 0 ptsname
PUBLIC m 5b4d0 0 ptsname_r
PUBLIC m 5b590 0 snprintf(char*, unsigned long pass_object_size1, char const*, ...)
PUBLIC m 5b638 0 ttyname
PUBLIC m 5b678 0 ttyname_r
PUBLIC m 5b758 0 unlockpt
PUBLIC m 5b7b0 0 openpty
PUBLIC m 5b910 0 forkpty
PUBLIC m 5ba38 0 login_tty
PUBLIC m 5bab0 0 raise
PUBLIC m 5baf0 0 rand
PUBLIC m 5bb08 0 srand
PUBLIC m 5bb10 0 readlink
PUBLIC m 5bb30 0 realpath
PUBLIC m 5bcc0 0 reboot
PUBLIC m 5bce0 0 recv
PUBLIC m 5bcf0 0 recvmsg
PUBLIC m 5be80 0 recvmmsg
PUBLIC m 5c048 0 rename
PUBLIC m 5c060 0 rmdir
PUBLIC m 5c078 0 scandirat
PUBLIC m 5c1b8 0 scandir
PUBLIC m 5c1d8 0 sched_getaffinity
PUBLIC m 5c220 0 sched_getcpu
PUBLIC m 5c280 0 sem_init
PUBLIC m 5c2c8 0 sem_destroy
PUBLIC m 5c2d0 0 sem_open
PUBLIC m 5c320 0 sem_close
PUBLIC m 5c348 0 sem_unlink
PUBLIC m 5c370 0 sem_wait
PUBLIC m 5c430 0 sem_timedwait
PUBLIC 5c438 0 __sem_timedwait(sem_t*, timespec const*, bool)
PUBLIC m 5c568 0 sem_timedwait_monotonic_np
PUBLIC m 5c570 0 sem_clockwait
PUBLIC m 5c5a0 0 sem_post
PUBLIC m 5c690 0 sem_trywait
PUBLIC m 5c700 0 sem_getvalue
PUBLIC m 5c718 0 send
PUBLIC m 5c728 0 setegid
PUBLIC m 5c738 0 seteuid
PUBLIC m 5c748 0 setpgrp
PUBLIC m 5c758 0 sigaction
PUBLIC m 5c800 0 pthread_sigmask
PUBLIC m 5c868 0 pthread_sigmask64
PUBLIC m 5c8d0 0 sigaddset
PUBLIC m 5c928 0 sigaddset64
PUBLIC m 5c980 0 sigblock
PUBLIC m 5c9e8 0 sigemptyset
PUBLIC m 5ca20 0 sigdelset
PUBLIC m 5ca78 0 sigdelset64
PUBLIC m 5cad0 0 sigemptyset64
PUBLIC m 5cb08 0 sigfillset
PUBLIC m 5cb40 0 sigfillset64
PUBLIC m 5cb78 0 sighold
PUBLIC m 5cc00 0 sigignore
PUBLIC m 5cc60 0 siginterrupt
PUBLIC m 5ccf0 0 sigismember
PUBLIC m 5cd40 0 sigismember64
PUBLIC m 5cd90 0 signal
PUBLIC m 5cdf8 0 sigpause
PUBLIC m 5cea8 0 sigsuspend64
PUBLIC m 5cf10 0 sigpending
PUBLIC m 5cf80 0 sigpending64
PUBLIC m 5cf88 0 sigqueue
PUBLIC m 5d020 0 sigrelse
PUBLIC m 5d0a8 0 sigset
PUBLIC m 5d1c0 0 sigsetmask
PUBLIC m 5d228 0 sigsuspend
PUBLIC m 5d288 0 sigtimedwait
PUBLIC m 5d2e8 0 sigtimedwait64
PUBLIC m 5d350 0 sigwait
PUBLIC m 5d408 0 sigwait64
PUBLIC m 5d4b8 0 sigwaitinfo
PUBLIC m 5d518 0 sigwaitinfo64
PUBLIC m 5d580 0 sigprocmask
PUBLIC m 5d638 0 sigprocmask64
PUBLIC m 5d758 0 sleep
PUBLIC m 5d7b8 0 socketpair
PUBLIC m 5d930 0 posix_spawn
PUBLIC 5d940 0 posix_spawn(int*, char const*, __posix_spawn_file_actions* const*, __posix_spawnattr* const*, char* const*, char* const*, int (*)(char const*, char* const*, char* const*))
PUBLIC m 5dac0 0 posix_spawnp
PUBLIC m 5dad0 0 posix_spawnattr_init
PUBLIC m 5db10 0 posix_spawnattr_destroy
PUBLIC m 5db40 0 posix_spawnattr_setflags
PUBLIC m 5db68 0 posix_spawnattr_getflags
PUBLIC m 5db80 0 posix_spawnattr_setpgroup
PUBLIC m 5db90 0 posix_spawnattr_getpgroup
PUBLIC m 5dba8 0 posix_spawnattr_setsigmask
PUBLIC m 5dbc0 0 posix_spawnattr_setsigmask64
PUBLIC m 5dbd8 0 posix_spawnattr_getsigmask
PUBLIC m 5dbf0 0 posix_spawnattr_getsigmask64
PUBLIC m 5dc08 0 posix_spawnattr_setsigdefault
PUBLIC m 5dc20 0 posix_spawnattr_setsigdefault64
PUBLIC m 5dc38 0 posix_spawnattr_getsigdefault
PUBLIC m 5dc50 0 posix_spawnattr_getsigdefault64
PUBLIC m 5dc68 0 posix_spawnattr_setschedparam
PUBLIC m 5dc80 0 posix_spawnattr_getschedparam
PUBLIC m 5dc98 0 posix_spawnattr_setschedpolicy
PUBLIC m 5dca8 0 posix_spawnattr_getschedpolicy
PUBLIC m 5dcc0 0 posix_spawn_file_actions_init
PUBLIC m 5dd00 0 posix_spawn_file_actions_destroy
PUBLIC m 5dd60 0 posix_spawn_file_actions_addopen
PUBLIC m 5de30 0 posix_spawn_file_actions_addclose
PUBLIC m 5dec8 0 posix_spawn_file_actions_adddup2
PUBLIC 5df68 0 ApplyAttrs(short, __posix_spawnattr* const*)
PUBLIC 5e0e0 0 __posix_spawn_file_action::Do()
PUBLIC m 5e170 0 stat
PUBLIC m 5e188 0 strtod_l
PUBLIC m 5e190 0 strtof_l
PUBLIC m 5e198 0 strtol_l
PUBLIC m 5e1a0 0 strtold_l
PUBLIC m 5e1a8 0 strtoll_l
PUBLIC m 5e1b0 0 strtoul_l
PUBLIC m 5e1b8 0 strtoull_l
PUBLIC m 5e1c0 0 strchrnul
PUBLIC m 5e1d8 0 strerror_r
PUBLIC m 5e280 0 __gnu_strerror_r
PUBLIC m 5e318 0 strerror
PUBLIC m 5e3e8 0 strcoll_l
PUBLIC m 5e3f0 0 strerror_l
PUBLIC m 5e3f8 0 strxfrm_l
PUBLIC m 5e400 0 strcasecmp_l
PUBLIC m 5e408 0 strncasecmp_l
PUBLIC 5e410 0 __strsignal
PUBLIC 5e4a8 0 snprintf(char*, unsigned long pass_object_size1, char const*, ...)
PUBLIC m 5e558 0 strsignal
PUBLIC m 5e5f0 0 atoi
PUBLIC m 5e610 0 strtol
PUBLIC m 5e618 0 atol
PUBLIC m 5e628 0 atoll
PUBLIC m 5e638 0 strtoll
PUBLIC m 5e640 0 strtoimax
PUBLIC m 5e648 0 StrToI<long, (long)-9223372036854775808, (long)9223372036854775807>(char const*, char**, int)
PUBLIC m 5e878 0 strtoq
PUBLIC m 5e880 0 strtoul
PUBLIC m 5e888 0 StrToU<unsigned long, (unsigned long)18446744073709551615>(char const*, char**, int)
PUBLIC m 5eaa0 0 strtoull
PUBLIC m 5eaa8 0 strtoumax
PUBLIC m 5eab0 0 strtouq
PUBLIC m 5eab8 0 strtold
PUBLIC m 5eb20 0 swab
PUBLIC m 5ec08 0 symlink
PUBLIC m 5ec18 0 sync_file_range
PUBLIC m 5ec20 0 epoll_create
PUBLIC m 5ed18 0 epoll_create1
PUBLIC m 5edf0 0 epoll_pwait
PUBLIC m 5ee50 0 epoll_pwait64
PUBLIC m 5ee58 0 epoll_wait
PUBLIC m 5ee68 0 msgctl
PUBLIC m 5ee90 0 msgget
PUBLIC m 5eeb0 0 msgrcv
PUBLIC m 5eed8 0 msgsnd
PUBLIC m 5ef08 0 semctl
PUBLIC m 5efe8 0 semget
PUBLIC m 5f010 0 semop
PUBLIC m 5f038 0 semtimedop
PUBLIC m 5f060 0 shmat
PUBLIC m 5f078 0 shmctl
PUBLIC m 5f0a0 0 shmdt
PUBLIC m 5f0c0 0 shmget
PUBLIC m 5f0e8 0 signalfd
PUBLIC m 5f140 0 signalfd64
PUBLIC m 5f150 0 fstatfs
PUBLIC m 5f180 0 statfs
PUBLIC m 5f1b0 0 statvfs
PUBLIC m 5f250 0 fstatvfs
PUBLIC m 5f2f0 0 utimes
PUBLIC m 5f3a8 0 lutimes
PUBLIC m 5f460 0 futimesat
PUBLIC m 5f520 0 futimes
PUBLIC m 5f5d0 0 get_nprocs_conf
PUBLIC m 5f698 0 get_nprocs
PUBLIC m 5f7c0 0 get_phys_pages
PUBLIC m 5f838 0 get_avphys_pages
PUBLIC m 5f8b0 0 closelog
PUBLIC m 5f8c0 0 openlog
PUBLIC m 5f8d0 0 setlogmask
PUBLIC m 5f8e8 0 syslog
PUBLIC m 5fa20 0 vsyslog
PUBLIC m 5fb08 0 system
PUBLIC m 5fd68 0 __system_properties_init
PUBLIC m 5fd98 0 __system_property_set_filename
PUBLIC m 5fda0 0 __system_property_area_init
PUBLIC m 5fe08 0 __system_property_area_serial
PUBLIC m 5fe18 0 __system_property_find
PUBLIC m 5fe28 0 __system_property_read
PUBLIC m 5fe48 0 __system_property_read_callback
PUBLIC m 5fe68 0 __system_property_get
PUBLIC m 5fe80 0 __system_property_update
PUBLIC m 5fea0 0 __system_property_add
PUBLIC m 5fec0 0 __system_property_serial
PUBLIC m 5fec8 0 __system_property_wait_any
PUBLIC m 5fed8 0 __system_property_wait
PUBLIC m 5fef8 0 __system_property_find_nth
PUBLIC m 5ff08 0 __system_property_foreach
PUBLIC m 5ff20 0 __system_property_set
PUBLIC 60428 0 PropertyServiceConnection::PropertyServiceConnection()
PUBLIC 60568 0 SocketWriter::WriteString(char const*)
PUBLIC m 60680 0 tdestroy
PUBLIC m 606d8 0 cfgetispeed
PUBLIC m 606e8 0 cfgetospeed
PUBLIC m 606f8 0 cfmakeraw
PUBLIC m 60730 0 cfsetspeed
PUBLIC m 60780 0 cfsetispeed
PUBLIC m 607d0 0 cfsetospeed
PUBLIC m 60820 0 tcdrain
PUBLIC m 60830 0 tcflow
PUBLIC m 60840 0 tcflush
PUBLIC m 60850 0 tcgetattr
PUBLIC m 60860 0 tcgetsid
PUBLIC m 608c0 0 tcsendbreak
PUBLIC m 608d0 0 tcsetattr
PUBLIC m 60908 0 tcgetpgrp
PUBLIC m 60968 0 tcsetpgrp
PUBLIC 609b8 0 _thread_arc4_lock
PUBLIC 609c8 0 _thread_arc4_unlock
PUBLIC m 609d8 0 call_once
PUBLIC m 609e0 0 cnd_broadcast
PUBLIC m 60a40 0 cnd_destroy
PUBLIC m 60a48 0 cnd_init
PUBLIC m 60ab0 0 cnd_signal
PUBLIC m 60b10 0 cnd_timedwait
PUBLIC m 60b70 0 cnd_wait
PUBLIC m 60bd0 0 mtx_destroy
PUBLIC m 60bd8 0 mtx_init
PUBLIC m 60cb0 0 mtx_lock
PUBLIC m 60d10 0 mtx_timedlock
PUBLIC m 60d70 0 mtx_trylock
PUBLIC m 60dd0 0 mtx_unlock
PUBLIC m 60e30 0 thrd_create
PUBLIC 60ed8 0 __bionic_thrd_trampoline(void*)
PUBLIC m 60f08 0 thrd_current
PUBLIC m 60f10 0 thrd_detach
PUBLIC m 60f70 0 thrd_equal
PUBLIC m 60f78 0 thrd_exit
PUBLIC m 60f88 0 thrd_join
PUBLIC m 61000 0 thrd_sleep
PUBLIC m 61030 0 thrd_yield
PUBLIC m 61038 0 tss_create
PUBLIC m 61098 0 tss_delete
PUBLIC m 610a0 0 tss_get
PUBLIC m 610a8 0 tss_set
PUBLIC m 61108 0 timespec_get
PUBLIC m 61140 0 tmpfile
PUBLIC 61170 0 __tmpfile_dir(char const*)
PUBLIC m 612e0 0 umount
PUBLIC m 612e8 0 unlink
PUBLIC m 61300 0 usleep
PUBLIC m 61378 0 wait
PUBLIC m 61390 0 waitpid
PUBLIC m 61398 0 waitid
PUBLIC m 613a0 0 mbsinit
PUBLIC m 613c0 0 mbrtowc
PUBLIC m 613d8 0 mbsnrtowcs
PUBLIC m 615b8 0 mbsrtowcs
PUBLIC m 615d0 0 wcrtomb
PUBLIC m 615e8 0 wcsnrtombs
PUBLIC m 617f0 0 wcsrtombs
PUBLIC m 61808 0 wcscasecmp_l
PUBLIC m 61810 0 wcsncasecmp_l
PUBLIC m 61818 0 wcscoll_l
PUBLIC m 61820 0 wcsftime_l
PUBLIC m 61828 0 wcsxfrm_l
PUBLIC m 61830 0 wcstod_l
PUBLIC m 61838 0 wcstof_l
PUBLIC m 61840 0 wcstol_l
PUBLIC m 61848 0 wcstoll_l
PUBLIC m 61850 0 wcstoul_l
PUBLIC m 61858 0 wcstoull_l
PUBLIC m 61860 0 wcstold_l
PUBLIC m 61868 0 wcstof
PUBLIC m 61a68 0 wcstod
PUBLIC m 61c68 0 wcstold
PUBLIC 61e60 0 wcstod<float>(wchar_t const*, wchar_t**, float (*)(char const*, char**))::{lambda(void*, char*, int)#1}::__invoke(void*, char*, int)
PUBLIC 61e68 0 wcstod<double>(wchar_t const*, wchar_t**, double (*)(char const*, char**))::{lambda(void*, char*, int)#1}::__invoke(void*, char*, int)
PUBLIC 61e70 0 wcstod<long double>(wchar_t const*, wchar_t**, long double (*)(char const*, char**))::{lambda(void*, char*, int)#1}::__invoke(void*, char*, int)
PUBLIC m 61e78 0 iswalnum
PUBLIC 61ea0 0 isalnum(int)
PUBLIC m 61ec0 0 iswalpha
PUBLIC 61ee8 0 isalpha(int)
PUBLIC m 61f00 0 iswblank
PUBLIC 61f28 0 isblank(int)
PUBLIC m 61f40 0 iswgraph
PUBLIC 61f68 0 isgraph(int)
PUBLIC m 61f78 0 iswlower
PUBLIC 61fa0 0 islower(int)
PUBLIC m 61fb0 0 iswprint
PUBLIC 61fd8 0 isprint(int)
PUBLIC m 61fe8 0 iswspace
PUBLIC 62010 0 isspace(int)
PUBLIC m 62030 0 iswupper
PUBLIC 62058 0 isupper(int)
PUBLIC m 62068 0 iswxdigit
PUBLIC 62090 0 isxdigit(int)
PUBLIC m 620b8 0 iswcntrl
PUBLIC m 62168 0 iswdigit
PUBLIC m 62208 0 iswpunct
PUBLIC m 622b0 0 iswalnum_l
PUBLIC m 622d8 0 iswalpha_l
PUBLIC m 62300 0 iswblank_l
PUBLIC m 62328 0 iswcntrl_l
PUBLIC m 623d8 0 iswdigit_l
PUBLIC m 62478 0 iswgraph_l
PUBLIC m 624a0 0 iswlower_l
PUBLIC m 624c8 0 iswprint_l
PUBLIC m 624f0 0 iswpunct_l
PUBLIC m 62598 0 iswspace_l
PUBLIC m 625c0 0 iswupper_l
PUBLIC m 625e8 0 iswxdigit_l
PUBLIC m 62610 0 iswctype
PUBLIC m 62890 0 iswctype_l
PUBLIC m 62898 0 towlower
PUBLIC m 62938 0 towupper
PUBLIC m 629d8 0 towupper_l
PUBLIC m 62a78 0 towlower_l
PUBLIC m 62b18 0 wctype
PUBLIC m 62ca0 0 wctype_l
PUBLIC m 62ca8 0 wctrans
PUBLIC m 62cf8 0 wctrans_l
PUBLIC m 62d48 0 towctrans
PUBLIC m 62e98 0 towctrans_l
PUBLIC m 62ea0 0 wcwidth
PUBLIC m 62fc0 0 wmempcpy
PUBLIC 62fe8 0 __init_tcb(bionic_tcb*, pthread_internal_t*)
PUBLIC 62ff0 0 __init_tcb_dtv(bionic_tcb*)
PUBLIC m 63000 0 __stack_chk_fail
PUBLIC m 63018 0 getauxval
PUBLIC m 63078 0 ns_name_ntop
PUBLIC m 63470 0 ns_name_pton
PUBLIC 63478 0 ns_name_pton2
PUBLIC m 638d8 0 ns_name_ntol
PUBLIC m 63a88 0 ns_name_unpack
PUBLIC 63a90 0 ns_name_unpack2
PUBLIC m 63c30 0 ns_name_pack
PUBLIC m 63f88 0 ns_name_uncompress
PUBLIC m 64040 0 ns_name_compress
PUBLIC m 640f8 0 ns_name_rollback
PUBLIC m 64128 0 ns_name_skip
PUBLIC m 641f0 0 ns_get16
PUBLIC m 64200 0 ns_get32
PUBLIC m 64210 0 ns_put16
PUBLIC m 64220 0 ns_put32
PUBLIC m 64230 0 ns_msg_getflag
PUBLIC m 64250 0 ns_skiprr
PUBLIC m 64310 0 ns_initparse
PUBLIC m 644d0 0 ns_parserr
PUBLIC m 647a0 0 ns_sprintrr
PUBLIC m 64808 0 ns_sprintrrf
PUBLIC 67208 0 addstr
PUBLIC 67290 0 addtab
PUBLIC 673a0 0 addname
PUBLIC 67560 0 charstr
PUBLIC m 67708 0 ns_makecanon
PUBLIC m 677f0 0 ns_samename
PUBLIC m 679b8 0 ns_format_ttl
PUBLIC 67d00 0 snprintf(char*, unsigned long pass_object_size1, char const*, ...)
PUBLIC m 67da8 0 gai_strerror
PUBLIC m 67dc8 0 freeaddrinfo
PUBLIC 67e10 0 readBE32
PUBLIC m 67e90 0 getaddrinfo
PUBLIC m 67ea0 0 android_getaddrinfofornet
PUBLIC m 67f00 0 android_getaddrinfofornetcontext
PUBLIC 686e8 0 android_getaddrinfo_proxy
PUBLIC 68a70 0 _files_getaddrinfo
PUBLIC 68d58 0 _dns_getaddrinfo
PUBLIC 694d0 0 get_port
PUBLIC 69638 0 getanswer
PUBLIC 69bd8 0 _find_src_addr
PUBLIC 69d50 0 res_queryN
PUBLIC 69f48 0 res_querydomainN
PUBLIC m 6a068 0 snprintf(char*, unsigned long pass_object_size1, char const*, ...)
PUBLIC 6a110 0 get_ai
PUBLIC 6a1a8 0 _rfc6724_compare
PUBLIC 6a620 0 _get_label
PUBLIC 6a730 0 _get_precedence
PUBLIC 6a830 0 _common_prefix_len
PUBLIC 6a8e0 0 explore_numeric
PUBLIC m 6aa98 0 gethostbyname_r
PUBLIC 6aba8 0 gethostbyname_internal
PUBLIC m 6afa8 0 gethostbyname2_r
PUBLIC m 6b070 0 gethostbyaddr_r
PUBLIC 6b0d8 0 android_gethostbyaddrfornetcontext_proxy_internal
PUBLIC 6b370 0 netbsd_gethostent_r
PUBLIC m 6b768 0 gethostbyname
PUBLIC m 6b7f0 0 gethostbyname2
PUBLIC m 6b898 0 android_gethostbynamefornet
PUBLIC m 6b968 0 android_gethostbynamefornetcontext
PUBLIC m 6b9f0 0 gethostbyaddr
PUBLIC 6ba60 0 android_gethostbyaddrfornetcontext_proxy
PUBLIC m 6bad0 0 android_gethostbyaddrfornet
PUBLIC m 6bb80 0 android_gethostbyaddrfornetcontext
PUBLIC m 6bbf0 0 gethostent
PUBLIC 6bc90 0 android_read_hostent
PUBLIC 6c050 0 _dns_gethtbyname
PUBLIC 6c240 0 map_v4v6_hostent
PUBLIC 6c2e8 0 getanswer
PUBLIC 6cd50 0 addrsort
PUBLIC 6ceb8 0 _dns_gethtbyaddr
PUBLIC m 6d278 0 getnameinfo
PUBLIC 6d2a0 0 android_getnameinfofornet
PUBLIC 6d6c8 0 snprintf(char*, unsigned long pass_object_size1, char const*, ...)
PUBLIC 6d778 0 ip6_parsenumeric
PUBLIC 6d958 0 getservent_r
PUBLIC m 6dac8 0 setservent
PUBLIC m 6dae8 0 endservent
PUBLIC m 6db08 0 getservent
PUBLIC m 6db28 0 getservbyname
PUBLIC m 6dbb0 0 getservbyport
PUBLIC m 6dc38 0 nsdispatch
PUBLIC m 6ddd8 0 sethostent
PUBLIC 6de28 0 sethostent_r
PUBLIC m 6de70 0 endhostent
PUBLIC 6dea8 0 _hf_gethtbyname
PUBLIC 6e3e0 0 _hf_gethtbyaddr
PUBLIC m 6e558 0 herror
PUBLIC m 6e6c0 0 hstrerror
PUBLIC 6e6f8 0 _resolv_cache_query_failed
PUBLIC 6e800 0 entry_init_key
PUBLIC 6eb68 0 _resolv_cache_lookup
PUBLIC 6ee08 0 _res_cache_init
PUBLIC 6ee38 0 _cache_lookup_p
PUBLIC 6f1c8 0 _resolv_cache_add
PUBLIC m 6f640 0 _resolv_flush_cache_for_net
PUBLIC m 6f6e0 0 _resolv_delete_cache_for_net
PUBLIC 6f7d0 0 _cache_flush_locked
PUBLIC m 6f890 0 _resolv_set_nameservers_for_net
PUBLIC 6fd30 0 snprintf(char*, unsigned long pass_object_size1, char const*, ...)
PUBLIC 6fdd8 0 _resolv_populate_res_for_net
PUBLIC m 70048 0 android_net_res_stats_get_info_for_net
PUBLIC 70358 0 _resolv_cache_get_resolver_stats
PUBLIC 70400 0 _resolv_cache_add_resolver_stats_sample
PUBLIC m 704d8 0 dn_expand
PUBLIC m 70518 0 __dn_comp
PUBLIC m 70520 0 __dn_skipname
PUBLIC m 70580 0 __res_hnok
PUBLIC m 70630 0 __res_ownok
PUBLIC m 70798 0 __res_mailok
PUBLIC m 708b8 0 __res_dnok
PUBLIC m 708e0 0 __putlong
PUBLIC m 708e8 0 __putshort
PUBLIC m 708f0 0 _getlong
PUBLIC m 708f8 0 _getshort
PUBLIC m 70900 0 res_init
PUBLIC 70928 0 init_once
PUBLIC m 709b8 0 __p_query
PUBLIC m 70a08 0 __fp_query
PUBLIC m 70a50 0 __fp_nquery
PUBLIC m 70aa8 0 res_mkquery
PUBLIC m 70b50 0 res_query
PUBLIC m 70bc0 0 __res_send_setqhook
PUBLIC m 70bd0 0 __res_send_setrhook
PUBLIC m 70be0 0 __res_isourserver
PUBLIC m 70bf8 0 __res_send
PUBLIC m 70c58 0 __res_close
PUBLIC m 70c68 0 res_search
PUBLIC m 70cd8 0 __res_querydomain
PUBLIC m 70d50 0 __hostalias
PUBLIC 70d58 0 __res_pquery
PUBLIC m 71430 0 __p_rcode
PUBLIC 714a8 0 do_section
PUBLIC m 71ac0 0 __p_cdnname
PUBLIC m 71b90 0 __p_cdname
PUBLIC m 71c50 0 __p_fqnname
PUBLIC m 71cd0 0 __p_fqname
PUBLIC m 71db8 0 __sym_ston
PUBLIC m 71e40 0 __sym_ntos
PUBLIC m 71ee0 0 __sym_ntop
PUBLIC m 71f70 0 __p_type
PUBLIC m 72028 0 __p_class
PUBLIC m 720e0 0 __p_option
PUBLIC m 722b8 0 __p_time
PUBLIC m 72318 0 __loc_aton
PUBLIC 729b0 0 latlon2ul
PUBLIC m 72c88 0 __loc_ntoa
PUBLIC m 73098 0 __dn_count_labels
PUBLIC m 73168 0 __p_secstodate
PUBLIC m 731f8 0 __res_ninit
PUBLIC 73218 0 __res_vinit
PUBLIC 73968 0 __res_ndestroy
PUBLIC 73a08 0 __res_setservers
PUBLIC m 73b00 0 __res_nclose
PUBLIC 73b88 0 res_setnetcontext
PUBLIC m 73bc0 0 __res_nmkquery
PUBLIC 73ec0 0 __res_nopt
PUBLIC m 74010 0 __res_nquery
PUBLIC m 74268 0 __res_nsearch
PUBLIC m 74548 0 __res_hostalias
PUBLIC m 74550 0 __res_nquerydomain
PUBLIC 746c8 0 __res_ourserver_p
PUBLIC m 74800 0 __res_nameinquery
PUBLIC m 74938 0 __res_queriesmatch
PUBLIC m 74aa8 0 __res_nsend
PUBLIC 76778 0 Aerror
PUBLIC 768b0 0 retrying_poll
PUBLIC 769f8 0 __res_key_init
PUBLIC 76a10 0 _res_thread_free
PUBLIC m 76a50 0 __get_h_errno
PUBLIC 76a78 0 _res_thread_get
PUBLIC 76b30 0 __res_get_state
PUBLIC 76b50 0 __res_get_static
PUBLIC 76b78 0 _res_stats_calculate_rtt
PUBLIC 76be0 0 _res_stats_set_sample
PUBLIC m 76bf0 0 android_net_res_stats_aggregate
PUBLIC 76cf8 0 _res_stats_usable_server
PUBLIC m 76e20 0 android_net_res_stats_get_usable_servers
PUBLIC 76eb8 0 __evAddTime
PUBLIC 76ee8 0 __evSubTime
PUBLIC 76f10 0 __evCmpTime
PUBLIC 76f40 0 __evNowTime
PUBLIC m 76fc8 0 __FD_ISSET_chk
PUBLIC m 77050 0 __FD_CLR_chk
PUBLIC m 770e0 0 __FD_SET_chk
PUBLIC m 77170 0 __fgets_chk
PUBLIC m 771c0 0 __fortify_fatal(char const*, ...)
PUBLIC 77240 0 __check_buffer_access(char const*, char const*, unsigned long, unsigned long)
PUBLIC m 77270 0 __fread_chk
PUBLIC m 772b8 0 __fwrite_chk
PUBLIC m 77300 0 __getcwd_chk
PUBLIC m 77340 0 __memchr_chk
PUBLIC m 77378 0 __memmove_chk
PUBLIC 773b0 0 __memcpy_chk_fail
PUBLIC 77400 0 __check_count(char const*, char const*, unsigned long)
PUBLIC m 77428 0 __memrchr_chk
PUBLIC 77460 0 __memset_chk_fail
PUBLIC m 774b0 0 __poll_chk
PUBLIC m 774f0 0 __ppoll_chk
PUBLIC m 77530 0 __ppoll64_chk
PUBLIC m 77570 0 __pread64_chk
PUBLIC m 775d8 0 __pread_chk
PUBLIC m 77640 0 __pwrite64_chk
PUBLIC m 776a8 0 __pwrite_chk
PUBLIC m 77710 0 __read_chk
PUBLIC m 77778 0 __readlinkat_chk
PUBLIC m 777d8 0 __readlink_chk
PUBLIC m 77840 0 __recvfrom_chk
PUBLIC m 77880 0 __sendto_chk
PUBLIC m 778c0 0 __stpcpy_chk
PUBLIC m 77928 0 __stpncpy_chk
PUBLIC m 77960 0 __stpncpy_chk2
PUBLIC m 77a10 0 __strchr_chk
PUBLIC m 77a50 0 __strlcat_chk
PUBLIC m 77a88 0 __strlcpy_chk
PUBLIC m 77ac0 0 __strlen_chk
PUBLIC m 77af8 0 __strncat_chk
PUBLIC m 77b88 0 __strncpy_chk
PUBLIC m 77bc0 0 __strncpy_chk2
PUBLIC m 77c70 0 __strrchr_chk
PUBLIC m 77cb8 0 __umask_chk
PUBLIC m 77ce0 0 __vsnprintf_chk
PUBLIC m 77d68 0 __snprintf_chk
PUBLIC m 77e40 0 __vsprintf_chk
PUBLIC m 77ed8 0 __sprintf_chk
PUBLIC m 77fc0 0 __write_chk
PUBLIC m 78028 0 __strcat_chk
PUBLIC m 780a0 0 __strcpy_chk
PUBLIC m 78108 0 __mempcpy_chk
PUBLIC m 78190 0 __memcpy_chk
PUBLIC m 781a8 0 ldexp
PUBLIC m 782f0 0 getopt
PUBLIC 78300 0 getopt_internal
PUBLIC m 78a10 0 getopt_long
PUBLIC m 78a18 0 getopt_long_only
PUBLIC 78a20 0 permute_args
PUBLIC 78ad8 0 parse_long_options
PUBLIC m 78ea0 0 hcreate
PUBLIC m 78ea8 0 hdestroy
PUBLIC m 78ee0 0 hsearch
PUBLIC m 78f98 0 hcreate_r
PUBLIC m 79008 0 hdestroy_r
PUBLIC m 79030 0 hsearch_r
PUBLIC m 79258 0 qsort
PUBLIC m 79c00 0 at_quick_exit
PUBLIC m 79c68 0 quick_exit
PUBLIC m 79ca0 0 wcpcpy
PUBLIC m 79cc0 0 wcpncpy
PUBLIC m 79d30 0 wcscasecmp
PUBLIC m 79d98 0 wcscat
PUBLIC m 79dc0 0 wcschr
PUBLIC m 79de0 0 wcscmp
PUBLIC m 79e08 0 wcscpy
PUBLIC m 79e20 0 wcscspn
PUBLIC m 79e70 0 wcsdup
PUBLIC m 79eb8 0 wcslcat
PUBLIC m 79f60 0 wcslen
PUBLIC m 79f78 0 wcsncasecmp
PUBLIC m 79ff8 0 wcsncat
PUBLIC m 7a030 0 wcsncmp
PUBLIC m 7a060 0 wcsncpy
PUBLIC m 7a0c8 0 wcsnlen
PUBLIC m 7a0f8 0 wcspbrk
PUBLIC m 7a140 0 wcsrchr
PUBLIC m 7a168 0 wcsspn
PUBLIC m 7a1b8 0 wcsstr
PUBLIC m 7a238 0 wcstok
PUBLIC m 7a2c0 0 wmemchr
PUBLIC m 7a2e8 0 wmemcmp
PUBLIC m 7a320 0 wmemcpy
PUBLIC m 7a348 0 wmemset
PUBLIC m 7a3a0 0 glob
PUBLIC 7a640 0 glob0
PUBLIC m 7abb0 0 globfree
PUBLIC 7ac18 0 globexp1
PUBLIC 7af58 0 compare
PUBLIC 7af68 0 g_Ctoc
PUBLIC 7b020 0 glob2
PUBLIC 7b5b8 0 g_stat
PUBLIC 7b6d8 0 globextend
PUBLIC 7b8c0 0 g_opendir
PUBLIC 7b9d8 0 match
PUBLIC 7bb58 0 __rv_alloc_D2A
PUBLIC 7bbb8 0 __nrv_alloc_D2A
PUBLIC 7bc58 0 __freedtoa
PUBLIC 7bc70 0 __quorem_D2A
PUBLIC 7bdc0 0 __dtoa
PUBLIC 7cc88 0 __gdtoa
PUBLIC 7df30 0 __gethex_D2A
PUBLIC 7e660 0 __rshift_D2A
PUBLIC 7e7f0 0 __trailz_D2A
PUBLIC 7e880 0 __hexdig_init_D2A
PUBLIC 7e8c0 0 __hdtoa
PUBLIC 7ec30 0 __hldtoa
PUBLIC 7eff8 0 __hexnan_D2A
PUBLIC 7f368 0 __ldtoa
PUBLIC 7f510 0 __Balloc_D2A
PUBLIC 7f5e8 0 __Bfree_D2A
PUBLIC 7f660 0 __lo0bits_D2A
PUBLIC 7f710 0 __multadd_D2A
PUBLIC 7f820 0 __hi0bits_D2A
PUBLIC 7f8a0 0 __i2b_D2A
PUBLIC 7f950 0 __mult_D2A
PUBLIC 7fa90 0 __pow5mult_D2A
PUBLIC 7fc98 0 __lshift_D2A
PUBLIC 7fed8 0 __cmp_D2A
PUBLIC 7ff38 0 __diff_D2A
PUBLIC 80128 0 __b2d_D2A
PUBLIC 80278 0 __d2b_D2A
PUBLIC 80580 0 __s2b_D2A
PUBLIC 80690 0 __ratio_D2A
PUBLIC 80758 0 __match_D2A
PUBLIC 807a0 0 __copybits_D2A
PUBLIC 808c8 0 __any_on_D2A
PUBLIC m 80938 0 strtod
PUBLIC 81910 0 __sulp_D2A
PUBLIC 81960 0 __increment_D2A
PUBLIC 81a18 0 __set_ones_D2A
PUBLIC 81b30 0 __strtodg
PUBLIC 83360 0 rvOK
PUBLIC 83710 0 mantbits
PUBLIC m 83780 0 strtof
PUBLIC 83850 0 __ULtod_D2A
PUBLIC 83908 0 __sum_D2A
PUBLIC 83a70 0 __ulp_D2A
PUBLIC 83ae8 0 __strtorQ
PUBLIC m 83c10 0 srandom
PUBLIC m 83d20 0 initstate
PUBLIC m 83f30 0 setstate
PUBLIC m 84060 0 random
PUBLIC m 84118 0 nice
PUBLIC m 841a8 0 psignal
PUBLIC m 842b8 0 psiginfo
PUBLIC m 842c0 0 utime
PUBLIC m 84320 0 setutent
PUBLIC m 84340 0 getutent
PUBLIC m 84448 0 endutent
PUBLIC m 84478 0 utmpname
PUBLIC m 844f0 0 inet_nsap_addr
PUBLIC m 84630 0 inet_nsap_ntoa
PUBLIC m 846e8 0 regcomp
PUBLIC 84e88 0 doemit
PUBLIC 84f58 0 p_ere
PUBLIC 86388 0 p_bre
PUBLIC 87130 0 doinsert
PUBLIC 87300 0 p_bracket
PUBLIC 882f0 0 repeat
PUBLIC 88b00 0 p_b_coll_elem
PUBLIC 88c00 0 bothcases
PUBLIC m 88c70 0 regerror
PUBLIC 88f48 0 snprintf(char*, unsigned long pass_object_size1, char const*, ...)
PUBLIC m 88ff8 0 regexec
PUBLIC 89dc0 0 sslow
PUBLIC 8a0a0 0 sdissect
PUBLIC m 8a3b0 0 lbackref
PUBLIC 8aa00 0 sstep
PUBLIC 8abf8 0 lslow
PUBLIC 8af38 0 ldissect
PUBLIC 8b270 0 lstep
PUBLIC m 8b498 0 regfree
PUBLIC m 8b520 0 bsearch
PUBLIC m 8b5a0 0 drand48
PUBLIC m 8b5b0 0 erand48
PUBLIC m 8b618 0 jrand48
PUBLIC m 8b648 0 lcong48
PUBLIC m 8b698 0 lrand48
PUBLIC m 8b6d0 0 mrand48
PUBLIC m 8b708 0 nrand48
PUBLIC 8b738 0 __dorand48
PUBLIC m 8b7a0 0 rand_r
PUBLIC 8b7c8 0 reallocarr
PUBLIC m 8b878 0 seed48
PUBLIC m 8b8e8 0 srand48
PUBLIC m 8b930 0 arc4random
PUBLIC m 8b9a8 0 arc4random_buf
PUBLIC 8ba68 0 _rs_stir_if_needed
PUBLIC 8bbb0 0 _rs_rekey
PUBLIC 8c128 0 _rs_init
PUBLIC m 8c220 0 arc4random_uniform
PUBLIC m 8c270 0 memrchr
PUBLIC m 8c2a0 0 stpncpy
PUBLIC m 8c310 0 strcat
PUBLIC m 8c338 0 strlcat
PUBLIC m 8c3d0 0 strlcpy
PUBLIC m 8c410 0 strncat
PUBLIC m 8c448 0 strncpy
PUBLIC 8c4b0 0 __vfprintf
PUBLIC 8ef00 0 __find_arguments(char const*, std::__va_list, arg**, unsigned long*)
PUBLIC m 8f7d8 0 __fortify_fatal(char const*, ...)
PUBLIC 8f858 0 helpers::wcsconv(wchar_t*, int)
PUBLIC m 8f9c8 0 __grow_type_table(unsigned char**, int*)
PUBLIC 8fab0 0 __vfwprintf
PUBLIC 92788 0 helpers::xfputwc(wchar_t, __sFILE*)
PUBLIC 92860 0 __find_arguments(wchar_t const*, std::__va_list, arg**, unsigned long*)
PUBLIC 93110 0 helpers::mbsconv(char*, int)
PUBLIC m 93248 0 strstr
PUBLIC 93358 0 fourbyte_strstr
PUBLIC 933c8 0 twoway_strstr
PUBLIC m 93750 0 alarm
PUBLIC m 937d8 0 daemon
PUBLIC m 93890 0 err
PUBLIC m 93900 0 errx
PUBLIC m 93970 0 fnmatch
PUBLIC 93e90 0 fnmatch_ch
PUBLIC 944a0 0 isupper
PUBLIC 944b0 0 isalnum
PUBLIC 944d0 0 isalpha
PUBLIC 944e8 0 isblank
PUBLIC 94500 0 iscntrl
PUBLIC 94518 0 isdigit
PUBLIC 94528 0 isgraph
PUBLIC 94538 0 islower
PUBLIC 94548 0 isprint
PUBLIC 94558 0 ispunct
PUBLIC 94578 0 isspace
PUBLIC 94598 0 isxdigit
PUBLIC m 945c0 0 ftok
PUBLIC m 94640 0 getprogname
PUBLIC m 94650 0 setprogname
PUBLIC m 94688 0 verr
PUBLIC m 94738 0 verrx
PUBLIC m 947b0 0 vwarn
PUBLIC m 94888 0 vwarnx
PUBLIC m 94928 0 warn
PUBLIC m 949c8 0 warnx
PUBLIC m 94a68 0 btowc
PUBLIC m 94ae8 0 mbrlen
PUBLIC m 94b10 0 mbstowcs
PUBLIC m 94b60 0 mbtowc
PUBLIC m 94ba0 0 wcscoll
PUBLIC m 94ba8 0 wcstoimax
PUBLIC m 94ed8 0 wcstol
PUBLIC m 95208 0 wcstoll
PUBLIC m 95538 0 wcstombs
PUBLIC m 95588 0 wcstoul
PUBLIC m 95860 0 wcstoull
PUBLIC m 95b38 0 wcstoumax
PUBLIC m 95e10 0 wcsxfrm
PUBLIC m 95e20 0 wctob
PUBLIC m 95e98 0 wctomb
PUBLIC m 95ec8 0 __b64_ntop
PUBLIC m 960d8 0 __b64_pton
PUBLIC m 962f8 0 htonl
PUBLIC m 96300 0 htons
PUBLIC m 96310 0 inet_lnaof
PUBLIC m 96340 0 inet_makeaddr
PUBLIC m 96388 0 inet_netof
PUBLIC m 963b8 0 inet_ntoa
PUBLIC 963e8 0 snprintf(char*, unsigned long pass_object_size1, char const*, ...)
PUBLIC m 96498 0 inet_ntop
PUBLIC m 96a20 0 inet_pton
PUBLIC m 96e20 0 ntohl
PUBLIC m 96e28 0 ntohs
PUBLIC m 96e38 0 __res_randomid
PUBLIC m 972a8 0 fgetln
PUBLIC 97478 0 __fgetwc_unlock
PUBLIC m 975a0 0 fgetwc
PUBLIC m 975f8 0 fgetws
PUBLIC 97708 0 __sflags
PUBLIC m 977c8 0 fpurge
PUBLIC 978a0 0 __fputwc_unlock
PUBLIC m 97998 0 fputwc
PUBLIC m 979f8 0 fputws
PUBLIC 97a98 0 __sfvwrite
PUBLIC m 97e50 0 fwide
PUBLIC m 97ee0 0 getdelim
PUBLIC m 980e8 0 gets
PUBLIC 98190 0 __smakebuf
PUBLIC 982b0 0 __swhatbuf
PUBLIC 98378 0 _mktemp
PUBLIC 983b0 0 mktemp_internal
PUBLIC m 98600 0 mktemp
PUBLIC m 98638 0 mkostemps
PUBLIC m 98648 0 mkstemp
PUBLIC m 98658 0 mkostemp
PUBLIC m 98668 0 mkstemps
PUBLIC m 98678 0 mkdtemp
PUBLIC m 986b0 0 open_memstream
PUBLIC 987b0 0 memstream_write
PUBLIC 988b8 0 memstream_seek
PUBLIC 98948 0 memstream_close
PUBLIC m 98960 0 open_wmemstream
PUBLIC 98a60 0 wmemstream_write
PUBLIC 98b90 0 wmemstream_seek
PUBLIC 98c28 0 wmemstream_close
PUBLIC 98c40 0 __srget
PUBLIC m 98ca8 0 setvbuf
PUBLIC m 98ea8 0 tempnam
PUBLIC 99070 0 snprintf(char*, unsigned long pass_object_size1, char const*, ...)
PUBLIC m 99120 0 tmpnam
PUBLIC 99178 0 snprintf(char*, unsigned long pass_object_size1, char const*, ...)
PUBLIC m 99228 0 ungetc
PUBLIC 99458 0 __ungetwc
PUBLIC m 994d8 0 ungetwc
PUBLIC m 99588 0 vasprintf
PUBLIC m 996c8 0 vdprintf
PUBLIC 997f0 0 __dwrite
PUBLIC m 99810 0 vsscanf
PUBLIC 998e8 0 eofread
PUBLIC m 998f0 0 vswprintf
PUBLIC m 99ab0 0 vswscanf
PUBLIC 99c18 0 eofread
PUBLIC 99c20 0 __swbuf
PUBLIC 99d10 0 __swsetup
PUBLIC m 99de8 0 abs
PUBLIC m 99df8 0 div
PUBLIC 99e30 0 __findenv
PUBLIC m 99ee0 0 getenv
PUBLIC m 99fa0 0 getsubopt
PUBLIC m 9a128 0 insque
PUBLIC m 9a150 0 imaxabs
PUBLIC m 9a160 0 imaxdiv
PUBLIC m 9a190 0 labs
PUBLIC m 9a1a0 0 ldiv
PUBLIC m 9a1d0 0 qabs
PUBLIC m 9a1e0 0 qdiv
PUBLIC m 9a210 0 lsearch
PUBLIC m 9a2a0 0 lfind
PUBLIC m 9a310 0 remque
PUBLIC m 9a338 0 putenv
PUBLIC m 9a4b0 0 setenv
PUBLIC m 9a6d8 0 unsetenv
PUBLIC m 9a7c0 0 tfind
PUBLIC m 9a848 0 tsearch
PUBLIC m 9a8e8 0 tdelete
PUBLIC m 9a9f8 0 twalk
PUBLIC 9aa10 0 trecurse
PUBLIC m 9aab8 0 memccpy
PUBLIC m 9aae8 0 strcasecmp
PUBLIC m 9ab20 0 strncasecmp
PUBLIC m 9ab60 0 strcasestr
PUBLIC m 9ac00 0 strcoll
PUBLIC m 9ac08 0 strcspn
PUBLIC m 9ac40 0 strdup
PUBLIC m 9ac90 0 strndup
PUBLIC m 9ace8 0 strpbrk
PUBLIC m 9ad30 0 strsep
PUBLIC m 9ad80 0 strspn
PUBLIC m 9adb8 0 strtok
PUBLIC m 9ae40 0 strtok_r
PUBLIC m 9aec8 0 strxfrm
PUBLIC m 9aef0 0 wcslcpy
PUBLIC m 9af38 0 wcswidth
PUBLIC 9afa8 0 __set_errno_internal
PUBLIC m 9afe0 0 execve
PUBLIC m 9b000 0 getuid
PUBLIC m 9b020 0 getgid
PUBLIC m 9b040 0 geteuid
PUBLIC m 9b060 0 getegid
PUBLIC m 9b080 0 getresuid
PUBLIC m 9b0a0 0 getresgid
PUBLIC m 9b0c0 0 readahead
PUBLIC m 9b0e0 0 getgroups
PUBLIC m 9b100 0 getpgid
PUBLIC m 9b120 0 getppid
PUBLIC m 9b140 0 getsid
PUBLIC m 9b160 0 setsid
PUBLIC m 9b180 0 setgid
PUBLIC m 9b1a0 0 setuid
PUBLIC m 9b1c0 0 setreuid
PUBLIC m 9b1e0 0 setresuid
PUBLIC m 9b200 0 setresgid
PUBLIC 9b220 0 __brk
PUBLIC m 9b240 0 kill
PUBLIC m 9b260 0 tgkill
PUBLIC 9b280 0 __ptrace
PUBLIC m 9b2a0 0 getrusage
PUBLIC 9b2c0 0 __getpriority
PUBLIC m 9b2e0 0 setpriority
PUBLIC m 9b300 0 getrlimit
PUBLIC m 9b320 0 setrlimit
PUBLIC m 9b340 0 prlimit
PUBLIC m 9b360 0 setgroups
PUBLIC m 9b380 0 setpgid
PUBLIC m 9b3a0 0 setregid
PUBLIC m 9b3c0 0 chroot
PUBLIC m 9b3e0 0 prctl
PUBLIC m 9b400 0 capget
PUBLIC m 9b420 0 capset
PUBLIC m 9b440 0 sigaltstack
PUBLIC m 9b460 0 acct
PUBLIC m 9b480 0 read
PUBLIC m 9b4a0 0 write
PUBLIC m 9b4c0 0 pread
PUBLIC m 9b4e0 0 pwrite
PUBLIC m 9b500 0 preadv
PUBLIC m 9b520 0 pwritev
PUBLIC 9b540 0 __close
PUBLIC 9b560 0 __getpid
PUBLIC m 9b580 0 memfd_create
PUBLIC m 9b5a0 0 munmap
PUBLIC 9b5c0 0 __mremap
PUBLIC m 9b5e0 0 msync
PUBLIC m 9b600 0 mprotect
PUBLIC m 9b620 0 madvise
PUBLIC m 9b640 0 mlock
PUBLIC m 9b660 0 mlock2
PUBLIC m 9b680 0 munlock
PUBLIC m 9b6a0 0 mlockall
PUBLIC m 9b6c0 0 munlockall
PUBLIC m 9b6e0 0 mincore
PUBLIC 9b700 0 __ioctl
PUBLIC m 9b720 0 readv
PUBLIC m 9b740 0 writev
PUBLIC 9b760 0 __fcntl
PUBLIC m 9b780 0 flock
PUBLIC 9b7a0 0 __fchmod
PUBLIC 9b7c0 0 __pipe2
PUBLIC 9b7e0 0 __dup
PUBLIC 9b800 0 __dup3
PUBLIC m 9b820 0 fsync
PUBLIC m 9b840 0 fdatasync
PUBLIC m 9b860 0 fchown
PUBLIC m 9b880 0 sync
PUBLIC m 9b8a0 0 syncfs
PUBLIC 9b8c0 0 __fsetxattr
PUBLIC 9b8e0 0 __fgetxattr
PUBLIC 9b900 0 __flistxattr
PUBLIC m 9b920 0 fremovexattr
PUBLIC 9b940 0 __getdents64
PUBLIC 9b960 0 __openat
PUBLIC 9b980 0 __faccessat
PUBLIC 9b9a0 0 __fchmodat
PUBLIC m 9b9c0 0 fchownat
PUBLIC m 9b9e0 0 fstatat
PUBLIC m 9ba00 0 linkat
PUBLIC m 9ba20 0 mkdirat
PUBLIC m 9ba40 0 mknodat
PUBLIC m 9ba60 0 readlinkat
PUBLIC m 9ba80 0 renameat
PUBLIC m 9baa0 0 renameat2
PUBLIC m 9bac0 0 symlinkat
PUBLIC m 9bae0 0 unlinkat
PUBLIC m 9bb00 0 utimensat
PUBLIC m 9bb20 0 lseek
PUBLIC m 9bb40 0 ftruncate
PUBLIC m 9bb60 0 sendfile
PUBLIC m 9bb80 0 truncate
PUBLIC m 9bba0 0 mmap
PUBLIC m 9bbc0 0 fallocate
PUBLIC 9bbe0 0 __fadvise64
PUBLIC 9bc00 0 __fstatfs
PUBLIC 9bc20 0 __statfs
PUBLIC m 9bc40 0 fstat
PUBLIC m 9bc60 0 chdir
PUBLIC m 9bc80 0 mount
PUBLIC m 9bca0 0 umount2
PUBLIC 9bcc0 0 __getcwd
PUBLIC m 9bce0 0 fchdir
PUBLIC m 9bd00 0 setxattr
PUBLIC m 9bd20 0 lsetxattr
PUBLIC m 9bd40 0 getxattr
PUBLIC m 9bd60 0 lgetxattr
PUBLIC m 9bd80 0 listxattr
PUBLIC m 9bda0 0 llistxattr
PUBLIC m 9bdc0 0 removexattr
PUBLIC m 9bde0 0 lremovexattr
PUBLIC m 9be00 0 statx
PUBLIC m 9be20 0 swapon
PUBLIC m 9be40 0 swapoff
PUBLIC m 9be60 0 settimeofday
PUBLIC m 9be80 0 times
PUBLIC m 9bea0 0 nanosleep
PUBLIC m 9bec0 0 clock_settime
PUBLIC 9bee0 0 __clock_nanosleep
PUBLIC m 9bf00 0 getitimer
PUBLIC m 9bf20 0 setitimer
PUBLIC 9bf40 0 __timer_create
PUBLIC 9bf60 0 __timer_settime
PUBLIC 9bf80 0 __timer_gettime
PUBLIC 9bfa0 0 __timer_getoverrun
PUBLIC 9bfc0 0 __timer_delete
PUBLIC m 9bfe0 0 timerfd_create
PUBLIC m 9c000 0 timerfd_settime
PUBLIC m 9c020 0 timerfd_gettime
PUBLIC m 9c040 0 adjtimex
PUBLIC m 9c060 0 clock_adjtime
PUBLIC 9c080 0 __rt_sigaction
PUBLIC 9c0a0 0 __rt_sigpending
PUBLIC 9c0c0 0 __rt_sigprocmask
PUBLIC 9c0e0 0 __rt_sigsuspend
PUBLIC 9c100 0 __rt_sigtimedwait
PUBLIC 9c120 0 __rt_sigqueueinfo
PUBLIC 9c140 0 __signalfd4
PUBLIC 9c160 0 __socket
PUBLIC 9c180 0 __socketpair
PUBLIC m 9c1a0 0 bind
PUBLIC 9c1c0 0 __connect
PUBLIC m 9c1e0 0 listen
PUBLIC 9c200 0 __accept4
PUBLIC m 9c220 0 getsockname
PUBLIC m 9c240 0 getpeername
PUBLIC 9c260 0 __sendto
PUBLIC m 9c280 0 recvfrom
PUBLIC m 9c2a0 0 shutdown
PUBLIC m 9c2c0 0 setsockopt
PUBLIC m 9c2e0 0 getsockopt
PUBLIC 9c300 0 __recvmsg
PUBLIC 9c320 0 __sendmsg
PUBLIC 9c340 0 __recvmmsg
PUBLIC 9c360 0 __sendmmsg
PUBLIC m 9c380 0 sched_setscheduler
PUBLIC m 9c3a0 0 sched_getscheduler
PUBLIC m 9c3c0 0 sched_yield
PUBLIC m 9c3e0 0 sched_setparam
PUBLIC m 9c400 0 sched_getparam
PUBLIC m 9c420 0 sched_get_priority_max
PUBLIC m 9c440 0 sched_get_priority_min
PUBLIC m 9c460 0 sched_rr_get_interval
PUBLIC m 9c480 0 sched_setaffinity
PUBLIC m 9c4a0 0 setns
PUBLIC m 9c4c0 0 unshare
PUBLIC 9c4e0 0 __sched_getaffinity
PUBLIC 9c500 0 __getcpu
PUBLIC m 9c520 0 uname
PUBLIC m 9c540 0 umask
PUBLIC 9c560 0 __reboot
PUBLIC m 9c580 0 init_module
PUBLIC m 9c5a0 0 delete_module
PUBLIC m 9c5c0 0 klogctl
PUBLIC m 9c5e0 0 sysinfo
PUBLIC m 9c600 0 personality
PUBLIC m 9c620 0 tee
PUBLIC m 9c640 0 splice
PUBLIC m 9c660 0 vmsplice
PUBLIC 9c680 0 __epoll_create1
PUBLIC m 9c6a0 0 epoll_ctl
PUBLIC 9c6c0 0 __epoll_pwait
PUBLIC 9c6e0 0 __eventfd
PUBLIC m 9c700 0 _exit
PUBLIC 9c720 0 __exit
PUBLIC m 9c740 0 inotify_init1
PUBLIC m 9c760 0 inotify_add_watch
PUBLIC m 9c780 0 inotify_rm_watch
PUBLIC 9c7a0 0 __pselect6
PUBLIC 9c7c0 0 __ppoll
PUBLIC m 9c7e0 0 process_vm_readv
PUBLIC m 9c800 0 process_vm_writev
PUBLIC m 9c820 0 quotactl
PUBLIC 9c840 0 __set_tid_address
PUBLIC m 9c860 0 setfsgid
PUBLIC m 9c880 0 setfsuid
PUBLIC m 9c8a0 0 setdomainname
PUBLIC m 9c8c0 0 sethostname
PUBLIC 9c8e0 0 __sync_file_range
PUBLIC m 9c900 0 wait4
PUBLIC 9c920 0 __waitid
PUBLIC 9c940 0 __clock_getres
PUBLIC 9c960 0 __clock_gettime
PUBLIC 9c980 0 __gettimeofday
PUBLIC m 9c9a0 0 getrandom
PUBLIC m 9c9b8 0 asctime_r
PUBLIC 9cb50 0 snprintf(char*, unsigned long pass_object_size1, char const*, ...)
PUBLIC m 9cbf0 0 asctime
PUBLIC m 9cc00 0 difftime
PUBLIC 9cc20 0 tzsetlcl
PUBLIC 9ce20 0 zoneinit
PUBLIC m 9cfc0 0 tzset
PUBLIC 9cff8 0 localsub
PUBLIC m 9d2b0 0 localtime
PUBLIC m 9d328 0 localtime_r
PUBLIC m 9d3a8 0 gmtime_r
PUBLIC 9d480 0 gmtsub
PUBLIC m 9d4f0 0 gmtime
PUBLIC m 9d500 0 ctime
PUBLIC m 9d580 0 ctime_r
PUBLIC m 9d650 0 mktime
PUBLIC m 9d778 0 timelocal
PUBLIC m 9d788 0 timegm
PUBLIC 9d790 0 timeoff
PUBLIC 9d850 0 time1
PUBLIC 9db88 0 tzload
PUBLIC 9e970 0 tzparse
PUBLIC 9efe0 0 getoffset
PUBLIC 9f120 0 getrule
PUBLIC 9f300 0 transtime
PUBLIC 9f5a8 0 timesub
PUBLIC 9fbc0 0 leaps_thru_end_of
PUBLIC 9fc08 0 time2sub
PUBLIC a0530 0 tmcomp
PUBLIC m a05a8 0 strftime_l
PUBLIC m a0658 0 strftime
PUBLIC a0708 0 _fmt
PUBLIC a17c8 0 _add
PUBLIC a18c0 0 _yconv
PUBLIC m a1ae8 0 strptime
PUBLIC a1b40 0 _strptime
PUBLIC m a2418 0 strptime_l
PUBLIC a2470 0 _conv_num
PUBLIC a2510 0 tzset_unlocked
PUBLIC a26d0 0 __bionic_open_tzdata
PUBLIC a2768 0 __bionic_open_tzdata_path(char const*, char const*, int*)
PUBLIC m a2b48 0 wcsftime
PUBLIC a2c00 0 _fmt
PUBLIC a3d00 0 _yconv
PUBLIC a3e40 0 _conv
PUBLIC a3ee0 0 __cxa_guard_acquire
PUBLIC a3fd0 0 __cxa_guard_release
PUBLIC a4048 0 operator new(unsigned long)
PUBLIC a4080 0 operator new[](unsigned long)
PUBLIC m a40b8 0 operator delete(void*)
PUBLIC a40c0 0 async_safe_format_buffer_va_list
PUBLIC a4130 0 out_vformat<BufferOutputStream>(BufferOutputStream&, char const*, std::__va_list)
PUBLIC a4ae0 0 async_safe_format_buffer
PUBLIC a4ba8 0 async_safe_write_log
PUBLIC a4de8 0 async_safe_format_log_va_list
PUBLIC a4eb8 0 async_safe_format_log
PUBLIC a4fd8 0 async_safe_fatal_va_list
PUBLIC a5180 0 async_safe_fatal_no_abort
PUBLIC m a5228 0 ether_aton_r
PUBLIC m a52f8 0 ether_aton
PUBLIC m a53d0 0 ether_ntoa_r
PUBLIC a5428 0 snprintf(char*, unsigned long pass_object_size1, char const*, ...)
PUBLIC m a54d8 0 ether_ntoa
PUBLIC a5530 0 __fts_open
PUBLIC a58d8 0 fts_stat
PUBLIC a5ad0 0 fts_sort
PUBLIC m a5bb0 0 fts_close
PUBLIC m a5c98 0 fts_read
PUBLIC a60b0 0 fts_safe_changedir
PUBLIC a61d0 0 fts_build
PUBLIC a6910 0 fts_load
PUBLIC m a69b0 0 fts_set
PUBLIC m a69f0 0 fts_children
PUBLIC m a6b30 0 fts_open
PUBLIC m a6b60 0 initgroups
PUBLIC m a6c40 0 isatty
PUBLIC m a6ca0 0 pututline
PUBLIC m a6df8 0 __sched_cpualloc
PUBLIC m a6e08 0 __sched_cpufree
PUBLIC m a6e10 0 __sched_cpucount
PUBLIC m a6ed0 0 fmemopen
PUBLIC a7048 0 fmemopen_read(void*, char*, int)
PUBLIC a70b0 0 fmemopen_write(void*, char const*, int)
PUBLIC a71a0 0 fmemopen_seek(void*, long, int)
PUBLIC a7230 0 fmemopen_close(void*)
PUBLIC a7260 0 parsefloat
PUBLIC a7600 0 wparsefloat
PUBLIC a7950 0 __srefill
PUBLIC a7aa8 0 lflush
PUBLIC a7ac8 0 __sclose
PUBLIC a7b38 0 __sread
PUBLIC a7ba8 0 __swrite
PUBLIC a7c18 0 __sfp
PUBLIC a8110 0 _fwalk
PUBLIC a81a8 0 __libc_stdio_cleanup
PUBLIC a8298 0 __sflush
PUBLIC m a8340 0 fopen
PUBLIC a84c8 0 __sseek64
PUBLIC m a8528 0 fdopen
PUBLIC m a86d0 0 freopen
PUBLIC m a8a98 0 fclose
PUBLIC a8ac0 0 __FILE_close(__sFILE*)
PUBLIC m a8cb0 0 fileno_unlocked
PUBLIC m a8d00 0 fileno
PUBLIC m a8d78 0 clearerr_unlocked
PUBLIC m a8db0 0 clearerr
PUBLIC m a8e20 0 feof_unlocked
PUBLIC m a8e50 0 feof
PUBLIC m a8ec8 0 ferror_unlocked
PUBLIC m a8ef8 0 ferror
PUBLIC a8f70 0 __sflush_locked
PUBLIC a9050 0 __fseeko64(__sFILE*, long, int, int)
PUBLIC m a92f8 0 fseeko
PUBLIC m a9320 0 fseeko64
PUBLIC m a9348 0 fsetpos
PUBLIC m a9380 0 fsetpos64
PUBLIC m a93b8 0 ftell
PUBLIC m a93e0 0 ftello64
PUBLIC m a9550 0 fgetpos
PUBLIC m a9598 0 fgetpos64
PUBLIC m a95e0 0 funopen
PUBLIC m a9688 0 funopen64
PUBLIC m a9738 0 asprintf
PUBLIC m a97d8 0 ctermid
PUBLIC m a9800 0 dprintf
PUBLIC m a98a0 0 fprintf
PUBLIC m a99a8 0 vfprintf
PUBLIC m a9a48 0 fgetc
PUBLIC m a9ae0 0 getc
PUBLIC m a9b78 0 fgetc_unlocked
PUBLIC m a9bd0 0 getc_unlocked
PUBLIC m a9c28 0 fgets
PUBLIC m a9cb0 0 fgets_unlocked
PUBLIC m a9df0 0 fputc
PUBLIC m a9e18 0 putc
PUBLIC m a9f28 0 fputc_unlocked
PUBLIC m aa000 0 putc_unlocked
PUBLIC m aa0d8 0 fputs
PUBLIC m aa1d8 0 fputs_unlocked
PUBLIC m aa2a8 0 fwrite_unlocked
PUBLIC m aa3a0 0 fscanf
PUBLIC m aa4a8 0 vfscanf
PUBLIC m aa548 0 fwprintf
PUBLIC m aa650 0 vfwprintf
PUBLIC m aa6f0 0 fwscanf
PUBLIC m aa7f8 0 vfwscanf
PUBLIC m aa898 0 getchar_unlocked
PUBLIC m aa8f8 0 getchar
PUBLIC m aa998 0 getline
PUBLIC m aa9c8 0 getwc
PUBLIC m aa9f0 0 getwchar
PUBLIC m aaa00 0 perror
PUBLIC m aaa78 0 printf
PUBLIC m aab70 0 putchar
PUBLIC m aab80 0 putchar_unlocked
PUBLIC m aab90 0 puts
PUBLIC m aacc0 0 putwc
PUBLIC m aace8 0 putwchar
PUBLIC m aacf8 0 remove
PUBLIC m aad50 0 rewind
PUBLIC m aadd0 0 scanf
PUBLIC m aaec8 0 setbuf
PUBLIC m aaf00 0 setbuffer
PUBLIC m aaf38 0 setlinebuf
PUBLIC m aaf68 0 snprintf
PUBLIC m ab0c8 0 vsnprintf
PUBLIC m ab1d0 0 sprintf
PUBLIC m ab2e8 0 vsprintf
PUBLIC m ab3b0 0 sscanf
PUBLIC m ab450 0 swprintf
PUBLIC m ab4f0 0 swscanf
PUBLIC m ab590 0 vprintf
PUBLIC m ab638 0 vscanf
PUBLIC m ab6e0 0 vwprintf
PUBLIC m ab788 0 vwscanf
PUBLIC m ab830 0 wprintf
PUBLIC m ab928 0 wscanf
PUBLIC m aba20 0 fflush
PUBLIC m abc38 0 fflush_unlocked
PUBLIC m abe28 0 fread
PUBLIC m abeb8 0 fread_unlocked
PUBLIC m ac038 0 fwrite
PUBLIC m ac168 0 popen
PUBLIC m ac3a8 0 pclose
PUBLIC m ac3d0 0 __fbufsize
PUBLIC m ac3d8 0 __freading
PUBLIC m ac3e8 0 __fwriting
PUBLIC m ac3f8 0 __freadable
PUBLIC m ac410 0 __fwritable
PUBLIC m ac420 0 __flbf
PUBLIC m ac430 0 __fpurge
PUBLIC m ac438 0 __fpending
PUBLIC m ac448 0 _flushlbf
PUBLIC m ac450 0 __fseterr
PUBLIC m ac460 0 __fsetlocking
PUBLIC ac4b0 0 __svfscanf
PUBLIC ad8a8 0 __vfwscanf
PUBLIC m aead0 0 exit
PUBLIC aeaf8 0 __init_static_tls(void*)
PUBLIC m aebf0 0 __tls_get_addr
PUBLIC aec30 0 tls_get_addr_slow_path(TlsIndex const*)
PUBLIC aeeb0 0 __free_dynamic_tls(bionic_tcb*)
PUBLIC aefa8 0 __bionic_atfork_run_prepare()
PUBLIC aeff0 0 __bionic_atfork_run_child()
PUBLIC af058 0 __bionic_atfork_run_parent()
PUBLIC m af0a0 0 __register_atfork
PUBLIC af140 0 __unregister_atfork
PUBLIC m af1d8 0 pthread_attr_init
PUBLIC m af200 0 pthread_attr_destroy
PUBLIC m af230 0 pthread_attr_setinheritsched
PUBLIC m af268 0 pthread_attr_getinheritsched
PUBLIC m af2a0 0 pthread_attr_setdetachstate
PUBLIC m af2d8 0 pthread_attr_getdetachstate
PUBLIC m af2f0 0 pthread_attr_setschedpolicy
PUBLIC m af300 0 pthread_attr_getschedpolicy
PUBLIC m af310 0 pthread_attr_setschedparam
PUBLIC m af328 0 pthread_attr_getschedparam
PUBLIC m af338 0 pthread_attr_setstacksize
PUBLIC m af358 0 pthread_attr_getstacksize
PUBLIC m af3a8 0 pthread_attr_getstack
PUBLIC m af3c0 0 pthread_attr_setstack
PUBLIC m af3f8 0 pthread_attr_setguardsize
PUBLIC m af408 0 pthread_attr_getguardsize
PUBLIC m af418 0 pthread_getattr_np
PUBLIC m af6b0 0 pthread_attr_setscope
PUBLIC m af6d0 0 pthread_attr_getscope
PUBLIC m af6e0 0 pthread_barrierattr_init
PUBLIC m af6f0 0 pthread_barrierattr_destroy
PUBLIC m af700 0 pthread_barrierattr_getpshared
PUBLIC m af718 0 pthread_barrierattr_setpshared
PUBLIC m af740 0 pthread_barrier_init
PUBLIC m af780 0 pthread_barrier_wait
PUBLIC m af950 0 pthread_barrier_destroy
PUBLIC m af9d0 0 pthread_condattr_init
PUBLIC m af9e0 0 pthread_condattr_getpshared
PUBLIC m af9f8 0 pthread_condattr_setpshared
PUBLIC m afa20 0 pthread_condattr_getclock
PUBLIC m afa38 0 pthread_condattr_setclock
PUBLIC m afa68 0 pthread_condattr_destroy
PUBLIC m afa80 0 pthread_cond_init
PUBLIC m afaa8 0 pthread_cond_destroy
PUBLIC m afac0 0 pthread_cond_broadcast
PUBLIC m afb48 0 pthread_cond_signal
PUBLIC m afbd0 0 pthread_cond_wait
PUBLIC m afc38 0 pthread_cond_timedwait
PUBLIC m afce8 0 pthread_cond_timedwait_monotonic_np
PUBLIC m afd88 0 pthread_cond_clockwait
PUBLIC afe70 0 __init_additional_stacks(pthread_internal_t*)
PUBLIC affb0 0 __init_thread(pthread_internal_t*)
PUBLIC b0130 0 __allocate_thread_mapping(unsigned long, unsigned long)
PUBLIC b02a0 0 __set_stack_and_tls_vma_name(bool)
PUBLIC m b0300 0 pthread_create
PUBLIC b0788 0 Lock::lock()
PUBLIC b07f8 0 __pthread_start(void*)
PUBLIC b0840 0 __do_nothing(void*)
PUBLIC m b0848 0 pthread_detach
PUBLIC m b08c8 0 pthread_equal
PUBLIC m b08d8 0 __pthread_cleanup_push
PUBLIC m b08f8 0 __pthread_cleanup_pop
PUBLIC m b0920 0 pthread_exit
PUBLIC m b0a38 0 pthread_getcpuclockid
PUBLIC m b0a80 0 pthread_getschedparam
PUBLIC m b0b18 0 pthread_gettid_np
PUBLIC b0b28 0 __pthread_internal_add(pthread_internal_t*)
PUBLIC b0b78 0 __pthread_internal_remove(pthread_internal_t*)
PUBLIC b0bd8 0 __pthread_internal_remove_and_free(pthread_internal_t*)
PUBLIC b0c50 0 __pthread_internal_gettid(long, char const*)
PUBLIC b0c78 0 __pthread_internal_find(long, char const*)
PUBLIC m b0d40 0 pthread_join
PUBLIC b0eb8 0 pthread_key_clean_all()
PUBLIC m b0f68 0 pthread_key_create
PUBLIC m b0fe0 0 pthread_key_delete
PUBLIC m b1040 0 pthread_getspecific
PUBLIC m b10a0 0 pthread_setspecific
PUBLIC m b10e8 0 pthread_kill
PUBLIC m b1170 0 pthread_mutexattr_init
PUBLIC m b1180 0 pthread_mutexattr_destroy
PUBLIC m b1198 0 pthread_mutexattr_gettype
PUBLIC m b11c0 0 pthread_mutexattr_settype
PUBLIC m b11f0 0 pthread_mutexattr_setpshared
PUBLIC m b1228 0 pthread_mutexattr_getpshared
PUBLIC m b1240 0 pthread_mutexattr_setprotocol
PUBLIC m b1270 0 pthread_mutexattr_getprotocol
PUBLIC m b1288 0 pthread_mutex_init
PUBLIC m b1318 0 pthread_mutex_lock
PUBLIC b1420 0 PIMutexTimedLock(PIMutex&, bool, timespec const*)
PUBLIC b1530 0 HandleUsingDestroyedMutex(pthread_mutex_t*, char const*)
PUBLIC b1568 0 NonPI::MutexLockWithTimeout(pthread_mutex_internal_t*, bool, timespec const*)
PUBLIC m b1820 0 pthread_mutex_unlock
PUBLIC b1978 0 PIMutexUnlock(PIMutex&)
PUBLIC b1a38 0 __futex_wake_ex(void volatile*, bool, int)
PUBLIC m b1aa8 0 pthread_mutex_trylock
PUBLIC m b1c28 0 pthread_mutex_timedlock
PUBLIC m b1cb8 0 pthread_mutex_timedlock_monotonic_np
PUBLIC m b1d48 0 pthread_mutex_clocklock
PUBLIC m b1e68 0 pthread_mutex_destroy
PUBLIC b1f08 0 __fortify_fatal(char const*, ...)
PUBLIC b1f88 0 __futex_pi_unlock(void volatile*, bool)
PUBLIC m b2000 0 pthread_once
PUBLIC b20a8 0 __futex_wake_ex(void volatile*, bool, int)
PUBLIC m b2108 0 pthread_rwlockattr_init
PUBLIC m b2118 0 pthread_rwlockattr_destroy
PUBLIC m b2130 0 pthread_rwlockattr_getpshared
PUBLIC m b2148 0 pthread_rwlockattr_setpshared
PUBLIC m b2180 0 pthread_rwlockattr_getkind_np
PUBLIC m b2198 0 pthread_rwlockattr_setkind_np
PUBLIC m b21c8 0 pthread_rwlock_init
PUBLIC m b2220 0 pthread_rwlock_destroy
PUBLIC m b2238 0 pthread_rwlock_rdlock
PUBLIC b22a0 0 __pthread_rwlock_timedrdlock(pthread_rwlock_internal_t*, bool, timespec const*)
PUBLIC m b2670 0 pthread_rwlock_timedrdlock
PUBLIC m b2680 0 pthread_rwlock_timedrdlock_monotonic_np
PUBLIC m b2690 0 pthread_rwlock_clockrdlock
PUBLIC m b26b8 0 pthread_rwlock_tryrdlock
PUBLIC m b2728 0 pthread_rwlock_wrlock
PUBLIC b2788 0 __pthread_rwlock_timedwrlock(pthread_rwlock_internal_t*, bool, timespec const*)
PUBLIC m b2b18 0 pthread_rwlock_timedwrlock
PUBLIC m b2b28 0 pthread_rwlock_timedwrlock_monotonic_np
PUBLIC m b2b38 0 pthread_rwlock_clockwrlock
PUBLIC m b2b60 0 pthread_rwlock_trywrlock
PUBLIC m b2bb8 0 pthread_rwlock_unlock
PUBLIC m b2e88 0 pthread_sigqueue
PUBLIC m b2f70 0 pthread_self
PUBLIC m b2f80 0 pthread_getname_np
PUBLIC m b30e0 0 pthread_setname_np
PUBLIC b3228 0 snprintf(char*, unsigned long pass_object_size1, char const*, ...)
PUBLIC m b32d0 0 pthread_setschedparam
PUBLIC m b3358 0 pthread_setschedprio
PUBLIC m b3400 0 pthread_spin_init
PUBLIC m b3420 0 pthread_spin_destroy
PUBLIC m b3450 0 pthread_spin_trylock
PUBLIC m b3480 0 pthread_spin_lock
PUBLIC m b35a8 0 pthread_spin_unlock
PUBLIC m b3630 0 __cxa_thread_atexit_impl
PUBLIC b36a0 0 __cxa_thread_finalize
PUBLIC m b3710 0 android_unsafe_frame_pointer_chase
PUBLIC m b3808 0 __cxa_atexit
PUBLIC m b3a58 0 __cxa_finalize
PUBLIC b3da0 0 __clone_for_fork()
PUBLIC m b3e00 0 fork
PUBLIC b3e48 0 memchr_resolver
PUBLIC b3e58 0 strchr_resolver
PUBLIC b3e68 0 strcmp_resolver
PUBLIC b3e78 0 strlen_resolver
PUBLIC b3e88 0 strncmp_resolver
PUBLIC b3e98 0 strnlen_resolver
PUBLIC b3ea8 0 android_get_exported_namespace
PUBLIC m b3ebc 0 __eqtf2
PUBLIC m b3f90 0 __getf2
PUBLIC b4064 0 __unordtf2
PUBLIC b40ac 0 __multf3
PUBLIC b4590 0 <.plt ELF section in libc.so>
STACK CFI INIT 3b000 c .cfa: sp 0 +
STACK CFI INIT 3b010 4 .cfa: sp 0 +
STACK CFI INIT 3b018 4 .cfa: sp 0 +
STACK CFI INIT 3b020 c .cfa: sp 0 +
STACK CFI INIT 3b030 a8 .cfa: sp 0 +
STACK CFI 3b044 .cfa: x29 48 + x19: .cfa -8 + ^ x20: .cfa -16 + ^ x21: .cfa -32 + ^ .ra: .cfa -40 + ^ x29: .cfa -48 + ^
STACK CFI INIT 3b0d8 4 .cfa: sp 0 +
STACK CFI INIT 3b0e0 4 .cfa: sp 0 +
STACK CFI INIT 3b0e8 4 .cfa: sp 0 +
STACK CFI INIT 3b0f0 8 .cfa: sp 0 +
STACK CFI INIT 3b0f8 8 .cfa: sp 0 +
STACK CFI INIT 3b100 b0 .cfa: sp 0 +
STACK CFI 3b110 .cfa: x29 48 + x19: .cfa -8 + ^ x20: .cfa -16 + ^ x21: .cfa -24 + ^ x22: .cfa -32 + ^ .ra: .cfa -40 + ^ x29: .cfa -48 + ^
STACK CFI INIT 3b1b0 3c .cfa: sp 0 +
STACK CFI INIT 3b1f0 9c .cfa: sp 0 +
STACK CFI 3b200 .cfa: x29 48 + x19: .cfa -8 + ^ x20: .cfa -16 + ^ x21: .cfa -32 + ^ .ra: .cfa -40 + ^ x29: .cfa -48 + ^
STACK CFI INIT 3b290 3c .cfa: sp 0 +
STACK CFI INIT 3b2d0 b0 .cfa: sp 0 +
STACK CFI 3b2e0 .cfa: x29 48 + x19: .cfa -8 + ^ x20: .cfa -16 + ^ x21: .cfa -24 + ^ x22: .cfa -32 + ^ .ra: .cfa -40 + ^ x29: .cfa -48 + ^
STACK CFI INIT 3b380 70 .cfa: sp 0 +
STACK CFI 3b388 .cfa: x29 16 + .ra: .cfa -8 + ^ x29: .cfa -16 + ^
STACK CFI INIT 3b3f0 28 .cfa: sp 0 +
STACK CFI 3b3f8 .cfa: x29 16 + .ra: .cfa -8 + ^ x29: .cfa -16 + ^
STACK CFI INIT 3b418 28 .cfa: sp 0 +
STACK CFI 3b420 .cfa: x29 16 + .ra: .cfa -8 + ^ x29: .cfa -16 + ^
STACK CFI INIT 3b440 4c .cfa: sp 0 +
STACK CFI 3b44c .cfa: x29 32 + x19: .cfa -16 + ^ .ra: .cfa -24 + ^ x29: .cfa -32 + ^
STACK CFI INIT 3b490 174 .cfa: sp 0 +
STACK CFI 3b4a4 .cfa: x29 48 + x19: .cfa -8 + ^ x20: .cfa -16 + ^ x21: .cfa -24 + ^ x22: .cfa -32 + ^ .ra: .cfa -40 + ^ x29: .cfa -48 + ^
STACK CFI INIT 3b608 14 .cfa: sp 0 +
STACK CFI INIT 3b620 bc .cfa: sp 0 +
STACK CFI 3b62c .cfa: x29 32 + x19: .cfa -16 + ^ .ra: .cfa -24 + ^ x29: .cfa -32 + ^
STACK CFI INIT 3b6e0 13c .cfa: sp 0 +
STACK CFI 3b6ec .cfa: x29 32 + x19: .cfa -16 + ^ .ra: .cfa -24 + ^ x29: .cfa -32 + ^
STACK CFI INIT 3b820 128 .cfa: sp 0 +
STACK CFI 3b838 .cfa: x29 64 + x19: .cfa -8 + ^ x20: .cfa -16 + ^ x21: .cfa -24 + ^ x22: .cfa -32 + ^ x23: .cfa -48 + ^ .ra: .cfa -56 + ^ x29: .cfa -64 + ^
STACK CFI INIT 3b948 5c .cfa: sp 0 +
STACK CFI 3b950 .cfa: x29 16 + .ra: .cfa -8 + ^ x29: .cfa -16 + ^
STACK CFI INIT 3b9a8 ac .cfa: sp 0 +
STACK CFI 3b9b8 .cfa: x29 32 + x19: .cfa -8 + ^ x28: .cfa -16 + ^ .ra: .cfa -24 + ^ x29: .cfa -32 + ^
STACK CFI INIT 3ba58 ac .cfa: sp 0 +
STACK CFI 3ba68 .cfa: x29 48 + x19: .cfa -8 + ^ x20: .cfa -16 + ^ x21: .cfa -24 + ^ x22: .cfa -32 + ^ .ra: .cfa -40 + ^ x29: .cfa -48 + ^
STACK CFI INIT 3bb08 64 .cfa: sp 0 +
STACK CFI 3bb10 .cfa: x29 16 + .ra: .cfa -8 + ^ x29: .cfa -16 + ^
STACK CFI INIT 3bb70 1c .cfa: sp 0 +
STACK CFI INIT 3bb90 1c .cfa: sp 0 +
STACK CFI INIT 3bbb0 1c .cfa: sp 0 +
STACK CFI INIT 3bbd0 78 .cfa: sp 0 +
STACK CFI 3bbdc .cfa: x29 32 + x19: .cfa -16 + ^ .ra: .cfa -24 + ^ x29: .cfa -32 + ^
STACK CFI INIT 3bc48 64 .cfa: sp 0 +
STACK CFI 3bc50 .cfa: x29 16 + .ra: .cfa -8 + ^ x29: .cfa -16 + ^
STACK CFI INIT 3bcb0 ac .cfa: sp 0 +
STACK CFI 3bcc0 .cfa: x29 48 + x19: .cfa -8 + ^ x20: .cfa -16 + ^ x21: .cfa -24 + ^ x22: .cfa -32 + ^ .ra: .cfa -40 + ^ x29: .cfa -48 + ^
STACK CFI INIT 3bd60 68 .cfa: sp 0 +
STACK CFI 3bd6c .cfa: x29 32 + x19: .cfa -16 + ^ .ra: .cfa -24 + ^ x29: .cfa -32 + ^
STACK CFI INIT 3bdc8 ac .cfa: sp 0 +
STACK CFI 3bdd8 .cfa: x29 48 + x19: .cfa -8 + ^ x20: .cfa -16 + ^ x21: .cfa -24 + ^ x22: .cfa -32 + ^ .ra: .cfa -40 + ^ x29: .cfa -48 + ^
STACK CFI INIT 3be78 f0 .cfa: sp 0 +
STACK CFI 3be88 .cfa: x29 48 + x19: .cfa -8 + ^ x20: .cfa -16 + ^ x21: .cfa -24 + ^ x22: .cfa -32 + ^ .ra: .cfa -40 + ^ x29: .cfa -48 + ^
STACK CFI INIT 3bf68 60 .cfa: sp 0 +
STACK CFI 3bf88 .cfa: x29 16 + .ra: .cfa -8 + ^ x29: .cfa -16 + ^
STACK CFI INIT 3bfc8 20 .cfa: sp 0 +
STACK CFI INIT 3bfe8 80 .cfa: sp 0 +
STACK CFI 3bff8 .cfa: x29 32 + x19: .cfa -16 + ^ .ra: .cfa -24 + ^ x29: .cfa -32 + ^
STACK CFI INIT 3c068 1c .cfa: sp 0 +
STACK CFI INIT 3c088 1c .cfa: sp 0 +
STACK CFI INIT 3c0a8 c .cfa: sp 0 +
STACK CFI INIT 3c0b8 1c .cfa: sp 0 +
STACK CFI INIT 3c0d8 5b0 .cfa: sp 0 +
STACK CFI 3c0f0 .cfa: x29 64 + x19: .cfa -8 + ^ x20: .cfa -16 + ^ x21: .cfa -24 + ^ x22: .cfa -32 + ^ x23: .cfa -48 + ^ .ra: .cfa -56 + ^ x29: .cfa -64 + ^
STACK CFI INIT 3c688 a4 .cfa: sp 0 +
STACK CFI 3c698 .cfa: x29 32 + x19: .cfa -8 + ^ x28: .cfa -16 + ^ .ra: .cfa -24 + ^ x29: .cfa -32 + ^
STACK CFI INIT 3c730 108 .cfa: sp 0 +
STACK CFI 3c748 .cfa: x29 64 + x19: .cfa -8 + ^ x20: .cfa -16 + ^ x21: .cfa -24 + ^ x22: .cfa -32 + ^ x23: .cfa -48 + ^ .ra: .cfa -56 + ^ x29: .cfa -64 + ^
STACK CFI INIT 3c838 f8 .cfa: sp 0 +
STACK CFI 3c848 .cfa: x29 48 + x19: .cfa -8 + ^ x20: .cfa -16 + ^ x21: .cfa -24 + ^ x22: .cfa -32 + ^ .ra: .cfa -40 + ^ x29: .cfa -48 + ^
STACK CFI INIT 3c930 48 .cfa: sp 0 +
STACK CFI 3c938 .cfa: x29 16 + .ra: .cfa -8 + ^ x29: .cfa -16 + ^
STACK CFI INIT 3c978 1b4 .cfa: sp 0 +
STACK CFI 3c98c .cfa: x29 48 + x19: .cfa -8 + ^ x20: .cfa -16 + ^ x21: .cfa -24 + ^ x22: .cfa -32 + ^ .ra: .cfa -40 + ^ x29: .cfa -48 + ^
STACK CFI INIT 3cb30 b0 .cfa: sp 0 +
STACK CFI 3cb3c .cfa: x29 32 + x19: .cfa -16 + ^ .ra: .cfa -24 + ^ x29: .cfa -32 + ^
STACK CFI INIT 3cbe0 18 .cfa: sp 0 +
STACK CFI INIT 3cbf8 23c .cfa: sp 0 +
STACK CFI 3cc08 .cfa: x29 48 + x19: .cfa -8 + ^ x20: .cfa -16 + ^ x21: .cfa -24 + ^ x22: .cfa -32 + ^ .ra: .cfa -40 + ^ x29: .cfa -48 + ^
STACK CFI INIT 3ce38 7c .cfa: sp 0 +
STACK CFI 3ce48 .cfa: x29 32 + x19: .cfa -16 + ^ .ra: .cfa -24 + ^ x29: .cfa -32 + ^
STACK CFI INIT 3ceb8 38c .cfa: sp 0 +
STACK CFI 3ced8 .cfa: x29 96 + x19: .cfa -8 + ^ x20: .cfa -16 + ^ x21: .cfa -24 + ^ x22: .cfa -32 + ^ x23: .cfa -40 + ^ x24: .cfa -48 + ^ x25: .cfa -56 + ^ x26: .cfa -64 + ^ x28: .cfa -80 + ^ .ra: .cfa -88 + ^ x29: .cfa -96 + ^
STACK CFI INIT 3d248 68 .cfa: sp 0 +
STACK CFI 3d258 .cfa: x29 48 + x19: .cfa -8 + ^ x20: .cfa -16 + ^ x21: .cfa -24 + ^ x22: .cfa -32 + ^ .ra: .cfa -40 + ^ x29: .cfa -48 + ^
STACK CFI INIT 3d2b0 230 .cfa: sp 0 +
STACK CFI 3d2c4 .cfa: x29 64 + x19: .cfa -8 + ^ x20: .cfa -16 + ^ x21: .cfa -24 + ^ x22: .cfa -32 + ^ x23: .cfa -48 + ^ .ra: .cfa -56 + ^ x29: .cfa -64 + ^
STACK CFI INIT 3d4e0 2d4 .cfa: sp 0 +
STACK CFI 3d4f8 .cfa: x29 64 + x19: .cfa -8 + ^ x20: .cfa -16 + ^ x21: .cfa -24 + ^ x22: .cfa -32 + ^ x28: .cfa -48 + ^ .ra: .cfa -56 + ^ x29: .cfa -64 + ^
STACK CFI INIT 3d7b8 14 .cfa: sp 0 +
STACK CFI INIT 3d7d0 c0 .cfa: sp 0 +
STACK CFI 3d7e0 .cfa: x29 48 + x19: .cfa -8 + ^ x20: .cfa -16 + ^ x21: .cfa -32 + ^ .ra: .cfa -40 + ^ x29: .cfa -48 + ^
STACK CFI INIT 3d890 238 .cfa: sp 0 +
STACK CFI 3d8a8 .cfa: x29 64 + x19: .cfa -8 + ^ x20: .cfa -16 + ^ x21: .cfa -24 + ^ x22: .cfa -32 + ^ x23: .cfa -40 + ^ x24: .cfa -48 + ^ .ra: .cfa -56 + ^ x29: .cfa -64 + ^
STACK CFI INIT 3dac8 20 .cfa: sp 0 +
STACK CFI 3dad0 .cfa: x29 16 + .ra: .cfa -8 + ^ x29: .cfa -16 + ^
STACK CFI INIT 3dae8 1d4 .cfa: sp 0 +
STACK CFI 3daf8 .cfa: x29 48 + x19: .cfa -8 + ^ x20: .cfa -16 + ^ x21: .cfa -32 + ^ .ra: .cfa -40 + ^ x29: .cfa -48 + ^
STACK CFI INIT 3dcc0 f0 .cfa: sp 0 +
STACK CFI 3dcd0 .cfa: x29 48 + x19: .cfa -8 + ^ x20: .cfa -16 + ^ x21: .cfa -32 + ^ .ra: .cfa -40 + ^ x29: .cfa -48 + ^
STACK CFI INIT 3ddb0 14c .cfa: sp 0 +
STACK CFI 3ddc0 .cfa: x29 48 + x19: .cfa -8 + ^ x20: .cfa -16 + ^ x21: .cfa -32 + ^ .ra: .cfa -40 + ^ x29: .cfa -48 + ^
STACK CFI INIT 3df00 20 .cfa: sp 0 +
STACK CFI INIT 3df20 218 .cfa: sp 0 +
STACK CFI 3df38 .cfa: x29 64 + x19: .cfa -8 + ^ x20: .cfa -16 + ^ x21: .cfa -24 + ^ x22: .cfa -32 + ^ x23: .cfa -40 + ^ x24: .cfa -48 + ^ .ra: .cfa -56 + ^ x29: .cfa -64 + ^
STACK CFI INIT 3e138 f8 .cfa: sp 0 +
STACK CFI 3e144 .cfa: x29 32 + x19: .cfa -8 + ^ x20: .cfa -16 + ^ .ra: .cfa -24 + ^ x29: .cfa -32 + ^
STACK CFI INIT 3e230 7c .cfa: sp 0 +
STACK CFI 3e23c .cfa: x29 32 + x19: .cfa -8 + ^ x20: .cfa -16 + ^ .ra: .cfa -24 + ^ x29: .cfa -32 + ^
STACK CFI INIT 3e2b0 1c .cfa: sp 0 +
STACK CFI INIT 3e2d0 d0 .cfa: sp 0 +
STACK CFI 3e2dc .cfa: x29 32 + x19: .cfa -8 + ^ x20: .cfa -16 + ^ .ra: .cfa -24 + ^ x29: .cfa -32 + ^
STACK CFI INIT 3e3a0 1c .cfa: sp 0 +
STACK CFI INIT 3e3c0 dc .cfa: sp 0 +
STACK CFI 3e3cc .cfa: x29 32 + x19: .cfa -8 + ^ x20: .cfa -16 + ^ .ra: .cfa -24 + ^ x29: .cfa -32 + ^
STACK CFI INIT 3e4a0 e0 .cfa: sp 0 +
STACK CFI 3e4ac .cfa: x29 32 + x19: .cfa -8 + ^ x20: .cfa -16 + ^ .ra: .cfa -24 + ^ x29: .cfa -32 + ^
STACK CFI INIT 3e580 1b8 .cfa: sp 0 +
STACK CFI 3e590 .cfa: x29 48 + x19: .cfa -8 + ^ x20: .cfa -16 + ^ x21: .cfa -24 + ^ x22: .cfa -32 + ^ .ra: .cfa -40 + ^ x29: .cfa -48 + ^
STACK CFI INIT 3e738 1c .cfa: sp 0 +
STACK CFI INIT 3e758 1c .cfa: sp 0 +
STACK CFI INIT 3e778 1c .cfa: sp 0 +
STACK CFI INIT 3e798 1c .cfa: sp 0 +
STACK CFI INIT 3e7b8 dc .cfa: sp 0 +
STACK CFI 3e7c4 .cfa: x29 32 + x19: .cfa -8 + ^ x20: .cfa -16 + ^ .ra: .cfa -24 + ^ x29: .cfa -32 + ^
STACK CFI INIT 3e898 1c .cfa: sp 0 +
STACK CFI INIT 3e8b8 64 .cfa: sp 0 +
STACK CFI 3e8c4 .cfa: x29 32 + x19: .cfa -16 + ^ .ra: .cfa -24 + ^ x29: .cfa -32 + ^
STACK CFI INIT 3e920 44 .cfa: sp 0 +
STACK CFI 3e928 .cfa: x29 16 + .ra: .cfa -8 + ^ x29: .cfa -16 + ^
STACK CFI INIT 3e968 194 .cfa: sp 0 +
STACK CFI 3e974 .cfa: x29 32 + x19: .cfa -16 + ^ .ra: .cfa -24 + ^ x29: .cfa -32 + ^
STACK CFI INIT 422a8 1c .cfa: sp 0 +
STACK CFI 422b0 .cfa: x29 16 + .ra: .cfa -8 + ^ x29: .cfa -16 + ^
STACK CFI INIT 422c8 3c .cfa: sp 0 +
STACK CFI 422d4 .cfa: x29 32 + x19: .cfa -16 + ^ .ra: .cfa -24 + ^ x29: .cfa -32 + ^
STACK CFI INIT 42308 c .cfa: sp 0 +
STACK CFI INIT 42318 138 .cfa: sp 0 +
STACK CFI 42324 .cfa: x29 32 + x19: .cfa -8 + ^ x20: .cfa -16 + ^ .ra: .cfa -24 + ^ x29: .cfa -32 + ^
STACK CFI INIT 42450 b4 .cfa: sp 0 +
STACK CFI 42460 .cfa: x29 32 + x19: .cfa -8 + ^ x28: .cfa -16 + ^ .ra: .cfa -24 + ^ x29: .cfa -32 + ^
STACK CFI INIT 42508 74 .cfa: sp 0 +
STACK CFI 42518 .cfa: x29 48 + x19: .cfa -8 + ^ x20: .cfa -16 + ^ x21: .cfa -24 + ^ x22: .cfa -32 + ^ .ra: .cfa -40 + ^ x29: .cfa -48 + ^
STACK CFI INIT 42580 14c .cfa: sp 0 +
STACK CFI 42588 .cfa: x29 16 + .ra: .cfa -8 + ^ x29: .cfa -16 + ^
STACK CFI INIT 426d0 1f0 .cfa: sp 0 +
STACK CFI 426e8 .cfa: x29 80 + x19: .cfa -8 + ^ x20: .cfa -16 + ^ x21: .cfa -24 + ^ x22: .cfa -32 + ^ x23: .cfa -40 + ^ x24: .cfa -48 + ^ x25: .cfa -64 + ^ .ra: .cfa -72 + ^ x29: .cfa -80 + ^
STACK CFI INIT 428c0 b4 .cfa: sp 0 +
STACK CFI 428d8 .cfa: x29 48 + x19: .cfa -8 + ^ x20: .cfa -16 + ^ x21: .cfa -24 + ^ x22: .cfa -32 + ^ .ra: .cfa -40 + ^ x29: .cfa -48 + ^
STACK CFI INIT 42978 60 .cfa: sp 0 +
STACK CFI 42980 .cfa: x29 16 + .ra: .cfa -8 + ^ x29: .cfa -16 + ^
STACK CFI INIT 429d8 c .cfa: sp 0 +
STACK CFI 429e0 .cfa: x29 16 + .ra: .cfa -8 + ^ x29: .cfa -16 + ^
STACK CFI INIT 429e8 b8 .cfa: sp 0 +
STACK CFI 429f8 .cfa: x29 48 + x19: .cfa -8 + ^ x20: .cfa -16 + ^ x21: .cfa -24 + ^ x22: .cfa -32 + ^ .ra: .cfa -40 + ^ x29: .cfa -48 + ^
STACK CFI INIT 42aa0 20 .cfa: sp 0 +
STACK CFI 42aa8 .cfa: x29 16 + .ra: .cfa -8 + ^ x29: .cfa -16 + ^
STACK CFI INIT 42ac0 48 .cfa: sp 0 +
STACK CFI 42acc .cfa: x29 32 + x19: .cfa -8 + ^ x20: .cfa -16 + ^ .ra: .cfa -24 + ^ x29: .cfa -32 + ^
STACK CFI INIT 42b08 4 .cfa: sp 0 +
STACK CFI INIT 42b10 2c .cfa: sp 0 +
STACK CFI INIT 42b40 9c .cfa: sp 0 +
STACK CFI 42b50 .cfa: x29 48 + x19: .cfa -8 + ^ x20: .cfa -16 + ^ x21: .cfa -32 + ^ .ra: .cfa -40 + ^ x29: .cfa -48 + ^
STACK CFI INIT 42be0 3c .cfa: sp 0 +
STACK CFI INIT 42c20 38 .cfa: sp 0 +
STACK CFI 42c2c .cfa: x29 16 + .ra: .cfa -8 + ^ x29: .cfa -16 + ^
STACK CFI INIT 42c58 60 .cfa: sp 0 +
STACK CFI 42c64 .cfa: x29 16 + .ra: .cfa -8 + ^ x29: .cfa -16 + ^
STACK CFI INIT 42cb8 c4 .cfa: sp 0 +
STACK CFI 42cc8 .cfa: x29 48 + x19: .cfa -8 + ^ x20: .cfa -16 + ^ x21: .cfa -32 + ^ .ra: .cfa -40 + ^ x29: .cfa -48 + ^
STACK CFI INIT 42d80 10c .cfa: sp 0 +
STACK CFI 42d98 .cfa: x29 64 + x19: .cfa -8 + ^ x20: .cfa -16 + ^ x21: .cfa -24 + ^ x22: .cfa -32 + ^ x28: .cfa -48 + ^ .ra: .cfa -56 + ^ x29: .cfa -64 + ^
STACK CFI INIT 42e90 20 .cfa: sp 0 +
STACK CFI 42ea4 .cfa: x29 16 + .ra: .cfa -8 + ^ x29: .cfa -16 + ^
STACK CFI INIT 42eb0 8c .cfa: sp 0 +
STACK CFI 42ec8 .cfa: x29 64 + x19: .cfa -8 + ^ x20: .cfa -16 + ^ x21: .cfa -24 + ^ x22: .cfa -32 + ^ x23: .cfa -48 + ^ .ra: .cfa -56 + ^ x29: .cfa -64 + ^
STACK CFI INIT 42f40 b0 .cfa: sp 0 +
STACK CFI 42f4c .cfa: x29 32 + x19: .cfa -8 + ^ x20: .cfa -16 + ^ .ra: .cfa -24 + ^ x29: .cfa -32 + ^
STACK CFI INIT 42ff0 78 .cfa: sp 0 +
STACK CFI 42ffc .cfa: x29 16 + .ra: .cfa -8 + ^ x29: .cfa -16 + ^
STACK CFI INIT 43068 24 .cfa: sp 0 +
STACK CFI 43074 .cfa: x29 32 + x19: .cfa -16 + ^ .ra: .cfa -24 + ^ x29: .cfa -32 + ^
STACK CFI INIT 43090 40 .cfa: sp 0 +
STACK CFI 430a0 .cfa: x29 32 + x19: .cfa -16 + ^ .ra: .cfa -24 + ^ x29: .cfa -32 + ^
STACK CFI INIT 430d0 48 .cfa: sp 0 +
STACK CFI 430e0 .cfa: x29 32 + x19: .cfa -8 + ^ x20: .cfa -16 + ^ .ra: .cfa -24 + ^ x29: .cfa -32 + ^
STACK CFI INIT 43118 40 .cfa: sp 0 +
STACK CFI 43128 .cfa: x29 32 + x19: .cfa -16 + ^ .ra: .cfa -24 + ^ x29: .cfa -32 + ^
STACK CFI INIT 43158 40 .cfa: sp 0 +
STACK CFI 43168 .cfa: x29 32 + x19: .cfa -16 + ^ .ra: .cfa -24 + ^ x29: .cfa -32 + ^
STACK CFI INIT 43198 48 .cfa: sp 0 +
STACK CFI 431a8 .cfa: x29 32 + x19: .cfa -8 + ^ x20: .cfa -16 + ^ .ra: .cfa -24 + ^ x29: .cfa -32 + ^
STACK CFI INIT 431e0 54 .cfa: sp 0 +
STACK CFI 431f4 .cfa: x29 48 + x19: .cfa -8 + ^ x20: .cfa -16 + ^ x21: .cfa -32 + ^ .ra: .cfa -40 + ^ x29: .cfa -48 + ^
STACK CFI INIT 43238 40 .cfa: sp 0 +
STACK CFI 43248 .cfa: x29 32 + x19: .cfa -16 + ^ .ra: .cfa -24 + ^ x29: .cfa -32 + ^
STACK CFI INIT 43278 50 .cfa: sp 0 +
STACK CFI 43288 .cfa: x29 32 + x19: .cfa -8 + ^ x20: .cfa -16 + ^ .ra: .cfa -24 + ^ x29: .cfa -32 + ^
STACK CFI INIT 432c8 2c .cfa: sp 0 +
STACK CFI INIT 432f8 50 .cfa: sp 0 +
STACK CFI 43308 .cfa: x29 32 + x19: .cfa -8 + ^ x20: .cfa -16 + ^ .ra: .cfa -24 + ^ x29: .cfa -32 + ^
STACK CFI INIT 43348 64 .cfa: sp 0 +
STACK CFI 4335c .cfa: x29 48 + x19: .cfa -8 + ^ x20: .cfa -16 + ^ x21: .cfa -24 + ^ x22: .cfa -32 + ^ .ra: .cfa -40 + ^ x29: .cfa -48 + ^
STACK CFI INIT 433b0 54 .cfa: sp 0 +
STACK CFI 433c4 .cfa: x29 48 + x19: .cfa -8 + ^ x20: .cfa -16 + ^ x21: .cfa -32 + ^ .ra: .cfa -40 + ^ x29: .cfa -48 + ^
STACK CFI INIT 43408 48 .cfa: sp 0 +
STACK CFI 43418 .cfa: x29 32 + x19: .cfa -8 + ^ x20: .cfa -16 + ^ .ra: .cfa -24 + ^ x29: .cfa -32 + ^
STACK CFI INIT 43450 44 .cfa: sp 0 +
STACK CFI 43460 .cfa: x29 32 + x19: .cfa -16 + ^ .ra: .cfa -24 + ^ x29: .cfa -32 + ^
STACK CFI INIT 43498 48 .cfa: sp 0 +
STACK CFI 434a8 .cfa: x29 32 + x19: .cfa -8 + ^ x20: .cfa -16 + ^ .ra: .cfa -24 + ^ x29: .cfa -32 + ^
STACK CFI INIT 434e0 65c .cfa: sp 0 +
STACK CFI 43500 .cfa: x29 96 + x19: .cfa -8 + ^ x20: .cfa -16 + ^ x21: .cfa -24 + ^ x22: .cfa -32 + ^ x23: .cfa -40 + ^ x24: .cfa -48 + ^ x25: .cfa -56 + ^ x26: .cfa -64 + ^ x27: .cfa -72 + ^ x28: .cfa -80 + ^ .ra: .cfa -88 + ^ x29: .cfa -96 + ^
STACK CFI INIT 43b40 14c .cfa: sp 0 +
STACK CFI 43b58 .cfa: x29 64 + x19: .cfa -8 + ^ x20: .cfa -16 + ^ x21: .cfa -24 + ^ x22: .cfa -32 + ^ x23: .cfa -40 + ^ x24: .cfa -48 + ^ .ra: .cfa -56 + ^ x29: .cfa -64 + ^
STACK CFI INIT 43c90 f8 .cfa: sp 0 +
STACK CFI 43ca4 .cfa: x29 48 + x19: .cfa -8 + ^ x20: .cfa -16 + ^ x21: .cfa -24 + ^ x28: .cfa -32 + ^ .ra: .cfa -40 + ^ x29: .cfa -48 + ^
STACK CFI INIT 43d88 2cc .cfa: sp 0 +
STACK CFI 43da4 .cfa: x29 80 + x19: .cfa -8 + ^ x20: .cfa -16 + ^ x21: .cfa -24 + ^ x22: .cfa -32 + ^ x23: .cfa -40 + ^ x24: .cfa -48 + ^ x25: .cfa -56 + ^ x28: .cfa -64 + ^ .ra: .cfa -72 + ^ x29: .cfa -80 + ^
STACK CFI INIT 44058 ac .cfa: sp 0 +
STACK CFI 44064 .cfa: x29 16 + .ra: .cfa -8 + ^ x29: .cfa -16 + ^
STACK CFI INIT 44108 480 .cfa: sp 0 +
STACK CFI 44128 .cfa: x29 96 + x19: .cfa -8 + ^ x20: .cfa -16 + ^ x21: .cfa -24 + ^ x22: .cfa -32 + ^ x23: .cfa -40 + ^ x24: .cfa -48 + ^ x25: .cfa -56 + ^ x26: .cfa -64 + ^ x27: .cfa -72 + ^ x28: .cfa -80 + ^ .ra: .cfa -88 + ^ x29: .cfa -96 + ^
STACK CFI INIT 44588 1c .cfa: sp 0 +
STACK CFI INIT 445a8 174 .cfa: sp 0 +
STACK CFI 445bc .cfa: x29 48 + x19: .cfa -8 + ^ x20: .cfa -16 + ^ x21: .cfa -24 + ^ x22: .cfa -32 + ^ .ra: .cfa -40 + ^ x29: .cfa -48 + ^
STACK CFI INIT 44720 bc .cfa: sp 0 +
STACK CFI 44730 .cfa: x29 48 + x19: .cfa -8 + ^ x20: .cfa -16 + ^ x21: .cfa -24 + ^ x22: .cfa -32 + ^ .ra: .cfa -40 + ^ x29: .cfa -48 + ^
STACK CFI INIT 447e0 5c .cfa: sp 0 +
STACK CFI 447ec .cfa: x29 32 + x19: .cfa -16 + ^ .ra: .cfa -24 + ^ x29: .cfa -32 + ^
STACK CFI INIT 44840 cc .cfa: sp 0 +
STACK CFI 4484c .cfa: x29 32 + x19: .cfa -16 + ^ .ra: .cfa -24 + ^ x29: .cfa -32 + ^
STACK CFI INIT 44910 3c .cfa: sp 0 +
STACK CFI INIT 44950 cc .cfa: sp 0 +
STACK CFI 4495c .cfa: x29 32 + x19: .cfa -16 + ^ .ra: .cfa -24 + ^ x29: .cfa -32 + ^
STACK CFI INIT 44a20 90 .cfa: sp 0 +
STACK CFI 44a28 .cfa: x29 16 + .ra: .cfa -8 + ^ x29: .cfa -16 + ^
STACK CFI INIT 44ab0 2b0 .cfa: sp 0 +
STACK CFI 44acc .cfa: x29 80 + x19: .cfa -8 + ^ x20: .cfa -16 + ^ x21: .cfa -24 + ^ x22: .cfa -32 + ^ x23: .cfa -40 + ^ x24: .cfa -48 + ^ x25: .cfa -56 + ^ x26: .cfa -64 + ^ .ra: .cfa -72 + ^ x29: .cfa -80 + ^
STACK CFI INIT 44d60 30 .cfa: sp 0 +
STACK CFI 44d68 .cfa: x29 16 + .ra: .cfa -8 + ^ x29: .cfa -16 + ^
STACK CFI INIT 44d90 24c .cfa: sp 0 +
STACK CFI 44db0 .cfa: x29 96 + x19: .cfa -8 + ^ x20: .cfa -16 + ^ x21: .cfa -24 + ^ x22: .cfa -32 + ^ x23: .cfa -40 + ^ x24: .cfa -48 + ^ x25: .cfa -56 + ^ x26: .cfa -64 + ^ x27: .cfa -72 + ^ x28: .cfa -80 + ^ .ra: .cfa -88 + ^ x29: .cfa -96 + ^
STACK CFI INIT 44fe0 c .cfa: sp 0 +
STACK CFI INIT 44ff0 f0 .cfa: sp 0 +
STACK CFI 44ffc .cfa: x29 32 + x19: .cfa -16 + ^ .ra: .cfa -24 + ^ x29: .cfa -32 + ^
STACK CFI INIT 450e0 c .cfa: sp 0 +
STACK CFI INIT 450f0 120 .cfa: sp 0 +
STACK CFI 450fc .cfa: x29 32 + x19: .cfa -8 + ^ x20: .cfa -16 + ^ .ra: .cfa -24 + ^ x29: .cfa -32 + ^
STACK CFI INIT 45210 18 .cfa: sp 0 +
STACK CFI INIT 45228 fc .cfa: sp 0 +
STACK CFI 45234 .cfa: x29 16 + .ra: .cfa -8 + ^ x29: .cfa -16 + ^
STACK CFI INIT 45328 178 .cfa: sp 0 +
STACK CFI 45338 .cfa: x29 48 + x19: .cfa -8 + ^ x20: .cfa -16 + ^ x21: .cfa -24 + ^ x22: .cfa -32 + ^ .ra: .cfa -40 + ^ x29: .cfa -48 + ^
STACK CFI INIT 454a0 fc .cfa: sp 0 +
STACK CFI 454b0 .cfa: x29 48 + x19: .cfa -8 + ^ x20: .cfa -16 + ^ x21: .cfa -24 + ^ x22: .cfa -32 + ^ .ra: .cfa -40 + ^ x29: .cfa -48 + ^
STACK CFI INIT 455a0 d0 .cfa: sp 0 +
STACK CFI 455ac .cfa: x29 32 + x19: .cfa -16 + ^ .ra: .cfa -24 + ^ x29: .cfa -32 + ^
STACK CFI INIT 45670 2c4 .cfa: sp 0 +
STACK CFI 45684 .cfa: x29 64 + x19: .cfa -8 + ^ x20: .cfa -16 + ^ x21: .cfa -24 + ^ x22: .cfa -32 + ^ x23: .cfa -48 + ^ .ra: .cfa -56 + ^ x29: .cfa -64 + ^
STACK CFI INIT 45938 c .cfa: sp 0 +
STACK CFI INIT 45948 98 .cfa: sp 0 +
STACK CFI 45958 .cfa: x29 48 + x19: .cfa -8 + ^ x20: .cfa -16 + ^ x21: .cfa -32 + ^ .ra: .cfa -40 + ^ x29: .cfa -48 + ^
STACK CFI INIT 459e0 450 .cfa: sp 0 +
STACK CFI 45a00 .cfa: x29 96 + x19: .cfa -8 + ^ x20: .cfa -16 + ^ x21: .cfa -24 + ^ x22: .cfa -32 + ^ x23: .cfa -40 + ^ x24: .cfa -48 + ^ x25: .cfa -56 + ^ x26: .cfa -64 + ^ x27: .cfa -72 + ^ x28: .cfa -80 + ^ .ra: .cfa -88 + ^ x29: .cfa -96 + ^
STACK CFI INIT 45e30 78 .cfa: sp 0 +
STACK CFI 45e3c .cfa: x29 32 + x19: .cfa -8 + ^ x20: .cfa -16 + ^ .ra: .cfa -24 + ^ x29: .cfa -32 + ^
STACK CFI INIT 45ea8 230 .cfa: sp 0 +
STACK CFI 45ebc .cfa: x29 64 + x19: .cfa -8 + ^ x20: .cfa -16 + ^ x21: .cfa -24 + ^ x22: .cfa -32 + ^ x23: .cfa -48 + ^ .ra: .cfa -56 + ^ x29: .cfa -64 + ^
STACK CFI INIT 460d8 138 .cfa: sp 0 +
STACK CFI 460e8 .cfa: x29 32 + x19: .cfa -8 + ^ x20: .cfa -16 + ^ .ra: .cfa -24 + ^ x29: .cfa -32 + ^
STACK CFI INIT 46210 98 .cfa: sp 0 +
STACK CFI 46220 .cfa: x29 48 + x19: .cfa -8 + ^ x20: .cfa -16 + ^ x21: .cfa -32 + ^ .ra: .cfa -40 + ^ x29: .cfa -48 + ^
STACK CFI INIT 462a8 2cc .cfa: sp 0 +
STACK CFI 462c0 .cfa: x29 80 + x19: .cfa -8 + ^ x20: .cfa -16 + ^ x21: .cfa -24 + ^ x22: .cfa -32 + ^ x23: .cfa -40 + ^ x24: .cfa -48 + ^ x25: .cfa -64 + ^ .ra: .cfa -72 + ^ x29: .cfa -80 + ^
STACK CFI INIT 46578 16c .cfa: sp 0 +
STACK CFI 46598 .cfa: x29 96 + x19: .cfa -8 + ^ x20: .cfa -16 + ^ x21: .cfa -24 + ^ x22: .cfa -32 + ^ x23: .cfa -40 + ^ x24: .cfa -48 + ^ x25: .cfa -56 + ^ x26: .cfa -64 + ^ x27: .cfa -72 + ^ x28: .cfa -80 + ^ .ra: .cfa -88 + ^ x29: .cfa -96 + ^
STACK CFI INIT 466e8 170 .cfa: sp 0 +
STACK CFI 46700 .cfa: x29 80 + x19: .cfa -8 + ^ x20: .cfa -16 + ^ x21: .cfa -24 + ^ x22: .cfa -32 + ^ x23: .cfa -40 + ^ x24: .cfa -48 + ^ x25: .cfa -64 + ^ .ra: .cfa -72 + ^ x29: .cfa -80 + ^
STACK CFI INIT 46858 60 .cfa: sp 0 +
STACK CFI INIT 468b8 304 .cfa: sp 0 +
STACK CFI 468d8 .cfa: x29 96 + x19: .cfa -8 + ^ x20: .cfa -16 + ^ x21: .cfa -24 + ^ x22: .cfa -32 + ^ x23: .cfa -40 + ^ x24: .cfa -48 + ^ x25: .cfa -56 + ^ x26: .cfa -64 + ^ x27: .cfa -72 + ^ x28: .cfa -80 + ^ .ra: .cfa -88 + ^ x29: .cfa -96 + ^
STACK CFI INIT 46bc0 300 .cfa: sp 0 +
STACK CFI 46bcc .cfa: x29 32 + x19: .cfa -8 + ^ x20: .cfa -16 + ^ .ra: .cfa -24 + ^ x29: .cfa -32 + ^
STACK CFI INIT 46ec0 180 .cfa: sp 0 +
STACK CFI 46ed8 .cfa: x29 80 + x19: .cfa -8 + ^ x20: .cfa -16 + ^ x21: .cfa -24 + ^ x22: .cfa -32 + ^ x23: .cfa -40 + ^ x24: .cfa -48 + ^ x25: .cfa -64 + ^ .ra: .cfa -72 + ^ x29: .cfa -80 + ^
STACK CFI INIT 47040 100 .cfa: sp 0 +
STACK CFI 47050 .cfa: x29 48 + x19: .cfa -8 + ^ x20: .cfa -16 + ^ x21: .cfa -24 + ^ x22: .cfa -32 + ^ .ra: .cfa -40 + ^ x29: .cfa -48 + ^
STACK CFI INIT 47140 d0 .cfa: sp 0 +
STACK CFI 4714c .cfa: x29 16 + .ra: .cfa -8 + ^ x29: .cfa -16 + ^
STACK CFI INIT 47210 1e0 .cfa: sp 0 +
STACK CFI 47228 .cfa: x29 80 + x19: .cfa -8 + ^ x20: .cfa -16 + ^ x21: .cfa -24 + ^ x22: .cfa -32 + ^ x23: .cfa -40 + ^ x24: .cfa -48 + ^ x25: .cfa -56 + ^ x26: .cfa -64 + ^ .ra: .cfa -72 + ^ x29: .cfa -80 + ^
STACK CFI INIT 473f0 158 .cfa: sp 0 +
STACK CFI 47404 .cfa: x29 48 + x19: .cfa -8 + ^ x20: .cfa -16 + ^ x21: .cfa -32 + ^ .ra: .cfa -40 + ^ x29: .cfa -48 + ^
STACK CFI INIT 47548 574 .cfa: sp 0 +
STACK CFI 47568 .cfa: x29 96 + x19: .cfa -8 + ^ x20: .cfa -16 + ^ x21: .cfa -24 + ^ x22: .cfa -32 + ^ x23: .cfa -40 + ^ x24: .cfa -48 + ^ x25: .cfa -56 + ^ x26: .cfa -64 + ^ x27: .cfa -72 + ^ x28: .cfa -80 + ^ .ra: .cfa -88 + ^ x29: .cfa -96 + ^
STACK CFI INIT 47ac0 1a8 .cfa: sp 0 +
STACK CFI 47acc .cfa: x29 32 + x19: .cfa -16 + ^ .ra: .cfa -24 + ^ x29: .cfa -32 + ^
STACK CFI INIT 47c68 2ec .cfa: sp 0 +
STACK CFI 47c80 .cfa: x29 80 + x19: .cfa -8 + ^ x20: .cfa -16 + ^ x21: .cfa -24 + ^ x22: .cfa -32 + ^ x23: .cfa -40 + ^ x24: .cfa -48 + ^ x25: .cfa -64 + ^ .ra: .cfa -72 + ^ x29: .cfa -80 + ^
STACK CFI INIT 47f58 164 .cfa: sp 0 +
STACK CFI 47f6c .cfa: x29 48 + x19: .cfa -8 + ^ x20: .cfa -16 + ^ x21: .cfa -24 + ^ x22: .cfa -32 + ^ .ra: .cfa -40 + ^ x29: .cfa -48 + ^
STACK CFI INIT 480c0 22c .cfa: sp 0 +
STACK CFI 480dc .cfa: x29 64 + x19: .cfa -8 + ^ x20: .cfa -16 + ^ x21: .cfa -24 + ^ x22: .cfa -32 + ^ x23: .cfa -40 + ^ x28: .cfa -48 + ^ .ra: .cfa -56 + ^ x29: .cfa -64 + ^
STACK CFI INIT 482f0 15c .cfa: sp 0 +
STACK CFI 48304 .cfa: x29 64 + x19: .cfa -8 + ^ x20: .cfa -16 + ^ x21: .cfa -24 + ^ x22: .cfa -32 + ^ x23: .cfa -40 + ^ x24: .cfa -48 + ^ .ra: .cfa -56 + ^ x29: .cfa -64 + ^
STACK CFI INIT 48450 e0 .cfa: sp 0 +
STACK CFI 48460 .cfa: x29 48 + x19: .cfa -8 + ^ x20: .cfa -16 + ^ x21: .cfa -24 + ^ x22: .cfa -32 + ^ .ra: .cfa -40 + ^ x29: .cfa -48 + ^
STACK CFI INIT 48530 14c .cfa: sp 0 +
STACK CFI 48548 .cfa: x29 64 + x19: .cfa -8 + ^ x20: .cfa -16 + ^ x21: .cfa -24 + ^ x22: .cfa -32 + ^ x23: .cfa -48 + ^ .ra: .cfa -56 + ^ x29: .cfa -64 + ^
STACK CFI INIT 48680 148 .cfa: sp 0 +
STACK CFI INIT 487c8 2f0 .cfa: sp 0 +
STACK CFI 487e8 .cfa: x29 96 + x19: .cfa -8 + ^ x20: .cfa -16 + ^ x21: .cfa -24 + ^ x22: .cfa -32 + ^ x23: .cfa -40 + ^ x24: .cfa -48 + ^ x25: .cfa -56 + ^ x26: .cfa -64 + ^ x27: .cfa -72 + ^ x28: .cfa -80 + ^ .ra: .cfa -88 + ^ x29: .cfa -96 + ^
STACK CFI INIT 48ab8 130 .cfa: sp 0 +
STACK CFI 48ac8 .cfa: x29 48 + x19: .cfa -8 + ^ x20: .cfa -16 + ^ x21: .cfa -32 + ^ .ra: .cfa -40 + ^ x29: .cfa -48 + ^
STACK CFI INIT 48be8 124 .cfa: sp 0 +
STACK CFI 48bf4 .cfa: x29 32 + x19: .cfa -16 + ^ .ra: .cfa -24 + ^ x29: .cfa -32 + ^
STACK CFI INIT 48d10 128 .cfa: sp 0 +
STACK CFI 48d1c .cfa: x29 32 + x19: .cfa -8 + ^ x20: .cfa -16 + ^ .ra: .cfa -24 + ^ x29: .cfa -32 + ^
STACK CFI INIT 48e38 8 .cfa: sp 0 +
STACK CFI INIT 48e40 38 .cfa: sp 0 +
STACK CFI 48e4c .cfa: x29 32 + x19: .cfa -16 + ^ .ra: .cfa -24 + ^ x29: .cfa -32 + ^
STACK CFI INIT 48e78 2c .cfa: sp 0 +
STACK CFI 48e84 .cfa: x29 32 + x19: .cfa -16 + ^ .ra: .cfa -24 + ^ x29: .cfa -32 + ^
STACK CFI INIT 48ea8 9c .cfa: sp 0 +
STACK CFI 48ec0 .cfa: x29 64 + x19: .cfa -8 + ^ x20: .cfa -16 + ^ x21: .cfa -24 + ^ x22: .cfa -32 + ^ x28: .cfa -48 + ^ .ra: .cfa -56 + ^ x29: .cfa -64 + ^
STACK CFI INIT 48f48 8 .cfa: sp 0 +
STACK CFI INIT 48f50 18 .cfa: sp 0 +
STACK CFI INIT 48f68 6c .cfa: sp 0 +
STACK CFI INIT 48fd8 c .cfa: sp 0 +
STACK CFI INIT 48fe8 1c8 .cfa: sp 0 +
STACK CFI 49000 .cfa: x29 80 + x19: .cfa -8 + ^ x20: .cfa -16 + ^ x21: .cfa -24 + ^ x22: .cfa -32 + ^ x23: .cfa -40 + ^ x24: .cfa -48 + ^ x25: .cfa -64 + ^ .ra: .cfa -72 + ^ x29: .cfa -80 + ^
STACK CFI INIT 491b0 8 .cfa: sp 0 +
STACK CFI INIT 491b8 8 .cfa: sp 0 +
STACK CFI INIT 491c0 a8 .cfa: sp 0 +
STACK CFI 491d8 .cfa: x29 80 + x19: .cfa -8 + ^ x20: .cfa -16 + ^ x21: .cfa -24 + ^ x22: .cfa -32 + ^ x23: .cfa -40 + ^ x24: .cfa -48 + ^ x25: .cfa -64 + ^ .ra: .cfa -72 + ^ x29: .cfa -80 + ^
STACK CFI INIT 49268 198 .cfa: sp 0 +
STACK CFI 4927c .cfa: x29 64 + x19: .cfa -8 + ^ x20: .cfa -16 + ^ x21: .cfa -24 + ^ x22: .cfa -32 + ^ x23: .cfa -40 + ^ x24: .cfa -48 + ^ .ra: .cfa -56 + ^ x29: .cfa -64 + ^
STACK CFI INIT 49400 13c .cfa: sp 0 +
STACK CFI 4941c .cfa: x29 96 + x19: .cfa -8 + ^ x20: .cfa -16 + ^ x21: .cfa -24 + ^ x22: .cfa -32 + ^ x23: .cfa -40 + ^ x24: .cfa -48 + ^ x25: .cfa -56 + ^ x26: .cfa -64 + ^ x27: .cfa -80 + ^ .ra: .cfa -88 + ^ x29: .cfa -96 + ^
STACK CFI INIT 49540 5c .cfa: sp 0 +
STACK CFI 49550 .cfa: x29 48 + x19: .cfa -8 + ^ x20: .cfa -16 + ^ x21: .cfa -24 + ^ x22: .cfa -32 + ^ .ra: .cfa -40 + ^ x29: .cfa -48 + ^
STACK CFI INIT 495a0 8 .cfa: sp 0 +
STACK CFI INIT 495a8 78 .cfa: sp 0 +
STACK CFI 495b8 .cfa: x29 48 + x19: .cfa -8 + ^ x20: .cfa -16 + ^ x21: .cfa -32 + ^ .ra: .cfa -40 + ^ x29: .cfa -48 + ^
STACK CFI INIT 49620 68 .cfa: sp 0 +
STACK CFI 49630 .cfa: x29 48 + x19: .cfa -8 + ^ x20: .cfa -16 + ^ x21: .cfa -32 + ^ .ra: .cfa -40 + ^ x29: .cfa -48 + ^
STACK CFI INIT 49688 74 .cfa: sp 0 +
STACK CFI 49698 .cfa: x29 48 + x19: .cfa -8 + ^ x20: .cfa -16 + ^ x21: .cfa -32 + ^ .ra: .cfa -40 + ^ x29: .cfa -48 + ^
STACK CFI INIT 49700 8 .cfa: sp 0 +
STACK CFI INIT 49708 18 .cfa: sp 0 +
STACK CFI INIT 49720 20 .cfa: sp 0 +
STACK CFI 49728 .cfa: x29 16 + .ra: .cfa -8 + ^ x29: .cfa -16 + ^
STACK CFI INIT 49740 20 .cfa: sp 0 +
STACK CFI 49748 .cfa: x29 16 + .ra: .cfa -8 + ^ x29: .cfa -16 + ^
STACK CFI INIT 49760 4 .cfa: sp 0 +
STACK CFI INIT 49768 4 .cfa: sp 0 +
STACK CFI INIT 49770 28 .cfa: sp 0 +
STACK CFI 49780 .cfa: x29 16 + .ra: .cfa -8 + ^ x29: .cfa -16 + ^
STACK CFI INIT 49798 6c .cfa: sp 0 +
STACK CFI INIT 49808 3c .cfa: sp 0 +
STACK CFI 49814 .cfa: x29 32 + x19: .cfa -16 + ^ .ra: .cfa -24 + ^ x29: .cfa -32 + ^
STACK CFI INIT 49848 24 .cfa: sp 0 +
STACK CFI INIT 49870 80 .cfa: sp 0 +
STACK CFI INIT 498f0 18 .cfa: sp 0 +
STACK CFI INIT 49908 c0 .cfa: sp 0 +
STACK CFI 49914 .cfa: x29 32 + x19: .cfa -16 + ^ .ra: .cfa -24 + ^ x29: .cfa -32 + ^
STACK CFI INIT 499c8 74 .cfa: sp 0 +
STACK CFI 499d8 .cfa: x29 48 + x19: .cfa -8 + ^ x20: .cfa -16 + ^ x21: .cfa -24 + ^ x22: .cfa -32 + ^ .ra: .cfa -40 + ^ x29: .cfa -48 + ^
STACK CFI INIT 49a40 4 .cfa: sp 0 +
STACK CFI INIT 49a48 230 .cfa: sp 0 +
STACK CFI 49a58 .cfa: x29 32 + x19: .cfa -16 + ^ .ra: .cfa -24 + ^ x29: .cfa -32 + ^
STACK CFI INIT 49c78 50 .cfa: sp 0 +
STACK CFI 49c84 .cfa: x29 32 + x19: .cfa -16 + ^ .ra: .cfa -24 + ^ x29: .cfa -32 + ^
STACK CFI INIT 49cc8 50 .cfa: sp 0 +
STACK CFI 49cd4 .cfa: x29 32 + x19: .cfa -16 + ^ .ra: .cfa -24 + ^ x29: .cfa -32 + ^
STACK CFI INIT 49d18 50 .cfa: sp 0 +
STACK CFI 49d24 .cfa: x29 32 + x19: .cfa -16 + ^ .ra: .cfa -24 + ^ x29: .cfa -32 + ^
STACK CFI INIT 49d68 88 .cfa: sp 0 +
STACK CFI 49d78 .cfa: x29 32 + x19: .cfa -8 + ^ x20: .cfa -16 + ^ .ra: .cfa -24 + ^ x29: .cfa -32 + ^
STACK CFI INIT 49df0 240 .cfa: sp 0 +
STACK CFI 49e10 .cfa: x29 96 + x19: .cfa -8 + ^ x20: .cfa -16 + ^ x21: .cfa -24 + ^ x22: .cfa -32 + ^ x23: .cfa -40 + ^ x24: .cfa -48 + ^ x25: .cfa -56 + ^ x26: .cfa -64 + ^ x27: .cfa -72 + ^ x28: .cfa -80 + ^ .ra: .cfa -88 + ^ x29: .cfa -96 + ^
STACK CFI INIT 4a030 60 .cfa: sp 0 +
STACK CFI 4a040 .cfa: x29 32 + x19: .cfa -8 + ^ x20: .cfa -16 + ^ .ra: .cfa -24 + ^ x29: .cfa -32 + ^
STACK CFI INIT 4a090 38 .cfa: sp 0 +
STACK CFI 4a098 .cfa: x29 16 + .ra: .cfa -8 + ^ x29: .cfa -16 + ^
STACK CFI INIT 4a0c8 38 .cfa: sp 0 +
STACK CFI 4a0d0 .cfa: x29 16 + .ra: .cfa -8 + ^ x29: .cfa -16 + ^
STACK CFI INIT 4a100 18 .cfa: sp 0 +
STACK CFI 4a108 .cfa: x29 16 + .ra: .cfa -8 + ^ x29: .cfa -16 + ^
STACK CFI INIT 4a118 b8 .cfa: sp 0 +
STACK CFI 4a128 .cfa: x29 48 + x19: .cfa -8 + ^ x20: .cfa -16 + ^ x21: .cfa -24 + ^ x22: .cfa -32 + ^ .ra: .cfa -40 + ^ x29: .cfa -48 + ^
STACK CFI INIT 4a1d0 10 .cfa: sp 0 +
STACK CFI INIT 4a1e0 8 .cfa: sp 0 +
STACK CFI INIT 4a200 110 .cfa: sp 0 +
STACK CFI INIT 4a310 16c .cfa: sp 0 +
STACK CFI INIT 4a480 ac .cfa: sp 0 +
STACK CFI INIT 4a530 10 .cfa: sp 0 +
STACK CFI 4a53c .cfa: sp 16 + x29: .cfa -16 + ^ .ra: .cfa -8 + ^
STACK CFI INIT 4a540 1d8 .cfa: sp 0 +
STACK CFI INIT 4a720 13c .cfa: sp 0 +
STACK CFI INIT 4a860 128 .cfa: sp 0 +
STACK CFI INIT 4a990 b0 .cfa: sp 0 +
STACK CFI INIT 4aa40 d8 .cfa: sp 0 +
STACK CFI INIT 4ab20 dc .cfa: sp 0 +
STACK CFI INIT 4ac00 e4 .cfa: sp 0 +
STACK CFI INIT 4acf0 140 .cfa: sp 0 +
STACK CFI INIT 4ae60 1b4 .cfa: sp 0 +
STACK CFI INIT 4b070 bc .cfa: sp 0 +
STACK CFI INIT 4b130 30 .cfa: sp 0 +
STACK CFI INIT 4b160 14 .cfa: sp 0 +
STACK CFI INIT 4b180 8 .cfa: sp 0 +
STACK CFI INIT 4b190 8 .cfa: sp 0 +
STACK CFI INIT 4b1a0 1ac .cfa: sp 0 +
STACK CFI 4b1a4 .cfa: sp 16 + x0: .cfa -16 + ^ .ra: .cfa -8 + ^
STACK CFI 4b1c0 .cfa: sp 32 +
STACK CFI 4b1d0 .cfa: sp 16 +
STACK CFI 4b1d4 .cfa: sp 0 +
STACK CFI INIT 4b350 198 .cfa: sp 0 +
STACK CFI 4b42c .cfa: sp 16 + x0: .cfa -16 + ^ .ra: .cfa -8 + ^
STACK CFI 4b44c .cfa: sp 0 +
STACK CFI 4b4b8 .cfa: sp 16 + x1: .cfa -8 + ^
STACK CFI 4b4bc .cfa: sp 32 + .ra: .cfa -32 + ^
STACK CFI 4b4c8 .cfa: sp 16 +
STACK CFI 4b4cc .cfa: sp 0 +
STACK CFI INIT 4b4f0 30 .cfa: sp 0 +
STACK CFI INIT 4b520 48 .cfa: sp 0 +
STACK CFI INIT 4b568 390 .cfa: sp 0 +
STACK CFI 4b588 .cfa: x29 96 + x19: .cfa -8 + ^ x20: .cfa -16 + ^ x21: .cfa -24 + ^ x22: .cfa -32 + ^ x23: .cfa -40 + ^ x24: .cfa -48 + ^ x25: .cfa -56 + ^ x26: .cfa -64 + ^ x27: .cfa -72 + ^ x28: .cfa -80 + ^ .ra: .cfa -88 + ^ x29: .cfa -96 + ^
STACK CFI INIT 4b8f8 c .cfa: sp 0 +
STACK CFI INIT 4b908 124 .cfa: sp 0 +
STACK CFI 4b920 .cfa: x29 64 + x19: .cfa -8 + ^ x20: .cfa -16 + ^ x21: .cfa -24 + ^ x22: .cfa -32 + ^ x23: .cfa -48 + ^ .ra: .cfa -56 + ^ x29: .cfa -64 + ^
STACK CFI INIT 4ba30 30 .cfa: sp 0 +
STACK CFI 4ba3c .cfa: x29 32 + x19: .cfa -16 + ^ .ra: .cfa -24 + ^ x29: .cfa -32 + ^
STACK CFI INIT 4ba60 25c .cfa: sp 0 +
STACK CFI 4ba78 .cfa: x29 64 + x19: .cfa -8 + ^ x20: .cfa -16 + ^ x21: .cfa -24 + ^ x22: .cfa -32 + ^ x23: .cfa -40 + ^ x28: .cfa -48 + ^ .ra: .cfa -56 + ^ x29: .cfa -64 + ^
STACK CFI INIT 4bcc0 c8 .cfa: sp 0 +
STACK CFI 4bcd4 .cfa: x29 48 + x19: .cfa -8 + ^ x20: .cfa -16 + ^ x28: .cfa -32 + ^ .ra: .cfa -40 + ^ x29: .cfa -48 + ^
STACK CFI INIT 4bd88 c4 .cfa: sp 0 +
STACK CFI 4bd9c .cfa: x29 48 + x19: .cfa -8 + ^ x20: .cfa -16 + ^ x28: .cfa -32 + ^ .ra: .cfa -40 + ^ x29: .cfa -48 + ^
STACK CFI INIT 4be50 38 .cfa: sp 0 +
STACK CFI 4be5c .cfa: x29 32 + x19: .cfa -16 + ^ .ra: .cfa -24 + ^ x29: .cfa -32 + ^
STACK CFI INIT 4be88 70 .cfa: sp 0 +
STACK CFI 4be98 .cfa: x29 48 + x19: .cfa -8 + ^ x20: .cfa -16 + ^ x21: .cfa -24 + ^ x22: .cfa -32 + ^ .ra: .cfa -40 + ^ x29: .cfa -48 + ^
STACK CFI INIT 4bef8 2b8 .cfa: sp 0 +
STACK CFI 4bf18 .cfa: x29 96 + x19: .cfa -8 + ^ x20: .cfa -16 + ^ x21: .cfa -24 + ^ x22: .cfa -32 + ^ x23: .cfa -40 + ^ x24: .cfa -48 + ^ x25: .cfa -56 + ^ x26: .cfa -64 + ^ x27: .cfa -72 + ^ x28: .cfa -80 + ^ .ra: .cfa -88 + ^ x29: .cfa -96 + ^
STACK CFI INIT 4c1b0 1e0 .cfa: sp 0 +
STACK CFI 4c1cc .cfa: x29 80 + x19: .cfa -8 + ^ x20: .cfa -16 + ^ x21: .cfa -24 + ^ x22: .cfa -32 + ^ x23: .cfa -40 + ^ x24: .cfa -48 + ^ x25: .cfa -56 + ^ x28: .cfa -64 + ^ .ra: .cfa -72 + ^ x29: .cfa -80 + ^
STACK CFI INIT 4c390 dc .cfa: sp 0 +
STACK CFI 4c39c .cfa: x29 32 + x19: .cfa -16 + ^ .ra: .cfa -24 + ^ x29: .cfa -32 + ^
STACK CFI INIT 4c470 164 .cfa: sp 0 +
STACK CFI 4c488 .cfa: x29 64 + x19: .cfa -8 + ^ x20: .cfa -16 + ^ x21: .cfa -24 + ^ x22: .cfa -32 + ^ x23: .cfa -40 + ^ x28: .cfa -48 + ^ .ra: .cfa -56 + ^ x29: .cfa -64 + ^
STACK CFI INIT 4c5d8 74 .cfa: sp 0 +
STACK CFI 4c5e4 .cfa: x29 32 + x19: .cfa -8 + ^ x20: .cfa -16 + ^ .ra: .cfa -24 + ^ x29: .cfa -32 + ^
STACK CFI INIT 4c650 5c .cfa: sp 0 +
STACK CFI 4c660 .cfa: x29 48 + x19: .cfa -8 + ^ x20: .cfa -16 + ^ x21: .cfa -32 + ^ .ra: .cfa -40 + ^ x29: .cfa -48 + ^
STACK CFI INIT 4c6b0 30 .cfa: sp 0 +
STACK CFI 4c6bc .cfa: x29 32 + x19: .cfa -16 + ^ .ra: .cfa -24 + ^ x29: .cfa -32 + ^
STACK CFI INIT 4c6e0 8c .cfa: sp 0 +
STACK CFI 4c6ec .cfa: x29 32 + x19: .cfa -8 + ^ x20: .cfa -16 + ^ .ra: .cfa -24 + ^ x29: .cfa -32 + ^
STACK CFI INIT 4c770 4 .cfa: sp 0 +
STACK CFI INIT 4c778 f0 .cfa: sp 0 +
STACK CFI 4c788 .cfa: x29 48 + x19: .cfa -8 + ^ x20: .cfa -16 + ^ x21: .cfa -24 + ^ x22: .cfa -32 + ^ .ra: .cfa -40 + ^ x29: .cfa -48 + ^
STACK CFI INIT 4c868 190 .cfa: sp 0 +
STACK CFI 4c884 .cfa: x29 80 + x19: .cfa -8 + ^ x20: .cfa -16 + ^ x21: .cfa -24 + ^ x22: .cfa -32 + ^ x23: .cfa -40 + ^ x24: .cfa -48 + ^ x28: .cfa -64 + ^ .ra: .cfa -72 + ^ x29: .cfa -80 + ^
STACK CFI INIT 4c9f8 cc .cfa: sp 0 +
STACK CFI 4ca0c .cfa: x29 48 + x19: .cfa -8 + ^ x20: .cfa -16 + ^ x21: .cfa -32 + ^ .ra: .cfa -40 + ^ x29: .cfa -48 + ^
STACK CFI INIT 4cac8 88 .cfa: sp 0 +
STACK CFI 4cadc .cfa: x29 64 + x19: .cfa -8 + ^ x20: .cfa -16 + ^ x21: .cfa -24 + ^ x22: .cfa -32 + ^ x23: .cfa -48 + ^ .ra: .cfa -56 + ^ x29: .cfa -64 + ^
STACK CFI INIT 4cb50 54 .cfa: sp 0 +
STACK CFI 4cb60 .cfa: x29 48 + x19: .cfa -8 + ^ x20: .cfa -16 + ^ x21: .cfa -32 + ^ .ra: .cfa -40 + ^ x29: .cfa -48 + ^
STACK CFI INIT 4cba8 a4 .cfa: sp 0 +
STACK CFI 4cbb8 .cfa: x29 48 + x19: .cfa -8 + ^ x20: .cfa -16 + ^ x21: .cfa -32 + ^ .ra: .cfa -40 + ^ x29: .cfa -48 + ^
STACK CFI INIT 4cc50 14 .cfa: sp 0 +
STACK CFI INIT 4cc68 34 .cfa: sp 0 +
STACK CFI 4cc74 .cfa: x29 32 + x19: .cfa -16 + ^ .ra: .cfa -24 + ^ x29: .cfa -32 + ^
STACK CFI INIT 4cca0 8 .cfa: sp 0 +
STACK CFI INIT 4cca8 158 .cfa: sp 0 +
STACK CFI 4ccb8 .cfa: x29 48 + x19: .cfa -8 + ^ x20: .cfa -16 + ^ x21: .cfa -24 + ^ x22: .cfa -32 + ^ .ra: .cfa -40 + ^ x29: .cfa -48 + ^
STACK CFI INIT 4ce00 104 .cfa: sp 0 +
STACK CFI 4ce14 .cfa: x29 48 + x19: .cfa -8 + ^ x20: .cfa -16 + ^ x21: .cfa -32 + ^ .ra: .cfa -40 + ^ x29: .cfa -48 + ^
STACK CFI INIT 4cf08 4c .cfa: sp 0 +
STACK CFI 4cf14 .cfa: x29 32 + x19: .cfa -8 + ^ x20: .cfa -16 + ^ .ra: .cfa -24 + ^ x29: .cfa -32 + ^
STACK CFI INIT 4cf58 160 .cfa: sp 0 +
STACK CFI 4cf70 .cfa: x29 80 + x19: .cfa -8 + ^ x20: .cfa -16 + ^ x21: .cfa -24 + ^ x22: .cfa -32 + ^ x23: .cfa -40 + ^ x24: .cfa -48 + ^ x25: .cfa -64 + ^ .ra: .cfa -72 + ^ x29: .cfa -80 + ^
STACK CFI INIT 4d0b8 25c .cfa: sp 0 +
STACK CFI 4d0d8 .cfa: x29 96 + x19: .cfa -8 + ^ x20: .cfa -16 + ^ x21: .cfa -24 + ^ x22: .cfa -32 + ^ x23: .cfa -40 + ^ x24: .cfa -48 + ^ x25: .cfa -56 + ^ x26: .cfa -64 + ^ x27: .cfa -72 + ^ x28: .cfa -80 + ^ .ra: .cfa -88 + ^ x29: .cfa -96 + ^
STACK CFI INIT 4d318 118 .cfa: sp 0 +
STACK CFI 4d32c .cfa: x29 64 + x19: .cfa -8 + ^ x20: .cfa -16 + ^ x21: .cfa -24 + ^ x22: .cfa -32 + ^ x23: .cfa -48 + ^ .ra: .cfa -56 + ^ x29: .cfa -64 + ^
STACK CFI INIT 4d430 50 .cfa: sp 0 +
STACK CFI 4d440 .cfa: x29 48 + x19: .cfa -8 + ^ x20: .cfa -16 + ^ x21: .cfa -32 + ^ .ra: .cfa -40 + ^ x29: .cfa -48 + ^
STACK CFI INIT 4d480 34 .cfa: sp 0 +
STACK CFI 4d488 .cfa: x29 16 + .ra: .cfa -8 + ^ x29: .cfa -16 + ^
STACK CFI INIT 4d4b8 14 .cfa: sp 0 +
STACK CFI INIT 4d4d0 6c .cfa: sp 0 +
STACK CFI 4d4e4 .cfa: x29 64 + x19: .cfa -8 + ^ x20: .cfa -16 + ^ x21: .cfa -24 + ^ x22: .cfa -32 + ^ x23: .cfa -48 + ^ .ra: .cfa -56 + ^ x29: .cfa -64 + ^
STACK CFI INIT 4d540 74 .cfa: sp 0 +
STACK CFI 4d550 .cfa: x29 48 + x19: .cfa -8 + ^ x20: .cfa -16 + ^ x21: .cfa -24 + ^ x22: .cfa -32 + ^ .ra: .cfa -40 + ^ x29: .cfa -48 + ^
STACK CFI INIT 4d5b8 190 .cfa: sp 0 +
STACK CFI 4d5d0 .cfa: x29 64 + x19: .cfa -8 + ^ x20: .cfa -16 + ^ x21: .cfa -24 + ^ x22: .cfa -32 + ^ x23: .cfa -40 + ^ x24: .cfa -48 + ^ .ra: .cfa -56 + ^ x29: .cfa -64 + ^
STACK CFI INIT 4d748 9c .cfa: sp 0 +
STACK CFI 4d758 .cfa: x29 48 + x19: .cfa -8 + ^ x20: .cfa -16 + ^ x21: .cfa -24 + ^ x22: .cfa -32 + ^ .ra: .cfa -40 + ^ x29: .cfa -48 + ^
STACK CFI INIT 4d7e8 40 .cfa: sp 0 +
STACK CFI 4d7f0 .cfa: x29 16 + .ra: .cfa -8 + ^ x29: .cfa -16 + ^
STACK CFI INIT 4d828 68 .cfa: sp 0 +
STACK CFI 4d834 .cfa: x29 32 + x19: .cfa -16 + ^ .ra: .cfa -24 + ^ x29: .cfa -32 + ^
STACK CFI INIT 4d890 12c .cfa: sp 0 +
STACK CFI 4d8a8 .cfa: x29 80 + x19: .cfa -8 + ^ x20: .cfa -16 + ^ x21: .cfa -24 + ^ x22: .cfa -32 + ^ x23: .cfa -40 + ^ x24: .cfa -48 + ^ x25: .cfa -56 + ^ x26: .cfa -64 + ^ .ra: .cfa -72 + ^ x29: .cfa -80 + ^
STACK CFI INIT 4d9c0 13c .cfa: sp 0 +
STACK CFI 4d9e0 .cfa: x29 96 + x19: .cfa -8 + ^ x20: .cfa -16 + ^ x21: .cfa -24 + ^ x22: .cfa -32 + ^ x23: .cfa -40 + ^ x24: .cfa -48 + ^ x25: .cfa -56 + ^ x26: .cfa -64 + ^ x27: .cfa -72 + ^ x28: .cfa -80 + ^ .ra: .cfa -88 + ^ x29: .cfa -96 + ^
STACK CFI INIT 4db00 98 .cfa: sp 0 +
STACK CFI 4db10 .cfa: x29 48 + x19: .cfa -8 + ^ x20: .cfa -16 + ^ x21: .cfa -32 + ^ .ra: .cfa -40 + ^ x29: .cfa -48 + ^
STACK CFI INIT 4db98 174 .cfa: sp 0 +
STACK CFI 4dbac .cfa: x29 64 + x19: .cfa -8 + ^ x20: .cfa -16 + ^ x21: .cfa -24 + ^ x22: .cfa -32 + ^ x23: .cfa -40 + ^ x24: .cfa -48 + ^ .ra: .cfa -56 + ^ x29: .cfa -64 + ^
STACK CFI INIT 4dd10 138 .cfa: sp 0 +
STACK CFI 4dd24 .cfa: x29 64 + x19: .cfa -8 + ^ x20: .cfa -16 + ^ x21: .cfa -24 + ^ x22: .cfa -32 + ^ x23: .cfa -40 + ^ x24: .cfa -48 + ^ .ra: .cfa -56 + ^ x29: .cfa -64 + ^
STACK CFI INIT 4de48 b4 .cfa: sp 0 +
STACK CFI 4de5c .cfa: x29 64 + x19: .cfa -8 + ^ x20: .cfa -16 + ^ x21: .cfa -24 + ^ x22: .cfa -32 + ^ x23: .cfa -48 + ^ .ra: .cfa -56 + ^ x29: .cfa -64 + ^
STACK CFI INIT 4df00 e4 .cfa: sp 0 +
STACK CFI 4df18 .cfa: x29 80 + x19: .cfa -8 + ^ x20: .cfa -16 + ^ x21: .cfa -24 + ^ x22: .cfa -32 + ^ x23: .cfa -40 + ^ x24: .cfa -48 + ^ x25: .cfa -64 + ^ .ra: .cfa -72 + ^ x29: .cfa -80 + ^
STACK CFI INIT 4dfe8 78 .cfa: sp 0 +
STACK CFI 4dff8 .cfa: x29 32 + x19: .cfa -16 + ^ .ra: .cfa -24 + ^ x29: .cfa -32 + ^
STACK CFI INIT 4e060 38 .cfa: sp 0 +
STACK CFI 4e068 .cfa: x29 16 + .ra: .cfa -8 + ^ x29: .cfa -16 + ^
STACK CFI INIT 4e098 1c .cfa: sp 0 +
STACK CFI INIT 4e0b8 34 .cfa: sp 0 +
STACK CFI 4e0c4 .cfa: x29 32 + x19: .cfa -16 + ^ .ra: .cfa -24 + ^ x29: .cfa -32 + ^
STACK CFI INIT 4e0f0 8 .cfa: sp 0 +
STACK CFI INIT 4e0f8 8 .cfa: sp 0 +
STACK CFI INIT 4e100 38 .cfa: sp 0 +
STACK CFI 4e10c .cfa: x29 32 + x19: .cfa -16 + ^ .ra: .cfa -24 + ^ x29: .cfa -32 + ^
STACK CFI INIT 4e138 4 .cfa: sp 0 +
STACK CFI INIT 4e140 8 .cfa: sp 0 +
STACK CFI INIT 4e148 e0 .cfa: sp 0 +
STACK CFI 4e160 .cfa: x29 64 + x19: .cfa -8 + ^ x20: .cfa -16 + ^ x21: .cfa -24 + ^ x22: .cfa -32 + ^ x23: .cfa -40 + ^ x24: .cfa -48 + ^ .ra: .cfa -56 + ^ x29: .cfa -64 + ^
STACK CFI INIT 4e228 c .cfa: sp 0 +
STACK CFI INIT 4e238 c .cfa: sp 0 +
STACK CFI INIT 4e248 c .cfa: sp 0 +
STACK CFI INIT 4e258 20 .cfa: sp 0 +
STACK CFI 4e260 .cfa: x29 16 + .ra: .cfa -8 + ^ x29: .cfa -16 + ^
STACK CFI INIT 4e278 e0 .cfa: sp 0 +
STACK CFI 4e290 .cfa: x29 64 + x19: .cfa -8 + ^ x20: .cfa -16 + ^ x21: .cfa -24 + ^ x22: .cfa -32 + ^ x23: .cfa -40 + ^ x24: .cfa -48 + ^ .ra: .cfa -56 + ^ x29: .cfa -64 + ^
STACK CFI INIT 4e358 5c .cfa: sp 0 +
STACK CFI 4e360 .cfa: x29 16 + .ra: .cfa -8 + ^ x29: .cfa -16 + ^
STACK CFI INIT 4e3b8 8c .cfa: sp 0 +
STACK CFI 4e3c8 .cfa: x29 32 + x19: .cfa -16 + ^ .ra: .cfa -24 + ^ x29: .cfa -32 + ^
STACK CFI INIT 4e448 28 .cfa: sp 0 +
STACK CFI INIT 4e470 10 .cfa: sp 0 +
STACK CFI INIT 4e480 2c .cfa: sp 0 +
STACK CFI 4e48c .cfa: x29 32 + x19: .cfa -16 + ^ .ra: .cfa -24 + ^ x29: .cfa -32 + ^
STACK CFI INIT 4e4b0 8 .cfa: sp 0 +
STACK CFI INIT 4e4b8 8 .cfa: sp 0 +
STACK CFI INIT 4e4c0 13c .cfa: sp 0 +
STACK CFI 4e4d8 .cfa: x29 64 + x19: .cfa -8 + ^ x20: .cfa -16 + ^ x21: .cfa -24 + ^ x22: .cfa -32 + ^ x23: .cfa -48 + ^ .ra: .cfa -56 + ^ x29: .cfa -64 + ^
STACK CFI INIT 4e600 8 .cfa: sp 0 +
STACK CFI INIT 4e608 18 .cfa: sp 0 +
STACK CFI INIT 4e620 5c .cfa: sp 0 +
STACK CFI 4e630 .cfa: x29 32 + x19: .cfa -16 + ^ .ra: .cfa -24 + ^ x29: .cfa -32 + ^
STACK CFI INIT 4e680 58 .cfa: sp 0 +
STACK CFI 4e690 .cfa: x29 32 + x19: .cfa -16 + ^ .ra: .cfa -24 + ^ x29: .cfa -32 + ^
STACK CFI INIT 4e6d8 22c .cfa: sp 0 +
STACK CFI 4e6f4 .cfa: x29 80 + x19: .cfa -8 + ^ x20: .cfa -16 + ^ x21: .cfa -24 + ^ x22: .cfa -32 + ^ x23: .cfa -40 + ^ x24: .cfa -48 + ^ x25: .cfa -56 + ^ x26: .cfa -64 + ^ .ra: .cfa -72 + ^ x29: .cfa -80 + ^
STACK CFI INIT 4e908 24 .cfa: sp 0 +
STACK CFI 4e910 .cfa: x29 16 + .ra: .cfa -8 + ^ x29: .cfa -16 + ^
STACK CFI INIT 4e930 28 .cfa: sp 0 +
STACK CFI 4e938 .cfa: x29 16 + .ra: .cfa -8 + ^ x29: .cfa -16 + ^
STACK CFI INIT 4e958 8 .cfa: sp 0 +
STACK CFI INIT 4e960 138 .cfa: sp 0 +
STACK CFI 4e970 .cfa: x29 48 + x19: .cfa -8 + ^ x20: .cfa -16 + ^ x21: .cfa -32 + ^ .ra: .cfa -40 + ^ x29: .cfa -48 + ^
STACK CFI INIT 4ea98 e8 .cfa: sp 0 +
STACK CFI 4eaa4 .cfa: x29 32 + x19: .cfa -8 + ^ x20: .cfa -16 + ^ .ra: .cfa -24 + ^ x29: .cfa -32 + ^
STACK CFI INIT 4eb80 130 .cfa: sp 0 +
STACK CFI 4eb90 .cfa: x29 48 + x19: .cfa -8 + ^ x20: .cfa -16 + ^ x21: .cfa -32 + ^ .ra: .cfa -40 + ^ x29: .cfa -48 + ^
STACK CFI INIT 4ecb0 dc .cfa: sp 0 +
STACK CFI 4ecc0 .cfa: x29 48 + x19: .cfa -8 + ^ x20: .cfa -16 + ^ x21: .cfa -32 + ^ .ra: .cfa -40 + ^ x29: .cfa -48 + ^
STACK CFI INIT 4ed90 10 .cfa: sp 0 +
STACK CFI INIT 4eda0 124 .cfa: sp 0 +
STACK CFI 4eda8 .cfa: x29 16 + .ra: .cfa -8 + ^ x29: .cfa -16 + ^
STACK CFI INIT 4eec8 40 .cfa: sp 0 +
STACK CFI INIT 4ef08 164 .cfa: sp 0 +
STACK CFI 4ef10 .cfa: x29 16 + .ra: .cfa -8 + ^ x29: .cfa -16 + ^
STACK CFI INIT 4f070 f8 .cfa: sp 0 +
STACK CFI 4f080 .cfa: x29 48 + x19: .cfa -8 + ^ x20: .cfa -16 + ^ x21: .cfa -24 + ^ x22: .cfa -32 + ^ .ra: .cfa -40 + ^ x29: .cfa -48 + ^
STACK CFI INIT 4f168 e4 .cfa: sp 0 +
STACK CFI 4f184 .cfa: x29 80 + x19: .cfa -8 + ^ x20: .cfa -16 + ^ x21: .cfa -24 + ^ x22: .cfa -32 + ^ x23: .cfa -40 + ^ x24: .cfa -48 + ^ x25: .cfa -64 + ^ .ra: .cfa -72 + ^ x29: .cfa -80 + ^
STACK CFI INIT 4f250 d8 .cfa: sp 0 +
STACK CFI 4f268 .cfa: x29 64 + x19: .cfa -8 + ^ x20: .cfa -16 + ^ x21: .cfa -24 + ^ x22: .cfa -32 + ^ x23: .cfa -40 + ^ x24: .cfa -48 + ^ .ra: .cfa -56 + ^ x29: .cfa -64 + ^
STACK CFI INIT 4f328 38 .cfa: sp 0 +
STACK CFI 4f334 .cfa: x29 32 + x19: .cfa -16 + ^ .ra: .cfa -24 + ^ x29: .cfa -32 + ^
STACK CFI INIT 4f360 5c .cfa: sp 0 +
STACK CFI 4f370 .cfa: x29 48 + x19: .cfa -8 + ^ x20: .cfa -16 + ^ x21: .cfa -24 + ^ x22: .cfa -32 + ^ .ra: .cfa -40 + ^ x29: .cfa -48 + ^
STACK CFI INIT 4f3c0 14c .cfa: sp 0 +
STACK CFI 4f3dc .cfa: x29 80 + x19: .cfa -8 + ^ x20: .cfa -16 + ^ x21: .cfa -24 + ^ x22: .cfa -32 + ^ x23: .cfa -40 + ^ x24: .cfa -48 + ^ x25: .cfa -64 + ^ .ra: .cfa -72 + ^ x29: .cfa -80 + ^
STACK CFI INIT 4f510 108 .cfa: sp 0 +
STACK CFI 4f524 .cfa: x29 64 + x19: .cfa -8 + ^ x20: .cfa -16 + ^ x21: .cfa -24 + ^ x22: .cfa -32 + ^ x23: .cfa -48 + ^ .ra: .cfa -56 + ^ x29: .cfa -64 + ^
STACK CFI INIT 4f618 49c .cfa: sp 0 +
STACK CFI 4f638 .cfa: x29 96 + x19: .cfa -8 + ^ x20: .cfa -16 + ^ x21: .cfa -24 + ^ x22: .cfa -32 + ^ x23: .cfa -40 + ^ x24: .cfa -48 + ^ x25: .cfa -56 + ^ x26: .cfa -64 + ^ x27: .cfa -72 + ^ x28: .cfa -80 + ^ .ra: .cfa -88 + ^ x29: .cfa -96 + ^
STACK CFI INIT 4fab8 40c .cfa: sp 0 +
STACK CFI 4fad4 .cfa: x29 96 + x19: .cfa -8 + ^ x20: .cfa -16 + ^ x21: .cfa -24 + ^ x22: .cfa -32 + ^ x23: .cfa -40 + ^ x24: .cfa -48 + ^ x25: .cfa -56 + ^ x26: .cfa -64 + ^ x27: .cfa -80 + ^ .ra: .cfa -88 + ^ x29: .cfa -96 + ^
STACK CFI INIT 4fec8 10 .cfa: sp 0 +
STACK CFI INIT 4fed8 30 .cfa: sp 0 +
STACK CFI 4fee4 .cfa: x29 32 + x19: .cfa -16 + ^ .ra: .cfa -24 + ^ x29: .cfa -32 + ^
STACK CFI INIT 4ff08 28 .cfa: sp 0 +
STACK CFI INIT 4ff30 3c .cfa: sp 0 +
STACK CFI INIT 4ff70 3c .cfa: sp 0 +
STACK CFI INIT 4ffb0 30 .cfa: sp 0 +
STACK CFI INIT 4ffe0 e8 .cfa: sp 0 +
STACK CFI 4fff4 .cfa: x29 48 + x19: .cfa -8 + ^ x20: .cfa -16 + ^ x21: .cfa -32 + ^ .ra: .cfa -40 + ^ x29: .cfa -48 + ^
STACK CFI INIT 500c8 4c .cfa: sp 0 +
STACK CFI 500d4 .cfa: x29 32 + x19: .cfa -16 + ^ .ra: .cfa -24 + ^ x29: .cfa -32 + ^
STACK CFI INIT 50118 94 .cfa: sp 0 +
STACK CFI 50128 .cfa: x29 48 + x19: .cfa -8 + ^ x20: .cfa -16 + ^ x21: .cfa -32 + ^ .ra: .cfa -40 + ^ x29: .cfa -48 + ^
STACK CFI INIT 501b0 f0 .cfa: sp 0 +
STACK CFI 501c0 .cfa: x29 48 + x19: .cfa -8 + ^ x20: .cfa -16 + ^ x21: .cfa -32 + ^ .ra: .cfa -40 + ^ x29: .cfa -48 + ^
STACK CFI INIT 502a0 10c .cfa: sp 0 +
STACK CFI 502b0 .cfa: x29 48 + x19: .cfa -8 + ^ x20: .cfa -16 + ^ x21: .cfa -32 + ^ .ra: .cfa -40 + ^ x29: .cfa -48 + ^
STACK CFI INIT 503b0 18 .cfa: sp 0 +
STACK CFI INIT 503c8 20 .cfa: sp 0 +
STACK CFI INIT 503e8 34 .cfa: sp 0 +
STACK CFI INIT 50420 8c .cfa: sp 0 +
STACK CFI 50430 .cfa: x29 32 + x19: .cfa -16 + ^ .ra: .cfa -24 + ^ x29: .cfa -32 + ^
STACK CFI INIT 504b0 64 .cfa: sp 0 +
STACK CFI 504c0 .cfa: x29 48 + x19: .cfa -8 + ^ x20: .cfa -16 + ^ x21: .cfa -24 + ^ x22: .cfa -32 + ^ .ra: .cfa -40 + ^ x29: .cfa -48 + ^
STACK CFI INIT 50518 74 .cfa: sp 0 +
STACK CFI 5053c .cfa: x29 64 + x19: .cfa -8 + ^ x20: .cfa -16 + ^ x21: .cfa -24 + ^ x22: .cfa -32 + ^ x23: .cfa -40 + ^ x24: .cfa -48 + ^ .ra: .cfa -56 + ^ x29: .cfa -64 + ^
STACK CFI INIT 50590 48 .cfa: sp 0 +
STACK CFI 505a0 .cfa: x29 48 + x19: .cfa -8 + ^ x20: .cfa -16 + ^ x21: .cfa -32 + ^ .ra: .cfa -40 + ^ x29: .cfa -48 + ^
STACK CFI INIT 505d8 244 .cfa: sp 0 +
STACK CFI 505f0 .cfa: x29 64 + x19: .cfa -8 + ^ x20: .cfa -16 + ^ x21: .cfa -24 + ^ x22: .cfa -32 + ^ x23: .cfa -40 + ^ x28: .cfa -48 + ^ .ra: .cfa -56 + ^ x29: .cfa -64 + ^
STACK CFI INIT 50820 1c .cfa: sp 0 +
STACK CFI INIT 50840 14 .cfa: sp 0 +
STACK CFI INIT 50858 18 .cfa: sp 0 +
STACK CFI INIT 50870 18 .cfa: sp 0 +
STACK CFI INIT 50888 10 .cfa: sp 0 +
STACK CFI INIT 50898 10 .cfa: sp 0 +
STACK CFI INIT 508a8 10 .cfa: sp 0 +
STACK CFI INIT 508b8 10 .cfa: sp 0 +
STACK CFI INIT 508c8 1c .cfa: sp 0 +
STACK CFI INIT 508e8 1c .cfa: sp 0 +
STACK CFI INIT 50908 10 .cfa: sp 0 +
STACK CFI INIT 50918 24 .cfa: sp 0 +
STACK CFI INIT 50940 8 .cfa: sp 0 +
STACK CFI INIT 50948 14 .cfa: sp 0 +
STACK CFI INIT 50960 8 .cfa: sp 0 +
STACK CFI INIT 50968 14 .cfa: sp 0 +
STACK CFI INIT 50980 c .cfa: sp 0 +
STACK CFI INIT 50990 8 .cfa: sp 0 +
STACK CFI INIT 50998 1c .cfa: sp 0 +
STACK CFI INIT 509b8 14 .cfa: sp 0 +
STACK CFI INIT 509d0 18 .cfa: sp 0 +
STACK CFI INIT 509e8 18 .cfa: sp 0 +
STACK CFI INIT 50a00 10 .cfa: sp 0 +
STACK CFI INIT 50a10 10 .cfa: sp 0 +
STACK CFI INIT 50a20 10 .cfa: sp 0 +
STACK CFI INIT 50a30 10 .cfa: sp 0 +
STACK CFI INIT 50a40 1c .cfa: sp 0 +
STACK CFI INIT 50a60 1c .cfa: sp 0 +
STACK CFI INIT 50a80 10 .cfa: sp 0 +
STACK CFI INIT 50a90 24 .cfa: sp 0 +
STACK CFI INIT 50ab8 14 .cfa: sp 0 +
STACK CFI INIT 50ad0 14 .cfa: sp 0 +
STACK CFI INIT 50ae8 24 .cfa: sp 0 +
STACK CFI 50af0 .cfa: x29 16 + .ra: .cfa -8 + ^ x29: .cfa -16 + ^
STACK CFI INIT 50b10 80 .cfa: sp 0 +
STACK CFI 50b20 .cfa: x29 32 + x28: .cfa -16 + ^ .ra: .cfa -24 + ^ x29: .cfa -32 + ^
STACK CFI INIT 50b90 e4 .cfa: sp 0 +
STACK CFI 50ba4 .cfa: x29 48 + x19: .cfa -8 + ^ x20: .cfa -16 + ^ x21: .cfa -32 + ^ .ra: .cfa -40 + ^ x29: .cfa -48 + ^
STACK CFI INIT 50c78 80 .cfa: sp 0 +
STACK CFI 50c84 .cfa: x29 32 + x19: .cfa -8 + ^ x20: .cfa -16 + ^ .ra: .cfa -24 + ^ x29: .cfa -32 + ^
STACK CFI INIT 50cf8 c8 .cfa: sp 0 +
STACK CFI 50d08 .cfa: x29 48 + x19: .cfa -8 + ^ x20: .cfa -16 + ^ x21: .cfa -24 + ^ x22: .cfa -32 + ^ .ra: .cfa -40 + ^ x29: .cfa -48 + ^
STACK CFI INIT 50dc0 120 .cfa: sp 0 +
STACK CFI 50dd8 .cfa: x29 80 + x19: .cfa -8 + ^ x20: .cfa -16 + ^ x21: .cfa -24 + ^ x22: .cfa -32 + ^ x23: .cfa -40 + ^ x24: .cfa -48 + ^ x25: .cfa -56 + ^ x26: .cfa -64 + ^ .ra: .cfa -72 + ^ x29: .cfa -80 + ^
STACK CFI INIT 50ee0 68 .cfa: sp 0 +
STACK CFI 50eec .cfa: x29 32 + x19: .cfa -8 + ^ x20: .cfa -16 + ^ .ra: .cfa -24 + ^ x29: .cfa -32 + ^
STACK CFI INIT 50f48 54 .cfa: sp 0 +
STACK CFI 50f54 .cfa: x29 32 + x19: .cfa -8 + ^ x20: .cfa -16 + ^ .ra: .cfa -24 + ^ x29: .cfa -32 + ^
STACK CFI INIT 50fa0 68 .cfa: sp 0 +
STACK CFI 50fb0 .cfa: x29 48 + x19: .cfa -8 + ^ x20: .cfa -16 + ^ x21: .cfa -32 + ^ .ra: .cfa -40 + ^ x29: .cfa -48 + ^
STACK CFI INIT 51008 24 .cfa: sp 0 +
STACK CFI 51010 .cfa: x29 16 + .ra: .cfa -8 + ^ x29: .cfa -16 + ^
STACK CFI INIT 51030 14 .cfa: sp 0 +
STACK CFI INIT 51048 d8 .cfa: sp 0 +
STACK CFI 51060 .cfa: x29 64 + x19: .cfa -8 + ^ x20: .cfa -16 + ^ x21: .cfa -24 + ^ x22: .cfa -32 + ^ x23: .cfa -40 + ^ x24: .cfa -48 + ^ .ra: .cfa -56 + ^ x29: .cfa -64 + ^
STACK CFI INIT 51120 104 .cfa: sp 0 +
STACK CFI 51138 .cfa: x29 64 + x19: .cfa -8 + ^ x20: .cfa -16 + ^ x21: .cfa -24 + ^ x22: .cfa -32 + ^ x23: .cfa -40 + ^ x24: .cfa -48 + ^ .ra: .cfa -56 + ^ x29: .cfa -64 + ^
STACK CFI INIT 51228 d8 .cfa: sp 0 +
STACK CFI 51240 .cfa: x29 64 + x19: .cfa -8 + ^ x20: .cfa -16 + ^ x21: .cfa -24 + ^ x22: .cfa -32 + ^ x23: .cfa -40 + ^ x24: .cfa -48 + ^ .ra: .cfa -56 + ^ x29: .cfa -64 + ^
STACK CFI INIT 51300 17c .cfa: sp 0 +
STACK CFI 5131c .cfa: x29 80 + x19: .cfa -8 + ^ x20: .cfa -16 + ^ x21: .cfa -24 + ^ x22: .cfa -32 + ^ x23: .cfa -40 + ^ x24: .cfa -48 + ^ x28: .cfa -64 + ^ .ra: .cfa -72 + ^ x29: .cfa -80 + ^
STACK CFI INIT 51480 1d0 .cfa: sp 0 +
STACK CFI 514a0 .cfa: x29 96 + x19: .cfa -8 + ^ x20: .cfa -16 + ^ x21: .cfa -24 + ^ x22: .cfa -32 + ^ x23: .cfa -40 + ^ x24: .cfa -48 + ^ x25: .cfa -56 + ^ x26: .cfa -64 + ^ x28: .cfa -80 + ^ .ra: .cfa -88 + ^ x29: .cfa -96 + ^
STACK CFI INIT 51650 d8 .cfa: sp 0 +
STACK CFI 51668 .cfa: x29 64 + x19: .cfa -8 + ^ x20: .cfa -16 + ^ x21: .cfa -24 + ^ x22: .cfa -32 + ^ x23: .cfa -40 + ^ x24: .cfa -48 + ^ .ra: .cfa -56 + ^ x29: .cfa -64 + ^
STACK CFI INIT 51728 20 .cfa: sp 0 +
STACK CFI 51730 .cfa: x29 16 + .ra: .cfa -8 + ^ x29: .cfa -16 + ^
STACK CFI INIT 51748 58 .cfa: sp 0 +
STACK CFI 51758 .cfa: x29 32 + x19: .cfa -16 + ^ .ra: .cfa -24 + ^ x29: .cfa -32 + ^
STACK CFI INIT 517a0 a4 .cfa: sp 0 +
STACK CFI 517b0 .cfa: x29 32 + x19: .cfa -8 + ^ x28: .cfa -16 + ^ .ra: .cfa -24 + ^ x29: .cfa -32 + ^
STACK CFI INIT 51848 1ac .cfa: sp 0 +
STACK CFI 51864 .cfa: x29 80 + x19: .cfa -8 + ^ x20: .cfa -16 + ^ x21: .cfa -24 + ^ x22: .cfa -32 + ^ x23: .cfa -40 + ^ x24: .cfa -48 + ^ x25: .cfa -64 + ^ .ra: .cfa -72 + ^ x29: .cfa -80 + ^
STACK CFI INIT 519f8 a4 .cfa: sp 0 +
STACK CFI 51a08 .cfa: x29 32 + x19: .cfa -8 + ^ x28: .cfa -16 + ^ .ra: .cfa -24 + ^ x29: .cfa -32 + ^
STACK CFI INIT 51aa0 a4 .cfa: sp 0 +
STACK CFI 51ab0 .cfa: x29 32 + x19: .cfa -8 + ^ x28: .cfa -16 + ^ .ra: .cfa -24 + ^ x29: .cfa -32 + ^
STACK CFI INIT 51b48 10 .cfa: sp 0 +
STACK CFI INIT 51b58 10 .cfa: sp 0 +
STACK CFI INIT 51b68 2ac .cfa: sp 0 +
STACK CFI 51b88 .cfa: x29 96 + x19: .cfa -8 + ^ x20: .cfa -16 + ^ x21: .cfa -24 + ^ x22: .cfa -32 + ^ x23: .cfa -40 + ^ x24: .cfa -48 + ^ x25: .cfa -56 + ^ x26: .cfa -64 + ^ x27: .cfa -72 + ^ x28: .cfa -80 + ^ .ra: .cfa -88 + ^ x29: .cfa -96 + ^
STACK CFI INIT 51e18 cc .cfa: sp 0 +
STACK CFI 51e30 .cfa: x29 64 + x19: .cfa -8 + ^ x20: .cfa -16 + ^ x21: .cfa -24 + ^ x22: .cfa -32 + ^ x23: .cfa -40 + ^ x24: .cfa -48 + ^ .ra: .cfa -56 + ^ x29: .cfa -64 + ^
STACK CFI INIT 51ee8 8c .cfa: sp 0 +
STACK CFI 51efc .cfa: x29 48 + x19: .cfa -8 + ^ x20: .cfa -16 + ^ x21: .cfa -32 + ^ .ra: .cfa -40 + ^ x29: .cfa -48 + ^
STACK CFI INIT 51f78 ac .cfa: sp 0 +
STACK CFI 51f88 .cfa: x29 32 + x19: .cfa -8 + ^ x28: .cfa -16 + ^ .ra: .cfa -24 + ^ x29: .cfa -32 + ^
STACK CFI INIT 52028 3c .cfa: sp 0 +
STACK CFI 52030 .cfa: x29 16 + .ra: .cfa -8 + ^ x29: .cfa -16 + ^
STACK CFI INIT 52068 e8 .cfa: sp 0 +
STACK CFI 52080 .cfa: x29 64 + x19: .cfa -8 + ^ x20: .cfa -16 + ^ x21: .cfa -24 + ^ x22: .cfa -32 + ^ x23: .cfa -48 + ^ .ra: .cfa -56 + ^ x29: .cfa -64 + ^
STACK CFI INIT 52150 98 .cfa: sp 0 +
STACK CFI 52160 .cfa: x29 48 + x19: .cfa -8 + ^ x20: .cfa -16 + ^ x21: .cfa -24 + ^ x22: .cfa -32 + ^ .ra: .cfa -40 + ^ x29: .cfa -48 + ^
STACK CFI INIT 521e8 1d4 .cfa: sp 0 +
STACK CFI 52204 .cfa: x29 80 + x19: .cfa -8 + ^ x20: .cfa -16 + ^ x21: .cfa -24 + ^ x22: .cfa -32 + ^ x23: .cfa -40 + ^ x24: .cfa -48 + ^ x28: .cfa -64 + ^ .ra: .cfa -72 + ^ x29: .cfa -80 + ^
STACK CFI INIT 523c0 8 .cfa: sp 0 +
STACK CFI INIT 523c8 7c .cfa: sp 0 +
STACK CFI 523d8 .cfa: x29 32 + x19: .cfa -8 + ^ x20: .cfa -16 + ^ .ra: .cfa -24 + ^ x29: .cfa -32 + ^
STACK CFI INIT 52448 4 .cfa: sp 0 +
STACK CFI INIT 52450 38 .cfa: sp 0 +
STACK CFI 52474 .cfa: x29 16 + .ra: .cfa -8 + ^ x29: .cfa -16 + ^
STACK CFI INIT 52488 e8 .cfa: sp 0 +
STACK CFI INIT 52570 8 .cfa: sp 0 +
STACK CFI INIT 52578 39c .cfa: sp 0 +
STACK CFI 52594 .cfa: x29 80 + x19: .cfa -8 + ^ x20: .cfa -16 + ^ x21: .cfa -24 + ^ x22: .cfa -32 + ^ x23: .cfa -40 + ^ x24: .cfa -48 + ^ x25: .cfa -64 + ^ .ra: .cfa -72 + ^ x29: .cfa -80 + ^
STACK CFI INIT 52918 258 .cfa: sp 0 +
STACK CFI 52938 .cfa: x29 96 + x19: .cfa -8 + ^ x20: .cfa -16 + ^ x21: .cfa -24 + ^ x22: .cfa -32 + ^ x23: .cfa -40 + ^ x24: .cfa -48 + ^ x25: .cfa -56 + ^ x26: .cfa -64 + ^ x27: .cfa -72 + ^ x28: .cfa -80 + ^ .ra: .cfa -88 + ^ x29: .cfa -96 + ^
STACK CFI INIT 52b70 3c .cfa: sp 0 +
STACK CFI 52b7c .cfa: x29 32 + x19: .cfa -16 + ^ .ra: .cfa -24 + ^ x29: .cfa -32 + ^
STACK CFI INIT 52bb0 3a8 .cfa: sp 0 +
STACK CFI 52bc0 .cfa: x29 48 + x19: .cfa -8 + ^ x20: .cfa -16 + ^ x21: .cfa -24 + ^ x22: .cfa -32 + ^ .ra: .cfa -40 + ^ x29: .cfa -48 + ^
STACK CFI INIT 52f58 1c .cfa: sp 0 +
STACK CFI 52f60 .cfa: x29 16 + .ra: .cfa -8 + ^ x29: .cfa -16 + ^
STACK CFI INIT 52f78 4c .cfa: sp 0 +
STACK CFI 52f84 .cfa: x29 32 + x19: .cfa -16 + ^ .ra: .cfa -24 + ^ x29: .cfa -32 + ^
STACK CFI INIT 52fc8 44 .cfa: sp 0 +
STACK CFI 52fd4 .cfa: x29 32 + x19: .cfa -16 + ^ .ra: .cfa -24 + ^ x29: .cfa -32 + ^
STACK CFI INIT 53010 148 .cfa: sp 0 +
STACK CFI 53024 .cfa: x29 48 + x19: .cfa -8 + ^ x20: .cfa -16 + ^ x21: .cfa -32 + ^ .ra: .cfa -40 + ^ x29: .cfa -48 + ^
STACK CFI INIT 53158 cc .cfa: sp 0 +
STACK CFI 53164 .cfa: x29 32 + x19: .cfa -8 + ^ x20: .cfa -16 + ^ .ra: .cfa -24 + ^ x29: .cfa -32 + ^
STACK CFI INIT 53228 1c .cfa: sp 0 +
STACK CFI INIT 53248 2c .cfa: sp 0 +
STACK CFI INIT 53278 44 .cfa: sp 0 +
STACK CFI INIT 532c0 10 .cfa: sp 0 +
STACK CFI INIT 532d0 4 .cfa: sp 0 +
STACK CFI INIT 532d8 14 .cfa: sp 0 +
STACK CFI INIT 532f0 f4 .cfa: sp 0 +
STACK CFI 5330c .cfa: x29 80 + x19: .cfa -8 + ^ x20: .cfa -16 + ^ x21: .cfa -24 + ^ x22: .cfa -32 + ^ x23: .cfa -40 + ^ x24: .cfa -48 + ^ x25: .cfa -64 + ^ .ra: .cfa -72 + ^ x29: .cfa -80 + ^
STACK CFI INIT 533e8 e0 .cfa: sp 0 +
STACK CFI 53400 .cfa: x29 64 + x19: .cfa -8 + ^ x20: .cfa -16 + ^ x21: .cfa -24 + ^ x22: .cfa -32 + ^ x23: .cfa -40 + ^ x24: .cfa -48 + ^ .ra: .cfa -56 + ^ x29: .cfa -64 + ^
STACK CFI INIT 534c8 14 .cfa: sp 0 +
STACK CFI INIT 534e0 18 .cfa: sp 0 +
STACK CFI INIT 534f8 14 .cfa: sp 0 +
STACK CFI INIT 53510 58 .cfa: sp 0 +
STACK CFI INIT 53568 58 .cfa: sp 0 +
STACK CFI INIT 535c0 18 .cfa: sp 0 +
STACK CFI INIT 535d8 18 .cfa: sp 0 +
STACK CFI INIT 535f0 c .cfa: sp 0 +
STACK CFI INIT 53600 c .cfa: sp 0 +
STACK CFI INIT 53610 1c .cfa: sp 0 +
STACK CFI INIT 53630 1c .cfa: sp 0 +
STACK CFI INIT 53650 38 .cfa: sp 0 +
STACK CFI INIT 53688 38 .cfa: sp 0 +
STACK CFI INIT 536c0 a0 .cfa: sp 0 +
STACK CFI 536cc .cfa: x29 16 + .ra: .cfa -8 + ^ x29: .cfa -16 + ^
STACK CFI INIT 53760 40 .cfa: sp 0 +
STACK CFI 5376c .cfa: x29 16 + .ra: .cfa -8 + ^ x29: .cfa -16 + ^
STACK CFI INIT 537a0 20 .cfa: sp 0 +
STACK CFI 537a8 .cfa: x29 16 + .ra: .cfa -8 + ^ x29: .cfa -16 + ^
STACK CFI INIT 537c0 64 .cfa: sp 0 +
STACK CFI 537d0 .cfa: x29 32 + x19: .cfa -16 + ^ .ra: .cfa -24 + ^ x29: .cfa -32 + ^
STACK CFI INIT 53828 84 .cfa: sp 0 +
STACK CFI 53838 .cfa: x29 32 + x19: .cfa -8 + ^ x20: .cfa -16 + ^ .ra: .cfa -24 + ^ x29: .cfa -32 + ^
STACK CFI INIT 538b0 f4 .cfa: sp 0 +
STACK CFI 538cc .cfa: x29 80 + x19: .cfa -8 + ^ x20: .cfa -16 + ^ x21: .cfa -24 + ^ x22: .cfa -32 + ^ x23: .cfa -40 + ^ x24: .cfa -48 + ^ x25: .cfa -56 + ^ x26: .cfa -64 + ^ .ra: .cfa -72 + ^ x29: .cfa -80 + ^
STACK CFI INIT 539a8 10 .cfa: sp 0 +
STACK CFI INIT 539b8 20c .cfa: sp 0 +
STACK CFI 539d8 .cfa: x29 96 + x19: .cfa -8 + ^ x20: .cfa -16 + ^ x21: .cfa -24 + ^ x22: .cfa -32 + ^ x23: .cfa -40 + ^ x24: .cfa -48 + ^ x25: .cfa -56 + ^ x26: .cfa -64 + ^ x27: .cfa -72 + ^ x28: .cfa -80 + ^ .ra: .cfa -88 + ^ x29: .cfa -96 + ^
STACK CFI INIT 53bc8 18 .cfa: sp 0 +
STACK CFI INIT 53be0 10 .cfa: sp 0 +
STACK CFI INIT 53bf0 c8 .cfa: sp 0 +
STACK CFI 53c00 .cfa: x29 48 + x19: .cfa -8 + ^ x20: .cfa -16 + ^ x21: .cfa -24 + ^ x22: .cfa -32 + ^ .ra: .cfa -40 + ^ x29: .cfa -48 + ^
STACK CFI INIT 53cb8 f4 .cfa: sp 0 +
STACK CFI 53cd0 .cfa: x29 64 + x19: .cfa -8 + ^ x20: .cfa -16 + ^ x21: .cfa -24 + ^ x22: .cfa -32 + ^ x28: .cfa -48 + ^ .ra: .cfa -56 + ^ x29: .cfa -64 + ^
STACK CFI INIT 53db0 158 .cfa: sp 0 +
STACK CFI 53dcc .cfa: x29 96 + x19: .cfa -8 + ^ x20: .cfa -16 + ^ x21: .cfa -24 + ^ x22: .cfa -32 + ^ x23: .cfa -40 + ^ x24: .cfa -48 + ^ x25: .cfa -56 + ^ x26: .cfa -64 + ^ x27: .cfa -72 + ^ x28: .cfa -80 + ^ .ra: .cfa -88 + ^ x29: .cfa -96 + ^
STACK CFI INIT 53f08 ec .cfa: sp 0 +
STACK CFI 53f20 .cfa: x29 64 + x19: .cfa -8 + ^ x20: .cfa -16 + ^ x21: .cfa -24 + ^ x22: .cfa -32 + ^ x28: .cfa -48 + ^ .ra: .cfa -56 + ^ x29: .cfa -64 + ^
STACK CFI INIT 53ff8 130 .cfa: sp 0 +
STACK CFI 5400c .cfa: x29 48 + x19: .cfa -8 + ^ x20: .cfa -16 + ^ x21: .cfa -24 + ^ x22: .cfa -32 + ^ .ra: .cfa -40 + ^ x29: .cfa -48 + ^
STACK CFI INIT 54128 8 .cfa: sp 0 +
STACK CFI INIT 54130 8 .cfa: sp 0 +
STACK CFI INIT 54138 24 .cfa: sp 0 +
STACK CFI INIT 54160 20 .cfa: sp 0 +
STACK CFI INIT 54180 24 .cfa: sp 0 +
STACK CFI 54188 .cfa: x29 16 + .ra: .cfa -8 + ^ x29: .cfa -16 + ^
STACK CFI INIT 541a8 4c .cfa: sp 0 +
STACK CFI 541b4 .cfa: x29 32 + x19: .cfa -16 + ^ .ra: .cfa -24 + ^ x29: .cfa -32 + ^
STACK CFI INIT 541f8 84 .cfa: sp 0 +
STACK CFI 54208 .cfa: x29 32 + x19: .cfa -16 + ^ .ra: .cfa -24 + ^ x29: .cfa -32 + ^
STACK CFI INIT 54280 b0 .cfa: sp 0 +
STACK CFI 5428c .cfa: x29 32 + x19: .cfa -8 + ^ x20: .cfa -16 + ^ .ra: .cfa -24 + ^ x29: .cfa -32 + ^
STACK CFI INIT 54330 f4 .cfa: sp 0 +
STACK CFI 5433c .cfa: x29 32 + x19: .cfa -8 + ^ x20: .cfa -16 + ^ .ra: .cfa -24 + ^ x29: .cfa -32 + ^
STACK CFI INIT 54428 1fc .cfa: sp 0 +
STACK CFI 54434 .cfa: x29 32 + x19: .cfa -8 + ^ x20: .cfa -16 + ^ .ra: .cfa -24 + ^ x29: .cfa -32 + ^
STACK CFI INIT 54628 50 .cfa: sp 0 +
STACK CFI INIT 54678 1d0 .cfa: sp 0 +
STACK CFI 54690 .cfa: x29 64 + x19: .cfa -8 + ^ x20: .cfa -16 + ^ x21: .cfa -24 + ^ x22: .cfa -32 + ^ x23: .cfa -40 + ^ x24: .cfa -48 + ^ .ra: .cfa -56 + ^ x29: .cfa -64 + ^
STACK CFI INIT 54848 2c0 .cfa: sp 0 +
STACK CFI 54864 .cfa: x29 80 + x19: .cfa -8 + ^ x20: .cfa -16 + ^ x21: .cfa -24 + ^ x22: .cfa -32 + ^ x23: .cfa -40 + ^ x24: .cfa -48 + ^ x25: .cfa -64 + ^ .ra: .cfa -72 + ^ x29: .cfa -80 + ^
STACK CFI INIT 54b08 50 .cfa: sp 0 +
STACK CFI INIT 54b58 e0 .cfa: sp 0 +
STACK CFI 54b70 .cfa: x29 80 + x19: .cfa -8 + ^ x20: .cfa -16 + ^ x21: .cfa -24 + ^ x22: .cfa -32 + ^ x23: .cfa -40 + ^ x24: .cfa -48 + ^ x25: .cfa -64 + ^ .ra: .cfa -72 + ^ x29: .cfa -80 + ^
STACK CFI INIT 54c38 e0 .cfa: sp 0 +
STACK CFI 54c50 .cfa: x29 80 + x19: .cfa -8 + ^ x20: .cfa -16 + ^ x21: .cfa -24 + ^ x22: .cfa -32 + ^ x23: .cfa -40 + ^ x24: .cfa -48 + ^ x25: .cfa -64 + ^ .ra: .cfa -72 + ^ x29: .cfa -80 + ^
STACK CFI INIT 54d18 28 .cfa: sp 0 +
STACK CFI INIT 54d40 6c .cfa: sp 0 +
STACK CFI 54d48 .cfa: x29 16 + .ra: .cfa -8 + ^ x29: .cfa -16 + ^
STACK CFI INIT 54db0 c0 .cfa: sp 0 +
STACK CFI 54dc0 .cfa: x29 48 + x19: .cfa -8 + ^ x20: .cfa -16 + ^ x21: .cfa -32 + ^ .ra: .cfa -40 + ^ x29: .cfa -48 + ^
STACK CFI INIT 54e70 54 .cfa: sp 0 +
STACK CFI INIT 54ec8 54 .cfa: sp 0 +
STACK CFI INIT 54f20 1d0 .cfa: sp 0 +
STACK CFI 54f34 .cfa: x29 64 + x19: .cfa -8 + ^ x20: .cfa -16 + ^ x21: .cfa -24 + ^ x22: .cfa -32 + ^ x23: .cfa -48 + ^ .ra: .cfa -56 + ^ x29: .cfa -64 + ^
STACK CFI INIT 550f0 d0 .cfa: sp 0 +
STACK CFI 55100 .cfa: x29 48 + x19: .cfa -8 + ^ x20: .cfa -16 + ^ x21: .cfa -32 + ^ .ra: .cfa -40 + ^ x29: .cfa -48 + ^
STACK CFI INIT 551c0 48 .cfa: sp 0 +
STACK CFI INIT 55208 1a8 .cfa: sp 0 +
STACK CFI 55220 .cfa: x29 64 + x19: .cfa -8 + ^ x20: .cfa -16 + ^ x21: .cfa -24 + ^ x22: .cfa -32 + ^ x23: .cfa -40 + ^ x24: .cfa -48 + ^ .ra: .cfa -56 + ^ x29: .cfa -64 + ^
STACK CFI INIT 553b0 124 .cfa: sp 0 +
STACK CFI 553c8 .cfa: x29 80 + x19: .cfa -8 + ^ x20: .cfa -16 + ^ x21: .cfa -24 + ^ x22: .cfa -32 + ^ x23: .cfa -40 + ^ x24: .cfa -48 + ^ x25: .cfa -56 + ^ x26: .cfa -64 + ^ .ra: .cfa -72 + ^ x29: .cfa -80 + ^
STACK CFI INIT 554d8 c8 .cfa: sp 0 +
STACK CFI 554f0 .cfa: x29 80 + x19: .cfa -8 + ^ x20: .cfa -16 + ^ x21: .cfa -24 + ^ x22: .cfa -32 + ^ x23: .cfa -40 + ^ x24: .cfa -48 + ^ x25: .cfa -64 + ^ .ra: .cfa -72 + ^ x29: .cfa -80 + ^
STACK CFI INIT 555a0 4c .cfa: sp 0 +
STACK CFI INIT 555f0 4c .cfa: sp 0 +
STACK CFI INIT 55640 1b0 .cfa: sp 0 +
STACK CFI 55650 .cfa: x29 48 + x19: .cfa -8 + ^ x20: .cfa -16 + ^ x21: .cfa -32 + ^ .ra: .cfa -40 + ^ x29: .cfa -48 + ^
STACK CFI INIT 557f0 cc .cfa: sp 0 +
STACK CFI 557fc .cfa: x29 32 + x19: .cfa -8 + ^ x20: .cfa -16 + ^ .ra: .cfa -24 + ^ x29: .cfa -32 + ^
STACK CFI INIT 558c0 260 .cfa: sp 0 +
STACK CFI 558cc .cfa: x29 32 + x19: .cfa -8 + ^ x20: .cfa -16 + ^ .ra: .cfa -24 + ^ x29: .cfa -32 + ^
STACK CFI INIT 55b20 ac .cfa: sp 0 +
STACK CFI 55b30 .cfa: x29 32 + x19: .cfa -8 + ^ x28: .cfa -16 + ^ .ra: .cfa -24 + ^ x29: .cfa -32 + ^
STACK CFI INIT 55bd0 150 .cfa: sp 0 +
STACK CFI 55be0 .cfa: x29 32 + x19: .cfa -16 + ^ .ra: .cfa -24 + ^ x29: .cfa -32 + ^
STACK CFI INIT 55d20 124 .cfa: sp 0 +
STACK CFI 55d34 .cfa: x29 64 + x19: .cfa -8 + ^ x20: .cfa -16 + ^ x21: .cfa -24 + ^ x22: .cfa -32 + ^ x23: .cfa -40 + ^ x24: .cfa -48 + ^ .ra: .cfa -56 + ^ x29: .cfa -64 + ^
STACK CFI INIT 55e48 1b0 .cfa: sp 0 +
STACK CFI 55e68 .cfa: x29 96 + x19: .cfa -8 + ^ x20: .cfa -16 + ^ x21: .cfa -24 + ^ x22: .cfa -32 + ^ x23: .cfa -40 + ^ x24: .cfa -48 + ^ x25: .cfa -56 + ^ x26: .cfa -64 + ^ x27: .cfa -72 + ^ x28: .cfa -80 + ^ .ra: .cfa -88 + ^ x29: .cfa -96 + ^
STACK CFI INIT 55ff8 10c .cfa: sp 0 +
STACK CFI 56010 .cfa: x29 64 + x19: .cfa -8 + ^ x20: .cfa -16 + ^ x21: .cfa -24 + ^ x22: .cfa -32 + ^ x23: .cfa -48 + ^ .ra: .cfa -56 + ^ x29: .cfa -64 + ^
STACK CFI INIT 56108 14 .cfa: sp 0 +
STACK CFI INIT 56120 234 .cfa: sp 0 +
STACK CFI 56140 .cfa: x29 96 + x19: .cfa -8 + ^ x20: .cfa -16 + ^ x21: .cfa -24 + ^ x22: .cfa -32 + ^ x23: .cfa -40 + ^ x24: .cfa -48 + ^ x25: .cfa -56 + ^ x26: .cfa -64 + ^ x27: .cfa -72 + ^ x28: .cfa -80 + ^ .ra: .cfa -88 + ^ x29: .cfa -96 + ^
STACK CFI INIT 56358 20c .cfa: sp 0 +
STACK CFI 56370 .cfa: x29 64 + x19: .cfa -8 + ^ x20: .cfa -16 + ^ x21: .cfa -24 + ^ x22: .cfa -32 + ^ x23: .cfa -40 + ^ x24: .cfa -48 + ^ .ra: .cfa -56 + ^ x29: .cfa -64 + ^
STACK CFI INIT 56568 224 .cfa: sp 0 +
STACK CFI 56588 .cfa: x29 96 + x19: .cfa -8 + ^ x20: .cfa -16 + ^ x21: .cfa -24 + ^ x22: .cfa -32 + ^ x23: .cfa -40 + ^ x24: .cfa -48 + ^ x25: .cfa -56 + ^ x26: .cfa -64 + ^ x27: .cfa -72 + ^ x28: .cfa -80 + ^ .ra: .cfa -88 + ^ x29: .cfa -96 + ^
STACK CFI INIT 56790 2d4 .cfa: sp 0 +
STACK CFI 567b0 .cfa: x29 96 + x19: .cfa -8 + ^ x20: .cfa -16 + ^ x21: .cfa -24 + ^ x22: .cfa -32 + ^ x23: .cfa -40 + ^ x24: .cfa -48 + ^ x25: .cfa -56 + ^ x26: .cfa -64 + ^ x27: .cfa -72 + ^ x28: .cfa -80 + ^ .ra: .cfa -88 + ^ x29: .cfa -96 + ^
STACK CFI INIT 56a68 2c4 .cfa: sp 0 +
STACK CFI 56a88 .cfa: x29 96 + x19: .cfa -8 + ^ x20: .cfa -16 + ^ x21: .cfa -24 + ^ x22: .cfa -32 + ^ x23: .cfa -40 + ^ x24: .cfa -48 + ^ x25: .cfa -56 + ^ x26: .cfa -64 + ^ x27: .cfa -72 + ^ x28: .cfa -80 + ^ .ra: .cfa -88 + ^ x29: .cfa -96 + ^
STACK CFI INIT 56d30 80 .cfa: sp 0 +
STACK CFI 56d40 .cfa: x29 48 + x19: .cfa -8 + ^ x20: .cfa -16 + ^ x21: .cfa -24 + ^ x22: .cfa -32 + ^ .ra: .cfa -40 + ^ x29: .cfa -48 + ^
STACK CFI INIT 56db0 164 .cfa: sp 0 +
STACK CFI 56dc0 .cfa: x29 48 + x19: .cfa -8 + ^ x20: .cfa -16 + ^ x21: .cfa -24 + ^ x22: .cfa -32 + ^ .ra: .cfa -40 + ^ x29: .cfa -48 + ^
STACK CFI INIT 56f18 ac .cfa: sp 0 +
STACK CFI 56f24 .cfa: x29 32 + x19: .cfa -8 + ^ x20: .cfa -16 + ^ .ra: .cfa -24 + ^ x29: .cfa -32 + ^
STACK CFI INIT 56fc8 40 .cfa: sp 0 +
STACK CFI 56fd0 .cfa: x29 16 + .ra: .cfa -8 + ^ x29: .cfa -16 + ^
STACK CFI INIT 57008 e4 .cfa: sp 0 +
STACK CFI 57014 .cfa: x29 32 + x19: .cfa -16 + ^ .ra: .cfa -24 + ^ x29: .cfa -32 + ^
STACK CFI INIT 570f0 22c .cfa: sp 0 +
STACK CFI 5710c .cfa: x29 96 + x19: .cfa -8 + ^ x20: .cfa -16 + ^ x21: .cfa -24 + ^ x22: .cfa -32 + ^ x23: .cfa -40 + ^ x24: .cfa -48 + ^ x25: .cfa -56 + ^ x26: .cfa -64 + ^ x27: .cfa -72 + ^ x28: .cfa -80 + ^ .ra: .cfa -88 + ^ x29: .cfa -96 + ^
STACK CFI INIT 57320 288 .cfa: sp 0 +
STACK CFI 5733c .cfa: x29 96 + x19: .cfa -8 + ^ x20: .cfa -16 + ^ x21: .cfa -24 + ^ x22: .cfa -32 + ^ x23: .cfa -40 + ^ x24: .cfa -48 + ^ x25: .cfa -56 + ^ x26: .cfa -64 + ^ x27: .cfa -72 + ^ x28: .cfa -80 + ^ .ra: .cfa -88 + ^ x29: .cfa -96 + ^
STACK CFI INIT 575a8 94 .cfa: sp 0 +
STACK CFI 575b4 .cfa: x29 16 + .ra: .cfa -8 + ^ x29: .cfa -16 + ^
STACK CFI INIT 57640 a0 .cfa: sp 0 +
STACK CFI 5764c .cfa: x29 16 + .ra: .cfa -8 + ^ x29: .cfa -16 + ^
STACK CFI INIT 576e0 b4 .cfa: sp 0 +
STACK CFI 576ec .cfa: x29 16 + .ra: .cfa -8 + ^ x29: .cfa -16 + ^
STACK CFI INIT 57798 290 .cfa: sp 0 +
STACK CFI 577b4 .cfa: x29 80 + x19: .cfa -8 + ^ x20: .cfa -16 + ^ x21: .cfa -24 + ^ x22: .cfa -32 + ^ x23: .cfa -40 + ^ x24: .cfa -48 + ^ x25: .cfa -64 + ^ .ra: .cfa -72 + ^ x29: .cfa -80 + ^
STACK CFI INIT 57a28 548 .cfa: sp 0 +
STACK CFI 57a48 .cfa: x29 96 + x19: .cfa -8 + ^ x20: .cfa -16 + ^ x21: .cfa -24 + ^ x22: .cfa -32 + ^ x23: .cfa -40 + ^ x24: .cfa -48 + ^ x25: .cfa -56 + ^ x26: .cfa -64 + ^ x27: .cfa -72 + ^ x28: .cfa -80 + ^ .ra: .cfa -88 + ^ x29: .cfa -96 + ^
STACK CFI INIT 57f70 2c .cfa: sp 0 +
STACK CFI 57f7c .cfa: x29 32 + x19: .cfa -16 + ^ .ra: .cfa -24 + ^ x29: .cfa -32 + ^
STACK CFI INIT 57fa0 16c .cfa: sp 0 +
STACK CFI 57fb4 .cfa: x29 64 + x19: .cfa -8 + ^ x20: .cfa -16 + ^ x21: .cfa -24 + ^ x22: .cfa -32 + ^ x23: .cfa -48 + ^ .ra: .cfa -56 + ^ x29: .cfa -64 + ^
STACK CFI INIT 58110 8 .cfa: sp 0 +
STACK CFI INIT 58118 c8 .cfa: sp 0 +
STACK CFI 58128 .cfa: x29 32 + x19: .cfa -16 + ^ .ra: .cfa -24 + ^ x29: .cfa -32 + ^
STACK CFI INIT 581e0 30 .cfa: sp 0 +
STACK CFI 581f4 .cfa: x29 16 + .ra: .cfa -8 + ^ x29: .cfa -16 + ^
STACK CFI INIT 58210 280 .cfa: sp 0 +
STACK CFI 58250 .cfa: x29 16 + .ra: .cfa -8 + ^ x29: .cfa -16 + ^
STACK CFI INIT 58490 4 .cfa: sp 0 +
STACK CFI INIT 58498 20 .cfa: sp 0 +
STACK CFI INIT 584b8 4 .cfa: sp 0 +
STACK CFI INIT 584c0 4 .cfa: sp 0 +
STACK CFI INIT 584c8 4 .cfa: sp 0 +
STACK CFI INIT 584d0 4 .cfa: sp 0 +
STACK CFI INIT 584d8 4 .cfa: sp 0 +
STACK CFI INIT 584e0 4 .cfa: sp 0 +
STACK CFI INIT 584e8 d8 .cfa: sp 0 +
STACK CFI 584f4 .cfa: x29 32 + x19: .cfa -16 + ^ .ra: .cfa -24 + ^ x29: .cfa -32 + ^
STACK CFI INIT 585c0 c .cfa: sp 0 +
STACK CFI INIT 585d0 58 .cfa: sp 0 +
STACK CFI 585d8 .cfa: x29 16 + .ra: .cfa -8 + ^ x29: .cfa -16 + ^
STACK CFI INIT 58628 18 .cfa: sp 0 +
STACK CFI INIT 58640 14 .cfa: sp 0 +
STACK CFI INIT 58658 80 .cfa: sp 0 +
STACK CFI 58664 .cfa: x29 32 + x19: .cfa -8 + ^ x20: .cfa -16 + ^ .ra: .cfa -24 + ^ x29: .cfa -32 + ^
STACK CFI INIT 586d8 168 .cfa: sp 0 +
STACK CFI 586ec .cfa: x29 64 + x19: .cfa -8 + ^ x20: .cfa -16 + ^ x21: .cfa -24 + ^ x22: .cfa -32 + ^ x23: .cfa -48 + ^ .ra: .cfa -56 + ^ x29: .cfa -64 + ^
STACK CFI INIT 58840 10c .cfa: sp 0 +
STACK CFI 58850 .cfa: x29 48 + x19: .cfa -8 + ^ x20: .cfa -16 + ^ x21: .cfa -24 + ^ x22: .cfa -32 + ^ .ra: .cfa -40 + ^ x29: .cfa -48 + ^
STACK CFI INIT 58950 3c .cfa: sp 0 +
STACK CFI 5895c .cfa: x29 32 + x19: .cfa -16 + ^ .ra: .cfa -24 + ^ x29: .cfa -32 + ^
STACK CFI INIT 58990 1c .cfa: sp 0 +
STACK CFI INIT 589b0 38 .cfa: sp 0 +
STACK CFI INIT 589e8 24 .cfa: sp 0 +
STACK CFI INIT 58a10 2c .cfa: sp 0 +
STACK CFI 58a18 .cfa: x29 16 + .ra: .cfa -8 + ^ x29: .cfa -16 + ^
STACK CFI INIT 58a40 3c .cfa: sp 0 +
STACK CFI INIT 58a80 4c .cfa: sp 0 +
STACK CFI 58a8c .cfa: x29 32 + x19: .cfa -16 + ^ .ra: .cfa -24 + ^ x29: .cfa -32 + ^
STACK CFI INIT 58ad0 c .cfa: sp 0 +
STACK CFI INIT 58ae0 e8 .cfa: sp 0 +
STACK CFI 58aec .cfa: x29 32 + x19: .cfa -8 + ^ x20: .cfa -16 + ^ .ra: .cfa -24 + ^ x29: .cfa -32 + ^
STACK CFI INIT 58bc8 f4 .cfa: sp 0 +
STACK CFI 58bd4 .cfa: x29 32 + x19: .cfa -16 + ^ .ra: .cfa -24 + ^ x29: .cfa -32 + ^
STACK CFI INIT 58cc0 108 .cfa: sp 0 +
STACK CFI 58cd0 .cfa: x29 32 + x19: .cfa -8 + ^ x20: .cfa -16 + ^ .ra: .cfa -24 + ^ x29: .cfa -32 + ^
STACK CFI INIT 58dc8 4 .cfa: sp 0 +
STACK CFI INIT 58dd0 18 .cfa: sp 0 +
STACK CFI INIT 58de8 4c .cfa: sp 0 +
STACK CFI 58df8 .cfa: x29 32 + x19: .cfa -16 + ^ .ra: .cfa -24 + ^ x29: .cfa -32 + ^
STACK CFI INIT 58e38 108 .cfa: sp 0 +
STACK CFI 58e4c .cfa: x29 48 + x19: .cfa -8 + ^ x20: .cfa -16 + ^ x21: .cfa -32 + ^ .ra: .cfa -40 + ^ x29: .cfa -48 + ^
STACK CFI INIT 58f40 258 .cfa: sp 0 +
STACK CFI 58f60 .cfa: x29 96 + x19: .cfa -8 + ^ x20: .cfa -16 + ^ x21: .cfa -24 + ^ x22: .cfa -32 + ^ x23: .cfa -40 + ^ x24: .cfa -48 + ^ x25: .cfa -56 + ^ x26: .cfa -64 + ^ x27: .cfa -72 + ^ x28: .cfa -80 + ^ .ra: .cfa -88 + ^ x29: .cfa -96 + ^
STACK CFI INIT 59198 104 .cfa: sp 0 +
STACK CFI 591b4 .cfa: x29 96 + x19: .cfa -8 + ^ x20: .cfa -16 + ^ x21: .cfa -24 + ^ x22: .cfa -32 + ^ x23: .cfa -40 + ^ x24: .cfa -48 + ^ x25: .cfa -56 + ^ x26: .cfa -64 + ^ x27: .cfa -72 + ^ x28: .cfa -80 + ^ .ra: .cfa -88 + ^ x29: .cfa -96 + ^
STACK CFI INIT 592a0 28 .cfa: sp 0 +
STACK CFI 592ac .cfa: x29 32 + x19: .cfa -8 + ^ x20: .cfa -16 + ^ .ra: .cfa -24 + ^ x29: .cfa -32 + ^
STACK CFI INIT 592c8 14 .cfa: sp 0 +
STACK CFI INIT 592e0 1c .cfa: sp 0 +
STACK CFI INIT 59300 10 .cfa: sp 0 +
STACK CFI INIT 59310 18 .cfa: sp 0 +
STACK CFI INIT 59328 20 .cfa: sp 0 +
STACK CFI INIT 59348 150 .cfa: sp 0 +
STACK CFI 59368 .cfa: x29 96 + x19: .cfa -8 + ^ x20: .cfa -16 + ^ x21: .cfa -24 + ^ x22: .cfa -32 + ^ x23: .cfa -40 + ^ x24: .cfa -48 + ^ x25: .cfa -56 + ^ x26: .cfa -64 + ^ x27: .cfa -72 + ^ x28: .cfa -80 + ^ .ra: .cfa -88 + ^ x29: .cfa -96 + ^
STACK CFI INIT 59498 4 .cfa: sp 0 +
STACK CFI INIT 594a0 1c .cfa: sp 0 +
STACK CFI 594ac .cfa: x29 16 + .ra: .cfa -8 + ^ x29: .cfa -16 + ^
STACK CFI INIT 594c0 c8 .cfa: sp 0 +
STACK CFI 594d8 .cfa: x29 80 + x19: .cfa -8 + ^ x20: .cfa -16 + ^ x21: .cfa -24 + ^ x22: .cfa -32 + ^ x23: .cfa -40 + ^ x24: .cfa -48 + ^ x25: .cfa -56 + ^ x26: .cfa -64 + ^ .ra: .cfa -72 + ^ x29: .cfa -80 + ^
STACK CFI INIT 59588 f4 .cfa: sp 0 +
STACK CFI 59598 .cfa: x29 32 + x19: .cfa -16 + ^ .ra: .cfa -24 + ^ x29: .cfa -32 + ^
STACK CFI INIT 59680 e4 .cfa: sp 0 +
STACK CFI 59698 .cfa: x29 64 + x19: .cfa -8 + ^ x20: .cfa -16 + ^ x21: .cfa -24 + ^ x22: .cfa -32 + ^ x23: .cfa -48 + ^ .ra: .cfa -56 + ^ x29: .cfa -64 + ^
STACK CFI INIT 59768 d4 .cfa: sp 0 +
STACK CFI 59780 .cfa: x29 64 + x19: .cfa -8 + ^ x20: .cfa -16 + ^ x21: .cfa -24 + ^ x22: .cfa -32 + ^ x23: .cfa -48 + ^ .ra: .cfa -56 + ^ x29: .cfa -64 + ^
STACK CFI INIT 59840 148 .cfa: sp 0 +
STACK CFI 59854 .cfa: x29 48 + x19: .cfa -8 + ^ x20: .cfa -16 + ^ x21: .cfa -24 + ^ x22: .cfa -32 + ^ .ra: .cfa -40 + ^ x29: .cfa -48 + ^
STACK CFI INIT 59988 b4 .cfa: sp 0 +
STACK CFI 59998 .cfa: x29 48 + x19: .cfa -8 + ^ x20: .cfa -16 + ^ x21: .cfa -32 + ^ .ra: .cfa -40 + ^ x29: .cfa -48 + ^
STACK CFI INIT 59a40 50 .cfa: sp 0 +
STACK CFI 59a50 .cfa: x29 32 + x19: .cfa -8 + ^ x20: .cfa -16 + ^ .ra: .cfa -24 + ^ x29: .cfa -32 + ^
STACK CFI INIT 59a90 4 .cfa: sp 0 +
STACK CFI INIT 59a98 4 .cfa: sp 0 +
STACK CFI INIT 59aa0 8 .cfa: sp 0 +
STACK CFI INIT 59aa8 8 .cfa: sp 0 +
STACK CFI INIT 59ab0 8 .cfa: sp 0 +
STACK CFI INIT 59ab8 8 .cfa: sp 0 +
STACK CFI INIT 59ac0 8 .cfa: sp 0 +
STACK CFI INIT 59ac8 8 .cfa: sp 0 +
STACK CFI INIT 59ad0 4 .cfa: sp 0 +
STACK CFI INIT 59ad8 4 .cfa: sp 0 +
STACK CFI INIT 59ae0 150 .cfa: sp 0 +
STACK CFI 59afc .cfa: x29 80 + x19: .cfa -8 + ^ x20: .cfa -16 + ^ x21: .cfa -24 + ^ x22: .cfa -32 + ^ x23: .cfa -40 + ^ x24: .cfa -48 + ^ x25: .cfa -56 + ^ x26: .cfa -64 + ^ .ra: .cfa -72 + ^ x29: .cfa -80 + ^
STACK CFI INIT 59c30 8 .cfa: sp 0 +
STACK CFI INIT 59c38 8 .cfa: sp 0 +
STACK CFI INIT 59c40 24 .cfa: sp 0 +
STACK CFI 59c48 .cfa: x29 16 + .ra: .cfa -8 + ^ x29: .cfa -16 + ^
STACK CFI INIT 59c68 c .cfa: sp 0 +
STACK CFI INIT 59c78 194 .cfa: sp 0 +
STACK CFI 59c94 .cfa: x29 80 + x19: .cfa -8 + ^ x20: .cfa -16 + ^ x21: .cfa -24 + ^ x22: .cfa -32 + ^ x23: .cfa -40 + ^ x24: .cfa -48 + ^ x28: .cfa -64 + ^ .ra: .cfa -72 + ^ x29: .cfa -80 + ^
STACK CFI INIT 59e10 108 .cfa: sp 0 +
STACK CFI 59e28 .cfa: x29 64 + x19: .cfa -8 + ^ x20: .cfa -16 + ^ x21: .cfa -24 + ^ x22: .cfa -32 + ^ x23: .cfa -40 + ^ x24: .cfa -48 + ^ .ra: .cfa -56 + ^ x29: .cfa -64 + ^
STACK CFI INIT 59f18 80 .cfa: sp 0 +
STACK CFI 59f28 .cfa: x29 32 + x28: .cfa -16 + ^ .ra: .cfa -24 + ^ x29: .cfa -32 + ^
STACK CFI INIT 59f98 180 .cfa: sp 0 +
STACK CFI 59fb4 .cfa: x29 80 + x19: .cfa -8 + ^ x20: .cfa -16 + ^ x21: .cfa -24 + ^ x22: .cfa -32 + ^ x23: .cfa -40 + ^ x24: .cfa -48 + ^ x28: .cfa -64 + ^ .ra: .cfa -72 + ^ x29: .cfa -80 + ^
STACK CFI INIT 5a118 f8 .cfa: sp 0 +
STACK CFI 5a130 .cfa: x29 64 + x19: .cfa -8 + ^ x20: .cfa -16 + ^ x21: .cfa -24 + ^ x22: .cfa -32 + ^ x23: .cfa -40 + ^ x24: .cfa -48 + ^ .ra: .cfa -56 + ^ x29: .cfa -64 + ^
STACK CFI INIT 5a210 80 .cfa: sp 0 +
STACK CFI 5a220 .cfa: x29 32 + x19: .cfa -8 + ^ x20: .cfa -16 + ^ .ra: .cfa -24 + ^ x29: .cfa -32 + ^
STACK CFI INIT 5a290 1cc .cfa: sp 0 +
STACK CFI 5a298 .cfa: x29 16 + .ra: .cfa -8 + ^ x29: .cfa -16 + ^
STACK CFI INIT 5a460 80 .cfa: sp 0 +
STACK CFI 5a470 .cfa: x29 32 + x19: .cfa -8 + ^ x20: .cfa -16 + ^ .ra: .cfa -24 + ^ x29: .cfa -32 + ^
STACK CFI INIT 5a4e0 4c .cfa: sp 0 +
STACK CFI 5a4f0 .cfa: x29 32 + x19: .cfa -16 + ^ .ra: .cfa -24 + ^ x29: .cfa -32 + ^
STACK CFI INIT 5a530 178 .cfa: sp 0 +
STACK CFI 5a54c .cfa: x29 80 + x19: .cfa -8 + ^ x20: .cfa -16 + ^ x21: .cfa -24 + ^ x22: .cfa -32 + ^ x23: .cfa -40 + ^ x24: .cfa -48 + ^ x25: .cfa -64 + ^ .ra: .cfa -72 + ^ x29: .cfa -80 + ^
STACK CFI INIT 5a6a8 174 .cfa: sp 0 +
STACK CFI 5a6c4 .cfa: x29 80 + x19: .cfa -8 + ^ x20: .cfa -16 + ^ x21: .cfa -24 + ^ x22: .cfa -32 + ^ x23: .cfa -40 + ^ x24: .cfa -48 + ^ x25: .cfa -64 + ^ .ra: .cfa -72 + ^ x29: .cfa -80 + ^
STACK CFI INIT 5a820 88 .cfa: sp 0 +
STACK CFI 5a834 .cfa: x29 48 + x19: .cfa -8 + ^ x20: .cfa -16 + ^ x21: .cfa -24 + ^ x22: .cfa -32 + ^ .ra: .cfa -40 + ^ x29: .cfa -48 + ^
STACK CFI INIT 5a8a8 58 .cfa: sp 0 +
STACK CFI 5a8b8 .cfa: x29 32 + x19: .cfa -16 + ^ .ra: .cfa -24 + ^ x29: .cfa -32 + ^
STACK CFI INIT 5a900 104 .cfa: sp 0 +
STACK CFI 5a914 .cfa: x29 48 + x19: .cfa -8 + ^ x20: .cfa -16 + ^ x21: .cfa -24 + ^ x22: .cfa -32 + ^ .ra: .cfa -40 + ^ x29: .cfa -48 + ^
STACK CFI INIT 5aa08 e0 .cfa: sp 0 +
STACK CFI 5aa20 .cfa: x29 64 + x19: .cfa -8 + ^ x20: .cfa -16 + ^ x21: .cfa -24 + ^ x22: .cfa -32 + ^ x23: .cfa -40 + ^ x24: .cfa -48 + ^ .ra: .cfa -56 + ^ x29: .cfa -64 + ^
STACK CFI INIT 5aae8 58 .cfa: sp 0 +
STACK CFI 5aaf8 .cfa: x29 32 + x19: .cfa -16 + ^ .ra: .cfa -24 + ^ x29: .cfa -32 + ^
STACK CFI INIT 5ab40 128 .cfa: sp 0 +
STACK CFI 5ab58 .cfa: x29 64 + x19: .cfa -8 + ^ x20: .cfa -16 + ^ x21: .cfa -24 + ^ x22: .cfa -32 + ^ x23: .cfa -40 + ^ x24: .cfa -48 + ^ .ra: .cfa -56 + ^ x29: .cfa -64 + ^
STACK CFI INIT 5ac68 64 .cfa: sp 0 +
STACK CFI 5ac7c .cfa: x29 64 + x19: .cfa -8 + ^ x20: .cfa -16 + ^ x21: .cfa -24 + ^ x22: .cfa -32 + ^ x23: .cfa -40 + ^ x24: .cfa -48 + ^ .ra: .cfa -56 + ^ x29: .cfa -64 + ^
STACK CFI INIT 5acd0 64 .cfa: sp 0 +
STACK CFI 5ace4 .cfa: x29 64 + x19: .cfa -8 + ^ x20: .cfa -16 + ^ x21: .cfa -24 + ^ x22: .cfa -32 + ^ x23: .cfa -40 + ^ x24: .cfa -48 + ^ .ra: .cfa -56 + ^ x29: .cfa -64 + ^
STACK CFI INIT 5ad38 60 .cfa: sp 0 +
STACK CFI 5ad4c .cfa: x29 64 + x19: .cfa -8 + ^ x20: .cfa -16 + ^ x21: .cfa -24 + ^ x22: .cfa -32 + ^ x23: .cfa -48 + ^ .ra: .cfa -56 + ^ x29: .cfa -64 + ^
STACK CFI INIT 5ad98 60 .cfa: sp 0 +
STACK CFI 5adac .cfa: x29 64 + x19: .cfa -8 + ^ x20: .cfa -16 + ^ x21: .cfa -24 + ^ x22: .cfa -32 + ^ x23: .cfa -48 + ^ .ra: .cfa -56 + ^ x29: .cfa -64 + ^
STACK CFI INIT 5adf8 6c .cfa: sp 0 +
STACK CFI 5ae0c .cfa: x29 64 + x19: .cfa -8 + ^ x20: .cfa -16 + ^ x21: .cfa -24 + ^ x22: .cfa -32 + ^ x23: .cfa -48 + ^ .ra: .cfa -56 + ^ x29: .cfa -64 + ^
STACK CFI INIT 5ae68 230 .cfa: sp 0 +
STACK CFI 5ae80 .cfa: x29 64 + x19: .cfa -8 + ^ x20: .cfa -16 + ^ x21: .cfa -24 + ^ x22: .cfa -32 + ^ x23: .cfa -40 + ^ x24: .cfa -48 + ^ .ra: .cfa -56 + ^ x29: .cfa -64 + ^
STACK CFI INIT 5b098 c0 .cfa: sp 0 +
STACK CFI 5b0a8 .cfa: x29 32 + x19: .cfa -8 + ^ x20: .cfa -16 + ^ .ra: .cfa -24 + ^ x29: .cfa -32 + ^
STACK CFI INIT 5b158 a4 .cfa: sp 0 +
STACK CFI 5b168 .cfa: x29 32 + x19: .cfa -8 + ^ x28: .cfa -16 + ^ .ra: .cfa -24 + ^ x29: .cfa -32 + ^
STACK CFI INIT 5b200 60 .cfa: sp 0 +
STACK CFI 5b20c .cfa: x29 32 + x19: .cfa -16 + ^ .ra: .cfa -24 + ^ x29: .cfa -32 + ^
STACK CFI INIT 5b260 8 .cfa: sp 0 +
STACK CFI INIT 5b268 8 .cfa: sp 0 +
STACK CFI INIT 5b270 8 .cfa: sp 0 +
STACK CFI INIT 5b278 180 .cfa: sp 0 +
STACK CFI 5b28c .cfa: x29 48 + x19: .cfa -8 + ^ x20: .cfa -16 + ^ x28: .cfa -32 + ^ .ra: .cfa -40 + ^ x29: .cfa -48 + ^
STACK CFI INIT 5b3f8 10 .cfa: sp 0 +
STACK CFI INIT 5b408 10 .cfa: sp 0 +
STACK CFI INIT 5b418 8 .cfa: sp 0 +
STACK CFI INIT 5b420 b0 .cfa: sp 0 +
STACK CFI 5b434 .cfa: x29 48 + x19: .cfa -8 + ^ x20: .cfa -16 + ^ x21: .cfa -32 + ^ .ra: .cfa -40 + ^ x29: .cfa -48 + ^
STACK CFI INIT 5b4d0 bc .cfa: sp 0 +
STACK CFI 5b4e4 .cfa: x29 48 + x19: .cfa -8 + ^ x20: .cfa -16 + ^ x21: .cfa -32 + ^ .ra: .cfa -40 + ^ x29: .cfa -48 + ^
STACK CFI INIT 5b590 a8 .cfa: sp 0 +
STACK CFI 5b5a0 .cfa: x29 32 + x19: .cfa -8 + ^ x28: .cfa -16 + ^ .ra: .cfa -24 + ^ x29: .cfa -32 + ^
STACK CFI INIT 5b638 3c .cfa: sp 0 +
STACK CFI 5b644 .cfa: x29 32 + x19: .cfa -16 + ^ .ra: .cfa -24 + ^ x29: .cfa -32 + ^
STACK CFI INIT 5b678 e0 .cfa: sp 0 +
STACK CFI 5b68c .cfa: x29 48 + x19: .cfa -8 + ^ x20: .cfa -16 + ^ x21: .cfa -24 + ^ x22: .cfa -32 + ^ .ra: .cfa -40 + ^ x29: .cfa -48 + ^
STACK CFI INIT 5b758 54 .cfa: sp 0 +
STACK CFI 5b768 .cfa: x29 32 + x19: .cfa -16 + ^ .ra: .cfa -24 + ^ x29: .cfa -32 + ^
STACK CFI INIT 5b7b0 15c .cfa: sp 0 +
STACK CFI 5b7cc .cfa: x29 80 + x19: .cfa -8 + ^ x20: .cfa -16 + ^ x21: .cfa -24 + ^ x22: .cfa -32 + ^ x23: .cfa -40 + ^ x24: .cfa -48 + ^ x25: .cfa -64 + ^ .ra: .cfa -72 + ^ x29: .cfa -80 + ^
STACK CFI INIT 5b910 128 .cfa: sp 0 +
STACK CFI 5b924 .cfa: x29 48 + x19: .cfa -8 + ^ x20: .cfa -16 + ^ x21: .cfa -24 + ^ x22: .cfa -32 + ^ .ra: .cfa -40 + ^ x29: .cfa -48 + ^
STACK CFI INIT 5ba38 74 .cfa: sp 0 +
STACK CFI 5ba44 .cfa: x29 32 + x19: .cfa -16 + ^ .ra: .cfa -24 + ^ x29: .cfa -32 + ^
STACK CFI INIT 5bab0 3c .cfa: sp 0 +
STACK CFI 5babc .cfa: x29 32 + x19: .cfa -8 + ^ x20: .cfa -16 + ^ .ra: .cfa -24 + ^ x29: .cfa -32 + ^
STACK CFI INIT 5baf0 14 .cfa: sp 0 +
STACK CFI 5baf8 .cfa: x29 16 + .ra: .cfa -8 + ^ x29: .cfa -16 + ^
STACK CFI INIT 5bb08 4 .cfa: sp 0 +
STACK CFI INIT 5bb10 1c .cfa: sp 0 +
STACK CFI INIT 5bb30 190 .cfa: sp 0 +
STACK CFI 5bb50 .cfa: x29 80 + x19: .cfa -8 + ^ x20: .cfa -16 + ^ x21: .cfa -24 + ^ x22: .cfa -32 + ^ x23: .cfa -40 + ^ x24: .cfa -48 + ^ x28: .cfa -64 + ^ .ra: .cfa -72 + ^ x29: .cfa -80 + ^
STACK CFI INIT 5bcc0 20 .cfa: sp 0 +
STACK CFI INIT 5bce0 c .cfa: sp 0 +
STACK CFI INIT 5bcf0 190 .cfa: sp 0 +
STACK CFI 5bd10 .cfa: x29 96 + x19: .cfa -8 + ^ x20: .cfa -16 + ^ x21: .cfa -24 + ^ x22: .cfa -32 + ^ x23: .cfa -40 + ^ x24: .cfa -48 + ^ x25: .cfa -56 + ^ x26: .cfa -64 + ^ x27: .cfa -72 + ^ x28: .cfa -80 + ^ .ra: .cfa -88 + ^ x29: .cfa -96 + ^
STACK CFI INIT 5be80 1c4 .cfa: sp 0 +
STACK CFI 5bea0 .cfa: x29 96 + x19: .cfa -8 + ^ x20: .cfa -16 + ^ x21: .cfa -24 + ^ x22: .cfa -32 + ^ x23: .cfa -40 + ^ x24: .cfa -48 + ^ x25: .cfa -56 + ^ x26: .cfa -64 + ^ x27: .cfa -72 + ^ x28: .cfa -80 + ^ .ra: .cfa -88 + ^ x29: .cfa -96 + ^
STACK CFI INIT 5c048 18 .cfa: sp 0 +
STACK CFI INIT 5c060 14 .cfa: sp 0 +
STACK CFI INIT 5c078 13c .cfa: sp 0 +
STACK CFI 5c094 .cfa: x29 96 + x19: .cfa -8 + ^ x20: .cfa -16 + ^ x21: .cfa -24 + ^ x22: .cfa -32 + ^ x23: .cfa -40 + ^ x24: .cfa -48 + ^ x25: .cfa -56 + ^ x26: .cfa -64 + ^ x27: .cfa -72 + ^ x28: .cfa -80 + ^ .ra: .cfa -88 + ^ x29: .cfa -96 + ^
STACK CFI INIT 5c1b8 20 .cfa: sp 0 +
STACK CFI INIT 5c1d8 44 .cfa: sp 0 +
STACK CFI 5c1e4 .cfa: x29 32 + x19: .cfa -8 + ^ x20: .cfa -16 + ^ .ra: .cfa -24 + ^ x29: .cfa -32 + ^
STACK CFI INIT 5c220 60 .cfa: sp 0 +
STACK CFI 5c230 .cfa: x29 32 + x19: .cfa -16 + ^ .ra: .cfa -24 + ^ x29: .cfa -32 + ^
STACK CFI INIT 5c280 44 .cfa: sp 0 +
STACK CFI 5c288 .cfa: x29 16 + .ra: .cfa -8 + ^ x29: .cfa -16 + ^
STACK CFI INIT 5c2c8 8 .cfa: sp 0 +
STACK CFI INIT 5c2d0 50 .cfa: sp 0 +
STACK CFI 5c2dc .cfa: x29 16 + .ra: .cfa -8 + ^ x29: .cfa -16 + ^
STACK CFI INIT 5c320 24 .cfa: sp 0 +
STACK CFI 5c328 .cfa: x29 16 + .ra: .cfa -8 + ^ x29: .cfa -16 + ^
STACK CFI INIT 5c348 24 .cfa: sp 0 +
STACK CFI 5c350 .cfa: x29 16 + .ra: .cfa -8 + ^ x29: .cfa -16 + ^
STACK CFI INIT 5c370 bc .cfa: sp 0 +
STACK CFI 5c380 .cfa: x29 48 + x19: .cfa -8 + ^ x20: .cfa -16 + ^ x21: .cfa -24 + ^ x22: .cfa -32 + ^ .ra: .cfa -40 + ^ x29: .cfa -48 + ^
STACK CFI INIT 5c430 8 .cfa: sp 0 +
STACK CFI INIT 5c438 12c .cfa: sp 0 +
STACK CFI 5c44c .cfa: x29 64 + x19: .cfa -8 + ^ x20: .cfa -16 + ^ x21: .cfa -24 + ^ x22: .cfa -32 + ^ x23: .cfa -48 + ^ .ra: .cfa -56 + ^ x29: .cfa -64 + ^
STACK CFI INIT 5c568 8 .cfa: sp 0 +
STACK CFI INIT 5c570 2c .cfa: sp 0 +
STACK CFI INIT 5c5a0 f0 .cfa: sp 0 +
STACK CFI 5c5b0 .cfa: x29 48 + x19: .cfa -8 + ^ x20: .cfa -16 + ^ x21: .cfa -24 + ^ x22: .cfa -32 + ^ .ra: .cfa -40 + ^ x29: .cfa -48 + ^
STACK CFI INIT 5c690 6c .cfa: sp 0 +
STACK CFI 5c698 .cfa: x29 16 + .ra: .cfa -8 + ^ x29: .cfa -16 + ^
STACK CFI INIT 5c700 18 .cfa: sp 0 +
STACK CFI INIT 5c718 c .cfa: sp 0 +
STACK CFI INIT 5c728 10 .cfa: sp 0 +
STACK CFI INIT 5c738 10 .cfa: sp 0 +
STACK CFI INIT 5c748 c .cfa: sp 0 +
STACK CFI INIT 5c758 a8 .cfa: sp 0 +
STACK CFI 5c768 .cfa: x29 32 + x19: .cfa -8 + ^ x20: .cfa -16 + ^ .ra: .cfa -24 + ^ x29: .cfa -32 + ^
STACK CFI INIT 5c800 68 .cfa: sp 0 +
STACK CFI 5c814 .cfa: x29 64 + x19: .cfa -8 + ^ x20: .cfa -16 + ^ x21: .cfa -24 + ^ x22: .cfa -32 + ^ x23: .cfa -48 + ^ .ra: .cfa -56 + ^ x29: .cfa -64 + ^
STACK CFI INIT 5c868 68 .cfa: sp 0 +
STACK CFI 5c87c .cfa: x29 64 + x19: .cfa -8 + ^ x20: .cfa -16 + ^ x21: .cfa -24 + ^ x22: .cfa -32 + ^ x23: .cfa -48 + ^ .ra: .cfa -56 + ^ x29: .cfa -64 + ^
STACK CFI INIT 5c8d0 58 .cfa: sp 0 +
STACK CFI 5c8d8 .cfa: x29 16 + .ra: .cfa -8 + ^ x29: .cfa -16 + ^
STACK CFI INIT 5c928 58 .cfa: sp 0 +
STACK CFI 5c930 .cfa: x29 16 + .ra: .cfa -8 + ^ x29: .cfa -16 + ^
STACK CFI INIT 5c980 64 .cfa: sp 0 +
STACK CFI 5c990 .cfa: x29 32 + x19: .cfa -16 + ^ .ra: .cfa -24 + ^ x29: .cfa -32 + ^
STACK CFI INIT 5c9e8 34 .cfa: sp 0 +
STACK CFI 5c9f0 .cfa: x29 16 + .ra: .cfa -8 + ^ x29: .cfa -16 + ^
STACK CFI INIT 5ca20 58 .cfa: sp 0 +
STACK CFI 5ca28 .cfa: x29 16 + .ra: .cfa -8 + ^ x29: .cfa -16 + ^
STACK CFI INIT 5ca78 58 .cfa: sp 0 +
STACK CFI 5ca80 .cfa: x29 16 + .ra: .cfa -8 + ^ x29: .cfa -16 + ^
STACK CFI INIT 5cad0 34 .cfa: sp 0 +
STACK CFI 5cad8 .cfa: x29 16 + .ra: .cfa -8 + ^ x29: .cfa -16 + ^
STACK CFI INIT 5cb08 38 .cfa: sp 0 +
STACK CFI 5cb10 .cfa: x29 16 + .ra: .cfa -8 + ^ x29: .cfa -16 + ^
STACK CFI INIT 5cb40 38 .cfa: sp 0 +
STACK CFI 5cb48 .cfa: x29 16 + .ra: .cfa -8 + ^ x29: .cfa -16 + ^
STACK CFI INIT 5cb78 84 .cfa: sp 0 +
STACK CFI 5cb88 .cfa: x29 32 + x19: .cfa -16 + ^ .ra: .cfa -24 + ^ x29: .cfa -32 + ^
STACK CFI INIT 5cc00 5c .cfa: sp 0 +
STACK CFI 5cc10 .cfa: x29 32 + x19: .cfa -16 + ^ .ra: .cfa -24 + ^ x29: .cfa -32 + ^
STACK CFI INIT 5cc60 8c .cfa: sp 0 +
STACK CFI 5cc74 .cfa: x29 48 + x19: .cfa -8 + ^ x20: .cfa -16 + ^ x21: .cfa -32 + ^ .ra: .cfa -40 + ^ x29: .cfa -48 + ^
STACK CFI INIT 5ccf0 4c .cfa: sp 0 +
STACK CFI 5ccf8 .cfa: x29 16 + .ra: .cfa -8 + ^ x29: .cfa -16 + ^
STACK CFI INIT 5cd40 4c .cfa: sp 0 +
STACK CFI 5cd48 .cfa: x29 16 + .ra: .cfa -8 + ^ x29: .cfa -16 + ^
STACK CFI INIT 5cd90 64 .cfa: sp 0 +
STACK CFI 5cda0 .cfa: x29 32 + x19: .cfa -16 + ^ .ra: .cfa -24 + ^ x29: .cfa -32 + ^
STACK CFI INIT 5cdf8 ac .cfa: sp 0 +
STACK CFI 5ce08 .cfa: x29 32 + x19: .cfa -8 + ^ x20: .cfa -16 + ^ .ra: .cfa -24 + ^ x29: .cfa -32 + ^
STACK CFI INIT 5cea8 64 .cfa: sp 0 +
STACK CFI 5ceb8 .cfa: x29 32 + x19: .cfa -16 + ^ .ra: .cfa -24 + ^ x29: .cfa -32 + ^
STACK CFI INIT 5cf10 6c .cfa: sp 0 +
STACK CFI 5cf20 .cfa: x29 32 + x19: .cfa -8 + ^ x20: .cfa -16 + ^ .ra: .cfa -24 + ^ x29: .cfa -32 + ^
STACK CFI INIT 5cf80 8 .cfa: sp 0 +
STACK CFI INIT 5cf88 98 .cfa: sp 0 +
STACK CFI 5cf9c .cfa: x29 48 + x19: .cfa -8 + ^ x20: .cfa -16 + ^ x21: .cfa -24 + ^ x22: .cfa -32 + ^ .ra: .cfa -40 + ^ x29: .cfa -48 + ^
STACK CFI INIT 5d020 84 .cfa: sp 0 +
STACK CFI 5d030 .cfa: x29 32 + x19: .cfa -16 + ^ .ra: .cfa -24 + ^ x29: .cfa -32 + ^
STACK CFI INIT 5d0a8 118 .cfa: sp 0 +
STACK CFI 5d0bc .cfa: x29 48 + x19: .cfa -8 + ^ x20: .cfa -16 + ^ x21: .cfa -32 + ^ .ra: .cfa -40 + ^ x29: .cfa -48 + ^
STACK CFI INIT 5d1c0 64 .cfa: sp 0 +
STACK CFI 5d1d0 .cfa: x29 32 + x19: .cfa -16 + ^ .ra: .cfa -24 + ^ x29: .cfa -32 + ^
STACK CFI INIT 5d228 5c .cfa: sp 0 +
STACK CFI 5d238 .cfa: x29 32 + x19: .cfa -16 + ^ .ra: .cfa -24 + ^ x29: .cfa -32 + ^
STACK CFI INIT 5d288 5c .cfa: sp 0 +
STACK CFI 5d298 .cfa: x29 32 + x19: .cfa -16 + ^ .ra: .cfa -24 + ^ x29: .cfa -32 + ^
STACK CFI INIT 5d2e8 64 .cfa: sp 0 +
STACK CFI 5d2f8 .cfa: x29 32 + x19: .cfa -16 + ^ .ra: .cfa -24 + ^ x29: .cfa -32 + ^
STACK CFI INIT 5d350 b8 .cfa: sp 0 +
STACK CFI 5d364 .cfa: x29 48 + x19: .cfa -8 + ^ x20: .cfa -16 + ^ x21: .cfa -24 + ^ x22: .cfa -32 + ^ .ra: .cfa -40 + ^ x29: .cfa -48 + ^
STACK CFI INIT 5d408 b0 .cfa: sp 0 +
STACK CFI 5d41c .cfa: x29 48 + x19: .cfa -8 + ^ x20: .cfa -16 + ^ x21: .cfa -32 + ^ .ra: .cfa -40 + ^ x29: .cfa -48 + ^
STACK CFI INIT 5d4b8 60 .cfa: sp 0 +
STACK CFI 5d4c8 .cfa: x29 32 + x19: .cfa -16 + ^ .ra: .cfa -24 + ^ x29: .cfa -32 + ^
STACK CFI INIT 5d518 68 .cfa: sp 0 +
STACK CFI 5d528 .cfa: x29 32 + x19: .cfa -16 + ^ .ra: .cfa -24 + ^ x29: .cfa -32 + ^
STACK CFI INIT 5d580 b4 .cfa: sp 0 +
STACK CFI 5d598 .cfa: x29 64 + x19: .cfa -8 + ^ x20: .cfa -16 + ^ x21: .cfa -24 + ^ x22: .cfa -32 + ^ x23: .cfa -48 + ^ .ra: .cfa -56 + ^ x29: .cfa -64 + ^
STACK CFI INIT 5d638 11c .cfa: sp 0 +
STACK CFI 5d64c .cfa: x29 48 + x19: .cfa -8 + ^ x20: .cfa -16 + ^ x21: .cfa -24 + ^ x22: .cfa -32 + ^ .ra: .cfa -40 + ^ x29: .cfa -48 + ^
STACK CFI INIT 5d758 60 .cfa: sp 0 +
STACK CFI 5d768 .cfa: x29 32 + x19: .cfa -16 + ^ .ra: .cfa -24 + ^ x29: .cfa -32 + ^
STACK CFI INIT 5d7b8 174 .cfa: sp 0 +
STACK CFI 5d7d4 .cfa: x29 80 + x19: .cfa -8 + ^ x20: .cfa -16 + ^ x21: .cfa -24 + ^ x22: .cfa -32 + ^ x23: .cfa -40 + ^ x24: .cfa -48 + ^ x25: .cfa -64 + ^ .ra: .cfa -72 + ^ x29: .cfa -80 + ^
STACK CFI INIT 5d930 c .cfa: sp 0 +
STACK CFI INIT 5d940 180 .cfa: sp 0 +
STACK CFI 5d960 .cfa: x29 96 + x19: .cfa -8 + ^ x20: .cfa -16 + ^ x21: .cfa -24 + ^ x22: .cfa -32 + ^ x23: .cfa -40 + ^ x24: .cfa -48 + ^ x25: .cfa -56 + ^ x26: .cfa -64 + ^ x27: .cfa -72 + ^ x28: .cfa -80 + ^ .ra: .cfa -88 + ^ x29: .cfa -96 + ^
STACK CFI INIT 5dac0 c .cfa: sp 0 +
STACK CFI INIT 5dad0 40 .cfa: sp 0 +
STACK CFI 5dadc .cfa: x29 32 + x19: .cfa -16 + ^ .ra: .cfa -24 + ^ x29: .cfa -32 + ^
STACK CFI INIT 5db10 2c .cfa: sp 0 +
STACK CFI 5db1c .cfa: x29 32 + x19: .cfa -16 + ^ .ra: .cfa -24 + ^ x29: .cfa -32 + ^
STACK CFI INIT 5db40 24 .cfa: sp 0 +
STACK CFI INIT 5db68 14 .cfa: sp 0 +
STACK CFI INIT 5db80 10 .cfa: sp 0 +
STACK CFI INIT 5db90 14 .cfa: sp 0 +
STACK CFI INIT 5dba8 14 .cfa: sp 0 +
STACK CFI INIT 5dbc0 14 .cfa: sp 0 +
STACK CFI INIT 5dbd8 14 .cfa: sp 0 +
STACK CFI INIT 5dbf0 14 .cfa: sp 0 +
STACK CFI INIT 5dc08 14 .cfa: sp 0 +
STACK CFI INIT 5dc20 14 .cfa: sp 0 +
STACK CFI INIT 5dc38 14 .cfa: sp 0 +
STACK CFI INIT 5dc50 14 .cfa: sp 0 +
STACK CFI INIT 5dc68 14 .cfa: sp 0 +
STACK CFI INIT 5dc80 14 .cfa: sp 0 +
STACK CFI INIT 5dc98 10 .cfa: sp 0 +
STACK CFI INIT 5dca8 14 .cfa: sp 0 +
STACK CFI INIT 5dcc0 40 .cfa: sp 0 +
STACK CFI 5dccc .cfa: x29 32 + x19: .cfa -16 + ^ .ra: .cfa -24 + ^ x29: .cfa -32 + ^
STACK CFI INIT 5dd00 5c .cfa: sp 0 +
STACK CFI 5dd10 .cfa: x29 48 + x19: .cfa -8 + ^ x20: .cfa -16 + ^ x21: .cfa -32 + ^ .ra: .cfa -40 + ^ x29: .cfa -48 + ^
STACK CFI INIT 5dd60 cc .cfa: sp 0 +
STACK CFI 5dd74 .cfa: x29 64 + x19: .cfa -8 + ^ x20: .cfa -16 + ^ x21: .cfa -24 + ^ x22: .cfa -32 + ^ x23: .cfa -40 + ^ x24: .cfa -48 + ^ .ra: .cfa -56 + ^ x29: .cfa -64 + ^
STACK CFI INIT 5de30 94 .cfa: sp 0 +
STACK CFI 5de3c .cfa: x29 32 + x19: .cfa -8 + ^ x20: .cfa -16 + ^ .ra: .cfa -24 + ^ x29: .cfa -32 + ^
STACK CFI INIT 5dec8 a0 .cfa: sp 0 +
STACK CFI 5ded8 .cfa: x29 48 + x19: .cfa -8 + ^ x20: .cfa -16 + ^ x21: .cfa -32 + ^ .ra: .cfa -40 + ^ x29: .cfa -48 + ^
STACK CFI INIT 5df68 178 .cfa: sp 0 +
STACK CFI 5df7c .cfa: x29 48 + x19: .cfa -8 + ^ x20: .cfa -16 + ^ x21: .cfa -24 + ^ x22: .cfa -32 + ^ .ra: .cfa -40 + ^ x29: .cfa -48 + ^
STACK CFI INIT 5e0e0 8c .cfa: sp 0 +
STACK CFI 5e0ec .cfa: x29 32 + x19: .cfa -16 + ^ .ra: .cfa -24 + ^ x29: .cfa -32 + ^
STACK CFI INIT 5e170 18 .cfa: sp 0 +
STACK CFI INIT 5e188 4 .cfa: sp 0 +
STACK CFI INIT 5e190 4 .cfa: sp 0 +
STACK CFI INIT 5e198 4 .cfa: sp 0 +
STACK CFI INIT 5e1a0 4 .cfa: sp 0 +
STACK CFI INIT 5e1a8 4 .cfa: sp 0 +
STACK CFI INIT 5e1b0 4 .cfa: sp 0 +
STACK CFI INIT 5e1b8 4 .cfa: sp 0 +
STACK CFI INIT 5e1c0 18 .cfa: sp 0 +
STACK CFI INIT 5e1d8 a4 .cfa: sp 0 +
STACK CFI 5e1ec .cfa: x29 64 + x19: .cfa -8 + ^ x20: .cfa -16 + ^ x21: .cfa -24 + ^ x22: .cfa -32 + ^ x23: .cfa -48 + ^ .ra: .cfa -56 + ^ x29: .cfa -64 + ^
STACK CFI INIT 5e280 94 .cfa: sp 0 +
STACK CFI 5e294 .cfa: x29 64 + x19: .cfa -8 + ^ x20: .cfa -16 + ^ x21: .cfa -24 + ^ x22: .cfa -32 + ^ x23: .cfa -48 + ^ .ra: .cfa -56 + ^ x29: .cfa -64 + ^
STACK CFI INIT 5e318 cc .cfa: sp 0 +
STACK CFI 5e328 .cfa: x29 48 + x19: .cfa -8 + ^ x20: .cfa -16 + ^ x21: .cfa -24 + ^ x22: .cfa -32 + ^ .ra: .cfa -40 + ^ x29: .cfa -48 + ^
STACK CFI INIT 5e3e8 4 .cfa: sp 0 +
STACK CFI INIT 5e3f0 4 .cfa: sp 0 +
STACK CFI INIT 5e3f8 4 .cfa: sp 0 +
STACK CFI INIT 5e400 4 .cfa: sp 0 +
STACK CFI INIT 5e408 4 .cfa: sp 0 +
STACK CFI INIT 5e410 98 .cfa: sp 0 +
STACK CFI 5e420 .cfa: x29 48 + x19: .cfa -8 + ^ x20: .cfa -16 + ^ x21: .cfa -32 + ^ .ra: .cfa -40 + ^ x29: .cfa -48 + ^
STACK CFI INIT 5e4a8 ac .cfa: sp 0 +
STACK CFI 5e4b8 .cfa: x29 32 + x19: .cfa -8 + ^ x28: .cfa -16 + ^ .ra: .cfa -24 + ^ x29: .cfa -32 + ^
STACK CFI INIT 5e558 94 .cfa: sp 0 +
STACK CFI 5e564 .cfa: x29 32 + x19: .cfa -8 + ^ x20: .cfa -16 + ^ .ra: .cfa -24 + ^ x29: .cfa -32 + ^
STACK CFI INIT 5e5f0 1c .cfa: sp 0 +
STACK CFI 5e5f8 .cfa: x29 16 + .ra: .cfa -8 + ^ x29: .cfa -16 + ^
STACK CFI INIT 5e610 4 .cfa: sp 0 +
STACK CFI INIT 5e618 c .cfa: sp 0 +
STACK CFI INIT 5e628 c .cfa: sp 0 +
STACK CFI INIT 5e638 4 .cfa: sp 0 +
STACK CFI INIT 5e640 4 .cfa: sp 0 +
STACK CFI INIT 5e648 22c .cfa: sp 0 +
STACK CFI 5e668 .cfa: x29 96 + x19: .cfa -8 + ^ x20: .cfa -16 + ^ x21: .cfa -24 + ^ x22: .cfa -32 + ^ x23: .cfa -40 + ^ x24: .cfa -48 + ^ x25: .cfa -56 + ^ x26: .cfa -64 + ^ x27: .cfa -72 + ^ x28: .cfa -80 + ^ .ra: .cfa -88 + ^ x29: .cfa -96 + ^
STACK CFI INIT 5e878 4 .cfa: sp 0 +
STACK CFI INIT 5e880 4 .cfa: sp 0 +
STACK CFI INIT 5e888 214 .cfa: sp 0 +
STACK CFI 5e8a8 .cfa: x29 96 + x19: .cfa -8 + ^ x20: .cfa -16 + ^ x21: .cfa -24 + ^ x22: .cfa -32 + ^ x23: .cfa -40 + ^ x24: .cfa -48 + ^ x25: .cfa -56 + ^ x26: .cfa -64 + ^ x27: .cfa -72 + ^ x28: .cfa -80 + ^ .ra: .cfa -88 + ^ x29: .cfa -96 + ^
STACK CFI INIT 5eaa0 4 .cfa: sp 0 +
STACK CFI INIT 5eaa8 4 .cfa: sp 0 +
STACK CFI INIT 5eab0 4 .cfa: sp 0 +
STACK CFI INIT 5eab8 64 .cfa: sp 0 +
STACK CFI 5eac8 .cfa: x29 32 + x19: .cfa -16 + ^ .ra: .cfa -24 + ^ x29: .cfa -32 + ^
STACK CFI INIT 5eb20 e8 .cfa: sp 0 +
STACK CFI INIT 5ec08 c .cfa: sp 0 +
STACK CFI INIT 5ec18 4 .cfa: sp 0 +
STACK CFI INIT 5ec20 f4 .cfa: sp 0 +
STACK CFI 5ec38 .cfa: x29 64 + x19: .cfa -8 + ^ x20: .cfa -16 + ^ x21: .cfa -24 + ^ x22: .cfa -32 + ^ x23: .cfa -40 + ^ x24: .cfa -48 + ^ .ra: .cfa -56 + ^ x29: .cfa -64 + ^
STACK CFI INIT 5ed18 d8 .cfa: sp 0 +
STACK CFI 5ed30 .cfa: x29 64 + x19: .cfa -8 + ^ x20: .cfa -16 + ^ x21: .cfa -24 + ^ x22: .cfa -32 + ^ x23: .cfa -40 + ^ x24: .cfa -48 + ^ .ra: .cfa -56 + ^ x29: .cfa -64 + ^
STACK CFI INIT 5edf0 5c .cfa: sp 0 +
STACK CFI 5ee00 .cfa: x29 32 + x19: .cfa -16 + ^ .ra: .cfa -24 + ^ x29: .cfa -32 + ^
STACK CFI INIT 5ee50 8 .cfa: sp 0 +
STACK CFI INIT 5ee58 c .cfa: sp 0 +
STACK CFI INIT 5ee68 28 .cfa: sp 0 +
STACK CFI 5ee70 .cfa: x29 16 + .ra: .cfa -8 + ^ x29: .cfa -16 + ^
STACK CFI INIT 5ee90 20 .cfa: sp 0 +
STACK CFI 5ee98 .cfa: x29 16 + .ra: .cfa -8 + ^ x29: .cfa -16 + ^
STACK CFI INIT 5eeb0 24 .cfa: sp 0 +
STACK CFI INIT 5eed8 2c .cfa: sp 0 +
STACK CFI 5eee0 .cfa: x29 16 + .ra: .cfa -8 + ^ x29: .cfa -16 + ^
STACK CFI INIT 5ef08 dc .cfa: sp 0 +
STACK CFI 5ef18 .cfa: x29 32 + x19: .cfa -16 + ^ .ra: .cfa -24 + ^ x29: .cfa -32 + ^
STACK CFI INIT 5efe8 28 .cfa: sp 0 +
STACK CFI 5eff0 .cfa: x29 16 + .ra: .cfa -8 + ^ x29: .cfa -16 + ^
STACK CFI INIT 5f010 28 .cfa: sp 0 +
STACK CFI 5f018 .cfa: x29 16 + .ra: .cfa -8 + ^ x29: .cfa -16 + ^
STACK CFI INIT 5f038 28 .cfa: sp 0 +
STACK CFI 5f040 .cfa: x29 16 + .ra: .cfa -8 + ^ x29: .cfa -16 + ^
STACK CFI INIT 5f060 18 .cfa: sp 0 +
STACK CFI INIT 5f078 28 .cfa: sp 0 +
STACK CFI 5f080 .cfa: x29 16 + .ra: .cfa -8 + ^ x29: .cfa -16 + ^
STACK CFI INIT 5f0a0 1c .cfa: sp 0 +
STACK CFI 5f0a8 .cfa: x29 16 + .ra: .cfa -8 + ^ x29: .cfa -16 + ^
STACK CFI INIT 5f0c0 28 .cfa: sp 0 +
STACK CFI 5f0c8 .cfa: x29 16 + .ra: .cfa -8 + ^ x29: .cfa -16 + ^
STACK CFI INIT 5f0e8 58 .cfa: sp 0 +
STACK CFI 5f0f8 .cfa: x29 32 + x19: .cfa -16 + ^ .ra: .cfa -24 + ^ x29: .cfa -32 + ^
STACK CFI INIT 5f140 c .cfa: sp 0 +
STACK CFI INIT 5f150 30 .cfa: sp 0 +
STACK CFI 5f15c .cfa: x29 32 + x19: .cfa -16 + ^ .ra: .cfa -24 + ^ x29: .cfa -32 + ^
STACK CFI INIT 5f180 30 .cfa: sp 0 +
STACK CFI 5f18c .cfa: x29 32 + x19: .cfa -16 + ^ .ra: .cfa -24 + ^ x29: .cfa -32 + ^
STACK CFI INIT 5f1b0 9c .cfa: sp 0 +
STACK CFI 5f1c0 .cfa: x29 32 + x19: .cfa -8 + ^ x20: .cfa -16 + ^ .ra: .cfa -24 + ^ x29: .cfa -32 + ^
STACK CFI INIT 5f250 9c .cfa: sp 0 +
STACK CFI 5f260 .cfa: x29 32 + x19: .cfa -8 + ^ x20: .cfa -16 + ^ .ra: .cfa -24 + ^ x29: .cfa -32 + ^
STACK CFI INIT 5f2f0 b4 .cfa: sp 0 +
STACK CFI 5f304 .cfa: x29 48 + x19: .cfa -8 + ^ x20: .cfa -16 + ^ x21: .cfa -24 + ^ x22: .cfa -32 + ^ .ra: .cfa -40 + ^ x29: .cfa -48 + ^
STACK CFI INIT 5f3a8 b4 .cfa: sp 0 +
STACK CFI 5f3bc .cfa: x29 48 + x19: .cfa -8 + ^ x20: .cfa -16 + ^ x21: .cfa -24 + ^ x22: .cfa -32 + ^ .ra: .cfa -40 + ^ x29: .cfa -48 + ^
STACK CFI INIT 5f460 c0 .cfa: sp 0 +
STACK CFI 5f478 .cfa: x29 64 + x19: .cfa -8 + ^ x20: .cfa -16 + ^ x21: .cfa -24 + ^ x22: .cfa -32 + ^ x23: .cfa -48 + ^ .ra: .cfa -56 + ^ x29: .cfa -64 + ^
STACK CFI INIT 5f520 ac .cfa: sp 0 +
STACK CFI 5f534 .cfa: x29 48 + x19: .cfa -8 + ^ x20: .cfa -16 + ^ x21: .cfa -24 + ^ x22: .cfa -32 + ^ .ra: .cfa -40 + ^ x29: .cfa -48 + ^
STACK CFI INIT 5f5d0 c8 .cfa: sp 0 +
STACK CFI 5f5e4 .cfa: x29 48 + x19: .cfa -8 + ^ x20: .cfa -16 + ^ x21: .cfa -24 + ^ x22: .cfa -32 + ^ .ra: .cfa -40 + ^ x29: .cfa -48 + ^
STACK CFI INIT 5f698 124 .cfa: sp 0 +
STACK CFI 5f6b0 .cfa: x29 64 + x19: .cfa -8 + ^ x20: .cfa -16 + ^ x21: .cfa -24 + ^ x22: .cfa -32 + ^ x23: .cfa -48 + ^ .ra: .cfa -56 + ^ x29: .cfa -64 + ^
STACK CFI INIT 5f7c0 78 .cfa: sp 0 +
STACK CFI 5f7d0 .cfa: x29 32 + x19: .cfa -16 + ^ .ra: .cfa -24 + ^ x29: .cfa -32 + ^
STACK CFI INIT 5f838 74 .cfa: sp 0 +
STACK CFI 5f848 .cfa: x29 32 + x19: .cfa -16 + ^ .ra: .cfa -24 + ^ x29: .cfa -32 + ^
STACK CFI INIT 5f8b0 c .cfa: sp 0 +
STACK CFI INIT 5f8c0 c .cfa: sp 0 +
STACK CFI INIT 5f8d0 18 .cfa: sp 0 +
STACK CFI INIT 5f8e8 138 .cfa: sp 0 +
STACK CFI 5f900 .cfa: x29 64 + x19: .cfa -8 + ^ x20: .cfa -16 + ^ x21: .cfa -24 + ^ x22: .cfa -32 + ^ x28: .cfa -48 + ^ .ra: .cfa -56 + ^ x29: .cfa -64 + ^
STACK CFI INIT 5fa20 e4 .cfa: sp 0 +
STACK CFI 5fa38 .cfa: x29 64 + x19: .cfa -8 + ^ x20: .cfa -16 + ^ x21: .cfa -24 + ^ x22: .cfa -32 + ^ x23: .cfa -40 + ^ x28: .cfa -48 + ^ .ra: .cfa -56 + ^ x29: .cfa -64 + ^
STACK CFI INIT 5fb08 260 .cfa: sp 0 +
STACK CFI 5fb24 .cfa: x29 80 + x19: .cfa -8 + ^ x20: .cfa -16 + ^ x21: .cfa -24 + ^ x22: .cfa -32 + ^ x23: .cfa -40 + ^ x24: .cfa -48 + ^ x28: .cfa -64 + ^ .ra: .cfa -72 + ^ x29: .cfa -80 + ^
STACK CFI INIT 5fd68 2c .cfa: sp 0 +
STACK CFI 5fd70 .cfa: x29 16 + .ra: .cfa -8 + ^ x29: .cfa -16 + ^
STACK CFI INIT 5fd98 8 .cfa: sp 0 +
STACK CFI INIT 5fda0 68 .cfa: sp 0 +
STACK CFI 5fdb0 .cfa: x29 32 + x19: .cfa -16 + ^ .ra: .cfa -24 + ^ x29: .cfa -32 + ^
STACK CFI INIT 5fe08 c .cfa: sp 0 +
STACK CFI INIT 5fe18 10 .cfa: sp 0 +
STACK CFI INIT 5fe28 1c .cfa: sp 0 +
STACK CFI INIT 5fe48 1c .cfa: sp 0 +
STACK CFI INIT 5fe68 14 .cfa: sp 0 +
STACK CFI INIT 5fe80 1c .cfa: sp 0 +
STACK CFI INIT 5fea0 1c .cfa: sp 0 +
STACK CFI INIT 5fec0 8 .cfa: sp 0 +
STACK CFI INIT 5fec8 10 .cfa: sp 0 +
STACK CFI INIT 5fed8 1c .cfa: sp 0 +
STACK CFI INIT 5fef8 10 .cfa: sp 0 +
STACK CFI INIT 5ff08 14 .cfa: sp 0 +
STACK CFI INIT 5ff20 508 .cfa: sp 0 +
STACK CFI 5ff38 .cfa: x29 64 + x19: .cfa -8 + ^ x20: .cfa -16 + ^ x21: .cfa -24 + ^ x22: .cfa -32 + ^ x23: .cfa -40 + ^ x28: .cfa -48 + ^ .ra: .cfa -56 + ^ x29: .cfa -64 + ^
STACK CFI INIT 60428 13c .cfa: sp 0 +
STACK CFI 60440 .cfa: x29 64 + x19: .cfa -8 + ^ x20: .cfa -16 + ^ x21: .cfa -24 + ^ x22: .cfa -32 + ^ x23: .cfa -40 + ^ x24: .cfa -48 + ^ .ra: .cfa -56 + ^ x29: .cfa -64 + ^
STACK CFI INIT 60568 118 .cfa: sp 0 +
STACK CFI 60574 .cfa: x29 32 + x19: .cfa -8 + ^ x20: .cfa -16 + ^ .ra: .cfa -24 + ^ x29: .cfa -32 + ^
STACK CFI INIT 60680 54 .cfa: sp 0 +
STACK CFI 60690 .cfa: x29 32 + x19: .cfa -8 + ^ x20: .cfa -16 + ^ .ra: .cfa -24 + ^ x29: .cfa -32 + ^
STACK CFI INIT 606d8 10 .cfa: sp 0 +
STACK CFI INIT 606e8 10 .cfa: sp 0 +
STACK CFI INIT 606f8 38 .cfa: sp 0 +
STACK CFI INIT 60730 50 .cfa: sp 0 +
STACK CFI 60738 .cfa: x29 16 + .ra: .cfa -8 + ^ x29: .cfa -16 + ^
STACK CFI INIT 60780 50 .cfa: sp 0 +
STACK CFI 60788 .cfa: x29 16 + .ra: .cfa -8 + ^ x29: .cfa -16 + ^
STACK CFI INIT 607d0 50 .cfa: sp 0 +
STACK CFI 607d8 .cfa: x29 16 + .ra: .cfa -8 + ^ x29: .cfa -16 + ^
STACK CFI INIT 60820 c .cfa: sp 0 +
STACK CFI INIT 60830 10 .cfa: sp 0 +
STACK CFI INIT 60840 10 .cfa: sp 0 +
STACK CFI INIT 60850 c .cfa: sp 0 +
STACK CFI INIT 60860 5c .cfa: sp 0 +
STACK CFI 60870 .cfa: x29 32 + x19: .cfa -16 + ^ .ra: .cfa -24 + ^ x29: .cfa -32 + ^
STACK CFI INIT 608c0 10 .cfa: sp 0 +
STACK CFI INIT 608d0 38 .cfa: sp 0 +
STACK CFI 608ec .cfa: x29 16 + .ra: .cfa -8 + ^ x29: .cfa -16 + ^
STACK CFI INIT 60908 5c .cfa: sp 0 +
STACK CFI 60918 .cfa: x29 32 + x19: .cfa -16 + ^ .ra: .cfa -24 + ^ x29: .cfa -32 + ^
STACK CFI INIT 60968 50 .cfa: sp 0 +
STACK CFI 60978 .cfa: x29 32 + x19: .cfa -16 + ^ .ra: .cfa -24 + ^ x29: .cfa -32 + ^
STACK CFI INIT 609b8 c .cfa: sp 0 +
STACK CFI INIT 609c8 c .cfa: sp 0 +
STACK CFI INIT 609d8 4 .cfa: sp 0 +
STACK CFI INIT 609e0 60 .cfa: sp 0 +
STACK CFI 609e8 .cfa: x29 16 + .ra: .cfa -8 + ^ x29: .cfa -16 + ^
STACK CFI INIT 60a40 4 .cfa: sp 0 +
STACK CFI INIT 60a48 64 .cfa: sp 0 +
STACK CFI 60a50 .cfa: x29 16 + .ra: .cfa -8 + ^ x29: .cfa -16 + ^
STACK CFI INIT 60ab0 60 .cfa: sp 0 +
STACK CFI 60ab8 .cfa: x29 16 + .ra: .cfa -8 + ^ x29: .cfa -16 + ^
STACK CFI INIT 60b10 60 .cfa: sp 0 +
STACK CFI 60b18 .cfa: x29 16 + .ra: .cfa -8 + ^ x29: .cfa -16 + ^
STACK CFI INIT 60b70 60 .cfa: sp 0 +
STACK CFI 60b78 .cfa: x29 16 + .ra: .cfa -8 + ^ x29: .cfa -16 + ^
STACK CFI INIT 60bd0 4 .cfa: sp 0 +
STACK CFI INIT 60bd8 d4 .cfa: sp 0 +
STACK CFI 60bec .cfa: x29 48 + x19: .cfa -8 + ^ x20: .cfa -16 + ^ x21: .cfa -32 + ^ .ra: .cfa -40 + ^ x29: .cfa -48 + ^
STACK CFI INIT 60cb0 60 .cfa: sp 0 +
STACK CFI 60cb8 .cfa: x29 16 + .ra: .cfa -8 + ^ x29: .cfa -16 + ^
STACK CFI INIT 60d10 60 .cfa: sp 0 +
STACK CFI 60d18 .cfa: x29 16 + .ra: .cfa -8 + ^ x29: .cfa -16 + ^
STACK CFI INIT 60d70 60 .cfa: sp 0 +
STACK CFI 60d78 .cfa: x29 16 + .ra: .cfa -8 + ^ x29: .cfa -16 + ^
STACK CFI INIT 60dd0 60 .cfa: sp 0 +
STACK CFI 60dd8 .cfa: x29 16 + .ra: .cfa -8 + ^ x29: .cfa -16 + ^
STACK CFI INIT 60e30 a4 .cfa: sp 0 +
STACK CFI 60e40 .cfa: x29 48 + x19: .cfa -8 + ^ x20: .cfa -16 + ^ x21: .cfa -24 + ^ x22: .cfa -32 + ^ .ra: .cfa -40 + ^ x29: .cfa -48 + ^
STACK CFI INIT 60ed8 2c .cfa: sp 0 +
STACK CFI 60ee4 .cfa: x29 32 + x19: .cfa -8 + ^ x20: .cfa -16 + ^ .ra: .cfa -24 + ^ x29: .cfa -32 + ^
STACK CFI INIT 60f08 4 .cfa: sp 0 +
STACK CFI INIT 60f10 60 .cfa: sp 0 +
STACK CFI 60f18 .cfa: x29 16 + .ra: .cfa -8 + ^ x29: .cfa -16 + ^
STACK CFI INIT 60f70 4 .cfa: sp 0 +
STACK CFI INIT 60f78 10 .cfa: sp 0 +
STACK CFI 60f80 .cfa: x29 16 + .ra: .cfa -8 + ^ x29: .cfa -16 + ^
STACK CFI INIT 60f88 74 .cfa: sp 0 +
STACK CFI 60f98 .cfa: x29 32 + x19: .cfa -8 + ^ x20: .cfa -16 + ^ .ra: .cfa -24 + ^ x29: .cfa -32 + ^
STACK CFI INIT 61000 2c .cfa: sp 0 +
STACK CFI 61008 .cfa: x29 16 + .ra: .cfa -8 + ^ x29: .cfa -16 + ^
STACK CFI INIT 61030 4 .cfa: sp 0 +
STACK CFI INIT 61038 60 .cfa: sp 0 +
STACK CFI 61040 .cfa: x29 16 + .ra: .cfa -8 + ^ x29: .cfa -16 + ^
STACK CFI INIT 61098 4 .cfa: sp 0 +
STACK CFI INIT 610a0 4 .cfa: sp 0 +
STACK CFI INIT 610a8 60 .cfa: sp 0 +
STACK CFI 610b0 .cfa: x29 16 + .ra: .cfa -8 + ^ x29: .cfa -16 + ^
STACK CFI INIT 61108 38 .cfa: sp 0 +
STACK CFI 61118 .cfa: x29 16 + .ra: .cfa -8 + ^ x29: .cfa -16 + ^
STACK CFI INIT 61140 30 .cfa: sp 0 +
STACK CFI 61148 .cfa: x29 16 + .ra: .cfa -8 + ^ x29: .cfa -16 + ^
STACK CFI INIT 61170 16c .cfa: sp 0 +
STACK CFI 61188 .cfa: x29 64 + x19: .cfa -8 + ^ x20: .cfa -16 + ^ x21: .cfa -24 + ^ x22: .cfa -32 + ^ x23: .cfa -48 + ^ .ra: .cfa -56 + ^ x29: .cfa -64 + ^
STACK CFI INIT 612e0 8 .cfa: sp 0 +
STACK CFI INIT 612e8 14 .cfa: sp 0 +
STACK CFI INIT 61300 74 .cfa: sp 0 +
STACK CFI 61310 .cfa: x29 32 + x19: .cfa -16 + ^ .ra: .cfa -24 + ^ x29: .cfa -32 + ^
STACK CFI INIT 61378 14 .cfa: sp 0 +
STACK CFI INIT 61390 8 .cfa: sp 0 +
STACK CFI INIT 61398 8 .cfa: sp 0 +
STACK CFI INIT 613a0 1c .cfa: sp 0 +
STACK CFI INIT 613c0 14 .cfa: sp 0 +
STACK CFI INIT 613d8 1e0 .cfa: sp 0 +
STACK CFI 613f4 .cfa: x29 96 + x19: .cfa -8 + ^ x20: .cfa -16 + ^ x21: .cfa -24 + ^ x22: .cfa -32 + ^ x23: .cfa -40 + ^ x24: .cfa -48 + ^ x25: .cfa -56 + ^ x26: .cfa -64 + ^ x27: .cfa -80 + ^ .ra: .cfa -88 + ^ x29: .cfa -96 + ^
STACK CFI INIT 615b8 14 .cfa: sp 0 +
STACK CFI INIT 615d0 14 .cfa: sp 0 +
STACK CFI INIT 615e8 208 .cfa: sp 0 +
STACK CFI 61608 .cfa: x29 96 + x19: .cfa -8 + ^ x20: .cfa -16 + ^ x21: .cfa -24 + ^ x22: .cfa -32 + ^ x23: .cfa -40 + ^ x24: .cfa -48 + ^ x25: .cfa -56 + ^ x26: .cfa -64 + ^ x27: .cfa -72 + ^ x28: .cfa -80 + ^ .ra: .cfa -88 + ^ x29: .cfa -96 + ^
STACK CFI INIT 617f0 14 .cfa: sp 0 +
STACK CFI INIT 61808 4 .cfa: sp 0 +
STACK CFI INIT 61810 4 .cfa: sp 0 +
STACK CFI INIT 61818 4 .cfa: sp 0 +
STACK CFI INIT 61820 4 .cfa: sp 0 +
STACK CFI INIT 61828 4 .cfa: sp 0 +
STACK CFI INIT 61830 4 .cfa: sp 0 +
STACK CFI INIT 61838 4 .cfa: sp 0 +
STACK CFI INIT 61840 4 .cfa: sp 0 +
STACK CFI INIT 61848 4 .cfa: sp 0 +
STACK CFI INIT 61850 4 .cfa: sp 0 +
STACK CFI INIT 61858 4 .cfa: sp 0 +
STACK CFI INIT 61860 4 .cfa: sp 0 +
STACK CFI INIT 61868 1fc .cfa: sp 0 +
STACK CFI 6188c .cfa: x29 112 + x19: .cfa -8 + ^ x20: .cfa -16 + ^ x21: .cfa -24 + ^ x22: .cfa -32 + ^ x23: .cfa -40 + ^ x24: .cfa -48 + ^ x25: .cfa -56 + ^ x26: .cfa -64 + ^ x27: .cfa -72 + ^ x28: .cfa -80 + ^ .ra: .cfa -88 + ^ x29: .cfa -96 + ^ v8: .cfa -112 + ^
STACK CFI INIT 61a68 1fc .cfa: sp 0 +
STACK CFI 61a8c .cfa: x29 112 + x19: .cfa -8 + ^ x20: .cfa -16 + ^ x21: .cfa -24 + ^ x22: .cfa -32 + ^ x23: .cfa -40 + ^ x24: .cfa -48 + ^ x25: .cfa -56 + ^ x26: .cfa -64 + ^ x27: .cfa -72 + ^ x28: .cfa -80 + ^ .ra: .cfa -88 + ^ x29: .cfa -96 + ^ v8: .cfa -112 + ^
STACK CFI INIT 61c68 1f4 .cfa: sp 0 +
STACK CFI 61c88 .cfa: x29 96 + x19: .cfa -8 + ^ x20: .cfa -16 + ^ x21: .cfa -24 + ^ x22: .cfa -32 + ^ x23: .cfa -40 + ^ x24: .cfa -48 + ^ x25: .cfa -56 + ^ x26: .cfa -64 + ^ x27: .cfa -72 + ^ x28: .cfa -80 + ^ .ra: .cfa -88 + ^ x29: .cfa -96 + ^
STACK CFI INIT 61e60 8 .cfa: sp 0 +
STACK CFI INIT 61e68 8 .cfa: sp 0 +
STACK CFI INIT 61e70 8 .cfa: sp 0 +
STACK CFI INIT 61e78 24 .cfa: sp 0 +
STACK CFI 61e80 .cfa: x29 16 + .ra: .cfa -8 + ^ x29: .cfa -16 + ^
STACK CFI INIT 61ea0 1c .cfa: sp 0 +
STACK CFI INIT 61ec0 24 .cfa: sp 0 +
STACK CFI 61ec8 .cfa: x29 16 + .ra: .cfa -8 + ^ x29: .cfa -16 + ^
STACK CFI INIT 61ee8 14 .cfa: sp 0 +
STACK CFI INIT 61f00 24 .cfa: sp 0 +
STACK CFI 61f08 .cfa: x29 16 + .ra: .cfa -8 + ^ x29: .cfa -16 + ^
STACK CFI INIT 61f28 18 .cfa: sp 0 +
STACK CFI INIT 61f40 24 .cfa: sp 0 +
STACK CFI 61f48 .cfa: x29 16 + .ra: .cfa -8 + ^ x29: .cfa -16 + ^
STACK CFI INIT 61f68 10 .cfa: sp 0 +
STACK CFI INIT 61f78 24 .cfa: sp 0 +
STACK CFI 61f80 .cfa: x29 16 + .ra: .cfa -8 + ^ x29: .cfa -16 + ^
STACK CFI INIT 61fa0 10 .cfa: sp 0 +
STACK CFI INIT 61fb0 24 .cfa: sp 0 +
STACK CFI 61fb8 .cfa: x29 16 + .ra: .cfa -8 + ^ x29: .cfa -16 + ^
STACK CFI INIT 61fd8 10 .cfa: sp 0 +
STACK CFI INIT 61fe8 24 .cfa: sp 0 +
STACK CFI 61ff0 .cfa: x29 16 + .ra: .cfa -8 + ^ x29: .cfa -16 + ^
STACK CFI INIT 62010 1c .cfa: sp 0 +
STACK CFI INIT 62030 24 .cfa: sp 0 +
STACK CFI 62038 .cfa: x29 16 + .ra: .cfa -8 + ^ x29: .cfa -16 + ^
STACK CFI INIT 62058 10 .cfa: sp 0 +
STACK CFI INIT 62068 24 .cfa: sp 0 +
STACK CFI 62070 .cfa: x29 16 + .ra: .cfa -8 + ^ x29: .cfa -16 + ^
STACK CFI INIT 62090 24 .cfa: sp 0 +
STACK CFI INIT 620b8 ac .cfa: sp 0 +
STACK CFI 620c4 .cfa: x29 16 + .ra: .cfa -8 + ^ x29: .cfa -16 + ^
STACK CFI INIT 62168 9c .cfa: sp 0 +
STACK CFI 62174 .cfa: x29 16 + .ra: .cfa -8 + ^ x29: .cfa -16 + ^
STACK CFI INIT 62208 a8 .cfa: sp 0 +
STACK CFI 62214 .cfa: x29 16 + .ra: .cfa -8 + ^ x29: .cfa -16 + ^
STACK CFI INIT 622b0 24 .cfa: sp 0 +
STACK CFI 622b8 .cfa: x29 16 + .ra: .cfa -8 + ^ x29: .cfa -16 + ^
STACK CFI INIT 622d8 24 .cfa: sp 0 +
STACK CFI 622e0 .cfa: x29 16 + .ra: .cfa -8 + ^ x29: .cfa -16 + ^
STACK CFI INIT 62300 24 .cfa: sp 0 +
STACK CFI 62308 .cfa: x29 16 + .ra: .cfa -8 + ^ x29: .cfa -16 + ^
STACK CFI INIT 62328 ac .cfa: sp 0 +
STACK CFI 62334 .cfa: x29 16 + .ra: .cfa -8 + ^ x29: .cfa -16 + ^
STACK CFI INIT 623d8 9c .cfa: sp 0 +
STACK CFI 623e4 .cfa: x29 16 + .ra: .cfa -8 + ^ x29: .cfa -16 + ^
STACK CFI INIT 62478 24 .cfa: sp 0 +
STACK CFI 62480 .cfa: x29 16 + .ra: .cfa -8 + ^ x29: .cfa -16 + ^
STACK CFI INIT 624a0 24 .cfa: sp 0 +
STACK CFI 624a8 .cfa: x29 16 + .ra: .cfa -8 + ^ x29: .cfa -16 + ^
STACK CFI INIT 624c8 24 .cfa: sp 0 +
STACK CFI 624d0 .cfa: x29 16 + .ra: .cfa -8 + ^ x29: .cfa -16 + ^
STACK CFI INIT 624f0 a8 .cfa: sp 0 +
STACK CFI 624fc .cfa: x29 16 + .ra: .cfa -8 + ^ x29: .cfa -16 + ^
STACK CFI INIT 62598 24 .cfa: sp 0 +
STACK CFI 625a0 .cfa: x29 16 + .ra: .cfa -8 + ^ x29: .cfa -16 + ^
STACK CFI INIT 625c0 24 .cfa: sp 0 +
STACK CFI 625c8 .cfa: x29 16 + .ra: .cfa -8 + ^ x29: .cfa -16 + ^
STACK CFI INIT 625e8 24 .cfa: sp 0 +
STACK CFI 625f0 .cfa: x29 16 + .ra: .cfa -8 + ^ x29: .cfa -16 + ^
STACK CFI INIT 62610 280 .cfa: sp 0 +
STACK CFI 6261c .cfa: x29 16 + .ra: .cfa -8 + ^ x29: .cfa -16 + ^
STACK CFI INIT 62890 4 .cfa: sp 0 +
STACK CFI INIT 62898 a0 .cfa: sp 0 +
STACK CFI 628ac .cfa: x29 16 + .ra: .cfa -8 + ^ x29: .cfa -16 + ^
STACK CFI INIT 62938 a0 .cfa: sp 0 +
STACK CFI 6294c .cfa: x29 16 + .ra: .cfa -8 + ^ x29: .cfa -16 + ^
STACK CFI INIT 629d8 a0 .cfa: sp 0 +
STACK CFI 629ec .cfa: x29 16 + .ra: .cfa -8 + ^ x29: .cfa -16 + ^
STACK CFI INIT 62a78 a0 .cfa: sp 0 +
STACK CFI 62a8c .cfa: x29 16 + .ra: .cfa -8 + ^ x29: .cfa -16 + ^
STACK CFI INIT 62b18 188 .cfa: sp 0 +
STACK CFI 62b24 .cfa: x29 32 + x19: .cfa -16 + ^ .ra: .cfa -24 + ^ x29: .cfa -32 + ^
STACK CFI INIT 62ca0 4 .cfa: sp 0 +
STACK CFI INIT 62ca8 50 .cfa: sp 0 +
STACK CFI 62cb4 .cfa: x29 32 + x19: .cfa -16 + ^ .ra: .cfa -24 + ^ x29: .cfa -32 + ^
STACK CFI INIT 62cf8 50 .cfa: sp 0 +
STACK CFI 62d04 .cfa: x29 32 + x19: .cfa -16 + ^ .ra: .cfa -24 + ^ x29: .cfa -32 + ^
STACK CFI INIT 62d48 150 .cfa: sp 0 +
STACK CFI 62d54 .cfa: x29 16 + .ra: .cfa -8 + ^ x29: .cfa -16 + ^
STACK CFI INIT 62e98 4 .cfa: sp 0 +
STACK CFI INIT 62ea0 120 .cfa: sp 0 +
STACK CFI 62eac .cfa: x29 32 + x19: .cfa -16 + ^ .ra: .cfa -24 + ^ x29: .cfa -32 + ^
STACK CFI INIT 62fc0 24 .cfa: sp 0 +
STACK CFI 62fcc .cfa: x29 32 + x19: .cfa -16 + ^ .ra: .cfa -24 + ^ x29: .cfa -32 + ^
STACK CFI INIT 62fe8 8 .cfa: sp 0 +
STACK CFI INIT 62ff0 10 .cfa: sp 0 +
STACK CFI INIT 63000 18 .cfa: sp 0 +
STACK CFI 63008 .cfa: x29 16 + .ra: .cfa -8 + ^ x29: .cfa -16 + ^
STACK CFI INIT 63018 5c .cfa: sp 0 +
STACK CFI 63024 .cfa: x29 32 + x19: .cfa -16 + ^ .ra: .cfa -24 + ^ x29: .cfa -32 + ^
STACK CFI INIT 63078 3f8 .cfa: sp 0 +
STACK CFI 63098 .cfa: x29 96 + x19: .cfa -8 + ^ x20: .cfa -16 + ^ x21: .cfa -24 + ^ x22: .cfa -32 + ^ x23: .cfa -40 + ^ x24: .cfa -48 + ^ x25: .cfa -56 + ^ x26: .cfa -64 + ^ x27: .cfa -72 + ^ x28: .cfa -80 + ^ .ra: .cfa -88 + ^ x29: .cfa -96 + ^
STACK CFI INIT 63470 8 .cfa: sp 0 +
STACK CFI INIT 63478 460 .cfa: sp 0 +
STACK CFI 63498 .cfa: x29 96 + x19: .cfa -8 + ^ x20: .cfa -16 + ^ x21: .cfa -24 + ^ x22: .cfa -32 + ^ x23: .cfa -40 + ^ x24: .cfa -48 + ^ x25: .cfa -56 + ^ x26: .cfa -64 + ^ x27: .cfa -72 + ^ x28: .cfa -80 + ^ .ra: .cfa -88 + ^ x29: .cfa -96 + ^
STACK CFI INIT 638d8 1b0 .cfa: sp 0 +
STACK CFI 638e0 .cfa: x29 16 + .ra: .cfa -8 + ^ x29: .cfa -16 + ^
STACK CFI INIT 63a88 8 .cfa: sp 0 +
STACK CFI INIT 63a90 19c .cfa: sp 0 +
STACK CFI 63ab0 .cfa: x29 96 + x19: .cfa -8 + ^ x20: .cfa -16 + ^ x21: .cfa -24 + ^ x22: .cfa -32 + ^ x23: .cfa -40 + ^ x24: .cfa -48 + ^ x25: .cfa -56 + ^ x26: .cfa -64 + ^ x27: .cfa -72 + ^ x28: .cfa -80 + ^ .ra: .cfa -88 + ^ x29: .cfa -96 + ^
STACK CFI INIT 63c30 358 .cfa: sp 0 +
STACK CFI 63c50 .cfa: x29 96 + x19: .cfa -8 + ^ x20: .cfa -16 + ^ x21: .cfa -24 + ^ x22: .cfa -32 + ^ x23: .cfa -40 + ^ x24: .cfa -48 + ^ x25: .cfa -56 + ^ x26: .cfa -64 + ^ x27: .cfa -72 + ^ x28: .cfa -80 + ^ .ra: .cfa -88 + ^ x29: .cfa -96 + ^
STACK CFI INIT 63f88 b4 .cfa: sp 0 +
STACK CFI 63fa0 .cfa: x29 64 + x19: .cfa -8 + ^ x20: .cfa -16 + ^ x21: .cfa -24 + ^ x22: .cfa -32 + ^ x28: .cfa -48 + ^ .ra: .cfa -56 + ^ x29: .cfa -64 + ^
STACK CFI INIT 64040 b8 .cfa: sp 0 +
STACK CFI 64058 .cfa: x29 64 + x19: .cfa -8 + ^ x20: .cfa -16 + ^ x21: .cfa -24 + ^ x22: .cfa -32 + ^ x23: .cfa -40 + ^ x28: .cfa -48 + ^ .ra: .cfa -56 + ^ x29: .cfa -64 + ^
STACK CFI INIT 640f8 30 .cfa: sp 0 +
STACK CFI INIT 64128 c4 .cfa: sp 0 +
STACK CFI 64130 .cfa: x29 16 + .ra: .cfa -8 + ^ x29: .cfa -16 + ^
STACK CFI INIT 641f0 10 .cfa: sp 0 +
STACK CFI INIT 64200 c .cfa: sp 0 +
STACK CFI INIT 64210 10 .cfa: sp 0 +
STACK CFI INIT 64220 c .cfa: sp 0 +
STACK CFI INIT 64230 20 .cfa: sp 0 +
STACK CFI INIT 64250 bc .cfa: sp 0 +
STACK CFI 64264 .cfa: x29 64 + x19: .cfa -8 + ^ x20: .cfa -16 + ^ x21: .cfa -24 + ^ x22: .cfa -32 + ^ x23: .cfa -48 + ^ .ra: .cfa -56 + ^ x29: .cfa -64 + ^
STACK CFI INIT 64310 1bc .cfa: sp 0 +
STACK CFI 64328 .cfa: x29 80 + x19: .cfa -8 + ^ x20: .cfa -16 + ^ x21: .cfa -24 + ^ x22: .cfa -32 + ^ x23: .cfa -40 + ^ x24: .cfa -48 + ^ x25: .cfa -64 + ^ .ra: .cfa -72 + ^ x29: .cfa -80 + ^
STACK CFI INIT 644d0 2cc .cfa: sp 0 +
STACK CFI 644ec .cfa: x29 96 + x19: .cfa -8 + ^ x20: .cfa -16 + ^ x21: .cfa -24 + ^ x22: .cfa -32 + ^ x23: .cfa -40 + ^ x24: .cfa -48 + ^ x25: .cfa -56 + ^ x26: .cfa -64 + ^ x27: .cfa -80 + ^ .ra: .cfa -88 + ^ x29: .cfa -96 + ^
STACK CFI INIT 647a0 68 .cfa: sp 0 +
STACK CFI 647ac .cfa: x29 16 + .ra: .cfa -8 + ^ x29: .cfa -16 + ^
STACK CFI INIT 64808 29fc .cfa: sp 0 +
STACK CFI 6482c .cfa: x29 96 + x19: .cfa -8 + ^ x20: .cfa -16 + ^ x21: .cfa -24 + ^ x22: .cfa -32 + ^ x23: .cfa -40 + ^ x24: .cfa -48 + ^ x25: .cfa -56 + ^ x26: .cfa -64 + ^ x27: .cfa -72 + ^ x28: .cfa -80 + ^ .ra: .cfa -88 + ^ x29: .cfa -96 + ^
STACK CFI INIT 67208 84 .cfa: sp 0 +
STACK CFI 67218 .cfa: x29 48 + x19: .cfa -8 + ^ x20: .cfa -16 + ^ x21: .cfa -32 + ^ .ra: .cfa -40 + ^ x29: .cfa -48 + ^
STACK CFI INIT 67290 110 .cfa: sp 0 +
STACK CFI 672a0 .cfa: x29 48 + x19: .cfa -8 + ^ x20: .cfa -16 + ^ x21: .cfa -24 + ^ x22: .cfa -32 + ^ .ra: .cfa -40 + ^ x29: .cfa -48 + ^
STACK CFI INIT 673a0 1c0 .cfa: sp 0 +
STACK CFI 673bc .cfa: x29 96 + x19: .cfa -8 + ^ x20: .cfa -16 + ^ x21: .cfa -24 + ^ x22: .cfa -32 + ^ x23: .cfa -40 + ^ x24: .cfa -48 + ^ x25: .cfa -56 + ^ x26: .cfa -64 + ^ x27: .cfa -80 + ^ .ra: .cfa -88 + ^ x29: .cfa -96 + ^
STACK CFI INIT 67560 1a4 .cfa: sp 0 +
STACK CFI 6757c .cfa: x29 96 + x19: .cfa -8 + ^ x20: .cfa -16 + ^ x21: .cfa -24 + ^ x22: .cfa -32 + ^ x23: .cfa -40 + ^ x24: .cfa -48 + ^ x25: .cfa -56 + ^ x26: .cfa -64 + ^ x27: .cfa -72 + ^ x28: .cfa -80 + ^ .ra: .cfa -88 + ^ x29: .cfa -96 + ^
STACK CFI INIT 67708 e4 .cfa: sp 0 +
STACK CFI 67718 .cfa: x29 48 + x19: .cfa -8 + ^ x20: .cfa -16 + ^ x21: .cfa -24 + ^ x22: .cfa -32 + ^ .ra: .cfa -40 + ^ x29: .cfa -48 + ^
STACK CFI INIT 677f0 1c4 .cfa: sp 0 +
STACK CFI 67808 .cfa: x29 64 + x19: .cfa -8 + ^ x20: .cfa -16 + ^ x21: .cfa -24 + ^ x22: .cfa -32 + ^ x23: .cfa -40 + ^ x28: .cfa -48 + ^ .ra: .cfa -56 + ^ x29: .cfa -64 + ^
STACK CFI INIT 679b8 344 .cfa: sp 0 +
STACK CFI 679d8 .cfa: x29 96 + x19: .cfa -8 + ^ x20: .cfa -16 + ^ x21: .cfa -24 + ^ x22: .cfa -32 + ^ x23: .cfa -40 + ^ x24: .cfa -48 + ^ x25: .cfa -56 + ^ x26: .cfa -64 + ^ x27: .cfa -72 + ^ x28: .cfa -80 + ^ .ra: .cfa -88 + ^ x29: .cfa -96 + ^
STACK CFI INIT 67d00 a4 .cfa: sp 0 +
STACK CFI 67d10 .cfa: x29 32 + x19: .cfa -8 + ^ x28: .cfa -16 + ^ .ra: .cfa -24 + ^ x29: .cfa -32 + ^
STACK CFI INIT 67da8 1c .cfa: sp 0 +
STACK CFI INIT 67dc8 48 .cfa: sp 0 +
STACK CFI 67dd4 .cfa: x29 32 + x19: .cfa -8 + ^ x20: .cfa -16 + ^ .ra: .cfa -24 + ^ x29: .cfa -32 + ^
STACK CFI INIT 67e10 7c .cfa: sp 0 +
STACK CFI 67e20 .cfa: x29 32 + x19: .cfa -8 + ^ x20: .cfa -16 + ^ .ra: .cfa -24 + ^ x29: .cfa -32 + ^
STACK CFI INIT 67e90 10 .cfa: sp 0 +
STACK CFI INIT 67ea0 60 .cfa: sp 0 +
STACK CFI 67eb0 .cfa: x29 32 + x19: .cfa -16 + ^ .ra: .cfa -24 + ^ x29: .cfa -32 + ^
STACK CFI INIT 67f00 7e8 .cfa: sp 0 +
STACK CFI 67f20 .cfa: x29 96 + x19: .cfa -8 + ^ x20: .cfa -16 + ^ x21: .cfa -24 + ^ x22: .cfa -32 + ^ x23: .cfa -40 + ^ x24: .cfa -48 + ^ x25: .cfa -56 + ^ x26: .cfa -64 + ^ x27: .cfa -72 + ^ x28: .cfa -80 + ^ .ra: .cfa -88 + ^ x29: .cfa -96 + ^
STACK CFI INIT 686e8 384 .cfa: sp 0 +
STACK CFI 68704 .cfa: x29 80 + x19: .cfa -8 + ^ x20: .cfa -16 + ^ x21: .cfa -24 + ^ x22: .cfa -32 + ^ x23: .cfa -40 + ^ x24: .cfa -48 + ^ x25: .cfa -56 + ^ x26: .cfa -64 + ^ .ra: .cfa -72 + ^ x29: .cfa -80 + ^
STACK CFI INIT 68a70 2e4 .cfa: sp 0 +
STACK CFI 68a90 .cfa: x29 96 + x19: .cfa -8 + ^ x20: .cfa -16 + ^ x21: .cfa -24 + ^ x22: .cfa -32 + ^ x23: .cfa -40 + ^ x24: .cfa -48 + ^ x25: .cfa -56 + ^ x26: .cfa -64 + ^ x27: .cfa -72 + ^ x28: .cfa -80 + ^ .ra: .cfa -88 + ^ x29: .cfa -96 + ^
STACK CFI INIT 68d58 774 .cfa: sp 0 +
STACK CFI 68d78 .cfa: x29 96 + x19: .cfa -8 + ^ x20: .cfa -16 + ^ x21: .cfa -24 + ^ x22: .cfa -32 + ^ x23: .cfa -40 + ^ x24: .cfa -48 + ^ x25: .cfa -56 + ^ x26: .cfa -64 + ^ x27: .cfa -72 + ^ x28: .cfa -80 + ^ .ra: .cfa -88 + ^ x29: .cfa -96 + ^
STACK CFI INIT 694d0 168 .cfa: sp 0 +
STACK CFI 694e8 .cfa: x29 64 + x19: .cfa -8 + ^ x20: .cfa -16 + ^ x21: .cfa -24 + ^ x22: .cfa -32 + ^ x23: .cfa -48 + ^ .ra: .cfa -56 + ^ x29: .cfa -64 + ^
STACK CFI INIT 69638 59c .cfa: sp 0 +
STACK CFI 6965c .cfa: x29 96 + x19: .cfa -8 + ^ x20: .cfa -16 + ^ x21: .cfa -24 + ^ x22: .cfa -32 + ^ x23: .cfa -40 + ^ x24: .cfa -48 + ^ x25: .cfa -56 + ^ x26: .cfa -64 + ^ x27: .cfa -72 + ^ x28: .cfa -80 + ^ .ra: .cfa -88 + ^ x29: .cfa -96 + ^
STACK CFI INIT 69bd8 174 .cfa: sp 0 +
STACK CFI 69bf0 .cfa: x29 64 + x19: .cfa -8 + ^ x20: .cfa -16 + ^ x21: .cfa -24 + ^ x22: .cfa -32 + ^ x23: .cfa -40 + ^ x24: .cfa -48 + ^ .ra: .cfa -56 + ^ x29: .cfa -64 + ^
STACK CFI INIT 69d50 1f4 .cfa: sp 0 +
STACK CFI 69d74 .cfa: x29 96 + x19: .cfa -8 + ^ x20: .cfa -16 + ^ x21: .cfa -24 + ^ x22: .cfa -32 + ^ x23: .cfa -40 + ^ x24: .cfa -48 + ^ x25: .cfa -56 + ^ x26: .cfa -64 + ^ x27: .cfa -72 + ^ x28: .cfa -80 + ^ .ra: .cfa -88 + ^ x29: .cfa -96 + ^
STACK CFI INIT 69f48 120 .cfa: sp 0 +
STACK CFI 69f64 .cfa: x29 80 + x19: .cfa -8 + ^ x20: .cfa -16 + ^ x21: .cfa -24 + ^ x22: .cfa -32 + ^ x23: .cfa -40 + ^ x24: .cfa -48 + ^ x28: .cfa -64 + ^ .ra: .cfa -72 + ^ x29: .cfa -80 + ^
STACK CFI INIT 6a068 a4 .cfa: sp 0 +
STACK CFI 6a078 .cfa: x29 32 + x19: .cfa -8 + ^ x28: .cfa -16 + ^ .ra: .cfa -24 + ^ x29: .cfa -32 + ^
STACK CFI INIT 6a110 98 .cfa: sp 0 +
STACK CFI 6a120 .cfa: x29 48 + x19: .cfa -8 + ^ x20: .cfa -16 + ^ x21: .cfa -24 + ^ x22: .cfa -32 + ^ .ra: .cfa -40 + ^ x29: .cfa -48 + ^
STACK CFI INIT 6a1a8 474 .cfa: sp 0 +
STACK CFI 6a1c8 .cfa: x29 96 + x19: .cfa -8 + ^ x20: .cfa -16 + ^ x21: .cfa -24 + ^ x22: .cfa -32 + ^ x23: .cfa -40 + ^ x24: .cfa -48 + ^ x25: .cfa -56 + ^ x26: .cfa -64 + ^ x27: .cfa -72 + ^ x28: .cfa -80 + ^ .ra: .cfa -88 + ^ x29: .cfa -96 + ^
STACK CFI INIT 6a620 10c .cfa: sp 0 +
STACK CFI INIT 6a730 100 .cfa: sp 0 +
STACK CFI INIT 6a830 ac .cfa: sp 0 +
STACK CFI INIT 6a8e0 1b8 .cfa: sp 0 +
STACK CFI 6a8fc .cfa: x29 80 + x19: .cfa -8 + ^ x20: .cfa -16 + ^ x21: .cfa -24 + ^ x22: .cfa -32 + ^ x23: .cfa -40 + ^ x24: .cfa -48 + ^ x25: .cfa -56 + ^ x26: .cfa -64 + ^ .ra: .cfa -72 + ^ x29: .cfa -80 + ^
STACK CFI INIT 6aa98 10c .cfa: sp 0 +
STACK CFI 6aab0 .cfa: x29 80 + x19: .cfa -8 + ^ x20: .cfa -16 + ^ x21: .cfa -24 + ^ x22: .cfa -32 + ^ x23: .cfa -40 + ^ x24: .cfa -48 + ^ x25: .cfa -64 + ^ .ra: .cfa -72 + ^ x29: .cfa -80 + ^
STACK CFI INIT 6aba8 3fc .cfa: sp 0 +
STACK CFI 6abc8 .cfa: x29 96 + x19: .cfa -8 + ^ x20: .cfa -16 + ^ x21: .cfa -24 + ^ x22: .cfa -32 + ^ x23: .cfa -40 + ^ x24: .cfa -48 + ^ x25: .cfa -56 + ^ x26: .cfa -64 + ^ x27: .cfa -72 + ^ x28: .cfa -80 + ^ .ra: .cfa -88 + ^ x29: .cfa -96 + ^
STACK CFI INIT 6afa8 c4 .cfa: sp 0 +
STACK CFI 6afc0 .cfa: x29 80 + x19: .cfa -8 + ^ x20: .cfa -16 + ^ x21: .cfa -24 + ^ x22: .cfa -32 + ^ x23: .cfa -40 + ^ x24: .cfa -48 + ^ x25: .cfa -64 + ^ .ra: .cfa -72 + ^ x29: .cfa -80 + ^
STACK CFI INIT 6b070 68 .cfa: sp 0 +
STACK CFI 6b07c .cfa: x29 32 + x19: .cfa -8 + ^ x20: .cfa -16 + ^ .ra: .cfa -24 + ^ x29: .cfa -32 + ^
STACK CFI INIT 6b0d8 294 .cfa: sp 0 +
STACK CFI 6b0f8 .cfa: x29 96 + x19: .cfa -8 + ^ x20: .cfa -16 + ^ x21: .cfa -24 + ^ x22: .cfa -32 + ^ x23: .cfa -40 + ^ x24: .cfa -48 + ^ x25: .cfa -56 + ^ x26: .cfa -64 + ^ x27: .cfa -72 + ^ x28: .cfa -80 + ^ .ra: .cfa -88 + ^ x29: .cfa -96 + ^
STACK CFI INIT 6b370 3f8 .cfa: sp 0 +
STACK CFI 6b390 .cfa: x29 96 + x19: .cfa -8 + ^ x20: .cfa -16 + ^ x21: .cfa -24 + ^ x22: .cfa -32 + ^ x23: .cfa -40 + ^ x24: .cfa -48 + ^ x25: .cfa -56 + ^ x26: .cfa -64 + ^ x27: .cfa -72 + ^ x28: .cfa -80 + ^ .ra: .cfa -88 + ^ x29: .cfa -96 + ^
STACK CFI INIT 6b768 84 .cfa: sp 0 +
STACK CFI 6b77c .cfa: x29 48 + x19: .cfa -8 + ^ x20: .cfa -16 + ^ x21: .cfa -24 + ^ x22: .cfa -32 + ^ .ra: .cfa -40 + ^ x29: .cfa -48 + ^
STACK CFI INIT 6b7f0 a8 .cfa: sp 0 +
STACK CFI 6b800 .cfa: x29 48 + x19: .cfa -8 + ^ x20: .cfa -16 + ^ x21: .cfa -24 + ^ x22: .cfa -32 + ^ .ra: .cfa -40 + ^ x29: .cfa -48 + ^
STACK CFI INIT 6b898 cc .cfa: sp 0 +
STACK CFI 6b8b0 .cfa: x29 64 + x19: .cfa -8 + ^ x20: .cfa -16 + ^ x21: .cfa -24 + ^ x22: .cfa -32 + ^ x23: .cfa -40 + ^ x24: .cfa -48 + ^ .ra: .cfa -56 + ^ x29: .cfa -64 + ^
STACK CFI INIT 6b968 88 .cfa: sp 0 +
STACK CFI 6b97c .cfa: x29 64 + x19: .cfa -8 + ^ x20: .cfa -16 + ^ x21: .cfa -24 + ^ x22: .cfa -32 + ^ x23: .cfa -40 + ^ x24: .cfa -48 + ^ .ra: .cfa -56 + ^ x29: .cfa -64 + ^
STACK CFI INIT 6b9f0 6c .cfa: sp 0 +
STACK CFI 6ba04 .cfa: x29 64 + x19: .cfa -8 + ^ x20: .cfa -16 + ^ x21: .cfa -24 + ^ x22: .cfa -32 + ^ x23: .cfa -48 + ^ .ra: .cfa -56 + ^ x29: .cfa -64 + ^
STACK CFI INIT 6ba60 6c .cfa: sp 0 +
STACK CFI 6ba74 .cfa: x29 64 + x19: .cfa -8 + ^ x20: .cfa -16 + ^ x21: .cfa -24 + ^ x22: .cfa -32 + ^ x23: .cfa -40 + ^ x24: .cfa -48 + ^ .ra: .cfa -56 + ^ x29: .cfa -64 + ^
STACK CFI INIT 6bad0 ac .cfa: sp 0 +
STACK CFI 6bae8 .cfa: x29 64 + x19: .cfa -8 + ^ x20: .cfa -16 + ^ x21: .cfa -24 + ^ x22: .cfa -32 + ^ x23: .cfa -40 + ^ x24: .cfa -48 + ^ .ra: .cfa -56 + ^ x29: .cfa -64 + ^
STACK CFI INIT 6bb80 6c .cfa: sp 0 +
STACK CFI 6bb94 .cfa: x29 64 + x19: .cfa -8 + ^ x20: .cfa -16 + ^ x21: .cfa -24 + ^ x22: .cfa -32 + ^ x23: .cfa -40 + ^ x24: .cfa -48 + ^ .ra: .cfa -56 + ^ x29: .cfa -64 + ^
STACK CFI INIT 6bbf0 a0 .cfa: sp 0 +
STACK CFI 6bc00 .cfa: x29 48 + x19: .cfa -8 + ^ x20: .cfa -16 + ^ x21: .cfa -24 + ^ x22: .cfa -32 + ^ .ra: .cfa -40 + ^ x29: .cfa -48 + ^
STACK CFI INIT 6bc90 3bc .cfa: sp 0 +
STACK CFI 6bcb0 .cfa: x29 96 + x19: .cfa -8 + ^ x20: .cfa -16 + ^ x21: .cfa -24 + ^ x22: .cfa -32 + ^ x23: .cfa -40 + ^ x24: .cfa -48 + ^ x25: .cfa -56 + ^ x26: .cfa -64 + ^ x27: .cfa -72 + ^ x28: .cfa -80 + ^ .ra: .cfa -88 + ^ x29: .cfa -96 + ^
STACK CFI INIT 6c050 1ec .cfa: sp 0 +
STACK CFI 6c068 .cfa: x29 64 + x19: .cfa -8 + ^ x20: .cfa -16 + ^ x21: .cfa -24 + ^ x22: .cfa -32 + ^ x23: .cfa -48 + ^ .ra: .cfa -56 + ^ x29: .cfa -64 + ^
STACK CFI INIT 6c240 a4 .cfa: sp 0 +
STACK CFI 6c244 .cfa: sp 16 +
STACK CFI INIT 6c2e8 a64 .cfa: sp 0 +
STACK CFI 6c308 .cfa: x29 96 + x19: .cfa -8 + ^ x20: .cfa -16 + ^ x21: .cfa -24 + ^ x22: .cfa -32 + ^ x23: .cfa -40 + ^ x24: .cfa -48 + ^ x25: .cfa -56 + ^ x26: .cfa -64 + ^ x27: .cfa -72 + ^ x28: .cfa -80 + ^ .ra: .cfa -88 + ^ x29: .cfa -96 + ^
STACK CFI INIT 6cd50 168 .cfa: sp 0 +
STACK CFI 6cd5c .cfa: x29 16 + .ra: .cfa -8 + ^ x29: .cfa -16 + ^
STACK CFI INIT 6ceb8 3bc .cfa: sp 0 +
STACK CFI 6ced8 .cfa: x29 96 + x19: .cfa -8 + ^ x20: .cfa -16 + ^ x21: .cfa -24 + ^ x22: .cfa -32 + ^ x23: .cfa -40 + ^ x24: .cfa -48 + ^ x25: .cfa -56 + ^ x26: .cfa -64 + ^ x27: .cfa -72 + ^ x28: .cfa -80 + ^ .ra: .cfa -88 + ^ x29: .cfa -96 + ^
STACK CFI INIT 6d278 24 .cfa: sp 0 +
STACK CFI 6d284 .cfa: x29 16 + .ra: .cfa -8 + ^ x29: .cfa -16 + ^
STACK CFI INIT 6d2a0 428 .cfa: sp 0 +
STACK CFI 6d2c0 .cfa: x29 96 + x19: .cfa -8 + ^ x20: .cfa -16 + ^ x21: .cfa -24 + ^ x22: .cfa -32 + ^ x23: .cfa -40 + ^ x24: .cfa -48 + ^ x25: .cfa -56 + ^ x26: .cfa -64 + ^ x27: .cfa -72 + ^ x28: .cfa -80 + ^ .ra: .cfa -88 + ^ x29: .cfa -96 + ^
STACK CFI INIT 6d6c8 ac .cfa: sp 0 +
STACK CFI 6d6d8 .cfa: x29 32 + x19: .cfa -8 + ^ x28: .cfa -16 + ^ .ra: .cfa -24 + ^ x29: .cfa -32 + ^
STACK CFI INIT 6d778 1dc .cfa: sp 0 +
STACK CFI 6d794 .cfa: x29 80 + x19: .cfa -8 + ^ x20: .cfa -16 + ^ x21: .cfa -24 + ^ x22: .cfa -32 + ^ x23: .cfa -40 + ^ x24: .cfa -48 + ^ x28: .cfa -64 + ^ .ra: .cfa -72 + ^ x29: .cfa -80 + ^
STACK CFI INIT 6d958 170 .cfa: sp 0 +
STACK CFI 6d974 .cfa: x29 96 + x19: .cfa -8 + ^ x20: .cfa -16 + ^ x21: .cfa -24 + ^ x22: .cfa -32 + ^ x23: .cfa -40 + ^ x24: .cfa -48 + ^ x25: .cfa -56 + ^ x26: .cfa -64 + ^ x27: .cfa -72 + ^ x28: .cfa -80 + ^ .ra: .cfa -88 + ^ x29: .cfa -96 + ^
STACK CFI INIT 6dac8 1c .cfa: sp 0 +
STACK CFI 6dad0 .cfa: x29 16 + .ra: .cfa -8 + ^ x29: .cfa -16 + ^
STACK CFI INIT 6dae8 1c .cfa: sp 0 +
STACK CFI 6daf0 .cfa: x29 16 + .ra: .cfa -8 + ^ x29: .cfa -16 + ^
STACK CFI INIT 6db08 20 .cfa: sp 0 +
STACK CFI 6db10 .cfa: x29 16 + .ra: .cfa -8 + ^ x29: .cfa -16 + ^
STACK CFI INIT 6db28 88 .cfa: sp 0 +
STACK CFI 6db3c .cfa: x29 64 + x19: .cfa -8 + ^ x20: .cfa -16 + ^ x21: .cfa -24 + ^ x22: .cfa -32 + ^ x23: .cfa -48 + ^ .ra: .cfa -56 + ^ x29: .cfa -64 + ^
STACK CFI INIT 6dbb0 84 .cfa: sp 0 +
STACK CFI 6dbc4 .cfa: x29 64 + x19: .cfa -8 + ^ x20: .cfa -16 + ^ x21: .cfa -24 + ^ x22: .cfa -32 + ^ x23: .cfa -48 + ^ .ra: .cfa -56 + ^ x29: .cfa -64 + ^
STACK CFI INIT 6dc38 19c .cfa: sp 0 +
STACK CFI 6dc58 .cfa: x29 96 + x19: .cfa -8 + ^ x20: .cfa -16 + ^ x21: .cfa -24 + ^ x22: .cfa -32 + ^ x23: .cfa -40 + ^ x24: .cfa -48 + ^ x25: .cfa -56 + ^ x26: .cfa -64 + ^ x27: .cfa -72 + ^ x28: .cfa -80 + ^ .ra: .cfa -88 + ^ x29: .cfa -96 + ^
STACK CFI INIT 6ddd8 50 .cfa: sp 0 +
STACK CFI 6dde4 .cfa: x29 32 + x19: .cfa -16 + ^ .ra: .cfa -24 + ^ x29: .cfa -32 + ^
STACK CFI INIT 6de28 48 .cfa: sp 0 +
STACK CFI 6de34 .cfa: x29 32 + x19: .cfa -16 + ^ .ra: .cfa -24 + ^ x29: .cfa -32 + ^
STACK CFI INIT 6de70 34 .cfa: sp 0 +
STACK CFI 6de7c .cfa: x29 32 + x19: .cfa -16 + ^ .ra: .cfa -24 + ^ x29: .cfa -32 + ^
STACK CFI INIT 6dea8 534 .cfa: sp 0 +
STACK CFI 6dec8 .cfa: x29 96 + x19: .cfa -8 + ^ x20: .cfa -16 + ^ x21: .cfa -24 + ^ x22: .cfa -32 + ^ x23: .cfa -40 + ^ x24: .cfa -48 + ^ x25: .cfa -56 + ^ x26: .cfa -64 + ^ x27: .cfa -72 + ^ x28: .cfa -80 + ^ .ra: .cfa -88 + ^ x29: .cfa -96 + ^
STACK CFI INIT 6e3e0 178 .cfa: sp 0 +
STACK CFI 6e3f0 .cfa: x29 48 + x19: .cfa -8 + ^ x20: .cfa -16 + ^ x21: .cfa -32 + ^ .ra: .cfa -40 + ^ x29: .cfa -48 + ^
STACK CFI INIT 6e558 164 .cfa: sp 0 +
STACK CFI 6e56c .cfa: x29 48 + x19: .cfa -8 + ^ x20: .cfa -16 + ^ x21: .cfa -32 + ^ .ra: .cfa -40 + ^ x29: .cfa -48 + ^
STACK CFI INIT 6e6c0 34 .cfa: sp 0 +
STACK CFI INIT 6e6f8 108 .cfa: sp 0 +
STACK CFI 6e70c .cfa: x29 48 + x19: .cfa -8 + ^ x20: .cfa -16 + ^ x21: .cfa -24 + ^ x22: .cfa -32 + ^ .ra: .cfa -40 + ^ x29: .cfa -48 + ^
STACK CFI INIT 6e800 368 .cfa: sp 0 +
STACK CFI INIT 6eb68 29c .cfa: sp 0 +
STACK CFI 6eb88 .cfa: x29 96 + x19: .cfa -8 + ^ x20: .cfa -16 + ^ x21: .cfa -24 + ^ x22: .cfa -32 + ^ x23: .cfa -40 + ^ x24: .cfa -48 + ^ x25: .cfa -56 + ^ x26: .cfa -64 + ^ x27: .cfa -80 + ^ .ra: .cfa -88 + ^ x29: .cfa -96 + ^
STACK CFI INIT 6ee08 30 .cfa: sp 0 +
STACK CFI 6ee10 .cfa: x29 16 + .ra: .cfa -8 + ^ x29: .cfa -16 + ^
STACK CFI INIT 6ee38 38c .cfa: sp 0 +
STACK CFI 6ee58 .cfa: x29 96 + x19: .cfa -8 + ^ x20: .cfa -16 + ^ x21: .cfa -24 + ^ x22: .cfa -32 + ^ x23: .cfa -40 + ^ x24: .cfa -48 + ^ x25: .cfa -56 + ^ x26: .cfa -64 + ^ x27: .cfa -72 + ^ x28: .cfa -80 + ^ .ra: .cfa -88 + ^ x29: .cfa -96 + ^
STACK CFI INIT 6f1c8 474 .cfa: sp 0 +
STACK CFI 6f1e8 .cfa: x29 96 + x19: .cfa -8 + ^ x20: .cfa -16 + ^ x21: .cfa -24 + ^ x22: .cfa -32 + ^ x23: .cfa -40 + ^ x24: .cfa -48 + ^ x25: .cfa -56 + ^ x26: .cfa -64 + ^ x27: .cfa -72 + ^ x28: .cfa -80 + ^ .ra: .cfa -88 + ^ x29: .cfa -96 + ^
STACK CFI INIT 6f640 9c .cfa: sp 0 +
STACK CFI 6f64c .cfa: x29 32 + x19: .cfa -8 + ^ x20: .cfa -16 + ^ .ra: .cfa -24 + ^ x29: .cfa -32 + ^
STACK CFI INIT 6f6e0 ec .cfa: sp 0 +
STACK CFI 6f6f0 .cfa: x29 48 + x19: .cfa -8 + ^ x20: .cfa -16 + ^ x21: .cfa -24 + ^ x22: .cfa -32 + ^ .ra: .cfa -40 + ^ x29: .cfa -48 + ^
STACK CFI INIT 6f7d0 bc .cfa: sp 0 +
STACK CFI 6f7e0 .cfa: x29 48 + x19: .cfa -8 + ^ x20: .cfa -16 + ^ x21: .cfa -24 + ^ x22: .cfa -32 + ^ .ra: .cfa -40 + ^ x29: .cfa -48 + ^
STACK CFI INIT 6f890 49c .cfa: sp 0 +
STACK CFI 6f8b0 .cfa: x29 96 + x19: .cfa -8 + ^ x20: .cfa -16 + ^ x21: .cfa -24 + ^ x22: .cfa -32 + ^ x23: .cfa -40 + ^ x24: .cfa -48 + ^ x25: .cfa -56 + ^ x26: .cfa -64 + ^ x27: .cfa -72 + ^ x28: .cfa -80 + ^ .ra: .cfa -88 + ^ x29: .cfa -96 + ^
STACK CFI INIT 6fd30 a4 .cfa: sp 0 +
STACK CFI 6fd40 .cfa: x29 32 + x19: .cfa -8 + ^ x28: .cfa -16 + ^ .ra: .cfa -24 + ^ x29: .cfa -32 + ^
STACK CFI INIT 6fdd8 270 .cfa: sp 0 +
STACK CFI 6fde8 .cfa: x29 32 + x19: .cfa -8 + ^ x20: .cfa -16 + ^ .ra: .cfa -24 + ^ x29: .cfa -32 + ^
STACK CFI INIT 70048 30c .cfa: sp 0 +
STACK CFI 70064 .cfa: x29 96 + x19: .cfa -8 + ^ x20: .cfa -16 + ^ x21: .cfa -24 + ^ x22: .cfa -32 + ^ x23: .cfa -40 + ^ x24: .cfa -48 + ^ x25: .cfa -56 + ^ x26: .cfa -64 + ^ x27: .cfa -72 + ^ x28: .cfa -80 + ^ .ra: .cfa -88 + ^ x29: .cfa -96 + ^
STACK CFI INIT 70358 a4 .cfa: sp 0 +
STACK CFI 7036c .cfa: x29 64 + x19: .cfa -8 + ^ x20: .cfa -16 + ^ x21: .cfa -24 + ^ x22: .cfa -32 + ^ x23: .cfa -48 + ^ .ra: .cfa -56 + ^ x29: .cfa -64 + ^
STACK CFI INIT 70400 d8 .cfa: sp 0 +
STACK CFI 7041c .cfa: x29 64 + x19: .cfa -8 + ^ x20: .cfa -16 + ^ x21: .cfa -24 + ^ x22: .cfa -32 + ^ x23: .cfa -48 + ^ .ra: .cfa -56 + ^ x29: .cfa -64 + ^
STACK CFI INIT 704d8 3c .cfa: sp 0 +
STACK CFI 704e4 .cfa: x29 32 + x19: .cfa -16 + ^ .ra: .cfa -24 + ^ x29: .cfa -32 + ^
STACK CFI INIT 70518 8 .cfa: sp 0 +
STACK CFI INIT 70520 60 .cfa: sp 0 +
STACK CFI 70530 .cfa: x29 32 + x19: .cfa -8 + ^ x20: .cfa -16 + ^ .ra: .cfa -24 + ^ x29: .cfa -32 + ^
STACK CFI INIT 70580 ac .cfa: sp 0 +
STACK CFI INIT 70630 164 .cfa: sp 0 +
STACK CFI INIT 70798 11c .cfa: sp 0 +
STACK CFI INIT 708b8 28 .cfa: sp 0 +
STACK CFI INIT 708e0 4 .cfa: sp 0 +
STACK CFI INIT 708e8 4 .cfa: sp 0 +
STACK CFI INIT 708f0 4 .cfa: sp 0 +
STACK CFI INIT 708f8 4 .cfa: sp 0 +
STACK CFI INIT 70900 28 .cfa: sp 0 +
STACK CFI 70908 .cfa: x29 16 + .ra: .cfa -8 + ^ x29: .cfa -16 + ^
STACK CFI INIT 70928 8c .cfa: sp 0 +
STACK CFI 70934 .cfa: x29 32 + x19: .cfa -16 + ^ .ra: .cfa -24 + ^ x29: .cfa -32 + ^
STACK CFI INIT 709b8 50 .cfa: sp 0 +
STACK CFI 709c4 .cfa: x29 32 + x19: .cfa -8 + ^ x20: .cfa -16 + ^ .ra: .cfa -24 + ^ x29: .cfa -32 + ^
STACK CFI INIT 70a08 48 .cfa: sp 0 +
STACK CFI 70a14 .cfa: x29 32 + x19: .cfa -8 + ^ x20: .cfa -16 + ^ .ra: .cfa -24 + ^ x29: .cfa -32 + ^
STACK CFI INIT 70a50 54 .cfa: sp 0 +
STACK CFI 70a60 .cfa: x29 48 + x19: .cfa -8 + ^ x20: .cfa -16 + ^ x21: .cfa -32 + ^ .ra: .cfa -40 + ^ x29: .cfa -48 + ^
STACK CFI INIT 70aa8 a8 .cfa: sp 0 +
STACK CFI 70ac8 .cfa: x29 96 + x19: .cfa -8 + ^ x20: .cfa -16 + ^ x21: .cfa -24 + ^ x22: .cfa -32 + ^ x23: .cfa -40 + ^ x24: .cfa -48 + ^ x25: .cfa -56 + ^ x26: .cfa -64 + ^ x27: .cfa -80 + ^ .ra: .cfa -88 + ^ x29: .cfa -96 + ^
STACK CFI INIT 70b50 6c .cfa: sp 0 +
STACK CFI 70b64 .cfa: x29 64 + x19: .cfa -8 + ^ x20: .cfa -16 + ^ x21: .cfa -24 + ^ x22: .cfa -32 + ^ x23: .cfa -48 + ^ .ra: .cfa -56 + ^ x29: .cfa -64 + ^
STACK CFI INIT 70bc0 10 .cfa: sp 0 +
STACK CFI INIT 70bd0 10 .cfa: sp 0 +
STACK CFI INIT 70be0 14 .cfa: sp 0 +
STACK CFI INIT 70bf8 5c .cfa: sp 0 +
STACK CFI 70c08 .cfa: x29 48 + x19: .cfa -8 + ^ x20: .cfa -16 + ^ x21: .cfa -24 + ^ x22: .cfa -32 + ^ .ra: .cfa -40 + ^ x29: .cfa -48 + ^
STACK CFI INIT 70c58 c .cfa: sp 0 +
STACK CFI INIT 70c68 6c .cfa: sp 0 +
STACK CFI 70c7c .cfa: x29 64 + x19: .cfa -8 + ^ x20: .cfa -16 + ^ x21: .cfa -24 + ^ x22: .cfa -32 + ^ x23: .cfa -48 + ^ .ra: .cfa -56 + ^ x29: .cfa -64 + ^
STACK CFI INIT 70cd8 74 .cfa: sp 0 +
STACK CFI 70cec .cfa: x29 64 + x19: .cfa -8 + ^ x20: .cfa -16 + ^ x21: .cfa -24 + ^ x22: .cfa -32 + ^ x23: .cfa -40 + ^ x24: .cfa -48 + ^ .ra: .cfa -56 + ^ x29: .cfa -64 + ^
STACK CFI INIT 70d50 8 .cfa: sp 0 +
STACK CFI INIT 70d58 6d4 .cfa: sp 0 +
STACK CFI 70d78 .cfa: x29 96 + x19: .cfa -8 + ^ x20: .cfa -16 + ^ x21: .cfa -24 + ^ x22: .cfa -32 + ^ x23: .cfa -40 + ^ x24: .cfa -48 + ^ x25: .cfa -56 + ^ x26: .cfa -64 + ^ x27: .cfa -72 + ^ x28: .cfa -80 + ^ .ra: .cfa -88 + ^ x29: .cfa -96 + ^
STACK CFI INIT 71430 74 .cfa: sp 0 +
STACK CFI 7143c .cfa: x29 32 + x19: .cfa -16 + ^ .ra: .cfa -24 + ^ x29: .cfa -32 + ^
STACK CFI INIT 714a8 618 .cfa: sp 0 +
STACK CFI 714c8 .cfa: x29 96 + x19: .cfa -8 + ^ x20: .cfa -16 + ^ x21: .cfa -24 + ^ x22: .cfa -32 + ^ x23: .cfa -40 + ^ x24: .cfa -48 + ^ x25: .cfa -56 + ^ x26: .cfa -64 + ^ x27: .cfa -72 + ^ x28: .cfa -80 + ^ .ra: .cfa -88 + ^ x29: .cfa -96 + ^
STACK CFI INIT 71ac0 cc .cfa: sp 0 +
STACK CFI 71adc .cfa: x29 80 + x19: .cfa -8 + ^ x20: .cfa -16 + ^ x21: .cfa -24 + ^ x22: .cfa -32 + ^ x23: .cfa -40 + ^ x24: .cfa -48 + ^ x28: .cfa -64 + ^ .ra: .cfa -72 + ^ x29: .cfa -80 + ^
STACK CFI INIT 71b90 c0 .cfa: sp 0 +
STACK CFI 71ba8 .cfa: x29 64 + x19: .cfa -8 + ^ x20: .cfa -16 + ^ x21: .cfa -24 + ^ x22: .cfa -32 + ^ x23: .cfa -40 + ^ x28: .cfa -48 + ^ .ra: .cfa -56 + ^ x29: .cfa -64 + ^
STACK CFI INIT 71c50 80 .cfa: sp 0 +
STACK CFI 71c60 .cfa: x29 48 + x19: .cfa -8 + ^ x20: .cfa -16 + ^ x21: .cfa -24 + ^ x22: .cfa -32 + ^ .ra: .cfa -40 + ^ x29: .cfa -48 + ^
STACK CFI INIT 71cd0 e8 .cfa: sp 0 +
STACK CFI 71ce8 .cfa: x29 64 + x19: .cfa -8 + ^ x20: .cfa -16 + ^ x21: .cfa -24 + ^ x22: .cfa -32 + ^ x23: .cfa -40 + ^ x28: .cfa -48 + ^ .ra: .cfa -56 + ^ x29: .cfa -64 + ^
STACK CFI INIT 71db8 84 .cfa: sp 0 +
STACK CFI 71dc8 .cfa: x29 48 + x19: .cfa -8 + ^ x20: .cfa -16 + ^ x21: .cfa -32 + ^ .ra: .cfa -40 + ^ x29: .cfa -48 + ^
STACK CFI INIT 71e40 a0 .cfa: sp 0 +
STACK CFI 71e4c .cfa: x29 32 + x19: .cfa -8 + ^ x20: .cfa -16 + ^ .ra: .cfa -24 + ^ x29: .cfa -32 + ^
STACK CFI INIT 71ee0 8c .cfa: sp 0 +
STACK CFI 71eec .cfa: x29 32 + x19: .cfa -8 + ^ x20: .cfa -16 + ^ .ra: .cfa -24 + ^ x29: .cfa -32 + ^
STACK CFI INIT 71f70 b4 .cfa: sp 0 +
STACK CFI 71f7c .cfa: x29 32 + x19: .cfa -8 + ^ x20: .cfa -16 + ^ .ra: .cfa -24 + ^ x29: .cfa -32 + ^
STACK CFI INIT 72028 b4 .cfa: sp 0 +
STACK CFI 72034 .cfa: x29 32 + x19: .cfa -8 + ^ x20: .cfa -16 + ^ .ra: .cfa -24 + ^ x29: .cfa -32 + ^
STACK CFI INIT 720e0 1d4 .cfa: sp 0 +
STACK CFI 720ec .cfa: x29 32 + x19: .cfa -16 + ^ .ra: .cfa -24 + ^ x29: .cfa -32 + ^
STACK CFI INIT 722b8 5c .cfa: sp 0 +
STACK CFI 722c4 .cfa: x29 32 + x19: .cfa -16 + ^ .ra: .cfa -24 + ^ x29: .cfa -32 + ^
STACK CFI INIT 72318 698 .cfa: sp 0 +
STACK CFI 72330 .cfa: x29 64 + x19: .cfa -8 + ^ x20: .cfa -16 + ^ x21: .cfa -24 + ^ x22: .cfa -32 + ^ x23: .cfa -48 + ^ .ra: .cfa -56 + ^ x29: .cfa -64 + ^
STACK CFI INIT 729b0 2d8 .cfa: sp 0 +
STACK CFI INIT 72c88 410 .cfa: sp 0 +
STACK CFI 72ca8 .cfa: x29 96 + x19: .cfa -8 + ^ x20: .cfa -16 + ^ x21: .cfa -24 + ^ x22: .cfa -32 + ^ x23: .cfa -40 + ^ x24: .cfa -48 + ^ x25: .cfa -56 + ^ x26: .cfa -64 + ^ x27: .cfa -72 + ^ x28: .cfa -80 + ^ .ra: .cfa -88 + ^ x29: .cfa -96 + ^
STACK CFI INIT 73098 d0 .cfa: sp 0 +
STACK CFI 730a4 .cfa: x29 32 + x19: .cfa -16 + ^ .ra: .cfa -24 + ^ x29: .cfa -32 + ^
STACK CFI INIT 73168 90 .cfa: sp 0 +
STACK CFI 73178 .cfa: x29 32 + x19: .cfa -16 + ^ .ra: .cfa -24 + ^ x29: .cfa -32 + ^
STACK CFI INIT 731f8 1c .cfa: sp 0 +
STACK CFI 73200 .cfa: x29 16 + .ra: .cfa -8 + ^ x29: .cfa -16 + ^
STACK CFI INIT 73218 750 .cfa: sp 0 +
STACK CFI 73238 .cfa: x29 96 + x19: .cfa -8 + ^ x20: .cfa -16 + ^ x21: .cfa -24 + ^ x22: .cfa -32 + ^ x23: .cfa -40 + ^ x24: .cfa -48 + ^ x25: .cfa -56 + ^ x26: .cfa -64 + ^ x27: .cfa -72 + ^ x28: .cfa -80 + ^ .ra: .cfa -88 + ^ x29: .cfa -96 + ^
STACK CFI INIT 73968 a0 .cfa: sp 0 +
STACK CFI 73978 .cfa: x29 48 + x19: .cfa -8 + ^ x20: .cfa -16 + ^ x21: .cfa -24 + ^ x22: .cfa -32 + ^ .ra: .cfa -40 + ^ x29: .cfa -48 + ^
STACK CFI INIT 73a08 f8 .cfa: sp 0 +
STACK CFI 73a1c .cfa: x29 64 + x19: .cfa -8 + ^ x20: .cfa -16 + ^ x21: .cfa -24 + ^ x22: .cfa -32 + ^ x23: .cfa -40 + ^ x24: .cfa -48 + ^ .ra: .cfa -56 + ^ x29: .cfa -64 + ^
STACK CFI INIT 73b00 84 .cfa: sp 0 +
STACK CFI 73b10 .cfa: x29 48 + x19: .cfa -8 + ^ x20: .cfa -16 + ^ x21: .cfa -24 + ^ x22: .cfa -32 + ^ .ra: .cfa -40 + ^ x29: .cfa -48 + ^
STACK CFI INIT 73b88 38 .cfa: sp 0 +
STACK CFI INIT 73bc0 300 .cfa: sp 0 +
STACK CFI 73be0 .cfa: x29 96 + x19: .cfa -8 + ^ x20: .cfa -16 + ^ x21: .cfa -24 + ^ x22: .cfa -32 + ^ x23: .cfa -40 + ^ x24: .cfa -48 + ^ x25: .cfa -56 + ^ x26: .cfa -64 + ^ x27: .cfa -72 + ^ x28: .cfa -80 + ^ .ra: .cfa -88 + ^ x29: .cfa -96 + ^
STACK CFI INIT 73ec0 150 .cfa: sp 0 +
STACK CFI 73ed4 .cfa: x29 64 + x19: .cfa -8 + ^ x20: .cfa -16 + ^ x21: .cfa -24 + ^ x22: .cfa -32 + ^ x23: .cfa -48 + ^ .ra: .cfa -56 + ^ x29: .cfa -64 + ^
STACK CFI INIT 74010 258 .cfa: sp 0 +
STACK CFI 74030 .cfa: x29 96 + x19: .cfa -8 + ^ x20: .cfa -16 + ^ x21: .cfa -24 + ^ x22: .cfa -32 + ^ x23: .cfa -40 + ^ x24: .cfa -48 + ^ x25: .cfa -56 + ^ x26: .cfa -64 + ^ x27: .cfa -72 + ^ x28: .cfa -80 + ^ .ra: .cfa -88 + ^ x29: .cfa -96 + ^
STACK CFI INIT 74268 2dc .cfa: sp 0 +
STACK CFI 74288 .cfa: x29 96 + x19: .cfa -8 + ^ x20: .cfa -16 + ^ x21: .cfa -24 + ^ x22: .cfa -32 + ^ x23: .cfa -40 + ^ x24: .cfa -48 + ^ x25: .cfa -56 + ^ x26: .cfa -64 + ^ x27: .cfa -72 + ^ x28: .cfa -80 + ^ .ra: .cfa -88 + ^ x29: .cfa -96 + ^
STACK CFI INIT 74548 8 .cfa: sp 0 +
STACK CFI INIT 74550 174 .cfa: sp 0 +
STACK CFI 74570 .cfa: x29 96 + x19: .cfa -8 + ^ x20: .cfa -16 + ^ x21: .cfa -24 + ^ x22: .cfa -32 + ^ x23: .cfa -40 + ^ x24: .cfa -48 + ^ x25: .cfa -56 + ^ x26: .cfa -64 + ^ x27: .cfa -72 + ^ x28: .cfa -80 + ^ .ra: .cfa -88 + ^ x29: .cfa -96 + ^
STACK CFI INIT 746c8 134 .cfa: sp 0 +
STACK CFI INIT 74800 134 .cfa: sp 0 +
STACK CFI 74820 .cfa: x29 96 + x19: .cfa -8 + ^ x20: .cfa -16 + ^ x21: .cfa -24 + ^ x22: .cfa -32 + ^ x23: .cfa -40 + ^ x24: .cfa -48 + ^ x25: .cfa -56 + ^ x26: .cfa -64 + ^ x27: .cfa -72 + ^ x28: .cfa -80 + ^ .ra: .cfa -88 + ^ x29: .cfa -96 + ^
STACK CFI INIT 74938 16c .cfa: sp 0 +
STACK CFI 74958 .cfa: x29 96 + x19: .cfa -8 + ^ x20: .cfa -16 + ^ x21: .cfa -24 + ^ x22: .cfa -32 + ^ x23: .cfa -40 + ^ x24: .cfa -48 + ^ x25: .cfa -56 + ^ x26: .cfa -64 + ^ x27: .cfa -72 + ^ x28: .cfa -80 + ^ .ra: .cfa -88 + ^ x29: .cfa -96 + ^
STACK CFI INIT 74aa8 1cd0 .cfa: sp 0 +
STACK CFI 74acc .cfa: x29 96 + x19: .cfa -8 + ^ x20: .cfa -16 + ^ x21: .cfa -24 + ^ x22: .cfa -32 + ^ x23: .cfa -40 + ^ x24: .cfa -48 + ^ x25: .cfa -56 + ^ x26: .cfa -64 + ^ x27: .cfa -72 + ^ x28: .cfa -80 + ^ .ra: .cfa -88 + ^ x29: .cfa -96 + ^
STACK CFI INIT 76778 134 .cfa: sp 0 +
STACK CFI 76798 .cfa: x29 96 + x19: .cfa -8 + ^ x20: .cfa -16 + ^ x21: .cfa -24 + ^ x22: .cfa -32 + ^ x23: .cfa -40 + ^ x24: .cfa -48 + ^ x25: .cfa -56 + ^ x26: .cfa -64 + ^ x27: .cfa -72 + ^ x28: .cfa -80 + ^ .ra: .cfa -88 + ^ x29: .cfa -96 + ^
STACK CFI INIT 768b0 148 .cfa: sp 0 +
STACK CFI 768c8 .cfa: x29 64 + x19: .cfa -8 + ^ x20: .cfa -16 + ^ x21: .cfa -24 + ^ x22: .cfa -32 + ^ x23: .cfa -40 + ^ x24: .cfa -48 + ^ .ra: .cfa -56 + ^ x29: .cfa -64 + ^
STACK CFI INIT 769f8 14 .cfa: sp 0 +
STACK CFI INIT 76a10 40 .cfa: sp 0 +
STACK CFI 76a1c .cfa: x29 32 + x19: .cfa -16 + ^ .ra: .cfa -24 + ^ x29: .cfa -32 + ^
STACK CFI INIT 76a50 24 .cfa: sp 0 +
STACK CFI 76a58 .cfa: x29 16 + .ra: .cfa -8 + ^ x29: .cfa -16 + ^
STACK CFI INIT 76a78 b8 .cfa: sp 0 +
STACK CFI 76a88 .cfa: x29 48 + x19: .cfa -8 + ^ x20: .cfa -16 + ^ x21: .cfa -32 + ^ .ra: .cfa -40 + ^ x29: .cfa -48 + ^
STACK CFI INIT 76b30 20 .cfa: sp 0 +
STACK CFI 76b38 .cfa: x29 16 + .ra: .cfa -8 + ^ x29: .cfa -16 + ^
STACK CFI INIT 76b50 24 .cfa: sp 0 +
STACK CFI 76b58 .cfa: x29 16 + .ra: .cfa -8 + ^ x29: .cfa -16 + ^
STACK CFI INIT 76b78 64 .cfa: sp 0 +
STACK CFI INIT 76be0 10 .cfa: sp 0 +
STACK CFI INIT 76bf0 108 .cfa: sp 0 +
STACK CFI 76bf4 .cfa: sp 16 + x19: .cfa -8 + ^ x20: .cfa -16 + ^
STACK CFI INIT 76cf8 128 .cfa: sp 0 +
STACK CFI 76d08 .cfa: x29 48 + x19: .cfa -8 + ^ x20: .cfa -16 + ^ x21: .cfa -32 + ^ .ra: .cfa -40 + ^ x29: .cfa -48 + ^
STACK CFI INIT 76e20 98 .cfa: sp 0 +
STACK CFI 76e38 .cfa: x29 80 + x19: .cfa -8 + ^ x20: .cfa -16 + ^ x21: .cfa -24 + ^ x22: .cfa -32 + ^ x23: .cfa -40 + ^ x24: .cfa -48 + ^ x25: .cfa -64 + ^ .ra: .cfa -72 + ^ x29: .cfa -80 + ^
STACK CFI INIT 76eb8 2c .cfa: sp 0 +
STACK CFI INIT 76ee8 24 .cfa: sp 0 +
STACK CFI INIT 76f10 2c .cfa: sp 0 +
STACK CFI INIT 76f40 88 .cfa: sp 0 +
STACK CFI 76f50 .cfa: x29 32 + x19: .cfa -16 + ^ .ra: .cfa -24 + ^ x29: .cfa -32 + ^
STACK CFI INIT 76fc8 88 .cfa: sp 0 +
STACK CFI 76fd0 .cfa: x29 16 + .ra: .cfa -8 + ^ x29: .cfa -16 + ^
STACK CFI INIT 77050 90 .cfa: sp 0 +
STACK CFI 77058 .cfa: x29 16 + .ra: .cfa -8 + ^ x29: .cfa -16 + ^
STACK CFI INIT 770e0 90 .cfa: sp 0 +
STACK CFI 770e8 .cfa: x29 16 + .ra: .cfa -8 + ^ x29: .cfa -16 + ^
STACK CFI INIT 77170 50 .cfa: sp 0 +
STACK CFI 77178 .cfa: x29 16 + .ra: .cfa -8 + ^ x29: .cfa -16 + ^
STACK CFI INIT 771c0 80 .cfa: sp 0 +
STACK CFI 771d0 .cfa: x29 32 + x28: .cfa -16 + ^ .ra: .cfa -24 + ^ x29: .cfa -32 + ^
STACK CFI INIT 77240 2c .cfa: sp 0 +
STACK CFI 77258 .cfa: x29 16 + .ra: .cfa -8 + ^ x29: .cfa -16 + ^
STACK CFI INIT 77270 44 .cfa: sp 0 +
STACK CFI 77294 .cfa: x29 16 + .ra: .cfa -8 + ^ x29: .cfa -16 + ^
STACK CFI INIT 772b8 44 .cfa: sp 0 +
STACK CFI 772dc .cfa: x29 16 + .ra: .cfa -8 + ^ x29: .cfa -16 + ^
STACK CFI INIT 77300 3c .cfa: sp 0 +
STACK CFI 77320 .cfa: x29 16 + .ra: .cfa -8 + ^ x29: .cfa -16 + ^
STACK CFI INIT 77340 34 .cfa: sp 0 +
STACK CFI 77354 .cfa: x29 16 + .ra: .cfa -8 + ^ x29: .cfa -16 + ^
STACK CFI INIT 77378 34 .cfa: sp 0 +
STACK CFI 7738c .cfa: x29 16 + .ra: .cfa -8 + ^ x29: .cfa -16 + ^
STACK CFI INIT 773b0 4c .cfa: sp 0 +
STACK CFI 773c0 .cfa: x29 48 + x19: .cfa -8 + ^ x20: .cfa -16 + ^ x21: .cfa -32 + ^ .ra: .cfa -40 + ^ x29: .cfa -48 + ^
STACK CFI INIT 77400 28 .cfa: sp 0 +
STACK CFI 77414 .cfa: x29 16 + .ra: .cfa -8 + ^ x29: .cfa -16 + ^
STACK CFI INIT 77428 34 .cfa: sp 0 +
STACK CFI 7743c .cfa: x29 16 + .ra: .cfa -8 + ^ x29: .cfa -16 + ^
STACK CFI INIT 77460 4c .cfa: sp 0 +
STACK CFI 77470 .cfa: x29 48 + x19: .cfa -8 + ^ x20: .cfa -16 + ^ x21: .cfa -32 + ^ .ra: .cfa -40 + ^ x29: .cfa -48 + ^
STACK CFI INIT 774b0 40 .cfa: sp 0 +
STACK CFI 774d8 .cfa: x29 16 + .ra: .cfa -8 + ^ x29: .cfa -16 + ^
STACK CFI INIT 774f0 40 .cfa: sp 0 +
STACK CFI 77518 .cfa: x29 16 + .ra: .cfa -8 + ^ x29: .cfa -16 + ^
STACK CFI INIT 77530 40 .cfa: sp 0 +
STACK CFI 77558 .cfa: x29 16 + .ra: .cfa -8 + ^ x29: .cfa -16 + ^
STACK CFI INIT 77570 64 .cfa: sp 0 +
STACK CFI 77578 .cfa: x29 16 + .ra: .cfa -8 + ^ x29: .cfa -16 + ^
STACK CFI INIT 775d8 64 .cfa: sp 0 +
STACK CFI 775e0 .cfa: x29 16 + .ra: .cfa -8 + ^ x29: .cfa -16 + ^
STACK CFI INIT 77640 64 .cfa: sp 0 +
STACK CFI 77648 .cfa: x29 16 + .ra: .cfa -8 + ^ x29: .cfa -16 + ^
STACK CFI INIT 776a8 64 .cfa: sp 0 +
STACK CFI 776b0 .cfa: x29 16 + .ra: .cfa -8 + ^ x29: .cfa -16 + ^
STACK CFI INIT 77710 68 .cfa: sp 0 +
STACK CFI 77718 .cfa: x29 16 + .ra: .cfa -8 + ^ x29: .cfa -16 + ^
STACK CFI INIT 77778 5c .cfa: sp 0 +
STACK CFI 77780 .cfa: x29 16 + .ra: .cfa -8 + ^ x29: .cfa -16 + ^
STACK CFI INIT 777d8 68 .cfa: sp 0 +
STACK CFI 777e0 .cfa: x29 16 + .ra: .cfa -8 + ^ x29: .cfa -16 + ^
STACK CFI INIT 77840 40 .cfa: sp 0 +
STACK CFI 77860 .cfa: x29 16 + .ra: .cfa -8 + ^ x29: .cfa -16 + ^
STACK CFI INIT 77880 40 .cfa: sp 0 +
STACK CFI 778a0 .cfa: x29 16 + .ra: .cfa -8 + ^ x29: .cfa -16 + ^
STACK CFI INIT 778c0 68 .cfa: sp 0 +
STACK CFI 778d0 .cfa: x29 48 + x19: .cfa -8 + ^ x20: .cfa -16 + ^ x21: .cfa -32 + ^ .ra: .cfa -40 + ^ x29: .cfa -48 + ^
STACK CFI INIT 77928 34 .cfa: sp 0 +
STACK CFI 7793c .cfa: x29 16 + .ra: .cfa -8 + ^ x29: .cfa -16 + ^
STACK CFI INIT 77960 b0 .cfa: sp 0 +
STACK CFI 7796c .cfa: x29 32 + x19: .cfa -16 + ^ .ra: .cfa -24 + ^ x29: .cfa -32 + ^
STACK CFI INIT 77a10 40 .cfa: sp 0 +
STACK CFI 77a18 .cfa: x29 16 + .ra: .cfa -8 + ^ x29: .cfa -16 + ^
STACK CFI INIT 77a50 34 .cfa: sp 0 +
STACK CFI 77a64 .cfa: x29 16 + .ra: .cfa -8 + ^ x29: .cfa -16 + ^
STACK CFI INIT 77a88 34 .cfa: sp 0 +
STACK CFI 77a9c .cfa: x29 16 + .ra: .cfa -8 + ^ x29: .cfa -16 + ^
STACK CFI INIT 77ac0 34 .cfa: sp 0 +
STACK CFI 77acc .cfa: x29 32 + x19: .cfa -16 + ^ .ra: .cfa -24 + ^ x29: .cfa -32 + ^
STACK CFI INIT 77af8 8c .cfa: sp 0 +
STACK CFI 77b08 .cfa: x29 48 + x19: .cfa -8 + ^ x20: .cfa -16 + ^ x21: .cfa -24 + ^ x22: .cfa -32 + ^ .ra: .cfa -40 + ^ x29: .cfa -48 + ^
STACK CFI INIT 77b88 34 .cfa: sp 0 +
STACK CFI 77b9c .cfa: x29 16 + .ra: .cfa -8 + ^ x29: .cfa -16 + ^
STACK CFI INIT 77bc0 b0 .cfa: sp 0 +
STACK CFI 77bcc .cfa: x29 32 + x19: .cfa -16 + ^ .ra: .cfa -24 + ^ x29: .cfa -32 + ^
STACK CFI INIT 77c70 44 .cfa: sp 0 +
STACK CFI 77c78 .cfa: x29 16 + .ra: .cfa -8 + ^ x29: .cfa -16 + ^
STACK CFI INIT 77cb8 28 .cfa: sp 0 +
STACK CFI 77cd4 .cfa: x29 16 + .ra: .cfa -8 + ^ x29: .cfa -16 + ^
STACK CFI INIT 77ce0 88 .cfa: sp 0 +
STACK CFI 77cf0 .cfa: x29 32 + x19: .cfa -16 + ^ .ra: .cfa -24 + ^ x29: .cfa -32 + ^
STACK CFI INIT 77d68 d4 .cfa: sp 0 +
STACK CFI 77d78 .cfa: x29 32 + x19: .cfa -8 + ^ x28: .cfa -16 + ^ .ra: .cfa -24 + ^ x29: .cfa -32 + ^
STACK CFI INIT 77e40 98 .cfa: sp 0 +
STACK CFI 77e50 .cfa: x29 32 + x19: .cfa -8 + ^ x20: .cfa -16 + ^ .ra: .cfa -24 + ^ x29: .cfa -32 + ^
STACK CFI INIT 77ed8 e8 .cfa: sp 0 +
STACK CFI 77eec .cfa: x29 48 + x19: .cfa -8 + ^ x20: .cfa -16 + ^ x28: .cfa -32 + ^ .ra: .cfa -40 + ^ x29: .cfa -48 + ^
STACK CFI INIT 77fc0 68 .cfa: sp 0 +
STACK CFI 77fc8 .cfa: x29 16 + .ra: .cfa -8 + ^ x29: .cfa -16 + ^
STACK CFI INIT 78028 74 .cfa: sp 0 +
STACK CFI 78038 .cfa: x29 48 + x19: .cfa -8 + ^ x20: .cfa -16 + ^ x21: .cfa -32 + ^ .ra: .cfa -40 + ^ x29: .cfa -48 + ^
STACK CFI INIT 780a0 68 .cfa: sp 0 +
STACK CFI 780b0 .cfa: x29 48 + x19: .cfa -8 + ^ x20: .cfa -16 + ^ x21: .cfa -32 + ^ .ra: .cfa -40 + ^ x29: .cfa -48 + ^
STACK CFI INIT 78108 7c .cfa: sp 0 +
STACK CFI 78114 .cfa: x29 32 + x19: .cfa -8 + ^ x20: .cfa -16 + ^ .ra: .cfa -24 + ^ x29: .cfa -32 + ^
STACK CFI INIT 78190 14 .cfa: sp 0 +
STACK CFI 781a0 .cfa: sp 16 + x29: .cfa -16 + ^ .ra: .cfa -8 + ^
STACK CFI INIT 781a8 144 .cfa: sp 0 +
STACK CFI INIT 782f0 10 .cfa: sp 0 +
STACK CFI INIT 78300 710 .cfa: sp 0 +
STACK CFI 78320 .cfa: x29 96 + x19: .cfa -8 + ^ x20: .cfa -16 + ^ x21: .cfa -24 + ^ x22: .cfa -32 + ^ x23: .cfa -40 + ^ x24: .cfa -48 + ^ x25: .cfa -56 + ^ x26: .cfa -64 + ^ x27: .cfa -72 + ^ x28: .cfa -80 + ^ .ra: .cfa -88 + ^ x29: .cfa -96 + ^
STACK CFI INIT 78a10 8 .cfa: sp 0 +
STACK CFI INIT 78a18 8 .cfa: sp 0 +
STACK CFI INIT 78a20 b4 .cfa: sp 0 +
STACK CFI INIT 78ad8 3c8 .cfa: sp 0 +
STACK CFI 78af8 .cfa: x29 96 + x19: .cfa -8 + ^ x20: .cfa -16 + ^ x21: .cfa -24 + ^ x22: .cfa -32 + ^ x23: .cfa -40 + ^ x24: .cfa -48 + ^ x25: .cfa -56 + ^ x26: .cfa -64 + ^ x27: .cfa -72 + ^ x28: .cfa -80 + ^ .ra: .cfa -88 + ^ x29: .cfa -96 + ^
STACK CFI INIT 78ea0 8 .cfa: sp 0 +
STACK CFI INIT 78ea8 38 .cfa: sp 0 +
STACK CFI 78eb4 .cfa: x29 32 + x19: .cfa -16 + ^ .ra: .cfa -24 + ^ x29: .cfa -32 + ^
STACK CFI INIT 78ee0 b8 .cfa: sp 0 +
STACK CFI 78ef8 .cfa: x29 64 + x19: .cfa -8 + ^ x20: .cfa -16 + ^ x21: .cfa -24 + ^ x22: .cfa -32 + ^ x23: .cfa -48 + ^ .ra: .cfa -56 + ^ x29: .cfa -64 + ^
STACK CFI INIT 78f98 70 .cfa: sp 0 +
STACK CFI 78fa4 .cfa: x29 32 + x19: .cfa -8 + ^ x20: .cfa -16 + ^ .ra: .cfa -24 + ^ x29: .cfa -32 + ^
STACK CFI INIT 79008 28 .cfa: sp 0 +
STACK CFI 79014 .cfa: x29 32 + x19: .cfa -16 + ^ .ra: .cfa -24 + ^ x29: .cfa -32 + ^
STACK CFI INIT 79030 228 .cfa: sp 0 +
STACK CFI 79050 .cfa: x29 96 + x19: .cfa -8 + ^ x20: .cfa -16 + ^ x21: .cfa -24 + ^ x22: .cfa -32 + ^ x23: .cfa -40 + ^ x24: .cfa -48 + ^ x25: .cfa -56 + ^ x26: .cfa -64 + ^ x27: .cfa -72 + ^ x28: .cfa -80 + ^ .ra: .cfa -88 + ^ x29: .cfa -96 + ^
STACK CFI INIT 79258 9a4 .cfa: sp 0 +
STACK CFI 79278 .cfa: x29 96 + x19: .cfa -8 + ^ x20: .cfa -16 + ^ x21: .cfa -24 + ^ x22: .cfa -32 + ^ x23: .cfa -40 + ^ x24: .cfa -48 + ^ x25: .cfa -56 + ^ x26: .cfa -64 + ^ x27: .cfa -72 + ^ x28: .cfa -80 + ^ .ra: .cfa -88 + ^ x29: .cfa -96 + ^
STACK CFI INIT 79c00 64 .cfa: sp 0 +
STACK CFI 79c0c .cfa: x29 32 + x19: .cfa -8 + ^ x20: .cfa -16 + ^ .ra: .cfa -24 + ^ x29: .cfa -32 + ^
STACK CFI INIT 79c68 34 .cfa: sp 0 +
STACK CFI 79c74 .cfa: x29 32 + x19: .cfa -8 + ^ x20: .cfa -16 + ^ .ra: .cfa -24 + ^ x29: .cfa -32 + ^
STACK CFI INIT 79ca0 20 .cfa: sp 0 +
STACK CFI INIT 79cc0 70 .cfa: sp 0 +
STACK CFI 79ccc .cfa: x29 32 + x19: .cfa -16 + ^ .ra: .cfa -24 + ^ x29: .cfa -32 + ^
STACK CFI INIT 79d30 64 .cfa: sp 0 +
STACK CFI 79d40 .cfa: x29 48 + x19: .cfa -8 + ^ x20: .cfa -16 + ^ x21: .cfa -32 + ^ .ra: .cfa -40 + ^ x29: .cfa -48 + ^
STACK CFI INIT 79d98 24 .cfa: sp 0 +
STACK CFI INIT 79dc0 20 .cfa: sp 0 +
STACK CFI INIT 79de0 28 .cfa: sp 0 +
STACK CFI INIT 79e08 18 .cfa: sp 0 +
STACK CFI INIT 79e20 4c .cfa: sp 0 +
STACK CFI INIT 79e70 44 .cfa: sp 0 +
STACK CFI 79e7c .cfa: x29 32 + x19: .cfa -8 + ^ x20: .cfa -16 + ^ .ra: .cfa -24 + ^ x29: .cfa -32 + ^
STACK CFI INIT 79eb8 a8 .cfa: sp 0 +
STACK CFI 79ec4 .cfa: x29 32 + x19: .cfa -16 + ^ .ra: .cfa -24 + ^ x29: .cfa -32 + ^
STACK CFI INIT 79f60 18 .cfa: sp 0 +
STACK CFI INIT 79f78 7c .cfa: sp 0 +
STACK CFI 79f88 .cfa: x29 48 + x19: .cfa -8 + ^ x20: .cfa -16 + ^ x21: .cfa -24 + ^ x22: .cfa -32 + ^ .ra: .cfa -40 + ^ x29: .cfa -48 + ^
STACK CFI INIT 79ff8 38 .cfa: sp 0 +
STACK CFI INIT 7a030 30 .cfa: sp 0 +
STACK CFI INIT 7a060 68 .cfa: sp 0 +
STACK CFI 7a06c .cfa: x29 32 + x19: .cfa -16 + ^ .ra: .cfa -24 + ^ x29: .cfa -32 + ^
STACK CFI INIT 7a0c8 30 .cfa: sp 0 +
STACK CFI INIT 7a0f8 44 .cfa: sp 0 +
STACK CFI INIT 7a140 24 .cfa: sp 0 +
STACK CFI INIT 7a168 50 .cfa: sp 0 +
STACK CFI INIT 7a1b8 80 .cfa: sp 0 +
STACK CFI 7a1cc .cfa: x29 64 + x19: .cfa -8 + ^ x20: .cfa -16 + ^ x21: .cfa -24 + ^ x22: .cfa -32 + ^ x23: .cfa -48 + ^ .ra: .cfa -56 + ^ x29: .cfa -64 + ^
STACK CFI INIT 7a238 84 .cfa: sp 0 +
STACK CFI INIT 7a2c0 24 .cfa: sp 0 +
STACK CFI INIT 7a2e8 38 .cfa: sp 0 +
STACK CFI INIT 7a320 28 .cfa: sp 0 +
STACK CFI 7a32c .cfa: x29 32 + x19: .cfa -16 + ^ .ra: .cfa -24 + ^ x29: .cfa -32 + ^
STACK CFI INIT 7a348 58 .cfa: sp 0 +
STACK CFI INIT 7a3a0 29c .cfa: sp 0 +
STACK CFI 7a3c4 .cfa: x29 96 + x19: .cfa -8 + ^ x20: .cfa -16 + ^ x21: .cfa -24 + ^ x22: .cfa -32 + ^ x23: .cfa -40 + ^ x24: .cfa -48 + ^ x25: .cfa -56 + ^ x26: .cfa -64 + ^ x27: .cfa -72 + ^ x28: .cfa -80 + ^ .ra: .cfa -88 + ^ x29: .cfa -96 + ^
STACK CFI INIT 7a640 570 .cfa: sp 0 +
STACK CFI 7a664 .cfa: x29 96 + x19: .cfa -8 + ^ x20: .cfa -16 + ^ x21: .cfa -24 + ^ x22: .cfa -32 + ^ x23: .cfa -40 + ^ x24: .cfa -48 + ^ x25: .cfa -56 + ^ x26: .cfa -64 + ^ x27: .cfa -72 + ^ x28: .cfa -80 + ^ .ra: .cfa -88 + ^ x29: .cfa -96 + ^
STACK CFI INIT 7abb0 68 .cfa: sp 0 +
STACK CFI 7abc0 .cfa: x29 48 + x19: .cfa -8 + ^ x20: .cfa -16 + ^ x21: .cfa -32 + ^ .ra: .cfa -40 + ^ x29: .cfa -48 + ^
STACK CFI INIT 7ac18 33c .cfa: sp 0 +
STACK CFI 7ac3c .cfa: x29 96 + x19: .cfa -8 + ^ x20: .cfa -16 + ^ x21: .cfa -24 + ^ x22: .cfa -32 + ^ x23: .cfa -40 + ^ x24: .cfa -48 + ^ x25: .cfa -56 + ^ x26: .cfa -64 + ^ x27: .cfa -72 + ^ x28: .cfa -80 + ^ .ra: .cfa -88 + ^ x29: .cfa -96 + ^
STACK CFI INIT 7af58 c .cfa: sp 0 +
STACK CFI INIT 7af68 b8 .cfa: sp 0 +
STACK CFI 7af7c .cfa: x29 48 + x19: .cfa -8 + ^ x20: .cfa -16 + ^ x21: .cfa -24 + ^ x22: .cfa -32 + ^ .ra: .cfa -40 + ^ x29: .cfa -48 + ^
STACK CFI INIT 7b020 594 .cfa: sp 0 +
STACK CFI 7b044 .cfa: x29 96 + x19: .cfa -8 + ^ x20: .cfa -16 + ^ x21: .cfa -24 + ^ x22: .cfa -32 + ^ x23: .cfa -40 + ^ x24: .cfa -48 + ^ x25: .cfa -56 + ^ x26: .cfa -64 + ^ x27: .cfa -72 + ^ x28: .cfa -80 + ^ .ra: .cfa -88 + ^ x29: .cfa -96 + ^
STACK CFI INIT 7b5b8 11c .cfa: sp 0 +
STACK CFI 7b5d8 .cfa: x29 80 + x19: .cfa -8 + ^ x20: .cfa -16 + ^ x21: .cfa -24 + ^ x22: .cfa -32 + ^ x23: .cfa -40 + ^ x24: .cfa -48 + ^ x28: .cfa -64 + ^ .ra: .cfa -72 + ^ x29: .cfa -80 + ^
STACK CFI INIT 7b6d8 1e4 .cfa: sp 0 +
STACK CFI 7b6f4 .cfa: x29 80 + x19: .cfa -8 + ^ x20: .cfa -16 + ^ x21: .cfa -24 + ^ x22: .cfa -32 + ^ x23: .cfa -40 + ^ x24: .cfa -48 + ^ x25: .cfa -56 + ^ x26: .cfa -64 + ^ .ra: .cfa -72 + ^ x29: .cfa -80 + ^
STACK CFI INIT 7b8c0 118 .cfa: sp 0 +
STACK CFI 7b8dc .cfa: x29 64 + x19: .cfa -8 + ^ x20: .cfa -16 + ^ x21: .cfa -24 + ^ x22: .cfa -32 + ^ x23: .cfa -40 + ^ x28: .cfa -48 + ^ .ra: .cfa -56 + ^ x29: .cfa -64 + ^
STACK CFI INIT 7b9d8 17c .cfa: sp 0 +
STACK CFI 7b9dc .cfa: sp 16 + x19: .cfa -8 + ^ x20: .cfa -16 + ^
STACK CFI INIT 7bb58 5c .cfa: sp 0 +
STACK CFI 7bb64 .cfa: x29 32 + x19: .cfa -16 + ^ .ra: .cfa -24 + ^ x29: .cfa -32 + ^
STACK CFI INIT 7bbb8 a0 .cfa: sp 0 +
STACK CFI 7bbc8 .cfa: x29 48 + x19: .cfa -8 + ^ x20: .cfa -16 + ^ x21: .cfa -32 + ^ .ra: .cfa -40 + ^ x29: .cfa -48 + ^
STACK CFI INIT 7bc58 14 .cfa: sp 0 +
STACK CFI INIT 7bc70 150 .cfa: sp 0 +
STACK CFI 7bc84 .cfa: x29 64 + x19: .cfa -8 + ^ x20: .cfa -16 + ^ x21: .cfa -24 + ^ x22: .cfa -32 + ^ x23: .cfa -40 + ^ x24: .cfa -48 + ^ .ra: .cfa -56 + ^ x29: .cfa -64 + ^
STACK CFI INIT 7bdc0 ec8 .cfa: sp 0 +
STACK CFI 7bde4 .cfa: x29 112 + x19: .cfa -8 + ^ x20: .cfa -16 + ^ x21: .cfa -24 + ^ x22: .cfa -32 + ^ x23: .cfa -40 + ^ x24: .cfa -48 + ^ x25: .cfa -56 + ^ x26: .cfa -64 + ^ x27: .cfa -72 + ^ x28: .cfa -80 + ^ .ra: .cfa -88 + ^ x29: .cfa -96 + ^ v8: .cfa -112 + ^
STACK CFI INIT 7cc88 12a8 .cfa: sp 0 +
STACK CFI 7ccac .cfa: x29 112 + x19: .cfa -8 + ^ x20: .cfa -16 + ^ x21: .cfa -24 + ^ x22: .cfa -32 + ^ x23: .cfa -40 + ^ x24: .cfa -48 + ^ x25: .cfa -56 + ^ x26: .cfa -64 + ^ x27: .cfa -72 + ^ x28: .cfa -80 + ^ .ra: .cfa -88 + ^ x29: .cfa -96 + ^ v8: .cfa -112 + ^
STACK CFI INIT 7df30 730 .cfa: sp 0 +
STACK CFI 7df50 .cfa: x29 96 + x19: .cfa -8 + ^ x20: .cfa -16 + ^ x21: .cfa -24 + ^ x22: .cfa -32 + ^ x23: .cfa -40 + ^ x24: .cfa -48 + ^ x25: .cfa -56 + ^ x26: .cfa -64 + ^ x27: .cfa -72 + ^ x28: .cfa -80 + ^ .ra: .cfa -88 + ^ x29: .cfa -96 + ^
STACK CFI INIT 7e660 190 .cfa: sp 0 +
STACK CFI INIT 7e7f0 90 .cfa: sp 0 +
STACK CFI 7e800 .cfa: x29 32 + x19: .cfa -8 + ^ x20: .cfa -16 + ^ .ra: .cfa -24 + ^ x29: .cfa -32 + ^
STACK CFI INIT 7e880 3c .cfa: sp 0 +
STACK CFI INIT 7e8c0 36c .cfa: sp 0 +
STACK CFI 7e8d8 .cfa: x29 80 + x19: .cfa -8 + ^ x20: .cfa -16 + ^ x21: .cfa -24 + ^ x22: .cfa -32 + ^ x23: .cfa -40 + ^ x24: .cfa -48 + ^ .ra: .cfa -56 + ^ x29: .cfa -64 + ^ v8: .cfa -80 + ^
STACK CFI INIT 7ec30 3c4 .cfa: sp 0 +
STACK CFI 7ec48 .cfa: x29 64 + x19: .cfa -8 + ^ x20: .cfa -16 + ^ x21: .cfa -24 + ^ x22: .cfa -32 + ^ x23: .cfa -40 + ^ x24: .cfa -48 + ^ .ra: .cfa -56 + ^ x29: .cfa -64 + ^
STACK CFI INIT 7eff8 370 .cfa: sp 0 +
STACK CFI 7f008 .cfa: x29 48 + x19: .cfa -8 + ^ x20: .cfa -16 + ^ x21: .cfa -24 + ^ x22: .cfa -32 + ^ .ra: .cfa -40 + ^ x29: .cfa -48 + ^
STACK CFI INIT 7f368 1a8 .cfa: sp 0 +
STACK CFI 7f384 .cfa: x29 80 + x19: .cfa -8 + ^ x20: .cfa -16 + ^ x21: .cfa -24 + ^ x22: .cfa -32 + ^ x23: .cfa -40 + ^ x24: .cfa -48 + ^ x25: .cfa -56 + ^ x26: .cfa -64 + ^ .ra: .cfa -72 + ^ x29: .cfa -80 + ^
STACK CFI INIT 7f510 d8 .cfa: sp 0 +
STACK CFI 7f520 .cfa: x29 48 + x19: .cfa -8 + ^ x20: .cfa -16 + ^ x21: .cfa -32 + ^ .ra: .cfa -40 + ^ x29: .cfa -48 + ^
STACK CFI INIT 7f5e8 78 .cfa: sp 0 +
STACK CFI 7f5f4 .cfa: x29 32 + x19: .cfa -8 + ^ x20: .cfa -16 + ^ .ra: .cfa -24 + ^ x29: .cfa -32 + ^
STACK CFI INIT 7f660 ac .cfa: sp 0 +
STACK CFI INIT 7f710 110 .cfa: sp 0 +
STACK CFI 7f724 .cfa: x29 64 + x19: .cfa -8 + ^ x20: .cfa -16 + ^ x21: .cfa -24 + ^ x22: .cfa -32 + ^ x23: .cfa -48 + ^ .ra: .cfa -56 + ^ x29: .cfa -64 + ^
STACK CFI INIT 7f820 7c .cfa: sp 0 +
STACK CFI INIT 7f8a0 ac .cfa: sp 0 +
STACK CFI 7f8ac .cfa: x29 32 + x19: .cfa -8 + ^ x20: .cfa -16 + ^ .ra: .cfa -24 + ^ x29: .cfa -32 + ^
STACK CFI INIT 7f950 140 .cfa: sp 0 +
STACK CFI 7f968 .cfa: x29 80 + x19: .cfa -8 + ^ x20: .cfa -16 + ^ x21: .cfa -24 + ^ x22: .cfa -32 + ^ x23: .cfa -40 + ^ x24: .cfa -48 + ^ x25: .cfa -56 + ^ x26: .cfa -64 + ^ .ra: .cfa -72 + ^ x29: .cfa -80 + ^
STACK CFI INIT 7fa90 204 .cfa: sp 0 +
STACK CFI 7faa8 .cfa: x29 80 + x19: .cfa -8 + ^ x20: .cfa -16 + ^ x21: .cfa -24 + ^ x22: .cfa -32 + ^ x23: .cfa -40 + ^ x24: .cfa -48 + ^ x25: .cfa -64 + ^ .ra: .cfa -72 + ^ x29: .cfa -80 + ^
STACK CFI INIT 7fc98 240 .cfa: sp 0 +
STACK CFI 7fcb0 .cfa: x29 80 + x19: .cfa -8 + ^ x20: .cfa -16 + ^ x21: .cfa -24 + ^ x22: .cfa -32 + ^ x23: .cfa -40 + ^ x24: .cfa -48 + ^ x25: .cfa -64 + ^ .ra: .cfa -72 + ^ x29: .cfa -80 + ^
STACK CFI INIT 7fed8 5c .cfa: sp 0 +
STACK CFI INIT 7ff38 1f0 .cfa: sp 0 +
STACK CFI 7ff48 .cfa: x29 48 + x19: .cfa -8 + ^ x20: .cfa -16 + ^ x21: .cfa -24 + ^ x22: .cfa -32 + ^ .ra: .cfa -40 + ^ x29: .cfa -48 + ^
STACK CFI INIT 80128 14c .cfa: sp 0 +
STACK CFI INIT 80278 308 .cfa: sp 0 +
STACK CFI 8028c .cfa: x29 48 + x19: .cfa -8 + ^ x20: .cfa -16 + ^ x21: .cfa -24 + ^ .ra: .cfa -32 + ^ x29: .cfa -40 + ^ v8: .cfa -48 + ^
STACK CFI INIT 80580 110 .cfa: sp 0 +
STACK CFI 80594 .cfa: x29 64 + x19: .cfa -8 + ^ x20: .cfa -16 + ^ x21: .cfa -24 + ^ x22: .cfa -32 + ^ x23: .cfa -40 + ^ x24: .cfa -48 + ^ .ra: .cfa -56 + ^ x29: .cfa -64 + ^
STACK CFI INIT 80690 c8 .cfa: sp 0 +
STACK CFI 806a8 .cfa: x29 48 + x19: .cfa -8 + ^ x20: .cfa -16 + ^ x21: .cfa -24 + ^ .ra: .cfa -32 + ^ x29: .cfa -40 + ^ v8: .cfa -48 + ^
STACK CFI INIT 80758 48 .cfa: sp 0 +
STACK CFI INIT 807a0 128 .cfa: sp 0 +
STACK CFI 807a8 .cfa: x29 16 + .ra: .cfa -8 + ^ x29: .cfa -16 + ^
STACK CFI INIT 808c8 6c .cfa: sp 0 +
STACK CFI INIT 80938 fd8 .cfa: sp 0 +
STACK CFI 80968 .cfa: x29 160 + x19: .cfa -8 + ^ x20: .cfa -16 + ^ x21: .cfa -24 + ^ x22: .cfa -32 + ^ x23: .cfa -40 + ^ x24: .cfa -48 + ^ x25: .cfa -56 + ^ x26: .cfa -64 + ^ x27: .cfa -72 + ^ x28: .cfa -80 + ^ .ra: .cfa -88 + ^ x29: .cfa -96 + ^ v8: .cfa -104 + ^ v9: .cfa -112 + ^ v10: .cfa -120 + ^ v11: .cfa -128 + ^ v12: .cfa -136 + ^ v13: .cfa -144 + ^ v14: .cfa -152 + ^ v15: .cfa -160 + ^
STACK CFI INIT 81910 4c .cfa: sp 0 +
STACK CFI 8191c .cfa: x29 32 + x19: .cfa -8 + ^ x20: .cfa -16 + ^ .ra: .cfa -24 + ^ x29: .cfa -32 + ^
STACK CFI INIT 81960 b8 .cfa: sp 0 +
STACK CFI 8196c .cfa: x29 32 + x19: .cfa -8 + ^ x20: .cfa -16 + ^ .ra: .cfa -24 + ^ x29: .cfa -32 + ^
STACK CFI INIT 81a18 114 .cfa: sp 0 +
STACK CFI 81a2c .cfa: x29 64 + x19: .cfa -8 + ^ x20: .cfa -16 + ^ x21: .cfa -24 + ^ x22: .cfa -32 + ^ x23: .cfa -48 + ^ .ra: .cfa -56 + ^ x29: .cfa -64 + ^
STACK CFI INIT 81b30 1830 .cfa: sp 0 +
STACK CFI 81b60 .cfa: x29 160 + x19: .cfa -8 + ^ x20: .cfa -16 + ^ x21: .cfa -24 + ^ x22: .cfa -32 + ^ x23: .cfa -40 + ^ x24: .cfa -48 + ^ x25: .cfa -56 + ^ x26: .cfa -64 + ^ x27: .cfa -72 + ^ x28: .cfa -80 + ^ .ra: .cfa -88 + ^ x29: .cfa -96 + ^ v8: .cfa -104 + ^ v9: .cfa -112 + ^ v10: .cfa -120 + ^ v11: .cfa -128 + ^ v12: .cfa -136 + ^ v13: .cfa -144 + ^ v14: .cfa -160 + ^
STACK CFI INIT 83360 3b0 .cfa: sp 0 +
STACK CFI 83380 .cfa: x29 96 + x19: .cfa -8 + ^ x20: .cfa -16 + ^ x21: .cfa -24 + ^ x22: .cfa -32 + ^ x23: .cfa -40 + ^ x24: .cfa -48 + ^ x25: .cfa -56 + ^ x26: .cfa -64 + ^ x27: .cfa -72 + ^ x28: .cfa -80 + ^ .ra: .cfa -88 + ^ x29: .cfa -96 + ^
STACK CFI INIT 83710 70 .cfa: sp 0 +
STACK CFI 83720 .cfa: x29 32 + x19: .cfa -8 + ^ x20: .cfa -16 + ^ .ra: .cfa -24 + ^ x29: .cfa -32 + ^
STACK CFI INIT 83780 cc .cfa: sp 0 +
STACK CFI 83790 .cfa: x29 32 + x19: .cfa -8 + ^ x20: .cfa -16 + ^ .ra: .cfa -24 + ^ x29: .cfa -32 + ^
STACK CFI INIT 83850 b8 .cfa: sp 0 +
STACK CFI 8385c .cfa: x29 32 + x19: .cfa -8 + ^ x20: .cfa -16 + ^ .ra: .cfa -24 + ^ x29: .cfa -32 + ^
STACK CFI INIT 83908 168 .cfa: sp 0 +
STACK CFI 83918 .cfa: x29 48 + x19: .cfa -8 + ^ x20: .cfa -16 + ^ x21: .cfa -32 + ^ .ra: .cfa -40 + ^ x29: .cfa -48 + ^
STACK CFI INIT 83a70 74 .cfa: sp 0 +
STACK CFI INIT 83ae8 128 .cfa: sp 0 +
STACK CFI 83afc .cfa: x29 48 + x19: .cfa -8 + ^ x20: .cfa -16 + ^ x21: .cfa -32 + ^ .ra: .cfa -40 + ^ x29: .cfa -48 + ^
STACK CFI INIT 83c10 110 .cfa: sp 0 +
STACK CFI 83c1c .cfa: x29 32 + x19: .cfa -16 + ^ .ra: .cfa -24 + ^ x29: .cfa -32 + ^
STACK CFI INIT 83d20 20c .cfa: sp 0 +
STACK CFI 83d34 .cfa: x29 64 + x19: .cfa -8 + ^ x20: .cfa -16 + ^ x21: .cfa -24 + ^ x22: .cfa -32 + ^ x23: .cfa -48 + ^ .ra: .cfa -56 + ^ x29: .cfa -64 + ^
STACK CFI INIT 83f30 12c .cfa: sp 0 +
STACK CFI 83f44 .cfa: x29 64 + x19: .cfa -8 + ^ x20: .cfa -16 + ^ x21: .cfa -24 + ^ x22: .cfa -32 + ^ x23: .cfa -48 + ^ .ra: .cfa -56 + ^ x29: .cfa -64 + ^
STACK CFI INIT 84060 b8 .cfa: sp 0 +
STACK CFI 8406c .cfa: x29 32 + x19: .cfa -16 + ^ .ra: .cfa -24 + ^ x29: .cfa -32 + ^
STACK CFI INIT 84118 8c .cfa: sp 0 +
STACK CFI 84124 .cfa: x29 32 + x19: .cfa -8 + ^ x20: .cfa -16 + ^ .ra: .cfa -24 + ^ x29: .cfa -32 + ^
STACK CFI INIT 841a8 10c .cfa: sp 0 +
STACK CFI 841c0 .cfa: x29 64 + x19: .cfa -8 + ^ x20: .cfa -16 + ^ x21: .cfa -24 + ^ x22: .cfa -32 + ^ x28: .cfa -48 + ^ .ra: .cfa -56 + ^ x29: .cfa -64 + ^
STACK CFI INIT 842b8 8 .cfa: sp 0 +
STACK CFI INIT 842c0 60 .cfa: sp 0 +
STACK CFI 842d0 .cfa: x29 32 + x19: .cfa -16 + ^ .ra: .cfa -24 + ^ x29: .cfa -32 + ^
STACK CFI INIT 84320 1c .cfa: sp 0 +
STACK CFI INIT 84340 108 .cfa: sp 0 +
STACK CFI 84354 .cfa: x29 48 + x19: .cfa -8 + ^ x20: .cfa -16 + ^ x21: .cfa -32 + ^ .ra: .cfa -40 + ^ x29: .cfa -48 + ^
STACK CFI INIT 84448 2c .cfa: sp 0 +
STACK CFI 84454 .cfa: x29 32 + x19: .cfa -16 + ^ .ra: .cfa -24 + ^ x29: .cfa -32 + ^
STACK CFI INIT 84478 78 .cfa: sp 0 +
STACK CFI 84484 .cfa: x29 32 + x19: .cfa -16 + ^ .ra: .cfa -24 + ^ x29: .cfa -32 + ^
STACK CFI INIT 844f0 140 .cfa: sp 0 +
STACK CFI INIT 84630 b4 .cfa: sp 0 +
STACK CFI INIT 846e8 7a0 .cfa: sp 0 +
STACK CFI 84708 .cfa: x29 96 + x19: .cfa -8 + ^ x20: .cfa -16 + ^ x21: .cfa -24 + ^ x22: .cfa -32 + ^ x23: .cfa -40 + ^ x24: .cfa -48 + ^ x25: .cfa -56 + ^ x26: .cfa -64 + ^ x27: .cfa -72 + ^ x28: .cfa -80 + ^ .ra: .cfa -88 + ^ x29: .cfa -96 + ^
STACK CFI INIT 84e88 cc .cfa: sp 0 +
STACK CFI 84e98 .cfa: x29 48 + x19: .cfa -8 + ^ x20: .cfa -16 + ^ x21: .cfa -24 + ^ x22: .cfa -32 + ^ .ra: .cfa -40 + ^ x29: .cfa -48 + ^
STACK CFI INIT 84f58 142c .cfa: sp 0 +
STACK CFI 84f78 .cfa: x29 96 + x19: .cfa -8 + ^ x20: .cfa -16 + ^ x21: .cfa -24 + ^ x22: .cfa -32 + ^ x23: .cfa -40 + ^ x24: .cfa -48 + ^ x25: .cfa -56 + ^ x26: .cfa -64 + ^ x27: .cfa -72 + ^ x28: .cfa -80 + ^ .ra: .cfa -88 + ^ x29: .cfa -96 + ^
STACK CFI INIT 86388 da4 .cfa: sp 0 +
STACK CFI 863a8 .cfa: x29 96 + x19: .cfa -8 + ^ x20: .cfa -16 + ^ x21: .cfa -24 + ^ x22: .cfa -32 + ^ x23: .cfa -40 + ^ x24: .cfa -48 + ^ x25: .cfa -56 + ^ x26: .cfa -64 + ^ x27: .cfa -72 + ^ x28: .cfa -80 + ^ .ra: .cfa -88 + ^ x29: .cfa -96 + ^
STACK CFI INIT 87130 1d0 .cfa: sp 0 +
STACK CFI 87140 .cfa: x29 48 + x19: .cfa -8 + ^ x20: .cfa -16 + ^ x21: .cfa -24 + ^ x22: .cfa -32 + ^ .ra: .cfa -40 + ^ x29: .cfa -48 + ^
STACK CFI INIT 87300 ff0 .cfa: sp 0 +
STACK CFI 87320 .cfa: x29 96 + x19: .cfa -8 + ^ x20: .cfa -16 + ^ x21: .cfa -24 + ^ x22: .cfa -32 + ^ x23: .cfa -40 + ^ x24: .cfa -48 + ^ x25: .cfa -56 + ^ x26: .cfa -64 + ^ x27: .cfa -72 + ^ x28: .cfa -80 + ^ .ra: .cfa -88 + ^ x29: .cfa -96 + ^
STACK CFI INIT 882f0 80c .cfa: sp 0 +
STACK CFI 88310 .cfa: x29 96 + x19: .cfa -8 + ^ x20: .cfa -16 + ^ x21: .cfa -24 + ^ x22: .cfa -32 + ^ x23: .cfa -40 + ^ x24: .cfa -48 + ^ x25: .cfa -56 + ^ x26: .cfa -64 + ^ x27: .cfa -72 + ^ x28: .cfa -80 + ^ .ra: .cfa -88 + ^ x29: .cfa -96 + ^
STACK CFI INIT 88b00 fc .cfa: sp 0 +
STACK CFI 88b14 .cfa: x29 64 + x19: .cfa -8 + ^ x20: .cfa -16 + ^ x21: .cfa -24 + ^ x22: .cfa -32 + ^ x23: .cfa -48 + ^ .ra: .cfa -56 + ^ x29: .cfa -64 + ^
STACK CFI INIT 88c00 70 .cfa: sp 0 +
STACK CFI 88c14 .cfa: x29 48 + x19: .cfa -8 + ^ x20: .cfa -16 + ^ x21: .cfa -24 + ^ x22: .cfa -32 + ^ .ra: .cfa -40 + ^ x29: .cfa -48 + ^
STACK CFI INIT 88c70 2d4 .cfa: sp 0 +
STACK CFI 88c88 .cfa: x29 64 + x19: .cfa -8 + ^ x20: .cfa -16 + ^ x21: .cfa -24 + ^ x22: .cfa -32 + ^ x23: .cfa -48 + ^ .ra: .cfa -56 + ^ x29: .cfa -64 + ^
STACK CFI INIT 88f48 ac .cfa: sp 0 +
STACK CFI 88f58 .cfa: x29 32 + x19: .cfa -8 + ^ x28: .cfa -16 + ^ .ra: .cfa -24 + ^ x29: .cfa -32 + ^
STACK CFI INIT 88ff8 dc8 .cfa: sp 0 +
STACK CFI 89018 .cfa: x29 96 + x19: .cfa -8 + ^ x20: .cfa -16 + ^ x21: .cfa -24 + ^ x22: .cfa -32 + ^ x23: .cfa -40 + ^ x24: .cfa -48 + ^ x25: .cfa -56 + ^ x26: .cfa -64 + ^ x27: .cfa -72 + ^ x28: .cfa -80 + ^ .ra: .cfa -88 + ^ x29: .cfa -96 + ^
STACK CFI INIT 89dc0 2dc .cfa: sp 0 +
STACK CFI 89de0 .cfa: x29 96 + x19: .cfa -8 + ^ x20: .cfa -16 + ^ x21: .cfa -24 + ^ x22: .cfa -32 + ^ x23: .cfa -40 + ^ x24: .cfa -48 + ^ x25: .cfa -56 + ^ x26: .cfa -64 + ^ x27: .cfa -72 + ^ x28: .cfa -80 + ^ .ra: .cfa -88 + ^ x29: .cfa -96 + ^
STACK CFI INIT 8a0a0 310 .cfa: sp 0 +
STACK CFI 8a0bc .cfa: x29 96 + x19: .cfa -8 + ^ x20: .cfa -16 + ^ x21: .cfa -24 + ^ x22: .cfa -32 + ^ x23: .cfa -40 + ^ x24: .cfa -48 + ^ x25: .cfa -56 + ^ x26: .cfa -64 + ^ x27: .cfa -72 + ^ x28: .cfa -80 + ^ .ra: .cfa -88 + ^ x29: .cfa -96 + ^
STACK CFI INIT 8a3b0 64c .cfa: sp 0 +
STACK CFI 8a3d0 .cfa: x29 96 + x19: .cfa -8 + ^ x20: .cfa -16 + ^ x21: .cfa -24 + ^ x22: .cfa -32 + ^ x23: .cfa -40 + ^ x24: .cfa -48 + ^ x25: .cfa -56 + ^ x26: .cfa -64 + ^ x27: .cfa -72 + ^ x28: .cfa -80 + ^ .ra: .cfa -88 + ^ x29: .cfa -96 + ^
STACK CFI INIT 8aa00 1f4 .cfa: sp 0 +
STACK CFI 8aa04 .cfa: sp 16 + x19: .cfa -16 + ^
STACK CFI INIT 8abf8 33c .cfa: sp 0 +
STACK CFI 8ac18 .cfa: x29 96 + x19: .cfa -8 + ^ x20: .cfa -16 + ^ x21: .cfa -24 + ^ x22: .cfa -32 + ^ x23: .cfa -40 + ^ x24: .cfa -48 + ^ x25: .cfa -56 + ^ x26: .cfa -64 + ^ x27: .cfa -72 + ^ x28: .cfa -80 + ^ .ra: .cfa -88 + ^ x29: .cfa -96 + ^
STACK CFI INIT 8af38 338 .cfa: sp 0 +
STACK CFI 8af54 .cfa: x29 96 + x19: .cfa -8 + ^ x20: .cfa -16 + ^ x21: .cfa -24 + ^ x22: .cfa -32 + ^ x23: .cfa -40 + ^ x24: .cfa -48 + ^ x25: .cfa -56 + ^ x26: .cfa -64 + ^ x27: .cfa -72 + ^ x28: .cfa -80 + ^ .ra: .cfa -88 + ^ x29: .cfa -96 + ^
STACK CFI INIT 8b270 228 .cfa: sp 0 +
STACK CFI INIT 8b498 88 .cfa: sp 0 +
STACK CFI 8b4a4 .cfa: x29 32 + x19: .cfa -16 + ^ .ra: .cfa -24 + ^ x29: .cfa -32 + ^
STACK CFI INIT 8b520 7c .cfa: sp 0 +
STACK CFI 8b534 .cfa: x29 64 + x19: .cfa -8 + ^ x20: .cfa -16 + ^ x21: .cfa -24 + ^ x22: .cfa -32 + ^ x23: .cfa -40 + ^ x24: .cfa -48 + ^ .ra: .cfa -56 + ^ x29: .cfa -64 + ^
STACK CFI INIT 8b5a0 c .cfa: sp 0 +
STACK CFI INIT 8b5b0 68 .cfa: sp 0 +
STACK CFI 8b5c0 .cfa: x29 32 + x19: .cfa -8 + ^ .ra: .cfa -16 + ^ x29: .cfa -24 + ^ v8: .cfa -32 + ^
STACK CFI INIT 8b618 2c .cfa: sp 0 +
STACK CFI 8b624 .cfa: x29 32 + x19: .cfa -16 + ^ .ra: .cfa -24 + ^ x29: .cfa -32 + ^
STACK CFI INIT 8b648 50 .cfa: sp 0 +
STACK CFI INIT 8b698 38 .cfa: sp 0 +
STACK CFI 8b6a4 .cfa: x29 32 + x19: .cfa -16 + ^ .ra: .cfa -24 + ^ x29: .cfa -32 + ^
STACK CFI INIT 8b6d0 34 .cfa: sp 0 +
STACK CFI 8b6dc .cfa: x29 32 + x19: .cfa -16 + ^ .ra: .cfa -24 + ^ x29: .cfa -32 + ^
STACK CFI INIT 8b708 30 .cfa: sp 0 +
STACK CFI 8b714 .cfa: x29 32 + x19: .cfa -16 + ^ .ra: .cfa -24 + ^ x29: .cfa -32 + ^
STACK CFI INIT 8b738 68 .cfa: sp 0 +
STACK CFI INIT 8b7a0 24 .cfa: sp 0 +
STACK CFI INIT 8b7c8 b0 .cfa: sp 0 +
STACK CFI 8b7dc .cfa: x29 64 + x19: .cfa -8 + ^ x20: .cfa -16 + ^ x21: .cfa -24 + ^ x22: .cfa -32 + ^ x23: .cfa -48 + ^ .ra: .cfa -56 + ^ x29: .cfa -64 + ^
STACK CFI INIT 8b878 6c .cfa: sp 0 +
STACK CFI INIT 8b8e8 48 .cfa: sp 0 +
STACK CFI INIT 8b930 78 .cfa: sp 0 +
STACK CFI 8b93c .cfa: x29 32 + x19: .cfa -8 + ^ x20: .cfa -16 + ^ .ra: .cfa -24 + ^ x29: .cfa -32 + ^
STACK CFI INIT 8b9a8 bc .cfa: sp 0 +
STACK CFI 8b9bc .cfa: x29 64 + x19: .cfa -8 + ^ x20: .cfa -16 + ^ x21: .cfa -24 + ^ x22: .cfa -32 + ^ x23: .cfa -40 + ^ x24: .cfa -48 + ^ .ra: .cfa -56 + ^ x29: .cfa -64 + ^
STACK CFI INIT 8ba68 144 .cfa: sp 0 +
STACK CFI 8ba7c .cfa: x29 48 + x19: .cfa -8 + ^ x20: .cfa -16 + ^ x21: .cfa -24 + ^ x22: .cfa -32 + ^ .ra: .cfa -40 + ^ x29: .cfa -48 + ^
STACK CFI INIT 8bbb0 578 .cfa: sp 0 +
STACK CFI 8bbd0 .cfa: x29 96 + x19: .cfa -8 + ^ x20: .cfa -16 + ^ x21: .cfa -24 + ^ x22: .cfa -32 + ^ x23: .cfa -40 + ^ x24: .cfa -48 + ^ x25: .cfa -56 + ^ x26: .cfa -64 + ^ x27: .cfa -72 + ^ x28: .cfa -80 + ^ .ra: .cfa -88 + ^ x29: .cfa -96 + ^
STACK CFI INIT 8c128 f8 .cfa: sp 0 +
STACK CFI 8c138 .cfa: x29 48 + x19: .cfa -8 + ^ x20: .cfa -16 + ^ x21: .cfa -32 + ^ .ra: .cfa -40 + ^ x29: .cfa -48 + ^
STACK CFI INIT 8c220 4c .cfa: sp 0 +
STACK CFI 8c23c .cfa: x29 32 + x19: .cfa -8 + ^ x20: .cfa -16 + ^ .ra: .cfa -24 + ^ x29: .cfa -32 + ^
STACK CFI INIT 8c270 30 .cfa: sp 0 +
STACK CFI INIT 8c2a0 70 .cfa: sp 0 +
STACK CFI 8c2ac .cfa: x29 32 + x19: .cfa -16 + ^ .ra: .cfa -24 + ^ x29: .cfa -32 + ^
STACK CFI INIT 8c310 24 .cfa: sp 0 +
STACK CFI INIT 8c338 98 .cfa: sp 0 +
STACK CFI 8c344 .cfa: x29 32 + x19: .cfa -16 + ^ .ra: .cfa -24 + ^ x29: .cfa -32 + ^
STACK CFI INIT 8c3d0 40 .cfa: sp 0 +
STACK CFI INIT 8c410 38 .cfa: sp 0 +
STACK CFI INIT 8c448 64 .cfa: sp 0 +
STACK CFI 8c454 .cfa: x29 32 + x19: .cfa -16 + ^ .ra: .cfa -24 + ^ x29: .cfa -32 + ^
STACK CFI INIT 8c4b0 2a50 .cfa: sp 0 +
STACK CFI 8c4d0 .cfa: x29 96 + x19: .cfa -8 + ^ x20: .cfa -16 + ^ x21: .cfa -24 + ^ x22: .cfa -32 + ^ x23: .cfa -40 + ^ x24: .cfa -48 + ^ x25: .cfa -56 + ^ x26: .cfa -64 + ^ x27: .cfa -72 + ^ x28: .cfa -80 + ^ .ra: .cfa -88 + ^ x29: .cfa -96 + ^
STACK CFI INIT 8ef00 8d4 .cfa: sp 0 +
STACK CFI 8ef20 .cfa: x29 96 + x19: .cfa -8 + ^ x20: .cfa -16 + ^ x21: .cfa -24 + ^ x22: .cfa -32 + ^ x23: .cfa -40 + ^ x24: .cfa -48 + ^ x25: .cfa -56 + ^ x26: .cfa -64 + ^ x27: .cfa -72 + ^ x28: .cfa -80 + ^ .ra: .cfa -88 + ^ x29: .cfa -96 + ^
STACK CFI INIT 8f7d8 80 .cfa: sp 0 +
STACK CFI 8f7e8 .cfa: x29 32 + x28: .cfa -16 + ^ .ra: .cfa -24 + ^ x29: .cfa -32 + ^
STACK CFI INIT 8f858 16c .cfa: sp 0 +
STACK CFI 8f870 .cfa: x29 64 + x19: .cfa -8 + ^ x20: .cfa -16 + ^ x21: .cfa -24 + ^ x22: .cfa -32 + ^ x23: .cfa -48 + ^ .ra: .cfa -56 + ^ x29: .cfa -64 + ^
STACK CFI INIT 8f9c8 e4 .cfa: sp 0 +
STACK CFI 8f9dc .cfa: x29 64 + x19: .cfa -8 + ^ x20: .cfa -16 + ^ x21: .cfa -24 + ^ x22: .cfa -32 + ^ x23: .cfa -40 + ^ x24: .cfa -48 + ^ .ra: .cfa -56 + ^ x29: .cfa -64 + ^
STACK CFI INIT 8fab0 2cd8 .cfa: sp 0 +
STACK CFI 8fad0 .cfa: x29 96 + x19: .cfa -8 + ^ x20: .cfa -16 + ^ x21: .cfa -24 + ^ x22: .cfa -32 + ^ x23: .cfa -40 + ^ x24: .cfa -48 + ^ x25: .cfa -56 + ^ x26: .cfa -64 + ^ x27: .cfa -72 + ^ x28: .cfa -80 + ^ .ra: .cfa -88 + ^ x29: .cfa -96 + ^
STACK CFI INIT 92788 d8 .cfa: sp 0 +
STACK CFI 9279c .cfa: x29 48 + x19: .cfa -8 + ^ x20: .cfa -16 + ^ x21: .cfa -24 + ^ x22: .cfa -32 + ^ .ra: .cfa -40 + ^ x29: .cfa -48 + ^
STACK CFI INIT 92860 8ac .cfa: sp 0 +
STACK CFI 92880 .cfa: x29 96 + x19: .cfa -8 + ^ x20: .cfa -16 + ^ x21: .cfa -24 + ^ x22: .cfa -32 + ^ x23: .cfa -40 + ^ x24: .cfa -48 + ^ x25: .cfa -56 + ^ x26: .cfa -64 + ^ x27: .cfa -72 + ^ x28: .cfa -80 + ^ .ra: .cfa -88 + ^ x29: .cfa -96 + ^
STACK CFI INIT 93110 134 .cfa: sp 0 +
STACK CFI 93128 .cfa: x29 64 + x19: .cfa -8 + ^ x20: .cfa -16 + ^ x21: .cfa -24 + ^ x22: .cfa -32 + ^ x23: .cfa -48 + ^ .ra: .cfa -56 + ^ x29: .cfa -64 + ^
STACK CFI INIT 93248 10c .cfa: sp 0 +
STACK CFI 93254 .cfa: x29 32 + x19: .cfa -16 + ^ .ra: .cfa -24 + ^ x29: .cfa -32 + ^
STACK CFI INIT 93358 70 .cfa: sp 0 +
STACK CFI INIT 933c8 384 .cfa: sp 0 +
STACK CFI 933e8 .cfa: x29 96 + x19: .cfa -8 + ^ x20: .cfa -16 + ^ x21: .cfa -24 + ^ x22: .cfa -32 + ^ x23: .cfa -40 + ^ x24: .cfa -48 + ^ x25: .cfa -56 + ^ x26: .cfa -64 + ^ x27: .cfa -72 + ^ x28: .cfa -80 + ^ .ra: .cfa -88 + ^ x29: .cfa -96 + ^
STACK CFI INIT 93750 84 .cfa: sp 0 +
STACK CFI 93760 .cfa: x29 32 + x19: .cfa -16 + ^ .ra: .cfa -24 + ^ x29: .cfa -32 + ^
STACK CFI INIT 937d8 b8 .cfa: sp 0 +
STACK CFI 937e4 .cfa: x29 32 + x19: .cfa -8 + ^ x20: .cfa -16 + ^ .ra: .cfa -24 + ^ x29: .cfa -32 + ^
STACK CFI INIT 93890 6c .cfa: sp 0 +
STACK CFI 9389c .cfa: x29 16 + .ra: .cfa -8 + ^ x29: .cfa -16 + ^
STACK CFI INIT 93900 6c .cfa: sp 0 +
STACK CFI 9390c .cfa: x29 16 + .ra: .cfa -8 + ^ x29: .cfa -16 + ^
STACK CFI INIT 93970 520 .cfa: sp 0 +
STACK CFI 93990 .cfa: x29 96 + x19: .cfa -8 + ^ x20: .cfa -16 + ^ x21: .cfa -24 + ^ x22: .cfa -32 + ^ x23: .cfa -40 + ^ x24: .cfa -48 + ^ x25: .cfa -56 + ^ x26: .cfa -64 + ^ x27: .cfa -72 + ^ x28: .cfa -80 + ^ .ra: .cfa -88 + ^ x29: .cfa -96 + ^
STACK CFI INIT 93e90 610 .cfa: sp 0 +
STACK CFI 93eb0 .cfa: x29 96 + x19: .cfa -8 + ^ x20: .cfa -16 + ^ x21: .cfa -24 + ^ x22: .cfa -32 + ^ x23: .cfa -40 + ^ x24: .cfa -48 + ^ x25: .cfa -56 + ^ x26: .cfa -64 + ^ x27: .cfa -72 + ^ x28: .cfa -80 + ^ .ra: .cfa -88 + ^ x29: .cfa -96 + ^
STACK CFI INIT 944a0 10 .cfa: sp 0 +
STACK CFI INIT 944b0 1c .cfa: sp 0 +
STACK CFI INIT 944d0 14 .cfa: sp 0 +
STACK CFI INIT 944e8 18 .cfa: sp 0 +
STACK CFI INIT 94500 18 .cfa: sp 0 +
STACK CFI INIT 94518 10 .cfa: sp 0 +
STACK CFI INIT 94528 10 .cfa: sp 0 +
STACK CFI INIT 94538 10 .cfa: sp 0 +
STACK CFI INIT 94548 10 .cfa: sp 0 +
STACK CFI INIT 94558 1c .cfa: sp 0 +
STACK CFI INIT 94578 1c .cfa: sp 0 +
STACK CFI INIT 94598 24 .cfa: sp 0 +
STACK CFI INIT 945c0 7c .cfa: sp 0 +
STACK CFI 945d0 .cfa: x29 32 + x19: .cfa -8 + ^ x20: .cfa -16 + ^ .ra: .cfa -24 + ^ x29: .cfa -32 + ^
STACK CFI INIT 94640 10 .cfa: sp 0 +
STACK CFI INIT 94650 38 .cfa: sp 0 +
STACK CFI 9465c .cfa: x29 32 + x19: .cfa -16 + ^ .ra: .cfa -24 + ^ x29: .cfa -32 + ^
STACK CFI INIT 94688 ac .cfa: sp 0 +
STACK CFI 946a0 .cfa: x29 64 + x19: .cfa -8 + ^ x20: .cfa -16 + ^ x21: .cfa -24 + ^ x22: .cfa -32 + ^ x23: .cfa -48 + ^ .ra: .cfa -56 + ^ x29: .cfa -64 + ^
STACK CFI INIT 94738 78 .cfa: sp 0 +
STACK CFI 9474c .cfa: x29 48 + x19: .cfa -8 + ^ x20: .cfa -16 + ^ x21: .cfa -24 + ^ x22: .cfa -32 + ^ .ra: .cfa -40 + ^ x29: .cfa -48 + ^
STACK CFI INIT 947b0 d8 .cfa: sp 0 +
STACK CFI 947c8 .cfa: x29 64 + x19: .cfa -8 + ^ x20: .cfa -16 + ^ x21: .cfa -24 + ^ x22: .cfa -32 + ^ x23: .cfa -48 + ^ .ra: .cfa -56 + ^ x29: .cfa -64 + ^
STACK CFI INIT 94888 a0 .cfa: sp 0 +
STACK CFI 9489c .cfa: x29 48 + x19: .cfa -8 + ^ x20: .cfa -16 + ^ x21: .cfa -24 + ^ x22: .cfa -32 + ^ .ra: .cfa -40 + ^ x29: .cfa -48 + ^
STACK CFI INIT 94928 9c .cfa: sp 0 +
STACK CFI 94938 .cfa: x29 32 + x19: .cfa -8 + ^ x28: .cfa -16 + ^ .ra: .cfa -24 + ^ x29: .cfa -32 + ^
STACK CFI INIT 949c8 9c .cfa: sp 0 +
STACK CFI 949d8 .cfa: x29 32 + x19: .cfa -8 + ^ x28: .cfa -16 + ^ .ra: .cfa -24 + ^ x29: .cfa -32 + ^
STACK CFI INIT 94a68 7c .cfa: sp 0 +
STACK CFI 94a78 .cfa: x29 32 + x19: .cfa -16 + ^ .ra: .cfa -24 + ^ x29: .cfa -32 + ^
STACK CFI INIT 94ae8 24 .cfa: sp 0 +
STACK CFI INIT 94b10 50 .cfa: sp 0 +
STACK CFI 94b20 .cfa: x29 32 + x19: .cfa -16 + ^ .ra: .cfa -24 + ^ x29: .cfa -32 + ^
STACK CFI INIT 94b60 3c .cfa: sp 0 +
STACK CFI 94b68 .cfa: x29 16 + .ra: .cfa -8 + ^ x29: .cfa -16 + ^
STACK CFI INIT 94ba0 4 .cfa: sp 0 +
STACK CFI INIT 94ba8 330 .cfa: sp 0 +
STACK CFI 94bc4 .cfa: x29 96 + x19: .cfa -8 + ^ x20: .cfa -16 + ^ x21: .cfa -24 + ^ x22: .cfa -32 + ^ x23: .cfa -40 + ^ x24: .cfa -48 + ^ x25: .cfa -56 + ^ x26: .cfa -64 + ^ x27: .cfa -80 + ^ .ra: .cfa -88 + ^ x29: .cfa -96 + ^
STACK CFI INIT 94ed8 330 .cfa: sp 0 +
STACK CFI 94ef4 .cfa: x29 96 + x19: .cfa -8 + ^ x20: .cfa -16 + ^ x21: .cfa -24 + ^ x22: .cfa -32 + ^ x23: .cfa -40 + ^ x24: .cfa -48 + ^ x25: .cfa -56 + ^ x26: .cfa -64 + ^ x27: .cfa -80 + ^ .ra: .cfa -88 + ^ x29: .cfa -96 + ^
STACK CFI INIT 95208 330 .cfa: sp 0 +
STACK CFI 95224 .cfa: x29 96 + x19: .cfa -8 + ^ x20: .cfa -16 + ^ x21: .cfa -24 + ^ x22: .cfa -32 + ^ x23: .cfa -40 + ^ x24: .cfa -48 + ^ x25: .cfa -56 + ^ x26: .cfa -64 + ^ x27: .cfa -80 + ^ .ra: .cfa -88 + ^ x29: .cfa -96 + ^
STACK CFI INIT 95538 50 .cfa: sp 0 +
STACK CFI 95548 .cfa: x29 32 + x19: .cfa -16 + ^ .ra: .cfa -24 + ^ x29: .cfa -32 + ^
STACK CFI INIT 95588 2d8 .cfa: sp 0 +
STACK CFI 955a4 .cfa: x29 96 + x19: .cfa -8 + ^ x20: .cfa -16 + ^ x21: .cfa -24 + ^ x22: .cfa -32 + ^ x23: .cfa -40 + ^ x24: .cfa -48 + ^ x25: .cfa -56 + ^ x26: .cfa -64 + ^ x27: .cfa -80 + ^ .ra: .cfa -88 + ^ x29: .cfa -96 + ^
STACK CFI INIT 95860 2d8 .cfa: sp 0 +
STACK CFI 9587c .cfa: x29 96 + x19: .cfa -8 + ^ x20: .cfa -16 + ^ x21: .cfa -24 + ^ x22: .cfa -32 + ^ x23: .cfa -40 + ^ x24: .cfa -48 + ^ x25: .cfa -56 + ^ x26: .cfa -64 + ^ x27: .cfa -80 + ^ .ra: .cfa -88 + ^ x29: .cfa -96 + ^
STACK CFI INIT 95b38 2d8 .cfa: sp 0 +
STACK CFI 95b54 .cfa: x29 96 + x19: .cfa -8 + ^ x20: .cfa -16 + ^ x21: .cfa -24 + ^ x22: .cfa -32 + ^ x23: .cfa -40 + ^ x24: .cfa -48 + ^ x25: .cfa -56 + ^ x26: .cfa -64 + ^ x27: .cfa -80 + ^ .ra: .cfa -88 + ^ x29: .cfa -96 + ^
STACK CFI INIT 95e10 10 .cfa: sp 0 +
STACK CFI INIT 95e20 74 .cfa: sp 0 +
STACK CFI 95e30 .cfa: x29 32 + x19: .cfa -16 + ^ .ra: .cfa -24 + ^ x29: .cfa -32 + ^
STACK CFI INIT 95e98 30 .cfa: sp 0 +
STACK CFI 95ea0 .cfa: x29 16 + .ra: .cfa -8 + ^ x29: .cfa -16 + ^
STACK CFI INIT 95ec8 20c .cfa: sp 0 +
STACK CFI 95ed4 .cfa: x29 16 + .ra: .cfa -8 + ^ x29: .cfa -16 + ^
STACK CFI INIT 960d8 220 .cfa: sp 0 +
STACK CFI 960f4 .cfa: x29 96 + x19: .cfa -8 + ^ x20: .cfa -16 + ^ x21: .cfa -24 + ^ x22: .cfa -32 + ^ x23: .cfa -40 + ^ x24: .cfa -48 + ^ x25: .cfa -56 + ^ x26: .cfa -64 + ^ x27: .cfa -80 + ^ .ra: .cfa -88 + ^ x29: .cfa -96 + ^
STACK CFI INIT 962f8 8 .cfa: sp 0 +
STACK CFI INIT 96300 c .cfa: sp 0 +
STACK CFI INIT 96310 2c .cfa: sp 0 +
STACK CFI INIT 96340 44 .cfa: sp 0 +
STACK CFI INIT 96388 2c .cfa: sp 0 +
STACK CFI INIT 963b8 2c .cfa: sp 0 +
STACK CFI 963c0 .cfa: x29 16 + .ra: .cfa -8 + ^ x29: .cfa -16 + ^
STACK CFI INIT 963e8 ac .cfa: sp 0 +
STACK CFI 963f8 .cfa: x29 32 + x19: .cfa -8 + ^ x28: .cfa -16 + ^ .ra: .cfa -24 + ^ x29: .cfa -32 + ^
STACK CFI INIT 96498 584 .cfa: sp 0 +
STACK CFI 964b8 .cfa: x29 96 + x19: .cfa -8 + ^ x20: .cfa -16 + ^ x21: .cfa -24 + ^ x22: .cfa -32 + ^ x23: .cfa -40 + ^ x24: .cfa -48 + ^ x25: .cfa -56 + ^ x26: .cfa -64 + ^ x27: .cfa -72 + ^ x28: .cfa -80 + ^ .ra: .cfa -88 + ^ x29: .cfa -96 + ^
STACK CFI INIT 96a20 3fc .cfa: sp 0 +
STACK CFI 96a40 .cfa: x29 96 + x19: .cfa -8 + ^ x20: .cfa -16 + ^ x21: .cfa -24 + ^ x22: .cfa -32 + ^ x23: .cfa -40 + ^ x24: .cfa -48 + ^ x25: .cfa -56 + ^ x26: .cfa -64 + ^ x27: .cfa -72 + ^ x28: .cfa -80 + ^ .ra: .cfa -88 + ^ x29: .cfa -96 + ^
STACK CFI INIT 96e20 8 .cfa: sp 0 +
STACK CFI INIT 96e28 c .cfa: sp 0 +
STACK CFI INIT 96e38 470 .cfa: sp 0 +
STACK CFI 96e58 .cfa: x29 96 + x19: .cfa -8 + ^ x20: .cfa -16 + ^ x21: .cfa -24 + ^ x22: .cfa -32 + ^ x23: .cfa -40 + ^ x24: .cfa -48 + ^ x25: .cfa -56 + ^ x26: .cfa -64 + ^ x27: .cfa -72 + ^ x28: .cfa -80 + ^ .ra: .cfa -88 + ^ x29: .cfa -96 + ^
STACK CFI INIT 972a8 1d0 .cfa: sp 0 +
STACK CFI 972bc .cfa: x29 64 + x19: .cfa -8 + ^ x20: .cfa -16 + ^ x21: .cfa -24 + ^ x22: .cfa -32 + ^ x23: .cfa -40 + ^ x24: .cfa -48 + ^ .ra: .cfa -56 + ^ x29: .cfa -64 + ^
STACK CFI INIT 97478 124 .cfa: sp 0 +
STACK CFI 9748c .cfa: x29 48 + x19: .cfa -8 + ^ x20: .cfa -16 + ^ x21: .cfa -32 + ^ .ra: .cfa -40 + ^ x29: .cfa -48 + ^
STACK CFI INIT 975a0 54 .cfa: sp 0 +
STACK CFI 975ac .cfa: x29 32 + x19: .cfa -8 + ^ x20: .cfa -16 + ^ .ra: .cfa -24 + ^ x29: .cfa -32 + ^
STACK CFI INIT 975f8 110 .cfa: sp 0 +
STACK CFI 97608 .cfa: x29 48 + x19: .cfa -8 + ^ x20: .cfa -16 + ^ x21: .cfa -24 + ^ x22: .cfa -32 + ^ .ra: .cfa -40 + ^ x29: .cfa -48 + ^
STACK CFI INIT 97708 bc .cfa: sp 0 +
STACK CFI 97710 .cfa: x29 16 + .ra: .cfa -8 + ^ x29: .cfa -16 + ^
STACK CFI INIT 977c8 d8 .cfa: sp 0 +
STACK CFI 977d4 .cfa: x29 32 + x19: .cfa -16 + ^ .ra: .cfa -24 + ^ x29: .cfa -32 + ^
STACK CFI INIT 978a0 f4 .cfa: sp 0 +
STACK CFI 978b4 .cfa: x29 48 + x19: .cfa -8 + ^ x20: .cfa -16 + ^ x21: .cfa -32 + ^ .ra: .cfa -40 + ^ x29: .cfa -48 + ^
STACK CFI INIT 97998 5c .cfa: sp 0 +
STACK CFI 979a4 .cfa: x29 32 + x19: .cfa -8 + ^ x20: .cfa -16 + ^ .ra: .cfa -24 + ^ x29: .cfa -32 + ^
STACK CFI INIT 979f8 9c .cfa: sp 0 +
STACK CFI 97a04 .cfa: x29 32 + x19: .cfa -8 + ^ x20: .cfa -16 + ^ .ra: .cfa -24 + ^ x29: .cfa -32 + ^
STACK CFI INIT 97a98 3b4 .cfa: sp 0 +
STACK CFI 97ab4 .cfa: x29 96 + x19: .cfa -8 + ^ x20: .cfa -16 + ^ x21: .cfa -24 + ^ x22: .cfa -32 + ^ x23: .cfa -40 + ^ x24: .cfa -48 + ^ x25: .cfa -56 + ^ x26: .cfa -64 + ^ x27: .cfa -72 + ^ x28: .cfa -80 + ^ .ra: .cfa -88 + ^ x29: .cfa -96 + ^
STACK CFI INIT 97e50 8c .cfa: sp 0 +
STACK CFI 97e5c .cfa: x29 32 + x19: .cfa -8 + ^ x20: .cfa -16 + ^ .ra: .cfa -24 + ^ x29: .cfa -32 + ^
STACK CFI INIT 97ee0 208 .cfa: sp 0 +
STACK CFI 97efc .cfa: x29 96 + x19: .cfa -8 + ^ x20: .cfa -16 + ^ x21: .cfa -24 + ^ x22: .cfa -32 + ^ x23: .cfa -40 + ^ x24: .cfa -48 + ^ x25: .cfa -56 + ^ x26: .cfa -64 + ^ x27: .cfa -72 + ^ x28: .cfa -80 + ^ .ra: .cfa -88 + ^ x29: .cfa -96 + ^
STACK CFI INIT 980e8 a4 .cfa: sp 0 +
STACK CFI 980f8 .cfa: x29 48 + x19: .cfa -8 + ^ x20: .cfa -16 + ^ x21: .cfa -32 + ^ .ra: .cfa -40 + ^ x29: .cfa -48 + ^
STACK CFI INIT 98190 11c .cfa: sp 0 +
STACK CFI 981a8 .cfa: x29 64 + x19: .cfa -8 + ^ x20: .cfa -16 + ^ x21: .cfa -24 + ^ x22: .cfa -32 + ^ x23: .cfa -48 + ^ .ra: .cfa -56 + ^ x29: .cfa -64 + ^
STACK CFI INIT 982b0 c4 .cfa: sp 0 +
STACK CFI 982c4 .cfa: x29 48 + x19: .cfa -8 + ^ x20: .cfa -16 + ^ x21: .cfa -24 + ^ x22: .cfa -32 + ^ .ra: .cfa -40 + ^ x29: .cfa -48 + ^
STACK CFI INIT 98378 34 .cfa: sp 0 +
STACK CFI 98384 .cfa: x29 32 + x19: .cfa -16 + ^ .ra: .cfa -24 + ^ x29: .cfa -32 + ^
STACK CFI INIT 983b0 24c .cfa: sp 0 +
STACK CFI 983d0 .cfa: x29 96 + x19: .cfa -8 + ^ x20: .cfa -16 + ^ x21: .cfa -24 + ^ x22: .cfa -32 + ^ x23: .cfa -40 + ^ x24: .cfa -48 + ^ x25: .cfa -56 + ^ x26: .cfa -64 + ^ x27: .cfa -72 + ^ x28: .cfa -80 + ^ .ra: .cfa -88 + ^ x29: .cfa -96 + ^
STACK CFI INIT 98600 34 .cfa: sp 0 +
STACK CFI 9860c .cfa: x29 32 + x19: .cfa -16 + ^ .ra: .cfa -24 + ^ x29: .cfa -32 + ^
STACK CFI INIT 98638 c .cfa: sp 0 +
STACK CFI INIT 98648 10 .cfa: sp 0 +
STACK CFI INIT 98658 10 .cfa: sp 0 +
STACK CFI INIT 98668 c .cfa: sp 0 +
STACK CFI INIT 98678 34 .cfa: sp 0 +
STACK CFI 98684 .cfa: x29 32 + x19: .cfa -16 + ^ .ra: .cfa -24 + ^ x29: .cfa -32 + ^
STACK CFI INIT 986b0 fc .cfa: sp 0 +
STACK CFI 986c0 .cfa: x29 48 + x19: .cfa -8 + ^ x20: .cfa -16 + ^ x21: .cfa -24 + ^ x22: .cfa -32 + ^ .ra: .cfa -40 + ^ x29: .cfa -48 + ^
STACK CFI INIT 987b0 108 .cfa: sp 0 +
STACK CFI 987c4 .cfa: x29 64 + x19: .cfa -8 + ^ x20: .cfa -16 + ^ x21: .cfa -24 + ^ x22: .cfa -32 + ^ x23: .cfa -40 + ^ x24: .cfa -48 + ^ .ra: .cfa -56 + ^ x29: .cfa -64 + ^
STACK CFI INIT 988b8 8c .cfa: sp 0 +
STACK CFI 988c0 .cfa: x29 16 + .ra: .cfa -8 + ^ x29: .cfa -16 + ^
STACK CFI INIT 98948 18 .cfa: sp 0 +
STACK CFI 98950 .cfa: x29 16 + .ra: .cfa -8 + ^ x29: .cfa -16 + ^
STACK CFI INIT 98960 fc .cfa: sp 0 +
STACK CFI 98970 .cfa: x29 48 + x19: .cfa -8 + ^ x20: .cfa -16 + ^ x21: .cfa -24 + ^ x22: .cfa -32 + ^ .ra: .cfa -40 + ^ x29: .cfa -48 + ^
STACK CFI INIT 98a60 130 .cfa: sp 0 +
STACK CFI 98a78 .cfa: x29 64 + x19: .cfa -8 + ^ x20: .cfa -16 + ^ x21: .cfa -24 + ^ x22: .cfa -32 + ^ x23: .cfa -48 + ^ .ra: .cfa -56 + ^ x29: .cfa -64 + ^
STACK CFI INIT 98b90 94 .cfa: sp 0 +
STACK CFI 98b98 .cfa: x29 16 + .ra: .cfa -8 + ^ x29: .cfa -16 + ^
STACK CFI INIT 98c28 18 .cfa: sp 0 +
STACK CFI 98c30 .cfa: x29 16 + .ra: .cfa -8 + ^ x29: .cfa -16 + ^
STACK CFI INIT 98c40 64 .cfa: sp 0 +
STACK CFI 98c4c .cfa: x29 32 + x19: .cfa -16 + ^ .ra: .cfa -24 + ^ x29: .cfa -32 + ^
STACK CFI INIT 98ca8 1fc .cfa: sp 0 +
STACK CFI 98cc4 .cfa: x29 80 + x19: .cfa -8 + ^ x20: .cfa -16 + ^ x21: .cfa -24 + ^ x22: .cfa -32 + ^ x23: .cfa -40 + ^ x24: .cfa -48 + ^ x25: .cfa -56 + ^ x26: .cfa -64 + ^ .ra: .cfa -72 + ^ x29: .cfa -80 + ^
STACK CFI INIT 98ea8 1c4 .cfa: sp 0 +
STACK CFI 98eb8 .cfa: x29 48 + x19: .cfa -8 + ^ x20: .cfa -16 + ^ x21: .cfa -24 + ^ x22: .cfa -32 + ^ .ra: .cfa -40 + ^ x29: .cfa -48 + ^
STACK CFI INIT 99070 ac .cfa: sp 0 +
STACK CFI 99080 .cfa: x29 32 + x19: .cfa -8 + ^ x28: .cfa -16 + ^ .ra: .cfa -24 + ^ x29: .cfa -32 + ^
STACK CFI INIT 99120 54 .cfa: sp 0 +
STACK CFI 9912c .cfa: x29 32 + x19: .cfa -8 + ^ x20: .cfa -16 + ^ .ra: .cfa -24 + ^ x29: .cfa -32 + ^
STACK CFI INIT 99178 ac .cfa: sp 0 +
STACK CFI 99188 .cfa: x29 32 + x19: .cfa -8 + ^ x28: .cfa -16 + ^ .ra: .cfa -24 + ^ x29: .cfa -32 + ^
STACK CFI INIT 99228 230 .cfa: sp 0 +
STACK CFI 99240 .cfa: x29 80 + x19: .cfa -8 + ^ x20: .cfa -16 + ^ x21: .cfa -24 + ^ x22: .cfa -32 + ^ x23: .cfa -40 + ^ x24: .cfa -48 + ^ x25: .cfa -64 + ^ .ra: .cfa -72 + ^ x29: .cfa -80 + ^
STACK CFI INIT 99458 80 .cfa: sp 0 +
STACK CFI 99460 .cfa: x29 16 + .ra: .cfa -8 + ^ x29: .cfa -16 + ^
STACK CFI INIT 994d8 b0 .cfa: sp 0 +
STACK CFI 994e4 .cfa: x29 32 + x19: .cfa -8 + ^ x20: .cfa -16 + ^ .ra: .cfa -24 + ^ x29: .cfa -32 + ^
STACK CFI INIT 99588 13c .cfa: sp 0 +
STACK CFI 995a0 .cfa: x29 64 + x19: .cfa -8 + ^ x20: .cfa -16 + ^ x21: .cfa -24 + ^ x22: .cfa -32 + ^ x28: .cfa -48 + ^ .ra: .cfa -56 + ^ x29: .cfa -64 + ^
STACK CFI INIT 996c8 124 .cfa: sp 0 +
STACK CFI 996e0 .cfa: x29 64 + x19: .cfa -8 + ^ x20: .cfa -16 + ^ x21: .cfa -24 + ^ x22: .cfa -32 + ^ x23: .cfa -40 + ^ x28: .cfa -48 + ^ .ra: .cfa -56 + ^ x29: .cfa -64 + ^
STACK CFI INIT 997f0 20 .cfa: sp 0 +
STACK CFI 997f8 .cfa: x29 16 + .ra: .cfa -8 + ^ x29: .cfa -16 + ^
STACK CFI INIT 99810 d8 .cfa: sp 0 +
STACK CFI 99824 .cfa: x29 48 + x19: .cfa -8 + ^ x20: .cfa -16 + ^ x21: .cfa -24 + ^ x28: .cfa -32 + ^ .ra: .cfa -40 + ^ x29: .cfa -48 + ^
STACK CFI INIT 998e8 8 .cfa: sp 0 +
STACK CFI INIT 998f0 1c0 .cfa: sp 0 +
STACK CFI 99908 .cfa: x29 64 + x19: .cfa -8 + ^ x20: .cfa -16 + ^ x21: .cfa -24 + ^ x22: .cfa -32 + ^ x23: .cfa -40 + ^ x28: .cfa -48 + ^ .ra: .cfa -56 + ^ x29: .cfa -64 + ^
STACK CFI INIT 99ab0 168 .cfa: sp 0 +
STACK CFI 99acc .cfa: x29 80 + x19: .cfa -8 + ^ x20: .cfa -16 + ^ x21: .cfa -24 + ^ x22: .cfa -32 + ^ x23: .cfa -40 + ^ x24: .cfa -48 + ^ x28: .cfa -64 + ^ .ra: .cfa -72 + ^ x29: .cfa -80 + ^
STACK CFI INIT 99c18 8 .cfa: sp 0 +
STACK CFI INIT 99c20 f0 .cfa: sp 0 +
STACK CFI 99c2c .cfa: x29 32 + x19: .cfa -8 + ^ x20: .cfa -16 + ^ .ra: .cfa -24 + ^ x29: .cfa -32 + ^
STACK CFI INIT 99d10 d8 .cfa: sp 0 +
STACK CFI 99d1c .cfa: x29 32 + x19: .cfa -16 + ^ .ra: .cfa -24 + ^ x29: .cfa -32 + ^
STACK CFI INIT 99de8 c .cfa: sp 0 +
STACK CFI INIT 99df8 34 .cfa: sp 0 +
STACK CFI INIT 99e30 ac .cfa: sp 0 +
STACK CFI INIT 99ee0 c0 .cfa: sp 0 +
STACK CFI INIT 99fa0 188 .cfa: sp 0 +
STACK CFI 99fb0 .cfa: x29 48 + x19: .cfa -8 + ^ x20: .cfa -16 + ^ x21: .cfa -24 + ^ x22: .cfa -32 + ^ .ra: .cfa -40 + ^ x29: .cfa -48 + ^
STACK CFI INIT 9a128 28 .cfa: sp 0 +
STACK CFI INIT 9a150 c .cfa: sp 0 +
STACK CFI INIT 9a160 30 .cfa: sp 0 +
STACK CFI INIT 9a190 c .cfa: sp 0 +
STACK CFI INIT 9a1a0 30 .cfa: sp 0 +
STACK CFI INIT 9a1d0 c .cfa: sp 0 +
STACK CFI INIT 9a1e0 30 .cfa: sp 0 +
STACK CFI INIT 9a210 90 .cfa: sp 0 +
STACK CFI 9a224 .cfa: x29 64 + x19: .cfa -8 + ^ x20: .cfa -16 + ^ x21: .cfa -24 + ^ x22: .cfa -32 + ^ x23: .cfa -40 + ^ x24: .cfa -48 + ^ .ra: .cfa -56 + ^ x29: .cfa -64 + ^
STACK CFI INIT 9a2a0 70 .cfa: sp 0 +
STACK CFI 9a2b4 .cfa: x29 64 + x19: .cfa -8 + ^ x20: .cfa -16 + ^ x21: .cfa -24 + ^ x22: .cfa -32 + ^ x23: .cfa -48 + ^ .ra: .cfa -56 + ^ x29: .cfa -64 + ^
STACK CFI INIT 9a310 24 .cfa: sp 0 +
STACK CFI INIT 9a338 178 .cfa: sp 0 +
STACK CFI 9a354 .cfa: x29 80 + x19: .cfa -8 + ^ x20: .cfa -16 + ^ x21: .cfa -24 + ^ x22: .cfa -32 + ^ x23: .cfa -40 + ^ x24: .cfa -48 + ^ x25: .cfa -64 + ^ .ra: .cfa -72 + ^ x29: .cfa -80 + ^
STACK CFI INIT 9a4b0 228 .cfa: sp 0 +
STACK CFI 9a4d0 .cfa: x29 96 + x19: .cfa -8 + ^ x20: .cfa -16 + ^ x21: .cfa -24 + ^ x22: .cfa -32 + ^ x23: .cfa -40 + ^ x24: .cfa -48 + ^ x25: .cfa -56 + ^ x26: .cfa -64 + ^ x27: .cfa -72 + ^ x28: .cfa -80 + ^ .ra: .cfa -88 + ^ x29: .cfa -96 + ^
STACK CFI INIT 9a6d8 e4 .cfa: sp 0 +
STACK CFI 9a6ec .cfa: x29 48 + x19: .cfa -8 + ^ x20: .cfa -16 + ^ x21: .cfa -24 + ^ x22: .cfa -32 + ^ .ra: .cfa -40 + ^ x29: .cfa -48 + ^
STACK CFI INIT 9a7c0 84 .cfa: sp 0 +
STACK CFI 9a7d4 .cfa: x29 64 + x19: .cfa -8 + ^ x20: .cfa -16 + ^ x21: .cfa -24 + ^ x22: .cfa -32 + ^ x23: .cfa -48 + ^ .ra: .cfa -56 + ^ x29: .cfa -64 + ^
STACK CFI INIT 9a848 a0 .cfa: sp 0 +
STACK CFI 9a85c .cfa: x29 64 + x19: .cfa -8 + ^ x20: .cfa -16 + ^ x21: .cfa -24 + ^ x22: .cfa -32 + ^ x23: .cfa -48 + ^ .ra: .cfa -56 + ^ x29: .cfa -64 + ^
STACK CFI INIT 9a8e8 110 .cfa: sp 0 +
STACK CFI 9a900 .cfa: x29 80 + x19: .cfa -8 + ^ x20: .cfa -16 + ^ x21: .cfa -24 + ^ x22: .cfa -32 + ^ x23: .cfa -40 + ^ x24: .cfa -48 + ^ x25: .cfa -64 + ^ .ra: .cfa -72 + ^ x29: .cfa -80 + ^
STACK CFI INIT 9a9f8 14 .cfa: sp 0 +
STACK CFI INIT 9aa10 a8 .cfa: sp 0 +
STACK CFI 9aa20 .cfa: x29 32 + x19: .cfa -8 + ^ x20: .cfa -16 + ^ .ra: .cfa -24 + ^ x29: .cfa -32 + ^
STACK CFI INIT 9aab8 30 .cfa: sp 0 +
STACK CFI INIT 9aae8 38 .cfa: sp 0 +
STACK CFI INIT 9ab20 40 .cfa: sp 0 +
STACK CFI INIT 9ab60 a0 .cfa: sp 0 +
STACK CFI 9ab74 .cfa: x29 64 + x19: .cfa -8 + ^ x20: .cfa -16 + ^ x21: .cfa -24 + ^ x22: .cfa -32 + ^ x23: .cfa -48 + ^ .ra: .cfa -56 + ^ x29: .cfa -64 + ^
STACK CFI INIT 9ac00 4 .cfa: sp 0 +
STACK CFI INIT 9ac08 34 .cfa: sp 0 +
STACK CFI INIT 9ac40 50 .cfa: sp 0 +
STACK CFI 9ac50 .cfa: x29 48 + x19: .cfa -8 + ^ x20: .cfa -16 + ^ x21: .cfa -32 + ^ .ra: .cfa -40 + ^ x29: .cfa -48 + ^
STACK CFI INIT 9ac90 54 .cfa: sp 0 +
STACK CFI 9aca0 .cfa: x29 48 + x19: .cfa -8 + ^ x20: .cfa -16 + ^ x21: .cfa -32 + ^ .ra: .cfa -40 + ^ x29: .cfa -48 + ^
STACK CFI INIT 9ace8 44 .cfa: sp 0 +
STACK CFI INIT 9ad30 50 .cfa: sp 0 +
STACK CFI INIT 9ad80 34 .cfa: sp 0 +
STACK CFI INIT 9adb8 88 .cfa: sp 0 +
STACK CFI INIT 9ae40 84 .cfa: sp 0 +
STACK CFI INIT 9aec8 28 .cfa: sp 0 +
STACK CFI 9aed0 .cfa: x29 16 + .ra: .cfa -8 + ^ x29: .cfa -16 + ^
STACK CFI INIT 9aef0 44 .cfa: sp 0 +
STACK CFI INIT 9af38 6c .cfa: sp 0 +
STACK CFI 9af48 .cfa: x29 48 + x19: .cfa -8 + ^ x20: .cfa -16 + ^ x21: .cfa -24 + ^ x22: .cfa -32 + ^ .ra: .cfa -40 + ^ x29: .cfa -48 + ^
STACK CFI INIT 9afa8 30 .cfa: sp 0 +
STACK CFI 9afb4 .cfa: x29 32 + x19: .cfa -16 + ^ .ra: .cfa -24 + ^ x29: .cfa -32 + ^
STACK CFI INIT 9afe0 18 .cfa: sp 0 +
STACK CFI INIT 9b000 18 .cfa: sp 0 +
STACK CFI INIT 9b020 18 .cfa: sp 0 +
STACK CFI INIT 9b040 18 .cfa: sp 0 +
STACK CFI INIT 9b060 18 .cfa: sp 0 +
STACK CFI INIT 9b080 18 .cfa: sp 0 +
STACK CFI INIT 9b0a0 18 .cfa: sp 0 +
STACK CFI INIT 9b0c0 18 .cfa: sp 0 +
STACK CFI INIT 9b0e0 18 .cfa: sp 0 +
STACK CFI INIT 9b100 18 .cfa: sp 0 +
STACK CFI INIT 9b120 18 .cfa: sp 0 +
STACK CFI INIT 9b140 18 .cfa: sp 0 +
STACK CFI INIT 9b160 18 .cfa: sp 0 +
STACK CFI INIT 9b180 18 .cfa: sp 0 +
STACK CFI INIT 9b1a0 18 .cfa: sp 0 +
STACK CFI INIT 9b1c0 18 .cfa: sp 0 +
STACK CFI INIT 9b1e0 18 .cfa: sp 0 +
STACK CFI INIT 9b200 18 .cfa: sp 0 +
STACK CFI INIT 9b220 18 .cfa: sp 0 +
STACK CFI INIT 9b240 18 .cfa: sp 0 +
STACK CFI INIT 9b260 18 .cfa: sp 0 +
STACK CFI INIT 9b280 18 .cfa: sp 0 +
STACK CFI INIT 9b2a0 18 .cfa: sp 0 +
STACK CFI INIT 9b2c0 18 .cfa: sp 0 +
STACK CFI INIT 9b2e0 18 .cfa: sp 0 +
STACK CFI INIT 9b300 18 .cfa: sp 0 +
STACK CFI INIT 9b320 18 .cfa: sp 0 +
STACK CFI INIT 9b340 18 .cfa: sp 0 +
STACK CFI INIT 9b360 18 .cfa: sp 0 +
STACK CFI INIT 9b380 18 .cfa: sp 0 +
STACK CFI INIT 9b3a0 18 .cfa: sp 0 +
STACK CFI INIT 9b3c0 18 .cfa: sp 0 +
STACK CFI INIT 9b3e0 18 .cfa: sp 0 +
STACK CFI INIT 9b400 18 .cfa: sp 0 +
STACK CFI INIT 9b420 18 .cfa: sp 0 +
STACK CFI INIT 9b440 18 .cfa: sp 0 +
STACK CFI INIT 9b460 18 .cfa: sp 0 +
STACK CFI INIT 9b480 18 .cfa: sp 0 +
STACK CFI INIT 9b4a0 18 .cfa: sp 0 +
STACK CFI INIT 9b4c0 18 .cfa: sp 0 +
STACK CFI INIT 9b4e0 18 .cfa: sp 0 +
STACK CFI INIT 9b500 18 .cfa: sp 0 +
STACK CFI INIT 9b520 18 .cfa: sp 0 +
STACK CFI INIT 9b540 18 .cfa: sp 0 +
STACK CFI INIT 9b560 18 .cfa: sp 0 +
STACK CFI INIT 9b580 18 .cfa: sp 0 +
STACK CFI INIT 9b5a0 18 .cfa: sp 0 +
STACK CFI INIT 9b5c0 18 .cfa: sp 0 +
STACK CFI INIT 9b5e0 18 .cfa: sp 0 +
STACK CFI INIT 9b600 18 .cfa: sp 0 +
STACK CFI INIT 9b620 18 .cfa: sp 0 +
STACK CFI INIT 9b640 18 .cfa: sp 0 +
STACK CFI INIT 9b660 18 .cfa: sp 0 +
STACK CFI INIT 9b680 18 .cfa: sp 0 +
STACK CFI INIT 9b6a0 18 .cfa: sp 0 +
STACK CFI INIT 9b6c0 18 .cfa: sp 0 +
STACK CFI INIT 9b6e0 18 .cfa: sp 0 +
STACK CFI INIT 9b700 18 .cfa: sp 0 +
STACK CFI INIT 9b720 18 .cfa: sp 0 +
STACK CFI INIT 9b740 18 .cfa: sp 0 +
STACK CFI INIT 9b760 18 .cfa: sp 0 +
STACK CFI INIT 9b780 18 .cfa: sp 0 +
STACK CFI INIT 9b7a0 18 .cfa: sp 0 +
STACK CFI INIT 9b7c0 18 .cfa: sp 0 +
STACK CFI INIT 9b7e0 18 .cfa: sp 0 +
STACK CFI INIT 9b800 18 .cfa: sp 0 +
STACK CFI INIT 9b820 18 .cfa: sp 0 +
STACK CFI INIT 9b840 18 .cfa: sp 0 +
STACK CFI INIT 9b860 18 .cfa: sp 0 +
STACK CFI INIT 9b880 18 .cfa: sp 0 +
STACK CFI INIT 9b8a0 18 .cfa: sp 0 +
STACK CFI INIT 9b8c0 18 .cfa: sp 0 +
STACK CFI INIT 9b8e0 18 .cfa: sp 0 +
STACK CFI INIT 9b900 18 .cfa: sp 0 +
STACK CFI INIT 9b920 18 .cfa: sp 0 +
STACK CFI INIT 9b940 18 .cfa: sp 0 +
STACK CFI INIT 9b960 18 .cfa: sp 0 +
STACK CFI INIT 9b980 18 .cfa: sp 0 +
STACK CFI INIT 9b9a0 18 .cfa: sp 0 +
STACK CFI INIT 9b9c0 18 .cfa: sp 0 +
STACK CFI INIT 9b9e0 18 .cfa: sp 0 +
STACK CFI INIT 9ba00 18 .cfa: sp 0 +
STACK CFI INIT 9ba20 18 .cfa: sp 0 +
STACK CFI INIT 9ba40 18 .cfa: sp 0 +
STACK CFI INIT 9ba60 18 .cfa: sp 0 +
STACK CFI INIT 9ba80 18 .cfa: sp 0 +
STACK CFI INIT 9baa0 18 .cfa: sp 0 +
STACK CFI INIT 9bac0 18 .cfa: sp 0 +
STACK CFI INIT 9bae0 18 .cfa: sp 0 +
STACK CFI INIT 9bb00 18 .cfa: sp 0 +
STACK CFI INIT 9bb20 18 .cfa: sp 0 +
STACK CFI INIT 9bb40 18 .cfa: sp 0 +
STACK CFI INIT 9bb60 18 .cfa: sp 0 +
STACK CFI INIT 9bb80 18 .cfa: sp 0 +
STACK CFI INIT 9bba0 18 .cfa: sp 0 +
STACK CFI INIT 9bbc0 18 .cfa: sp 0 +
STACK CFI INIT 9bbe0 18 .cfa: sp 0 +
STACK CFI INIT 9bc00 18 .cfa: sp 0 +
STACK CFI INIT 9bc20 18 .cfa: sp 0 +
STACK CFI INIT 9bc40 18 .cfa: sp 0 +
STACK CFI INIT 9bc60 18 .cfa: sp 0 +
STACK CFI INIT 9bc80 18 .cfa: sp 0 +
STACK CFI INIT 9bca0 18 .cfa: sp 0 +
STACK CFI INIT 9bcc0 18 .cfa: sp 0 +
STACK CFI INIT 9bce0 18 .cfa: sp 0 +
STACK CFI INIT 9bd00 18 .cfa: sp 0 +
STACK CFI INIT 9bd20 18 .cfa: sp 0 +
STACK CFI INIT 9bd40 18 .cfa: sp 0 +
STACK CFI INIT 9bd60 18 .cfa: sp 0 +
STACK CFI INIT 9bd80 18 .cfa: sp 0 +
STACK CFI INIT 9bda0 18 .cfa: sp 0 +
STACK CFI INIT 9bdc0 18 .cfa: sp 0 +
STACK CFI INIT 9bde0 18 .cfa: sp 0 +
STACK CFI INIT 9be00 18 .cfa: sp 0 +
STACK CFI INIT 9be20 18 .cfa: sp 0 +
STACK CFI INIT 9be40 18 .cfa: sp 0 +
STACK CFI INIT 9be60 18 .cfa: sp 0 +
STACK CFI INIT 9be80 18 .cfa: sp 0 +
STACK CFI INIT 9bea0 18 .cfa: sp 0 +
STACK CFI INIT 9bec0 18 .cfa: sp 0 +
STACK CFI INIT 9bee0 18 .cfa: sp 0 +
STACK CFI INIT 9bf00 18 .cfa: sp 0 +
STACK CFI INIT 9bf20 18 .cfa: sp 0 +
STACK CFI INIT 9bf40 18 .cfa: sp 0 +
STACK CFI INIT 9bf60 18 .cfa: sp 0 +
STACK CFI INIT 9bf80 18 .cfa: sp 0 +
STACK CFI INIT 9bfa0 18 .cfa: sp 0 +
STACK CFI INIT 9bfc0 18 .cfa: sp 0 +
STACK CFI INIT 9bfe0 18 .cfa: sp 0 +
STACK CFI INIT 9c000 18 .cfa: sp 0 +
STACK CFI INIT 9c020 18 .cfa: sp 0 +
STACK CFI INIT 9c040 18 .cfa: sp 0 +
STACK CFI INIT 9c060 18 .cfa: sp 0 +
STACK CFI INIT 9c080 18 .cfa: sp 0 +
STACK CFI INIT 9c0a0 18 .cfa: sp 0 +
STACK CFI INIT 9c0c0 18 .cfa: sp 0 +
STACK CFI INIT 9c0e0 18 .cfa: sp 0 +
STACK CFI INIT 9c100 18 .cfa: sp 0 +
STACK CFI INIT 9c120 18 .cfa: sp 0 +
STACK CFI INIT 9c140 18 .cfa: sp 0 +
STACK CFI INIT 9c160 18 .cfa: sp 0 +
STACK CFI INIT 9c180 18 .cfa: sp 0 +
STACK CFI INIT 9c1a0 18 .cfa: sp 0 +
STACK CFI INIT 9c1c0 18 .cfa: sp 0 +
STACK CFI INIT 9c1e0 18 .cfa: sp 0 +
STACK CFI INIT 9c200 18 .cfa: sp 0 +
STACK CFI INIT 9c220 18 .cfa: sp 0 +
STACK CFI INIT 9c240 18 .cfa: sp 0 +
STACK CFI INIT 9c260 18 .cfa: sp 0 +
STACK CFI INIT 9c280 18 .cfa: sp 0 +
STACK CFI INIT 9c2a0 18 .cfa: sp 0 +
STACK CFI INIT 9c2c0 18 .cfa: sp 0 +
STACK CFI INIT 9c2e0 18 .cfa: sp 0 +
STACK CFI INIT 9c300 18 .cfa: sp 0 +
STACK CFI INIT 9c320 18 .cfa: sp 0 +
STACK CFI INIT 9c340 18 .cfa: sp 0 +
STACK CFI INIT 9c360 18 .cfa: sp 0 +
STACK CFI INIT 9c380 18 .cfa: sp 0 +
STACK CFI INIT 9c3a0 18 .cfa: sp 0 +
STACK CFI INIT 9c3c0 18 .cfa: sp 0 +
STACK CFI INIT 9c3e0 18 .cfa: sp 0 +
STACK CFI INIT 9c400 18 .cfa: sp 0 +
STACK CFI INIT 9c420 18 .cfa: sp 0 +
STACK CFI INIT 9c440 18 .cfa: sp 0 +
STACK CFI INIT 9c460 18 .cfa: sp 0 +
STACK CFI INIT 9c480 18 .cfa: sp 0 +
STACK CFI INIT 9c4a0 18 .cfa: sp 0 +
STACK CFI INIT 9c4c0 18 .cfa: sp 0 +
STACK CFI INIT 9c4e0 18 .cfa: sp 0 +
STACK CFI INIT 9c500 18 .cfa: sp 0 +
STACK CFI INIT 9c520 18 .cfa: sp 0 +
STACK CFI INIT 9c540 18 .cfa: sp 0 +
STACK CFI INIT 9c560 18 .cfa: sp 0 +
STACK CFI INIT 9c580 18 .cfa: sp 0 +
STACK CFI INIT 9c5a0 18 .cfa: sp 0 +
STACK CFI INIT 9c5c0 18 .cfa: sp 0 +
STACK CFI INIT 9c5e0 18 .cfa: sp 0 +
STACK CFI INIT 9c600 18 .cfa: sp 0 +
STACK CFI INIT 9c620 18 .cfa: sp 0 +
STACK CFI INIT 9c640 18 .cfa: sp 0 +
STACK CFI INIT 9c660 18 .cfa: sp 0 +
STACK CFI INIT 9c680 18 .cfa: sp 0 +
STACK CFI INIT 9c6a0 18 .cfa: sp 0 +
STACK CFI INIT 9c6c0 18 .cfa: sp 0 +
STACK CFI INIT 9c6e0 18 .cfa: sp 0 +
STACK CFI INIT 9c700 18 .cfa: sp 0 +
STACK CFI INIT 9c720 18 .cfa: sp 0 +
STACK CFI INIT 9c740 18 .cfa: sp 0 +
STACK CFI INIT 9c760 18 .cfa: sp 0 +
STACK CFI INIT 9c780 18 .cfa: sp 0 +
STACK CFI INIT 9c7a0 18 .cfa: sp 0 +
STACK CFI INIT 9c7c0 18 .cfa: sp 0 +
STACK CFI INIT 9c7e0 18 .cfa: sp 0 +
STACK CFI INIT 9c800 18 .cfa: sp 0 +
STACK CFI INIT 9c820 18 .cfa: sp 0 +
STACK CFI INIT 9c840 18 .cfa: sp 0 +
STACK CFI INIT 9c860 18 .cfa: sp 0 +
STACK CFI INIT 9c880 18 .cfa: sp 0 +
STACK CFI INIT 9c8a0 18 .cfa: sp 0 +
STACK CFI INIT 9c8c0 18 .cfa: sp 0 +
STACK CFI INIT 9c8e0 18 .cfa: sp 0 +
STACK CFI INIT 9c900 18 .cfa: sp 0 +
STACK CFI INIT 9c920 18 .cfa: sp 0 +
STACK CFI INIT 9c940 18 .cfa: sp 0 +
STACK CFI INIT 9c960 18 .cfa: sp 0 +
STACK CFI INIT 9c980 18 .cfa: sp 0 +
STACK CFI INIT 9c9a0 18 .cfa: sp 0 +
STACK CFI INIT 9c9b8 194 .cfa: sp 0 +
STACK CFI 9c9d4 .cfa: x29 80 + x19: .cfa -8 + ^ x20: .cfa -16 + ^ x21: .cfa -24 + ^ x22: .cfa -32 + ^ x23: .cfa -40 + ^ x24: .cfa -48 + ^ x25: .cfa -64 + ^ .ra: .cfa -72 + ^ x29: .cfa -80 + ^
STACK CFI INIT 9cb50 a0 .cfa: sp 0 +
STACK CFI 9cb60 .cfa: x29 32 + x19: .cfa -8 + ^ x28: .cfa -16 + ^ .ra: .cfa -24 + ^ x29: .cfa -32 + ^
STACK CFI INIT 9cbf0 c .cfa: sp 0 +
STACK CFI INIT 9cc00 20 .cfa: sp 0 +
STACK CFI INIT 9cc20 200 .cfa: sp 0 +
STACK CFI 9cc34 .cfa: x29 64 + x19: .cfa -8 + ^ x20: .cfa -16 + ^ x21: .cfa -24 + ^ x22: .cfa -32 + ^ x23: .cfa -40 + ^ x24: .cfa -48 + ^ .ra: .cfa -56 + ^ x29: .cfa -64 + ^
STACK CFI INIT 9ce20 1a0 .cfa: sp 0 +
STACK CFI 9ce34 .cfa: x29 64 + x19: .cfa -8 + ^ x20: .cfa -16 + ^ x21: .cfa -24 + ^ x22: .cfa -32 + ^ x23: .cfa -40 + ^ x24: .cfa -48 + ^ .ra: .cfa -56 + ^ x29: .cfa -64 + ^
STACK CFI INIT 9cfc0 34 .cfa: sp 0 +
STACK CFI 9cfc8 .cfa: x29 16 + .ra: .cfa -8 + ^ x29: .cfa -16 + ^
STACK CFI INIT 9cff8 2b8 .cfa: sp 0 +
STACK CFI 9d014 .cfa: x29 80 + x19: .cfa -8 + ^ x20: .cfa -16 + ^ x21: .cfa -24 + ^ x22: .cfa -32 + ^ x23: .cfa -40 + ^ x24: .cfa -48 + ^ x25: .cfa -64 + ^ .ra: .cfa -72 + ^ x29: .cfa -80 + ^
STACK CFI INIT 9d2b0 78 .cfa: sp 0 +
STACK CFI 9d2bc .cfa: x29 32 + x19: .cfa -8 + ^ x20: .cfa -16 + ^ .ra: .cfa -24 + ^ x29: .cfa -32 + ^
STACK CFI INIT 9d328 80 .cfa: sp 0 +
STACK CFI 9d338 .cfa: x29 48 + x19: .cfa -8 + ^ x20: .cfa -16 + ^ x21: .cfa -32 + ^ .ra: .cfa -40 + ^ x29: .cfa -48 + ^
STACK CFI INIT 9d3a8 d8 .cfa: sp 0 +
STACK CFI 9d3bc .cfa: x29 64 + x19: .cfa -8 + ^ x20: .cfa -16 + ^ x21: .cfa -24 + ^ x22: .cfa -32 + ^ x23: .cfa -48 + ^ .ra: .cfa -56 + ^ x29: .cfa -64 + ^
STACK CFI INIT 9d480 6c .cfa: sp 0 +
STACK CFI 9d490 .cfa: x29 48 + x19: .cfa -8 + ^ x20: .cfa -16 + ^ x21: .cfa -32 + ^ .ra: .cfa -40 + ^ x29: .cfa -48 + ^
STACK CFI INIT 9d4f0 c .cfa: sp 0 +
STACK CFI INIT 9d500 80 .cfa: sp 0 +
STACK CFI 9d50c .cfa: x29 32 + x19: .cfa -8 + ^ x20: .cfa -16 + ^ .ra: .cfa -24 + ^ x29: .cfa -32 + ^
STACK CFI INIT 9d580 cc .cfa: sp 0 +
STACK CFI 9d594 .cfa: x29 48 + x19: .cfa -8 + ^ x20: .cfa -16 + ^ x21: .cfa -24 + ^ x22: .cfa -32 + ^ .ra: .cfa -40 + ^ x29: .cfa -48 + ^
STACK CFI INIT 9d650 128 .cfa: sp 0 +
STACK CFI 9d664 .cfa: x29 64 + x19: .cfa -8 + ^ x20: .cfa -16 + ^ x21: .cfa -24 + ^ x22: .cfa -32 + ^ x23: .cfa -40 + ^ x24: .cfa -48 + ^ .ra: .cfa -56 + ^ x29: .cfa -64 + ^
STACK CFI INIT 9d778 10 .cfa: sp 0 +
STACK CFI INIT 9d788 8 .cfa: sp 0 +
STACK CFI INIT 9d790 c0 .cfa: sp 0 +
STACK CFI 9d7a4 .cfa: x29 64 + x19: .cfa -8 + ^ x20: .cfa -16 + ^ x21: .cfa -24 + ^ x22: .cfa -32 + ^ x23: .cfa -48 + ^ .ra: .cfa -56 + ^ x29: .cfa -64 + ^
STACK CFI INIT 9d850 338 .cfa: sp 0 +
STACK CFI 9d870 .cfa: x29 96 + x19: .cfa -8 + ^ x20: .cfa -16 + ^ x21: .cfa -24 + ^ x22: .cfa -32 + ^ x23: .cfa -40 + ^ x24: .cfa -48 + ^ x25: .cfa -56 + ^ x26: .cfa -64 + ^ x27: .cfa -72 + ^ x28: .cfa -80 + ^ .ra: .cfa -88 + ^ x29: .cfa -96 + ^
STACK CFI INIT 9db88 de4 .cfa: sp 0 +
STACK CFI 9dba8 .cfa: x29 96 + x19: .cfa -8 + ^ x20: .cfa -16 + ^ x21: .cfa -24 + ^ x22: .cfa -32 + ^ x23: .cfa -40 + ^ x24: .cfa -48 + ^ x25: .cfa -56 + ^ x26: .cfa -64 + ^ x27: .cfa -72 + ^ x28: .cfa -80 + ^ .ra: .cfa -88 + ^ x29: .cfa -96 + ^
STACK CFI INIT 9e970 66c .cfa: sp 0 +
STACK CFI 9e990 .cfa: x29 96 + x19: .cfa -8 + ^ x20: .cfa -16 + ^ x21: .cfa -24 + ^ x22: .cfa -32 + ^ x23: .cfa -40 + ^ x24: .cfa -48 + ^ x25: .cfa -56 + ^ x26: .cfa -64 + ^ x27: .cfa -72 + ^ x28: .cfa -80 + ^ .ra: .cfa -88 + ^ x29: .cfa -96 + ^
STACK CFI INIT 9efe0 140 .cfa: sp 0 +
STACK CFI INIT 9f120 1dc .cfa: sp 0 +
STACK CFI INIT 9f300 2a4 .cfa: sp 0 +
STACK CFI INIT 9f5a8 618 .cfa: sp 0 +
STACK CFI 9f5c8 .cfa: x29 96 + x19: .cfa -8 + ^ x20: .cfa -16 + ^ x21: .cfa -24 + ^ x22: .cfa -32 + ^ x23: .cfa -40 + ^ x24: .cfa -48 + ^ x25: .cfa -56 + ^ x26: .cfa -64 + ^ x27: .cfa -72 + ^ x28: .cfa -80 + ^ .ra: .cfa -88 + ^ x29: .cfa -96 + ^
STACK CFI INIT 9fbc0 44 .cfa: sp 0 +
STACK CFI 9fbf0 .cfa: x29 16 + .ra: .cfa -8 + ^ x29: .cfa -16 + ^
STACK CFI INIT 9fc08 924 .cfa: sp 0 +
STACK CFI 9fc28 .cfa: x29 96 + x19: .cfa -8 + ^ x20: .cfa -16 + ^ x21: .cfa -24 + ^ x22: .cfa -32 + ^ x23: .cfa -40 + ^ x24: .cfa -48 + ^ x25: .cfa -56 + ^ x26: .cfa -64 + ^ x27: .cfa -72 + ^ x28: .cfa -80 + ^ .ra: .cfa -88 + ^ x29: .cfa -96 + ^
STACK CFI INIT a0530 74 .cfa: sp 0 +
STACK CFI INIT a05a8 ac .cfa: sp 0 +
STACK CFI a05c0 .cfa: x29 64 + x19: .cfa -8 + ^ x20: .cfa -16 + ^ x21: .cfa -24 + ^ x22: .cfa -32 + ^ x23: .cfa -48 + ^ .ra: .cfa -56 + ^ x29: .cfa -64 + ^
STACK CFI INIT a0658 ac .cfa: sp 0 +
STACK CFI a0670 .cfa: x29 64 + x19: .cfa -8 + ^ x20: .cfa -16 + ^ x21: .cfa -24 + ^ x22: .cfa -32 + ^ x23: .cfa -48 + ^ .ra: .cfa -56 + ^ x29: .cfa -64 + ^
STACK CFI INIT a0708 10c0 .cfa: sp 0 +
STACK CFI a0728 .cfa: x29 96 + x19: .cfa -8 + ^ x20: .cfa -16 + ^ x21: .cfa -24 + ^ x22: .cfa -32 + ^ x23: .cfa -40 + ^ x24: .cfa -48 + ^ x25: .cfa -56 + ^ x26: .cfa -64 + ^ x27: .cfa -80 + ^ .ra: .cfa -88 + ^ x29: .cfa -96 + ^
STACK CFI INIT a17c8 f8 .cfa: sp 0 +
STACK CFI INIT a18c0 224 .cfa: sp 0 +
STACK CFI a18d8 .cfa: x29 64 + x19: .cfa -8 + ^ x20: .cfa -16 + ^ x21: .cfa -24 + ^ x22: .cfa -32 + ^ x23: .cfa -40 + ^ x24: .cfa -48 + ^ .ra: .cfa -56 + ^ x29: .cfa -64 + ^
STACK CFI INIT a1ae8 54 .cfa: sp 0 +
STACK CFI a1af8 .cfa: x29 32 + x19: .cfa -16 + ^ .ra: .cfa -24 + ^ x29: .cfa -32 + ^
STACK CFI INIT a1b40 8d4 .cfa: sp 0 +
STACK CFI a1b60 .cfa: x29 96 + x19: .cfa -8 + ^ x20: .cfa -16 + ^ x21: .cfa -24 + ^ x22: .cfa -32 + ^ x23: .cfa -40 + ^ x24: .cfa -48 + ^ x25: .cfa -56 + ^ x26: .cfa -64 + ^ x27: .cfa -72 + ^ x28: .cfa -80 + ^ .ra: .cfa -88 + ^ x29: .cfa -96 + ^
STACK CFI INIT a2418 54 .cfa: sp 0 +
STACK CFI a2428 .cfa: x29 32 + x19: .cfa -16 + ^ .ra: .cfa -24 + ^ x29: .cfa -32 + ^
STACK CFI INIT a2470 a0 .cfa: sp 0 +
STACK CFI INIT a2510 1c0 .cfa: sp 0 +
STACK CFI a2524 .cfa: x29 48 + x19: .cfa -8 + ^ x20: .cfa -16 + ^ x21: .cfa -32 + ^ .ra: .cfa -40 + ^ x29: .cfa -48 + ^
STACK CFI INIT a26d0 98 .cfa: sp 0 +
STACK CFI a26dc .cfa: x29 32 + x19: .cfa -8 + ^ x20: .cfa -16 + ^ .ra: .cfa -24 + ^ x29: .cfa -32 + ^
STACK CFI INIT a2768 3dc .cfa: sp 0 +
STACK CFI a2788 .cfa: x29 96 + x19: .cfa -8 + ^ x20: .cfa -16 + ^ x21: .cfa -24 + ^ x22: .cfa -32 + ^ x23: .cfa -40 + ^ x24: .cfa -48 + ^ x25: .cfa -56 + ^ x26: .cfa -64 + ^ x27: .cfa -72 + ^ x28: .cfa -80 + ^ .ra: .cfa -88 + ^ x29: .cfa -96 + ^
STACK CFI INIT a2b48 b8 .cfa: sp 0 +
STACK CFI a2b60 .cfa: x29 64 + x19: .cfa -8 + ^ x20: .cfa -16 + ^ x21: .cfa -24 + ^ x22: .cfa -32 + ^ x23: .cfa -48 + ^ .ra: .cfa -56 + ^ x29: .cfa -64 + ^
STACK CFI INIT a2c00 1100 .cfa: sp 0 +
STACK CFI a2c20 .cfa: x29 96 + x19: .cfa -8 + ^ x20: .cfa -16 + ^ x21: .cfa -24 + ^ x22: .cfa -32 + ^ x23: .cfa -40 + ^ x24: .cfa -48 + ^ x25: .cfa -56 + ^ x26: .cfa -64 + ^ x27: .cfa -80 + ^ .ra: .cfa -88 + ^ x29: .cfa -96 + ^
STACK CFI INIT a3d00 13c .cfa: sp 0 +
STACK CFI a3d10 .cfa: x29 48 + x19: .cfa -8 + ^ x20: .cfa -16 + ^ x21: .cfa -32 + ^ .ra: .cfa -40 + ^ x29: .cfa -48 + ^
STACK CFI INIT a3e40 9c .cfa: sp 0 +
STACK CFI a3e54 .cfa: x29 48 + x19: .cfa -8 + ^ x20: .cfa -16 + ^ x21: .cfa -32 + ^ .ra: .cfa -40 + ^ x29: .cfa -48 + ^
STACK CFI INIT a3ee0 ec .cfa: sp 0 +
STACK CFI a3ef8 .cfa: x29 80 + x19: .cfa -8 + ^ x20: .cfa -16 + ^ x21: .cfa -24 + ^ x22: .cfa -32 + ^ x23: .cfa -40 + ^ x24: .cfa -48 + ^ x25: .cfa -56 + ^ x26: .cfa -64 + ^ .ra: .cfa -72 + ^ x29: .cfa -80 + ^
STACK CFI INIT a3fd0 78 .cfa: sp 0 +
STACK CFI a3fe0 .cfa: x29 48 + x19: .cfa -8 + ^ x20: .cfa -16 + ^ x21: .cfa -32 + ^ .ra: .cfa -40 + ^ x29: .cfa -48 + ^
STACK CFI INIT a4048 38 .cfa: sp 0 +
STACK CFI a4054 .cfa: x29 32 + x19: .cfa -16 + ^ .ra: .cfa -24 + ^ x29: .cfa -32 + ^
STACK CFI INIT a4080 38 .cfa: sp 0 +
STACK CFI a408c .cfa: x29 32 + x19: .cfa -16 + ^ .ra: .cfa -24 + ^ x29: .cfa -32 + ^
STACK CFI INIT a40b8 4 .cfa: sp 0 +
STACK CFI INIT a40c0 70 .cfa: sp 0 +
STACK CFI a40d0 .cfa: x29 32 + x19: .cfa -16 + ^ .ra: .cfa -24 + ^ x29: .cfa -32 + ^
STACK CFI INIT a4130 9b0 .cfa: sp 0 +
STACK CFI a4150 .cfa: x29 96 + x19: .cfa -8 + ^ x20: .cfa -16 + ^ x21: .cfa -24 + ^ x22: .cfa -32 + ^ x23: .cfa -40 + ^ x24: .cfa -48 + ^ x25: .cfa -56 + ^ x26: .cfa -64 + ^ x27: .cfa -72 + ^ x28: .cfa -80 + ^ .ra: .cfa -88 + ^ x29: .cfa -96 + ^
STACK CFI INIT a4ae0 c4 .cfa: sp 0 +
STACK CFI a4af0 .cfa: x29 32 + x19: .cfa -8 + ^ x28: .cfa -16 + ^ .ra: .cfa -24 + ^ x29: .cfa -32 + ^
STACK CFI INIT a4ba8 23c .cfa: sp 0 +
STACK CFI a4bc0 .cfa: x29 64 + x19: .cfa -8 + ^ x20: .cfa -16 + ^ x21: .cfa -24 + ^ x22: .cfa -32 + ^ x23: .cfa -40 + ^ x24: .cfa -48 + ^ .ra: .cfa -56 + ^ x29: .cfa -64 + ^
STACK CFI INIT a4de8 cc .cfa: sp 0 +
STACK CFI a4e08 .cfa: x29 96 + x19: .cfa -8 + ^ x20: .cfa -16 + ^ x21: .cfa -24 + ^ x22: .cfa -32 + ^ x23: .cfa -40 + ^ x24: .cfa -48 + ^ x25: .cfa -56 + ^ x26: .cfa -64 + ^ x27: .cfa -72 + ^ x28: .cfa -80 + ^ .ra: .cfa -88 + ^ x29: .cfa -96 + ^
STACK CFI INIT a4eb8 11c .cfa: sp 0 +
STACK CFI a4ed8 .cfa: x29 96 + x19: .cfa -8 + ^ x20: .cfa -16 + ^ x21: .cfa -24 + ^ x22: .cfa -32 + ^ x23: .cfa -40 + ^ x24: .cfa -48 + ^ x25: .cfa -56 + ^ x26: .cfa -64 + ^ x28: .cfa -80 + ^ .ra: .cfa -88 + ^ x29: .cfa -96 + ^
STACK CFI INIT a4fd8 1a8 .cfa: sp 0 +
STACK CFI a4ff8 .cfa: x29 96 + x19: .cfa -8 + ^ x20: .cfa -16 + ^ x21: .cfa -24 + ^ x22: .cfa -32 + ^ x23: .cfa -40 + ^ x24: .cfa -48 + ^ x25: .cfa -56 + ^ x26: .cfa -64 + ^ x27: .cfa -72 + ^ x28: .cfa -80 + ^ .ra: .cfa -88 + ^ x29: .cfa -96 + ^
STACK CFI INIT a5180 a8 .cfa: sp 0 +
STACK CFI a5190 .cfa: x29 32 + x19: .cfa -8 + ^ x28: .cfa -16 + ^ .ra: .cfa -24 + ^ x29: .cfa -32 + ^
STACK CFI INIT a5228 d0 .cfa: sp 0 +
STACK CFI INIT a52f8 d8 .cfa: sp 0 +
STACK CFI INIT a53d0 54 .cfa: sp 0 +
STACK CFI a53e0 .cfa: x29 32 + x19: .cfa -16 + ^ .ra: .cfa -24 + ^ x29: .cfa -32 + ^
STACK CFI INIT a5428 ac .cfa: sp 0 +
STACK CFI a5438 .cfa: x29 32 + x19: .cfa -8 + ^ x28: .cfa -16 + ^ .ra: .cfa -24 + ^ x29: .cfa -32 + ^
STACK CFI INIT a54d8 58 .cfa: sp 0 +
STACK CFI a54e8 .cfa: x29 32 + x19: .cfa -16 + ^ .ra: .cfa -24 + ^ x29: .cfa -32 + ^
STACK CFI INIT a5530 3a4 .cfa: sp 0 +
STACK CFI a5550 .cfa: x29 96 + x19: .cfa -8 + ^ x20: .cfa -16 + ^ x21: .cfa -24 + ^ x22: .cfa -32 + ^ x23: .cfa -40 + ^ x24: .cfa -48 + ^ x25: .cfa -56 + ^ x26: .cfa -64 + ^ x27: .cfa -72 + ^ x28: .cfa -80 + ^ .ra: .cfa -88 + ^ x29: .cfa -96 + ^
STACK CFI INIT a58d8 1f8 .cfa: sp 0 +
STACK CFI a58f4 .cfa: x29 80 + x19: .cfa -8 + ^ x20: .cfa -16 + ^ x21: .cfa -24 + ^ x22: .cfa -32 + ^ x23: .cfa -40 + ^ x24: .cfa -48 + ^ x25: .cfa -64 + ^ .ra: .cfa -72 + ^ x29: .cfa -80 + ^
STACK CFI INIT a5ad0 e0 .cfa: sp 0 +
STACK CFI a5ae0 .cfa: x29 48 + x19: .cfa -8 + ^ x20: .cfa -16 + ^ x21: .cfa -32 + ^ .ra: .cfa -40 + ^ x29: .cfa -48 + ^
STACK CFI INIT a5bb0 e4 .cfa: sp 0 +
STACK CFI a5bc0 .cfa: x29 48 + x19: .cfa -8 + ^ x20: .cfa -16 + ^ x21: .cfa -24 + ^ x22: .cfa -32 + ^ .ra: .cfa -40 + ^ x29: .cfa -48 + ^
STACK CFI INIT a5c98 414 .cfa: sp 0 +
STACK CFI a5ca8 .cfa: x29 48 + x19: .cfa -8 + ^ x20: .cfa -16 + ^ x21: .cfa -24 + ^ x22: .cfa -32 + ^ .ra: .cfa -40 + ^ x29: .cfa -48 + ^
STACK CFI INIT a60b0 120 .cfa: sp 0 +
STACK CFI a60c8 .cfa: x29 64 + x19: .cfa -8 + ^ x20: .cfa -16 + ^ x21: .cfa -24 + ^ x22: .cfa -32 + ^ x23: .cfa -40 + ^ x24: .cfa -48 + ^ .ra: .cfa -56 + ^ x29: .cfa -64 + ^
STACK CFI INIT a61d0 740 .cfa: sp 0 +
STACK CFI a61f0 .cfa: x29 96 + x19: .cfa -8 + ^ x20: .cfa -16 + ^ x21: .cfa -24 + ^ x22: .cfa -32 + ^ x23: .cfa -40 + ^ x24: .cfa -48 + ^ x25: .cfa -56 + ^ x26: .cfa -64 + ^ x27: .cfa -72 + ^ x28: .cfa -80 + ^ .ra: .cfa -88 + ^ x29: .cfa -96 + ^
STACK CFI INIT a6910 a0 .cfa: sp 0 +
STACK CFI a6924 .cfa: x29 64 + x19: .cfa -8 + ^ x20: .cfa -16 + ^ x21: .cfa -24 + ^ x22: .cfa -32 + ^ x23: .cfa -48 + ^ .ra: .cfa -56 + ^ x29: .cfa -64 + ^
STACK CFI INIT a69b0 3c .cfa: sp 0 +
STACK CFI a69b8 .cfa: x29 16 + .ra: .cfa -8 + ^ x29: .cfa -16 + ^
STACK CFI INIT a69f0 13c .cfa: sp 0 +
STACK CFI a6a00 .cfa: x29 48 + x19: .cfa -8 + ^ x20: .cfa -16 + ^ x21: .cfa -24 + ^ x22: .cfa -32 + ^ .ra: .cfa -40 + ^ x29: .cfa -48 + ^
STACK CFI INIT a6b30 30 .cfa: sp 0 +
STACK CFI a6b40 .cfa: x29 16 + .ra: .cfa -8 + ^ x29: .cfa -16 + ^
STACK CFI INIT a6b60 dc .cfa: sp 0 +
STACK CFI a6b78 .cfa: x29 64 + x19: .cfa -8 + ^ x20: .cfa -16 + ^ x21: .cfa -24 + ^ x22: .cfa -32 + ^ x23: .cfa -48 + ^ .ra: .cfa -56 + ^ x29: .cfa -64 + ^
STACK CFI INIT a6c40 5c .cfa: sp 0 +
STACK CFI a6c50 .cfa: x29 32 + x19: .cfa -16 + ^ .ra: .cfa -24 + ^ x29: .cfa -32 + ^
STACK CFI INIT a6ca0 154 .cfa: sp 0 +
STACK CFI a6cbc .cfa: x29 80 + x19: .cfa -8 + ^ x20: .cfa -16 + ^ x21: .cfa -24 + ^ x22: .cfa -32 + ^ x23: .cfa -40 + ^ x24: .cfa -48 + ^ x28: .cfa -64 + ^ .ra: .cfa -72 + ^ x29: .cfa -80 + ^
STACK CFI INIT a6df8 10 .cfa: sp 0 +
STACK CFI INIT a6e08 4 .cfa: sp 0 +
STACK CFI INIT a6e10 c0 .cfa: sp 0 +
STACK CFI INIT a6ed0 174 .cfa: sp 0 +
STACK CFI a6ee8 .cfa: x29 64 + x19: .cfa -8 + ^ x20: .cfa -16 + ^ x21: .cfa -24 + ^ x22: .cfa -32 + ^ x23: .cfa -48 + ^ .ra: .cfa -56 + ^ x29: .cfa -64 + ^
STACK CFI INIT a7048 68 .cfa: sp 0 +
STACK CFI a7058 .cfa: x29 48 + x19: .cfa -8 + ^ x20: .cfa -16 + ^ x21: .cfa -32 + ^ .ra: .cfa -40 + ^ x29: .cfa -48 + ^
STACK CFI INIT a70b0 f0 .cfa: sp 0 +
STACK CFI a70c0 .cfa: x29 48 + x19: .cfa -8 + ^ x20: .cfa -16 + ^ x21: .cfa -24 + ^ x22: .cfa -32 + ^ .ra: .cfa -40 + ^ x29: .cfa -48 + ^
STACK CFI INIT a71a0 8c .cfa: sp 0 +
STACK CFI a71a8 .cfa: x29 16 + .ra: .cfa -8 + ^ x29: .cfa -16 + ^
STACK CFI INIT a7230 30 .cfa: sp 0 +
STACK CFI a723c .cfa: x29 32 + x19: .cfa -16 + ^ .ra: .cfa -24 + ^ x29: .cfa -32 + ^
STACK CFI INIT a7260 39c .cfa: sp 0 +
STACK CFI a727c .cfa: x29 96 + x19: .cfa -8 + ^ x20: .cfa -16 + ^ x21: .cfa -24 + ^ x22: .cfa -32 + ^ x23: .cfa -40 + ^ x24: .cfa -48 + ^ x25: .cfa -56 + ^ x26: .cfa -64 + ^ x27: .cfa -72 + ^ x28: .cfa -80 + ^ .ra: .cfa -88 + ^ x29: .cfa -96 + ^
STACK CFI INIT a7600 34c .cfa: sp 0 +
STACK CFI a7620 .cfa: x29 96 + x19: .cfa -8 + ^ x20: .cfa -16 + ^ x21: .cfa -24 + ^ x22: .cfa -32 + ^ x23: .cfa -40 + ^ x24: .cfa -48 + ^ x25: .cfa -56 + ^ x26: .cfa -64 + ^ x27: .cfa -72 + ^ x28: .cfa -80 + ^ .ra: .cfa -88 + ^ x29: .cfa -96 + ^
STACK CFI INIT a7950 154 .cfa: sp 0 +
STACK CFI a795c .cfa: x29 32 + x19: .cfa -16 + ^ .ra: .cfa -24 + ^ x29: .cfa -32 + ^
STACK CFI INIT a7aa8 1c .cfa: sp 0 +
STACK CFI INIT a7ac8 70 .cfa: sp 0 +
STACK CFI a7ad4 .cfa: x29 32 + x19: .cfa -16 + ^ .ra: .cfa -24 + ^ x29: .cfa -32 + ^
STACK CFI INIT a7b38 6c .cfa: sp 0 +
STACK CFI a7b4c .cfa: x29 64 + x19: .cfa -8 + ^ x20: .cfa -16 + ^ x21: .cfa -24 + ^ x22: .cfa -32 + ^ x23: .cfa -48 + ^ .ra: .cfa -56 + ^ x29: .cfa -64 + ^
STACK CFI INIT a7ba8 6c .cfa: sp 0 +
STACK CFI a7bbc .cfa: x29 64 + x19: .cfa -8 + ^ x20: .cfa -16 + ^ x21: .cfa -24 + ^ x22: .cfa -32 + ^ x23: .cfa -48 + ^ .ra: .cfa -56 + ^ x29: .cfa -64 + ^
STACK CFI INIT a7c18 4f8 .cfa: sp 0 +
STACK CFI a7c24 .cfa: x29 32 + x19: .cfa -8 + ^ x20: .cfa -16 + ^ .ra: .cfa -24 + ^ x29: .cfa -32 + ^
STACK CFI INIT a8110 94 .cfa: sp 0 +
STACK CFI a8124 .cfa: x29 64 + x19: .cfa -8 + ^ x20: .cfa -16 + ^ x21: .cfa -24 + ^ x22: .cfa -32 + ^ x23: .cfa -48 + ^ .ra: .cfa -56 + ^ x29: .cfa -64 + ^
STACK CFI INIT a81a8 f0 .cfa: sp 0 +
STACK CFI a81c0 .cfa: x29 80 + x19: .cfa -8 + ^ x20: .cfa -16 + ^ x21: .cfa -24 + ^ x22: .cfa -32 + ^ x23: .cfa -40 + ^ x24: .cfa -48 + ^ x25: .cfa -64 + ^ .ra: .cfa -72 + ^ x29: .cfa -80 + ^
STACK CFI INIT a8298 a4 .cfa: sp 0 +
STACK CFI a82a8 .cfa: x29 48 + x19: .cfa -8 + ^ x20: .cfa -16 + ^ x21: .cfa -32 + ^ .ra: .cfa -40 + ^ x29: .cfa -48 + ^
STACK CFI INIT a8340 188 .cfa: sp 0 +
STACK CFI a8358 .cfa: x29 64 + x19: .cfa -8 + ^ x20: .cfa -16 + ^ x21: .cfa -24 + ^ x22: .cfa -32 + ^ x23: .cfa -48 + ^ .ra: .cfa -56 + ^ x29: .cfa -64 + ^
STACK CFI INIT a84c8 5c .cfa: sp 0 +
STACK CFI a84d8 .cfa: x29 48 + x19: .cfa -8 + ^ x20: .cfa -16 + ^ x21: .cfa -24 + ^ x22: .cfa -32 + ^ .ra: .cfa -40 + ^ x29: .cfa -48 + ^
STACK CFI INIT a8528 1a8 .cfa: sp 0 +
STACK CFI a853c .cfa: x29 48 + x19: .cfa -8 + ^ x20: .cfa -16 + ^ x21: .cfa -24 + ^ x22: .cfa -32 + ^ .ra: .cfa -40 + ^ x29: .cfa -48 + ^
STACK CFI INIT a86d0 3c8 .cfa: sp 0 +
STACK CFI a86f0 .cfa: x29 96 + x19: .cfa -8 + ^ x20: .cfa -16 + ^ x21: .cfa -24 + ^ x22: .cfa -32 + ^ x23: .cfa -40 + ^ x24: .cfa -48 + ^ x25: .cfa -56 + ^ x26: .cfa -64 + ^ x27: .cfa -80 + ^ .ra: .cfa -88 + ^ x29: .cfa -96 + ^
STACK CFI INIT a8a98 24 .cfa: sp 0 +
STACK CFI a8aa8 .cfa: x29 16 + .ra: .cfa -8 + ^ x29: .cfa -16 + ^
STACK CFI INIT a8ac0 1f0 .cfa: sp 0 +
STACK CFI a8ad4 .cfa: x29 48 + x19: .cfa -8 + ^ x20: .cfa -16 + ^ x21: .cfa -24 + ^ x22: .cfa -32 + ^ .ra: .cfa -40 + ^ x29: .cfa -48 + ^
STACK CFI INIT a8cb0 4c .cfa: sp 0 +
STACK CFI a8cbc .cfa: x29 32 + x19: .cfa -16 + ^ .ra: .cfa -24 + ^ x29: .cfa -32 + ^
STACK CFI INIT a8d00 78 .cfa: sp 0 +
STACK CFI a8d0c .cfa: x29 32 + x19: .cfa -8 + ^ x20: .cfa -16 + ^ .ra: .cfa -24 + ^ x29: .cfa -32 + ^
STACK CFI INIT a8d78 34 .cfa: sp 0 +
STACK CFI a8d80 .cfa: x29 16 + .ra: .cfa -8 + ^ x29: .cfa -16 + ^
STACK CFI INIT a8db0 70 .cfa: sp 0 +
STACK CFI a8dbc .cfa: x29 32 + x19: .cfa -16 + ^ .ra: .cfa -24 + ^ x29: .cfa -32 + ^
STACK CFI INIT a8e20 30 .cfa: sp 0 +
STACK CFI a8e28 .cfa: x29 16 + .ra: .cfa -8 + ^ x29: .cfa -16 + ^
STACK CFI INIT a8e50 74 .cfa: sp 0 +
STACK CFI a8e5c .cfa: x29 32 + x19: .cfa -8 + ^ x20: .cfa -16 + ^ .ra: .cfa -24 + ^ x29: .cfa -32 + ^
STACK CFI INIT a8ec8 30 .cfa: sp 0 +
STACK CFI a8ed0 .cfa: x29 16 + .ra: .cfa -8 + ^ x29: .cfa -16 + ^
STACK CFI INIT a8ef8 74 .cfa: sp 0 +
STACK CFI a8f04 .cfa: x29 32 + x19: .cfa -8 + ^ x20: .cfa -16 + ^ .ra: .cfa -24 + ^ x29: .cfa -32 + ^
STACK CFI INIT a8f70 dc .cfa: sp 0 +
STACK CFI a8f80 .cfa: x29 48 + x19: .cfa -8 + ^ x20: .cfa -16 + ^ x21: .cfa -32 + ^ .ra: .cfa -40 + ^ x29: .cfa -48 + ^
STACK CFI INIT a9050 2a4 .cfa: sp 0 +
STACK CFI a9064 .cfa: x29 64 + x19: .cfa -8 + ^ x20: .cfa -16 + ^ x21: .cfa -24 + ^ x22: .cfa -32 + ^ x23: .cfa -48 + ^ .ra: .cfa -56 + ^ x29: .cfa -64 + ^
STACK CFI INIT a92f8 28 .cfa: sp 0 +
STACK CFI a930c .cfa: x29 16 + .ra: .cfa -8 + ^ x29: .cfa -16 + ^
STACK CFI INIT a9320 28 .cfa: sp 0 +
STACK CFI a9334 .cfa: x29 16 + .ra: .cfa -8 + ^ x29: .cfa -16 + ^
STACK CFI INIT a9348 34 .cfa: sp 0 +
STACK CFI a9350 .cfa: x29 16 + .ra: .cfa -8 + ^ x29: .cfa -16 + ^
STACK CFI INIT a9380 34 .cfa: sp 0 +
STACK CFI a9388 .cfa: x29 16 + .ra: .cfa -8 + ^ x29: .cfa -16 + ^
STACK CFI INIT a93b8 24 .cfa: sp 0 +
STACK CFI a93c8 .cfa: x29 16 + .ra: .cfa -8 + ^ x29: .cfa -16 + ^
STACK CFI INIT a93e0 170 .cfa: sp 0 +
STACK CFI a93f0 .cfa: x29 48 + x19: .cfa -8 + ^ x20: .cfa -16 + ^ x21: .cfa -32 + ^ .ra: .cfa -40 + ^ x29: .cfa -48 + ^
STACK CFI INIT a9550 48 .cfa: sp 0 +
STACK CFI a955c .cfa: x29 32 + x19: .cfa -16 + ^ .ra: .cfa -24 + ^ x29: .cfa -32 + ^
STACK CFI INIT a9598 48 .cfa: sp 0 +
STACK CFI a95a4 .cfa: x29 32 + x19: .cfa -16 + ^ .ra: .cfa -24 + ^ x29: .cfa -32 + ^
STACK CFI INIT a95e0 a4 .cfa: sp 0 +
STACK CFI a95f4 .cfa: x29 64 + x19: .cfa -8 + ^ x20: .cfa -16 + ^ x21: .cfa -24 + ^ x22: .cfa -32 + ^ x23: .cfa -48 + ^ .ra: .cfa -56 + ^ x29: .cfa -64 + ^
STACK CFI INIT a9688 ac .cfa: sp 0 +
STACK CFI a969c .cfa: x29 64 + x19: .cfa -8 + ^ x20: .cfa -16 + ^ x21: .cfa -24 + ^ x22: .cfa -32 + ^ x23: .cfa -48 + ^ .ra: .cfa -56 + ^ x29: .cfa -64 + ^
STACK CFI INIT a9738 a0 .cfa: sp 0 +
STACK CFI a9748 .cfa: x29 32 + x19: .cfa -8 + ^ x28: .cfa -16 + ^ .ra: .cfa -24 + ^ x29: .cfa -32 + ^
STACK CFI INIT a97d8 24 .cfa: sp 0 +
STACK CFI INIT a9800 a0 .cfa: sp 0 +
STACK CFI a9810 .cfa: x29 32 + x19: .cfa -8 + ^ x28: .cfa -16 + ^ .ra: .cfa -24 + ^ x29: .cfa -32 + ^
STACK CFI INIT a98a0 108 .cfa: sp 0 +
STACK CFI a98b4 .cfa: x29 48 + x19: .cfa -8 + ^ x20: .cfa -16 + ^ x21: .cfa -24 + ^ x28: .cfa -32 + ^ .ra: .cfa -40 + ^ x29: .cfa -48 + ^
STACK CFI INIT a99a8 9c .cfa: sp 0 +
STACK CFI a99bc .cfa: x29 48 + x19: .cfa -8 + ^ x20: .cfa -16 + ^ x21: .cfa -24 + ^ x22: .cfa -32 + ^ .ra: .cfa -40 + ^ x29: .cfa -48 + ^
STACK CFI INIT a9a48 94 .cfa: sp 0 +
STACK CFI a9a54 .cfa: x29 32 + x19: .cfa -8 + ^ x20: .cfa -16 + ^ .ra: .cfa -24 + ^ x29: .cfa -32 + ^
STACK CFI INIT a9ae0 94 .cfa: sp 0 +
STACK CFI a9aec .cfa: x29 32 + x19: .cfa -8 + ^ x20: .cfa -16 + ^ .ra: .cfa -24 + ^ x29: .cfa -32 + ^
STACK CFI INIT a9b78 54 .cfa: sp 0 +
STACK CFI a9b80 .cfa: x29 16 + .ra: .cfa -8 + ^ x29: .cfa -16 + ^
STACK CFI INIT a9bd0 54 .cfa: sp 0 +
STACK CFI a9bd8 .cfa: x29 16 + .ra: .cfa -8 + ^ x29: .cfa -16 + ^
STACK CFI INIT a9c28 84 .cfa: sp 0 +
STACK CFI a9c38 .cfa: x29 48 + x19: .cfa -8 + ^ x20: .cfa -16 + ^ x21: .cfa -32 + ^ .ra: .cfa -40 + ^ x29: .cfa -48 + ^
STACK CFI INIT a9cb0 140 .cfa: sp 0 +
STACK CFI a9cc8 .cfa: x29 80 + x19: .cfa -8 + ^ x20: .cfa -16 + ^ x21: .cfa -24 + ^ x22: .cfa -32 + ^ x23: .cfa -40 + ^ x24: .cfa -48 + ^ x25: .cfa -64 + ^ .ra: .cfa -72 + ^ x29: .cfa -80 + ^
STACK CFI INIT a9df0 24 .cfa: sp 0 +
STACK CFI a9e00 .cfa: x29 16 + .ra: .cfa -8 + ^ x29: .cfa -16 + ^
STACK CFI INIT a9e18 110 .cfa: sp 0 +
STACK CFI a9e28 .cfa: x29 48 + x19: .cfa -8 + ^ x20: .cfa -16 + ^ x21: .cfa -32 + ^ .ra: .cfa -40 + ^ x29: .cfa -48 + ^
STACK CFI INIT a9f28 d4 .cfa: sp 0 +
STACK CFI a9f34 .cfa: x29 32 + x19: .cfa -8 + ^ x20: .cfa -16 + ^ .ra: .cfa -24 + ^ x29: .cfa -32 + ^
STACK CFI INIT aa000 d4 .cfa: sp 0 +
STACK CFI aa00c .cfa: x29 32 + x19: .cfa -8 + ^ x20: .cfa -16 + ^ .ra: .cfa -24 + ^ x29: .cfa -32 + ^
STACK CFI INIT aa0d8 fc .cfa: sp 0 +
STACK CFI aa0ec .cfa: x29 48 + x19: .cfa -8 + ^ x20: .cfa -16 + ^ x21: .cfa -24 + ^ x22: .cfa -32 + ^ .ra: .cfa -40 + ^ x29: .cfa -48 + ^
STACK CFI INIT aa1d8 cc .cfa: sp 0 +
STACK CFI aa1ec .cfa: x29 48 + x19: .cfa -8 + ^ x20: .cfa -16 + ^ x21: .cfa -24 + ^ x22: .cfa -32 + ^ .ra: .cfa -40 + ^ x29: .cfa -48 + ^
STACK CFI INIT aa2a8 f8 .cfa: sp 0 +
STACK CFI aa2c0 .cfa: x29 64 + x19: .cfa -8 + ^ x20: .cfa -16 + ^ x21: .cfa -24 + ^ x22: .cfa -32 + ^ x23: .cfa -48 + ^ .ra: .cfa -56 + ^ x29: .cfa -64 + ^
STACK CFI INIT aa3a0 108 .cfa: sp 0 +
STACK CFI aa3b4 .cfa: x29 48 + x19: .cfa -8 + ^ x20: .cfa -16 + ^ x21: .cfa -24 + ^ x28: .cfa -32 + ^ .ra: .cfa -40 + ^ x29: .cfa -48 + ^
STACK CFI INIT aa4a8 9c .cfa: sp 0 +
STACK CFI aa4bc .cfa: x29 48 + x19: .cfa -8 + ^ x20: .cfa -16 + ^ x21: .cfa -24 + ^ x22: .cfa -32 + ^ .ra: .cfa -40 + ^ x29: .cfa -48 + ^
STACK CFI INIT aa548 108 .cfa: sp 0 +
STACK CFI aa55c .cfa: x29 48 + x19: .cfa -8 + ^ x20: .cfa -16 + ^ x21: .cfa -24 + ^ x28: .cfa -32 + ^ .ra: .cfa -40 + ^ x29: .cfa -48 + ^
STACK CFI INIT aa650 9c .cfa: sp 0 +
STACK CFI aa664 .cfa: x29 48 + x19: .cfa -8 + ^ x20: .cfa -16 + ^ x21: .cfa -24 + ^ x22: .cfa -32 + ^ .ra: .cfa -40 + ^ x29: .cfa -48 + ^
STACK CFI INIT aa6f0 108 .cfa: sp 0 +
STACK CFI aa704 .cfa: x29 48 + x19: .cfa -8 + ^ x20: .cfa -16 + ^ x21: .cfa -24 + ^ x28: .cfa -32 + ^ .ra: .cfa -40 + ^ x29: .cfa -48 + ^
STACK CFI INIT aa7f8 9c .cfa: sp 0 +
STACK CFI aa80c .cfa: x29 48 + x19: .cfa -8 + ^ x20: .cfa -16 + ^ x21: .cfa -24 + ^ x22: .cfa -32 + ^ .ra: .cfa -40 + ^ x29: .cfa -48 + ^
STACK CFI INIT aa898 60 .cfa: sp 0 +
STACK CFI aa8a0 .cfa: x29 16 + .ra: .cfa -8 + ^ x29: .cfa -16 + ^
STACK CFI INIT aa8f8 9c .cfa: sp 0 +
STACK CFI aa904 .cfa: x29 32 + x19: .cfa -8 + ^ x20: .cfa -16 + ^ .ra: .cfa -24 + ^ x29: .cfa -32 + ^
STACK CFI INIT aa998 2c .cfa: sp 0 +
STACK CFI aa9b0 .cfa: x29 16 + .ra: .cfa -8 + ^ x29: .cfa -16 + ^
STACK CFI INIT aa9c8 24 .cfa: sp 0 +
STACK CFI aa9d8 .cfa: x29 16 + .ra: .cfa -8 + ^ x29: .cfa -16 + ^
STACK CFI INIT aa9f0 10 .cfa: sp 0 +
STACK CFI INIT aaa00 74 .cfa: sp 0 +
STACK CFI aaa10 .cfa: x29 48 + x19: .cfa -8 + ^ x20: .cfa -16 + ^ x21: .cfa -32 + ^ .ra: .cfa -40 + ^ x29: .cfa -48 + ^
STACK CFI INIT aaa78 f4 .cfa: sp 0 +
STACK CFI aaa8c .cfa: x29 48 + x19: .cfa -8 + ^ x20: .cfa -16 + ^ x21: .cfa -24 + ^ x28: .cfa -32 + ^ .ra: .cfa -40 + ^ x29: .cfa -48 + ^
STACK CFI INIT aab70 10 .cfa: sp 0 +
STACK CFI INIT aab80 10 .cfa: sp 0 +
STACK CFI INIT aab90 12c .cfa: sp 0 +
STACK CFI aaba8 .cfa: x29 64 + x19: .cfa -8 + ^ x20: .cfa -16 + ^ x21: .cfa -24 + ^ x22: .cfa -32 + ^ x23: .cfa -48 + ^ .ra: .cfa -56 + ^ x29: .cfa -64 + ^
STACK CFI INIT aacc0 24 .cfa: sp 0 +
STACK CFI aacd0 .cfa: x29 16 + .ra: .cfa -8 + ^ x29: .cfa -16 + ^
STACK CFI INIT aace8 10 .cfa: sp 0 +
STACK CFI INIT aacf8 54 .cfa: sp 0 +
STACK CFI aad04 .cfa: x29 32 + x19: .cfa -16 + ^ .ra: .cfa -24 + ^ x29: .cfa -32 + ^
STACK CFI INIT aad50 80 .cfa: sp 0 +
STACK CFI aad5c .cfa: x29 32 + x19: .cfa -16 + ^ .ra: .cfa -24 + ^ x29: .cfa -32 + ^
STACK CFI INIT aadd0 f4 .cfa: sp 0 +
STACK CFI aade4 .cfa: x29 48 + x19: .cfa -8 + ^ x20: .cfa -16 + ^ x21: .cfa -24 + ^ x28: .cfa -32 + ^ .ra: .cfa -40 + ^ x29: .cfa -48 + ^
STACK CFI INIT aaec8 34 .cfa: sp 0 +
STACK CFI aaee8 .cfa: x29 16 + .ra: .cfa -8 + ^ x29: .cfa -16 + ^
STACK CFI INIT aaf00 38 .cfa: sp 0 +
STACK CFI aaf24 .cfa: x29 16 + .ra: .cfa -8 + ^ x29: .cfa -16 + ^
STACK CFI INIT aaf38 30 .cfa: sp 0 +
STACK CFI aaf54 .cfa: x29 16 + .ra: .cfa -8 + ^ x29: .cfa -16 + ^
STACK CFI INIT aaf68 160 .cfa: sp 0 +
STACK CFI aaf78 .cfa: x29 32 + x19: .cfa -8 + ^ x28: .cfa -16 + ^ .ra: .cfa -24 + ^ x29: .cfa -32 + ^
STACK CFI INIT ab0c8 108 .cfa: sp 0 +
STACK CFI ab0d8 .cfa: x29 32 + x19: .cfa -8 + ^ x28: .cfa -16 + ^ .ra: .cfa -24 + ^ x29: .cfa -32 + ^
STACK CFI INIT ab1d0 118 .cfa: sp 0 +
STACK CFI ab1e0 .cfa: x29 32 + x19: .cfa -8 + ^ x28: .cfa -16 + ^ .ra: .cfa -24 + ^ x29: .cfa -32 + ^
STACK CFI INIT ab2e8 c4 .cfa: sp 0 +
STACK CFI ab2f8 .cfa: x29 32 + x19: .cfa -8 + ^ x28: .cfa -16 + ^ .ra: .cfa -24 + ^ x29: .cfa -32 + ^
STACK CFI INIT ab3b0 a0 .cfa: sp 0 +
STACK CFI ab3c0 .cfa: x29 32 + x19: .cfa -8 + ^ x28: .cfa -16 + ^ .ra: .cfa -24 + ^ x29: .cfa -32 + ^
STACK CFI INIT ab450 9c .cfa: sp 0 +
STACK CFI ab460 .cfa: x29 32 + x19: .cfa -8 + ^ x28: .cfa -16 + ^ .ra: .cfa -24 + ^ x29: .cfa -32 + ^
STACK CFI INIT ab4f0 a0 .cfa: sp 0 +
STACK CFI ab500 .cfa: x29 32 + x19: .cfa -8 + ^ x28: .cfa -16 + ^ .ra: .cfa -24 + ^ x29: .cfa -32 + ^
STACK CFI INIT ab590 a8 .cfa: sp 0 +
STACK CFI ab5a4 .cfa: x29 48 + x19: .cfa -8 + ^ x20: .cfa -16 + ^ x21: .cfa -32 + ^ .ra: .cfa -40 + ^ x29: .cfa -48 + ^
STACK CFI INIT ab638 a8 .cfa: sp 0 +
STACK CFI ab64c .cfa: x29 48 + x19: .cfa -8 + ^ x20: .cfa -16 + ^ x21: .cfa -32 + ^ .ra: .cfa -40 + ^ x29: .cfa -48 + ^
STACK CFI INIT ab6e0 a8 .cfa: sp 0 +
STACK CFI ab6f4 .cfa: x29 48 + x19: .cfa -8 + ^ x20: .cfa -16 + ^ x21: .cfa -32 + ^ .ra: .cfa -40 + ^ x29: .cfa -48 + ^
STACK CFI INIT ab788 a8 .cfa: sp 0 +
STACK CFI ab79c .cfa: x29 48 + x19: .cfa -8 + ^ x20: .cfa -16 + ^ x21: .cfa -32 + ^ .ra: .cfa -40 + ^ x29: .cfa -48 + ^
STACK CFI INIT ab830 f4 .cfa: sp 0 +
STACK CFI ab844 .cfa: x29 48 + x19: .cfa -8 + ^ x20: .cfa -16 + ^ x21: .cfa -24 + ^ x28: .cfa -32 + ^ .ra: .cfa -40 + ^ x29: .cfa -48 + ^
STACK CFI INIT ab928 f4 .cfa: sp 0 +
STACK CFI ab93c .cfa: x29 48 + x19: .cfa -8 + ^ x20: .cfa -16 + ^ x21: .cfa -24 + ^ x28: .cfa -32 + ^ .ra: .cfa -40 + ^ x29: .cfa -48 + ^
STACK CFI INIT aba20 214 .cfa: sp 0 +
STACK CFI aba38 .cfa: x29 80 + x19: .cfa -8 + ^ x20: .cfa -16 + ^ x21: .cfa -24 + ^ x22: .cfa -32 + ^ x23: .cfa -40 + ^ x24: .cfa -48 + ^ x25: .cfa -56 + ^ x26: .cfa -64 + ^ .ra: .cfa -72 + ^ x29: .cfa -80 + ^
STACK CFI INIT abc38 1ec .cfa: sp 0 +
STACK CFI abc50 .cfa: x29 80 + x19: .cfa -8 + ^ x20: .cfa -16 + ^ x21: .cfa -24 + ^ x22: .cfa -32 + ^ x23: .cfa -40 + ^ x24: .cfa -48 + ^ x25: .cfa -56 + ^ x26: .cfa -64 + ^ .ra: .cfa -72 + ^ x29: .cfa -80 + ^
STACK CFI INIT abe28 8c .cfa: sp 0 +
STACK CFI abe38 .cfa: x29 48 + x19: .cfa -8 + ^ x20: .cfa -16 + ^ x21: .cfa -24 + ^ x22: .cfa -32 + ^ .ra: .cfa -40 + ^ x29: .cfa -48 + ^
STACK CFI INIT abeb8 17c .cfa: sp 0 +
STACK CFI abecc .cfa: x29 64 + x19: .cfa -8 + ^ x20: .cfa -16 + ^ x21: .cfa -24 + ^ x22: .cfa -32 + ^ x23: .cfa -40 + ^ x24: .cfa -48 + ^ .ra: .cfa -56 + ^ x29: .cfa -64 + ^
STACK CFI INIT ac038 12c .cfa: sp 0 +
STACK CFI ac050 .cfa: x29 64 + x19: .cfa -8 + ^ x20: .cfa -16 + ^ x21: .cfa -24 + ^ x22: .cfa -32 + ^ x23: .cfa -40 + ^ x24: .cfa -48 + ^ .ra: .cfa -56 + ^ x29: .cfa -64 + ^
STACK CFI INIT ac168 23c .cfa: sp 0 +
STACK CFI ac184 .cfa: x29 80 + x19: .cfa -8 + ^ x20: .cfa -16 + ^ x21: .cfa -24 + ^ x22: .cfa -32 + ^ x23: .cfa -40 + ^ x24: .cfa -48 + ^ x25: .cfa -56 + ^ x26: .cfa -64 + ^ .ra: .cfa -72 + ^ x29: .cfa -80 + ^
STACK CFI INIT ac3a8 24 .cfa: sp 0 +
STACK CFI ac3b8 .cfa: x29 16 + .ra: .cfa -8 + ^ x29: .cfa -16 + ^
STACK CFI INIT ac3d0 8 .cfa: sp 0 +
STACK CFI INIT ac3d8 c .cfa: sp 0 +
STACK CFI INIT ac3e8 c .cfa: sp 0 +
STACK CFI INIT ac3f8 14 .cfa: sp 0 +
STACK CFI INIT ac410 10 .cfa: sp 0 +
STACK CFI INIT ac420 c .cfa: sp 0 +
STACK CFI INIT ac430 4 .cfa: sp 0 +
STACK CFI INIT ac438 10 .cfa: sp 0 +
STACK CFI INIT ac448 8 .cfa: sp 0 +
STACK CFI INIT ac450 10 .cfa: sp 0 +
STACK CFI INIT ac460 50 .cfa: sp 0 +
STACK CFI ac468 .cfa: x29 16 + .ra: .cfa -8 + ^ x29: .cfa -16 + ^
STACK CFI INIT ac4b0 13f8 .cfa: sp 0 +
STACK CFI ac4d0 .cfa: x29 96 + x19: .cfa -8 + ^ x20: .cfa -16 + ^ x21: .cfa -24 + ^ x22: .cfa -32 + ^ x23: .cfa -40 + ^ x24: .cfa -48 + ^ x25: .cfa -56 + ^ x26: .cfa -64 + ^ x27: .cfa -72 + ^ x28: .cfa -80 + ^ .ra: .cfa -88 + ^ x29: .cfa -96 + ^
STACK CFI INIT ad8a8 1228 .cfa: sp 0 +
STACK CFI ad8c8 .cfa: x29 96 + x19: .cfa -8 + ^ x20: .cfa -16 + ^ x21: .cfa -24 + ^ x22: .cfa -32 + ^ x23: .cfa -40 + ^ x24: .cfa -48 + ^ x25: .cfa -56 + ^ x26: .cfa -64 + ^ x27: .cfa -72 + ^ x28: .cfa -80 + ^ .ra: .cfa -88 + ^ x29: .cfa -96 + ^
STACK CFI INIT aead0 24 .cfa: sp 0 +
STACK CFI aeadc .cfa: x29 32 + x19: .cfa -16 + ^ .ra: .cfa -24 + ^ x29: .cfa -32 + ^
STACK CFI INIT aeaf8 f8 .cfa: sp 0 +
STACK CFI aeb10 .cfa: x29 64 + x19: .cfa -8 + ^ x20: .cfa -16 + ^ x21: .cfa -24 + ^ x22: .cfa -32 + ^ x23: .cfa -40 + ^ x24: .cfa -48 + ^ .ra: .cfa -56 + ^ x29: .cfa -64 + ^
STACK CFI INIT aebf0 40 .cfa: sp 0 +
STACK CFI INIT aec30 280 .cfa: sp 0 +
STACK CFI aec50 .cfa: x29 96 + x19: .cfa -8 + ^ x20: .cfa -16 + ^ x21: .cfa -24 + ^ x22: .cfa -32 + ^ x23: .cfa -40 + ^ x24: .cfa -48 + ^ x25: .cfa -56 + ^ x26: .cfa -64 + ^ x27: .cfa -72 + ^ x28: .cfa -80 + ^ .ra: .cfa -88 + ^ x29: .cfa -96 + ^
STACK CFI INIT aeeb0 f8 .cfa: sp 0 +
STACK CFI aeec8 .cfa: x29 80 + x19: .cfa -8 + ^ x20: .cfa -16 + ^ x21: .cfa -24 + ^ x22: .cfa -32 + ^ x23: .cfa -40 + ^ x24: .cfa -48 + ^ x25: .cfa -56 + ^ x26: .cfa -64 + ^ .ra: .cfa -72 + ^ x29: .cfa -80 + ^
STACK CFI INIT aefa8 48 .cfa: sp 0 +
STACK CFI aefb4 .cfa: x29 32 + x19: .cfa -16 + ^ .ra: .cfa -24 + ^ x29: .cfa -32 + ^
STACK CFI INIT aeff0 68 .cfa: sp 0 +
STACK CFI aeffc .cfa: x29 32 + x19: .cfa -16 + ^ .ra: .cfa -24 + ^ x29: .cfa -32 + ^
STACK CFI INIT af058 44 .cfa: sp 0 +
STACK CFI af064 .cfa: x29 32 + x19: .cfa -16 + ^ .ra: .cfa -24 + ^ x29: .cfa -32 + ^
STACK CFI INIT af0a0 9c .cfa: sp 0 +
STACK CFI af0b4 .cfa: x29 64 + x19: .cfa -8 + ^ x20: .cfa -16 + ^ x21: .cfa -24 + ^ x22: .cfa -32 + ^ x23: .cfa -48 + ^ .ra: .cfa -56 + ^ x29: .cfa -64 + ^
STACK CFI INIT af140 98 .cfa: sp 0 +
STACK CFI af150 .cfa: x29 48 + x19: .cfa -8 + ^ x20: .cfa -16 + ^ x21: .cfa -24 + ^ x22: .cfa -32 + ^ .ra: .cfa -40 + ^ x29: .cfa -48 + ^
STACK CFI INIT af1d8 24 .cfa: sp 0 +
STACK CFI INIT af200 2c .cfa: sp 0 +
STACK CFI INIT af230 38 .cfa: sp 0 +
STACK CFI INIT af268 34 .cfa: sp 0 +
STACK CFI INIT af2a0 34 .cfa: sp 0 +
STACK CFI INIT af2d8 14 .cfa: sp 0 +
STACK CFI INIT af2f0 10 .cfa: sp 0 +
STACK CFI INIT af300 10 .cfa: sp 0 +
STACK CFI INIT af310 14 .cfa: sp 0 +
STACK CFI INIT af328 10 .cfa: sp 0 +
STACK CFI INIT af338 1c .cfa: sp 0 +
STACK CFI INIT af358 50 .cfa: sp 0 +
STACK CFI af368 .cfa: x29 32 + x19: .cfa -16 + ^ .ra: .cfa -24 + ^ x29: .cfa -32 + ^
STACK CFI INIT af3a8 18 .cfa: sp 0 +
STACK CFI INIT af3c0 34 .cfa: sp 0 +
STACK CFI INIT af3f8 10 .cfa: sp 0 +
STACK CFI INIT af408 10 .cfa: sp 0 +
STACK CFI INIT af418 294 .cfa: sp 0 +
STACK CFI af434 .cfa: x29 80 + x19: .cfa -8 + ^ x20: .cfa -16 + ^ x21: .cfa -24 + ^ x22: .cfa -32 + ^ x23: .cfa -40 + ^ x24: .cfa -48 + ^ x25: .cfa -56 + ^ x28: .cfa -64 + ^ .ra: .cfa -72 + ^ x29: .cfa -80 + ^
STACK CFI INIT af6b0 1c .cfa: sp 0 +
STACK CFI INIT af6d0 c .cfa: sp 0 +
STACK CFI INIT af6e0 10 .cfa: sp 0 +
STACK CFI INIT af6f0 10 .cfa: sp 0 +
STACK CFI INIT af700 14 .cfa: sp 0 +
STACK CFI INIT af718 24 .cfa: sp 0 +
STACK CFI INIT af740 3c .cfa: sp 0 +
STACK CFI INIT af780 1d0 .cfa: sp 0 +
STACK CFI af798 .cfa: x29 80 + x19: .cfa -8 + ^ x20: .cfa -16 + ^ x21: .cfa -24 + ^ x22: .cfa -32 + ^ x23: .cfa -40 + ^ x24: .cfa -48 + ^ x25: .cfa -64 + ^ .ra: .cfa -72 + ^ x29: .cfa -80 + ^
STACK CFI INIT af950 7c .cfa: sp 0 +
STACK CFI af95c .cfa: x29 32 + x19: .cfa -8 + ^ x20: .cfa -16 + ^ .ra: .cfa -24 + ^ x29: .cfa -32 + ^
STACK CFI INIT af9d0 10 .cfa: sp 0 +
STACK CFI INIT af9e0 14 .cfa: sp 0 +
STACK CFI INIT af9f8 28 .cfa: sp 0 +
STACK CFI INIT afa20 14 .cfa: sp 0 +
STACK CFI INIT afa38 2c .cfa: sp 0 +
STACK CFI INIT afa68 18 .cfa: sp 0 +
STACK CFI INIT afa80 24 .cfa: sp 0 +
STACK CFI INIT afaa8 18 .cfa: sp 0 +
STACK CFI INIT afac0 84 .cfa: sp 0 +
STACK CFI afad0 .cfa: x29 48 + x19: .cfa -8 + ^ x20: .cfa -16 + ^ x21: .cfa -24 + ^ x22: .cfa -32 + ^ .ra: .cfa -40 + ^ x29: .cfa -48 + ^
STACK CFI INIT afb48 84 .cfa: sp 0 +
STACK CFI afb58 .cfa: x29 48 + x19: .cfa -8 + ^ x20: .cfa -16 + ^ x21: .cfa -24 + ^ x22: .cfa -32 + ^ .ra: .cfa -40 + ^ x29: .cfa -48 + ^
STACK CFI INIT afbd0 68 .cfa: sp 0 +
STACK CFI afbe0 .cfa: x29 48 + x19: .cfa -8 + ^ x20: .cfa -16 + ^ x21: .cfa -32 + ^ .ra: .cfa -40 + ^ x29: .cfa -48 + ^
STACK CFI INIT afc38 b0 .cfa: sp 0 +
STACK CFI afc4c .cfa: x29 64 + x19: .cfa -8 + ^ x20: .cfa -16 + ^ x21: .cfa -24 + ^ x22: .cfa -32 + ^ x23: .cfa -48 + ^ .ra: .cfa -56 + ^ x29: .cfa -64 + ^
STACK CFI INIT afce8 9c .cfa: sp 0 +
STACK CFI afcf8 .cfa: x29 48 + x19: .cfa -8 + ^ x20: .cfa -16 + ^ x21: .cfa -24 + ^ x22: .cfa -32 + ^ .ra: .cfa -40 + ^ x29: .cfa -48 + ^
STACK CFI INIT afd88 e8 .cfa: sp 0 +
STACK CFI afd98 .cfa: x29 48 + x19: .cfa -8 + ^ x20: .cfa -16 + ^ x21: .cfa -24 + ^ x22: .cfa -32 + ^ .ra: .cfa -40 + ^ x29: .cfa -48 + ^
STACK CFI INIT afe70 13c .cfa: sp 0 +
STACK CFI afe84 .cfa: x29 48 + x19: .cfa -8 + ^ x20: .cfa -16 + ^ x21: .cfa -32 + ^ .ra: .cfa -40 + ^ x29: .cfa -48 + ^
STACK CFI INIT affb0 17c .cfa: sp 0 +
STACK CFI affc4 .cfa: x29 48 + x19: .cfa -8 + ^ x20: .cfa -16 + ^ x21: .cfa -24 + ^ x22: .cfa -32 + ^ .ra: .cfa -40 + ^ x29: .cfa -48 + ^
STACK CFI INIT b0130 170 .cfa: sp 0 +
STACK CFI b0144 .cfa: x29 64 + x19: .cfa -8 + ^ x20: .cfa -16 + ^ x21: .cfa -24 + ^ x22: .cfa -32 + ^ x23: .cfa -40 + ^ x24: .cfa -48 + ^ .ra: .cfa -56 + ^ x29: .cfa -64 + ^
STACK CFI INIT b02a0 60 .cfa: sp 0 +
STACK CFI b02ac .cfa: x29 32 + x19: .cfa -8 + ^ x20: .cfa -16 + ^ .ra: .cfa -24 + ^ x29: .cfa -32 + ^
STACK CFI INIT b0300 488 .cfa: sp 0 +
STACK CFI b0320 .cfa: x29 96 + x19: .cfa -8 + ^ x20: .cfa -16 + ^ x21: .cfa -24 + ^ x22: .cfa -32 + ^ x23: .cfa -40 + ^ x24: .cfa -48 + ^ x25: .cfa -56 + ^ x26: .cfa -64 + ^ x27: .cfa -72 + ^ x28: .cfa -80 + ^ .ra: .cfa -88 + ^ x29: .cfa -96 + ^
STACK CFI INIT b0788 6c .cfa: sp 0 +
STACK CFI b0794 .cfa: x29 32 + x19: .cfa -8 + ^ x20: .cfa -16 + ^ .ra: .cfa -24 + ^ x29: .cfa -32 + ^
STACK CFI INIT b07f8 48 .cfa: sp 0 +
STACK CFI b0804 .cfa: x29 32 + x19: .cfa -16 + ^ .ra: .cfa -24 + ^ x29: .cfa -32 + ^
STACK CFI INIT b0840 8 .cfa: sp 0 +
STACK CFI INIT b0848 80 .cfa: sp 0 +
STACK CFI b0854 .cfa: x29 32 + x19: .cfa -16 + ^ .ra: .cfa -24 + ^ x29: .cfa -32 + ^
STACK CFI INIT b08c8 c .cfa: sp 0 +
STACK CFI INIT b08d8 1c .cfa: sp 0 +
STACK CFI INIT b08f8 24 .cfa: sp 0 +
STACK CFI INIT b0920 114 .cfa: sp 0 +
STACK CFI b0934 .cfa: x29 48 + x19: .cfa -8 + ^ x20: .cfa -16 + ^ x21: .cfa -32 + ^ .ra: .cfa -40 + ^ x29: .cfa -48 + ^
STACK CFI INIT b0a38 48 .cfa: sp 0 +
STACK CFI b0a44 .cfa: x29 32 + x19: .cfa -16 + ^ .ra: .cfa -24 + ^ x29: .cfa -32 + ^
STACK CFI INIT b0a80 94 .cfa: sp 0 +
STACK CFI b0a94 .cfa: x29 64 + x19: .cfa -8 + ^ x20: .cfa -16 + ^ x21: .cfa -24 + ^ x22: .cfa -32 + ^ x23: .cfa -48 + ^ .ra: .cfa -56 + ^ x29: .cfa -64 + ^
STACK CFI INIT b0b18 c .cfa: sp 0 +
STACK CFI INIT b0b28 50 .cfa: sp 0 +
STACK CFI b0b34 .cfa: x29 32 + x19: .cfa -16 + ^ .ra: .cfa -24 + ^ x29: .cfa -32 + ^
STACK CFI INIT b0b78 5c .cfa: sp 0 +
STACK CFI b0b84 .cfa: x29 32 + x19: .cfa -16 + ^ .ra: .cfa -24 + ^ x29: .cfa -32 + ^
STACK CFI INIT b0bd8 78 .cfa: sp 0 +
STACK CFI b0be4 .cfa: x29 32 + x19: .cfa -16 + ^ .ra: .cfa -24 + ^ x29: .cfa -32 + ^
STACK CFI INIT b0c50 28 .cfa: sp 0 +
STACK CFI b0c58 .cfa: x29 16 + .ra: .cfa -8 + ^ x29: .cfa -16 + ^
STACK CFI INIT b0c78 c4 .cfa: sp 0 +
STACK CFI b0c84 .cfa: x29 32 + x19: .cfa -8 + ^ x20: .cfa -16 + ^ .ra: .cfa -24 + ^ x29: .cfa -32 + ^
STACK CFI INIT b0d40 174 .cfa: sp 0 +
STACK CFI b0d5c .cfa: x29 80 + x19: .cfa -8 + ^ x20: .cfa -16 + ^ x21: .cfa -24 + ^ x22: .cfa -32 + ^ x23: .cfa -40 + ^ x24: .cfa -48 + ^ x25: .cfa -56 + ^ x26: .cfa -64 + ^ .ra: .cfa -72 + ^ x29: .cfa -80 + ^
STACK CFI INIT b0eb8 b0 .cfa: sp 0 +
STACK CFI b0ecc .cfa: x29 64 + x19: .cfa -8 + ^ x20: .cfa -16 + ^ x21: .cfa -24 + ^ x22: .cfa -32 + ^ x23: .cfa -48 + ^ .ra: .cfa -56 + ^ x29: .cfa -64 + ^
STACK CFI INIT b0f68 74 .cfa: sp 0 +
STACK CFI INIT b0fe0 5c .cfa: sp 0 +
STACK CFI INIT b1040 60 .cfa: sp 0 +
STACK CFI INIT b10a0 48 .cfa: sp 0 +
STACK CFI INIT b10e8 84 .cfa: sp 0 +
STACK CFI b10f8 .cfa: x29 48 + x19: .cfa -8 + ^ x20: .cfa -16 + ^ x21: .cfa -24 + ^ x22: .cfa -32 + ^ .ra: .cfa -40 + ^ x29: .cfa -48 + ^
STACK CFI INIT b1170 10 .cfa: sp 0 +
STACK CFI INIT b1180 14 .cfa: sp 0 +
STACK CFI INIT b1198 24 .cfa: sp 0 +
STACK CFI INIT b11c0 2c .cfa: sp 0 +
STACK CFI INIT b11f0 34 .cfa: sp 0 +
STACK CFI INIT b1228 14 .cfa: sp 0 +
STACK CFI INIT b1240 30 .cfa: sp 0 +
STACK CFI INIT b1270 14 .cfa: sp 0 +
STACK CFI INIT b1288 90 .cfa: sp 0 +
STACK CFI INIT b1318 108 .cfa: sp 0 +
STACK CFI b1320 .cfa: x29 16 + .ra: .cfa -8 + ^ x29: .cfa -16 + ^
STACK CFI INIT b1420 10c .cfa: sp 0 +
STACK CFI b1438 .cfa: x29 64 + x19: .cfa -8 + ^ x20: .cfa -16 + ^ x21: .cfa -24 + ^ x22: .cfa -32 + ^ x23: .cfa -48 + ^ .ra: .cfa -56 + ^ x29: .cfa -64 + ^
STACK CFI INIT b1530 38 .cfa: sp 0 +
STACK CFI b153c .cfa: x29 32 + x19: .cfa -8 + ^ x20: .cfa -16 + ^ .ra: .cfa -24 + ^ x29: .cfa -32 + ^
STACK CFI INIT b1568 2b4 .cfa: sp 0 +
STACK CFI b1588 .cfa: x29 96 + x19: .cfa -8 + ^ x20: .cfa -16 + ^ x21: .cfa -24 + ^ x22: .cfa -32 + ^ x23: .cfa -40 + ^ x24: .cfa -48 + ^ x25: .cfa -56 + ^ x26: .cfa -64 + ^ x27: .cfa -72 + ^ x28: .cfa -80 + ^ .ra: .cfa -88 + ^ x29: .cfa -96 + ^
STACK CFI INIT b1820 158 .cfa: sp 0 +
STACK CFI b1830 .cfa: x29 48 + x19: .cfa -8 + ^ x20: .cfa -16 + ^ x21: .cfa -24 + ^ x22: .cfa -32 + ^ .ra: .cfa -40 + ^ x29: .cfa -48 + ^
STACK CFI INIT b1978 c0 .cfa: sp 0 +
STACK CFI b1980 .cfa: x29 16 + .ra: .cfa -8 + ^ x29: .cfa -16 + ^
STACK CFI INIT b1a38 6c .cfa: sp 0 +
STACK CFI b1a48 .cfa: x29 48 + x19: .cfa -8 + ^ x20: .cfa -16 + ^ x21: .cfa -24 + ^ x22: .cfa -32 + ^ .ra: .cfa -40 + ^ x29: .cfa -48 + ^
STACK CFI INIT b1aa8 180 .cfa: sp 0 +
STACK CFI b1ab0 .cfa: x29 16 + .ra: .cfa -8 + ^ x29: .cfa -16 + ^
STACK CFI INIT b1c28 90 .cfa: sp 0 +
STACK CFI b1c30 .cfa: x29 16 + .ra: .cfa -8 + ^ x29: .cfa -16 + ^
STACK CFI INIT b1cb8 90 .cfa: sp 0 +
STACK CFI b1cc0 .cfa: x29 16 + .ra: .cfa -8 + ^ x29: .cfa -16 + ^
STACK CFI INIT b1d48 11c .cfa: sp 0 +
STACK CFI b1d50 .cfa: x29 16 + .ra: .cfa -8 + ^ x29: .cfa -16 + ^
STACK CFI INIT b1e68 a0 .cfa: sp 0 +
STACK CFI b1e70 .cfa: x29 16 + .ra: .cfa -8 + ^ x29: .cfa -16 + ^
STACK CFI INIT b1f08 80 .cfa: sp 0 +
STACK CFI b1f18 .cfa: x29 32 + x28: .cfa -16 + ^ .ra: .cfa -24 + ^ x29: .cfa -32 + ^
STACK CFI INIT b1f88 78 .cfa: sp 0 +
STACK CFI b1f98 .cfa: x29 48 + x19: .cfa -8 + ^ x20: .cfa -16 + ^ x21: .cfa -24 + ^ x22: .cfa -32 + ^ .ra: .cfa -40 + ^ x29: .cfa -48 + ^
STACK CFI INIT b2000 a4 .cfa: sp 0 +
STACK CFI b2010 .cfa: x29 32 + x19: .cfa -8 + ^ x20: .cfa -16 + ^ .ra: .cfa -24 + ^ x29: .cfa -32 + ^
STACK CFI INIT b20a8 60 .cfa: sp 0 +
STACK CFI b20b8 .cfa: x29 48 + x19: .cfa -8 + ^ x20: .cfa -16 + ^ x21: .cfa -32 + ^ .ra: .cfa -40 + ^ x29: .cfa -48 + ^
STACK CFI INIT b2108 10 .cfa: sp 0 +
STACK CFI INIT b2118 14 .cfa: sp 0 +
STACK CFI INIT b2130 14 .cfa: sp 0 +
STACK CFI INIT b2148 34 .cfa: sp 0 +
STACK CFI INIT b2180 14 .cfa: sp 0 +
STACK CFI INIT b2198 30 .cfa: sp 0 +
STACK CFI INIT b21c8 58 .cfa: sp 0 +
STACK CFI INIT b2220 14 .cfa: sp 0 +
STACK CFI INIT b2238 68 .cfa: sp 0 +
STACK CFI INIT b22a0 3d0 .cfa: sp 0 +
STACK CFI b22c0 .cfa: x29 96 + x19: .cfa -8 + ^ x20: .cfa -16 + ^ x21: .cfa -24 + ^ x22: .cfa -32 + ^ x23: .cfa -40 + ^ x24: .cfa -48 + ^ x25: .cfa -56 + ^ x26: .cfa -64 + ^ x27: .cfa -72 + ^ x28: .cfa -80 + ^ .ra: .cfa -88 + ^ x29: .cfa -96 + ^
STACK CFI INIT b2670 c .cfa: sp 0 +
STACK CFI INIT b2680 c .cfa: sp 0 +
STACK CFI INIT b2690 24 .cfa: sp 0 +
STACK CFI INIT b26b8 70 .cfa: sp 0 +
STACK CFI INIT b2728 60 .cfa: sp 0 +
STACK CFI INIT b2788 38c .cfa: sp 0 +
STACK CFI b27a8 .cfa: x29 96 + x19: .cfa -8 + ^ x20: .cfa -16 + ^ x21: .cfa -24 + ^ x22: .cfa -32 + ^ x23: .cfa -40 + ^ x24: .cfa -48 + ^ x25: .cfa -56 + ^ x26: .cfa -64 + ^ x27: .cfa -72 + ^ x28: .cfa -80 + ^ .ra: .cfa -88 + ^ x29: .cfa -96 + ^
STACK CFI INIT b2b18 c .cfa: sp 0 +
STACK CFI INIT b2b28 c .cfa: sp 0 +
STACK CFI INIT b2b38 24 .cfa: sp 0 +
STACK CFI INIT b2b60 54 .cfa: sp 0 +
STACK CFI INIT b2bb8 2cc .cfa: sp 0 +
STACK CFI b2bcc .cfa: x29 64 + x19: .cfa -8 + ^ x20: .cfa -16 + ^ x21: .cfa -24 + ^ x22: .cfa -32 + ^ x23: .cfa -40 + ^ x24: .cfa -48 + ^ .ra: .cfa -56 + ^ x29: .cfa -64 + ^
STACK CFI INIT b2e88 e4 .cfa: sp 0 +
STACK CFI b2ea0 .cfa: x29 64 + x19: .cfa -8 + ^ x20: .cfa -16 + ^ x21: .cfa -24 + ^ x22: .cfa -32 + ^ x23: .cfa -40 + ^ x24: .cfa -48 + ^ .ra: .cfa -56 + ^ x29: .cfa -64 + ^
STACK CFI INIT b2f70 c .cfa: sp 0 +
STACK CFI INIT b2f80 15c .cfa: sp 0 +
STACK CFI b2f9c .cfa: x29 80 + x19: .cfa -8 + ^ x20: .cfa -16 + ^ x21: .cfa -24 + ^ x22: .cfa -32 + ^ x23: .cfa -40 + ^ x24: .cfa -48 + ^ x25: .cfa -56 + ^ x26: .cfa -64 + ^ .ra: .cfa -72 + ^ x29: .cfa -80 + ^
STACK CFI INIT b30e0 144 .cfa: sp 0 +
STACK CFI b30fc .cfa: x29 80 + x19: .cfa -8 + ^ x20: .cfa -16 + ^ x21: .cfa -24 + ^ x22: .cfa -32 + ^ x23: .cfa -40 + ^ x24: .cfa -48 + ^ x25: .cfa -56 + ^ x26: .cfa -64 + ^ .ra: .cfa -72 + ^ x29: .cfa -80 + ^
STACK CFI INIT b3228 a4 .cfa: sp 0 +
STACK CFI b3238 .cfa: x29 32 + x19: .cfa -8 + ^ x28: .cfa -16 + ^ .ra: .cfa -24 + ^ x29: .cfa -32 + ^
STACK CFI INIT b32d0 84 .cfa: sp 0 +
STACK CFI b32e4 .cfa: x29 64 + x19: .cfa -8 + ^ x20: .cfa -16 + ^ x21: .cfa -24 + ^ x22: .cfa -32 + ^ x23: .cfa -48 + ^ .ra: .cfa -56 + ^ x29: .cfa -64 + ^
STACK CFI INIT b3358 a8 .cfa: sp 0 +
STACK CFI b3370 .cfa: x29 64 + x19: .cfa -8 + ^ x20: .cfa -16 + ^ x21: .cfa -24 + ^ x22: .cfa -32 + ^ x23: .cfa -48 + ^ .ra: .cfa -56 + ^ x29: .cfa -64 + ^
STACK CFI INIT b3400 1c .cfa: sp 0 +
STACK CFI INIT b3420 30 .cfa: sp 0 +
STACK CFI INIT b3450 30 .cfa: sp 0 +
STACK CFI INIT b3480 124 .cfa: sp 0 +
STACK CFI b3498 .cfa: x29 80 + x19: .cfa -8 + ^ x20: .cfa -16 + ^ x21: .cfa -24 + ^ x22: .cfa -32 + ^ x23: .cfa -40 + ^ x24: .cfa -48 + ^ x25: .cfa -56 + ^ x26: .cfa -64 + ^ .ra: .cfa -72 + ^ x29: .cfa -80 + ^
STACK CFI INIT b35a8 88 .cfa: sp 0 +
STACK CFI b35b8 .cfa: x29 48 + x19: .cfa -8 + ^ x20: .cfa -16 + ^ x21: .cfa -24 + ^ x22: .cfa -32 + ^ .ra: .cfa -40 + ^ x29: .cfa -48 + ^
STACK CFI INIT b3630 70 .cfa: sp 0 +
STACK CFI b3640 .cfa: x29 48 + x19: .cfa -8 + ^ x20: .cfa -16 + ^ x21: .cfa -32 + ^ .ra: .cfa -40 + ^ x29: .cfa -48 + ^
STACK CFI INIT b36a0 6c .cfa: sp 0 +
STACK CFI b36b0 .cfa: x29 48 + x19: .cfa -8 + ^ x20: .cfa -16 + ^ x21: .cfa -32 + ^ .ra: .cfa -40 + ^ x29: .cfa -48 + ^
STACK CFI INIT b3710 f8 .cfa: sp 0 +
STACK CFI b3728 .cfa: x29 64 + x19: .cfa -8 + ^ x20: .cfa -16 + ^ x21: .cfa -24 + ^ x22: .cfa -32 + ^ x23: .cfa -40 + ^ x24: .cfa -48 + ^ .ra: .cfa -56 + ^ x29: .cfa -64 + ^
STACK CFI INIT b3808 250 .cfa: sp 0 +
STACK CFI b3824 .cfa: x29 96 + x19: .cfa -8 + ^ x20: .cfa -16 + ^ x21: .cfa -24 + ^ x22: .cfa -32 + ^ x23: .cfa -40 + ^ x24: .cfa -48 + ^ x25: .cfa -56 + ^ x26: .cfa -64 + ^ x27: .cfa -80 + ^ .ra: .cfa -88 + ^ x29: .cfa -96 + ^
STACK CFI INIT b3a58 344 .cfa: sp 0 +
STACK CFI b3a78 .cfa: x29 96 + x19: .cfa -8 + ^ x20: .cfa -16 + ^ x21: .cfa -24 + ^ x22: .cfa -32 + ^ x23: .cfa -40 + ^ x24: .cfa -48 + ^ x25: .cfa -56 + ^ x26: .cfa -64 + ^ x27: .cfa -72 + ^ x28: .cfa -80 + ^ .ra: .cfa -88 + ^ x29: .cfa -96 + ^
STACK CFI INIT b3da0 60 .cfa: sp 0 +
STACK CFI b3dac .cfa: x29 32 + x19: .cfa -8 + ^ x20: .cfa -16 + ^ .ra: .cfa -24 + ^ x29: .cfa -32 + ^
STACK CFI INIT b3e00 44 .cfa: sp 0 +
STACK CFI b3e0c .cfa: x29 32 + x19: .cfa -16 + ^ .ra: .cfa -24 + ^ x29: .cfa -32 + ^
STACK CFI INIT b3e48 c .cfa: sp 0 +
STACK CFI INIT b3e58 c .cfa: sp 0 +
STACK CFI INIT b3e68 c .cfa: sp 0 +
STACK CFI INIT b3e78 c .cfa: sp 0 +
STACK CFI INIT b3e88 c .cfa: sp 0 +
STACK CFI INIT b3e98 c .cfa: sp 0 +
STACK CFI INIT b3ea8 14 .cfa: sp 0 +
STACK CFI b3eb0 .cfa: x29 16 + .ra: .cfa -8 + ^ x29: .cfa -16 + ^
STACK CFI INIT b3ebc d4 .cfa: sp 32 +
STACK CFI INIT b3f90 d4 .cfa: sp 32 +
STACK CFI INIT b4064 48 .cfa: sp 32 +
STACK CFI INIT b40ac 4d8 .cfa: sp 0 +
STACK CFI b40b4 .cfa: sp 192 + x19: .cfa -8 + ^ x20: .cfa -16 + ^
STACK CFI INIT 3eafc 28 .cfa: sp 0 +
STACK CFI INIT 3eb24 40 .cfa: sp 0 +
STACK CFI INIT 3eb64 f0 .cfa: sp 0 +
STACK CFI 3eb68 .cfa: sp 64 + x29: .cfa -64 + ^ .ra: .cfa -56 + ^
STACK CFI 3eb6c .cfa: x29 64 +
STACK CFI 3eb70 x19: .cfa -48 + ^ x20: .cfa -40 + ^
STACK CFI 3eb7c x21: .cfa -32 + ^ x22: .cfa -24 + ^
STACK CFI 3ec50 .cfa: sp 0 +
STACK CFI INIT 3ec54 114 .cfa: sp 0 +
STACK CFI INIT 3ed68 3c .cfa: sp 0 +
STACK CFI 3ed70 .cfa: sp 16 + x29: .cfa -16 + ^ .ra: .cfa -8 + ^
STACK CFI 3ed74 .cfa: x29 16 +
STACK CFI 3eda0 .cfa: sp 0 +
STACK CFI INIT 3eda4 58 .cfa: sp 0 +
STACK CFI 3eda8 .cfa: sp 16 + x29: .cfa -16 + ^ .ra: .cfa -8 + ^
STACK CFI 3edb0 .cfa: x29 16 +
STACK CFI 3edf8 .cfa: sp 0 +
STACK CFI INIT 3edfc 10c .cfa: sp 0 +
STACK CFI 3ee00 .cfa: sp 64 + x29: .cfa -64 + ^ .ra: .cfa -56 + ^
STACK CFI 3ee04 .cfa: x29 64 +
STACK CFI 3ee08 x21: .cfa -32 + ^ x22: .cfa -24 + ^
STACK CFI 3ee14 x19: .cfa -48 + ^ x20: .cfa -40 + ^
STACK CFI 3ef04 .cfa: sp 0 +
STACK CFI INIT 3ef08 8 .cfa: sp 0 +
STACK CFI INIT 3ef10 58 .cfa: sp 0 +
STACK CFI 3ef14 .cfa: sp 16 + x29: .cfa -16 + ^ .ra: .cfa -8 + ^
STACK CFI 3ef1c .cfa: x29 16 +
STACK CFI 3ef64 .cfa: sp 0 +
STACK CFI INIT 3ef68 8 .cfa: sp 0 +
STACK CFI INIT 3ef70 14 .cfa: sp 0 +
STACK CFI INIT 3ef84 8 .cfa: sp 0 +
STACK CFI INIT 3ef8c 8 .cfa: sp 0 +
STACK CFI INIT 3ef94 8 .cfa: sp 0 +
STACK CFI INIT 3ef9c 28 .cfa: sp 0 +
STACK CFI 3efa0 .cfa: sp 48 + x29: .cfa -48 + ^ .ra: .cfa -40 + ^
STACK CFI 3efa8 .cfa: x29 48 +
STACK CFI 3efbc .cfa: sp 0 +
STACK CFI INIT 3efc4 8 .cfa: sp 0 +
STACK CFI INIT 3efcc 8 .cfa: sp 0 +
STACK CFI INIT 3efd4 78 .cfa: sp 0 +
STACK CFI 3efd8 .cfa: sp 16 + x29: .cfa -16 + ^ .ra: .cfa -8 + ^
STACK CFI 3efe8 .cfa: x29 16 +
STACK CFI 3f028 .cfa: sp 0 +
STACK CFI 3f02c .cfa: x29 16 +
STACK CFI 3f030 .cfa: sp 0 +
STACK CFI 3f034 .cfa: x29 16 +
STACK CFI 3f038 .cfa: sp 0 +
STACK CFI 3f03c .cfa: x29 16 +
STACK CFI 3f048 .cfa: sp 0 +
STACK CFI INIT 3f04c 4f8 .cfa: sp 0 +
STACK CFI 3f050 .cfa: sp 144 + x29: .cfa -144 + ^ .ra: .cfa -136 + ^
STACK CFI 3f054 .cfa: x29 144 +
STACK CFI 3f068 x21: .cfa -112 + ^ x22: .cfa -104 + ^ x23: .cfa -96 + ^ x24: .cfa -88 + ^ x25: .cfa -80 + ^ x26: .cfa -72 + ^ x27: .cfa -64 + ^ x28: .cfa -56 + ^ x19: .cfa -128 + ^ x20: .cfa -120 + ^
STACK CFI 3f528 .cfa: sp 144 +
STACK CFI 3f540 .cfa: sp 0 +
STACK CFI INIT 3f544 424 .cfa: sp 0 +
STACK CFI 3f548 .cfa: sp 144 + x29: .cfa -144 + ^ .ra: .cfa -136 + ^
STACK CFI 3f550 .cfa: x29 144 +
STACK CFI 3f554 x19: .cfa -128 + ^ x20: .cfa -120 + ^
STACK CFI 3f574 x21: .cfa -112 + ^ x22: .cfa -104 + ^ x23: .cfa -96 + ^ x24: .cfa -88 + ^ x25: .cfa -80 + ^ x26: .cfa -72 + ^ x27: .cfa -64 + ^
STACK CFI 3f964 .cfa: sp 0 +
STACK CFI INIT 3f968 5b4 .cfa: sp 0 +
STACK CFI 3f96c .cfa: sp 560 +
STACK CFI 3f974 .cfa: sp 656 + x29: .cfa -656 + ^ .ra: .cfa -648 + ^
STACK CFI 3f978 .cfa: x29 656 +
STACK CFI 3f97c x27: .cfa -576 + ^ x28: .cfa -568 + ^
STACK CFI 3f988 x21: .cfa -624 + ^ x22: .cfa -616 + ^ x23: .cfa -608 + ^ x24: .cfa -600 + ^
STACK CFI 3f998 x19: .cfa -640 + ^ x20: .cfa -632 + ^ x25: .cfa -592 + ^ x26: .cfa -584 + ^
STACK CFI 3ff14 .cfa: sp 560 +
STACK CFI 3ff18 .cfa: sp 464 +
STACK CFI INIT 3ff1c 20c .cfa: sp 0 +
STACK CFI 3ff20 .cfa: sp 992 +
STACK CFI 3ff28 .cfa: sp 1088 + x29: .cfa -1088 + ^ .ra: .cfa -1080 + ^
STACK CFI 3ff2c .cfa: x29 1088 +
STACK CFI 3ff34 x19: .cfa -1072 + ^ x20: .cfa -1064 + ^ x21: .cfa -1056 + ^ x22: .cfa -1048 + ^
STACK CFI 3ff44 x23: .cfa -1040 + ^ x24: .cfa -1032 + ^
STACK CFI 3ff54 x25: .cfa -1024 + ^ x26: .cfa -1016 + ^ x27: .cfa -1008 + ^ x28: .cfa -1000 + ^
STACK CFI 40120 .cfa: sp 992 +
STACK CFI 40124 .cfa: sp 896 +
STACK CFI INIT 40128 dc .cfa: sp 0 +
STACK CFI 4012c .cfa: sp 1680 +
STACK CFI 40130 .cfa: sp 1744 + x29: .cfa -1744 + ^ .ra: .cfa -1736 + ^
STACK CFI 40134 .cfa: x29 1744 +
STACK CFI 4013c x19: .cfa -1728 + ^ x20: .cfa -1720 + ^ x21: .cfa -1712 + ^ x22: .cfa -1704 + ^
STACK CFI 40144 x23: .cfa -1696 + ^
STACK CFI 401fc .cfa: sp 1680 +
STACK CFI 40200 .cfa: sp 1616 +
STACK CFI INIT 40204 4c .cfa: sp 0 +
STACK CFI 40208 .cfa: sp 32 + x29: .cfa -32 + ^ .ra: .cfa -24 + ^
STACK CFI 4020c .cfa: x29 32 +
STACK CFI 40210 x19: .cfa -16 + ^ x20: .cfa -8 + ^
STACK CFI 4024c .cfa: sp 0 +
STACK CFI INIT 40250 c0 .cfa: sp 0 +
STACK CFI 40254 .cfa: sp 1664 +
STACK CFI 40258 .cfa: sp 1728 + x29: .cfa -1728 + ^ .ra: .cfa -1720 + ^
STACK CFI 4025c .cfa: x29 1728 +
STACK CFI 40268 x19: .cfa -1712 + ^ x20: .cfa -1704 + ^ x21: .cfa -1696 + ^ x22: .cfa -1688 + ^ x23: .cfa -1680 + ^ x24: .cfa -1672 + ^
STACK CFI 40308 .cfa: sp 1664 +
STACK CFI 4030c .cfa: sp 1600 +
STACK CFI INIT 40310 ec .cfa: sp 0 +
STACK CFI 40314 .cfa: sp 1664 +
STACK CFI 40318 .cfa: sp 1744 + x29: .cfa -1744 + ^ .ra: .cfa -1736 + ^
STACK CFI 4031c .cfa: x29 1744 +
STACK CFI 40320 x23: .cfa -1696 + ^ x24: .cfa -1688 + ^
STACK CFI 40334 x21: .cfa -1712 + ^ x22: .cfa -1704 + ^ x25: .cfa -1680 + ^ x26: .cfa -1672 + ^ x19: .cfa -1728 + ^ x20: .cfa -1720 + ^
STACK CFI 403f4 .cfa: sp 1664 +
STACK CFI 403f8 .cfa: sp 1584 +
STACK CFI INIT 403fc f4 .cfa: sp 0 +
STACK CFI 40400 .cfa: sp 2624 +
STACK CFI 40408 .cfa: sp 2672 + x29: .cfa -2672 + ^ .ra: .cfa -2664 + ^
STACK CFI 4040c .cfa: x29 2672 +
STACK CFI 40410 x19: .cfa -2656 + ^ x20: .cfa -2648 + ^
STACK CFI 40418 x21: .cfa -2640 + ^
STACK CFI 404e4 .cfa: sp 2624 +
STACK CFI 404ec .cfa: sp 2576 +
STACK CFI INIT 404f0 4 .cfa: sp 0 +
STACK CFI INIT 404f4 178 .cfa: sp 0 +
STACK CFI 404f8 .cfa: sp 3600 +
STACK CFI 404fc .cfa: sp 3792 + x29: .cfa -3792 + ^ .ra: .cfa -3784 + ^
STACK CFI 40500 .cfa: x29 3792 +
STACK CFI 40508 x21: .cfa -3728 + ^ x22: .cfa -3720 + ^ v8: .cfa -3664 + ^ v9: .cfa -3656 + ^
STACK CFI 40524 v10: .cfa -3648 + ^ v11: .cfa -3640 + ^ x0: .cfa -3776 + ^ x1: .cfa -3768 + ^ v12: .cfa -3632 + ^ v13: .cfa -3624 + ^ x2: .cfa -3760 + ^ x3: .cfa -3752 + ^ v14: .cfa -3616 + ^ v15: .cfa -3608 + ^ x19: .cfa -3744 + ^ x20: .cfa -3736 + ^
STACK CFI 40540 x23: .cfa -3712 + ^ x24: .cfa -3704 + ^ x25: .cfa -3696 + ^ x26: .cfa -3688 + ^ x27: .cfa -3680 + ^ x28: .cfa -3672 + ^
STACK CFI 4065c .cfa: sp 3600 +
STACK CFI 40660 .cfa: x16 0 +
STACK CFI INIT 4066c f4 .cfa: sp 0 +
STACK CFI 40670 .cfa: sp 1936 +
STACK CFI 40674 .cfa: sp 2128 + x29: .cfa -2128 + ^ .ra: .cfa -2120 + ^
STACK CFI 40678 .cfa: x29 2128 +
STACK CFI 40680 x19: .cfa -2080 + ^ x20: .cfa -2072 + ^ v8: .cfa -2000 + ^ v9: .cfa -1992 + ^
STACK CFI 406a0 v10: .cfa -1984 + ^ v11: .cfa -1976 + ^ x2: .cfa -2096 + ^ x3: .cfa -2088 + ^ v12: .cfa -1968 + ^ v13: .cfa -1960 + ^ x0: .cfa -2112 + ^ x1: .cfa -2104 + ^ v14: .cfa -1952 + ^ v15: .cfa -1944 + ^ x21: .cfa -2064 + ^ x22: .cfa -2056 + ^ x23: .cfa -2048 + ^ x24: .cfa -2040 + ^
STACK CFI 406c4 x25: .cfa -2032 + ^ x26: .cfa -2024 + ^ x27: .cfa -2016 + ^ x28: .cfa -2008 + ^
STACK CFI 40750 .cfa: sp 1936 +
STACK CFI 40754 .cfa: x16 0 +
STACK CFI INIT 40760 fc .cfa: sp 0 +
STACK CFI 40764 .cfa: sp 1936 +
STACK CFI 40768 .cfa: sp 2128 + x29: .cfa -2128 + ^ .ra: .cfa -2120 + ^
STACK CFI 4076c .cfa: x29 2128 +
STACK CFI 40774 x19: .cfa -2080 + ^ x20: .cfa -2072 + ^ v8: .cfa -2000 + ^ v9: .cfa -1992 + ^
STACK CFI 4078c v10: .cfa -1984 + ^ v11: .cfa -1976 + ^ x0: .cfa -2112 + ^ x1: .cfa -2104 + ^ v12: .cfa -1968 + ^ v13: .cfa -1960 + ^ x2: .cfa -2096 + ^ x3: .cfa -2088 + ^ v14: .cfa -1952 + ^ v15: .cfa -1944 + ^
STACK CFI 40798 x21: .cfa -2064 + ^ x22: .cfa -2056 + ^
STACK CFI 407ac x23: .cfa -2048 + ^ x24: .cfa -2040 + ^ x25: .cfa -2032 + ^ x26: .cfa -2024 + ^ x27: .cfa -2016 + ^ x28: .cfa -2008 + ^
STACK CFI 4084c .cfa: sp 1936 +
STACK CFI 40850 .cfa: x16 0 +
STACK CFI INIT 4085c f8 .cfa: sp 0 +
STACK CFI 40860 .cfa: sp 1936 +
STACK CFI 40864 .cfa: sp 2128 + x29: .cfa -2128 + ^ .ra: .cfa -2120 + ^
STACK CFI 40868 .cfa: x29 2128 +
STACK CFI 40874 v8: .cfa -2000 + ^ v9: .cfa -1992 + ^ x0: .cfa -2112 + ^ x1: .cfa -2104 + ^ v10: .cfa -1984 + ^ v11: .cfa -1976 + ^
STACK CFI 40898 v12: .cfa -1968 + ^ v13: .cfa -1960 + ^ x2: .cfa -2096 + ^ x3: .cfa -2088 + ^ v14: .cfa -1952 + ^ v15: .cfa -1944 + ^ x21: .cfa -2064 + ^ x22: .cfa -2056 + ^ x19: .cfa -2080 + ^ x20: .cfa -2072 + ^ x23: .cfa -2048 + ^ x24: .cfa -2040 + ^ x25: .cfa -2032 + ^ x26: .cfa -2024 + ^ x27: .cfa -2016 + ^ x28: .cfa -2008 + ^
STACK CFI 40944 .cfa: sp 1936 +
STACK CFI 40948 .cfa: x16 0 +
STACK CFI INIT 40954 24 .cfa: sp 0 +
STACK CFI 40958 .cfa: sp 16 + x29: .cfa -16 + ^ .ra: .cfa -8 + ^
STACK CFI 4095c .cfa: x29 16 +
STACK CFI 40974 .cfa: sp 0 +
STACK CFI INIT 40978 d0 .cfa: sp 0 +
STACK CFI 4097c .cfa: sp 2624 +
STACK CFI 40984 .cfa: sp 2784 + x29: .cfa -2784 + ^ .ra: .cfa -2776 + ^
STACK CFI 40988 .cfa: x29 2784 +
STACK CFI 40990 x19: .cfa -2768 + ^ x20: .cfa -2760 + ^ v8: .cfa -2688 + ^ v9: .cfa -2680 + ^
STACK CFI 409a8 v10: .cfa -2672 + ^ v11: .cfa -2664 + ^ x21: .cfa -2752 + ^ x22: .cfa -2744 + ^ v12: .cfa -2656 + ^ v13: .cfa -2648 + ^ x23: .cfa -2736 + ^ x24: .cfa -2728 + ^ v14: .cfa -2640 + ^ v15: .cfa -2632 + ^
STACK CFI 409c4 x25: .cfa -2720 + ^ x26: .cfa -2712 + ^ x27: .cfa -2704 + ^ x28: .cfa -2696 + ^
STACK CFI 40a40 .cfa: sp 2624 +
STACK CFI 40a44 .cfa: sp 2464 +
STACK CFI INIT 40a48 28 .cfa: sp 0 +
STACK CFI INIT 40a70 40 .cfa: sp 0 +
STACK CFI INIT 40ab0 1c .cfa: sp 0 +
STACK CFI INIT 40acc c0 .cfa: sp 0 +
STACK CFI 40ad0 .cfa: sp 96 + x29: .cfa -96 + ^ .ra: .cfa -88 + ^
STACK CFI 40ad4 .cfa: x29 96 +
STACK CFI 40ad8 x19: .cfa -80 + ^ x20: .cfa -72 + ^
STACK CFI 40ae8 x25: .cfa -32 + ^ x23: .cfa -48 + ^ x24: .cfa -40 + ^ x21: .cfa -64 + ^ x22: .cfa -56 + ^
STACK CFI 40b88 .cfa: sp 0 +
STACK CFI INIT 40b8c b4 .cfa: sp 0 +
STACK CFI 40b90 .cfa: sp 80 + x29: .cfa -80 + ^ .ra: .cfa -72 + ^
STACK CFI 40b94 .cfa: x29 80 +
STACK CFI 40b98 x19: .cfa -64 + ^ x20: .cfa -56 + ^
STACK CFI 40ba8 x21: .cfa -48 + ^ x22: .cfa -40 + ^ x23: .cfa -32 + ^ x24: .cfa -24 + ^ x25: .cfa -16 + ^
STACK CFI 40c3c .cfa: sp 0 +
STACK CFI INIT 40c40 60 .cfa: sp 0 +
STACK CFI 40c44 .cfa: sp 16 + x29: .cfa -16 + ^ .ra: .cfa -8 + ^
STACK CFI 40c50 .cfa: x29 16 +
STACK CFI 40c9c .cfa: sp 0 +
STACK CFI INIT 40ca0 60 .cfa: sp 0 +
STACK CFI 40ca4 .cfa: sp 16 + x29: .cfa -16 + ^ .ra: .cfa -8 + ^
STACK CFI 40cb0 .cfa: x29 16 +
STACK CFI 40cfc .cfa: sp 0 +
STACK CFI INIT 40d00 60 .cfa: sp 0 +
STACK CFI 40d04 .cfa: sp 16 + x29: .cfa -16 + ^ .ra: .cfa -8 + ^
STACK CFI 40d10 .cfa: x29 16 +
STACK CFI 40d5c .cfa: sp 0 +
STACK CFI INIT 40d60 f0 .cfa: sp 0 +
STACK CFI 40d64 .cfa: sp 64 + x29: .cfa -64 + ^ .ra: .cfa -56 + ^
STACK CFI 40d68 .cfa: x29 64 +
STACK CFI 40d6c x19: .cfa -48 + ^ x20: .cfa -40 + ^
STACK CFI 40d78 x21: .cfa -32 + ^ x22: .cfa -24 + ^
STACK CFI 40e4c .cfa: sp 0 +
STACK CFI INIT 40e50 90 .cfa: sp 0 +
STACK CFI 40e54 .cfa: sp 80 + x29: .cfa -80 + ^ .ra: .cfa -72 + ^
STACK CFI 40e58 .cfa: x29 80 +
STACK CFI 40e5c x19: .cfa -64 + ^ x20: .cfa -56 + ^
STACK CFI 40e68 x23: .cfa -32 + ^
STACK CFI 40e7c x21: .cfa -48 + ^ x22: .cfa -40 + ^
STACK CFI 40edc .cfa: sp 0 +
STACK CFI INIT 40ee0 fc .cfa: sp 0 +
STACK CFI 40ee4 .cfa: sp 64 + x29: .cfa -64 + ^ .ra: .cfa -56 + ^
STACK CFI 40ee8 .cfa: x29 64 +
STACK CFI 40eec x19: .cfa -48 + ^ x20: .cfa -40 + ^
STACK CFI 40fd8 .cfa: sp 0 +
STACK CFI INIT 40fdc 160 .cfa: sp 0 +
STACK CFI 40fe0 .cfa: sp 112 + x29: .cfa -112 + ^ .ra: .cfa -104 + ^
STACK CFI 40fe4 .cfa: x29 112 +
STACK CFI 40fe8 x21: .cfa -80 + ^ x22: .cfa -72 + ^
STACK CFI 40ff8 x19: .cfa -96 + ^ x20: .cfa -88 + ^
STACK CFI 4100c x23: .cfa -64 + ^ x24: .cfa -56 + ^ x25: .cfa -48 + ^ x26: .cfa -40 + ^ x27: .cfa -32 + ^ x28: .cfa -24 + ^
STACK CFI 41138 .cfa: sp 0 +
STACK CFI INIT 4113c 10 .cfa: sp 0 +
STACK CFI INIT 4114c 41c .cfa: sp 0 +
STACK CFI 41150 .cfa: sp 144 + x29: .cfa -144 + ^ .ra: .cfa -136 + ^
STACK CFI 41158 .cfa: x29 144 +
STACK CFI 41164 x19: .cfa -128 + ^ x20: .cfa -120 + ^ x21: .cfa -112 + ^ x22: .cfa -104 + ^ x23: .cfa -96 + ^ x24: .cfa -88 + ^
STACK CFI 41564 .cfa: sp 0 +
STACK CFI INIT 41568 9c .cfa: sp 0 +
STACK CFI 4156c .cfa: sp 64 + x29: .cfa -64 + ^ .ra: .cfa -56 + ^
STACK CFI 41570 .cfa: x29 64 +
STACK CFI 41574 x21: .cfa -32 + ^ x22: .cfa -24 + ^
STACK CFI 41580 x19: .cfa -48 + ^ x20: .cfa -40 + ^
STACK CFI 41600 .cfa: sp 0 +
STACK CFI INIT 41604 160 .cfa: sp 0 +
STACK CFI 41608 .cfa: sp 112 + x29: .cfa -112 + ^ .ra: .cfa -104 + ^
STACK CFI 4160c .cfa: x29 112 +
STACK CFI 4161c x19: .cfa -96 + ^ x20: .cfa -88 + ^ x23: .cfa -64 + ^ x24: .cfa -56 + ^ x25: .cfa -48 + ^ x26: .cfa -40 + ^ x21: .cfa -80 + ^ x22: .cfa -72 + ^
STACK CFI 41624 x27: .cfa -32 + ^
STACK CFI 41760 .cfa: sp 0 +
STACK CFI INIT 41764 134 .cfa: sp 0 +
STACK CFI 41768 .cfa: sp 112 + x29: .cfa -112 + ^ .ra: .cfa -104 + ^
STACK CFI 4176c .cfa: x29 112 +
STACK CFI 41770 x21: .cfa -80 + ^ x22: .cfa -72 + ^
STACK CFI 41780 x23: .cfa -64 + ^ x24: .cfa -56 + ^
STACK CFI 41794 x27: .cfa -32 + ^ x25: .cfa -48 + ^ x26: .cfa -40 + ^ x19: .cfa -96 + ^ x20: .cfa -88 + ^
STACK CFI 41894 .cfa: sp 0 +
STACK CFI INIT 41898 570 .cfa: sp 0 +
STACK CFI 4189c .cfa: sp 144 + x29: .cfa -144 + ^ .ra: .cfa -136 + ^
STACK CFI 418a0 .cfa: x29 144 +
STACK CFI 418a4 x21: .cfa -112 + ^ x22: .cfa -104 + ^
STACK CFI 418bc x19: .cfa -128 + ^ x20: .cfa -120 + ^ x23: .cfa -96 + ^ x24: .cfa -88 + ^ x25: .cfa -80 + ^ x26: .cfa -72 + ^ x27: .cfa -64 + ^ x28: .cfa -56 + ^
STACK CFI 41e04 .cfa: sp 0 +
STACK CFI INIT 41e08 9c .cfa: sp 0 +
STACK CFI 41e0c .cfa: sp 48 + x29: .cfa -48 + ^ .ra: .cfa -40 + ^
STACK CFI 41e10 .cfa: x29 48 +
STACK CFI 41e18 x19: .cfa -32 + ^ x20: .cfa -24 + ^ x21: .cfa -16 + ^
STACK CFI 41e90 .cfa: sp 0 +
STACK CFI 41e94 .cfa: x29 48 +
STACK CFI 41ea0 .cfa: sp 0 +
STACK CFI INIT 41ea4 c .cfa: sp 0 +
STACK CFI INIT 41eb0 40 .cfa: sp 0 +
STACK CFI 41eb4 .cfa: sp 32 + x29: .cfa -32 + ^ .ra: .cfa -24 + ^
STACK CFI 41eb8 .cfa: x29 32 +
STACK CFI 41ec0 x19: .cfa -16 + ^
STACK CFI 41ee0 .cfa: sp 0 +
STACK CFI 41ee4 .cfa: x29 32 +
STACK CFI 41eec .cfa: sp 0 +
STACK CFI INIT 41ef0 94 .cfa: sp 0 +
STACK CFI 41ef4 .cfa: sp 48 + x29: .cfa -48 + ^ .ra: .cfa -40 + ^
STACK CFI 41efc .cfa: x29 48 +
STACK CFI 41f00 x19: .cfa -32 + ^ x20: .cfa -24 + ^
STACK CFI 41f70 .cfa: sp 0 +
STACK CFI 41f78 .cfa: x29 48 +
STACK CFI 41f80 .cfa: sp 0 +
STACK CFI INIT 41f84 c .cfa: sp 0 +
STACK CFI INIT 41f90 2c .cfa: sp 0 +
STACK CFI 41f94 .cfa: sp 32 + x29: .cfa -32 + ^ .ra: .cfa -24 + ^
STACK CFI 41f98 .cfa: x29 32 +
STACK CFI 41f9c x19: .cfa -16 + ^
STACK CFI 41fb8 .cfa: sp 0 +
STACK CFI INIT 41fbc 100 .cfa: sp 0 +
STACK CFI 41fc0 .cfa: sp 48 + x29: .cfa -48 + ^ .ra: .cfa -40 + ^
STACK CFI 41fc4 .cfa: x29 48 +
STACK CFI 41fcc x19: .cfa -32 + ^ x20: .cfa -24 + ^ x21: .cfa -16 + ^ x22: .cfa -8 + ^
STACK CFI 420b8 .cfa: sp 0 +
STACK CFI INIT 420bc 4 .cfa: sp 0 +
STACK CFI INIT 420c0 24 .cfa: sp 0 +
STACK CFI 420c4 .cfa: sp 16 + x29: .cfa -16 + ^ .ra: .cfa -8 + ^
STACK CFI 420c8 .cfa: x29 16 +
STACK CFI 420d8 .cfa: sp 0 +
STACK CFI 420dc .cfa: x29 16 +
STACK CFI 420e0 .cfa: sp 0 +
STACK CFI INIT 420e4 1c4 .cfa: sp 0 +
STACK CFI 420e8 .cfa: sp 128 + x29: .cfa -128 + ^ .ra: .cfa -120 + ^
STACK CFI 420ec .cfa: x29 128 +
STACK CFI 420f0 x21: .cfa -96 + ^ x22: .cfa -88 + ^
STACK CFI 420fc x25: .cfa -64 + ^ x23: .cfa -80 + ^ x24: .cfa -72 + ^
STACK CFI 42110 x19: .cfa -112 + ^ x20: .cfa -104 + ^
STACK CFI 422a4 .cfa: sp 0 +
