MODULE Linux arm64 A40FB446DB6A27C5A75338DF9E6525D60 geode.node-ids.android64.so
INFO CODE_ID 46B40FA46ADBC527A75338DF9E6525D6C1BC5A45
INFO GENERATOR mozilla/dump_syms 2.2.2
PUBLIC 2c760 0 __on_dlclose
PUBLIC 2c770 0 __emutls_unregister_key
PUBLIC 2c778 0 __on_dlclose_late
PUBLIC 2c780 0 __atexit_handler_wrapper
PUBLIC 2c794 0 atexit
PUBLIC 2c7b0 0 pthread_atfork
PUBLIC 2c7c0 0 ProvideIDsForCommentCell::provide()
PUBLIC 2cde0 0 geode::cocos::getChildOfType<cocos2d::CCLabelBMFont>(cocos2d::CCNode*, int)
PUBLIC 2cf24 0 geode::node_ids::setIDSafe<cocos2d::CCNode>(cocos2d::CCNode*, int, char const*)
PUBLIC 2d0a0 0 __cxx_global_var_init.13
PUBLIC 2d108 0 geode::modifier::ModifyBase<geode::modifier::ModifyDerive<CommentCellIDs, CommentCell> >::~ModifyBase()
PUBLIC 2d124 0 std::__ndk1::basic_string<char, std::__ndk1::char_traits<char>, std::__ndk1::allocator<char> >::__throw_length_error[abi:v170000]() const
PUBLIC 2d138 0 std::__ndk1::__throw_length_error[abi:v170000](char const*)
PUBLIC 2d188 0 std::length_error::length_error[abi:v170000](char const*)
PUBLIC 2d1b8 0 std::__throw_bad_array_new_length([abi:v170000], void)
PUBLIC 2d1ec 0 __clang_call_terminate
PUBLIC 2d1fc 0 geode::geodeInternalProvideIDsFor<ProvideIDsForCommentCell>(ProvideIDsForCommentCell*)
PUBLIC 2d3dc 0 std::__ndk1::__hash_table<std::__ndk1::__hash_value_type<std::__ndk1::basic_string<char, std::__ndk1::char_traits<char>, std::__ndk1::allocator<char> >, void (*)(cocos2d::CCNode*)>, std::__ndk1::__unordered_map_hasher<std::__ndk1::basic_string<char, std::__ndk1::char_traits<char>, std::__ndk1::allocator<char> >, std::__ndk1::__hash_value_type<std::__ndk1::basic_string<char, std::__ndk1::char_traits<char>, std::__ndk1::allocator<char> >, void (*)(cocos2d::CCNode*)>, std::__ndk1::hash<std::__ndk1::basic_string<char, std::__ndk1::char_traits<char>, std::__ndk1::allocator<char> > >, std::__ndk1::equal_to<std::__ndk1::basic_string<char, std::__ndk1::char_traits<char>, std::__ndk1::allocator<char> > >, true>, std::__ndk1::__unordered_map_equal<std::__ndk1::basic_string<char, std::__ndk1::char_traits<char>, std::__ndk1::allocator<char> >, std::__ndk1::__hash_value_type<std::__ndk1::basic_string<char, std::__ndk1::char_traits<char>, std::__ndk1::allocator<char> >, void (*)(cocos2d::CCNode*)>, std::__ndk1::equal_to<std::__ndk1::basic_string<char, std::__ndk1::char_traits<char>, std::__ndk1::allocator<char> > >, std::__ndk1::hash<std::__ndk1::basic_string<char, std::__ndk1::char_traits<char>, std::__ndk1::allocator<char> > >, true>, std::__ndk1::allocator<std::__ndk1::__hash_value_type<std::__ndk1::basic_string<char, std::__ndk1::char_traits<char>, std::__ndk1::allocator<char> >, void (*)(cocos2d::CCNode*)> > >::__emplace_unique_key_args<std::__ndk1::basic_string<char, std::__ndk1::char_traits<char>, std::__ndk1::allocator<char> >, std::__ndk1::pair<std::__ndk1::basic_string<char, std::__ndk1::char_traits<char>, std::__ndk1::allocator<char> > const, void (*)(cocos2d::CCNode*)> >(std::__ndk1::basic_string<char, std::__ndk1::char_traits<char>, std::__ndk1::allocator<char> > const&, std::__ndk1::pair<std::__ndk1::basic_string<char, std::__ndk1::char_traits<char>, std::__ndk1::allocator<char> > const, void (*)(cocos2d::CCNode*)>&&)
PUBLIC 2d8e8 0 std::__ndk1::unique_ptr<std::__ndk1::__hash_node<std::__ndk1::__hash_value_type<std::__ndk1::basic_string<char, std::__ndk1::char_traits<char>, std::__ndk1::allocator<char> >, void (*)(cocos2d::CCNode*)>, void*>, std::__ndk1::__hash_node_destructor<std::__ndk1::allocator<std::__ndk1::__hash_node<std::__ndk1::__hash_value_type<std::__ndk1::basic_string<char, std::__ndk1::char_traits<char>, std::__ndk1::allocator<char> >, void (*)(cocos2d::CCNode*)>, void*> > > >::~unique_ptr[abi:v170000]()
PUBLIC 2d934 0 std::__ndk1::__murmur2_or_cityhash<unsigned long, (unsigned long)64>::operator()(void const*, unsigned long)
PUBLIC 2ddec 0 std::__ndk1::__hash_table<std::__ndk1::__hash_value_type<std::__ndk1::basic_string<char, std::__ndk1::char_traits<char>, std::__ndk1::allocator<char> >, void (*)(cocos2d::CCNode*)>, std::__ndk1::__unordered_map_hasher<std::__ndk1::basic_string<char, std::__ndk1::char_traits<char>, std::__ndk1::allocator<char> >, std::__ndk1::__hash_value_type<std::__ndk1::basic_string<char, std::__ndk1::char_traits<char>, std::__ndk1::allocator<char> >, void (*)(cocos2d::CCNode*)>, std::__ndk1::hash<std::__ndk1::basic_string<char, std::__ndk1::char_traits<char>, std::__ndk1::allocator<char> > >, std::__ndk1::equal_to<std::__ndk1::basic_string<char, std::__ndk1::char_traits<char>, std::__ndk1::allocator<char> > >, true>, std::__ndk1::__unordered_map_equal<std::__ndk1::basic_string<char, std::__ndk1::char_traits<char>, std::__ndk1::allocator<char> >, std::__ndk1::__hash_value_type<std::__ndk1::basic_string<char, std::__ndk1::char_traits<char>, std::__ndk1::allocator<char> >, void (*)(cocos2d::CCNode*)>, std::__ndk1::equal_to<std::__ndk1::basic_string<char, std::__ndk1::char_traits<char>, std::__ndk1::allocator<char> > >, std::__ndk1::hash<std::__ndk1::basic_string<char, std::__ndk1::char_traits<char>, std::__ndk1::allocator<char> > >, true>, std::__ndk1::allocator<std::__ndk1::__hash_value_type<std::__ndk1::basic_string<char, std::__ndk1::char_traits<char>, std::__ndk1::allocator<char> >, void (*)(cocos2d::CCNode*)> > >::__do_rehash<true>(unsigned long)
PUBLIC 2dfc4 0 geode::EnterLayerEvent<ProvideIDsForCommentCell>::~EnterLayerEvent()
PUBLIC 2e008 0 geode::AEnterLayerEvent::~AEnterLayerEvent()
PUBLIC 2e044 0 geode::AEnterLayerEvent::~AEnterLayerEvent()
PUBLIC 2e088 0 geode::cast::traverseTypeinfoFor(void*, geode::cast::ClassTypeinfoType const*, char const*)
PUBLIC 2e188 0 geode::modifier::ModifyBase<geode::modifier::ModifyDerive<CommentCellIDs, CommentCell> >::ModifyBase()
PUBLIC 2e620 0 geode::modifier::ModifyDerive<CommentCellIDs, CommentCell>::apply()
PUBLIC 2e904 0 CommentCellIDs::onModify<geode::modifier::ModifyBase<geode::modifier::ModifyDerive<CommentCellIDs, CommentCell> > >(geode::modifier::ModifyBase<geode::modifier::ModifyDerive<CommentCellIDs, CommentCell> >&)
PUBLIC 2ea24 0 std::__ndk1::shared_ptr<geode::Hook>::~shared_ptr[abi:v170000]()
PUBLIC 2ea74 0 std::__ndk1::vector<std::__ndk1::basic_string<char, std::__ndk1::char_traits<char>, std::__ndk1::allocator<char> >, std::__ndk1::allocator<std::__ndk1::basic_string<char, std::__ndk1::char_traits<char>, std::__ndk1::allocator<char> > > >::~vector[abi:v170000]()
PUBLIC 2eaf0 0 geode::modifier::ModifyBase<geode::modifier::ModifyDerive<CommentCellIDs, CommentCell> >::apply()
PUBLIC 2eaf4 0 geode::modifier::ModifyBase<geode::modifier::ModifyDerive<CommentCellIDs, CommentCell> >::setHookPriority(std::__ndk1::basic_string<char, std::__ndk1::char_traits<char>, std::__ndk1::allocator<char> > const&, int)
PUBLIC 2ecb0 0 geode::Result<geode::Hook*, std::__ndk1::basic_string<char, std::__ndk1::char_traits<char>, std::__ndk1::allocator<char> > >::unwrap() &
PUBLIC 2edb0 0 std::__ndk1::__tree<std::__ndk1::__value_type<std::__ndk1::basic_string<char, std::__ndk1::char_traits<char>, std::__ndk1::allocator<char> >, std::__ndk1::shared_ptr<geode::Hook> >, std::__ndk1::__map_value_compare<std::__ndk1::basic_string<char, std::__ndk1::char_traits<char>, std::__ndk1::allocator<char> >, std::__ndk1::__value_type<std::__ndk1::basic_string<char, std::__ndk1::char_traits<char>, std::__ndk1::allocator<char> >, std::__ndk1::shared_ptr<geode::Hook> >, std::__ndk1::less<std::__ndk1::basic_string<char, std::__ndk1::char_traits<char>, std::__ndk1::allocator<char> > >, true>, std::__ndk1::allocator<std::__ndk1::__value_type<std::__ndk1::basic_string<char, std::__ndk1::char_traits<char>, std::__ndk1::allocator<char> >, std::__ndk1::shared_ptr<geode::Hook> > > >::find<std::__ndk1::basic_string<char, std::__ndk1::char_traits<char>, std::__ndk1::allocator<char> > >(std::__ndk1::basic_string<char, std::__ndk1::char_traits<char>, std::__ndk1::allocator<char> > const&)
PUBLIC 2eebc 0 std::__ndk1::__tree<std::__ndk1::__value_type<std::__ndk1::basic_string<char, std::__ndk1::char_traits<char>, std::__ndk1::allocator<char> >, std::__ndk1::shared_ptr<geode::Hook> >, std::__ndk1::__map_value_compare<std::__ndk1::basic_string<char, std::__ndk1::char_traits<char>, std::__ndk1::allocator<char> >, std::__ndk1::__value_type<std::__ndk1::basic_string<char, std::__ndk1::char_traits<char>, std::__ndk1::allocator<char> >, std::__ndk1::shared_ptr<geode::Hook> >, std::__ndk1::less<std::__ndk1::basic_string<char, std::__ndk1::char_traits<char>, std::__ndk1::allocator<char> > >, true>, std::__ndk1::allocator<std::__ndk1::__value_type<std::__ndk1::basic_string<char, std::__ndk1::char_traits<char>, std::__ndk1::allocator<char> >, std::__ndk1::shared_ptr<geode::Hook> > > >::__emplace_unique_key_args<std::__ndk1::basic_string<char, std::__ndk1::char_traits<char>, std::__ndk1::allocator<char> >, std::__ndk1::piecewise_construct_t const&, std::__ndk1::tuple<std::__ndk1::basic_string<char, std::__ndk1::char_traits<char>, std::__ndk1::allocator<char> > const&>, std::__ndk1::tuple<> >(std::__ndk1::basic_string<char, std::__ndk1::char_traits<char>, std::__ndk1::allocator<char> > const&, std::__ndk1::piecewise_construct_t const&, std::__ndk1::tuple<std::__ndk1::basic_string<char, std::__ndk1::char_traits<char>, std::__ndk1::allocator<char> > const&>, std::__ndk1::tuple<>)
PUBLIC 2f048 0 std::__ndk1::__tree<std::__ndk1::__value_type<std::__ndk1::basic_string<char, std::__ndk1::char_traits<char>, std::__ndk1::allocator<char> >, std::__ndk1::shared_ptr<geode::Hook> >, std::__ndk1::__map_value_compare<std::__ndk1::basic_string<char, std::__ndk1::char_traits<char>, std::__ndk1::allocator<char> >, std::__ndk1::__value_type<std::__ndk1::basic_string<char, std::__ndk1::char_traits<char>, std::__ndk1::allocator<char> >, std::__ndk1::shared_ptr<geode::Hook> >, std::__ndk1::less<std::__ndk1::basic_string<char, std::__ndk1::char_traits<char>, std::__ndk1::allocator<char> > >, true>, std::__ndk1::allocator<std::__ndk1::__value_type<std::__ndk1::basic_string<char, std::__ndk1::char_traits<char>, std::__ndk1::allocator<char> >, std::__ndk1::shared_ptr<geode::Hook> > > >::__find_equal<std::__ndk1::basic_string<char, std::__ndk1::char_traits<char>, std::__ndk1::allocator<char> > >(std::__ndk1::__tree_end_node<std::__ndk1::__tree_node_base<void*>*>*&, std::__ndk1::basic_string<char, std::__ndk1::char_traits<char>, std::__ndk1::allocator<char> > const&)
PUBLIC 2f14c 0 std::__ndk1::__tree_balance_after_insert[abi:v170000]<std::__ndk1::__tree_node_base<void*>*>(std::__ndk1::__tree_node_base<void*>*, std::__ndk1::__tree_node_base<void*>*)
PUBLIC 2f300 0 cpp::bitwizeshift::bad_result_access<std::__ndk1::basic_string<char, std::__ndk1::char_traits<char>, std::__ndk1::allocator<char> > >::~bad_result_access()
PUBLIC 2f33c 0 cpp::bitwizeshift::bad_result_access<std::__ndk1::basic_string<char, std::__ndk1::char_traits<char>, std::__ndk1::allocator<char> > >::~bad_result_access()
PUBLIC 2f380 0 std::__ndk1::vector<std::__ndk1::basic_string<char, std::__ndk1::char_traits<char>, std::__ndk1::allocator<char> >, std::__ndk1::allocator<std::__ndk1::basic_string<char, std::__ndk1::char_traits<char>, std::__ndk1::allocator<char> > > >::__push_back_slow_path<std::__ndk1::basic_string<char, std::__ndk1::char_traits<char>, std::__ndk1::allocator<char> > const&>(std::__ndk1::basic_string<char, std::__ndk1::char_traits<char>, std::__ndk1::allocator<char> > const&)
PUBLIC 2f620 0 std::__ndk1::__split_buffer<std::__ndk1::basic_string<char, std::__ndk1::char_traits<char>, std::__ndk1::allocator<char> >, std::__ndk1::allocator<std::__ndk1::basic_string<char, std::__ndk1::char_traits<char>, std::__ndk1::allocator<char> > >&>::~__split_buffer()
PUBLIC 2f688 0 std::__ndk1::vector<std::__ndk1::basic_string<char, std::__ndk1::char_traits<char>, std::__ndk1::allocator<char> >, std::__ndk1::allocator<std::__ndk1::basic_string<char, std::__ndk1::char_traits<char>, std::__ndk1::allocator<char> > > >::__throw_length_error[abi:v170000]() const
PUBLIC 2f69c 0 std::__ndk1::__tree<std::__ndk1::__value_type<std::__ndk1::basic_string<char, std::__ndk1::char_traits<char>, std::__ndk1::allocator<char> >, std::__ndk1::shared_ptr<geode::Hook> >, std::__ndk1::__map_value_compare<std::__ndk1::basic_string<char, std::__ndk1::char_traits<char>, std::__ndk1::allocator<char> >, std::__ndk1::__value_type<std::__ndk1::basic_string<char, std::__ndk1::char_traits<char>, std::__ndk1::allocator<char> >, std::__ndk1::shared_ptr<geode::Hook> >, std::__ndk1::less<std::__ndk1::basic_string<char, std::__ndk1::char_traits<char>, std::__ndk1::allocator<char> > >, true>, std::__ndk1::allocator<std::__ndk1::__value_type<std::__ndk1::basic_string<char, std::__ndk1::char_traits<char>, std::__ndk1::allocator<char> >, std::__ndk1::shared_ptr<geode::Hook> > > >::erase(std::__ndk1::__tree_const_iterator<std::__ndk1::__value_type<std::__ndk1::basic_string<char, std::__ndk1::char_traits<char>, std::__ndk1::allocator<char> >, std::__ndk1::shared_ptr<geode::Hook> >, std::__ndk1::__tree_node<std::__ndk1::__value_type<std::__ndk1::basic_string<char, std::__ndk1::char_traits<char>, std::__ndk1::allocator<char> >, std::__ndk1::shared_ptr<geode::Hook> >, void*>*, long>)
PUBLIC 2f770 0 std::__ndk1::__tree_remove[abi:v170000]<std::__ndk1::__tree_node_base<void*>*>(std::__ndk1::__tree_node_base<void*>*, std::__ndk1::__tree_node_base<void*>*)
PUBLIC 2fb3c 0 std::__ndk1::__tree<std::__ndk1::__value_type<std::__ndk1::basic_string<char, std::__ndk1::char_traits<char>, std::__ndk1::allocator<char> >, std::__ndk1::shared_ptr<geode::Hook> >, std::__ndk1::__map_value_compare<std::__ndk1::basic_string<char, std::__ndk1::char_traits<char>, std::__ndk1::allocator<char> >, std::__ndk1::__value_type<std::__ndk1::basic_string<char, std::__ndk1::char_traits<char>, std::__ndk1::allocator<char> >, std::__ndk1::shared_ptr<geode::Hook> >, std::__ndk1::less<std::__ndk1::basic_string<char, std::__ndk1::char_traits<char>, std::__ndk1::allocator<char> > >, true>, std::__ndk1::allocator<std::__ndk1::__value_type<std::__ndk1::basic_string<char, std::__ndk1::char_traits<char>, std::__ndk1::allocator<char> >, std::__ndk1::shared_ptr<geode::Hook> > > >::destroy(std::__ndk1::__tree_node<std::__ndk1::__value_type<std::__ndk1::basic_string<char, std::__ndk1::char_traits<char>, std::__ndk1::allocator<char> >, std::__ndk1::shared_ptr<geode::Hook> >, void*>*)
PUBLIC 2fbc8 0 geode::Hook::create<void (*)(CommentCellIDs*, GJComment*)>(void*, void (*)(CommentCellIDs*, GJComment*), std::__ndk1::basic_string<char, std::__ndk1::char_traits<char>, std::__ndk1::allocator<char> > const&, tulip::hook::TulipConvention, tulip::hook::HookMetadata const&)
PUBLIC 2fd48 0 geode::modifier::AsStaticFunction_loadFromComment<CommentCellIDs, void (CommentCellIDs::*)(GJComment*)>::Impl<void (CommentCellIDs::*)(GJComment*)>::function(CommentCellIDs*, GJComment*)
PUBLIC 2fd4c 0 std::__ndk1::shared_ptr<tulip::hook::CallingConvention>::~shared_ptr[abi:v170000]()
PUBLIC 2fd9c 0 tulip::hook::HandlerMetadata::~HandlerMetadata()
PUBLIC 2fe00 0 CommentCellIDs::loadFromComment(GJComment*)
PUBLIC 2fea0 0 geode::NodeIDs::provide<CommentCellIDs>(CommentCellIDs*) const
PUBLIC 2ffdc 0 std::__ndk1::__hash_table<std::__ndk1::__hash_value_type<std::__ndk1::basic_string<char, std::__ndk1::char_traits<char>, std::__ndk1::allocator<char> >, void (*)(cocos2d::CCNode*)>, std::__ndk1::__unordered_map_hasher<std::__ndk1::basic_string<char, std::__ndk1::char_traits<char>, std::__ndk1::allocator<char> >, std::__ndk1::__hash_value_type<std::__ndk1::basic_string<char, std::__ndk1::char_traits<char>, std::__ndk1::allocator<char> >, void (*)(cocos2d::CCNode*)>, std::__ndk1::hash<std::__ndk1::basic_string<char, std::__ndk1::char_traits<char>, std::__ndk1::allocator<char> > >, std::__ndk1::equal_to<std::__ndk1::basic_string<char, std::__ndk1::char_traits<char>, std::__ndk1::allocator<char> > >, true>, std::__ndk1::__unordered_map_equal<std::__ndk1::basic_string<char, std::__ndk1::char_traits<char>, std::__ndk1::allocator<char> >, std::__ndk1::__hash_value_type<std::__ndk1::basic_string<char, std::__ndk1::char_traits<char>, std::__ndk1::allocator<char> >, void (*)(cocos2d::CCNode*)>, std::__ndk1::equal_to<std::__ndk1::basic_string<char, std::__ndk1::char_traits<char>, std::__ndk1::allocator<char> > >, std::__ndk1::hash<std::__ndk1::basic_string<char, std::__ndk1::char_traits<char>, std::__ndk1::allocator<char> > >, true>, std::__ndk1::allocator<std::__ndk1::__hash_value_type<std::__ndk1::basic_string<char, std::__ndk1::char_traits<char>, std::__ndk1::allocator<char> >, void (*)(cocos2d::CCNode*)> > >::find<std::__ndk1::basic_string<char, std::__ndk1::char_traits<char>, std::__ndk1::allocator<char> > >(std::__ndk1::basic_string<char, std::__ndk1::char_traits<char>, std::__ndk1::allocator<char> > const&) const
PUBLIC 30224 0 std::__ndk1::__throw_out_of_range[abi:v170000](char const*)
PUBLIC 30274 0 std::out_of_range::out_of_range[abi:v170000](char const*)
PUBLIC 302a4 0 _GLOBAL__sub_I_CommentCell.cpp
PUBLIC 30364 0 ProvideIDsForCreatorLayer::provide()
PUBLIC 30c18 0 geode::node_ids::setIDSafe<cocos2d::CCSprite>(cocos2d::CCNode*, int, char const*)
PUBLIC 30e48 0 geode::node_ids::detachAndCreateMenu<cocos2d::CCNode*, >(cocos2d::CCNode*, char const*, cocos2d::Layout*, cocos2d::CCNode*, )
PUBLIC 31088 0 __cxx_global_var_init.26
PUBLIC 310f0 0 geode::modifier::ModifyBase<geode::modifier::ModifyDerive<CreatorLayerIDs, CreatorLayer> >::~ModifyBase()
PUBLIC 3110c 0 geode::geodeInternalProvideIDsFor<ProvideIDsForCreatorLayer>(ProvideIDsForCreatorLayer*)
PUBLIC 312e4 0 geode::EnterLayerEvent<ProvideIDsForCreatorLayer>::~EnterLayerEvent()
PUBLIC 31328 0 geode::modifier::ModifyBase<geode::modifier::ModifyDerive<CreatorLayerIDs, CreatorLayer> >::ModifyBase()
PUBLIC 317c0 0 geode::modifier::ModifyDerive<CreatorLayerIDs, CreatorLayer>::apply()
PUBLIC 31a78 0 CreatorLayerIDs::onModify<geode::modifier::ModifyBase<geode::modifier::ModifyDerive<CreatorLayerIDs, CreatorLayer> > >(geode::modifier::ModifyBase<geode::modifier::ModifyDerive<CreatorLayerIDs, CreatorLayer> >&)
PUBLIC 31b80 0 geode::modifier::ModifyBase<geode::modifier::ModifyDerive<CreatorLayerIDs, CreatorLayer> >::apply()
PUBLIC 31b84 0 geode::modifier::ModifyBase<geode::modifier::ModifyDerive<CreatorLayerIDs, CreatorLayer> >::setHookPriority(std::__ndk1::basic_string<char, std::__ndk1::char_traits<char>, std::__ndk1::allocator<char> > const&, int)
PUBLIC 31d40 0 geode::Hook::create<bool (*)(CreatorLayerIDs*)>(void*, bool (*)(CreatorLayerIDs*), std::__ndk1::basic_string<char, std::__ndk1::char_traits<char>, std::__ndk1::allocator<char> > const&, tulip::hook::TulipConvention, tulip::hook::HookMetadata const&)
PUBLIC 31e74 0 geode::modifier::AsStaticFunction_init<CreatorLayerIDs, bool (CreatorLayerIDs::*)()>::Impl<bool (CreatorLayerIDs::*)()>::function(CreatorLayerIDs*)
PUBLIC 31eac 0 geode::addresser::Addresser::addressOfVirtual<bool, CreatorLayer, >(bool (CreatorLayer::*)())
PUBLIC 32008 0 geode::NodeIDs::provide<CreatorLayerIDs>(CreatorLayerIDs*) const
PUBLIC 32144 0 _GLOBAL__sub_I_CreatorLayer.cpp
PUBLIC 32204 0 ProvideIDsForDailyLevelNode::provide()
PUBLIC 32b10 0 __cxx_global_var_init.11
PUBLIC 32b78 0 geode::modifier::ModifyBase<geode::modifier::ModifyDerive<DailyLevelNodeIDs, DailyLevelNode> >::~ModifyBase()
PUBLIC 32b94 0 geode::modifier::ModifyBase<geode::modifier::ModifyDerive<DailyLevelNodeIDs, DailyLevelNode> >::ModifyBase()
PUBLIC 3302c 0 geode::modifier::ModifyDerive<DailyLevelNodeIDs, DailyLevelNode>::apply()
PUBLIC 332ec 0 DailyLevelNodeIDs::onModify<geode::modifier::ModifyBase<geode::modifier::ModifyDerive<DailyLevelNodeIDs, DailyLevelNode> > >(geode::modifier::ModifyBase<geode::modifier::ModifyDerive<DailyLevelNodeIDs, DailyLevelNode> >&)
PUBLIC 333f8 0 geode::modifier::ModifyBase<geode::modifier::ModifyDerive<DailyLevelNodeIDs, DailyLevelNode> >::apply()
PUBLIC 333fc 0 geode::modifier::ModifyBase<geode::modifier::ModifyDerive<DailyLevelNodeIDs, DailyLevelNode> >::setHookPriority(std::__ndk1::basic_string<char, std::__ndk1::char_traits<char>, std::__ndk1::allocator<char> > const&, int)
PUBLIC 335b8 0 geode::Hook::create<bool (*)(DailyLevelNodeIDs*, GJGameLevel*, DailyLevelPage*, bool)>(void*, bool (*)(DailyLevelNodeIDs*, GJGameLevel*, DailyLevelPage*, bool), std::__ndk1::basic_string<char, std::__ndk1::char_traits<char>, std::__ndk1::allocator<char> > const&, tulip::hook::TulipConvention, tulip::hook::HookMetadata const&)
PUBLIC 336d0 0 geode::modifier::AsStaticFunction_init<DailyLevelNodeIDs, bool (DailyLevelNodeIDs::*)(GJGameLevel*, DailyLevelPage*, bool)>::Impl<bool (DailyLevelNodeIDs::*)(GJGameLevel*, DailyLevelPage*, bool)>::function(DailyLevelNodeIDs*, GJGameLevel*, DailyLevelPage*, bool)
PUBLIC 33724 0 tulip::hook::AbstractFunction::from<bool, DailyLevelNodeIDs*, GJGameLevel*, DailyLevelPage*, bool>(bool (*)(DailyLevelNodeIDs*, GJGameLevel*, DailyLevelPage*, bool))
PUBLIC 339c4 0 std::__ndk1::vector<tulip::hook::AbstractType, std::__ndk1::allocator<tulip::hook::AbstractType> >::__throw_length_error[abi:v170000]() const
PUBLIC 339d8 0 geode::NodeIDs::provide<DailyLevelNodeIDs>(DailyLevelNodeIDs*) const
PUBLIC 33b08 0 geode::modifier::FieldIntermediate<DailyLevelNodeIDs, DailyLevelNode>::operator DailyLevelNodeIDs*()
PUBLIC 33cec 0 geode::modifier::FieldContainer::getField(unsigned long)
PUBLIC 33f50 0 geode::modifier::FieldContainer::setField(unsigned long, unsigned long, geode::utils::MiniFunction<void (void*)>)
PUBLIC 33ffc 0 geode::modifier::FieldIntermediate<DailyLevelNodeIDs, DailyLevelNode>::fieldDestructor(void*)
PUBLIC 340c0 0 std::__ndk1::vector<void*, std::__ndk1::allocator<void*> >::__throw_length_error[abi:v170000]() const
PUBLIC 340d4 0 std::__ndk1::vector<geode::utils::MiniFunction<void (void*)>, std::__ndk1::allocator<geode::utils::MiniFunction<void (void*)> > >::__push_back_slow_path<geode::utils::MiniFunction<void (void*)> >(geode::utils::MiniFunction<void (void*)>&&)
PUBLIC 34304 0 std::__ndk1::__split_buffer<geode::utils::MiniFunction<void (void*)>, std::__ndk1::allocator<geode::utils::MiniFunction<void (void*)> >&>::~__split_buffer()
PUBLIC 34360 0 std::__ndk1::vector<geode::utils::MiniFunction<void (void*)>, std::__ndk1::allocator<geode::utils::MiniFunction<void (void*)> > >::__throw_length_error[abi:v170000]() const
PUBLIC 34374 0 std::__ndk1::vector<void*, std::__ndk1::allocator<void*> >::__throw_out_of_range[abi:v170000]() const
PUBLIC 34388 0 std::__ndk1::vector<geode::utils::MiniFunction<void (void*)>, std::__ndk1::allocator<geode::utils::MiniFunction<void (void*)> > >::__throw_out_of_range[abi:v170000]() const
PUBLIC 3439c 0 geode::Modify<DailyLevelNodeIDs, DailyLevelNode>::~Modify()
PUBLIC 343e4 0 cocos2d::CCCopying::copyWithZone(cocos2d::CCZone*)
PUBLIC 343ec 0 geode::Modify<DailyLevelNodeIDs, DailyLevelNode>::~Modify()
PUBLIC 34438 0 geode::utils::MiniFunctionStateBase<void, void*>::~MiniFunctionStateBase()
PUBLIC 3443c 0 geode::utils::MiniFunctionState<void (*)(void*), void, void*>::~MiniFunctionState()
PUBLIC 34440 0 geode::utils::MiniFunctionState<void (*)(void*), void, void*>::call(void*) const
PUBLIC 3444c 0 geode::utils::MiniFunctionState<void (*)(void*), void, void*>::clone() const
PUBLIC 34480 0 geode::geodeInternalProvideIDsFor<ProvideIDsForDailyLevelNode>(ProvideIDsForDailyLevelNode*)
PUBLIC 34654 0 geode::EnterLayerEvent<ProvideIDsForDailyLevelNode>::~EnterLayerEvent()
PUBLIC 34698 0 _GLOBAL__sub_I_DailyLevelNode.cpp
PUBLIC 34754 0 ProvideIDsForDailyLevelPage::provide()
PUBLIC 350cc 0 __cxx_global_var_init.12
PUBLIC 35134 0 geode::modifier::ModifyBase<geode::modifier::ModifyDerive<DailyLevelPageIDs, DailyLevelPage> >::~ModifyBase()
PUBLIC 35150 0 geode::geodeInternalProvideIDsFor<ProvideIDsForDailyLevelPage>(ProvideIDsForDailyLevelPage*)
PUBLIC 35324 0 geode::EnterLayerEvent<ProvideIDsForDailyLevelPage>::~EnterLayerEvent()
PUBLIC 35368 0 geode::modifier::ModifyBase<geode::modifier::ModifyDerive<DailyLevelPageIDs, DailyLevelPage> >::ModifyBase()
PUBLIC 35800 0 geode::modifier::ModifyDerive<DailyLevelPageIDs, DailyLevelPage>::apply()
PUBLIC 35ac0 0 DailyLevelPageIDs::onModify<geode::modifier::ModifyBase<geode::modifier::ModifyDerive<DailyLevelPageIDs, DailyLevelPage> > >(geode::modifier::ModifyBase<geode::modifier::ModifyDerive<DailyLevelPageIDs, DailyLevelPage> >&)
PUBLIC 35bcc 0 geode::modifier::ModifyBase<geode::modifier::ModifyDerive<DailyLevelPageIDs, DailyLevelPage> >::apply()
PUBLIC 35bd0 0 geode::modifier::ModifyBase<geode::modifier::ModifyDerive<DailyLevelPageIDs, DailyLevelPage> >::setHookPriority(std::__ndk1::basic_string<char, std::__ndk1::char_traits<char>, std::__ndk1::allocator<char> > const&, int)
PUBLIC 35d8c 0 geode::Hook::create<bool (*)(DailyLevelPageIDs*, GJTimedLevelType)>(void*, bool (*)(DailyLevelPageIDs*, GJTimedLevelType), std::__ndk1::basic_string<char, std::__ndk1::char_traits<char>, std::__ndk1::allocator<char> > const&, tulip::hook::TulipConvention, tulip::hook::HookMetadata const&)
PUBLIC 35f0c 0 geode::modifier::AsStaticFunction_init<DailyLevelPageIDs, bool (DailyLevelPageIDs::*)(GJTimedLevelType)>::Impl<bool (DailyLevelPageIDs::*)(GJTimedLevelType)>::function(DailyLevelPageIDs*, GJTimedLevelType)
PUBLIC 35f44 0 geode::NodeIDs::provide<DailyLevelPageIDs>(DailyLevelPageIDs*) const
PUBLIC 36074 0 _GLOBAL__sub_I_DailyLevelPage.cpp
PUBLIC 36130 0 ProvideIDsForEditLevelLayer::provide()
PUBLIC 36aa4 0 geode::node_ids::setIDs<char const*, char const*, char const*, char const*, char const*, char const*, char const*, char const*, char const*, char const*, char const*, char const*, char const*, char const*, char const*, char const*>(cocos2d::CCNode*, int, char const*, char const*, char const*, char const*, char const*, char const*, char const*, char const*, char const*, char const*, char const*, char const*, char const*, char const*, char const*, char const*)
PUBLIC 36c28 0 __cxx_global_var_init.32
PUBLIC 36c90 0 geode::modifier::ModifyBase<geode::modifier::ModifyDerive<EditLevelLayerIDs, EditLevelLayer> >::~ModifyBase()
PUBLIC 36cac 0 geode::geodeInternalProvideIDsFor<ProvideIDsForEditLevelLayer>(ProvideIDsForEditLevelLayer*)
PUBLIC 36e80 0 geode::EnterLayerEvent<ProvideIDsForEditLevelLayer>::~EnterLayerEvent()
PUBLIC 36ec4 0 geode::modifier::ModifyBase<geode::modifier::ModifyDerive<EditLevelLayerIDs, EditLevelLayer> >::ModifyBase()
PUBLIC 3735c 0 geode::modifier::ModifyDerive<EditLevelLayerIDs, EditLevelLayer>::apply()
PUBLIC 3761c 0 EditLevelLayerIDs::onModify<geode::modifier::ModifyBase<geode::modifier::ModifyDerive<EditLevelLayerIDs, EditLevelLayer> > >(geode::modifier::ModifyBase<geode::modifier::ModifyDerive<EditLevelLayerIDs, EditLevelLayer> >&)
PUBLIC 37728 0 geode::modifier::ModifyBase<geode::modifier::ModifyDerive<EditLevelLayerIDs, EditLevelLayer> >::apply()
PUBLIC 3772c 0 geode::modifier::ModifyBase<geode::modifier::ModifyDerive<EditLevelLayerIDs, EditLevelLayer> >::setHookPriority(std::__ndk1::basic_string<char, std::__ndk1::char_traits<char>, std::__ndk1::allocator<char> > const&, int)
PUBLIC 378e8 0 geode::Hook::create<bool (*)(EditLevelLayerIDs*, GJGameLevel*)>(void*, bool (*)(EditLevelLayerIDs*, GJGameLevel*), std::__ndk1::basic_string<char, std::__ndk1::char_traits<char>, std::__ndk1::allocator<char> > const&, tulip::hook::TulipConvention, tulip::hook::HookMetadata const&)
PUBLIC 37a68 0 geode::modifier::AsStaticFunction_init<EditLevelLayerIDs, bool (EditLevelLayerIDs::*)(GJGameLevel*)>::Impl<bool (EditLevelLayerIDs::*)(GJGameLevel*)>::function(EditLevelLayerIDs*, GJGameLevel*)
PUBLIC 37aa0 0 geode::NodeIDs::provide<EditLevelLayerIDs>(EditLevelLayerIDs*) const
PUBLIC 37bd0 0 _GLOBAL__sub_I_EditLevelLayer.cpp
PUBLIC 37c8c 0 ProvideIDsForEditorPauseLayer::provide()
PUBLIC 3a46c 0 geode::node_ids::setIDs<char const*, char const*, char const*, char const*, char const*, char const*, char const*, char const*, char const*, char const*, char const*, char const*, char const*, char const*>(cocos2d::CCNode*, int, char const*, char const*, char const*, char const*, char const*, char const*, char const*, char const*, char const*, char const*, char const*, char const*, char const*, char const*)
PUBLIC 3a5c0 0 geode::node_ids::setIDs<char const*, char const*, char const*, char const*, char const*, char const*, char const*, char const*, char const*, char const*, char const*, char const*, char const*, char const*, char const*, char const*, char const*, char const*, char const*, char const*, char const*, char const*, char const*, char const*, char const*, char const*, char const*, char const*, char const*, char const*, char const*, char const*>(cocos2d::CCNode*, int, char const*, char const*, char const*, char const*, char const*, char const*, char const*, char const*, char const*, char const*, char const*, char const*, char const*, char const*, char const*, char const*, char const*, char const*, char const*, char const*, char const*, char const*, char const*, char const*, char const*, char const*, char const*, char const*, char const*, char const*, char const*, char const*)
PUBLIC 3a89c 0 geode::cocos::CCArrayExt<cocos2d::CCNode*>::~CCArrayExt()
PUBLIC 3a8bc 0 GuidelinesButton::create()
PUBLIC 3a9e0 0 __cxx_global_var_init.61
PUBLIC 3aa48 0 geode::modifier::ModifyBase<geode::modifier::ModifyDerive<EditorPauseLayerIDs, EditorPauseLayer> >::~ModifyBase()
PUBLIC 3aa64 0 GuidelinesButton::~GuidelinesButton()
PUBLIC 3aa88 0 GuidelinesButton::init()
PUBLIC 3ab14 0 cocos2d::CCNodeRGBA::setOpacityModifyRGB(bool)
PUBLIC 3ab18 0 cocos2d::CCNodeRGBA::isOpacityModifyRGB()
PUBLIC 3ab20 0 GuidelinesButton::activate()
PUBLIC 3ab88 0 {virtual override thunk({offset(-320)}, cocos2d::CCNodeRGBA::setOpacityModifyRGB(bool))}
PUBLIC 3ab8c 0 {virtual override thunk({offset(-320)}, cocos2d::CCNodeRGBA::isOpacityModifyRGB())}
PUBLIC 3ab94 0 geode::geodeInternalProvideIDsFor<ProvideIDsForEditorPauseLayer>(ProvideIDsForEditorPauseLayer*)
PUBLIC 3ad60 0 geode::EnterLayerEvent<ProvideIDsForEditorPauseLayer>::~EnterLayerEvent()
PUBLIC 3ada4 0 geode::node_ids::switchToMenu(cocos2d::CCNode*, cocos2d::CCNode*)
PUBLIC 3aebc 0 geode::modifier::ModifyBase<geode::modifier::ModifyDerive<EditorPauseLayerIDs, EditorPauseLayer> >::ModifyBase()
PUBLIC 3b354 0 geode::modifier::ModifyDerive<EditorPauseLayerIDs, EditorPauseLayer>::apply()
PUBLIC 3b608 0 EditorPauseLayerIDs::onModify<geode::modifier::ModifyBase<geode::modifier::ModifyDerive<EditorPauseLayerIDs, EditorPauseLayer> > >(geode::modifier::ModifyBase<geode::modifier::ModifyDerive<EditorPauseLayerIDs, EditorPauseLayer> >&)
PUBLIC 3b710 0 geode::modifier::ModifyBase<geode::modifier::ModifyDerive<EditorPauseLayerIDs, EditorPauseLayer> >::apply()
PUBLIC 3b714 0 geode::modifier::ModifyBase<geode::modifier::ModifyDerive<EditorPauseLayerIDs, EditorPauseLayer> >::setHookPriority(std::__ndk1::basic_string<char, std::__ndk1::char_traits<char>, std::__ndk1::allocator<char> > const&, int)
PUBLIC 3b8d0 0 geode::Hook::create<bool (*)(EditorPauseLayerIDs*, LevelEditorLayer*)>(void*, bool (*)(EditorPauseLayerIDs*, LevelEditorLayer*), std::__ndk1::basic_string<char, std::__ndk1::char_traits<char>, std::__ndk1::allocator<char> > const&, tulip::hook::TulipConvention, tulip::hook::HookMetadata const&)
PUBLIC 3ba50 0 geode::modifier::AsStaticFunction_init<EditorPauseLayerIDs, bool (EditorPauseLayerIDs::*)(LevelEditorLayer*)>::Impl<bool (EditorPauseLayerIDs::*)(LevelEditorLayer*)>::function(EditorPauseLayerIDs*, LevelEditorLayer*)
PUBLIC 3ba88 0 geode::NodeIDs::provide<EditorPauseLayerIDs>(EditorPauseLayerIDs*) const
PUBLIC 3bbac 0 _GLOBAL__sub_I_EditorPauseLayer.cpp
PUBLIC 3bc60 0 ProvideIDsForEditorUI::provide()
PUBLIC 3e290 0 geode::node_ids::setIDs<char const*, char const*, char const*, char const*, char const*, char const*, char const*, char const*, char const*, char const*, char const*, char const*, char const*, char const*, char const*, char const*, char const*>(cocos2d::CCNode*, int, char const*, char const*, char const*, char const*, char const*, char const*, char const*, char const*, char const*, char const*, char const*, char const*, char const*, char const*, char const*, char const*, char const*)
PUBLIC 3e42c 0 geode::node_ids::detachAndCreateMenu<cocos2d::CCNode*, cocos2d::CCNode*, cocos2d::CCNode*, cocos2d::CCNode*>(cocos2d::CCNode*, char const*, cocos2d::Layout*, cocos2d::CCNode*, cocos2d::CCNode*, cocos2d::CCNode*, cocos2d::CCNode*)
PUBLIC 3e79c 0 geode::node_ids::detachAndCreateMenu<cocos2d::CCNode*, cocos2d::CCNode*, cocos2d::CCNode*>(cocos2d::CCNode*, char const*, cocos2d::Layout*, cocos2d::CCNode*, cocos2d::CCNode*, cocos2d::CCNode*)
PUBLIC 3eae8 0 geode::node_ids::detachAndCreateMenu<cocos2d::CCNode*, cocos2d::CCNode*>(cocos2d::CCNode*, char const*, cocos2d::Layout*, cocos2d::CCNode*, cocos2d::CCNode*)
PUBLIC 3ee30 0 geode::node_ids::setIDs<char const*, char const*, char const*, char const*, char const*, char const*, char const*, char const*, char const*, char const*, char const*, char const*>(cocos2d::CCNode*, int, char const*, char const*, char const*, char const*, char const*, char const*, char const*, char const*, char const*, char const*, char const*, char const*)
PUBLIC 3ef5c 0 geode::node_ids::setIDs<char const*, char const*, char const*, char const*, char const*, char const*, char const*, char const*, char const*, char const*, char const*, char const*, char const*, char const*, char const*, char const*, char const*, char const*>(cocos2d::CCNode*, int, char const*, char const*, char const*, char const*, char const*, char const*, char const*, char const*, char const*, char const*, char const*, char const*, char const*, char const*, char const*, char const*, char const*, char const*)
PUBLIC 3f108 0 __cxx_global_var_init.78
PUBLIC 3f170 0 geode::modifier::ModifyBase<geode::modifier::ModifyDerive<EditorUIIDs, EditorUI> >::~ModifyBase()
PUBLIC 3f18c 0 geode::geodeInternalProvideIDsFor<ProvideIDsForEditorUI>(ProvideIDsForEditorUI*)
PUBLIC 3f330 0 geode::EnterLayerEvent<ProvideIDsForEditorUI>::~EnterLayerEvent()
PUBLIC 3f374 0 geode::node_ids::switchToMenu(cocos2d::CCNode*, cocos2d::CCNode*)
PUBLIC 3f48c 0 geode::modifier::ModifyBase<geode::modifier::ModifyDerive<EditorUIIDs, EditorUI> >::ModifyBase()
PUBLIC 3f924 0 geode::modifier::ModifyDerive<EditorUIIDs, EditorUI>::apply()
PUBLIC 3fbd0 0 EditorUIIDs::onModify<geode::modifier::ModifyBase<geode::modifier::ModifyDerive<EditorUIIDs, EditorUI> > >(geode::modifier::ModifyBase<geode::modifier::ModifyDerive<EditorUIIDs, EditorUI> >&)
PUBLIC 3fcd8 0 geode::modifier::ModifyBase<geode::modifier::ModifyDerive<EditorUIIDs, EditorUI> >::apply()
PUBLIC 3fcdc 0 geode::modifier::ModifyBase<geode::modifier::ModifyDerive<EditorUIIDs, EditorUI> >::setHookPriority(std::__ndk1::basic_string<char, std::__ndk1::char_traits<char>, std::__ndk1::allocator<char> > const&, int)
PUBLIC 3fe98 0 geode::Hook::create<bool (*)(EditorUIIDs*, LevelEditorLayer*)>(void*, bool (*)(EditorUIIDs*, LevelEditorLayer*), std::__ndk1::basic_string<char, std::__ndk1::char_traits<char>, std::__ndk1::allocator<char> > const&, tulip::hook::TulipConvention, tulip::hook::HookMetadata const&)
PUBLIC 40018 0 geode::modifier::AsStaticFunction_init<EditorUIIDs, bool (EditorUIIDs::*)(LevelEditorLayer*)>::Impl<bool (EditorUIIDs::*)(LevelEditorLayer*)>::function(EditorUIIDs*, LevelEditorLayer*)
PUBLIC 40050 0 geode::NodeIDs::provide<EditorUIIDs>(EditorUIIDs*) const
PUBLIC 40178 0 _GLOBAL__sub_I_EditorUI.cpp
PUBLIC 40230 0 ProvideIDsForGJGarageLayer::provide()
PUBLIC 40c9c 0 geode::node_ids::setIDs<char const*, char const*, char const*, char const*, char const*, char const*, char const*, char const*, char const*, char const*, char const*, char const*, char const*>(cocos2d::CCNode*, int, char const*, char const*, char const*, char const*, char const*, char const*, char const*, char const*, char const*, char const*, char const*, char const*, char const*)
PUBLIC 40de0 0 geode::node_ids::detachAndCreateMenu<cocos2d::CCNode*, >(cocos2d::CCNode*, char const*, cocos2d::Layout*, cocos2d::CCNode*, )
PUBLIC 41020 0 __cxx_global_var_init.52
PUBLIC 41088 0 geode::modifier::ModifyBase<geode::modifier::ModifyDerive<GJGarageLayerIDs, GJGarageLayer> >::~ModifyBase()
PUBLIC 410a4 0 geode::geodeInternalProvideIDsFor<ProvideIDsForGJGarageLayer>(ProvideIDsForGJGarageLayer*)
PUBLIC 41278 0 geode::EnterLayerEvent<ProvideIDsForGJGarageLayer>::~EnterLayerEvent()
PUBLIC 412bc 0 geode::modifier::ModifyBase<geode::modifier::ModifyDerive<GJGarageLayerIDs, GJGarageLayer> >::ModifyBase()
PUBLIC 41754 0 geode::modifier::ModifyDerive<GJGarageLayerIDs, GJGarageLayer>::apply()
PUBLIC 41c58 0 GJGarageLayerIDs::onModify<geode::modifier::ModifyBase<geode::modifier::ModifyDerive<GJGarageLayerIDs, GJGarageLayer> > >(geode::modifier::ModifyBase<geode::modifier::ModifyDerive<GJGarageLayerIDs, GJGarageLayer> >&)
PUBLIC 41d64 0 geode::modifier::ModifyBase<geode::modifier::ModifyDerive<GJGarageLayerIDs, GJGarageLayer> >::apply()
PUBLIC 41d68 0 geode::modifier::ModifyBase<geode::modifier::ModifyDerive<GJGarageLayerIDs, GJGarageLayer> >::setHookPriority(std::__ndk1::basic_string<char, std::__ndk1::char_traits<char>, std::__ndk1::allocator<char> > const&, int)
PUBLIC 41f24 0 geode::Hook::create<void (*)(GJGarageLayerIDs*, int, IconType)>(void*, void (*)(GJGarageLayerIDs*, int, IconType), std::__ndk1::basic_string<char, std::__ndk1::char_traits<char>, std::__ndk1::allocator<char> > const&, tulip::hook::TulipConvention, tulip::hook::HookMetadata const&)
PUBLIC 4203c 0 geode::modifier::AsStaticFunction_setupPage<GJGarageLayerIDs, void (GJGarageLayerIDs::*)(int, IconType)>::Impl<void (GJGarageLayerIDs::*)(int, IconType)>::function(GJGarageLayerIDs*, int, IconType)
PUBLIC 42108 0 geode::Hook::create<bool (*)(GJGarageLayerIDs*)>(void*, bool (*)(GJGarageLayerIDs*), std::__ndk1::basic_string<char, std::__ndk1::char_traits<char>, std::__ndk1::allocator<char> > const&, tulip::hook::TulipConvention, tulip::hook::HookMetadata const&)
PUBLIC 4223c 0 geode::modifier::AsStaticFunction_init<GJGarageLayerIDs, bool (GJGarageLayerIDs::*)()>::Impl<bool (GJGarageLayerIDs::*)()>::function(GJGarageLayerIDs*)
PUBLIC 42274 0 tulip::hook::AbstractFunction::from<void, GJGarageLayerIDs*, int, IconType>(void (*)(GJGarageLayerIDs*, int, IconType))
PUBLIC 42414 0 geode::addresser::Addresser::addressOfVirtual<bool, GJGarageLayer, >(bool (GJGarageLayer::*)())
PUBLIC 42588 0 geode::NodeIDs::provide<GJGarageLayerIDs>(GJGarageLayerIDs*) const
PUBLIC 426b8 0 _GLOBAL__sub_I_GJGarageLayer.cpp
PUBLIC 42774 0 ProvideIDsForGJScoreCell::provide()
PUBLIC 42c04 0 __cxx_global_var_init.19
PUBLIC 42c6c 0 geode::modifier::ModifyBase<geode::modifier::ModifyDerive<GJScoreCellIDs, GJScoreCell> >::~ModifyBase()
PUBLIC 42c88 0 geode::geodeInternalProvideIDsFor<ProvideIDsForGJScoreCell>(ProvideIDsForGJScoreCell*)
PUBLIC 42e68 0 geode::EnterLayerEvent<ProvideIDsForGJScoreCell>::~EnterLayerEvent()
PUBLIC 42eac 0 geode::modifier::ModifyBase<geode::modifier::ModifyDerive<GJScoreCellIDs, GJScoreCell> >::ModifyBase()
PUBLIC 43344 0 geode::modifier::ModifyDerive<GJScoreCellIDs, GJScoreCell>::apply()
PUBLIC 43628 0 GJScoreCellIDs::onModify<geode::modifier::ModifyBase<geode::modifier::ModifyDerive<GJScoreCellIDs, GJScoreCell> > >(geode::modifier::ModifyBase<geode::modifier::ModifyDerive<GJScoreCellIDs, GJScoreCell> >&)
PUBLIC 43748 0 geode::modifier::ModifyBase<geode::modifier::ModifyDerive<GJScoreCellIDs, GJScoreCell> >::apply()
PUBLIC 4374c 0 geode::modifier::ModifyBase<geode::modifier::ModifyDerive<GJScoreCellIDs, GJScoreCell> >::setHookPriority(std::__ndk1::basic_string<char, std::__ndk1::char_traits<char>, std::__ndk1::allocator<char> > const&, int)
PUBLIC 43908 0 geode::Hook::create<void (*)(GJScoreCellIDs*, GJUserScore*)>(void*, void (*)(GJScoreCellIDs*, GJUserScore*), std::__ndk1::basic_string<char, std::__ndk1::char_traits<char>, std::__ndk1::allocator<char> > const&, tulip::hook::TulipConvention, tulip::hook::HookMetadata const&)
PUBLIC 43a88 0 geode::modifier::AsStaticFunction_loadFromScore<GJScoreCellIDs, void (GJScoreCellIDs::*)(GJUserScore*)>::Impl<void (GJScoreCellIDs::*)(GJUserScore*)>::function(GJScoreCellIDs*, GJUserScore*)
PUBLIC 43ab0 0 geode::NodeIDs::provide<GJScoreCellIDs>(GJScoreCellIDs*) const
PUBLIC 43bec 0 _GLOBAL__sub_I_GJScoreCell.cpp
PUBLIC 43cac 0 __cxx_global_var_init
PUBLIC 43d14 0 geode::modifier::ModifyBase<geode::modifier::ModifyDerive<GameToolboxIDs, GameToolbox> >::~ModifyBase()
PUBLIC 43d30 0 geode::modifier::ModifyBase<geode::modifier::ModifyDerive<GameToolboxIDs, GameToolbox> >::ModifyBase()
PUBLIC 441c8 0 geode::modifier::ModifyDerive<GameToolboxIDs, GameToolbox>::apply()
PUBLIC 446f8 0 GameToolboxIDs::onModify<geode::modifier::ModifyBase<geode::modifier::ModifyDerive<GameToolboxIDs, GameToolbox> > >(geode::modifier::ModifyBase<geode::modifier::ModifyDerive<GameToolboxIDs, GameToolbox> >&)
PUBLIC 448bc 0 geode::modifier::ModifyBase<geode::modifier::ModifyDerive<GameToolboxIDs, GameToolbox> >::apply()
PUBLIC 448c0 0 geode::modifier::ModifyBase<geode::modifier::ModifyDerive<GameToolboxIDs, GameToolbox> >::setHookPriority(std::__ndk1::basic_string<char, std::__ndk1::char_traits<char>, std::__ndk1::allocator<char> > const&, int)
PUBLIC 44a7c 0 geode::Hook::create<void (*)(cocos2d::CCLayer*, cocos2d::CCMenuItem*)>(void*, void (*)(cocos2d::CCLayer*, cocos2d::CCMenuItem*), std::__ndk1::basic_string<char, std::__ndk1::char_traits<char>, std::__ndk1::allocator<char> > const&, tulip::hook::TulipConvention, tulip::hook::HookMetadata const&)
PUBLIC 44bfc 0 geode::modifier::AsStaticFunction_addBackButton<GameToolboxIDs, void (*)(cocos2d::CCLayer*, cocos2d::CCMenuItem*)>::Impl<void (*)(cocos2d::CCLayer*, cocos2d::CCMenuItem*)>::function(cocos2d::CCLayer*, cocos2d::CCMenuItem*)
PUBLIC 44c00 0 geode::Hook::create<void (*)(cocos2d::CCLayer*)>(void*, void (*)(cocos2d::CCLayer*), std::__ndk1::basic_string<char, std::__ndk1::char_traits<char>, std::__ndk1::allocator<char> > const&, tulip::hook::TulipConvention, tulip::hook::HookMetadata const&)
PUBLIC 44d34 0 geode::modifier::AsStaticFunction_addRThumbScrollButton<GameToolboxIDs, void (*)(cocos2d::CCLayer*)>::Impl<void (*)(cocos2d::CCLayer*)>::function(cocos2d::CCLayer*)
PUBLIC 44d38 0 GameToolboxIDs::addBackButton(cocos2d::CCLayer*, cocos2d::CCMenuItem*)
PUBLIC 44e24 0 GameToolboxIDs::addRThumbScrollButton(cocos2d::CCLayer*)
PUBLIC 45008 0 ProvideIDsForInfoLayer::provide()
PUBLIC 47788 0 std::__ndk1::basic_string<char, std::__ndk1::char_traits<char>, std::__ndk1::allocator<char> >::basic_string[abi:v170000]<std::nullptr_t>()
PUBLIC 47810 0 geode::cocos::getChildOfType<cocos2d::CCMenu>(cocos2d::CCNode*, int)
PUBLIC 47954 0 geode::cocos::getChildOfType<CCMenuItemSpriteExtra>(cocos2d::CCNode*, int)
PUBLIC 47a2c 0 __cxx_global_var_init.40
PUBLIC 47a94 0 geode::modifier::ModifyBase<geode::modifier::ModifyDerive<InfoLayerIDs, InfoLayer> >::~ModifyBase()
PUBLIC 47ab0 0 geode::geodeInternalProvideIDsFor<ProvideIDsForInfoLayer>(ProvideIDsForInfoLayer*)
PUBLIC 47c74 0 geode::EnterLayerEvent<ProvideIDsForInfoLayer>::~EnterLayerEvent()
PUBLIC 47cb8 0 geode::modifier::ModifyBase<geode::modifier::ModifyDerive<InfoLayerIDs, InfoLayer> >::ModifyBase()
PUBLIC 48150 0 geode::modifier::ModifyDerive<InfoLayerIDs, InfoLayer>::apply()
PUBLIC 483fc 0 InfoLayerIDs::onModify<geode::modifier::ModifyBase<geode::modifier::ModifyDerive<InfoLayerIDs, InfoLayer> > >(geode::modifier::ModifyBase<geode::modifier::ModifyDerive<InfoLayerIDs, InfoLayer> >&)
PUBLIC 48504 0 geode::modifier::ModifyBase<geode::modifier::ModifyDerive<InfoLayerIDs, InfoLayer> >::apply()
PUBLIC 48508 0 geode::modifier::ModifyBase<geode::modifier::ModifyDerive<InfoLayerIDs, InfoLayer> >::setHookPriority(std::__ndk1::basic_string<char, std::__ndk1::char_traits<char>, std::__ndk1::allocator<char> > const&, int)
PUBLIC 486c4 0 geode::Hook::create<bool (*)(InfoLayerIDs*, GJGameLevel*, GJUserScore*, GJLevelList*)>(void*, bool (*)(InfoLayerIDs*, GJGameLevel*, GJUserScore*, GJLevelList*), std::__ndk1::basic_string<char, std::__ndk1::char_traits<char>, std::__ndk1::allocator<char> > const&, tulip::hook::TulipConvention, tulip::hook::HookMetadata const&)
PUBLIC 487dc 0 geode::modifier::AsStaticFunction_init<InfoLayerIDs, bool (InfoLayerIDs::*)(GJGameLevel*, GJUserScore*, GJLevelList*)>::Impl<bool (InfoLayerIDs::*)(GJGameLevel*, GJUserScore*, GJLevelList*)>::function(InfoLayerIDs*, GJGameLevel*, GJUserScore*, GJLevelList*)
PUBLIC 48814 0 tulip::hook::AbstractFunction::from<bool, InfoLayerIDs*, GJGameLevel*, GJUserScore*, GJLevelList*>(bool (*)(InfoLayerIDs*, GJGameLevel*, GJUserScore*, GJLevelList*))
PUBLIC 48ac4 0 geode::NodeIDs::provide<InfoLayerIDs>(InfoLayerIDs*) const
PUBLIC 48bf0 0 _GLOBAL__sub_I_InfoLayer.cpp
PUBLIC 48ca8 0 ProvideIDsForLeaderboardsLayer::provide()
PUBLIC 48f60 0 __cxx_global_var_init.14
PUBLIC 48fc8 0 geode::modifier::ModifyBase<geode::modifier::ModifyDerive<LeaderboardsLayerIDs, LeaderboardsLayer> >::~ModifyBase()
PUBLIC 48fe4 0 geode::geodeInternalProvideIDsFor<ProvideIDsForLeaderboardsLayer>(ProvideIDsForLeaderboardsLayer*)
PUBLIC 491c4 0 geode::EnterLayerEvent<ProvideIDsForLeaderboardsLayer>::~EnterLayerEvent()
PUBLIC 49208 0 geode::modifier::ModifyBase<geode::modifier::ModifyDerive<LeaderboardsLayerIDs, LeaderboardsLayer> >::ModifyBase()
PUBLIC 496a0 0 geode::modifier::ModifyDerive<LeaderboardsLayerIDs, LeaderboardsLayer>::apply()
PUBLIC 4997c 0 LeaderboardsLayerIDs::onModify<geode::modifier::ModifyBase<geode::modifier::ModifyDerive<LeaderboardsLayerIDs, LeaderboardsLayer> > >(geode::modifier::ModifyBase<geode::modifier::ModifyDerive<LeaderboardsLayerIDs, LeaderboardsLayer> >&)
PUBLIC 49a9c 0 geode::modifier::ModifyBase<geode::modifier::ModifyDerive<LeaderboardsLayerIDs, LeaderboardsLayer> >::apply()
PUBLIC 49aa0 0 geode::modifier::ModifyBase<geode::modifier::ModifyDerive<LeaderboardsLayerIDs, LeaderboardsLayer> >::setHookPriority(std::__ndk1::basic_string<char, std::__ndk1::char_traits<char>, std::__ndk1::allocator<char> > const&, int)
PUBLIC 49c5c 0 geode::Hook::create<bool (*)(LeaderboardsLayerIDs*, LeaderboardState)>(void*, bool (*)(LeaderboardsLayerIDs*, LeaderboardState), std::__ndk1::basic_string<char, std::__ndk1::char_traits<char>, std::__ndk1::allocator<char> > const&, tulip::hook::TulipConvention, tulip::hook::HookMetadata const&)
PUBLIC 49ddc 0 geode::modifier::AsStaticFunction_init<LeaderboardsLayerIDs, bool (LeaderboardsLayerIDs::*)(LeaderboardState)>::Impl<bool (LeaderboardsLayerIDs::*)(LeaderboardState)>::function(LeaderboardsLayerIDs*, LeaderboardState)
PUBLIC 49e14 0 geode::NodeIDs::provide<LeaderboardsLayerIDs>(LeaderboardsLayerIDs*) const
PUBLIC 49f40 0 _GLOBAL__sub_I_LeaderboardsLayer.cpp
PUBLIC 49ff8 0 ProvideIDsForLevelBrowserLayer::provide()
PUBLIC 4d0d8 0 geode::node_ids::detachAndCreateMenu<cocos2d::CCNode*, >(cocos2d::CCNode*, char const*, cocos2d::Layout*, cocos2d::CCNode*, )
PUBLIC 4d318 0 __cxx_global_var_init.46
PUBLIC 4d380 0 geode::modifier::ModifyBase<geode::modifier::ModifyDerive<LevelBrowserLayerIDs, LevelBrowserLayer> >::~ModifyBase()
PUBLIC 4d39c 0 geode::geodeInternalProvideIDsFor<ProvideIDsForLevelBrowserLayer>(ProvideIDsForLevelBrowserLayer*)
PUBLIC 4d57c 0 geode::EnterLayerEvent<ProvideIDsForLevelBrowserLayer>::~EnterLayerEvent()
PUBLIC 4d5c0 0 geode::node_ids::switchToMenu(cocos2d::CCNode*, cocos2d::CCNode*)
PUBLIC 4d6d8 0 geode::modifier::ModifyBase<geode::modifier::ModifyDerive<LevelBrowserLayerIDs, LevelBrowserLayer> >::ModifyBase()
PUBLIC 4db70 0 geode::modifier::ModifyDerive<LevelBrowserLayerIDs, LevelBrowserLayer>::apply()
PUBLIC 4de4c 0 LevelBrowserLayerIDs::onModify<geode::modifier::ModifyBase<geode::modifier::ModifyDerive<LevelBrowserLayerIDs, LevelBrowserLayer> > >(geode::modifier::ModifyBase<geode::modifier::ModifyDerive<LevelBrowserLayerIDs, LevelBrowserLayer> >&)
PUBLIC 4df6c 0 geode::modifier::ModifyBase<geode::modifier::ModifyDerive<LevelBrowserLayerIDs, LevelBrowserLayer> >::apply()
PUBLIC 4df70 0 geode::modifier::ModifyBase<geode::modifier::ModifyDerive<LevelBrowserLayerIDs, LevelBrowserLayer> >::setHookPriority(std::__ndk1::basic_string<char, std::__ndk1::char_traits<char>, std::__ndk1::allocator<char> > const&, int)
PUBLIC 4e12c 0 geode::Hook::create<bool (*)(LevelBrowserLayerIDs*, GJSearchObject*)>(void*, bool (*)(LevelBrowserLayerIDs*, GJSearchObject*), std::__ndk1::basic_string<char, std::__ndk1::char_traits<char>, std::__ndk1::allocator<char> > const&, tulip::hook::TulipConvention, tulip::hook::HookMetadata const&)
PUBLIC 4e2ac 0 geode::modifier::AsStaticFunction_init<LevelBrowserLayerIDs, bool (LevelBrowserLayerIDs::*)(GJSearchObject*)>::Impl<bool (LevelBrowserLayerIDs::*)(GJSearchObject*)>::function(LevelBrowserLayerIDs*, GJSearchObject*)
PUBLIC 4e2e4 0 geode::NodeIDs::provide<LevelBrowserLayerIDs>(LevelBrowserLayerIDs*) const
PUBLIC 4e410 0 _GLOBAL__sub_I_LevelBrowserLayer.cpp
PUBLIC 4e4c8 0 ProvideIDsForLevelCell::provide()
PUBLIC 500c4 0 geode::cocos::getChildOfType<cocos2d::CCSprite>(cocos2d::CCNode*, int)
PUBLIC 50208 0 __cxx_global_var_init.35
PUBLIC 50270 0 geode::modifier::ModifyBase<geode::modifier::ModifyDerive<LevelCellIDs, LevelCell> >::~ModifyBase()
PUBLIC 5028c 0 geode::modifier::ModifyBase<geode::modifier::ModifyDerive<LevelCellIDs, LevelCell> >::ModifyBase()
PUBLIC 50724 0 geode::modifier::ModifyDerive<LevelCellIDs, LevelCell>::apply()
PUBLIC 50ea8 0 LevelCellIDs::onModify<geode::modifier::ModifyBase<geode::modifier::ModifyDerive<LevelCellIDs, LevelCell> > >(geode::modifier::ModifyBase<geode::modifier::ModifyDerive<LevelCellIDs, LevelCell> >&)
PUBLIC 51108 0 geode::modifier::ModifyBase<geode::modifier::ModifyDerive<LevelCellIDs, LevelCell> >::apply()
PUBLIC 5110c 0 geode::modifier::ModifyBase<geode::modifier::ModifyDerive<LevelCellIDs, LevelCell> >::setHookPriority(std::__ndk1::basic_string<char, std::__ndk1::char_traits<char>, std::__ndk1::allocator<char> > const&, int)
PUBLIC 512c8 0 geode::Hook::create<void (*)(LevelCellIDs*)>(void*, void (*)(LevelCellIDs*), std::__ndk1::basic_string<char, std::__ndk1::char_traits<char>, std::__ndk1::allocator<char> > const&, tulip::hook::TulipConvention, tulip::hook::HookMetadata const&)
PUBLIC 513fc 0 geode::modifier::AsStaticFunction_loadCustomLevelCell<LevelCellIDs, void (LevelCellIDs::*)()>::Impl<void (LevelCellIDs::*)()>::function(LevelCellIDs*)
PUBLIC 51430 0 geode::Hook::create<void (*)(LevelCellIDs*, GJGameLevel*)>(void*, void (*)(LevelCellIDs*, GJGameLevel*), std::__ndk1::basic_string<char, std::__ndk1::char_traits<char>, std::__ndk1::allocator<char> > const&, tulip::hook::TulipConvention, tulip::hook::HookMetadata const&)
PUBLIC 515b0 0 geode::modifier::AsStaticFunction_loadFromLevel<LevelCellIDs, void (LevelCellIDs::*)(GJGameLevel*)>::Impl<void (LevelCellIDs::*)(GJGameLevel*)>::function(LevelCellIDs*, GJGameLevel*)
PUBLIC 5167c 0 geode::modifier::AsStaticFunction_loadLocalLevelCell<LevelCellIDs, void (LevelCellIDs::*)()>::Impl<void (LevelCellIDs::*)()>::function(LevelCellIDs*)
PUBLIC 516b4 0 geode::NodeIDs::provide<LevelCellIDs>(LevelCellIDs*) const
PUBLIC 517e0 0 geode::modifier::FieldIntermediate<LevelCellIDs, LevelCell>::operator LevelCellIDs*()
PUBLIC 519a4 0 geode::modifier::FieldIntermediate<LevelCellIDs, LevelCell>::fieldDestructor(void*)
PUBLIC 51a4c 0 geode::Modify<LevelCellIDs, LevelCell>::~Modify()
PUBLIC 51aac 0 LevelCell::LevelCell(geode::CutoffConstructorType, unsigned long)
PUBLIC 51b94 0 geode::Modify<LevelCellIDs, LevelCell>::~Modify()
PUBLIC 51bf8 0 {virtual override thunk({offset(-320)}, geode::Modify<LevelCellIDs, LevelCell>::~Modify())}
PUBLIC 51c5c 0 {virtual override thunk({offset(-320)}, geode::Modify<LevelCellIDs, LevelCell>::~Modify())}
PUBLIC 51cc4 0 cocos2d::CCKeyboardDelegate::keyUp(cocos2d::enumKeyCodes)
PUBLIC 51cc8 0 cocos2d::CCMouseDelegate::rightKeyDown()
PUBLIC 51ccc 0 cocos2d::CCMouseDelegate::rightKeyUp()
PUBLIC 51cd0 0 cocos2d::CCMouseDelegate::scrollWheel(float, float)
PUBLIC 51cd4 0 geode::geodeInternalProvideIDsFor<ProvideIDsForLevelCell>(ProvideIDsForLevelCell*)
PUBLIC 51e98 0 geode::EnterLayerEvent<ProvideIDsForLevelCell>::~EnterLayerEvent()
PUBLIC 51edc 0 _GLOBAL__sub_I_LevelCell.cpp
PUBLIC 51f94 0 ProvideIDsForLevelInfoLayer::provide()
PUBLIC 5349c 0 geode::node_ids::setIDSafe<cocos2d::CCLabelBMFont>(cocos2d::CCNode*, int, char const*)
PUBLIC 536cc 0 geode::cocos::CCArrayExt<cocos2d::CCSprite*>::~CCArrayExt()
PUBLIC 536ec 0 __cxx_global_var_init.56
PUBLIC 53754 0 geode::modifier::ModifyBase<geode::modifier::ModifyDerive<LevelInfoLayerIDs, LevelInfoLayer> >::~ModifyBase()
PUBLIC 53770 0 geode::geodeInternalProvideIDsFor<ProvideIDsForLevelInfoLayer>(ProvideIDsForLevelInfoLayer*)
PUBLIC 53944 0 geode::EnterLayerEvent<ProvideIDsForLevelInfoLayer>::~EnterLayerEvent()
PUBLIC 53988 0 geode::modifier::ModifyBase<geode::modifier::ModifyDerive<LevelInfoLayerIDs, LevelInfoLayer> >::ModifyBase()
PUBLIC 53e20 0 geode::modifier::ModifyDerive<LevelInfoLayerIDs, LevelInfoLayer>::apply()
PUBLIC 547c8 0 LevelInfoLayerIDs::onModify<geode::modifier::ModifyBase<geode::modifier::ModifyDerive<LevelInfoLayerIDs, LevelInfoLayer> > >(geode::modifier::ModifyBase<geode::modifier::ModifyDerive<LevelInfoLayerIDs, LevelInfoLayer> >&)
PUBLIC 548d4 0 geode::modifier::ModifyBase<geode::modifier::ModifyDerive<LevelInfoLayerIDs, LevelInfoLayer> >::apply()
PUBLIC 548d8 0 geode::modifier::ModifyBase<geode::modifier::ModifyDerive<LevelInfoLayerIDs, LevelInfoLayer> >::setHookPriority(std::__ndk1::basic_string<char, std::__ndk1::char_traits<char>, std::__ndk1::allocator<char> > const&, int)
PUBLIC 54a94 0 geode::Hook::create<bool (*)(LevelInfoLayerIDs*, GJGameLevel*, bool)>(void*, bool (*)(LevelInfoLayerIDs*, GJGameLevel*, bool), std::__ndk1::basic_string<char, std::__ndk1::char_traits<char>, std::__ndk1::allocator<char> > const&, tulip::hook::TulipConvention, tulip::hook::HookMetadata const&)
PUBLIC 54bac 0 geode::modifier::AsStaticFunction_init<LevelInfoLayerIDs, bool (LevelInfoLayerIDs::*)(GJGameLevel*, bool)>::Impl<bool (LevelInfoLayerIDs::*)(GJGameLevel*, bool)>::function(LevelInfoLayerIDs*, GJGameLevel*, bool)
PUBLIC 54be4 0 geode::Hook::create<void (*)(LevelInfoLayerIDs*)>(void*, void (*)(LevelInfoLayerIDs*), std::__ndk1::basic_string<char, std::__ndk1::char_traits<char>, std::__ndk1::allocator<char> > const&, tulip::hook::TulipConvention, tulip::hook::HookMetadata const&)
PUBLIC 54d18 0 geode::modifier::AsStaticFunction_setupPlatformerStats<LevelInfoLayerIDs, void (LevelInfoLayerIDs::*)()>::Impl<void (LevelInfoLayerIDs::*)()>::function(LevelInfoLayerIDs*)
PUBLIC 54d1c 0 geode::modifier::AsStaticFunction_setupProgressBars<LevelInfoLayerIDs, void (LevelInfoLayerIDs::*)()>::Impl<void (LevelInfoLayerIDs::*)()>::function(LevelInfoLayerIDs*)
PUBLIC 54d20 0 geode::modifier::AsStaticFunction_updateLabelValues<LevelInfoLayerIDs, void (LevelInfoLayerIDs::*)()>::Impl<void (LevelInfoLayerIDs::*)()>::function(LevelInfoLayerIDs*)
PUBLIC 54d24 0 tulip::hook::AbstractFunction::from<bool, LevelInfoLayerIDs*, GJGameLevel*, bool>(bool (*)(LevelInfoLayerIDs*, GJGameLevel*, bool))
PUBLIC 54ec4 0 geode::NodeIDs::provide<LevelInfoLayerIDs>(LevelInfoLayerIDs*) const
PUBLIC 54ff4 0 LevelInfoLayerIDs::setupPlatformerStats()
PUBLIC 55168 0 LevelInfoLayerIDs::setupProgressBars()
PUBLIC 55494 0 LevelInfoLayerIDs::updateLabelValues()
PUBLIC 555d4 0 _GLOBAL__sub_I_LevelInfoLayer.cpp
PUBLIC 55690 0 ProvideIDsForLevelLeaderboard::provide()
PUBLIC 566c0 0 __cxx_global_var_init.17
PUBLIC 56728 0 geode::modifier::ModifyBase<geode::modifier::ModifyDerive<LevelLeaderboardIDs, LevelLeaderboard> >::~ModifyBase()
PUBLIC 56744 0 geode::geodeInternalProvideIDsFor<ProvideIDsForLevelLeaderboard>(ProvideIDsForLevelLeaderboard*)
PUBLIC 56910 0 geode::EnterLayerEvent<ProvideIDsForLevelLeaderboard>::~EnterLayerEvent()
PUBLIC 56954 0 geode::modifier::ModifyBase<geode::modifier::ModifyDerive<LevelLeaderboardIDs, LevelLeaderboard> >::ModifyBase()
PUBLIC 56dec 0 geode::modifier::ModifyDerive<LevelLeaderboardIDs, LevelLeaderboard>::apply()
PUBLIC 570a0 0 LevelLeaderboardIDs::onModify<geode::modifier::ModifyBase<geode::modifier::ModifyDerive<LevelLeaderboardIDs, LevelLeaderboard> > >(geode::modifier::ModifyBase<geode::modifier::ModifyDerive<LevelLeaderboardIDs, LevelLeaderboard> >&)
PUBLIC 571a8 0 geode::modifier::ModifyBase<geode::modifier::ModifyDerive<LevelLeaderboardIDs, LevelLeaderboard> >::apply()
PUBLIC 571ac 0 geode::modifier::ModifyBase<geode::modifier::ModifyDerive<LevelLeaderboardIDs, LevelLeaderboard> >::setHookPriority(std::__ndk1::basic_string<char, std::__ndk1::char_traits<char>, std::__ndk1::allocator<char> > const&, int)
PUBLIC 57368 0 geode::Hook::create<bool (*)(LevelLeaderboardIDs*, GJGameLevel*, LevelLeaderboardType, LevelLeaderboardMode)>(void*, bool (*)(LevelLeaderboardIDs*, GJGameLevel*, LevelLeaderboardType, LevelLeaderboardMode), std::__ndk1::basic_string<char, std::__ndk1::char_traits<char>, std::__ndk1::allocator<char> > const&, tulip::hook::TulipConvention, tulip::hook::HookMetadata const&)
PUBLIC 57480 0 geode::modifier::AsStaticFunction_init<LevelLeaderboardIDs, bool (LevelLeaderboardIDs::*)(GJGameLevel*, LevelLeaderboardType, LevelLeaderboardMode)>::Impl<bool (LevelLeaderboardIDs::*)(GJGameLevel*, LevelLeaderboardType, LevelLeaderboardMode)>::function(LevelLeaderboardIDs*, GJGameLevel*, LevelLeaderboardType, LevelLeaderboardMode)
PUBLIC 574b8 0 tulip::hook::AbstractFunction::from<bool, LevelLeaderboardIDs*, GJGameLevel*, LevelLeaderboardType, LevelLeaderboardMode>(bool (*)(LevelLeaderboardIDs*, GJGameLevel*, LevelLeaderboardType, LevelLeaderboardMode))
PUBLIC 5773c 0 geode::NodeIDs::provide<LevelLeaderboardIDs>(LevelLeaderboardIDs*) const
PUBLIC 57860 0 _GLOBAL__sub_I_LevelLeaderboard.cpp
PUBLIC 57914 0 ProvideIDsForLevelSearchLayer::provide()
PUBLIC 58884 0 __cxx_global_var_init.50
PUBLIC 588ec 0 geode::modifier::ModifyBase<geode::modifier::ModifyDerive<LevelSearchLayerIDs, LevelSearchLayer> >::~ModifyBase()
PUBLIC 58908 0 geode::geodeInternalProvideIDsFor<ProvideIDsForLevelSearchLayer>(ProvideIDsForLevelSearchLayer*)
PUBLIC 58ad4 0 geode::EnterLayerEvent<ProvideIDsForLevelSearchLayer>::~EnterLayerEvent()
PUBLIC 58b18 0 geode::modifier::ModifyBase<geode::modifier::ModifyDerive<LevelSearchLayerIDs, LevelSearchLayer> >::ModifyBase()
PUBLIC 58fb0 0 geode::modifier::ModifyDerive<LevelSearchLayerIDs, LevelSearchLayer>::apply()
PUBLIC 59264 0 LevelSearchLayerIDs::onModify<geode::modifier::ModifyBase<geode::modifier::ModifyDerive<LevelSearchLayerIDs, LevelSearchLayer> > >(geode::modifier::ModifyBase<geode::modifier::ModifyDerive<LevelSearchLayerIDs, LevelSearchLayer> >&)
PUBLIC 5936c 0 geode::modifier::ModifyBase<geode::modifier::ModifyDerive<LevelSearchLayerIDs, LevelSearchLayer> >::apply()
PUBLIC 59370 0 geode::modifier::ModifyBase<geode::modifier::ModifyDerive<LevelSearchLayerIDs, LevelSearchLayer> >::setHookPriority(std::__ndk1::basic_string<char, std::__ndk1::char_traits<char>, std::__ndk1::allocator<char> > const&, int)
PUBLIC 5952c 0 geode::Hook::create<bool (*)(LevelSearchLayerIDs*, int)>(void*, bool (*)(LevelSearchLayerIDs*, int), std::__ndk1::basic_string<char, std::__ndk1::char_traits<char>, std::__ndk1::allocator<char> > const&, tulip::hook::TulipConvention, tulip::hook::HookMetadata const&)
PUBLIC 596ac 0 geode::modifier::AsStaticFunction_init<LevelSearchLayerIDs, bool (LevelSearchLayerIDs::*)(int)>::Impl<bool (LevelSearchLayerIDs::*)(int)>::function(LevelSearchLayerIDs*, int)
PUBLIC 596e4 0 geode::NodeIDs::provide<LevelSearchLayerIDs>(LevelSearchLayerIDs*) const
PUBLIC 59808 0 _GLOBAL__sub_I_LevelSearchLayer.cpp
PUBLIC 598bc 0 getChildBySpriteFrameName(cocos2d::CCNode*, char const*)
PUBLIC 59aa4 0 ProvideIDsForPauseLayer::provide()
PUBLIC 5a22c 0 __cxx_global_var_init.30
PUBLIC 5a294 0 geode::modifier::ModifyBase<geode::modifier::ModifyDerive<PauseLayerIDs, PauseLayer> >::~ModifyBase()
PUBLIC 5a2b0 0 geode::geodeInternalProvideIDsFor<ProvideIDsForPauseLayer>(ProvideIDsForPauseLayer*)
PUBLIC 5a47c 0 geode::EnterLayerEvent<ProvideIDsForPauseLayer>::~EnterLayerEvent()
PUBLIC 5a4c0 0 geode::modifier::ModifyBase<geode::modifier::ModifyDerive<PauseLayerIDs, PauseLayer> >::ModifyBase()
PUBLIC 5a958 0 geode::modifier::ModifyDerive<PauseLayerIDs, PauseLayer>::apply()
PUBLIC 5ac34 0 PauseLayerIDs::onModify<geode::modifier::ModifyBase<geode::modifier::ModifyDerive<PauseLayerIDs, PauseLayer> > >(geode::modifier::ModifyBase<geode::modifier::ModifyDerive<PauseLayerIDs, PauseLayer> >&)
PUBLIC 5ad54 0 geode::modifier::ModifyBase<geode::modifier::ModifyDerive<PauseLayerIDs, PauseLayer> >::apply()
PUBLIC 5ad58 0 geode::modifier::ModifyBase<geode::modifier::ModifyDerive<PauseLayerIDs, PauseLayer> >::setHookPriority(std::__ndk1::basic_string<char, std::__ndk1::char_traits<char>, std::__ndk1::allocator<char> > const&, int)
PUBLIC 5af14 0 geode::Hook::create<void (*)(PauseLayerIDs*)>(void*, void (*)(PauseLayerIDs*), std::__ndk1::basic_string<char, std::__ndk1::char_traits<char>, std::__ndk1::allocator<char> > const&, tulip::hook::TulipConvention, tulip::hook::HookMetadata const&)
PUBLIC 5b048 0 geode::modifier::AsStaticFunction_customSetup<PauseLayerIDs, void (PauseLayerIDs::*)()>::Impl<void (PauseLayerIDs::*)()>::function(PauseLayerIDs*)
PUBLIC 5b070 0 geode::addresser::Addresser::addressOfVirtual<void, PauseLayer, >(void (PauseLayer::*)())
PUBLIC 5b188 0 geode::NodeIDs::provide<PauseLayerIDs>(PauseLayerIDs*) const
PUBLIC 5b2bc 0 _GLOBAL__sub_I_PauseLayer.cpp
PUBLIC 5b378 0 ProvideIDsForPlayerObject::provide()
PUBLIC 5b5f4 0 __cxx_global_var_init.14
PUBLIC 5b65c 0 geode::modifier::ModifyBase<geode::modifier::ModifyDerive<PlayerObjectIDs, PlayerObject> >::~ModifyBase()
PUBLIC 5b678 0 geode::geodeInternalProvideIDsFor<ProvideIDsForPlayerObject>(ProvideIDsForPlayerObject*)
PUBLIC 5b850 0 geode::EnterLayerEvent<ProvideIDsForPlayerObject>::~EnterLayerEvent()
PUBLIC 5b894 0 geode::modifier::ModifyBase<geode::modifier::ModifyDerive<PlayerObjectIDs, PlayerObject> >::ModifyBase()
PUBLIC 5bd2c 0 geode::modifier::ModifyDerive<PlayerObjectIDs, PlayerObject>::apply()
PUBLIC 5bfe4 0 PlayerObjectIDs::onModify<geode::modifier::ModifyBase<geode::modifier::ModifyDerive<PlayerObjectIDs, PlayerObject> > >(geode::modifier::ModifyBase<geode::modifier::ModifyDerive<PlayerObjectIDs, PlayerObject> >&)
PUBLIC 5c0ec 0 geode::modifier::ModifyBase<geode::modifier::ModifyDerive<PlayerObjectIDs, PlayerObject> >::apply()
PUBLIC 5c0f0 0 geode::modifier::ModifyBase<geode::modifier::ModifyDerive<PlayerObjectIDs, PlayerObject> >::setHookPriority(std::__ndk1::basic_string<char, std::__ndk1::char_traits<char>, std::__ndk1::allocator<char> > const&, int)
PUBLIC 5c2ac 0 geode::Hook::create<bool (*)(PlayerObjectIDs*, int, int, GJBaseGameLayer*, cocos2d::CCLayer*, bool)>(void*, bool (*)(PlayerObjectIDs*, int, int, GJBaseGameLayer*, cocos2d::CCLayer*, bool), std::__ndk1::basic_string<char, std::__ndk1::char_traits<char>, std::__ndk1::allocator<char> > const&, tulip::hook::TulipConvention, tulip::hook::HookMetadata const&)
PUBLIC 5c3c4 0 geode::modifier::AsStaticFunction_init<PlayerObjectIDs, bool (PlayerObjectIDs::*)(int, int, GJBaseGameLayer*, cocos2d::CCLayer*, bool)>::Impl<bool (PlayerObjectIDs::*)(int, int, GJBaseGameLayer*, cocos2d::CCLayer*, bool)>::function(PlayerObjectIDs*, int, int, GJBaseGameLayer*, cocos2d::CCLayer*, bool)
PUBLIC 5c3fc 0 tulip::hook::AbstractFunction::from<bool, PlayerObjectIDs*, int, int, GJBaseGameLayer*, cocos2d::CCLayer*, bool>(bool (*)(PlayerObjectIDs*, int, int, GJBaseGameLayer*, cocos2d::CCLayer*, bool))
PUBLIC 5c870 0 geode::NodeIDs::provide<PlayerObjectIDs>(PlayerObjectIDs*) const
PUBLIC 5c9ac 0 _GLOBAL__sub_I_PlayerObject.cpp
PUBLIC 5ca6c 0 ProvideIDsForProfilePage::provide()
PUBLIC 5d72c 0 wrapSimplePlayer(cocos2d::CCNode*, cocos2d::CCArray*, cocos2d::CCSize)
PUBLIC 5d92c 0 __cxx_global_var_init.17
PUBLIC 5d994 0 geode::modifier::ModifyBase<geode::modifier::ModifyDerive<ProfilePageIDs, ProfilePage> >::~ModifyBase()
PUBLIC 5d9b0 0 geode::geodeInternalProvideIDsFor<ProvideIDsForProfilePage>(ProvideIDsForProfilePage*)
PUBLIC 5db90 0 geode::EnterLayerEvent<ProvideIDsForProfilePage>::~EnterLayerEvent()
PUBLIC 5dbd4 0 geode::modifier::ModifyBase<geode::modifier::ModifyDerive<ProfilePageIDs, ProfilePage> >::ModifyBase()
PUBLIC 5e06c 0 geode::modifier::ModifyDerive<ProfilePageIDs, ProfilePage>::apply()
PUBLIC 5e568 0 ProfilePageIDs::onModify<geode::modifier::ModifyBase<geode::modifier::ModifyDerive<ProfilePageIDs, ProfilePage> > >(geode::modifier::ModifyBase<geode::modifier::ModifyDerive<ProfilePageIDs, ProfilePage> >&)
PUBLIC 5e710 0 geode::modifier::ModifyBase<geode::modifier::ModifyDerive<ProfilePageIDs, ProfilePage> >::apply()
PUBLIC 5e714 0 geode::modifier::ModifyBase<geode::modifier::ModifyDerive<ProfilePageIDs, ProfilePage> >::setHookPriority(std::__ndk1::basic_string<char, std::__ndk1::char_traits<char>, std::__ndk1::allocator<char> > const&, int)
PUBLIC 5e8d0 0 geode::Hook::create<bool (*)(ProfilePageIDs*, int, bool)>(void*, bool (*)(ProfilePageIDs*, int, bool), std::__ndk1::basic_string<char, std::__ndk1::char_traits<char>, std::__ndk1::allocator<char> > const&, tulip::hook::TulipConvention, tulip::hook::HookMetadata const&)
PUBLIC 5e9e8 0 geode::modifier::AsStaticFunction_init<ProfilePageIDs, bool (ProfilePageIDs::*)(int, bool)>::Impl<bool (ProfilePageIDs::*)(int, bool)>::function(ProfilePageIDs*, int, bool)
PUBLIC 5ea20 0 geode::Hook::create<void (*)(ProfilePageIDs*, GJUserScore*)>(void*, void (*)(ProfilePageIDs*, GJUserScore*), std::__ndk1::basic_string<char, std::__ndk1::char_traits<char>, std::__ndk1::allocator<char> > const&, tulip::hook::TulipConvention, tulip::hook::HookMetadata const&)
PUBLIC 5eba0 0 geode::modifier::AsStaticFunction_loadPageFromUserInfo<ProfilePageIDs, void (ProfilePageIDs::*)(GJUserScore*)>::Impl<void (ProfilePageIDs::*)(GJUserScore*)>::function(ProfilePageIDs*, GJUserScore*)
PUBLIC 5eba4 0 tulip::hook::AbstractFunction::from<bool, ProfilePageIDs*, int, bool>(bool (*)(ProfilePageIDs*, int, bool))
PUBLIC 5ed44 0 geode::NodeIDs::provide<ProfilePageIDs>(ProfilePageIDs*) const
PUBLIC 5ee80 0 ProfilePageIDs::loadPageFromUserInfo(GJUserScore*)
PUBLIC 610b8 0 geode::node_ids::switchToMenu(cocos2d::CCNode*, cocos2d::CCNode*)
PUBLIC 611d0 0 _GLOBAL__sub_I_ProfilePage.cpp
PUBLIC 61290 0 ProvideIDsForRewardsPage::provide()
PUBLIC 61a74 0 std::__ndk1::array<std::__ndk1::basic_string<char, std::__ndk1::char_traits<char>, std::__ndk1::allocator<char> >, (unsigned long)6>::~array()
PUBLIC 61b20 0 __cxx_global_var_init.24
PUBLIC 61b88 0 geode::modifier::ModifyBase<geode::modifier::ModifyDerive<RewardsPageIDs, RewardsPage> >::~ModifyBase()
PUBLIC 61ba4 0 geode::geodeInternalProvideIDsFor<ProvideIDsForRewardsPage>(ProvideIDsForRewardsPage*)
PUBLIC 61d84 0 geode::EnterLayerEvent<ProvideIDsForRewardsPage>::~EnterLayerEvent()
PUBLIC 61dc8 0 geode::modifier::ModifyBase<geode::modifier::ModifyDerive<RewardsPageIDs, RewardsPage> >::ModifyBase()
PUBLIC 62260 0 geode::modifier::ModifyDerive<RewardsPageIDs, RewardsPage>::apply()
PUBLIC 62510 0 RewardsPageIDs::onModify<geode::modifier::ModifyBase<geode::modifier::ModifyDerive<RewardsPageIDs, RewardsPage> > >(geode::modifier::ModifyBase<geode::modifier::ModifyDerive<RewardsPageIDs, RewardsPage> >&)
PUBLIC 62614 0 geode::modifier::ModifyBase<geode::modifier::ModifyDerive<RewardsPageIDs, RewardsPage> >::apply()
PUBLIC 62618 0 geode::modifier::ModifyBase<geode::modifier::ModifyDerive<RewardsPageIDs, RewardsPage> >::setHookPriority(std::__ndk1::basic_string<char, std::__ndk1::char_traits<char>, std::__ndk1::allocator<char> > const&, int)
PUBLIC 627d4 0 geode::Hook::create<bool (*)(RewardsPageIDs*)>(void*, bool (*)(RewardsPageIDs*), std::__ndk1::basic_string<char, std::__ndk1::char_traits<char>, std::__ndk1::allocator<char> > const&, tulip::hook::TulipConvention, tulip::hook::HookMetadata const&)
PUBLIC 62908 0 geode::modifier::AsStaticFunction_init<RewardsPageIDs, bool (RewardsPageIDs::*)()>::Impl<bool (RewardsPageIDs::*)()>::function(RewardsPageIDs*)
PUBLIC 62940 0 geode::addresser::Addresser::addressOfVirtual<bool, RewardsPage, >(bool (RewardsPage::*)())
PUBLIC 62a68 0 geode::NodeIDs::provide<RewardsPageIDs>(RewardsPageIDs*) const
PUBLIC 62ba4 0 _GLOBAL__sub_I_RewardsPage.cpp
PUBLIC 62c64 0 ProvideIDsForUILayer::provide()
PUBLIC 62ef0 0 __cxx_global_var_init.11
PUBLIC 62f58 0 geode::modifier::ModifyBase<geode::modifier::ModifyDerive<UILayerIDs, UILayer> >::~ModifyBase()
PUBLIC 62f74 0 geode::geodeInternalProvideIDsFor<ProvideIDsForUILayer>(ProvideIDsForUILayer*)
PUBLIC 63148 0 geode::EnterLayerEvent<ProvideIDsForUILayer>::~EnterLayerEvent()
PUBLIC 6318c 0 geode::modifier::ModifyBase<geode::modifier::ModifyDerive<UILayerIDs, UILayer> >::ModifyBase()
PUBLIC 63624 0 geode::modifier::ModifyDerive<UILayerIDs, UILayer>::apply()
PUBLIC 638d0 0 UILayerIDs::onModify<geode::modifier::ModifyBase<geode::modifier::ModifyDerive<UILayerIDs, UILayer> > >(geode::modifier::ModifyBase<geode::modifier::ModifyDerive<UILayerIDs, UILayer> >&)
PUBLIC 639d8 0 geode::modifier::ModifyBase<geode::modifier::ModifyDerive<UILayerIDs, UILayer> >::apply()
PUBLIC 639dc 0 geode::modifier::ModifyBase<geode::modifier::ModifyDerive<UILayerIDs, UILayer> >::setHookPriority(std::__ndk1::basic_string<char, std::__ndk1::char_traits<char>, std::__ndk1::allocator<char> > const&, int)
PUBLIC 63b98 0 geode::Hook::create<bool (*)(UILayerIDs*, GJBaseGameLayer*)>(void*, bool (*)(UILayerIDs*, GJBaseGameLayer*), std::__ndk1::basic_string<char, std::__ndk1::char_traits<char>, std::__ndk1::allocator<char> > const&, tulip::hook::TulipConvention, tulip::hook::HookMetadata const&)
PUBLIC 63d18 0 geode::modifier::AsStaticFunction_init<UILayerIDs, bool (UILayerIDs::*)(GJBaseGameLayer*)>::Impl<bool (UILayerIDs::*)(GJBaseGameLayer*)>::function(UILayerIDs*, GJBaseGameLayer*)
PUBLIC 63d50 0 geode::NodeIDs::provide<UILayerIDs>(UILayerIDs*) const
PUBLIC 63e88 0 _GLOBAL__sub_I_UILayer.cpp
PUBLIC 63f44 0 helpGeodeUpdate()
PUBLIC 64150 0 geode::Mod::getSavedValue<std::__ndk1::basic_string<char, std::__ndk1::char_traits<char>, std::__ndk1::allocator<char> > >(std::__ndk1::basic_string_view<char, std::__ndk1::char_traits<char> >)
PUBLIC 642f0 0 geode::Mod::setSavedValue<std::__ndk1::basic_string<char, std::__ndk1::char_traits<char>, std::__ndk1::allocator<char> > >(std::__ndk1::basic_string_view<char, std::__ndk1::char_traits<char> >, std::__ndk1::basic_string<char, std::__ndk1::char_traits<char>, std::__ndk1::allocator<char> > const&)
PUBLIC 644ac 0 geodeExecFunction14<(anonymous namespace)::ExecFuncUnique14>(geode::ModStateEvent*)
PUBLIC 644b0 0 geode::EventListener<geode::ModStateFilter>::getPool() const
PUBLIC 644b4 0 geode::EventListener<geode::ModStateFilter>::handle(geode::Event*)
PUBLIC 645bc 0 geode::EventListener<geode::ModStateFilter>::~EventListener()
PUBLIC 645fc 0 geode::EventListener<geode::ModStateFilter>::~EventListener()
PUBLIC 64644 0 geode::utils::MiniFunctionStateBase<void, geode::ModStateEvent*>::~MiniFunctionStateBase()
PUBLIC 64648 0 geode::utils::MiniFunctionState<void (*)(geode::ModStateEvent*), void, geode::ModStateEvent*>::~MiniFunctionState()
PUBLIC 6464c 0 geode::utils::MiniFunctionState<void (*)(geode::ModStateEvent*), void, geode::ModStateEvent*>::call(geode::ModStateEvent*) const
PUBLIC 64658 0 geode::utils::MiniFunctionState<void (*)(geode::ModStateEvent*), void, geode::ModStateEvent*>::clone() const
PUBLIC 6468c 0 _GLOBAL__sub_I_main.cpp
PUBLIC 6478c 0 geode::getMod()
PUBLIC 647c8 0 _GLOBAL__sub_I_entry.cpp
PUBLIC 64814 0 cocos2d::CCDestructor::lock(void*)
PUBLIC m 648fc 0 cocos2d::CCDestructor::~CCDestructor()
PUBLIC 649fc 0 wrapFunction(unsigned long, tulip::hook::WrapperMetadata const&)
PUBLIC 64b38 0 tulip::hook::Result<void*, std::__ndk1::basic_string<char, std::__ndk1::char_traits<char>, std::__ndk1::allocator<char> > >::unwrapErr() &
PUBLIC 64bf4 0 tulip::hook::Result<void*, std::__ndk1::basic_string<char, std::__ndk1::char_traits<char>, std::__ndk1::allocator<char> > >::unwrap() &
PUBLIC 64cf4 0 tulip::hook::WrapperMetadata::~WrapperMetadata()
PUBLIC m 64d58 0 cocos2d::CCNode::CCNode()
PUBLIC m 64ee4 0 cocos2d::CCObject::CCObject()
PUBLIC m 65050 0 cocos2d::CCNode::~CCNode()
PUBLIC 652dc 0 cocos2d::CCNode::~CCNode()
PUBLIC 65300 0 {virtual override thunk({offset(-320)}, cocos2d::CCLayer::~CCLayer())}
PUBLIC 65308 0 cocos2d::CCLayer::~CCLayer()
PUBLIC 6532c 0 {virtual override thunk({offset(-320)}, cocos2d::CCLayer::~CCLayer())}
PUBLIC 65354 0 cocos2d::CCObject::~CCObject()
PUBLIC m 65378 0 cocos2d::CCNodeRGBA::CCNodeRGBA()
PUBLIC m 654f0 0 cocos2d::CCNodeRGBA::~CCNodeRGBA()
PUBLIC 65794 0 cocos2d::CCNodeRGBA::~CCNodeRGBA()
PUBLIC 657b8 0 cocos2d::CCDictionary::objectForKey(gd::string const&)
PUBLIC 658f8 0 tulip::hook::AbstractFunction::from<cocos2d::CCObject*, cocos2d::CCDictionary*, gd::string const&>(cocos2d::CCObject* (*)(cocos2d::CCDictionary*, gd::string const&))
PUBLIC m 659c0 0 CCIndexPath::CCIndexPath()
PUBLIC m 659ec 0 cocos2d::CCObject::~CCObject()
PUBLIC 65c40 0 {virtual override thunk({offset(-320)}, TableViewCell::~TableViewCell())}
PUBLIC 65c48 0 TableViewCell::~TableViewCell()
PUBLIC 65c6c 0 {virtual override thunk({offset(-320)}, TableViewCell::~TableViewCell())}
PUBLIC m 65c94 0 CCMenuItemSpriteExtra::~CCMenuItemSpriteExtra()
PUBLIC 65cd8 0 CCMenuItemSpriteExtra::~CCMenuItemSpriteExtra()
PUBLIC m 65d24 0 CCMenuItemSpriteExtra::CCMenuItemSpriteExtra()
PUBLIC 65de4 0 GameManager::get()
PUBLIC 65de8 0 GameStatsManager::hasCompletedLevel(GJGameLevel*)
PUBLIC 65e78 0 tulip::hook::AbstractFunction::from<bool, GameStatsManager*, gd::string>(bool (*)(GameStatsManager*, gd::string))
PUBLIC 65f38 0 GameStatsManager::isSpecialChestUnlocked(gd::string)
PUBLIC m 660a8 0 TableViewCell::~TableViewCell()
PUBLIC 663b0 0 PlatformToolbox::isControllerConnected()
PUBLIC 663b8 0 PlayLayer::get()
PUBLIC m 663d0 0 cocos2d::CCLayer::~CCLayer()
PUBLIC 666ac 0 cocos2d::CCObject::update(float)
PUBLIC 666b0 0 CCIndexPath::~CCIndexPath()
PUBLIC 666d4 0 tulip::hook::lib::bitwizeshift::bad_result_access<std::__ndk1::basic_string<char, std::__ndk1::char_traits<char>, std::__ndk1::allocator<char> > >::~bad_result_access()
PUBLIC 66710 0 tulip::hook::lib::bitwizeshift::bad_result_access<std::__ndk1::basic_string<char, std::__ndk1::char_traits<char>, std::__ndk1::allocator<char> > >::~bad_result_access()
PUBLIC 66754 0 std::__ndk1::__hash_table<std::__ndk1::__hash_value_type<void*, bool>, std::__ndk1::__unordered_map_hasher<void*, std::__ndk1::__hash_value_type<void*, bool>, std::__ndk1::hash<void*>, std::__ndk1::equal_to<void*>, true>, std::__ndk1::__unordered_map_equal<void*, std::__ndk1::__hash_value_type<void*, bool>, std::__ndk1::equal_to<void*>, std::__ndk1::hash<void*>, true>, std::__ndk1::allocator<std::__ndk1::__hash_value_type<void*, bool> > >::__emplace_unique_key_args<void*, std::__ndk1::piecewise_construct_t const&, std::__ndk1::tuple<void* const&>, std::__ndk1::tuple<> >(void* const&, std::__ndk1::piecewise_construct_t const&, std::__ndk1::tuple<void* const&>, std::__ndk1::tuple<>)
PUBLIC 66ab0 0 std::__ndk1::__hash_table<std::__ndk1::__hash_value_type<void*, bool>, std::__ndk1::__unordered_map_hasher<void*, std::__ndk1::__hash_value_type<void*, bool>, std::__ndk1::hash<void*>, std::__ndk1::equal_to<void*>, true>, std::__ndk1::__unordered_map_equal<void*, std::__ndk1::__hash_value_type<void*, bool>, std::__ndk1::equal_to<void*>, std::__ndk1::hash<void*>, true>, std::__ndk1::allocator<std::__ndk1::__hash_value_type<void*, bool> > >::__do_rehash<true>(unsigned long)
PUBLIC 66c88 0 std::__ndk1::__hash_table<std::__ndk1::__hash_value_type<void*, bool>, std::__ndk1::__unordered_map_hasher<void*, std::__ndk1::__hash_value_type<void*, bool>, std::__ndk1::hash<void*>, std::__ndk1::equal_to<void*>, true>, std::__ndk1::__unordered_map_equal<void*, std::__ndk1::__hash_value_type<void*, bool>, std::__ndk1::equal_to<void*>, std::__ndk1::hash<void*>, true>, std::__ndk1::allocator<std::__ndk1::__hash_value_type<void*, bool> > >::find<void*>(void* const&)
PUBLIC 66d9c 0 std::__ndk1::__hash_table<std::__ndk1::__hash_value_type<void*, bool>, std::__ndk1::__unordered_map_hasher<void*, std::__ndk1::__hash_value_type<void*, bool>, std::__ndk1::hash<void*>, std::__ndk1::equal_to<void*>, true>, std::__ndk1::__unordered_map_equal<void*, std::__ndk1::__hash_value_type<void*, bool>, std::__ndk1::equal_to<void*>, std::__ndk1::hash<void*>, true>, std::__ndk1::allocator<std::__ndk1::__hash_value_type<void*, bool> > >::remove(std::__ndk1::__hash_const_iterator<std::__ndk1::__hash_node<std::__ndk1::__hash_value_type<void*, bool>, void*>*>)
PUBLIC 66ed0 0 fmt::v10::detail::throw_format_error(char const*)
PUBLIC m 66f20 0 fmt::v10::format_error::runtime_error(char const*)
PUBLIC 66f50 0 fmt::v10::detail::write_loc(fmt::v10::appender, fmt::v10::loc_value, fmt::v10::format_specs<char> const&, fmt::v10::detail::locale_ref)
PUBLIC 670dc 0 fmt::v10::format_facet<std::__ndk1::locale>::format_facet(std::__ndk1::locale&)
PUBLIC 67274 0 fmt::v10::format_facet<std::__ndk1::locale>::~format_facet()
PUBLIC 672f0 0 fmt::v10::format_facet<std::__ndk1::locale>::do_put(fmt::v10::appender, fmt::v10::loc_value, fmt::v10::format_specs<char> const&) const
PUBLIC 675f8 0 fmt::v10::loc_value::visit<fmt::v10::detail::loc_writer<char> >(fmt::v10::detail::loc_writer<char>&&)
PUBLIC 67680 0 fmt::v10::detail::loc_writer<char>::~loc_writer()
PUBLIC 676e4 0 fmt::v10::vformat(fmt::v10::basic_string_view<char>, fmt::v10::basic_format_args<fmt::v10::basic_format_context<fmt::v10::appender, char> >)
PUBLIC 67808 0 fmt::v10::detail::vformat_to<char>(fmt::v10::detail::buffer<char>&, fmt::v10::basic_string_view<char>, fmt::v10::detail::vformat_args<char>::type, fmt::v10::detail::locale_ref)
PUBLIC 67f08 0 fmt::v10::detail::is_printable(unsigned int)
PUBLIC 6812c 0 fmt::v10::detail::dragonbox::to_decimal<float>(float)
PUBLIC 68434 0 fmt::v10::detail::dragonbox::to_decimal<double>(double)
PUBLIC 689e0 0 fmt::v10::detail::thousands_sep_impl<char>(fmt::v10::detail::locale_ref)
PUBLIC m 68af8 0 fmt::v10::format_error::~format_error()
PUBLIC 68b1c 0 fmt::v10::basic_memory_buffer<char, (unsigned long)500, std::__ndk1::allocator<char> >::grow(unsigned long)
PUBLIC 68c54 0 fmt::v10::format_facet<std::__ndk1::locale>::~format_facet()
PUBLIC 68ce0 0 fmt::v10::detail::write<char, fmt::v10::appender, int, 0>(fmt::v10::appender, int)
PUBLIC 68f18 0 fmt::v10::detail::copy_str_noinline<char, char*, fmt::v10::appender>(char*, char*, fmt::v10::appender)
PUBLIC 69084 0 fmt::v10::detail::write<char, fmt::v10::appender, unsigned int, 0>(fmt::v10::appender, unsigned int)
PUBLIC 69230 0 fmt::v10::detail::write<char, fmt::v10::appender, long long, 0>(fmt::v10::appender, long long)
PUBLIC 6948c 0 fmt::v10::detail::write<char, fmt::v10::appender, unsigned long long, 0>(fmt::v10::appender, unsigned long long)
PUBLIC 69660 0 fmt::v10::detail::write<char, fmt::v10::appender, __int128, 0>(fmt::v10::appender, __int128)
PUBLIC 699ac 0 fmt::v10::detail::write<char, fmt::v10::appender, unsigned __int128, 0>(fmt::v10::appender, unsigned __int128)
PUBLIC 69c80 0 fmt::v10::detail::write<char, fmt::v10::appender, bool, 0>(fmt::v10::appender, bool, fmt::v10::format_specs<char> const&, fmt::v10::detail::locale_ref)
PUBLIC 69dbc 0 fmt::v10::detail::write_bytes<(fmt::v10::align::type)1, char, fmt::v10::appender>(fmt::v10::appender, fmt::v10::basic_string_view<char>, fmt::v10::format_specs<char> const&)
PUBLIC 69fa4 0 fmt::v10::detail::write_int_noinline<char, fmt::v10::appender, unsigned int>(fmt::v10::appender, fmt::v10::detail::write_int_arg<unsigned int>, fmt::v10::format_specs<char> const&, fmt::v10::detail::locale_ref)
PUBLIC 6aa94 0 fmt::v10::detail::fill<fmt::v10::appender, char>(fmt::v10::appender, unsigned long, fmt::v10::detail::fill_t<char> const&)
PUBLIC 6ac84 0 fmt::v10::detail::write_int<fmt::v10::appender, char, fmt::v10::detail::write_int<char, fmt::v10::appender, unsigned int>(fmt::v10::appender, fmt::v10::detail::write_int_arg<unsigned int>, fmt::v10::format_specs<char> const&, fmt::v10::detail::locale_ref)::{lambda(fmt::v10::appender)#1}>(fmt::v10::appender, int, unsigned int, fmt::v10::format_specs<char> const&, fmt::v10::detail::write_int<char, fmt::v10::appender, unsigned int>(fmt::v10::appender, fmt::v10::detail::write_int_arg<unsigned int>, fmt::v10::format_specs<char> const&, fmt::v10::detail::locale_ref)::{lambda(fmt::v10::appender)#1})::{lambda(fmt::v10::appender(fmt::v10::appender))#1}::operator() const
PUBLIC 6ae14 0 fmt::v10::detail::write_int<fmt::v10::appender, char, fmt::v10::detail::write_int<char, fmt::v10::appender, unsigned int>(fmt::v10::appender, fmt::v10::detail::write_int_arg<unsigned int>, fmt::v10::format_specs<char> const&, fmt::v10::detail::locale_ref)::{lambda(fmt::v10::appender)#2}>(fmt::v10::appender, int, unsigned int, fmt::v10::format_specs<char> const&, fmt::v10::detail::write_int<char, fmt::v10::appender, unsigned int>(fmt::v10::appender, fmt::v10::detail::write_int_arg<unsigned int>, fmt::v10::format_specs<char> const&, fmt::v10::detail::locale_ref)::{lambda(fmt::v10::appender)#2})::{lambda(fmt::v10::appender(fmt::v10::appender))#1}::operator() const
PUBLIC 6afd4 0 fmt::v10::detail::write_escaped_char<char, fmt::v10::appender>(fmt::v10::appender, char)
PUBLIC 6b154 0 fmt::v10::detail::write_escaped_cp<fmt::v10::appender, char>(fmt::v10::appender, fmt::v10::detail::find_escape_result<char> const&)
PUBLIC 6b350 0 fmt::v10::detail::write_codepoint<(unsigned long)2, char, fmt::v10::appender>(fmt::v10::appender, char, unsigned int)
PUBLIC 6b4d0 0 fmt::v10::detail::write_codepoint<(unsigned long)4, char, fmt::v10::appender>(fmt::v10::appender, char, unsigned int)
PUBLIC 6b650 0 fmt::v10::detail::write_codepoint<(unsigned long)8, char, fmt::v10::appender>(fmt::v10::appender, char, unsigned int)
PUBLIC 6b7d0 0 fmt::v10::detail::write_padded<(fmt::v10::align::type)1, fmt::v10::appender, char, fmt::v10::detail::write_nonfinite<char, fmt::v10::appender>(fmt::v10::appender, bool, fmt::v10::format_specs<char>, fmt::v10::detail::float_specs const&)::{lambda(fmt::v10::appender&)#1}>(fmt::v10::appender, fmt::v10::format_specs<char> const&, unsigned long, unsigned long, fmt::v10::detail::write_nonfinite<char, fmt::v10::appender>(fmt::v10::appender, bool, fmt::v10::format_specs<char>, fmt::v10::detail::float_specs const&)::{lambda(fmt::v10::appender&)#1})
PUBLIC 6ba14 0 fmt::v10::detail::do_write_float<fmt::v10::appender, fmt::v10::detail::dragonbox::decimal_fp<float>, char, fmt::v10::detail::digit_grouping<char> >(fmt::v10::appender, fmt::v10::detail::dragonbox::decimal_fp<float> const&, fmt::v10::format_specs<char> const&, fmt::v10::detail::float_specs, fmt::v10::detail::locale_ref)
PUBLIC 6c0a0 0 fmt::v10::detail::do_write_float<fmt::v10::appender, fmt::v10::detail::dragonbox::decimal_fp<float>, char, fmt::v10::detail::digit_grouping<char> >(fmt::v10::appender, fmt::v10::detail::dragonbox::decimal_fp<float> const&, fmt::v10::format_specs<char> const&, fmt::v10::detail::float_specs, fmt::v10::detail::locale_ref)::{lambda(fmt::v10::appender(fmt::v10::appender))#1}::operator() const
PUBLIC 6c1f4 0 fmt::v10::detail::digit_grouping<char>::digit_grouping(fmt::v10::detail::locale_ref, bool)
PUBLIC 6c3b4 0 fmt::v10::detail::digit_grouping<char>::~digit_grouping()
PUBLIC 6c3f8 0 fmt::v10::detail::write_exponent<char, fmt::v10::appender>(int, fmt::v10::appender)
PUBLIC 6c5e0 0 fmt::v10::detail::write_significand<char, unsigned int, 0>(char*, unsigned int, int, int, char)
PUBLIC 6c768 0 fmt::v10::detail::do_write_float<fmt::v10::appender, fmt::v10::detail::dragonbox::decimal_fp<float>, char, fmt::v10::detail::digit_grouping<char> >(fmt::v10::appender, fmt::v10::detail::dragonbox::decimal_fp<float> const&, fmt::v10::format_specs<char> const&, fmt::v10::detail::float_specs, fmt::v10::detail::locale_ref)::{lambda(fmt::v10::appender(fmt::v10::appender))#2}::operator() const
PUBLIC 6c8a4 0 fmt::v10::detail::write_significand<char, fmt::v10::appender, unsigned int, fmt::v10::detail::digit_grouping<char> >(fmt::v10::appender, unsigned int, int, int, fmt::v10::detail::digit_grouping<char> const&)
PUBLIC 6cb68 0 fmt::v10::detail::digit_grouping<char>::apply<fmt::v10::appender, char>(fmt::v10::appender, fmt::v10::basic_string_view<char>) const
PUBLIC 6cf44 0 fmt::v10::basic_memory_buffer<int, (unsigned long)500, std::__ndk1::allocator<int> >::grow(unsigned long)
PUBLIC 6d054 0 fmt::v10::detail::write_padded<(fmt::v10::align::type)2, fmt::v10::appender, char, fmt::v10::detail::do_write_float<fmt::v10::appender, fmt::v10::detail::dragonbox::decimal_fp<float>, char, fmt::v10::detail::digit_grouping<char> >(fmt::v10::appender, fmt::v10::detail::dragonbox::decimal_fp<float> const&, fmt::v10::format_specs<char> const&, fmt::v10::detail::float_specs, fmt::v10::detail::locale_ref)::{lambda(fmt::v10::appender&)#3}>(fmt::v10::appender, fmt::v10::format_specs<char> const&, unsigned long, unsigned long, fmt::v10::detail::do_write_float<fmt::v10::appender, fmt::v10::detail::dragonbox::decimal_fp<float>, char, fmt::v10::detail::digit_grouping<char> >(fmt::v10::appender, fmt::v10::detail::dragonbox::decimal_fp<float> const&, fmt::v10::format_specs<char> const&, fmt::v10::detail::float_specs, fmt::v10::detail::locale_ref)::{lambda(fmt::v10::appender&)#3})
PUBLIC 6d1c0 0 fmt::v10::detail::write_significand<fmt::v10::appender, char, unsigned int, fmt::v10::detail::digit_grouping<char> >(fmt::v10::appender, unsigned int, int, int, char, fmt::v10::detail::digit_grouping<char> const&)
PUBLIC 6d304 0 fmt::v10::detail::do_write_float<fmt::v10::appender, fmt::v10::detail::dragonbox::decimal_fp<float>, char, fmt::v10::detail::digit_grouping<char> >(fmt::v10::appender, fmt::v10::detail::dragonbox::decimal_fp<float> const&, fmt::v10::format_specs<char> const&, fmt::v10::detail::float_specs, fmt::v10::detail::locale_ref)::{lambda(fmt::v10::appender(fmt::v10::appender))#4}::operator() const
PUBLIC 6d528 0 fmt::v10::detail::do_write_float<fmt::v10::appender, fmt::v10::detail::dragonbox::decimal_fp<double>, char, fmt::v10::detail::digit_grouping<char> >(fmt::v10::appender, fmt::v10::detail::dragonbox::decimal_fp<double> const&, fmt::v10::format_specs<char> const&, fmt::v10::detail::float_specs, fmt::v10::detail::locale_ref)
PUBLIC 6dbc0 0 fmt::v10::detail::do_write_float<fmt::v10::appender, fmt::v10::detail::dragonbox::decimal_fp<double>, char, fmt::v10::detail::digit_grouping<char> >(fmt::v10::appender, fmt::v10::detail::dragonbox::decimal_fp<double> const&, fmt::v10::format_specs<char> const&, fmt::v10::detail::float_specs, fmt::v10::detail::locale_ref)::{lambda(fmt::v10::appender(fmt::v10::appender))#1}::operator() const
PUBLIC 6dd18 0 fmt::v10::detail::write_significand<char, unsigned long, 0>(char*, unsigned long, int, int, char)
PUBLIC 6dec4 0 fmt::v10::detail::do_write_float<fmt::v10::appender, fmt::v10::detail::dragonbox::decimal_fp<double>, char, fmt::v10::detail::digit_grouping<char> >(fmt::v10::appender, fmt::v10::detail::dragonbox::decimal_fp<double> const&, fmt::v10::format_specs<char> const&, fmt::v10::detail::float_specs, fmt::v10::detail::locale_ref)::{lambda(fmt::v10::appender(fmt::v10::appender))#2}::operator() const
PUBLIC 6e000 0 fmt::v10::detail::write_significand<char, fmt::v10::appender, unsigned long, fmt::v10::detail::digit_grouping<char> >(fmt::v10::appender, unsigned long, int, int, fmt::v10::detail::digit_grouping<char> const&)
PUBLIC 6e2dc 0 fmt::v10::detail::write_padded<(fmt::v10::align::type)2, fmt::v10::appender, char, fmt::v10::detail::do_write_float<fmt::v10::appender, fmt::v10::detail::dragonbox::decimal_fp<double>, char, fmt::v10::detail::digit_grouping<char> >(fmt::v10::appender, fmt::v10::detail::dragonbox::decimal_fp<double> const&, fmt::v10::format_specs<char> const&, fmt::v10::detail::float_specs, fmt::v10::detail::locale_ref)::{lambda(fmt::v10::appender&)#3}>(fmt::v10::appender, fmt::v10::format_specs<char> const&, unsigned long, unsigned long, fmt::v10::detail::do_write_float<fmt::v10::appender, fmt::v10::detail::dragonbox::decimal_fp<double>, char, fmt::v10::detail::digit_grouping<char> >(fmt::v10::appender, fmt::v10::detail::dragonbox::decimal_fp<double> const&, fmt::v10::format_specs<char> const&, fmt::v10::detail::float_specs, fmt::v10::detail::locale_ref)::{lambda(fmt::v10::appender&)#3})
PUBLIC 6e448 0 fmt::v10::detail::write_significand<fmt::v10::appender, char, unsigned long, fmt::v10::detail::digit_grouping<char> >(fmt::v10::appender, unsigned long, int, int, char, fmt::v10::detail::digit_grouping<char> const&)
PUBLIC 6e58c 0 fmt::v10::detail::do_write_float<fmt::v10::appender, fmt::v10::detail::dragonbox::decimal_fp<double>, char, fmt::v10::detail::digit_grouping<char> >(fmt::v10::appender, fmt::v10::detail::dragonbox::decimal_fp<double> const&, fmt::v10::format_specs<char> const&, fmt::v10::detail::float_specs, fmt::v10::detail::locale_ref)::{lambda(fmt::v10::appender(fmt::v10::appender))#4}::operator() const
PUBLIC 6e7bc 0 fmt::v10::detail::write_float<char, fmt::v10::appender, long double>(fmt::v10::appender, long double, fmt::v10::format_specs<char>, fmt::v10::detail::locale_ref)
PUBLIC 6ebf8 0 fmt::v10::detail::format_hexfloat<long double, 0>(long double, int, fmt::v10::detail::float_specs, fmt::v10::detail::buffer<char>&)
PUBLIC 6f1a8 0 fmt::v10::detail::write_bytes<(fmt::v10::align::type)2, char, fmt::v10::appender>(fmt::v10::appender, fmt::v10::basic_string_view<char>, fmt::v10::format_specs<char> const&)
PUBLIC 6f390 0 fmt::v10::detail::format_float<long double>(long double, int, fmt::v10::detail::float_specs, fmt::v10::detail::buffer<char>&)
PUBLIC 6f65c 0 fmt::v10::detail::format_dragon(fmt::v10::detail::basic_fp<unsigned __int128>, unsigned int, int, fmt::v10::detail::buffer<char>&, int&)
PUBLIC 70ab0 0 fmt::v10::detail::bigint::operator<<=(int)
PUBLIC 70be0 0 fmt::v10::detail::bigint::assign_pow10(int)
PUBLIC 70d50 0 fmt::v10::detail::bigint::divmod_assign(fmt::v10::detail::bigint const&)
PUBLIC 710c4 0 fmt::v10::basic_memory_buffer<unsigned int, (unsigned long)32, std::__ndk1::allocator<unsigned int> >::grow(unsigned long)
PUBLIC 711d4 0 fmt::v10::detail::bigint::square()
PUBLIC 71784 0 fmt::v10::detail::do_write_float<fmt::v10::appender, fmt::v10::detail::big_decimal_fp, char, fmt::v10::detail::digit_grouping<char> >(fmt::v10::appender, fmt::v10::detail::big_decimal_fp const&, fmt::v10::format_specs<char> const&, fmt::v10::detail::float_specs, fmt::v10::detail::locale_ref)
PUBLIC 71df8 0 fmt::v10::detail::do_write_float<fmt::v10::appender, fmt::v10::detail::big_decimal_fp, char, fmt::v10::detail::digit_grouping<char> >(fmt::v10::appender, fmt::v10::detail::big_decimal_fp const&, fmt::v10::format_specs<char> const&, fmt::v10::detail::float_specs, fmt::v10::detail::locale_ref)::{lambda(fmt::v10::appender(fmt::v10::appender))#1}::operator() const
PUBLIC 71f74 0 fmt::v10::detail::copy_str_noinline<char, char const*, fmt::v10::appender>(char const*, char const*, fmt::v10::appender)
PUBLIC 720e0 0 fmt::v10::detail::do_write_float<fmt::v10::appender, fmt::v10::detail::big_decimal_fp, char, fmt::v10::detail::digit_grouping<char> >(fmt::v10::appender, fmt::v10::detail::big_decimal_fp const&, fmt::v10::format_specs<char> const&, fmt::v10::detail::float_specs, fmt::v10::detail::locale_ref)::{lambda(fmt::v10::appender(fmt::v10::appender))#2}::operator() const
PUBLIC 7221c 0 fmt::v10::detail::write_significand<char, fmt::v10::appender, char const*, fmt::v10::detail::digit_grouping<char> >(fmt::v10::appender, char const*, int, int, fmt::v10::detail::digit_grouping<char> const&)
PUBLIC 72640 0 fmt::v10::detail::write_padded<(fmt::v10::align::type)2, fmt::v10::appender, char, fmt::v10::detail::do_write_float<fmt::v10::appender, fmt::v10::detail::big_decimal_fp, char, fmt::v10::detail::digit_grouping<char> >(fmt::v10::appender, fmt::v10::detail::big_decimal_fp const&, fmt::v10::format_specs<char> const&, fmt::v10::detail::float_specs, fmt::v10::detail::locale_ref)::{lambda(fmt::v10::appender&)#3}>(fmt::v10::appender, fmt::v10::format_specs<char> const&, unsigned long, unsigned long, fmt::v10::detail::do_write_float<fmt::v10::appender, fmt::v10::detail::big_decimal_fp, char, fmt::v10::detail::digit_grouping<char> >(fmt::v10::appender, fmt::v10::detail::big_decimal_fp const&, fmt::v10::format_specs<char> const&, fmt::v10::detail::float_specs, fmt::v10::detail::locale_ref)::{lambda(fmt::v10::appender&)#3})
PUBLIC 727ac 0 fmt::v10::detail::write_significand<fmt::v10::appender, char, char const*, fmt::v10::detail::digit_grouping<char> >(fmt::v10::appender, char const*, int, int, char, fmt::v10::detail::digit_grouping<char> const&)
PUBLIC 729d4 0 fmt::v10::detail::do_write_float<fmt::v10::appender, fmt::v10::detail::big_decimal_fp, char, fmt::v10::detail::digit_grouping<char> >(fmt::v10::appender, fmt::v10::detail::big_decimal_fp const&, fmt::v10::format_specs<char> const&, fmt::v10::detail::float_specs, fmt::v10::detail::locale_ref)::{lambda(fmt::v10::appender(fmt::v10::appender))#4}::operator() const
PUBLIC 72c78 0 fmt::v10::detail::write_padded<(fmt::v10::align::type)2, fmt::v10::appender, char, fmt::v10::detail::write_ptr<char, fmt::v10::appender, unsigned long>(fmt::v10::appender, unsigned long, fmt::v10::format_specs<char> const*)::{lambda(fmt::v10::appender&)#1}>(fmt::v10::appender, fmt::v10::format_specs<char> const&, unsigned long, unsigned long, fmt::v10::detail::write_ptr<char, fmt::v10::appender, unsigned long>(fmt::v10::appender, unsigned long, fmt::v10::format_specs<char> const*)::{lambda(fmt::v10::appender&)#1})
PUBLIC 72e48 0 fmt::v10::detail::parse_replacement_field<char, fmt::v10::detail::vformat_to<char>(fmt::v10::detail::buffer<char>&, fmt::v10::basic_string_view<char>, fmt::v10::detail::vformat_args<char>::type, fmt::v10::detail::locale_ref)::format_handler&>(char const*, char const*, fmt::v10::detail::vformat_to<char>(fmt::v10::detail::buffer<char>&, fmt::v10::basic_string_view<char>, fmt::v10::detail::vformat_args<char>::type, fmt::v10::detail::locale_ref)::format_handler&)
PUBLIC 7347c 0 fmt::v10::detail::vformat_to<char>(fmt::v10::detail::buffer<char>&, fmt::v10::basic_string_view<char>, fmt::v10::detail::vformat_args<char>::type, fmt::v10::detail::locale_ref)::format_handler::on_format_specs(int, char const*, char const*)
PUBLIC 73ff8 0 fmt::v10::detail::do_parse_arg_id<char, fmt::v10::detail::parse_replacement_field<char, fmt::v10::detail::vformat_to<char>(fmt::v10::detail::buffer<char>&, fmt::v10::basic_string_view<char>, fmt::v10::detail::vformat_args<char>::type, fmt::v10::detail::locale_ref)::format_handler&>(char const*, char const*, fmt::v10::detail::vformat_to<char>(fmt::v10::detail::buffer<char>&, fmt::v10::basic_string_view<char>, fmt::v10::detail::vformat_args<char>::type, fmt::v10::detail::locale_ref)::format_handler&)::id_adapter&>(char const*, char const*, fmt::v10::detail::parse_replacement_field<char, fmt::v10::detail::vformat_to<char>(fmt::v10::detail::buffer<char>&, fmt::v10::basic_string_view<char>, fmt::v10::detail::vformat_args<char>::type, fmt::v10::detail::locale_ref)::format_handler&>(char const*, char const*, fmt::v10::detail::vformat_to<char>(fmt::v10::detail::buffer<char>&, fmt::v10::basic_string_view<char>, fmt::v10::detail::vformat_args<char>::type, fmt::v10::detail::locale_ref)::format_handler&)::id_adapter&)
PUBLIC 74254 0 fmt::v10::detail::handle_dynamic_spec<fmt::v10::detail::width_checker, fmt::v10::basic_format_context<fmt::v10::appender, char> >(int&, fmt::v10::detail::arg_ref<fmt::v10::basic_format_context<fmt::v10::appender, char>::char_type>, fmt::v10::basic_format_context<fmt::v10::appender, char>&)
PUBLIC 74364 0 fmt::v10::detail::handle_dynamic_spec<fmt::v10::detail::precision_checker, fmt::v10::basic_format_context<fmt::v10::appender, char> >(int&, fmt::v10::detail::arg_ref<fmt::v10::basic_format_context<fmt::v10::appender, char>::char_type>, fmt::v10::basic_format_context<fmt::v10::appender, char>&)
PUBLIC 74474 0 fmt::v10::detail::parse_dynamic_spec<char>(char const*, char const*, int&, fmt::v10::detail::arg_ref<char>&, fmt::v10::basic_format_parse_context<char>&)
PUBLIC 7462c 0 fmt::v10::detail::do_parse_arg_id<char, fmt::v10::detail::dynamic_spec_id_handler<char>&>(char const*, char const*, fmt::v10::detail::dynamic_spec_id_handler<char>&)
PUBLIC 747bc 0 fmt::v10::detail::get_dynamic_spec<fmt::v10::detail::width_checker, fmt::v10::basic_format_arg<fmt::v10::basic_format_context<fmt::v10::appender, char> >, fmt::v10::detail::error_handler>(fmt::v10::basic_format_arg<fmt::v10::basic_format_context<fmt::v10::appender, char> >, fmt::v10::detail::error_handler)
PUBLIC 7484c 0 fmt::v10::basic_format_args<fmt::v10::basic_format_context<fmt::v10::appender, char> >::get<char>(fmt::v10::basic_string_view<char>) const
PUBLIC 749a8 0 fmt::v10::detail::get_dynamic_spec<fmt::v10::detail::precision_checker, fmt::v10::basic_format_arg<fmt::v10::basic_format_context<fmt::v10::appender, char> >, fmt::v10::detail::error_handler>(fmt::v10::basic_format_arg<fmt::v10::basic_format_context<fmt::v10::appender, char> >, fmt::v10::detail::error_handler)
PUBLIC 74a38 0 fmt::v10::detail::write_int_noinline<char, fmt::v10::appender, unsigned long>(fmt::v10::appender, fmt::v10::detail::write_int_arg<unsigned long>, fmt::v10::format_specs<char> const&, fmt::v10::detail::locale_ref)
PUBLIC 75538 0 fmt::v10::detail::write_int<fmt::v10::appender, char, fmt::v10::detail::write_int<char, fmt::v10::appender, unsigned long>(fmt::v10::appender, fmt::v10::detail::write_int_arg<unsigned long>, fmt::v10::format_specs<char> const&, fmt::v10::detail::locale_ref)::{lambda(fmt::v10::appender)#1}>(fmt::v10::appender, int, unsigned int, fmt::v10::format_specs<char> const&, fmt::v10::detail::write_int<char, fmt::v10::appender, unsigned long>(fmt::v10::appender, fmt::v10::detail::write_int_arg<unsigned long>, fmt::v10::format_specs<char> const&, fmt::v10::detail::locale_ref)::{lambda(fmt::v10::appender)#1})::{lambda(fmt::v10::appender(fmt::v10::appender))#1}::operator() const
PUBLIC 756d4 0 fmt::v10::detail::write_int<fmt::v10::appender, char, fmt::v10::detail::write_int<char, fmt::v10::appender, unsigned long>(fmt::v10::appender, fmt::v10::detail::write_int_arg<unsigned long>, fmt::v10::format_specs<char> const&, fmt::v10::detail::locale_ref)::{lambda(fmt::v10::appender)#2}>(fmt::v10::appender, int, unsigned int, fmt::v10::format_specs<char> const&, fmt::v10::detail::write_int<char, fmt::v10::appender, unsigned long>(fmt::v10::appender, fmt::v10::detail::write_int_arg<unsigned long>, fmt::v10::format_specs<char> const&, fmt::v10::detail::locale_ref)::{lambda(fmt::v10::appender)#2})::{lambda(fmt::v10::appender(fmt::v10::appender))#1}::operator() const
PUBLIC 75898 0 fmt::v10::detail::write_int_noinline<char, fmt::v10::appender, unsigned __int128>(fmt::v10::appender, fmt::v10::detail::write_int_arg<unsigned __int128>, fmt::v10::format_specs<char> const&, fmt::v10::detail::locale_ref)
PUBLIC 7655c 0 fmt::v10::detail::write_int<fmt::v10::appender, char, fmt::v10::detail::write_int<char, fmt::v10::appender, unsigned __int128>(fmt::v10::appender, fmt::v10::detail::write_int_arg<unsigned __int128>, fmt::v10::format_specs<char> const&, fmt::v10::detail::locale_ref)::{lambda(fmt::v10::appender)#1}>(fmt::v10::appender, int, unsigned int, fmt::v10::format_specs<char> const&, fmt::v10::detail::write_int<char, fmt::v10::appender, unsigned __int128>(fmt::v10::appender, fmt::v10::detail::write_int_arg<unsigned __int128>, fmt::v10::format_specs<char> const&, fmt::v10::detail::locale_ref)::{lambda(fmt::v10::appender)#1})::{lambda(fmt::v10::appender(fmt::v10::appender))#1}::operator() const
PUBLIC 76730 0 fmt::v10::detail::write_int<fmt::v10::appender, char, fmt::v10::detail::write_int<char, fmt::v10::appender, unsigned __int128>(fmt::v10::appender, fmt::v10::detail::write_int_arg<unsigned __int128>, fmt::v10::format_specs<char> const&, fmt::v10::detail::locale_ref)::{lambda(fmt::v10::appender)#2}>(fmt::v10::appender, int, unsigned int, fmt::v10::format_specs<char> const&, fmt::v10::detail::write_int<char, fmt::v10::appender, unsigned __int128>(fmt::v10::appender, fmt::v10::detail::write_int_arg<unsigned __int128>, fmt::v10::format_specs<char> const&, fmt::v10::detail::locale_ref)::{lambda(fmt::v10::appender)#2})::{lambda(fmt::v10::appender(fmt::v10::appender))#1}::operator() const
PUBLIC 7690c 0 fmt::v10::detail::write<char, fmt::v10::appender>(fmt::v10::appender, char, fmt::v10::format_specs<char> const&, fmt::v10::detail::locale_ref)
PUBLIC 76b00 0 fmt::v10::detail::write_float<char, fmt::v10::appender, float>(fmt::v10::appender, float, fmt::v10::format_specs<char>, fmt::v10::detail::locale_ref)
PUBLIC 76eec 0 fmt::v10::detail::format_hexfloat<double, 0>(double, int, fmt::v10::detail::float_specs, fmt::v10::detail::buffer<char>&)
PUBLIC 77454 0 fmt::v10::detail::format_float<double>(double, int, fmt::v10::detail::float_specs, fmt::v10::detail::buffer<char>&)
PUBLIC 77c40 0 fmt::v10::detail::write<char, fmt::v10::appender, unsigned long, 0>(fmt::v10::appender, unsigned long)
PUBLIC 77e14 0 fmt::v10::detail::write_float<char, fmt::v10::appender, double>(fmt::v10::appender, double, fmt::v10::format_specs<char>, fmt::v10::detail::locale_ref)
PUBLIC 781fc 0 fmt::v10::detail::write<char, fmt::v10::appender>(fmt::v10::appender, fmt::v10::basic_string_view<char>, fmt::v10::format_specs<char> const&)
PUBLIC 783d4 0 fmt::v10::detail::write_escaped_string<char, fmt::v10::detail::counting_iterator>(fmt::v10::detail::counting_iterator, fmt::v10::basic_string_view<char>)
PUBLIC 787e0 0 fmt::v10::detail::write_padded<(fmt::v10::align::type)1, fmt::v10::appender, char, fmt::v10::detail::write<char, fmt::v10::appender>(fmt::v10::appender, fmt::v10::basic_string_view<char>, fmt::v10::format_specs<char> const&)::{lambda(fmt::v10::appender)#1}>(fmt::v10::appender, fmt::v10::format_specs<char> const&, unsigned long, unsigned long, fmt::v10::detail::write<char, fmt::v10::appender>(fmt::v10::appender, fmt::v10::basic_string_view<char>, fmt::v10::format_specs<char> const&)::{lambda(fmt::v10::appender&&)#1})
PUBLIC 789e4 0 fmt::v10::detail::write_escaped_cp<fmt::v10::detail::counting_iterator, char>(fmt::v10::detail::counting_iterator, fmt::v10::detail::find_escape_result<char> const&)
PUBLIC 78b88 0 fmt::v10::detail::for_each_codepoint<fmt::v10::detail::compute_width(fmt::v10::basic_string_view<char>)::count_code_points>(fmt::v10::basic_string_view<char>, fmt::v10::detail::compute_width(fmt::v10::basic_string_view<char>)::count_code_points)::{lambda(char const*, char const*)#1}::operator()(char const*, char const*) const
PUBLIC 78d3c 0 fmt::v10::detail::write_escaped_string<char, fmt::v10::appender>(fmt::v10::appender, fmt::v10::basic_string_view<char>)
PUBLIC 792fc 0 fmt::v10::detail::loc_writer<char>::operator()<int, 0>(int)
PUBLIC 795d8 0 fmt::v10::detail::loc_writer<char>::operator()<unsigned int, 0>(unsigned int)
PUBLIC 79890 0 fmt::v10::detail::loc_writer<char>::operator()<long long, 0>(long long)
PUBLIC 79b6c 0 fmt::v10::detail::loc_writer<char>::operator()<unsigned long long, 0>(unsigned long long)
PUBLIC 79e24 0 fmt::v10::detail::loc_writer<char>::operator()<__int128, 0>(__int128)
PUBLIC 7a10c 0 fmt::v10::detail::loc_writer<char>::operator()<unsigned __int128, 0>(unsigned __int128)
PUBLIC 7a3cc 0 fmt::v10::detail::write_int<fmt::v10::appender, unsigned long, char>(fmt::v10::appender, unsigned long, unsigned int, fmt::v10::format_specs<char> const&, fmt::v10::detail::digit_grouping<char> const&)
PUBLIC 7a614 0 fmt::v10::detail::write_int<fmt::v10::appender, unsigned __int128, char>(fmt::v10::appender, unsigned __int128, unsigned int, fmt::v10::format_specs<char> const&, fmt::v10::detail::digit_grouping<char> const&)
PUBLIC m 7a92c 0 __eqtf2
PUBLIC 7a9cc 0 __unordtf2
PUBLIC 7aa04 0 __udivti3
PUBLIC 7aa10 0 __udivmodti4
PUBLIC 7ac50 0 __aarch64_ldadd8_relax
PUBLIC 7ac80 0 init_have_lse_atomics
PUBLIC 7ad18 0 init_cpu_features_resolver
PUBLIC 7b150 0 init_cpu_features
PUBLIC 7b1f0 0 __aarch64_ldadd8_acq_rel
PUBLIC 7b220 0 <.plt ELF section in geode.node-ids.android64.so>
STACK CFI INIT 2c760 10 .cfa: sp 0 +
STACK CFI INIT 2c770 8 .cfa: sp 0 +
STACK CFI INIT 2c778 8 .cfa: sp 0 +
STACK CFI INIT 2c780 14 .cfa: sp 0 +
STACK CFI INIT 2c794 1c .cfa: sp 0 +
STACK CFI INIT 2c7b0 10 .cfa: sp 0 +
STACK CFI INIT 2cde0 144 .cfa: sp 0 +
STACK CFI 2cde4 .cfa: sp 64 +
STACK CFI 2cdf4 .cfa: x29 64 + x19: .cfa -8 + ^ x20: .cfa -16 + ^ x21: .cfa -24 + ^ x22: .cfa -32 + ^ x23: .cfa -48 + ^ .ra: .cfa -56 + ^ x29: .cfa -64 + ^
STACK CFI 2ce94 .cfa: sp 64 +
STACK CFI 2cea4 .cfa: sp 0 +
STACK CFI 2cea8 .cfa: x29 64 +
STACK CFI 2ceac .cfa: sp 64 +
STACK CFI 2cebc .cfa: sp 0 +
STACK CFI 2cec0 .cfa: x29 64 +
STACK CFI INIT 2d0a0 68 .cfa: sp 0 +
STACK CFI 2d0a4 .cfa: sp 32 +
STACK CFI 2d0ac .cfa: x29 32 + x19: .cfa -16 + ^ .ra: .cfa -24 + ^ x29: .cfa -32 + ^
STACK CFI 2d0f0 .cfa: sp 32 +
STACK CFI 2d0f8 .cfa: sp 0 +
STACK CFI 2d0fc .cfa: sp 32 +
STACK CFI 2d104 .cfa: sp 0 +
STACK CFI INIT 2d108 1c .cfa: sp 0 +
STACK CFI INIT 2d124 14 .cfa: sp 0 +
STACK CFI 2d128 .cfa: sp 16 +
STACK CFI 2d12c .cfa: x29 16 + .ra: .cfa -8 + ^ x29: .cfa -16 + ^
STACK CFI INIT 2d188 30 .cfa: sp 0 +
STACK CFI 2d18c .cfa: sp 32 +
STACK CFI 2d194 .cfa: x29 32 + x19: .cfa -16 + ^ .ra: .cfa -24 + ^ x29: .cfa -32 + ^
STACK CFI 2d1ac .cfa: sp 32 +
STACK CFI 2d1b4 .cfa: sp 0 +
STACK CFI INIT 2d1b8 34 .cfa: sp 0 +
STACK CFI 2d1bc .cfa: sp 32 +
STACK CFI 2d1c4 .cfa: x29 32 + x19: .cfa -16 + ^ .ra: .cfa -24 + ^ x29: .cfa -32 + ^
STACK CFI INIT 2d1ec 10 .cfa: sp 0 +
STACK CFI 2d1f0 .cfa: sp 16 +
STACK CFI 2d1f4 .cfa: x29 16 + .ra: .cfa -8 + ^ x29: .cfa -16 + ^
STACK CFI INIT 2d8e8 4c .cfa: sp 0 +
STACK CFI 2d8ec .cfa: sp 32 +
STACK CFI 2d8f4 .cfa: x29 32 + x19: .cfa -16 + ^ .ra: .cfa -24 + ^ x29: .cfa -32 + ^
STACK CFI 2d91c .cfa: sp 32 +
STACK CFI 2d924 .cfa: sp 0 +
STACK CFI 2d928 .cfa: sp 32 +
STACK CFI 2d930 .cfa: sp 0 +
STACK CFI INIT 2d934 4b8 .cfa: sp 0 +
STACK CFI 2d938 .cfa: sp 16 + x19: .cfa -16 + ^
STACK CFI 2d998 .cfa: sp 0 +
STACK CFI 2d99c .cfa: sp 16 +
STACK CFI 2dab8 .cfa: sp 0 +
STACK CFI 2dabc .cfa: sp 16 +
STACK CFI 2db68 .cfa: sp 0 +
STACK CFI 2db6c .cfa: sp 16 +
STACK CFI 2dd40 .cfa: sp 0 +
STACK CFI 2dd44 .cfa: sp 16 +
STACK CFI 2dd8c .cfa: sp 0 +
STACK CFI 2dd90 .cfa: sp 16 +
STACK CFI 2dde8 .cfa: sp 0 +
STACK CFI INIT 2ddec 1d8 .cfa: sp 0 +
STACK CFI 2ddf0 .cfa: sp 32 +
STACK CFI 2ddf8 .cfa: x29 32 + x19: .cfa -8 + ^ x20: .cfa -16 + ^ .ra: .cfa -24 + ^ x29: .cfa -32 + ^
STACK CFI 2de84 .cfa: sp 32 +
STACK CFI 2de8c .cfa: sp 0 +
STACK CFI 2de90 .cfa: x29 32 +
STACK CFI 2dea4 .cfa: sp 32 +
STACK CFI 2deac .cfa: sp 0 +
STACK CFI 2deb0 .cfa: x29 32 +
STACK CFI INIT 2dfc4 44 .cfa: sp 0 +
STACK CFI 2dfc8 .cfa: sp 32 +
STACK CFI 2dfd0 .cfa: x29 32 + x19: .cfa -16 + ^ .ra: .cfa -24 + ^ x29: .cfa -32 + ^
STACK CFI 2dffc .cfa: sp 32 +
STACK CFI 2e004 .cfa: sp 0 +
STACK CFI INIT 2e008 3c .cfa: sp 0 +
STACK CFI 2e00c .cfa: sp 32 +
STACK CFI 2e014 .cfa: x29 32 + x19: .cfa -16 + ^ .ra: .cfa -24 + ^ x29: .cfa -32 + ^
STACK CFI 2e038 .cfa: sp 32 +
STACK CFI 2e040 .cfa: sp 0 +
STACK CFI INIT 2e044 44 .cfa: sp 0 +
STACK CFI 2e048 .cfa: sp 32 +
STACK CFI 2e050 .cfa: x29 32 + x19: .cfa -16 + ^ .ra: .cfa -24 + ^ x29: .cfa -32 + ^
STACK CFI 2e07c .cfa: sp 32 +
STACK CFI 2e084 .cfa: sp 0 +
STACK CFI INIT 2e088 100 .cfa: sp 0 +
STACK CFI 2e08c .cfa: sp 64 +
STACK CFI 2e09c .cfa: x29 64 + x19: .cfa -8 + ^ x20: .cfa -16 + ^ x21: .cfa -24 + ^ x22: .cfa -32 + ^ x23: .cfa -48 + ^ .ra: .cfa -56 + ^ x29: .cfa -64 + ^
STACK CFI 2e0f4 .cfa: sp 64 +
STACK CFI 2e104 .cfa: sp 0 +
STACK CFI 2e108 .cfa: x29 64 +
STACK CFI 2e124 .cfa: sp 64 +
STACK CFI 2e134 .cfa: sp 0 +
STACK CFI 2e138 .cfa: x29 64 +
STACK CFI 2e174 .cfa: sp 64 +
STACK CFI 2e184 .cfa: sp 0 +
STACK CFI INIT 2ea24 50 .cfa: sp 0 +
STACK CFI 2ea28 .cfa: sp 32 +
STACK CFI 2ea30 .cfa: x29 32 + x19: .cfa -16 + ^ .ra: .cfa -24 + ^ x29: .cfa -32 + ^
STACK CFI 2ea48 .cfa: sp 32 +
STACK CFI 2ea50 .cfa: sp 0 +
STACK CFI 2ea54 .cfa: x29 32 +
STACK CFI 2ea68 .cfa: sp 32 +
STACK CFI 2ea70 .cfa: sp 0 +
STACK CFI INIT 2ea74 7c .cfa: sp 0 +
STACK CFI 2ea78 .cfa: sp 48 +
STACK CFI 2ea84 .cfa: x29 48 + x19: .cfa -8 + ^ x20: .cfa -16 + ^ x21: .cfa -32 + ^ .ra: .cfa -40 + ^ x29: .cfa -48 + ^
STACK CFI 2eac8 .cfa: sp 48 +
STACK CFI 2ead4 .cfa: sp 0 +
STACK CFI 2ead8 .cfa: x29 48 +
STACK CFI 2eae0 .cfa: sp 48 +
STACK CFI 2eaec .cfa: sp 0 +
STACK CFI INIT 2eaf0 4 .cfa: sp 0 +
STACK CFI INIT 2edb0 10c .cfa: sp 0 +
STACK CFI 2edb4 .cfa: sp 64 +
STACK CFI 2edc4 .cfa: x29 64 + x19: .cfa -8 + ^ x20: .cfa -16 + ^ x21: .cfa -24 + ^ x22: .cfa -32 + ^ x23: .cfa -40 + ^ x24: .cfa -48 + ^ .ra: .cfa -56 + ^ x29: .cfa -64 + ^
STACK CFI 2eea8 .cfa: sp 64 +
STACK CFI 2eeb8 .cfa: sp 0 +
STACK CFI INIT 2f048 104 .cfa: sp 0 +
STACK CFI 2f04c .cfa: sp 80 +
STACK CFI 2f060 .cfa: x29 80 + x19: .cfa -8 + ^ x20: .cfa -16 + ^ x21: .cfa -24 + ^ x22: .cfa -32 + ^ x23: .cfa -40 + ^ x24: .cfa -48 + ^ x25: .cfa -56 + ^ x26: .cfa -64 + ^ .ra: .cfa -72 + ^ x29: .cfa -80 + ^
STACK CFI 2f134 .cfa: sp 80 +
STACK CFI 2f148 .cfa: sp 0 +
STACK CFI INIT 2f14c 1b4 .cfa: sp 0 +
STACK CFI INIT 2f300 3c .cfa: sp 0 +
STACK CFI 2f304 .cfa: sp 32 +
STACK CFI 2f30c .cfa: x29 32 + x19: .cfa -16 + ^ .ra: .cfa -24 + ^ x29: .cfa -32 + ^
STACK CFI 2f330 .cfa: sp 32 +
STACK CFI 2f338 .cfa: sp 0 +
STACK CFI INIT 2f33c 44 .cfa: sp 0 +
STACK CFI 2f340 .cfa: sp 32 +
STACK CFI 2f348 .cfa: x29 32 + x19: .cfa -16 + ^ .ra: .cfa -24 + ^ x29: .cfa -32 + ^
STACK CFI 2f374 .cfa: sp 32 +
STACK CFI 2f37c .cfa: sp 0 +
STACK CFI INIT 2f620 68 .cfa: sp 0 +
STACK CFI 2f624 .cfa: sp 32 +
STACK CFI 2f62c .cfa: x29 32 + x19: .cfa -8 + ^ x20: .cfa -16 + ^ .ra: .cfa -24 + ^ x29: .cfa -32 + ^
STACK CFI 2f644 .cfa: sp 32 +
STACK CFI 2f64c .cfa: sp 0 +
STACK CFI 2f650 .cfa: x29 32 +
STACK CFI 2f67c .cfa: sp 32 +
STACK CFI 2f684 .cfa: sp 0 +
STACK CFI INIT 2f688 14 .cfa: sp 0 +
STACK CFI 2f68c .cfa: sp 16 +
STACK CFI 2f690 .cfa: x29 16 + .ra: .cfa -8 + ^ x29: .cfa -16 + ^
STACK CFI INIT 2f69c d4 .cfa: sp 0 +
STACK CFI 2f6a0 .cfa: sp 48 +
STACK CFI 2f6ac .cfa: x29 48 + x19: .cfa -8 + ^ x20: .cfa -16 + ^ x21: .cfa -32 + ^ .ra: .cfa -40 + ^ x29: .cfa -48 + ^
STACK CFI 2f73c .cfa: sp 48 +
STACK CFI 2f748 .cfa: sp 0 +
STACK CFI 2f74c .cfa: x29 48 +
STACK CFI INIT 2f770 3cc .cfa: sp 0 +
STACK CFI INIT 2fb3c 8c .cfa: sp 0 +
STACK CFI 2fb44 .cfa: sp 32 +
STACK CFI 2fb4c .cfa: x29 32 + x19: .cfa -8 + ^ x20: .cfa -16 + ^ .ra: .cfa -24 + ^ x29: .cfa -32 + ^
STACK CFI 2fb94 .cfa: sp 32 +
STACK CFI 2fb9c .cfa: sp 0 +
STACK CFI 2fba4 .cfa: x29 32 +
STACK CFI INIT 2fd48 4 .cfa: sp 0 +
STACK CFI INIT 2fd4c 50 .cfa: sp 0 +
STACK CFI 2fd50 .cfa: sp 32 +
STACK CFI 2fd58 .cfa: x29 32 + x19: .cfa -16 + ^ .ra: .cfa -24 + ^ x29: .cfa -32 + ^
STACK CFI 2fd70 .cfa: sp 32 +
STACK CFI 2fd78 .cfa: sp 0 +
STACK CFI 2fd7c .cfa: x29 32 +
STACK CFI 2fd90 .cfa: sp 32 +
STACK CFI 2fd98 .cfa: sp 0 +
STACK CFI INIT 2fd9c 64 .cfa: sp 0 +
STACK CFI 2fda0 .cfa: sp 32 +
STACK CFI 2fda8 .cfa: x29 32 + x19: .cfa -16 + ^ .ra: .cfa -24 + ^ x29: .cfa -32 + ^
STACK CFI 2fdd4 .cfa: sp 32 +
STACK CFI 2fddc .cfa: sp 0 +
STACK CFI 2fde0 .cfa: x29 32 +
STACK CFI 2fdf4 .cfa: sp 32 +
STACK CFI 2fdfc .cfa: sp 0 +
STACK CFI INIT 30274 30 .cfa: sp 0 +
STACK CFI 30278 .cfa: sp 32 +
STACK CFI 30280 .cfa: x29 32 + x19: .cfa -16 + ^ .ra: .cfa -24 + ^ x29: .cfa -32 + ^
STACK CFI 30298 .cfa: sp 32 +
STACK CFI 302a0 .cfa: sp 0 +
STACK CFI INIT 31088 68 .cfa: sp 0 +
STACK CFI 3108c .cfa: sp 32 +
STACK CFI 31094 .cfa: x29 32 + x19: .cfa -16 + ^ .ra: .cfa -24 + ^ x29: .cfa -32 + ^
STACK CFI 310d8 .cfa: sp 32 +
STACK CFI 310e0 .cfa: sp 0 +
STACK CFI 310e4 .cfa: sp 32 +
STACK CFI 310ec .cfa: sp 0 +
STACK CFI INIT 310f0 1c .cfa: sp 0 +
STACK CFI INIT 312e4 44 .cfa: sp 0 +
STACK CFI 312e8 .cfa: sp 32 +
STACK CFI 312f0 .cfa: x29 32 + x19: .cfa -16 + ^ .ra: .cfa -24 + ^ x29: .cfa -32 + ^
STACK CFI 3131c .cfa: sp 32 +
STACK CFI 31324 .cfa: sp 0 +
STACK CFI INIT 31b80 4 .cfa: sp 0 +
STACK CFI INIT 31e74 38 .cfa: sp 0 +
STACK CFI 31e78 .cfa: sp 32 +
STACK CFI 31e80 .cfa: x29 32 + x19: .cfa -8 + ^ x20: .cfa -16 + ^ .ra: .cfa -24 + ^ x29: .cfa -32 + ^
STACK CFI 31ea0 .cfa: sp 32 +
STACK CFI 31ea8 .cfa: sp 0 +
STACK CFI INIT 32b10 68 .cfa: sp 0 +
STACK CFI 32b14 .cfa: sp 32 +
STACK CFI 32b1c .cfa: x29 32 + x19: .cfa -16 + ^ .ra: .cfa -24 + ^ x29: .cfa -32 + ^
STACK CFI 32b60 .cfa: sp 32 +
STACK CFI 32b68 .cfa: sp 0 +
STACK CFI 32b6c .cfa: sp 32 +
STACK CFI 32b74 .cfa: sp 0 +
STACK CFI INIT 32b78 1c .cfa: sp 0 +
STACK CFI INIT 333f8 4 .cfa: sp 0 +
STACK CFI INIT 336d0 54 .cfa: sp 0 +
STACK CFI 336d4 .cfa: sp 48 +
STACK CFI 336e0 .cfa: x29 48 + x19: .cfa -8 + ^ x20: .cfa -16 + ^ x21: .cfa -32 + ^ .ra: .cfa -40 + ^ x29: .cfa -48 + ^
STACK CFI 33714 .cfa: sp 48 +
STACK CFI 33720 .cfa: sp 0 +
STACK CFI INIT 339c4 14 .cfa: sp 0 +
STACK CFI 339c8 .cfa: sp 16 +
STACK CFI 339cc .cfa: x29 16 + .ra: .cfa -8 + ^ x29: .cfa -16 + ^
STACK CFI INIT 33f50 ac .cfa: sp 0 +
STACK CFI 33f54 .cfa: sp 48 +
STACK CFI 33f60 .cfa: x29 48 + x19: .cfa -8 + ^ x20: .cfa -16 + ^ x21: .cfa -24 + ^ x22: .cfa -32 + ^ .ra: .cfa -40 + ^ x29: .cfa -48 + ^
STACK CFI 33fe0 .cfa: sp 48 +
STACK CFI 33fec .cfa: sp 0 +
STACK CFI 33ff0 .cfa: x29 48 +
STACK CFI INIT 340c0 14 .cfa: sp 0 +
STACK CFI 340c4 .cfa: sp 16 +
STACK CFI 340c8 .cfa: x29 16 + .ra: .cfa -8 + ^ x29: .cfa -16 + ^
STACK CFI INIT 34304 5c .cfa: sp 0 +
STACK CFI 34308 .cfa: sp 32 +
STACK CFI 34310 .cfa: x29 32 + x19: .cfa -8 + ^ x20: .cfa -16 + ^ .ra: .cfa -24 + ^ x29: .cfa -32 + ^
STACK CFI 34348 .cfa: sp 32 +
STACK CFI 34350 .cfa: sp 0 +
STACK CFI 34354 .cfa: sp 32 +
STACK CFI 3435c .cfa: sp 0 +
STACK CFI INIT 34360 14 .cfa: sp 0 +
STACK CFI 34364 .cfa: sp 16 +
STACK CFI 34368 .cfa: x29 16 + .ra: .cfa -8 + ^ x29: .cfa -16 + ^
STACK CFI INIT 34374 14 .cfa: sp 0 +
STACK CFI 34378 .cfa: sp 16 +
STACK CFI 3437c .cfa: x29 16 + .ra: .cfa -8 + ^ x29: .cfa -16 + ^
STACK CFI INIT 34388 14 .cfa: sp 0 +
STACK CFI 3438c .cfa: sp 16 +
STACK CFI 34390 .cfa: x29 16 + .ra: .cfa -8 + ^ x29: .cfa -16 + ^
STACK CFI INIT 343e4 8 .cfa: sp 0 +
STACK CFI INIT 34438 4 .cfa: sp 0 +
STACK CFI INIT 3443c 4 .cfa: sp 0 +
STACK CFI INIT 34440 c .cfa: sp 0 +
STACK CFI INIT 3444c 34 .cfa: sp 0 +
STACK CFI 34450 .cfa: sp 32 +
STACK CFI 34458 .cfa: x29 32 + x19: .cfa -16 + ^ .ra: .cfa -24 + ^ x29: .cfa -32 + ^
STACK CFI 34474 .cfa: sp 32 +
STACK CFI 3447c .cfa: sp 0 +
STACK CFI INIT 34654 44 .cfa: sp 0 +
STACK CFI 34658 .cfa: sp 32 +
STACK CFI 34660 .cfa: x29 32 + x19: .cfa -16 + ^ .ra: .cfa -24 + ^ x29: .cfa -32 + ^
STACK CFI 3468c .cfa: sp 32 +
STACK CFI 34694 .cfa: sp 0 +
STACK CFI INIT 350cc 68 .cfa: sp 0 +
STACK CFI 350d0 .cfa: sp 32 +
STACK CFI 350d8 .cfa: x29 32 + x19: .cfa -16 + ^ .ra: .cfa -24 + ^ x29: .cfa -32 + ^
STACK CFI 3511c .cfa: sp 32 +
STACK CFI 35124 .cfa: sp 0 +
STACK CFI 35128 .cfa: sp 32 +
STACK CFI 35130 .cfa: sp 0 +
STACK CFI INIT 35134 1c .cfa: sp 0 +
STACK CFI INIT 35324 44 .cfa: sp 0 +
STACK CFI 35328 .cfa: sp 32 +
STACK CFI 35330 .cfa: x29 32 + x19: .cfa -16 + ^ .ra: .cfa -24 + ^ x29: .cfa -32 + ^
STACK CFI 3535c .cfa: sp 32 +
STACK CFI 35364 .cfa: sp 0 +
STACK CFI INIT 35bcc 4 .cfa: sp 0 +
STACK CFI INIT 35f0c 38 .cfa: sp 0 +
STACK CFI 35f10 .cfa: sp 32 +
STACK CFI 35f18 .cfa: x29 32 + x19: .cfa -8 + ^ x20: .cfa -16 + ^ .ra: .cfa -24 + ^ x29: .cfa -32 + ^
STACK CFI 35f38 .cfa: sp 32 +
STACK CFI 35f40 .cfa: sp 0 +
STACK CFI INIT 36aa4 184 .cfa: sp 0 +
STACK CFI 36aa8 .cfa: sp 160 +
STACK CFI 36ac4 .cfa: x29 96 + x19: .cfa -8 + ^ x20: .cfa -16 + ^ x21: .cfa -24 + ^ x22: .cfa -32 + ^ x23: .cfa -40 + ^ x24: .cfa -48 + ^ x25: .cfa -56 + ^ x26: .cfa -64 + ^ x27: .cfa -72 + ^ x28: .cfa -80 + ^ .ra: .cfa -88 + ^ x29: .cfa -96 + ^
STACK CFI 36c08 .cfa: sp 160 +
STACK CFI 36c24 .cfa: sp 0 +
STACK CFI INIT 36c28 68 .cfa: sp 0 +
STACK CFI 36c2c .cfa: sp 32 +
STACK CFI 36c34 .cfa: x29 32 + x19: .cfa -16 + ^ .ra: .cfa -24 + ^ x29: .cfa -32 + ^
STACK CFI 36c78 .cfa: sp 32 +
STACK CFI 36c80 .cfa: sp 0 +
STACK CFI 36c84 .cfa: sp 32 +
STACK CFI 36c8c .cfa: sp 0 +
STACK CFI INIT 36c90 1c .cfa: sp 0 +
STACK CFI INIT 36e80 44 .cfa: sp 0 +
STACK CFI 36e84 .cfa: sp 32 +
STACK CFI 36e8c .cfa: x29 32 + x19: .cfa -16 + ^ .ra: .cfa -24 + ^ x29: .cfa -32 + ^
STACK CFI 36eb8 .cfa: sp 32 +
STACK CFI 36ec0 .cfa: sp 0 +
STACK CFI INIT 37728 4 .cfa: sp 0 +
STACK CFI INIT 37a68 38 .cfa: sp 0 +
STACK CFI 37a6c .cfa: sp 32 +
STACK CFI 37a74 .cfa: x29 32 + x19: .cfa -8 + ^ x20: .cfa -16 + ^ .ra: .cfa -24 + ^ x29: .cfa -32 + ^
STACK CFI 37a94 .cfa: sp 32 +
STACK CFI 37a9c .cfa: sp 0 +
STACK CFI INIT 3a46c 154 .cfa: sp 0 +
STACK CFI 3a470 .cfa: sp 144 +
STACK CFI 3a48c .cfa: x29 96 + x19: .cfa -8 + ^ x20: .cfa -16 + ^ x21: .cfa -24 + ^ x22: .cfa -32 + ^ x23: .cfa -40 + ^ x24: .cfa -48 + ^ x25: .cfa -56 + ^ x26: .cfa -64 + ^ x27: .cfa -72 + ^ x28: .cfa -80 + ^ .ra: .cfa -88 + ^ x29: .cfa -96 + ^
STACK CFI 3a5a0 .cfa: sp 144 +
STACK CFI 3a5bc .cfa: sp 0 +
STACK CFI INIT 3a5c0 2dc .cfa: sp 0 +
STACK CFI 3a5c4 .cfa: sp 304 +
STACK CFI 3a5e0 .cfa: x29 96 + x19: .cfa -8 + ^ x20: .cfa -16 + ^ x21: .cfa -24 + ^ x22: .cfa -32 + ^ x23: .cfa -40 + ^ x24: .cfa -48 + ^ x25: .cfa -56 + ^ x26: .cfa -64 + ^ x27: .cfa -72 + ^ x28: .cfa -80 + ^ .ra: .cfa -88 + ^ x29: .cfa -96 + ^
STACK CFI 3a87c .cfa: sp 304 +
STACK CFI 3a898 .cfa: sp 0 +
STACK CFI INIT 3a9e0 68 .cfa: sp 0 +
STACK CFI 3a9e4 .cfa: sp 32 +
STACK CFI 3a9ec .cfa: x29 32 + x19: .cfa -16 + ^ .ra: .cfa -24 + ^ x29: .cfa -32 + ^
STACK CFI 3aa30 .cfa: sp 32 +
STACK CFI 3aa38 .cfa: sp 0 +
STACK CFI 3aa3c .cfa: sp 32 +
STACK CFI 3aa44 .cfa: sp 0 +
STACK CFI INIT 3aa48 1c .cfa: sp 0 +
STACK CFI INIT 3aa64 24 .cfa: sp 0 +
STACK CFI 3aa68 .cfa: sp 32 +
STACK CFI 3aa70 .cfa: x29 32 + x19: .cfa -16 + ^ .ra: .cfa -24 + ^ x29: .cfa -32 + ^
STACK CFI 3aa7c .cfa: sp 32 +
STACK CFI 3aa84 .cfa: sp 0 +
STACK CFI INIT 3aa88 8c .cfa: sp 0 +
STACK CFI 3aa8c .cfa: sp 48 +
STACK CFI 3aa98 .cfa: x29 48 + x19: .cfa -8 + ^ x20: .cfa -16 + ^ x21: .cfa -32 + ^ .ra: .cfa -40 + ^ x29: .cfa -48 + ^
STACK CFI 3ab04 .cfa: sp 48 +
STACK CFI 3ab10 .cfa: sp 0 +
STACK CFI INIT 3ab14 4 .cfa: sp 0 +
STACK CFI INIT 3ab18 8 .cfa: sp 0 +
STACK CFI INIT 3ab20 68 .cfa: sp 0 +
STACK CFI 3ab24 .cfa: sp 32 +
STACK CFI 3ab2c .cfa: x29 32 + x19: .cfa -16 + ^ .ra: .cfa -24 + ^ x29: .cfa -32 + ^
STACK CFI 3ab7c .cfa: sp 32 +
STACK CFI 3ab84 .cfa: sp 0 +
STACK CFI INIT 3ab88 4 .cfa: sp 0 +
STACK CFI INIT 3ab8c 8 .cfa: sp 0 +
STACK CFI INIT 3ad60 44 .cfa: sp 0 +
STACK CFI 3ad64 .cfa: sp 32 +
STACK CFI 3ad6c .cfa: x29 32 + x19: .cfa -16 + ^ .ra: .cfa -24 + ^ x29: .cfa -32 + ^
STACK CFI 3ad98 .cfa: sp 32 +
STACK CFI 3ada0 .cfa: sp 0 +
STACK CFI INIT 3ada4 118 .cfa: sp 0 +
STACK CFI 3ada8 .cfa: sp 80 +
STACK CFI 3adb8 .cfa: x29 48 + x19: .cfa -8 + ^ x20: .cfa -16 + ^ x21: .cfa -24 + ^ x22: .cfa -32 + ^ .ra: .cfa -40 + ^ x29: .cfa -48 + ^
STACK CFI 3aea4 .cfa: sp 80 +
STACK CFI 3aeb4 .cfa: sp 0 +
STACK CFI 3aeb8 .cfa: x29 48 +
STACK CFI INIT 3b710 4 .cfa: sp 0 +
STACK CFI INIT 3ba50 38 .cfa: sp 0 +
STACK CFI 3ba54 .cfa: sp 32 +
STACK CFI 3ba5c .cfa: x29 32 + x19: .cfa -8 + ^ x20: .cfa -16 + ^ .ra: .cfa -24 + ^ x29: .cfa -32 + ^
STACK CFI 3ba7c .cfa: sp 32 +
STACK CFI 3ba84 .cfa: sp 0 +
STACK CFI INIT 3e290 19c .cfa: sp 0 +
STACK CFI 3e294 .cfa: sp 160 +
STACK CFI 3e2b0 .cfa: x29 96 + x19: .cfa -8 + ^ x20: .cfa -16 + ^ x21: .cfa -24 + ^ x22: .cfa -32 + ^ x23: .cfa -40 + ^ x24: .cfa -48 + ^ x25: .cfa -56 + ^ x26: .cfa -64 + ^ x27: .cfa -72 + ^ x28: .cfa -80 + ^ .ra: .cfa -88 + ^ x29: .cfa -96 + ^
STACK CFI 3e40c .cfa: sp 160 +
STACK CFI 3e428 .cfa: sp 0 +
STACK CFI INIT 3ee30 12c .cfa: sp 0 +
STACK CFI 3ee34 .cfa: sp 128 +
STACK CFI 3ee50 .cfa: x29 96 + x19: .cfa -8 + ^ x20: .cfa -16 + ^ x21: .cfa -24 + ^ x22: .cfa -32 + ^ x23: .cfa -40 + ^ x24: .cfa -48 + ^ x25: .cfa -56 + ^ x26: .cfa -64 + ^ x27: .cfa -72 + ^ x28: .cfa -80 + ^ .ra: .cfa -88 + ^ x29: .cfa -96 + ^
STACK CFI 3ef3c .cfa: sp 128 +
STACK CFI 3ef58 .cfa: sp 0 +
STACK CFI INIT 3ef5c 1ac .cfa: sp 0 +
STACK CFI 3ef60 .cfa: sp 176 +
STACK CFI 3ef7c .cfa: x29 96 + x19: .cfa -8 + ^ x20: .cfa -16 + ^ x21: .cfa -24 + ^ x22: .cfa -32 + ^ x23: .cfa -40 + ^ x24: .cfa -48 + ^ x25: .cfa -56 + ^ x26: .cfa -64 + ^ x27: .cfa -72 + ^ x28: .cfa -80 + ^ .ra: .cfa -88 + ^ x29: .cfa -96 + ^
STACK CFI 3f0e8 .cfa: sp 176 +
STACK CFI 3f104 .cfa: sp 0 +
STACK CFI INIT 3f108 68 .cfa: sp 0 +
STACK CFI 3f10c .cfa: sp 32 +
STACK CFI 3f114 .cfa: x29 32 + x19: .cfa -16 + ^ .ra: .cfa -24 + ^ x29: .cfa -32 + ^
STACK CFI 3f158 .cfa: sp 32 +
STACK CFI 3f160 .cfa: sp 0 +
STACK CFI 3f164 .cfa: sp 32 +
STACK CFI 3f16c .cfa: sp 0 +
STACK CFI INIT 3f170 1c .cfa: sp 0 +
STACK CFI INIT 3f330 44 .cfa: sp 0 +
STACK CFI 3f334 .cfa: sp 32 +
STACK CFI 3f33c .cfa: x29 32 + x19: .cfa -16 + ^ .ra: .cfa -24 + ^ x29: .cfa -32 + ^
STACK CFI 3f368 .cfa: sp 32 +
STACK CFI 3f370 .cfa: sp 0 +
STACK CFI INIT 3f374 118 .cfa: sp 0 +
STACK CFI 3f378 .cfa: sp 80 +
STACK CFI 3f388 .cfa: x29 48 + x19: .cfa -8 + ^ x20: .cfa -16 + ^ x21: .cfa -24 + ^ x22: .cfa -32 + ^ .ra: .cfa -40 + ^ x29: .cfa -48 + ^
STACK CFI 3f474 .cfa: sp 80 +
STACK CFI 3f484 .cfa: sp 0 +
STACK CFI 3f488 .cfa: x29 48 +
STACK CFI INIT 3fcd8 4 .cfa: sp 0 +
STACK CFI INIT 40018 38 .cfa: sp 0 +
STACK CFI 4001c .cfa: sp 32 +
STACK CFI 40024 .cfa: x29 32 + x19: .cfa -8 + ^ x20: .cfa -16 + ^ .ra: .cfa -24 + ^ x29: .cfa -32 + ^
STACK CFI 40044 .cfa: sp 32 +
STACK CFI 4004c .cfa: sp 0 +
STACK CFI INIT 40c9c 144 .cfa: sp 0 +
STACK CFI 40ca0 .cfa: sp 128 +
STACK CFI 40cbc .cfa: x29 96 + x19: .cfa -8 + ^ x20: .cfa -16 + ^ x21: .cfa -24 + ^ x22: .cfa -32 + ^ x23: .cfa -40 + ^ x24: .cfa -48 + ^ x25: .cfa -56 + ^ x26: .cfa -64 + ^ x27: .cfa -72 + ^ x28: .cfa -80 + ^ .ra: .cfa -88 + ^ x29: .cfa -96 + ^
STACK CFI 40dc0 .cfa: sp 128 +
STACK CFI 40ddc .cfa: sp 0 +
STACK CFI INIT 41020 68 .cfa: sp 0 +
STACK CFI 41024 .cfa: sp 32 +
STACK CFI 4102c .cfa: x29 32 + x19: .cfa -16 + ^ .ra: .cfa -24 + ^ x29: .cfa -32 + ^
STACK CFI 41070 .cfa: sp 32 +
STACK CFI 41078 .cfa: sp 0 +
STACK CFI 4107c .cfa: sp 32 +
STACK CFI 41084 .cfa: sp 0 +
STACK CFI INIT 41088 1c .cfa: sp 0 +
STACK CFI INIT 41278 44 .cfa: sp 0 +
STACK CFI 4127c .cfa: sp 32 +
STACK CFI 41284 .cfa: x29 32 + x19: .cfa -16 + ^ .ra: .cfa -24 + ^ x29: .cfa -32 + ^
STACK CFI 412b0 .cfa: sp 32 +
STACK CFI 412b8 .cfa: sp 0 +
STACK CFI INIT 41d64 4 .cfa: sp 0 +
STACK CFI INIT 4223c 38 .cfa: sp 0 +
STACK CFI 42240 .cfa: sp 32 +
STACK CFI 42248 .cfa: x29 32 + x19: .cfa -8 + ^ x20: .cfa -16 + ^ .ra: .cfa -24 + ^ x29: .cfa -32 + ^
STACK CFI 42268 .cfa: sp 32 +
STACK CFI 42270 .cfa: sp 0 +
STACK CFI INIT 42c04 68 .cfa: sp 0 +
STACK CFI 42c08 .cfa: sp 32 +
STACK CFI 42c10 .cfa: x29 32 + x19: .cfa -16 + ^ .ra: .cfa -24 + ^ x29: .cfa -32 + ^
STACK CFI 42c54 .cfa: sp 32 +
STACK CFI 42c5c .cfa: sp 0 +
STACK CFI 42c60 .cfa: sp 32 +
STACK CFI 42c68 .cfa: sp 0 +
STACK CFI INIT 42c6c 1c .cfa: sp 0 +
STACK CFI INIT 42e68 44 .cfa: sp 0 +
STACK CFI 42e6c .cfa: sp 32 +
STACK CFI 42e74 .cfa: x29 32 + x19: .cfa -16 + ^ .ra: .cfa -24 + ^ x29: .cfa -32 + ^
STACK CFI 42ea0 .cfa: sp 32 +
STACK CFI 42ea8 .cfa: sp 0 +
STACK CFI INIT 43748 4 .cfa: sp 0 +
STACK CFI INIT 43a88 28 .cfa: sp 0 +
STACK CFI 43a8c .cfa: sp 32 +
STACK CFI 43a94 .cfa: x29 32 + x19: .cfa -16 + ^ .ra: .cfa -24 + ^ x29: .cfa -32 + ^
STACK CFI 43aa4 .cfa: sp 32 +
STACK CFI 43aac .cfa: sp 0 +
STACK CFI INIT 43cac 68 .cfa: sp 0 +
STACK CFI 43cb0 .cfa: sp 32 +
STACK CFI 43cb8 .cfa: x29 32 + x19: .cfa -16 + ^ .ra: .cfa -24 + ^ x29: .cfa -32 + ^
STACK CFI 43cfc .cfa: sp 32 +
STACK CFI 43d04 .cfa: sp 0 +
STACK CFI 43d08 .cfa: sp 32 +
STACK CFI 43d10 .cfa: sp 0 +
STACK CFI INIT 43d14 1c .cfa: sp 0 +
STACK CFI INIT 448bc 4 .cfa: sp 0 +
STACK CFI INIT 44bfc 4 .cfa: sp 0 +
STACK CFI INIT 44d34 4 .cfa: sp 0 +
STACK CFI INIT 47788 88 .cfa: sp 0 +
STACK CFI 4778c .cfa: sp 48 +
STACK CFI 47798 .cfa: x29 48 + x19: .cfa -8 + ^ x20: .cfa -16 + ^ x21: .cfa -24 + ^ x22: .cfa -32 + ^ .ra: .cfa -40 + ^ x29: .cfa -48 + ^
STACK CFI 477f8 .cfa: sp 48 +
STACK CFI 47804 .cfa: sp 0 +
STACK CFI 47808 .cfa: x29 48 +
STACK CFI INIT 47810 144 .cfa: sp 0 +
STACK CFI 47814 .cfa: sp 64 +
STACK CFI 47824 .cfa: x29 64 + x19: .cfa -8 + ^ x20: .cfa -16 + ^ x21: .cfa -24 + ^ x22: .cfa -32 + ^ x23: .cfa -48 + ^ .ra: .cfa -56 + ^ x29: .cfa -64 + ^
STACK CFI 478c4 .cfa: sp 64 +
STACK CFI 478d4 .cfa: sp 0 +
STACK CFI 478d8 .cfa: x29 64 +
STACK CFI 478dc .cfa: sp 64 +
STACK CFI 478ec .cfa: sp 0 +
STACK CFI 478f0 .cfa: x29 64 +
STACK CFI INIT 47954 d8 .cfa: sp 0 +
STACK CFI 47958 .cfa: sp 64 +
STACK CFI 47968 .cfa: x29 64 + x19: .cfa -8 + ^ x20: .cfa -16 + ^ x21: .cfa -24 + ^ x22: .cfa -32 + ^ x23: .cfa -48 + ^ .ra: .cfa -56 + ^ x29: .cfa -64 + ^
STACK CFI 47a00 .cfa: sp 64 +
STACK CFI 47a10 .cfa: sp 0 +
STACK CFI 47a14 .cfa: x29 64 +
STACK CFI 47a18 .cfa: sp 64 +
STACK CFI 47a28 .cfa: sp 0 +
STACK CFI INIT 47a2c 68 .cfa: sp 0 +
STACK CFI 47a30 .cfa: sp 32 +
STACK CFI 47a38 .cfa: x29 32 + x19: .cfa -16 + ^ .ra: .cfa -24 + ^ x29: .cfa -32 + ^
STACK CFI 47a7c .cfa: sp 32 +
STACK CFI 47a84 .cfa: sp 0 +
STACK CFI 47a88 .cfa: sp 32 +
STACK CFI 47a90 .cfa: sp 0 +
STACK CFI INIT 47a94 1c .cfa: sp 0 +
STACK CFI INIT 47c74 44 .cfa: sp 0 +
STACK CFI 47c78 .cfa: sp 32 +
STACK CFI 47c80 .cfa: x29 32 + x19: .cfa -16 + ^ .ra: .cfa -24 + ^ x29: .cfa -32 + ^
STACK CFI 47cac .cfa: sp 32 +
STACK CFI 47cb4 .cfa: sp 0 +
STACK CFI INIT 48504 4 .cfa: sp 0 +
STACK CFI INIT 487dc 38 .cfa: sp 0 +
STACK CFI 487e0 .cfa: sp 32 +
STACK CFI 487e8 .cfa: x29 32 + x19: .cfa -8 + ^ x20: .cfa -16 + ^ .ra: .cfa -24 + ^ x29: .cfa -32 + ^
STACK CFI 48808 .cfa: sp 32 +
STACK CFI 48810 .cfa: sp 0 +
STACK CFI INIT 48f60 68 .cfa: sp 0 +
STACK CFI 48f64 .cfa: sp 32 +
STACK CFI 48f6c .cfa: x29 32 + x19: .cfa -16 + ^ .ra: .cfa -24 + ^ x29: .cfa -32 + ^
STACK CFI 48fb0 .cfa: sp 32 +
STACK CFI 48fb8 .cfa: sp 0 +
STACK CFI 48fbc .cfa: sp 32 +
STACK CFI 48fc4 .cfa: sp 0 +
STACK CFI INIT 48fc8 1c .cfa: sp 0 +
STACK CFI INIT 491c4 44 .cfa: sp 0 +
STACK CFI 491c8 .cfa: sp 32 +
STACK CFI 491d0 .cfa: x29 32 + x19: .cfa -16 + ^ .ra: .cfa -24 + ^ x29: .cfa -32 + ^
STACK CFI 491fc .cfa: sp 32 +
STACK CFI 49204 .cfa: sp 0 +
STACK CFI INIT 49a9c 4 .cfa: sp 0 +
STACK CFI INIT 49ddc 38 .cfa: sp 0 +
STACK CFI 49de0 .cfa: sp 32 +
STACK CFI 49de8 .cfa: x29 32 + x19: .cfa -8 + ^ x20: .cfa -16 + ^ .ra: .cfa -24 + ^ x29: .cfa -32 + ^
STACK CFI 49e08 .cfa: sp 32 +
STACK CFI 49e10 .cfa: sp 0 +
STACK CFI INIT 4d318 68 .cfa: sp 0 +
STACK CFI 4d31c .cfa: sp 32 +
STACK CFI 4d324 .cfa: x29 32 + x19: .cfa -16 + ^ .ra: .cfa -24 + ^ x29: .cfa -32 + ^
STACK CFI 4d368 .cfa: sp 32 +
STACK CFI 4d370 .cfa: sp 0 +
STACK CFI 4d374 .cfa: sp 32 +
STACK CFI 4d37c .cfa: sp 0 +
STACK CFI INIT 4d380 1c .cfa: sp 0 +
STACK CFI INIT 4d57c 44 .cfa: sp 0 +
STACK CFI 4d580 .cfa: sp 32 +
STACK CFI 4d588 .cfa: x29 32 + x19: .cfa -16 + ^ .ra: .cfa -24 + ^ x29: .cfa -32 + ^
STACK CFI 4d5b4 .cfa: sp 32 +
STACK CFI 4d5bc .cfa: sp 0 +
STACK CFI INIT 4d5c0 118 .cfa: sp 0 +
STACK CFI 4d5c4 .cfa: sp 80 +
STACK CFI 4d5d4 .cfa: x29 48 + x19: .cfa -8 + ^ x20: .cfa -16 + ^ x21: .cfa -24 + ^ x22: .cfa -32 + ^ .ra: .cfa -40 + ^ x29: .cfa -48 + ^
STACK CFI 4d6c0 .cfa: sp 80 +
STACK CFI 4d6d0 .cfa: sp 0 +
STACK CFI 4d6d4 .cfa: x29 48 +
STACK CFI INIT 4df6c 4 .cfa: sp 0 +
STACK CFI INIT 4e2ac 38 .cfa: sp 0 +
STACK CFI 4e2b0 .cfa: sp 32 +
STACK CFI 4e2b8 .cfa: x29 32 + x19: .cfa -8 + ^ x20: .cfa -16 + ^ .ra: .cfa -24 + ^ x29: .cfa -32 + ^
STACK CFI 4e2d8 .cfa: sp 32 +
STACK CFI 4e2e0 .cfa: sp 0 +
STACK CFI INIT 500c4 144 .cfa: sp 0 +
STACK CFI 500c8 .cfa: sp 64 +
STACK CFI 500d8 .cfa: x29 64 + x19: .cfa -8 + ^ x20: .cfa -16 + ^ x21: .cfa -24 + ^ x22: .cfa -32 + ^ x23: .cfa -48 + ^ .ra: .cfa -56 + ^ x29: .cfa -64 + ^
STACK CFI 50178 .cfa: sp 64 +
STACK CFI 50188 .cfa: sp 0 +
STACK CFI 5018c .cfa: x29 64 +
STACK CFI 50190 .cfa: sp 64 +
STACK CFI 501a0 .cfa: sp 0 +
STACK CFI 501a4 .cfa: x29 64 +
STACK CFI INIT 50208 68 .cfa: sp 0 +
STACK CFI 5020c .cfa: sp 32 +
STACK CFI 50214 .cfa: x29 32 + x19: .cfa -16 + ^ .ra: .cfa -24 + ^ x29: .cfa -32 + ^
STACK CFI 50258 .cfa: sp 32 +
STACK CFI 50260 .cfa: sp 0 +
STACK CFI 50264 .cfa: sp 32 +
STACK CFI 5026c .cfa: sp 0 +
STACK CFI INIT 50270 1c .cfa: sp 0 +
STACK CFI INIT 51108 4 .cfa: sp 0 +
STACK CFI INIT 513fc 34 .cfa: sp 0 +
STACK CFI 51400 .cfa: sp 32 +
STACK CFI 51408 .cfa: x29 32 + x19: .cfa -16 + ^ .ra: .cfa -24 + ^ x29: .cfa -32 + ^
STACK CFI 51424 .cfa: sp 32 +
STACK CFI 5142c .cfa: sp 0 +
STACK CFI INIT 5167c 38 .cfa: sp 0 +
STACK CFI 51680 .cfa: sp 32 +
STACK CFI 51688 .cfa: x29 32 + x19: .cfa -16 + ^ .ra: .cfa -24 + ^ x29: .cfa -32 + ^
STACK CFI 516a8 .cfa: sp 32 +
STACK CFI 516b0 .cfa: sp 0 +
STACK CFI INIT 51cc4 4 .cfa: sp 0 +
STACK CFI INIT 51cc8 4 .cfa: sp 0 +
STACK CFI INIT 51ccc 4 .cfa: sp 0 +
STACK CFI INIT 51cd0 4 .cfa: sp 0 +
STACK CFI INIT 51e98 44 .cfa: sp 0 +
STACK CFI 51e9c .cfa: sp 32 +
STACK CFI 51ea4 .cfa: x29 32 + x19: .cfa -16 + ^ .ra: .cfa -24 + ^ x29: .cfa -32 + ^
STACK CFI 51ed0 .cfa: sp 32 +
STACK CFI 51ed8 .cfa: sp 0 +
STACK CFI INIT 536ec 68 .cfa: sp 0 +
STACK CFI 536f0 .cfa: sp 32 +
STACK CFI 536f8 .cfa: x29 32 + x19: .cfa -16 + ^ .ra: .cfa -24 + ^ x29: .cfa -32 + ^
STACK CFI 5373c .cfa: sp 32 +
STACK CFI 53744 .cfa: sp 0 +
STACK CFI 53748 .cfa: sp 32 +
STACK CFI 53750 .cfa: sp 0 +
STACK CFI INIT 53754 1c .cfa: sp 0 +
STACK CFI INIT 53944 44 .cfa: sp 0 +
STACK CFI 53948 .cfa: sp 32 +
STACK CFI 53950 .cfa: x29 32 + x19: .cfa -16 + ^ .ra: .cfa -24 + ^ x29: .cfa -32 + ^
STACK CFI 5397c .cfa: sp 32 +
STACK CFI 53984 .cfa: sp 0 +
STACK CFI INIT 548d4 4 .cfa: sp 0 +
STACK CFI INIT 54bac 38 .cfa: sp 0 +
STACK CFI 54bb0 .cfa: sp 32 +
STACK CFI 54bb8 .cfa: x29 32 + x19: .cfa -8 + ^ x20: .cfa -16 + ^ .ra: .cfa -24 + ^ x29: .cfa -32 + ^
STACK CFI 54bd8 .cfa: sp 32 +
STACK CFI 54be0 .cfa: sp 0 +
STACK CFI INIT 54d18 4 .cfa: sp 0 +
STACK CFI INIT 54d1c 4 .cfa: sp 0 +
STACK CFI INIT 54d20 4 .cfa: sp 0 +
STACK CFI INIT 566c0 68 .cfa: sp 0 +
STACK CFI 566c4 .cfa: sp 32 +
STACK CFI 566cc .cfa: x29 32 + x19: .cfa -16 + ^ .ra: .cfa -24 + ^ x29: .cfa -32 + ^
STACK CFI 56710 .cfa: sp 32 +
STACK CFI 56718 .cfa: sp 0 +
STACK CFI 5671c .cfa: sp 32 +
STACK CFI 56724 .cfa: sp 0 +
STACK CFI INIT 56728 1c .cfa: sp 0 +
STACK CFI INIT 56910 44 .cfa: sp 0 +
STACK CFI 56914 .cfa: sp 32 +
STACK CFI 5691c .cfa: x29 32 + x19: .cfa -16 + ^ .ra: .cfa -24 + ^ x29: .cfa -32 + ^
STACK CFI 56948 .cfa: sp 32 +
STACK CFI 56950 .cfa: sp 0 +
STACK CFI INIT 571a8 4 .cfa: sp 0 +
STACK CFI INIT 57480 38 .cfa: sp 0 +
STACK CFI 57484 .cfa: sp 32 +
STACK CFI 5748c .cfa: x29 32 + x19: .cfa -8 + ^ x20: .cfa -16 + ^ .ra: .cfa -24 + ^ x29: .cfa -32 + ^
STACK CFI 574ac .cfa: sp 32 +
STACK CFI 574b4 .cfa: sp 0 +
STACK CFI INIT 58884 68 .cfa: sp 0 +
STACK CFI 58888 .cfa: sp 32 +
STACK CFI 58890 .cfa: x29 32 + x19: .cfa -16 + ^ .ra: .cfa -24 + ^ x29: .cfa -32 + ^
STACK CFI 588d4 .cfa: sp 32 +
STACK CFI 588dc .cfa: sp 0 +
STACK CFI 588e0 .cfa: sp 32 +
STACK CFI 588e8 .cfa: sp 0 +
STACK CFI INIT 588ec 1c .cfa: sp 0 +
STACK CFI INIT 58ad4 44 .cfa: sp 0 +
STACK CFI 58ad8 .cfa: sp 32 +
STACK CFI 58ae0 .cfa: x29 32 + x19: .cfa -16 + ^ .ra: .cfa -24 + ^ x29: .cfa -32 + ^
STACK CFI 58b0c .cfa: sp 32 +
STACK CFI 58b14 .cfa: sp 0 +
STACK CFI INIT 5936c 4 .cfa: sp 0 +
STACK CFI INIT 596ac 38 .cfa: sp 0 +
STACK CFI 596b0 .cfa: sp 32 +
STACK CFI 596b8 .cfa: x29 32 + x19: .cfa -8 + ^ x20: .cfa -16 + ^ .ra: .cfa -24 + ^ x29: .cfa -32 + ^
STACK CFI 596d8 .cfa: sp 32 +
STACK CFI 596e0 .cfa: sp 0 +
STACK CFI INIT 598bc 1e8 .cfa: sp 0 +
STACK CFI 598c0 .cfa: sp 112 +
STACK CFI 598dc .cfa: x29 80 + x19: .cfa -8 + ^ x20: .cfa -16 + ^ x21: .cfa -24 + ^ x22: .cfa -32 + ^ x23: .cfa -40 + ^ x24: .cfa -48 + ^ x25: .cfa -56 + ^ x26: .cfa -64 + ^ .ra: .cfa -72 + ^ x29: .cfa -80 + ^ v8: .cfa -88 + ^ v9: .cfa -96 + ^ v10: .cfa -104 + ^ v11: .cfa -112 + ^
STACK CFI 59a84 .cfa: sp 112 +
STACK CFI 59aa0 .cfa: sp 0 +
STACK CFI INIT 5a22c 68 .cfa: sp 0 +
STACK CFI 5a230 .cfa: sp 32 +
STACK CFI 5a238 .cfa: x29 32 + x19: .cfa -16 + ^ .ra: .cfa -24 + ^ x29: .cfa -32 + ^
STACK CFI 5a27c .cfa: sp 32 +
STACK CFI 5a284 .cfa: sp 0 +
STACK CFI 5a288 .cfa: sp 32 +
STACK CFI 5a290 .cfa: sp 0 +
STACK CFI INIT 5a294 1c .cfa: sp 0 +
STACK CFI INIT 5a47c 44 .cfa: sp 0 +
STACK CFI 5a480 .cfa: sp 32 +
STACK CFI 5a488 .cfa: x29 32 + x19: .cfa -16 + ^ .ra: .cfa -24 + ^ x29: .cfa -32 + ^
STACK CFI 5a4b4 .cfa: sp 32 +
STACK CFI 5a4bc .cfa: sp 0 +
STACK CFI INIT 5ad54 4 .cfa: sp 0 +
STACK CFI INIT 5b048 28 .cfa: sp 0 +
STACK CFI 5b04c .cfa: sp 32 +
STACK CFI 5b054 .cfa: x29 32 + x19: .cfa -16 + ^ .ra: .cfa -24 + ^ x29: .cfa -32 + ^
STACK CFI 5b064 .cfa: sp 32 +
STACK CFI 5b06c .cfa: sp 0 +
STACK CFI INIT 5b5f4 68 .cfa: sp 0 +
STACK CFI 5b5f8 .cfa: sp 32 +
STACK CFI 5b600 .cfa: x29 32 + x19: .cfa -16 + ^ .ra: .cfa -24 + ^ x29: .cfa -32 + ^
STACK CFI 5b644 .cfa: sp 32 +
STACK CFI 5b64c .cfa: sp 0 +
STACK CFI 5b650 .cfa: sp 32 +
STACK CFI 5b658 .cfa: sp 0 +
STACK CFI INIT 5b65c 1c .cfa: sp 0 +
STACK CFI INIT 5b850 44 .cfa: sp 0 +
STACK CFI 5b854 .cfa: sp 32 +
STACK CFI 5b85c .cfa: x29 32 + x19: .cfa -16 + ^ .ra: .cfa -24 + ^ x29: .cfa -32 + ^
STACK CFI 5b888 .cfa: sp 32 +
STACK CFI 5b890 .cfa: sp 0 +
STACK CFI INIT 5c0ec 4 .cfa: sp 0 +
STACK CFI INIT 5c3c4 38 .cfa: sp 0 +
STACK CFI 5c3c8 .cfa: sp 32 +
STACK CFI 5c3d0 .cfa: x29 32 + x19: .cfa -8 + ^ x20: .cfa -16 + ^ .ra: .cfa -24 + ^ x29: .cfa -32 + ^
STACK CFI 5c3f0 .cfa: sp 32 +
STACK CFI 5c3f8 .cfa: sp 0 +
STACK CFI INIT 5d92c 68 .cfa: sp 0 +
STACK CFI 5d930 .cfa: sp 32 +
STACK CFI 5d938 .cfa: x29 32 + x19: .cfa -16 + ^ .ra: .cfa -24 + ^ x29: .cfa -32 + ^
STACK CFI 5d97c .cfa: sp 32 +
STACK CFI 5d984 .cfa: sp 0 +
STACK CFI 5d988 .cfa: sp 32 +
STACK CFI 5d990 .cfa: sp 0 +
STACK CFI INIT 5d994 1c .cfa: sp 0 +
STACK CFI INIT 5db90 44 .cfa: sp 0 +
STACK CFI 5db94 .cfa: sp 32 +
STACK CFI 5db9c .cfa: x29 32 + x19: .cfa -16 + ^ .ra: .cfa -24 + ^ x29: .cfa -32 + ^
STACK CFI 5dbc8 .cfa: sp 32 +
STACK CFI 5dbd0 .cfa: sp 0 +
STACK CFI INIT 5e710 4 .cfa: sp 0 +
STACK CFI INIT 5e9e8 38 .cfa: sp 0 +
STACK CFI 5e9ec .cfa: sp 32 +
STACK CFI 5e9f4 .cfa: x29 32 + x19: .cfa -8 + ^ x20: .cfa -16 + ^ .ra: .cfa -24 + ^ x29: .cfa -32 + ^
STACK CFI 5ea14 .cfa: sp 32 +
STACK CFI 5ea1c .cfa: sp 0 +
STACK CFI INIT 5eba0 4 .cfa: sp 0 +
STACK CFI INIT 610b8 118 .cfa: sp 0 +
STACK CFI 610bc .cfa: sp 80 +
STACK CFI 610cc .cfa: x29 48 + x19: .cfa -8 + ^ x20: .cfa -16 + ^ x21: .cfa -24 + ^ x22: .cfa -32 + ^ .ra: .cfa -40 + ^ x29: .cfa -48 + ^
STACK CFI 611b8 .cfa: sp 80 +
STACK CFI 611c8 .cfa: sp 0 +
STACK CFI 611cc .cfa: x29 48 +
STACK CFI INIT 61a74 ac .cfa: sp 0 +
STACK CFI 61a78 .cfa: sp 32 +
STACK CFI 61a80 .cfa: x29 32 + x19: .cfa -16 + ^ .ra: .cfa -24 + ^ x29: .cfa -32 + ^
STACK CFI 61ab4 .cfa: sp 32 +
STACK CFI 61abc .cfa: sp 0 +
STACK CFI 61ac0 .cfa: x29 32 +
STACK CFI 61b14 .cfa: sp 32 +
STACK CFI 61b1c .cfa: sp 0 +
STACK CFI INIT 61b20 68 .cfa: sp 0 +
STACK CFI 61b24 .cfa: sp 32 +
STACK CFI 61b2c .cfa: x29 32 + x19: .cfa -16 + ^ .ra: .cfa -24 + ^ x29: .cfa -32 + ^
STACK CFI 61b70 .cfa: sp 32 +
STACK CFI 61b78 .cfa: sp 0 +
STACK CFI 61b7c .cfa: sp 32 +
STACK CFI 61b84 .cfa: sp 0 +
STACK CFI INIT 61b88 1c .cfa: sp 0 +
STACK CFI INIT 61d84 44 .cfa: sp 0 +
STACK CFI 61d88 .cfa: sp 32 +
STACK CFI 61d90 .cfa: x29 32 + x19: .cfa -16 + ^ .ra: .cfa -24 + ^ x29: .cfa -32 + ^
STACK CFI 61dbc .cfa: sp 32 +
STACK CFI 61dc4 .cfa: sp 0 +
STACK CFI INIT 62614 4 .cfa: sp 0 +
STACK CFI INIT 62908 38 .cfa: sp 0 +
STACK CFI 6290c .cfa: sp 32 +
STACK CFI 62914 .cfa: x29 32 + x19: .cfa -8 + ^ x20: .cfa -16 + ^ .ra: .cfa -24 + ^ x29: .cfa -32 + ^
STACK CFI 62934 .cfa: sp 32 +
STACK CFI 6293c .cfa: sp 0 +
STACK CFI INIT 62ef0 68 .cfa: sp 0 +
STACK CFI 62ef4 .cfa: sp 32 +
STACK CFI 62efc .cfa: x29 32 + x19: .cfa -16 + ^ .ra: .cfa -24 + ^ x29: .cfa -32 + ^
STACK CFI 62f40 .cfa: sp 32 +
STACK CFI 62f48 .cfa: sp 0 +
STACK CFI 62f4c .cfa: sp 32 +
STACK CFI 62f54 .cfa: sp 0 +
STACK CFI INIT 62f58 1c .cfa: sp 0 +
STACK CFI INIT 63148 44 .cfa: sp 0 +
STACK CFI 6314c .cfa: sp 32 +
STACK CFI 63154 .cfa: x29 32 + x19: .cfa -16 + ^ .ra: .cfa -24 + ^ x29: .cfa -32 + ^
STACK CFI 63180 .cfa: sp 32 +
STACK CFI 63188 .cfa: sp 0 +
STACK CFI INIT 639d8 4 .cfa: sp 0 +
STACK CFI INIT 63d18 38 .cfa: sp 0 +
STACK CFI 63d1c .cfa: sp 32 +
STACK CFI 63d24 .cfa: x29 32 + x19: .cfa -8 + ^ x20: .cfa -16 + ^ .ra: .cfa -24 + ^ x29: .cfa -32 + ^
STACK CFI 63d44 .cfa: sp 32 +
STACK CFI 63d4c .cfa: sp 0 +
STACK CFI INIT 644ac 4 .cfa: sp 0 +
STACK CFI INIT 644b0 4 .cfa: sp 0 +
STACK CFI INIT 645bc 40 .cfa: sp 0 +
STACK CFI 645c0 .cfa: sp 32 +
STACK CFI 645c8 .cfa: x29 32 + x19: .cfa -16 + ^ .ra: .cfa -24 + ^ x29: .cfa -32 + ^
STACK CFI 645f0 .cfa: sp 32 +
STACK CFI 645f8 .cfa: sp 0 +
STACK CFI INIT 645fc 48 .cfa: sp 0 +
STACK CFI 64600 .cfa: sp 32 +
STACK CFI 64608 .cfa: x29 32 + x19: .cfa -16 + ^ .ra: .cfa -24 + ^ x29: .cfa -32 + ^
STACK CFI 64638 .cfa: sp 32 +
STACK CFI 64640 .cfa: sp 0 +
STACK CFI INIT 64644 4 .cfa: sp 0 +
STACK CFI INIT 64648 4 .cfa: sp 0 +
STACK CFI INIT 6464c c .cfa: sp 0 +
STACK CFI INIT 64658 34 .cfa: sp 0 +
STACK CFI 6465c .cfa: sp 32 +
STACK CFI 64664 .cfa: x29 32 + x19: .cfa -16 + ^ .ra: .cfa -24 + ^ x29: .cfa -32 + ^
STACK CFI 64680 .cfa: sp 32 +
STACK CFI 64688 .cfa: sp 0 +
STACK CFI INIT 6478c 3c .cfa: sp 0 +
STACK CFI 64790 .cfa: sp 32 +
STACK CFI 64798 .cfa: x29 32 + x19: .cfa -16 + ^ .ra: .cfa -24 + ^ x29: .cfa -32 + ^
STACK CFI 647a4 .cfa: sp 32 +
STACK CFI 647ac .cfa: sp 0 +
STACK CFI 647b0 .cfa: x29 32 +
STACK CFI 647bc .cfa: sp 32 +
STACK CFI 647c4 .cfa: sp 0 +
STACK CFI INIT 647c8 4c .cfa: sp 0 +
STACK CFI 647cc .cfa: sp 32 +
STACK CFI 647d4 .cfa: x29 32 + x19: .cfa -16 + ^ .ra: .cfa -24 + ^ x29: .cfa -32 + ^
STACK CFI 647e8 .cfa: sp 32 +
STACK CFI 647f0 .cfa: sp 0 +
STACK CFI 647f4 .cfa: x29 32 +
STACK CFI 64808 .cfa: sp 32 +
STACK CFI 64810 .cfa: sp 0 +
STACK CFI INIT 64b38 bc .cfa: sp 0 +
STACK CFI 64b3c .cfa: sp 48 +
STACK CFI 64b48 .cfa: x29 48 + x19: .cfa -8 + ^ x20: .cfa -16 + ^ x21: .cfa -24 + ^ x22: .cfa -32 + ^ .ra: .cfa -40 + ^ x29: .cfa -48 + ^
STACK CFI 64b5c .cfa: sp 48 +
STACK CFI 64b68 .cfa: sp 0 +
STACK CFI 64b6c .cfa: x29 48 +
STACK CFI 64b84 .cfa: sp 48 +
STACK CFI 64b90 .cfa: sp 0 +
STACK CFI 64b94 .cfa: x29 48 +
STACK CFI 64bdc .cfa: sp 48 +
STACK CFI 64be8 .cfa: sp 0 +
STACK CFI 64bec .cfa: x29 48 +
STACK CFI INIT 64cf4 64 .cfa: sp 0 +
STACK CFI 64cf8 .cfa: sp 32 +
STACK CFI 64d00 .cfa: x29 32 + x19: .cfa -16 + ^ .ra: .cfa -24 + ^ x29: .cfa -32 + ^
STACK CFI 64d2c .cfa: sp 32 +
STACK CFI 64d34 .cfa: sp 0 +
STACK CFI 64d38 .cfa: x29 32 +
STACK CFI 64d4c .cfa: sp 32 +
STACK CFI 64d54 .cfa: sp 0 +
STACK CFI INIT 652dc 24 .cfa: sp 0 +
STACK CFI 652e0 .cfa: sp 32 +
STACK CFI 652e8 .cfa: x29 32 + x19: .cfa -16 + ^ .ra: .cfa -24 + ^ x29: .cfa -32 + ^
STACK CFI 652f4 .cfa: sp 32 +
STACK CFI 652fc .cfa: sp 0 +
STACK CFI INIT 65300 8 .cfa: sp 0 +
STACK CFI INIT 65308 24 .cfa: sp 0 +
STACK CFI 6530c .cfa: sp 32 +
STACK CFI 65314 .cfa: x29 32 + x19: .cfa -16 + ^ .ra: .cfa -24 + ^ x29: .cfa -32 + ^
STACK CFI 65320 .cfa: sp 32 +
STACK CFI 65328 .cfa: sp 0 +
STACK CFI INIT 6532c 28 .cfa: sp 0 +
STACK CFI 65330 .cfa: sp 32 +
STACK CFI 65338 .cfa: x29 32 + x19: .cfa -16 + ^ .ra: .cfa -24 + ^ x29: .cfa -32 + ^
STACK CFI 65348 .cfa: sp 32 +
STACK CFI 65350 .cfa: sp 0 +
STACK CFI INIT 65354 24 .cfa: sp 0 +
STACK CFI 65358 .cfa: sp 32 +
STACK CFI 65360 .cfa: x29 32 + x19: .cfa -16 + ^ .ra: .cfa -24 + ^ x29: .cfa -32 + ^
STACK CFI 6536c .cfa: sp 32 +
STACK CFI 65374 .cfa: sp 0 +
STACK CFI INIT 65794 24 .cfa: sp 0 +
STACK CFI 65798 .cfa: sp 32 +
STACK CFI 657a0 .cfa: x29 32 + x19: .cfa -16 + ^ .ra: .cfa -24 + ^ x29: .cfa -32 + ^
STACK CFI 657ac .cfa: sp 32 +
STACK CFI 657b4 .cfa: sp 0 +
STACK CFI INIT 659c0 2c .cfa: sp 0 +
STACK CFI 659c4 .cfa: sp 32 +
STACK CFI 659cc .cfa: x29 32 + x19: .cfa -16 + ^ .ra: .cfa -24 + ^ x29: .cfa -32 + ^
STACK CFI 659e0 .cfa: sp 32 +
STACK CFI 659e8 .cfa: sp 0 +
STACK CFI INIT 65c40 8 .cfa: sp 0 +
STACK CFI INIT 65c48 24 .cfa: sp 0 +
STACK CFI 65c4c .cfa: sp 32 +
STACK CFI 65c54 .cfa: x29 32 + x19: .cfa -16 + ^ .ra: .cfa -24 + ^ x29: .cfa -32 + ^
STACK CFI 65c60 .cfa: sp 32 +
STACK CFI 65c68 .cfa: sp 0 +
STACK CFI INIT 65c6c 28 .cfa: sp 0 +
STACK CFI 65c70 .cfa: sp 32 +
STACK CFI 65c78 .cfa: x29 32 + x19: .cfa -16 + ^ .ra: .cfa -24 + ^ x29: .cfa -32 + ^
STACK CFI 65c88 .cfa: sp 32 +
STACK CFI 65c90 .cfa: sp 0 +
STACK CFI INIT 65c94 44 .cfa: sp 0 +
STACK CFI 65c98 .cfa: sp 32 +
STACK CFI 65ca0 .cfa: x29 32 + x19: .cfa -16 + ^ .ra: .cfa -24 + ^ x29: .cfa -32 + ^
STACK CFI 65ccc .cfa: sp 32 +
STACK CFI 65cd4 .cfa: sp 0 +
STACK CFI INIT 65cd8 4c .cfa: sp 0 +
STACK CFI 65cdc .cfa: sp 32 +
STACK CFI 65ce4 .cfa: x29 32 + x19: .cfa -16 + ^ .ra: .cfa -24 + ^ x29: .cfa -32 + ^
STACK CFI 65d18 .cfa: sp 32 +
STACK CFI 65d20 .cfa: sp 0 +
STACK CFI INIT 65de4 4 .cfa: sp 0 +
STACK CFI INIT 663b0 8 .cfa: sp 0 +
STACK CFI INIT 663b8 18 .cfa: sp 0 +
STACK CFI 663bc .cfa: sp 16 +
STACK CFI 663c0 .cfa: x29 16 + .ra: .cfa -8 + ^ x29: .cfa -16 + ^
STACK CFI 663c8 .cfa: sp 16 +
STACK CFI 663cc .cfa: sp 0 +
STACK CFI INIT 666ac 4 .cfa: sp 0 +
STACK CFI INIT 666b0 24 .cfa: sp 0 +
STACK CFI 666b4 .cfa: sp 32 +
STACK CFI 666bc .cfa: x29 32 + x19: .cfa -16 + ^ .ra: .cfa -24 + ^ x29: .cfa -32 + ^
STACK CFI 666c8 .cfa: sp 32 +
STACK CFI 666d0 .cfa: sp 0 +
STACK CFI INIT 666d4 3c .cfa: sp 0 +
STACK CFI 666d8 .cfa: sp 32 +
STACK CFI 666e0 .cfa: x29 32 + x19: .cfa -16 + ^ .ra: .cfa -24 + ^ x29: .cfa -32 + ^
STACK CFI 66704 .cfa: sp 32 +
STACK CFI 6670c .cfa: sp 0 +
STACK CFI INIT 66710 44 .cfa: sp 0 +
STACK CFI 66714 .cfa: sp 32 +
STACK CFI 6671c .cfa: x29 32 + x19: .cfa -16 + ^ .ra: .cfa -24 + ^ x29: .cfa -32 + ^
STACK CFI 66748 .cfa: sp 32 +
STACK CFI 66750 .cfa: sp 0 +
STACK CFI INIT 66ab0 1d8 .cfa: sp 0 +
STACK CFI 66ab4 .cfa: sp 32 +
STACK CFI 66abc .cfa: x29 32 + x19: .cfa -8 + ^ x20: .cfa -16 + ^ .ra: .cfa -24 + ^ x29: .cfa -32 + ^
STACK CFI 66b48 .cfa: sp 32 +
STACK CFI 66b50 .cfa: sp 0 +
STACK CFI 66b54 .cfa: x29 32 +
STACK CFI 66b68 .cfa: sp 32 +
STACK CFI 66b70 .cfa: sp 0 +
STACK CFI 66b74 .cfa: x29 32 +
STACK CFI INIT 66c88 114 .cfa: sp 0 +
STACK CFI INIT 66d9c 134 .cfa: sp 0 +
STACK CFI INIT 66f20 30 .cfa: sp 0 +
STACK CFI 66f24 .cfa: sp 32 +
STACK CFI 66f2c .cfa: x29 32 + x19: .cfa -16 + ^ .ra: .cfa -24 + ^ x29: .cfa -32 + ^
STACK CFI 66f44 .cfa: sp 32 +
STACK CFI 66f4c .cfa: sp 0 +
STACK CFI INIT 67274 7c .cfa: sp 0 +
STACK CFI 67278 .cfa: sp 32 +
STACK CFI 67280 .cfa: x29 32 + x19: .cfa -16 + ^ .ra: .cfa -24 + ^ x29: .cfa -32 + ^
STACK CFI 672ac .cfa: sp 32 +
STACK CFI 672b4 .cfa: sp 0 +
STACK CFI 672b8 .cfa: x29 32 +
STACK CFI 672e4 .cfa: sp 32 +
STACK CFI 672ec .cfa: sp 0 +
STACK CFI INIT 675f8 88 .cfa: sp 0 +
STACK CFI INIT 67680 64 .cfa: sp 0 +
STACK CFI 67684 .cfa: sp 32 +
STACK CFI 6768c .cfa: x29 32 + x19: .cfa -16 + ^ .ra: .cfa -24 + ^ x29: .cfa -32 + ^
STACK CFI 676a8 .cfa: sp 32 +
STACK CFI 676b0 .cfa: sp 0 +
STACK CFI 676b4 .cfa: x29 32 +
STACK CFI 676d8 .cfa: sp 32 +
STACK CFI 676e0 .cfa: sp 0 +
STACK CFI INIT 67808 700 .cfa: sp 0 +
STACK CFI 6780c .cfa: sp 192 +
STACK CFI 67820 .cfa: x29 64 + x19: .cfa -8 + ^ x20: .cfa -16 + ^ x21: .cfa -24 + ^ x22: .cfa -32 + ^ x23: .cfa -40 + ^ x24: .cfa -48 + ^ .ra: .cfa -56 + ^ x29: .cfa -64 + ^
STACK CFI 67a50 .cfa: sp 192 +
STACK CFI 67a64 .cfa: sp 0 +
STACK CFI 67a68 .cfa: x29 64 +
STACK CFI 67acc .cfa: sp 192 +
STACK CFI 67ae0 .cfa: sp 0 +
STACK CFI 67ae4 .cfa: x29 64 +
STACK CFI 67b00 .cfa: sp 192 +
STACK CFI 67b14 .cfa: sp 0 +
STACK CFI 67b18 .cfa: x29 64 +
STACK CFI 67bd4 .cfa: sp 192 +
STACK CFI 67be8 .cfa: sp 0 +
STACK CFI 67bec .cfa: x29 64 +
STACK CFI 67c28 .cfa: sp 192 +
STACK CFI 67c3c .cfa: sp 0 +
STACK CFI 67c40 .cfa: x29 64 +
STACK CFI 67c58 .cfa: sp 192 +
STACK CFI 67c6c .cfa: sp 0 +
STACK CFI 67c70 .cfa: x29 64 +
STACK CFI 67c88 .cfa: sp 192 +
STACK CFI 67c9c .cfa: sp 0 +
STACK CFI 67ca0 .cfa: x29 64 +
STACK CFI 67cbc .cfa: sp 192 +
STACK CFI 67cd0 .cfa: sp 0 +
STACK CFI 67cd4 .cfa: x29 64 +
STACK CFI 67dfc .cfa: sp 192 +
STACK CFI 67e10 .cfa: sp 0 +
STACK CFI 67e14 .cfa: x29 64 +
STACK CFI INIT 67f08 224 .cfa: sp 0 +
STACK CFI INIT 6812c 308 .cfa: sp 0 +
STACK CFI INIT 68434 5ac .cfa: sp 0 +
STACK CFI INIT 68af8 24 .cfa: sp 0 +
STACK CFI 68afc .cfa: sp 32 +
STACK CFI 68b04 .cfa: x29 32 + x19: .cfa -16 + ^ .ra: .cfa -24 + ^ x29: .cfa -32 + ^
STACK CFI 68b10 .cfa: sp 32 +
STACK CFI 68b18 .cfa: sp 0 +
STACK CFI INIT 68b1c 138 .cfa: sp 0 +
STACK CFI 68b20 .cfa: sp 48 +
STACK CFI 68b2c .cfa: x29 48 + x19: .cfa -8 + ^ x20: .cfa -16 + ^ x21: .cfa -32 + ^ .ra: .cfa -40 + ^ x29: .cfa -48 + ^
STACK CFI 68c34 .cfa: sp 48 +
STACK CFI 68c40 .cfa: sp 0 +
STACK CFI 68c44 .cfa: sp 48 +
STACK CFI 68c50 .cfa: sp 0 +
STACK CFI INIT 68c54 8c .cfa: sp 0 +
STACK CFI 68c58 .cfa: sp 32 +
STACK CFI 68c60 .cfa: x29 32 + x19: .cfa -16 + ^ .ra: .cfa -24 + ^ x29: .cfa -32 + ^
STACK CFI 68c94 .cfa: sp 32 +
STACK CFI 68c9c .cfa: sp 0 +
STACK CFI 68ca0 .cfa: x29 32 +
STACK CFI 68cd4 .cfa: sp 32 +
STACK CFI 68cdc .cfa: sp 0 +
STACK CFI INIT 68ce0 238 .cfa: sp 0 +
STACK CFI 68ce4 .cfa: sp 80 +
STACK CFI 68cf4 .cfa: x29 48 + x19: .cfa -8 + ^ x20: .cfa -16 + ^ x21: .cfa -24 + ^ x22: .cfa -32 + ^ .ra: .cfa -40 + ^ x29: .cfa -48 + ^
STACK CFI 68ec0 .cfa: sp 80 +
STACK CFI 68ed0 .cfa: sp 0 +
STACK CFI 68ed4 .cfa: x29 48 +
STACK CFI INIT 68f18 16c .cfa: sp 0 +
STACK CFI 68f1c .cfa: sp 48 +
STACK CFI 68f28 .cfa: x29 48 + x19: .cfa -8 + ^ x20: .cfa -16 + ^ x21: .cfa -24 + ^ x22: .cfa -32 + ^ .ra: .cfa -40 + ^ x29: .cfa -48 + ^
STACK CFI 69074 .cfa: sp 48 +
STACK CFI 69080 .cfa: sp 0 +
STACK CFI INIT 69084 1ac .cfa: sp 0 +
STACK CFI 69088 .cfa: sp 64 +
STACK CFI 69094 .cfa: x29 32 + x19: .cfa -16 + ^ .ra: .cfa -24 + ^ x29: .cfa -32 + ^
STACK CFI 691f8 .cfa: sp 64 +
STACK CFI 69204 .cfa: sp 0 +
STACK CFI 69208 .cfa: x29 32 +
STACK CFI INIT 69230 25c .cfa: sp 0 +
STACK CFI 69234 .cfa: sp 80 +
STACK CFI 69244 .cfa: x29 48 + x19: .cfa -8 + ^ x20: .cfa -16 + ^ x21: .cfa -24 + ^ x22: .cfa -32 + ^ .ra: .cfa -40 + ^ x29: .cfa -48 + ^
STACK CFI 69434 .cfa: sp 80 +
STACK CFI 69444 .cfa: sp 0 +
STACK CFI 69448 .cfa: x29 48 +
STACK CFI INIT 6948c 1d4 .cfa: sp 0 +
STACK CFI 69490 .cfa: sp 64 +
STACK CFI 6949c .cfa: x29 32 + x19: .cfa -16 + ^ .ra: .cfa -24 + ^ x29: .cfa -32 + ^
STACK CFI 69628 .cfa: sp 64 +
STACK CFI 69634 .cfa: sp 0 +
STACK CFI 69638 .cfa: x29 32 +
STACK CFI INIT 69660 34c .cfa: sp 0 +
STACK CFI 69664 .cfa: sp 160 +
STACK CFI 69680 .cfa: x29 96 + x19: .cfa -8 + ^ x20: .cfa -16 + ^ x21: .cfa -24 + ^ x22: .cfa -32 + ^ x23: .cfa -40 + ^ x24: .cfa -48 + ^ x25: .cfa -56 + ^ x26: .cfa -64 + ^ x27: .cfa -72 + ^ x28: .cfa -80 + ^ .ra: .cfa -88 + ^ x29: .cfa -96 + ^
STACK CFI 69938 .cfa: sp 160 +
STACK CFI 69954 .cfa: sp 0 +
STACK CFI 69958 .cfa: x29 96 +
STACK CFI INIT 699ac 2d4 .cfa: sp 0 +
STACK CFI 699b0 .cfa: sp 144 +
STACK CFI 699cc .cfa: x29 96 + x19: .cfa -8 + ^ x20: .cfa -16 + ^ x21: .cfa -24 + ^ x22: .cfa -32 + ^ x23: .cfa -40 + ^ x24: .cfa -48 + ^ x25: .cfa -56 + ^ x26: .cfa -64 + ^ x27: .cfa -72 + ^ x28: .cfa -80 + ^ .ra: .cfa -88 + ^ x29: .cfa -96 + ^
STACK CFI 69c5c .cfa: sp 144 +
STACK CFI 69c78 .cfa: sp 0 +
STACK CFI 69c7c .cfa: x29 96 +
STACK CFI INIT 69c80 13c .cfa: sp 0 +
STACK CFI 69c84 .cfa: sp 96 +
STACK CFI 69c94 .cfa: x29 48 + x19: .cfa -8 + ^ x20: .cfa -16 + ^ x21: .cfa -24 + ^ x22: .cfa -32 + ^ .ra: .cfa -40 + ^ x29: .cfa -48 + ^
STACK CFI 69d00 .cfa: sp 96 +
STACK CFI 69d10 .cfa: sp 0 +
STACK CFI 69d14 .cfa: x29 48 +
STACK CFI 69d58 .cfa: sp 96 +
STACK CFI 69d68 .cfa: sp 0 +
STACK CFI 69d6c .cfa: x29 48 +
STACK CFI 69da4 .cfa: sp 96 +
STACK CFI 69db4 .cfa: sp 0 +
STACK CFI 69db8 .cfa: x29 48 +
STACK CFI INIT 69dbc 1e8 .cfa: sp 0 +
STACK CFI 69dc0 .cfa: sp 80 +
STACK CFI 69dd4 .cfa: x29 80 + x19: .cfa -8 + ^ x20: .cfa -16 + ^ x21: .cfa -24 + ^ x22: .cfa -32 + ^ x23: .cfa -40 + ^ x24: .cfa -48 + ^ x25: .cfa -64 + ^ .ra: .cfa -72 + ^ x29: .cfa -80 + ^
STACK CFI 69f68 .cfa: sp 80 +
STACK CFI 69f7c .cfa: sp 0 +
STACK CFI 69f80 .cfa: x29 80 +
STACK CFI 69f8c .cfa: sp 80 +
STACK CFI 69fa0 .cfa: sp 0 +
STACK CFI INIT 69fa4 af0 .cfa: sp 0 +
STACK CFI 69fa8 .cfa: sp 144 +
STACK CFI 69fc4 .cfa: x29 96 + x19: .cfa -8 + ^ x20: .cfa -16 + ^ x21: .cfa -24 + ^ x22: .cfa -32 + ^ x23: .cfa -40 + ^ x24: .cfa -48 + ^ x25: .cfa -56 + ^ x26: .cfa -64 + ^ x27: .cfa -72 + ^ x28: .cfa -80 + ^ .ra: .cfa -88 + ^ x29: .cfa -96 + ^
STACK CFI 6a278 .cfa: sp 144 +
STACK CFI 6a294 .cfa: sp 0 +
STACK CFI 6a298 .cfa: x29 96 +
STACK CFI 6aa54 .cfa: sp 144 +
STACK CFI 6aa70 .cfa: sp 0 +
STACK CFI 6aa74 .cfa: x29 96 +
STACK CFI INIT 6aa94 1f0 .cfa: sp 0 +
STACK CFI 6aa98 .cfa: sp 80 +
STACK CFI 6aaac .cfa: x29 80 + x19: .cfa -8 + ^ x20: .cfa -16 + ^ x21: .cfa -24 + ^ x22: .cfa -32 + ^ x23: .cfa -40 + ^ x24: .cfa -48 + ^ x25: .cfa -64 + ^ .ra: .cfa -72 + ^ x29: .cfa -80 + ^
STACK CFI 6ac6c .cfa: sp 80 +
STACK CFI 6ac80 .cfa: sp 0 +
STACK CFI INIT 6ac84 190 .cfa: sp 0 +
STACK CFI 6ac88 .cfa: sp 96 +
STACK CFI 6ac9c .cfa: x29 64 + x19: .cfa -8 + ^ x20: .cfa -16 + ^ x21: .cfa -24 + ^ x22: .cfa -32 + ^ x23: .cfa -48 + ^ .ra: .cfa -56 + ^ x29: .cfa -64 + ^
STACK CFI 6adf8 .cfa: sp 96 +
STACK CFI 6ae0c .cfa: sp 0 +
STACK CFI 6ae10 .cfa: x29 64 +
STACK CFI INIT 6ae14 1c0 .cfa: sp 0 +
STACK CFI 6ae18 .cfa: sp 96 +
STACK CFI 6ae2c .cfa: x29 64 + x19: .cfa -8 + ^ x20: .cfa -16 + ^ x21: .cfa -24 + ^ x22: .cfa -32 + ^ x23: .cfa -48 + ^ .ra: .cfa -56 + ^ x29: .cfa -64 + ^
STACK CFI 6afb8 .cfa: sp 96 +
STACK CFI 6afcc .cfa: sp 0 +
STACK CFI 6afd0 .cfa: x29 64 +
STACK CFI INIT 6afd4 180 .cfa: sp 0 +
STACK CFI 6afd8 .cfa: sp 96 +
STACK CFI 6afe8 .cfa: x29 48 + x19: .cfa -8 + ^ x20: .cfa -16 + ^ x21: .cfa -32 + ^ .ra: .cfa -40 + ^ x29: .cfa -48 + ^
STACK CFI 6b114 .cfa: sp 96 +
STACK CFI 6b124 .cfa: sp 0 +
STACK CFI 6b128 .cfa: x29 48 +
STACK CFI INIT 6b154 1fc .cfa: sp 0 +
STACK CFI 6b158 .cfa: sp 48 +
STACK CFI 6b164 .cfa: x29 48 + x19: .cfa -8 + ^ x20: .cfa -16 + ^ x21: .cfa -32 + ^ .ra: .cfa -40 + ^ x29: .cfa -48 + ^
STACK CFI 6b210 .cfa: sp 48 +
STACK CFI 6b21c .cfa: sp 0 +
STACK CFI 6b220 .cfa: x29 48 +
STACK CFI 6b2cc .cfa: sp 48 +
STACK CFI 6b2d8 .cfa: sp 0 +
STACK CFI 6b2dc .cfa: x29 48 +
STACK CFI 6b2f0 .cfa: sp 48 +
STACK CFI 6b2fc .cfa: sp 0 +
STACK CFI 6b300 .cfa: x29 48 +
STACK CFI 6b314 .cfa: sp 48 +
STACK CFI 6b320 .cfa: sp 0 +
STACK CFI 6b324 .cfa: x29 48 +
STACK CFI INIT 6b350 180 .cfa: sp 0 +
STACK CFI 6b354 .cfa: sp 80 +
STACK CFI 6b368 .cfa: x29 64 + x19: .cfa -8 + ^ x20: .cfa -16 + ^ x21: .cfa -24 + ^ x22: .cfa -32 + ^ x23: .cfa -40 + ^ x24: .cfa -48 + ^ .ra: .cfa -56 + ^ x29: .cfa -64 + ^
STACK CFI 6b4b4 .cfa: sp 80 +
STACK CFI 6b4c8 .cfa: sp 0 +
STACK CFI 6b4cc .cfa: x29 64 +
STACK CFI INIT 6b4d0 180 .cfa: sp 0 +
STACK CFI 6b4d4 .cfa: sp 80 +
STACK CFI 6b4e8 .cfa: x29 64 + x19: .cfa -8 + ^ x20: .cfa -16 + ^ x21: .cfa -24 + ^ x22: .cfa -32 + ^ x23: .cfa -40 + ^ x24: .cfa -48 + ^ .ra: .cfa -56 + ^ x29: .cfa -64 + ^
STACK CFI 6b634 .cfa: sp 80 +
STACK CFI 6b648 .cfa: sp 0 +
STACK CFI 6b64c .cfa: x29 64 +
STACK CFI INIT 6b650 180 .cfa: sp 0 +
STACK CFI 6b654 .cfa: sp 80 +
STACK CFI 6b668 .cfa: x29 64 + x19: .cfa -8 + ^ x20: .cfa -16 + ^ x21: .cfa -24 + ^ x22: .cfa -32 + ^ x23: .cfa -40 + ^ x24: .cfa -48 + ^ .ra: .cfa -56 + ^ x29: .cfa -64 + ^
STACK CFI 6b7b4 .cfa: sp 80 +
STACK CFI 6b7c8 .cfa: sp 0 +
STACK CFI 6b7cc .cfa: x29 64 +
STACK CFI INIT 6b7d0 244 .cfa: sp 0 +
STACK CFI 6b7d4 .cfa: sp 96 +
STACK CFI 6b7ec .cfa: x29 96 + x19: .cfa -8 + ^ x20: .cfa -16 + ^ x21: .cfa -24 + ^ x22: .cfa -32 + ^ x23: .cfa -40 + ^ x24: .cfa -48 + ^ x25: .cfa -56 + ^ x26: .cfa -64 + ^ x27: .cfa -72 + ^ x28: .cfa -80 + ^ .ra: .cfa -88 + ^ x29: .cfa -96 + ^
STACK CFI 6b9d4 .cfa: sp 96 +
STACK CFI 6b9ec .cfa: sp 0 +
STACK CFI 6b9f0 .cfa: x29 96 +
STACK CFI 6b9f8 .cfa: sp 96 +
STACK CFI 6ba10 .cfa: sp 0 +
STACK CFI INIT 6c0a0 154 .cfa: sp 0 +
STACK CFI 6c0a4 .cfa: sp 80 +
STACK CFI 6c0b4 .cfa: x29 48 + x19: .cfa -8 + ^ x20: .cfa -16 + ^ x21: .cfa -24 + ^ x22: .cfa -32 + ^ .ra: .cfa -40 + ^ x29: .cfa -48 + ^
STACK CFI 6c198 .cfa: sp 80 +
STACK CFI 6c1a8 .cfa: sp 0 +
STACK CFI 6c1ac .cfa: x29 48 +
STACK CFI INIT 6c3b4 44 .cfa: sp 0 +
STACK CFI 6c3b8 .cfa: sp 32 +
STACK CFI 6c3c0 .cfa: x29 32 + x19: .cfa -16 + ^ .ra: .cfa -24 + ^ x29: .cfa -32 + ^
STACK CFI 6c3dc .cfa: sp 32 +
STACK CFI 6c3e4 .cfa: sp 0 +
STACK CFI 6c3e8 .cfa: x29 32 +
STACK CFI 6c3ec .cfa: sp 32 +
STACK CFI 6c3f4 .cfa: sp 0 +
STACK CFI INIT 6c3f8 1e8 .cfa: sp 0 +
STACK CFI 6c3fc .cfa: sp 64 +
STACK CFI 6c40c .cfa: x29 64 + x19: .cfa -8 + ^ x20: .cfa -16 + ^ x21: .cfa -24 + ^ x22: .cfa -32 + ^ x23: .cfa -40 + ^ x24: .cfa -48 + ^ .ra: .cfa -56 + ^ x29: .cfa -64 + ^
STACK CFI 6c4d8 .cfa: sp 64 +
STACK CFI 6c4e8 .cfa: sp 0 +
STACK CFI 6c4ec .cfa: x29 64 +
STACK CFI INIT 6c5e0 188 .cfa: sp 0 +
STACK CFI INIT 6c768 13c .cfa: sp 0 +
STACK CFI 6c76c .cfa: sp 48 +
STACK CFI 6c778 .cfa: x29 48 + x19: .cfa -8 + ^ x20: .cfa -16 + ^ x21: .cfa -32 + ^ .ra: .cfa -40 + ^ x29: .cfa -48 + ^
STACK CFI 6c894 .cfa: sp 48 +
STACK CFI 6c8a0 .cfa: sp 0 +
STACK CFI INIT 6cf44 110 .cfa: sp 0 +
STACK CFI 6cf48 .cfa: sp 48 +
STACK CFI 6cf54 .cfa: x29 48 + x19: .cfa -8 + ^ x20: .cfa -16 + ^ x21: .cfa -32 + ^ .ra: .cfa -40 + ^ x29: .cfa -48 + ^
STACK CFI 6d030 .cfa: sp 48 +
STACK CFI 6d03c .cfa: sp 0 +
STACK CFI 6d040 .cfa: sp 48 +
STACK CFI 6d04c .cfa: sp 0 +
STACK CFI 6d050 .cfa: x29 48 +
STACK CFI INIT 6d054 16c .cfa: sp 0 +
STACK CFI 6d058 .cfa: sp 64 +
STACK CFI 6d068 .cfa: x29 64 + x19: .cfa -8 + ^ x20: .cfa -16 + ^ x21: .cfa -24 + ^ x22: .cfa -32 + ^ x23: .cfa -40 + ^ x24: .cfa -48 + ^ .ra: .cfa -56 + ^ x29: .cfa -64 + ^
STACK CFI 6d18c .cfa: sp 64 +
STACK CFI 6d19c .cfa: sp 0 +
STACK CFI 6d1a0 .cfa: x29 64 +
STACK CFI 6d1ac .cfa: sp 64 +
STACK CFI 6d1bc .cfa: sp 0 +
STACK CFI INIT 6d304 224 .cfa: sp 0 +
STACK CFI 6d308 .cfa: sp 96 +
STACK CFI 6d31c .cfa: x29 64 + x19: .cfa -8 + ^ x20: .cfa -16 + ^ x21: .cfa -24 + ^ x22: .cfa -32 + ^ x23: .cfa -48 + ^ .ra: .cfa -56 + ^ x29: .cfa -64 + ^
STACK CFI 6d50c .cfa: sp 96 +
STACK CFI 6d520 .cfa: sp 0 +
STACK CFI 6d524 .cfa: x29 64 +
STACK CFI INIT 6dbc0 158 .cfa: sp 0 +
STACK CFI 6dbc4 .cfa: sp 80 +
STACK CFI 6dbd4 .cfa: x29 48 + x19: .cfa -8 + ^ x20: .cfa -16 + ^ x21: .cfa -24 + ^ x22: .cfa -32 + ^ .ra: .cfa -40 + ^ x29: .cfa -48 + ^
STACK CFI 6dcbc .cfa: sp 80 +
STACK CFI 6dccc .cfa: sp 0 +
STACK CFI 6dcd0 .cfa: x29 48 +
STACK CFI INIT 6dd18 1ac .cfa: sp 0 +
STACK CFI INIT 6dec4 13c .cfa: sp 0 +
STACK CFI 6dec8 .cfa: sp 48 +
STACK CFI 6ded4 .cfa: x29 48 + x19: .cfa -8 + ^ x20: .cfa -16 + ^ x21: .cfa -32 + ^ .ra: .cfa -40 + ^ x29: .cfa -48 + ^
STACK CFI 6dff0 .cfa: sp 48 +
STACK CFI 6dffc .cfa: sp 0 +
STACK CFI INIT 6e2dc 16c .cfa: sp 0 +
STACK CFI 6e2e0 .cfa: sp 64 +
STACK CFI 6e2f0 .cfa: x29 64 + x19: .cfa -8 + ^ x20: .cfa -16 + ^ x21: .cfa -24 + ^ x22: .cfa -32 + ^ x23: .cfa -40 + ^ x24: .cfa -48 + ^ .ra: .cfa -56 + ^ x29: .cfa -64 + ^
STACK CFI 6e414 .cfa: sp 64 +
STACK CFI 6e424 .cfa: sp 0 +
STACK CFI 6e428 .cfa: x29 64 +
STACK CFI 6e434 .cfa: sp 64 +
STACK CFI 6e444 .cfa: sp 0 +
STACK CFI INIT 6e58c 230 .cfa: sp 0 +
STACK CFI 6e590 .cfa: sp 96 +
STACK CFI 6e5a4 .cfa: x29 64 + x19: .cfa -8 + ^ x20: .cfa -16 + ^ x21: .cfa -24 + ^ x22: .cfa -32 + ^ x23: .cfa -48 + ^ .ra: .cfa -56 + ^ x29: .cfa -64 + ^
STACK CFI 6e7a0 .cfa: sp 96 +
STACK CFI 6e7b4 .cfa: sp 0 +
STACK CFI 6e7b8 .cfa: x29 64 +
STACK CFI INIT 6ebf8 5b0 .cfa: sp 0 +
STACK CFI 6ebfc .cfa: sp 176 +
STACK CFI 6ec18 .cfa: x29 96 + x19: .cfa -8 + ^ x20: .cfa -16 + ^ x21: .cfa -24 + ^ x22: .cfa -32 + ^ x23: .cfa -40 + ^ x24: .cfa -48 + ^ x25: .cfa -56 + ^ x26: .cfa -64 + ^ x27: .cfa -72 + ^ x28: .cfa -80 + ^ .ra: .cfa -88 + ^ x29: .cfa -96 + ^
STACK CFI 6f184 .cfa: sp 176 +
STACK CFI 6f1a0 .cfa: sp 0 +
STACK CFI 6f1a4 .cfa: x29 96 +
STACK CFI INIT 6f1a8 1e8 .cfa: sp 0 +
STACK CFI 6f1ac .cfa: sp 80 +
STACK CFI 6f1c0 .cfa: x29 80 + x19: .cfa -8 + ^ x20: .cfa -16 + ^ x21: .cfa -24 + ^ x22: .cfa -32 + ^ x23: .cfa -40 + ^ x24: .cfa -48 + ^ x25: .cfa -64 + ^ .ra: .cfa -72 + ^ x29: .cfa -80 + ^
STACK CFI 6f354 .cfa: sp 80 +
STACK CFI 6f368 .cfa: sp 0 +
STACK CFI 6f36c .cfa: x29 80 +
STACK CFI 6f378 .cfa: sp 80 +
STACK CFI 6f38c .cfa: sp 0 +
STACK CFI INIT 6f390 2cc .cfa: sp 0 +
STACK CFI 6f394 .cfa: sp 160 +
STACK CFI 6f3a8 .cfa: x29 64 + x19: .cfa -8 + ^ x20: .cfa -16 + ^ x21: .cfa -24 + ^ x22: .cfa -32 + ^ x23: .cfa -40 + ^ x24: .cfa -48 + ^ .ra: .cfa -56 + ^ x29: .cfa -64 + ^
STACK CFI 6f61c .cfa: sp 160 +
STACK CFI 6f630 .cfa: sp 0 +
STACK CFI 6f634 .cfa: x29 64 +
STACK CFI INIT 70ab0 130 .cfa: sp 0 +
STACK CFI 70ab4 .cfa: sp 32 +
STACK CFI 70abc .cfa: x29 32 + x19: .cfa -8 + ^ x20: .cfa -16 + ^ .ra: .cfa -24 + ^ x29: .cfa -32 + ^
STACK CFI 70bd4 .cfa: sp 32 +
STACK CFI 70bdc .cfa: sp 0 +
STACK CFI INIT 70be0 170 .cfa: sp 0 +
STACK CFI 70be4 .cfa: sp 48 +
STACK CFI 70bf0 .cfa: x29 48 + x19: .cfa -8 + ^ x20: .cfa -16 + ^ x21: .cfa -24 + ^ x22: .cfa -32 + ^ .ra: .cfa -40 + ^ x29: .cfa -48 + ^
STACK CFI 70c5c .cfa: sp 48 +
STACK CFI 70c68 .cfa: sp 0 +
STACK CFI 70c6c .cfa: x29 48 +
STACK CFI 70ca8 .cfa: sp 48 +
STACK CFI 70cb4 .cfa: sp 0 +
STACK CFI 70cb8 .cfa: x29 48 +
STACK CFI INIT 70d50 374 .cfa: sp 0 +
STACK CFI 70d54 .cfa: sp 80 +
STACK CFI 70d68 .cfa: x29 80 + x19: .cfa -8 + ^ x20: .cfa -16 + ^ x21: .cfa -24 + ^ x22: .cfa -32 + ^ x23: .cfa -40 + ^ x24: .cfa -48 + ^ x25: .cfa -64 + ^ .ra: .cfa -72 + ^ x29: .cfa -80 + ^
STACK CFI 70f00 .cfa: sp 80 +
STACK CFI 70f14 .cfa: sp 0 +
STACK CFI 70f18 .cfa: x29 80 +
STACK CFI INIT 710c4 110 .cfa: sp 0 +
STACK CFI 710c8 .cfa: sp 48 +
STACK CFI 710d4 .cfa: x29 48 + x19: .cfa -8 + ^ x20: .cfa -16 + ^ x21: .cfa -32 + ^ .ra: .cfa -40 + ^ x29: .cfa -48 + ^
STACK CFI 711b0 .cfa: sp 48 +
STACK CFI 711bc .cfa: sp 0 +
STACK CFI 711c0 .cfa: sp 48 +
STACK CFI 711cc .cfa: sp 0 +
STACK CFI 711d0 .cfa: x29 48 +
STACK CFI INIT 71df8 17c .cfa: sp 0 +
STACK CFI 71dfc .cfa: sp 64 +
STACK CFI 71e0c .cfa: x29 64 + x19: .cfa -8 + ^ x20: .cfa -16 + ^ x21: .cfa -24 + ^ x22: .cfa -32 + ^ x23: .cfa -40 + ^ x24: .cfa -48 + ^ .ra: .cfa -56 + ^ x29: .cfa -64 + ^
STACK CFI 71f1c .cfa: sp 64 +
STACK CFI 71f2c .cfa: sp 0 +
STACK CFI 71f30 .cfa: x29 64 +
STACK CFI INIT 71f74 16c .cfa: sp 0 +
STACK CFI 71f78 .cfa: sp 48 +
STACK CFI 71f84 .cfa: x29 48 + x19: .cfa -8 + ^ x20: .cfa -16 + ^ x21: .cfa -24 + ^ x22: .cfa -32 + ^ .ra: .cfa -40 + ^ x29: .cfa -48 + ^
STACK CFI 720d0 .cfa: sp 48 +
STACK CFI 720dc .cfa: sp 0 +
STACK CFI INIT 720e0 13c .cfa: sp 0 +
STACK CFI 720e4 .cfa: sp 48 +
STACK CFI 720f0 .cfa: x29 48 + x19: .cfa -8 + ^ x20: .cfa -16 + ^ x21: .cfa -32 + ^ .ra: .cfa -40 + ^ x29: .cfa -48 + ^
STACK CFI 7220c .cfa: sp 48 +
STACK CFI 72218 .cfa: sp 0 +
STACK CFI INIT 72640 16c .cfa: sp 0 +
STACK CFI 72644 .cfa: sp 64 +
STACK CFI 72654 .cfa: x29 64 + x19: .cfa -8 + ^ x20: .cfa -16 + ^ x21: .cfa -24 + ^ x22: .cfa -32 + ^ x23: .cfa -40 + ^ x24: .cfa -48 + ^ .ra: .cfa -56 + ^ x29: .cfa -64 + ^
STACK CFI 72778 .cfa: sp 64 +
STACK CFI 72788 .cfa: sp 0 +
STACK CFI 7278c .cfa: x29 64 +
STACK CFI 72798 .cfa: sp 64 +
STACK CFI 727a8 .cfa: sp 0 +
STACK CFI INIT 729d4 2a4 .cfa: sp 0 +
STACK CFI 729d8 .cfa: sp 48 +
STACK CFI 729e4 .cfa: x29 48 + x19: .cfa -8 + ^ x20: .cfa -16 + ^ x21: .cfa -24 + ^ x22: .cfa -32 + ^ .ra: .cfa -40 + ^ x29: .cfa -48 + ^
STACK CFI 72c68 .cfa: sp 48 +
STACK CFI 72c74 .cfa: sp 0 +
STACK CFI INIT 72c78 1d0 .cfa: sp 0 +
STACK CFI 72c7c .cfa: sp 96 +
STACK CFI 72c90 .cfa: x29 64 + x19: .cfa -8 + ^ x20: .cfa -16 + ^ x21: .cfa -24 + ^ x22: .cfa -32 + ^ x23: .cfa -40 + ^ x24: .cfa -48 + ^ .ra: .cfa -56 + ^ x29: .cfa -64 + ^
STACK CFI 72ddc .cfa: sp 96 +
STACK CFI 72df0 .cfa: sp 0 +
STACK CFI 72df4 .cfa: x29 64 +
STACK CFI INIT 72e48 634 .cfa: sp 0 +
STACK CFI 72e4c .cfa: sp 192 +
STACK CFI 72e60 .cfa: x29 64 + x19: .cfa -8 + ^ x20: .cfa -16 + ^ x21: .cfa -24 + ^ x22: .cfa -32 + ^ x23: .cfa -40 + ^ x24: .cfa -48 + ^ .ra: .cfa -56 + ^ x29: .cfa -64 + ^
STACK CFI 733d4 .cfa: sp 192 +
STACK CFI 733e8 .cfa: sp 0 +
STACK CFI 733ec .cfa: x29 64 +
STACK CFI INIT 7347c b7c .cfa: sp 0 +
STACK CFI 73480 .cfa: sp 384 +
STACK CFI 7349c .cfa: x29 96 + x19: .cfa -8 + ^ x20: .cfa -16 + ^ x21: .cfa -24 + ^ x22: .cfa -32 + ^ x23: .cfa -40 + ^ x24: .cfa -48 + ^ x25: .cfa -56 + ^ x26: .cfa -64 + ^ x27: .cfa -72 + ^ x28: .cfa -80 + ^ .ra: .cfa -88 + ^ x29: .cfa -96 + ^
STACK CFI 73f18 .cfa: sp 384 +
STACK CFI 73f34 .cfa: sp 0 +
STACK CFI 73f38 .cfa: x29 96 +
STACK CFI INIT 73ff8 25c .cfa: sp 0 +
STACK CFI 73ffc .cfa: sp 112 +
STACK CFI 74018 .cfa: x29 96 + x19: .cfa -8 + ^ x20: .cfa -16 + ^ x21: .cfa -24 + ^ x22: .cfa -32 + ^ x23: .cfa -40 + ^ x24: .cfa -48 + ^ x25: .cfa -56 + ^ x26: .cfa -64 + ^ x27: .cfa -72 + ^ x28: .cfa -80 + ^ .ra: .cfa -88 + ^ x29: .cfa -96 + ^
STACK CFI 7421c .cfa: sp 112 +
STACK CFI 74238 .cfa: sp 0 +
STACK CFI 7423c .cfa: x29 96 +
STACK CFI INIT 74254 110 .cfa: sp 0 +
STACK CFI 74258 .cfa: sp 128 +
STACK CFI 74268 .cfa: x29 48 + x19: .cfa -8 + ^ x20: .cfa -16 + ^ x21: .cfa -32 + ^ .ra: .cfa -40 + ^ x29: .cfa -48 + ^
STACK CFI 74330 .cfa: sp 128 +
STACK CFI 74340 .cfa: sp 0 +
STACK CFI 74344 .cfa: x29 48 +
STACK CFI INIT 74364 110 .cfa: sp 0 +
STACK CFI 74368 .cfa: sp 128 +
STACK CFI 74378 .cfa: x29 48 + x19: .cfa -8 + ^ x20: .cfa -16 + ^ x21: .cfa -32 + ^ .ra: .cfa -40 + ^ x29: .cfa -48 + ^
STACK CFI 74440 .cfa: sp 128 +
STACK CFI 74450 .cfa: sp 0 +
STACK CFI 74454 .cfa: x29 48 +
STACK CFI INIT 74474 1b8 .cfa: sp 0 +
STACK CFI 74478 .cfa: sp 64 +
STACK CFI 74484 .cfa: x29 32 + x19: .cfa -8 + ^ x20: .cfa -16 + ^ .ra: .cfa -24 + ^ x29: .cfa -32 + ^
STACK CFI 745c4 .cfa: sp 64 +
STACK CFI 745d0 .cfa: sp 0 +
STACK CFI 745d4 .cfa: x29 32 +
STACK CFI INIT 7462c 190 .cfa: sp 0 +
STACK CFI 74630 .cfa: sp 16 +
STACK CFI 74634 .cfa: x29 16 + .ra: .cfa -8 + ^ x29: .cfa -16 + ^
STACK CFI 746c4 .cfa: sp 16 +
STACK CFI 746c8 .cfa: sp 0 +
STACK CFI 746cc .cfa: x29 16 +
STACK CFI 7479c .cfa: sp 16 +
STACK CFI 747a0 .cfa: sp 0 +
STACK CFI 747a4 .cfa: x29 16 +
STACK CFI INIT 747bc 90 .cfa: sp 0 +
STACK CFI 747c0 .cfa: sp 16 +
STACK CFI 747c4 .cfa: x29 16 + .ra: .cfa -8 + ^ x29: .cfa -16 + ^
STACK CFI 74820 .cfa: sp 16 +
STACK CFI 74824 .cfa: sp 0 +
STACK CFI 74828 .cfa: x29 16 +
STACK CFI INIT 7484c 15c .cfa: sp 0 +
STACK CFI 74850 .cfa: sp 112 +
STACK CFI 7486c .cfa: x29 96 + x19: .cfa -8 + ^ x20: .cfa -16 + ^ x21: .cfa -24 + ^ x22: .cfa -32 + ^ x23: .cfa -40 + ^ x24: .cfa -48 + ^ x25: .cfa -56 + ^ x26: .cfa -64 + ^ x27: .cfa -72 + ^ x28: .cfa -80 + ^ .ra: .cfa -88 + ^ x29: .cfa -96 + ^
STACK CFI 74958 .cfa: sp 112 +
STACK CFI 7495c .cfa: x29 96 +
STACK CFI 74964 .cfa: sp 112 +
STACK CFI 74980 .cfa: sp 0 +
STACK CFI 74984 .cfa: x29 96 +
STACK CFI 749a4 .cfa: sp 112 +
STACK CFI INIT 749a8 90 .cfa: sp 0 +
STACK CFI 749ac .cfa: sp 16 +
STACK CFI 749b0 .cfa: x29 16 + .ra: .cfa -8 + ^ x29: .cfa -16 + ^
STACK CFI 74a0c .cfa: sp 16 +
STACK CFI 74a10 .cfa: sp 0 +
STACK CFI 74a14 .cfa: x29 16 +
STACK CFI INIT 74a38 b00 .cfa: sp 0 +
STACK CFI 74a3c .cfa: sp 176 +
STACK CFI 74a58 .cfa: x29 96 + x19: .cfa -8 + ^ x20: .cfa -16 + ^ x21: .cfa -24 + ^ x22: .cfa -32 + ^ x23: .cfa -40 + ^ x24: .cfa -48 + ^ x25: .cfa -56 + ^ x26: .cfa -64 + ^ x27: .cfa -72 + ^ x28: .cfa -80 + ^ .ra: .cfa -88 + ^ x29: .cfa -96 + ^
STACK CFI 74d48 .cfa: sp 176 +
STACK CFI 74d64 .cfa: sp 0 +
STACK CFI 74d68 .cfa: x29 96 +
STACK CFI 754f8 .cfa: sp 176 +
STACK CFI 75514 .cfa: sp 0 +
STACK CFI 75518 .cfa: x29 96 +
STACK CFI INIT 75538 19c .cfa: sp 0 +
STACK CFI 7553c .cfa: sp 96 +
STACK CFI 75550 .cfa: x29 64 + x19: .cfa -8 + ^ x20: .cfa -16 + ^ x21: .cfa -24 + ^ x22: .cfa -32 + ^ x23: .cfa -48 + ^ .ra: .cfa -56 + ^ x29: .cfa -64 + ^
STACK CFI 756b8 .cfa: sp 96 +
STACK CFI 756cc .cfa: sp 0 +
STACK CFI 756d0 .cfa: x29 64 +
STACK CFI INIT 756d4 1c4 .cfa: sp 0 +
STACK CFI 756d8 .cfa: sp 96 +
STACK CFI 756ec .cfa: x29 64 + x19: .cfa -8 + ^ x20: .cfa -16 + ^ x21: .cfa -24 + ^ x22: .cfa -32 + ^ x23: .cfa -48 + ^ .ra: .cfa -56 + ^ x29: .cfa -64 + ^
STACK CFI 7587c .cfa: sp 96 +
STACK CFI 75890 .cfa: sp 0 +
STACK CFI 75894 .cfa: x29 64 +
STACK CFI INIT 75898 cc4 .cfa: sp 0 +
STACK CFI 7589c .cfa: sp 256 +
STACK CFI 758b8 .cfa: x29 96 + x19: .cfa -8 + ^ x20: .cfa -16 + ^ x21: .cfa -24 + ^ x22: .cfa -32 + ^ x23: .cfa -40 + ^ x24: .cfa -48 + ^ x25: .cfa -56 + ^ x26: .cfa -64 + ^ x27: .cfa -72 + ^ x28: .cfa -80 + ^ .ra: .cfa -88 + ^ x29: .cfa -96 + ^
STACK CFI 75bd0 .cfa: sp 256 +
STACK CFI 75bec .cfa: sp 0 +
STACK CFI 75bf0 .cfa: x29 96 +
STACK CFI 764fc .cfa: sp 256 +
STACK CFI 76518 .cfa: sp 0 +
STACK CFI 7651c .cfa: x29 96 +
STACK CFI INIT 7655c 1d4 .cfa: sp 0 +
STACK CFI 76560 .cfa: sp 144 +
STACK CFI 7657c .cfa: x29 96 + x19: .cfa -8 + ^ x20: .cfa -16 + ^ x21: .cfa -24 + ^ x22: .cfa -32 + ^ x23: .cfa -40 + ^ x24: .cfa -48 + ^ x25: .cfa -56 + ^ x26: .cfa -64 + ^ x27: .cfa -80 + ^ .ra: .cfa -88 + ^ x29: .cfa -96 + ^
STACK CFI 7670c .cfa: sp 144 +
STACK CFI 76728 .cfa: sp 0 +
STACK CFI 7672c .cfa: x29 96 +
STACK CFI INIT 76730 1dc .cfa: sp 0 +
STACK CFI 76734 .cfa: sp 112 +
STACK CFI 76748 .cfa: x29 64 + x19: .cfa -8 + ^ x20: .cfa -16 + ^ x21: .cfa -24 + ^ x22: .cfa -32 + ^ x23: .cfa -48 + ^ .ra: .cfa -56 + ^ x29: .cfa -64 + ^
STACK CFI 768f0 .cfa: sp 112 +
STACK CFI 76904 .cfa: sp 0 +
STACK CFI 76908 .cfa: x29 64 +
STACK CFI INIT 7690c 1f4 .cfa: sp 0 +
STACK CFI 76910 .cfa: sp 128 +
STACK CFI 76928 .cfa: x29 80 + x19: .cfa -8 + ^ x20: .cfa -16 + ^ x21: .cfa -24 + ^ x22: .cfa -32 + ^ x23: .cfa -40 + ^ x24: .cfa -48 + ^ x25: .cfa -64 + ^ .ra: .cfa -72 + ^ x29: .cfa -80 + ^
STACK CFI 76a34 .cfa: sp 128 +
STACK CFI 76a4c .cfa: sp 0 +
STACK CFI 76a50 .cfa: x29 80 +
STACK CFI 76ac4 .cfa: sp 128 +
STACK CFI 76adc .cfa: sp 0 +
STACK CFI 76ae0 .cfa: x29 80 +
STACK CFI INIT 76eec 568 .cfa: sp 0 +
STACK CFI 76ef0 .cfa: sp 144 +
STACK CFI 76f0c .cfa: x29 96 + x19: .cfa -8 + ^ x20: .cfa -16 + ^ x21: .cfa -24 + ^ x22: .cfa -32 + ^ x23: .cfa -40 + ^ x24: .cfa -48 + ^ x25: .cfa -56 + ^ x26: .cfa -64 + ^ x27: .cfa -72 + ^ x28: .cfa -80 + ^ .ra: .cfa -88 + ^ x29: .cfa -96 + ^
STACK CFI 77430 .cfa: sp 144 +
STACK CFI 7744c .cfa: sp 0 +
STACK CFI 77450 .cfa: x29 96 +
STACK CFI INIT 77c40 1d4 .cfa: sp 0 +
STACK CFI 77c44 .cfa: sp 64 +
STACK CFI 77c50 .cfa: x29 32 + x19: .cfa -16 + ^ .ra: .cfa -24 + ^ x29: .cfa -32 + ^
STACK CFI 77ddc .cfa: sp 64 +
STACK CFI 77de8 .cfa: sp 0 +
STACK CFI 77dec .cfa: x29 32 +
STACK CFI INIT 781fc 1d8 .cfa: sp 0 +
STACK CFI 78200 .cfa: sp 176 +
STACK CFI 7821c .cfa: x29 96 + x19: .cfa -8 + ^ x20: .cfa -16 + ^ x21: .cfa -24 + ^ x22: .cfa -32 + ^ x23: .cfa -40 + ^ x24: .cfa -48 + ^ x25: .cfa -56 + ^ x26: .cfa -64 + ^ x27: .cfa -72 + ^ x28: .cfa -80 + ^ .ra: .cfa -88 + ^ x29: .cfa -96 + ^
STACK CFI 783b0 .cfa: sp 176 +
STACK CFI 783cc .cfa: sp 0 +
STACK CFI 783d0 .cfa: x29 96 +
STACK CFI INIT 783d4 40c .cfa: sp 0 +
STACK CFI 783d8 .cfa: sp 144 +
STACK CFI 783f4 .cfa: x29 96 + x19: .cfa -8 + ^ x20: .cfa -16 + ^ x21: .cfa -24 + ^ x22: .cfa -32 + ^ x23: .cfa -40 + ^ x24: .cfa -48 + ^ x25: .cfa -56 + ^ x26: .cfa -64 + ^ x27: .cfa -72 + ^ x28: .cfa -80 + ^ .ra: .cfa -88 + ^ x29: .cfa -96 + ^
STACK CFI 787bc .cfa: sp 144 +
STACK CFI 787d8 .cfa: sp 0 +
STACK CFI 787dc .cfa: x29 96 +
STACK CFI INIT 787e0 204 .cfa: sp 0 +
STACK CFI 787e4 .cfa: sp 80 +
STACK CFI 787f8 .cfa: x29 80 + x19: .cfa -8 + ^ x20: .cfa -16 + ^ x21: .cfa -24 + ^ x22: .cfa -32 + ^ x23: .cfa -40 + ^ x24: .cfa -48 + ^ x25: .cfa -64 + ^ .ra: .cfa -72 + ^ x29: .cfa -80 + ^
STACK CFI 78864 .cfa: sp 80 +
STACK CFI 78878 .cfa: sp 0 +
STACK CFI 7887c .cfa: x29 80 +
STACK CFI 78888 .cfa: sp 80 +
STACK CFI 7889c .cfa: sp 0 +
STACK CFI 788a0 .cfa: x29 80 +
STACK CFI INIT 789e4 1a4 .cfa: sp 0 +
STACK CFI 789e8 .cfa: sp 32 +
STACK CFI 789f0 .cfa: x29 16 + .ra: .cfa -8 + ^ x29: .cfa -16 + ^
STACK CFI 78a34 .cfa: sp 32 +
STACK CFI 78a3c .cfa: sp 0 +
STACK CFI 78a40 .cfa: x29 16 +
STACK CFI INIT 78b88 1b4 .cfa: sp 0 +
STACK CFI INIT 78d3c 5c0 .cfa: sp 0 +
STACK CFI 78d40 .cfa: sp 144 +
STACK CFI 78d5c .cfa: x29 96 + x19: .cfa -8 + ^ x20: .cfa -16 + ^ x21: .cfa -24 + ^ x22: .cfa -32 + ^ x23: .cfa -40 + ^ x24: .cfa -48 + ^ x25: .cfa -56 + ^ x26: .cfa -64 + ^ x27: .cfa -72 + ^ x28: .cfa -80 + ^ .ra: .cfa -88 + ^ x29: .cfa -96 + ^
STACK CFI 792d8 .cfa: sp 144 +
STACK CFI 792f4 .cfa: sp 0 +
STACK CFI 792f8 .cfa: x29 96 +
STACK CFI INIT 7a3cc 248 .cfa: sp 0 +
STACK CFI 7a3d0 .cfa: sp 128 +
STACK CFI 7a3e8 .cfa: x29 80 + x19: .cfa -8 + ^ x20: .cfa -16 + ^ x21: .cfa -24 + ^ x22: .cfa -32 + ^ x23: .cfa -40 + ^ x24: .cfa -48 + ^ x25: .cfa -56 + ^ x26: .cfa -64 + ^ .ra: .cfa -72 + ^ x29: .cfa -80 + ^
STACK CFI 7a5f4 .cfa: sp 128 +
STACK CFI 7a60c .cfa: sp 0 +
STACK CFI 7a610 .cfa: x29 80 +
STACK CFI INIT 7a614 318 .cfa: sp 0 +
STACK CFI 7a618 .cfa: sp 176 +
STACK CFI 7a634 .cfa: x29 96 + x19: .cfa -8 + ^ x20: .cfa -16 + ^ x21: .cfa -24 + ^ x22: .cfa -32 + ^ x23: .cfa -40 + ^ x24: .cfa -48 + ^ x25: .cfa -56 + ^ x26: .cfa -64 + ^ x27: .cfa -72 + ^ x28: .cfa -80 + ^ .ra: .cfa -88 + ^ x29: .cfa -96 + ^
STACK CFI 7a908 .cfa: sp 176 +
STACK CFI 7a924 .cfa: sp 0 +
STACK CFI 7a928 .cfa: x29 96 +
STACK CFI INIT 7a92c a0 .cfa: sp 0 +
STACK CFI 7a938 .cfa: sp 32 +
STACK CFI 7a990 .cfa: sp 0 +
STACK CFI 7a994 .cfa: sp 32 +
STACK CFI 7a99c .cfa: sp 0 +
STACK CFI 7a9a0 .cfa: sp 32 +
STACK CFI 7a9b4 .cfa: sp 0 +
STACK CFI 7a9b8 .cfa: sp 32 +
STACK CFI 7a9c8 .cfa: sp 0 +
STACK CFI INIT 7a9cc 38 .cfa: sp 0 +
STACK CFI 7a9d8 .cfa: sp 32 +
STACK CFI 7aa00 .cfa: sp 0 +
STACK CFI INIT 7aa04 c .cfa: sp 0 +
STACK CFI INIT 7aa10 234 .cfa: sp 0 +
STACK CFI INIT 7ac50 30 .cfa: sp 0 +
STACK CFI INIT 7ac80 98 .cfa: sp 0 +
STACK CFI INIT 7ad18 438 .cfa: sp 0 +
STACK CFI 7ad20 .cfa: sp 48 +
STACK CFI 7ad28 x19: .cfa -8 + ^ x20: .cfa -16 + ^ x21: .cfa -24 + ^ x22: .cfa -32 + ^ x23: .cfa -40 + ^ x24: .cfa -48 + ^
STACK CFI 7ad40 .cfa: sp 0 +
STACK CFI 7ad44 .cfa: sp 48 +
STACK CFI 7b130 .cfa: sp 0 +
STACK CFI 7b134 .cfa: sp 48 +
STACK CFI 7b14c .cfa: sp 0 +
STACK CFI INIT 7b150 98 .cfa: sp 0 +
STACK CFI INIT 7b1f0 30 .cfa: sp 0 +
STACK CFI INIT 2c7c0 620 .cfa: sp 0 +
STACK CFI 2c7c4 .cfa: sp 112 +
STACK CFI 2c7e0 .cfa: x29 72 + x19: .cfa -8 + ^ x20: .cfa -16 + ^ x21: .cfa -24 + ^ x22: .cfa -32 + ^ x23: .cfa -40 + ^ x24: .cfa -48 + ^ x25: .cfa -56 + ^ .ra: .cfa -64 + ^ x29: .cfa -72 + ^ v8: .cfa -80 + ^
STACK CFI 2c808 .cfa: sp 112 +
STACK CFI 2c824 .cfa: sp 0 +
STACK CFI 2c828 .cfa: x29 72 +
STACK CFI INIT 2cf24 17c .cfa: sp 0 +
STACK CFI 2cf28 .cfa: sp 96 +
STACK CFI 2cf3c .cfa: x29 64 + x19: .cfa -8 + ^ x20: .cfa -16 + ^ x21: .cfa -24 + ^ x22: .cfa -32 + ^ x23: .cfa -40 + ^ x24: .cfa -48 + ^ .ra: .cfa -56 + ^ x29: .cfa -64 + ^
STACK CFI 2cff0 .cfa: sp 96 +
STACK CFI 2d004 .cfa: sp 0 +
STACK CFI 2d008 .cfa: x29 64 +
STACK CFI INIT 2d138 50 .cfa: sp 0 +
STACK CFI 2d13c .cfa: sp 32 +
STACK CFI 2d144 .cfa: x29 32 + x19: .cfa -8 + ^ x20: .cfa -16 + ^ .ra: .cfa -24 + ^ x29: .cfa -32 + ^
STACK CFI INIT 2d1fc 1e0 .cfa: sp 0 +
STACK CFI 2d200 .cfa: sp 128 +
STACK CFI 2d210 .cfa: x29 48 + x19: .cfa -8 + ^ x20: .cfa -16 + ^ x21: .cfa -32 + ^ .ra: .cfa -40 + ^ x29: .cfa -48 + ^
STACK CFI 2d374 .cfa: sp 128 +
STACK CFI 2d384 .cfa: sp 0 +
STACK CFI 2d388 .cfa: x29 48 +
STACK CFI INIT 2d3dc 50c .cfa: sp 0 +
STACK CFI 2d3e0 .cfa: sp 144 +
STACK CFI 2d3fc .cfa: x29 96 + x19: .cfa -8 + ^ x20: .cfa -16 + ^ x21: .cfa -24 + ^ x22: .cfa -32 + ^ x23: .cfa -40 + ^ x24: .cfa -48 + ^ x25: .cfa -56 + ^ x26: .cfa -64 + ^ x27: .cfa -72 + ^ x28: .cfa -80 + ^ .ra: .cfa -88 + ^ x29: .cfa -96 + ^
STACK CFI 2d878 .cfa: sp 144 +
STACK CFI 2d894 .cfa: sp 0 +
STACK CFI 2d898 .cfa: x29 96 +
STACK CFI INIT 2e188 498 .cfa: sp 0 +
STACK CFI 2e18c .cfa: sp 256 +
STACK CFI 2e1a8 .cfa: x29 96 + x19: .cfa -8 + ^ x20: .cfa -16 + ^ x21: .cfa -24 + ^ x22: .cfa -32 + ^ x23: .cfa -40 + ^ x24: .cfa -48 + ^ x25: .cfa -56 + ^ x26: .cfa -64 + ^ x27: .cfa -72 + ^ x28: .cfa -80 + ^ .ra: .cfa -88 + ^ x29: .cfa -96 + ^
STACK CFI 2e51c .cfa: sp 256 +
STACK CFI 2e538 .cfa: sp 0 +
STACK CFI 2e53c .cfa: x29 96 +
STACK CFI INIT 2e620 2e4 .cfa: sp 0 +
STACK CFI 2e624 .cfa: sp 176 +
STACK CFI 2e638 .cfa: x29 64 + x19: .cfa -8 + ^ x20: .cfa -16 + ^ x21: .cfa -24 + ^ x22: .cfa -32 + ^ x23: .cfa -48 + ^ .ra: .cfa -56 + ^ x29: .cfa -64 + ^
STACK CFI 2e82c .cfa: sp 176 +
STACK CFI 2e840 .cfa: sp 0 +
STACK CFI 2e844 .cfa: x29 64 +
STACK CFI INIT 2e904 120 .cfa: sp 0 +
STACK CFI 2e908 .cfa: sp 112 +
STACK CFI 2e914 .cfa: x29 32 + x19: .cfa -8 + ^ x20: .cfa -16 + ^ .ra: .cfa -24 + ^ x29: .cfa -32 + ^
STACK CFI 2e9e4 .cfa: sp 112 +
STACK CFI 2e9f0 .cfa: sp 0 +
STACK CFI 2e9f4 .cfa: x29 32 +
STACK CFI INIT 2eaf4 1bc .cfa: sp 0 +
STACK CFI 2eaf8 .cfa: sp 176 +
STACK CFI 2eb0c .cfa: x29 64 + x19: .cfa -8 + ^ x20: .cfa -16 + ^ x21: .cfa -24 + ^ x22: .cfa -32 + ^ x23: .cfa -40 + ^ x24: .cfa -48 + ^ .ra: .cfa -56 + ^ x29: .cfa -64 + ^
STACK CFI 2ebb4 .cfa: sp 176 +
STACK CFI 2ebc8 .cfa: sp 0 +
STACK CFI 2ebcc .cfa: x29 64 +
STACK CFI INIT 2ecb0 100 .cfa: sp 0 +
STACK CFI 2ecb4 .cfa: sp 48 +
STACK CFI 2ecc0 .cfa: x29 48 + x19: .cfa -8 + ^ x20: .cfa -16 + ^ x21: .cfa -24 + ^ x22: .cfa -32 + ^ .ra: .cfa -40 + ^ x29: .cfa -48 + ^
STACK CFI 2ecd0 .cfa: sp 48 +
STACK CFI 2ecdc .cfa: sp 0 +
STACK CFI 2ece0 .cfa: x29 48 +
STACK CFI INIT 2eebc 18c .cfa: sp 0 +
STACK CFI 2eec0 .cfa: sp 96 +
STACK CFI 2eed8 .cfa: x29 80 + x19: .cfa -8 + ^ x20: .cfa -16 + ^ x21: .cfa -24 + ^ x22: .cfa -32 + ^ x23: .cfa -40 + ^ x24: .cfa -48 + ^ x25: .cfa -64 + ^ .ra: .cfa -72 + ^ x29: .cfa -80 + ^
STACK CFI 2eff0 .cfa: sp 96 +
STACK CFI 2f008 .cfa: sp 0 +
STACK CFI 2f00c .cfa: x29 80 +
STACK CFI INIT 2f380 2a0 .cfa: sp 0 +
STACK CFI 2f384 .cfa: sp 144 +
STACK CFI 2f3a0 .cfa: x29 96 + x19: .cfa -8 + ^ x20: .cfa -16 + ^ x21: .cfa -24 + ^ x22: .cfa -32 + ^ x23: .cfa -40 + ^ x24: .cfa -48 + ^ x25: .cfa -56 + ^ x26: .cfa -64 + ^ x27: .cfa -80 + ^ .ra: .cfa -88 + ^ x29: .cfa -96 + ^
STACK CFI 2f520 .cfa: sp 144 +
STACK CFI 2f53c .cfa: sp 0 +
STACK CFI 2f540 .cfa: x29 96 +
STACK CFI 2f594 .cfa: sp 144 +
STACK CFI 2f5b0 .cfa: sp 0 +
STACK CFI 2f5b4 .cfa: x29 96 +
STACK CFI INIT 2fbc8 180 .cfa: sp 0 +
STACK CFI 2fbcc .cfa: sp 160 +
STACK CFI 2fbe4 .cfa: x29 80 + x19: .cfa -8 + ^ x20: .cfa -16 + ^ x21: .cfa -24 + ^ x22: .cfa -32 + ^ x23: .cfa -40 + ^ x24: .cfa -48 + ^ x25: .cfa -64 + ^ .ra: .cfa -72 + ^ x29: .cfa -80 + ^
STACK CFI 2fce0 .cfa: sp 160 +
STACK CFI 2fcf8 .cfa: sp 0 +
STACK CFI 2fcfc .cfa: x29 80 +
STACK CFI INIT 2fe00 a0 .cfa: sp 0 +
STACK CFI 2fe04 .cfa: sp 64 +
STACK CFI 2fe10 .cfa: x29 32 + x19: .cfa -8 + ^ x20: .cfa -16 + ^ .ra: .cfa -24 + ^ x29: .cfa -32 + ^
STACK CFI 2fe60 .cfa: sp 64 +
STACK CFI 2fe6c .cfa: sp 0 +
STACK CFI 2fe70 .cfa: x29 32 +
STACK CFI INIT 2fea0 13c .cfa: sp 0 +
STACK CFI 2fea4 .cfa: sp 96 +
STACK CFI 2feb8 .cfa: x29 64 + x19: .cfa -8 + ^ x20: .cfa -16 + ^ x21: .cfa -24 + ^ x22: .cfa -32 + ^ x23: .cfa -48 + ^ .ra: .cfa -56 + ^ x29: .cfa -64 + ^
STACK CFI 2ff74 .cfa: sp 96 +
STACK CFI 2ff88 .cfa: sp 0 +
STACK CFI 2ff8c .cfa: x29 64 +
STACK CFI INIT 2ffdc 248 .cfa: sp 0 +
STACK CFI 2ffe0 .cfa: sp 96 +
STACK CFI 2fff8 .cfa: x29 80 + x19: .cfa -8 + ^ x20: .cfa -16 + ^ x21: .cfa -24 + ^ x22: .cfa -32 + ^ x23: .cfa -40 + ^ x24: .cfa -48 + ^ x25: .cfa -64 + ^ .ra: .cfa -72 + ^ x29: .cfa -80 + ^
STACK CFI 30200 .cfa: sp 96 +
STACK CFI 30218 .cfa: sp 0 +
STACK CFI 3021c .cfa: x29 80 +
STACK CFI INIT 30224 50 .cfa: sp 0 +
STACK CFI 30228 .cfa: sp 32 +
STACK CFI 30230 .cfa: x29 32 + x19: .cfa -8 + ^ x20: .cfa -16 + ^ .ra: .cfa -24 + ^ x29: .cfa -32 + ^
STACK CFI INIT 302a4 c0 .cfa: sp 0 +
STACK CFI 302a8 .cfa: sp 80 +
STACK CFI 302b4 .cfa: x29 32 + x19: .cfa -8 + ^ x20: .cfa -16 + ^ .ra: .cfa -24 + ^ x29: .cfa -32 + ^
STACK CFI 30324 .cfa: sp 80 +
STACK CFI 30330 .cfa: sp 0 +
STACK CFI 30334 .cfa: x29 32 +
STACK CFI INIT 30364 8b4 .cfa: sp 0 +
STACK CFI 30368 .cfa: sp 224 +
STACK CFI 30388 .cfa: x29 96 + x19: .cfa -8 + ^ x20: .cfa -16 + ^ x21: .cfa -24 + ^ x22: .cfa -32 + ^ x23: .cfa -40 + ^ x24: .cfa -48 + ^ x25: .cfa -56 + ^ x26: .cfa -64 + ^ x27: .cfa -72 + ^ x28: .cfa -80 + ^ .ra: .cfa -88 + ^ x29: .cfa -96 + ^ v8: .cfa -112 + ^
STACK CFI 30bbc .cfa: sp 224 +
STACK CFI 30bdc .cfa: sp 0 +
STACK CFI 30be0 .cfa: x29 96 +
STACK CFI INIT 30c18 230 .cfa: sp 0 +
STACK CFI 30c1c .cfa: sp 112 +
STACK CFI 30c34 .cfa: x29 80 + x19: .cfa -8 + ^ x20: .cfa -16 + ^ x21: .cfa -24 + ^ x22: .cfa -32 + ^ x23: .cfa -40 + ^ x24: .cfa -48 + ^ x25: .cfa -56 + ^ x26: .cfa -64 + ^ .ra: .cfa -72 + ^ x29: .cfa -80 + ^
STACK CFI 30de4 .cfa: sp 112 +
STACK CFI 30dfc .cfa: sp 0 +
STACK CFI 30e00 .cfa: x29 80 +
STACK CFI INIT 30e48 240 .cfa: sp 0 +
STACK CFI 30e4c .cfa: sp 144 +
STACK CFI 30e68 .cfa: x29 96 + x19: .cfa -8 + ^ x20: .cfa -16 + ^ x21: .cfa -24 + ^ x22: .cfa -32 + ^ x23: .cfa -40 + ^ x24: .cfa -48 + ^ x25: .cfa -56 + ^ x26: .cfa -64 + ^ x27: .cfa -72 + ^ x28: .cfa -80 + ^ .ra: .cfa -88 + ^ x29: .cfa -96 + ^
STACK CFI 31020 .cfa: sp 144 +
STACK CFI 3103c .cfa: sp 0 +
STACK CFI 31040 .cfa: x29 96 +
STACK CFI INIT 3110c 1d8 .cfa: sp 0 +
STACK CFI 31110 .cfa: sp 128 +
STACK CFI 31120 .cfa: x29 48 + x19: .cfa -8 + ^ x20: .cfa -16 + ^ x21: .cfa -32 + ^ .ra: .cfa -40 + ^ x29: .cfa -48 + ^
STACK CFI 3127c .cfa: sp 128 +
STACK CFI 3128c .cfa: sp 0 +
STACK CFI 31290 .cfa: x29 48 +
STACK CFI INIT 31328 498 .cfa: sp 0 +
STACK CFI 3132c .cfa: sp 256 +
STACK CFI 31348 .cfa: x29 96 + x19: .cfa -8 + ^ x20: .cfa -16 + ^ x21: .cfa -24 + ^ x22: .cfa -32 + ^ x23: .cfa -40 + ^ x24: .cfa -48 + ^ x25: .cfa -56 + ^ x26: .cfa -64 + ^ x27: .cfa -72 + ^ x28: .cfa -80 + ^ .ra: .cfa -88 + ^ x29: .cfa -96 + ^
STACK CFI 316bc .cfa: sp 256 +
STACK CFI 316d8 .cfa: sp 0 +
STACK CFI 316dc .cfa: x29 96 +
STACK CFI INIT 317c0 2b8 .cfa: sp 0 +
STACK CFI 317c4 .cfa: sp 144 +
STACK CFI 317d8 .cfa: x29 64 + x19: .cfa -8 + ^ x20: .cfa -16 + ^ x21: .cfa -24 + ^ x22: .cfa -32 + ^ x23: .cfa -48 + ^ .ra: .cfa -56 + ^ x29: .cfa -64 + ^
STACK CFI 319a8 .cfa: sp 144 +
STACK CFI 319bc .cfa: sp 0 +
STACK CFI 319c0 .cfa: x29 64 +
STACK CFI INIT 31a78 108 .cfa: sp 0 +
STACK CFI 31a7c .cfa: sp 112 +
STACK CFI 31a88 .cfa: x29 32 + x19: .cfa -8 + ^ x20: .cfa -16 + ^ .ra: .cfa -24 + ^ x29: .cfa -32 + ^
STACK CFI 31b40 .cfa: sp 112 +
STACK CFI 31b4c .cfa: sp 0 +
STACK CFI 31b50 .cfa: x29 32 +
STACK CFI INIT 31b84 1bc .cfa: sp 0 +
STACK CFI 31b88 .cfa: sp 176 +
STACK CFI 31b9c .cfa: x29 64 + x19: .cfa -8 + ^ x20: .cfa -16 + ^ x21: .cfa -24 + ^ x22: .cfa -32 + ^ x23: .cfa -40 + ^ x24: .cfa -48 + ^ .ra: .cfa -56 + ^ x29: .cfa -64 + ^
STACK CFI 31c44 .cfa: sp 176 +
STACK CFI 31c58 .cfa: sp 0 +
STACK CFI 31c5c .cfa: x29 64 +
STACK CFI INIT 31d40 134 .cfa: sp 0 +
STACK CFI 31d44 .cfa: sp 128 +
STACK CFI 31d58 .cfa: x29 64 + x19: .cfa -8 + ^ x20: .cfa -16 + ^ x21: .cfa -24 + ^ x22: .cfa -32 + ^ x23: .cfa -40 + ^ x24: .cfa -48 + ^ .ra: .cfa -56 + ^ x29: .cfa -64 + ^
STACK CFI 31e24 .cfa: sp 128 +
STACK CFI 31e38 .cfa: sp 0 +
STACK CFI 31e3c .cfa: x29 64 +
STACK CFI INIT 31eac 15c .cfa: sp 0 +
STACK CFI 31eb0 .cfa: sp 48 +
STACK CFI 31ebc .cfa: x29 48 + x19: .cfa -8 + ^ x20: .cfa -16 + ^ x21: .cfa -24 + ^ x22: .cfa -32 + ^ .ra: .cfa -40 + ^ x29: .cfa -48 + ^
STACK CFI 31f08 .cfa: sp 48 +
STACK CFI 31f14 .cfa: sp 0 +
STACK CFI 31f18 .cfa: x29 48 +
STACK CFI 31f1c .cfa: sp 48 +
STACK CFI 31f28 .cfa: sp 0 +
STACK CFI 31f2c .cfa: x29 48 +
STACK CFI INIT 32008 13c .cfa: sp 0 +
STACK CFI 3200c .cfa: sp 96 +
STACK CFI 32020 .cfa: x29 64 + x19: .cfa -8 + ^ x20: .cfa -16 + ^ x21: .cfa -24 + ^ x22: .cfa -32 + ^ x23: .cfa -48 + ^ .ra: .cfa -56 + ^ x29: .cfa -64 + ^
STACK CFI 320dc .cfa: sp 96 +
STACK CFI 320f0 .cfa: sp 0 +
STACK CFI 320f4 .cfa: x29 64 +
STACK CFI INIT 32144 c0 .cfa: sp 0 +
STACK CFI 32148 .cfa: sp 80 +
STACK CFI 32154 .cfa: x29 32 + x19: .cfa -8 + ^ x20: .cfa -16 + ^ .ra: .cfa -24 + ^ x29: .cfa -32 + ^
STACK CFI 321c4 .cfa: sp 80 +
STACK CFI 321d0 .cfa: sp 0 +
STACK CFI 321d4 .cfa: x29 32 +
STACK CFI INIT 32204 90c .cfa: sp 0 +
STACK CFI 32208 .cfa: sp 128 +
STACK CFI 32224 .cfa: x29 96 + x19: .cfa -8 + ^ x20: .cfa -16 + ^ x21: .cfa -24 + ^ x22: .cfa -32 + ^ x23: .cfa -40 + ^ x24: .cfa -48 + ^ x25: .cfa -56 + ^ x26: .cfa -64 + ^ x27: .cfa -72 + ^ x28: .cfa -80 + ^ .ra: .cfa -88 + ^ x29: .cfa -96 + ^
STACK CFI 32a98 .cfa: sp 128 +
STACK CFI 32ab4 .cfa: sp 0 +
STACK CFI 32ab8 .cfa: x29 96 +
STACK CFI INIT 32b94 498 .cfa: sp 0 +
STACK CFI 32b98 .cfa: sp 256 +
STACK CFI 32bb4 .cfa: x29 96 + x19: .cfa -8 + ^ x20: .cfa -16 + ^ x21: .cfa -24 + ^ x22: .cfa -32 + ^ x23: .cfa -40 + ^ x24: .cfa -48 + ^ x25: .cfa -56 + ^ x26: .cfa -64 + ^ x27: .cfa -72 + ^ x28: .cfa -80 + ^ .ra: .cfa -88 + ^ x29: .cfa -96 + ^
STACK CFI 32f28 .cfa: sp 256 +
STACK CFI 32f44 .cfa: sp 0 +
STACK CFI 32f48 .cfa: x29 96 +
STACK CFI INIT 3302c 2c0 .cfa: sp 0 +
STACK CFI 33030 .cfa: sp 144 +
STACK CFI 33044 .cfa: x29 64 + x19: .cfa -8 + ^ x20: .cfa -16 + ^ x21: .cfa -24 + ^ x22: .cfa -32 + ^ x23: .cfa -48 + ^ .ra: .cfa -56 + ^ x29: .cfa -64 + ^
STACK CFI 3321c .cfa: sp 144 +
STACK CFI 33230 .cfa: sp 0 +
STACK CFI 33234 .cfa: x29 64 +
STACK CFI INIT 332ec 10c .cfa: sp 0 +
STACK CFI 332f0 .cfa: sp 112 +
STACK CFI 332fc .cfa: x29 32 + x19: .cfa -8 + ^ x20: .cfa -16 + ^ .ra: .cfa -24 + ^ x29: .cfa -32 + ^
STACK CFI 333b8 .cfa: sp 112 +
STACK CFI 333c4 .cfa: sp 0 +
STACK CFI 333c8 .cfa: x29 32 +
STACK CFI INIT 333fc 1bc .cfa: sp 0 +
STACK CFI 33400 .cfa: sp 176 +
STACK CFI 33414 .cfa: x29 64 + x19: .cfa -8 + ^ x20: .cfa -16 + ^ x21: .cfa -24 + ^ x22: .cfa -32 + ^ x23: .cfa -40 + ^ x24: .cfa -48 + ^ .ra: .cfa -56 + ^ x29: .cfa -64 + ^
STACK CFI 334bc .cfa: sp 176 +
STACK CFI 334d0 .cfa: sp 0 +
STACK CFI 334d4 .cfa: x29 64 +
STACK CFI INIT 335b8 118 .cfa: sp 0 +
STACK CFI 335bc .cfa: sp 144 +
STACK CFI 335d4 .cfa: x29 80 + x19: .cfa -8 + ^ x20: .cfa -16 + ^ x21: .cfa -24 + ^ x22: .cfa -32 + ^ x23: .cfa -40 + ^ x24: .cfa -48 + ^ x25: .cfa -64 + ^ .ra: .cfa -72 + ^ x29: .cfa -80 + ^
STACK CFI 3367c .cfa: sp 144 +
STACK CFI 33694 .cfa: sp 0 +
STACK CFI 33698 .cfa: x29 80 +
STACK CFI INIT 33724 2a0 .cfa: sp 0 +
STACK CFI 33728 .cfa: sp 96 +
STACK CFI 3373c .cfa: x29 64 + x19: .cfa -8 + ^ x20: .cfa -16 + ^ x21: .cfa -24 + ^ x22: .cfa -32 + ^ x23: .cfa -40 + ^ x24: .cfa -48 + ^ .ra: .cfa -56 + ^ x29: .cfa -64 + ^
STACK CFI 33884 .cfa: sp 96 +
STACK CFI 33898 .cfa: sp 0 +
STACK CFI 3389c .cfa: x29 64 +
STACK CFI 33964 .cfa: sp 96 +
STACK CFI 33978 .cfa: sp 0 +
STACK CFI 3397c .cfa: x29 64 +
STACK CFI INIT 339d8 130 .cfa: sp 0 +
STACK CFI 339dc .cfa: sp 96 +
STACK CFI 339f0 .cfa: x29 64 + x19: .cfa -8 + ^ x20: .cfa -16 + ^ x21: .cfa -24 + ^ x22: .cfa -32 + ^ x23: .cfa -40 + ^ x24: .cfa -48 + ^ .ra: .cfa -56 + ^ x29: .cfa -64 + ^
STACK CFI 33aa0 .cfa: sp 96 +
STACK CFI 33ab4 .cfa: sp 0 +
STACK CFI 33ab8 .cfa: x29 64 +
STACK CFI INIT 33b08 1e4 .cfa: sp 0 +
STACK CFI 33b0c .cfa: sp 464 +
STACK CFI 33b20 .cfa: x29 64 + x19: .cfa -8 + ^ x20: .cfa -16 + ^ x21: .cfa -24 + ^ x22: .cfa -32 + ^ x28: .cfa -48 + ^ .ra: .cfa -56 + ^ x29: .cfa -64 + ^
STACK CFI 33c50 .cfa: sp 464 +
STACK CFI 33c64 .cfa: sp 0 +
STACK CFI 33c68 .cfa: x29 64 +
STACK CFI INIT 33cec 264 .cfa: sp 0 +
STACK CFI 33cf0 .cfa: sp 112 +
STACK CFI 33d0c .cfa: x29 96 + x19: .cfa -8 + ^ x20: .cfa -16 + ^ x21: .cfa -24 + ^ x22: .cfa -32 + ^ x23: .cfa -40 + ^ x24: .cfa -48 + ^ x25: .cfa -56 + ^ x26: .cfa -64 + ^ x27: .cfa -72 + ^ x28: .cfa -80 + ^ .ra: .cfa -88 + ^ x29: .cfa -96 + ^
STACK CFI 33d44 .cfa: sp 112 +
STACK CFI 33d60 .cfa: sp 0 +
STACK CFI 33d64 .cfa: x29 96 +
STACK CFI INIT 33ffc c4 .cfa: sp 0 +
STACK CFI 34000 .cfa: sp 432 +
STACK CFI 3400c .cfa: x29 32 + x19: .cfa -8 + ^ x28: .cfa -16 + ^ .ra: .cfa -24 + ^ x29: .cfa -32 + ^
STACK CFI 340a8 .cfa: sp 432 +
STACK CFI 340b4 .cfa: sp 0 +
STACK CFI 340b8 .cfa: x29 32 +
STACK CFI INIT 340d4 230 .cfa: sp 0 +
STACK CFI 340d8 .cfa: sp 128 +
STACK CFI 340f0 .cfa: x29 80 + x19: .cfa -8 + ^ x20: .cfa -16 + ^ x21: .cfa -24 + ^ x22: .cfa -32 + ^ x23: .cfa -40 + ^ x24: .cfa -48 + ^ x25: .cfa -64 + ^ .ra: .cfa -72 + ^ x29: .cfa -80 + ^
STACK CFI 34204 .cfa: sp 128 +
STACK CFI 3421c .cfa: sp 0 +
STACK CFI 34220 .cfa: x29 80 +
STACK CFI 34250 .cfa: sp 128 +
STACK CFI 34268 .cfa: sp 0 +
STACK CFI 3426c .cfa: x29 80 +
STACK CFI INIT 3439c 48 .cfa: sp 0 +
STACK CFI 343a0 .cfa: sp 32 +
STACK CFI 343a8 .cfa: x29 32 + x19: .cfa -16 + ^ .ra: .cfa -24 + ^ x29: .cfa -32 + ^
STACK CFI 343d4 .cfa: sp 32 +
STACK CFI 343dc .cfa: sp 0 +
STACK CFI 343e0 .cfa: x29 32 +
STACK CFI INIT 343ec 4c .cfa: sp 0 +
STACK CFI 343f0 .cfa: sp 32 +
STACK CFI 343f8 .cfa: x29 32 + x19: .cfa -16 + ^ .ra: .cfa -24 + ^ x29: .cfa -32 + ^
STACK CFI 34428 .cfa: sp 32 +
STACK CFI 34430 .cfa: sp 0 +
STACK CFI 34434 .cfa: x29 32 +
STACK CFI INIT 34480 1d4 .cfa: sp 0 +
STACK CFI 34484 .cfa: sp 128 +
STACK CFI 34494 .cfa: x29 48 + x19: .cfa -8 + ^ x20: .cfa -16 + ^ x21: .cfa -24 + ^ x22: .cfa -32 + ^ .ra: .cfa -40 + ^ x29: .cfa -48 + ^
STACK CFI 345ec .cfa: sp 128 +
STACK CFI 345fc .cfa: sp 0 +
STACK CFI 34600 .cfa: x29 48 +
STACK CFI INIT 34698 bc .cfa: sp 0 +
STACK CFI 3469c .cfa: sp 80 +
STACK CFI 346a8 .cfa: x29 32 + x19: .cfa -8 + ^ x20: .cfa -16 + ^ .ra: .cfa -24 + ^ x29: .cfa -32 + ^
STACK CFI 34714 .cfa: sp 80 +
STACK CFI 34720 .cfa: sp 0 +
STACK CFI 34724 .cfa: x29 32 +
STACK CFI INIT 34754 978 .cfa: sp 0 +
STACK CFI 34758 .cfa: sp 96 +
STACK CFI 3476c .cfa: x29 64 + x19: .cfa -8 + ^ x20: .cfa -16 + ^ x21: .cfa -24 + ^ x22: .cfa -32 + ^ x23: .cfa -40 + ^ x24: .cfa -48 + ^ .ra: .cfa -56 + ^ x29: .cfa -64 + ^
STACK CFI 35058 .cfa: sp 96 +
STACK CFI 3506c .cfa: sp 0 +
STACK CFI 35070 .cfa: x29 64 +
STACK CFI INIT 35150 1d4 .cfa: sp 0 +
STACK CFI 35154 .cfa: sp 128 +
STACK CFI 35164 .cfa: x29 48 + x19: .cfa -8 + ^ x20: .cfa -16 + ^ x21: .cfa -24 + ^ x22: .cfa -32 + ^ .ra: .cfa -40 + ^ x29: .cfa -48 + ^
STACK CFI 352bc .cfa: sp 128 +
STACK CFI 352cc .cfa: sp 0 +
STACK CFI 352d0 .cfa: x29 48 +
STACK CFI INIT 35368 498 .cfa: sp 0 +
STACK CFI 3536c .cfa: sp 256 +
STACK CFI 35388 .cfa: x29 96 + x19: .cfa -8 + ^ x20: .cfa -16 + ^ x21: .cfa -24 + ^ x22: .cfa -32 + ^ x23: .cfa -40 + ^ x24: .cfa -48 + ^ x25: .cfa -56 + ^ x26: .cfa -64 + ^ x27: .cfa -72 + ^ x28: .cfa -80 + ^ .ra: .cfa -88 + ^ x29: .cfa -96 + ^
STACK CFI 356fc .cfa: sp 256 +
STACK CFI 35718 .cfa: sp 0 +
STACK CFI 3571c .cfa: x29 96 +
STACK CFI INIT 35800 2c0 .cfa: sp 0 +
STACK CFI 35804 .cfa: sp 144 +
STACK CFI 35818 .cfa: x29 64 + x19: .cfa -8 + ^ x20: .cfa -16 + ^ x21: .cfa -24 + ^ x22: .cfa -32 + ^ x23: .cfa -48 + ^ .ra: .cfa -56 + ^ x29: .cfa -64 + ^
STACK CFI 359f0 .cfa: sp 144 +
STACK CFI 35a04 .cfa: sp 0 +
STACK CFI 35a08 .cfa: x29 64 +
STACK CFI INIT 35ac0 10c .cfa: sp 0 +
STACK CFI 35ac4 .cfa: sp 112 +
STACK CFI 35ad0 .cfa: x29 32 + x19: .cfa -8 + ^ x20: .cfa -16 + ^ .ra: .cfa -24 + ^ x29: .cfa -32 + ^
STACK CFI 35b8c .cfa: sp 112 +
STACK CFI 35b98 .cfa: sp 0 +
STACK CFI 35b9c .cfa: x29 32 +
STACK CFI INIT 35bd0 1bc .cfa: sp 0 +
STACK CFI 35bd4 .cfa: sp 176 +
STACK CFI 35be8 .cfa: x29 64 + x19: .cfa -8 + ^ x20: .cfa -16 + ^ x21: .cfa -24 + ^ x22: .cfa -32 + ^ x23: .cfa -40 + ^ x24: .cfa -48 + ^ .ra: .cfa -56 + ^ x29: .cfa -64 + ^
STACK CFI 35c90 .cfa: sp 176 +
STACK CFI 35ca4 .cfa: sp 0 +
STACK CFI 35ca8 .cfa: x29 64 +
STACK CFI INIT 35d8c 180 .cfa: sp 0 +
STACK CFI 35d90 .cfa: sp 144 +
STACK CFI 35da8 .cfa: x29 80 + x19: .cfa -8 + ^ x20: .cfa -16 + ^ x21: .cfa -24 + ^ x22: .cfa -32 + ^ x23: .cfa -40 + ^ x24: .cfa -48 + ^ x25: .cfa -64 + ^ .ra: .cfa -72 + ^ x29: .cfa -80 + ^
STACK CFI 35ea4 .cfa: sp 144 +
STACK CFI 35ebc .cfa: sp 0 +
STACK CFI 35ec0 .cfa: x29 80 +
STACK CFI INIT 35f44 130 .cfa: sp 0 +
STACK CFI 35f48 .cfa: sp 96 +
STACK CFI 35f5c .cfa: x29 64 + x19: .cfa -8 + ^ x20: .cfa -16 + ^ x21: .cfa -24 + ^ x22: .cfa -32 + ^ x23: .cfa -40 + ^ x24: .cfa -48 + ^ .ra: .cfa -56 + ^ x29: .cfa -64 + ^
STACK CFI 3600c .cfa: sp 96 +
STACK CFI 36020 .cfa: sp 0 +
STACK CFI 36024 .cfa: x29 64 +
STACK CFI INIT 36074 bc .cfa: sp 0 +
STACK CFI 36078 .cfa: sp 80 +
STACK CFI 36084 .cfa: x29 32 + x19: .cfa -8 + ^ x20: .cfa -16 + ^ .ra: .cfa -24 + ^ x29: .cfa -32 + ^
STACK CFI 360f0 .cfa: sp 80 +
STACK CFI 360fc .cfa: sp 0 +
STACK CFI 36100 .cfa: x29 32 +
STACK CFI INIT 36130 974 .cfa: sp 0 +
STACK CFI 36134 .cfa: sp 256 +
STACK CFI 36154 .cfa: x29 88 + x19: .cfa -8 + ^ x20: .cfa -16 + ^ x21: .cfa -24 + ^ x22: .cfa -32 + ^ x23: .cfa -40 + ^ x24: .cfa -48 + ^ x25: .cfa -56 + ^ x26: .cfa -64 + ^ x27: .cfa -72 + ^ .ra: .cfa -80 + ^ x29: .cfa -88 + ^ v8: .cfa -96 + ^
STACK CFI 36a08 .cfa: sp 256 +
STACK CFI 36a28 .cfa: sp 0 +
STACK CFI 36a2c .cfa: x29 88 +
STACK CFI INIT 36cac 1d4 .cfa: sp 0 +
STACK CFI 36cb0 .cfa: sp 128 +
STACK CFI 36cc0 .cfa: x29 48 + x19: .cfa -8 + ^ x20: .cfa -16 + ^ x21: .cfa -24 + ^ x22: .cfa -32 + ^ .ra: .cfa -40 + ^ x29: .cfa -48 + ^
STACK CFI 36e18 .cfa: sp 128 +
STACK CFI 36e28 .cfa: sp 0 +
STACK CFI 36e2c .cfa: x29 48 +
STACK CFI INIT 36ec4 498 .cfa: sp 0 +
STACK CFI 36ec8 .cfa: sp 256 +
STACK CFI 36ee4 .cfa: x29 96 + x19: .cfa -8 + ^ x20: .cfa -16 + ^ x21: .cfa -24 + ^ x22: .cfa -32 + ^ x23: .cfa -40 + ^ x24: .cfa -48 + ^ x25: .cfa -56 + ^ x26: .cfa -64 + ^ x27: .cfa -72 + ^ x28: .cfa -80 + ^ .ra: .cfa -88 + ^ x29: .cfa -96 + ^
STACK CFI 37258 .cfa: sp 256 +
STACK CFI 37274 .cfa: sp 0 +
STACK CFI 37278 .cfa: x29 96 +
STACK CFI INIT 3735c 2c0 .cfa: sp 0 +
STACK CFI 37360 .cfa: sp 144 +
STACK CFI 37374 .cfa: x29 64 + x19: .cfa -8 + ^ x20: .cfa -16 + ^ x21: .cfa -24 + ^ x22: .cfa -32 + ^ x23: .cfa -48 + ^ .ra: .cfa -56 + ^ x29: .cfa -64 + ^
STACK CFI 3754c .cfa: sp 144 +
STACK CFI 37560 .cfa: sp 0 +
STACK CFI 37564 .cfa: x29 64 +
STACK CFI INIT 3761c 10c .cfa: sp 0 +
STACK CFI 37620 .cfa: sp 112 +
STACK CFI 3762c .cfa: x29 32 + x19: .cfa -8 + ^ x20: .cfa -16 + ^ .ra: .cfa -24 + ^ x29: .cfa -32 + ^
STACK CFI 376e8 .cfa: sp 112 +
STACK CFI 376f4 .cfa: sp 0 +
STACK CFI 376f8 .cfa: x29 32 +
STACK CFI INIT 3772c 1bc .cfa: sp 0 +
STACK CFI 37730 .cfa: sp 176 +
STACK CFI 37744 .cfa: x29 64 + x19: .cfa -8 + ^ x20: .cfa -16 + ^ x21: .cfa -24 + ^ x22: .cfa -32 + ^ x23: .cfa -40 + ^ x24: .cfa -48 + ^ .ra: .cfa -56 + ^ x29: .cfa -64 + ^
STACK CFI 377ec .cfa: sp 176 +
STACK CFI 37800 .cfa: sp 0 +
STACK CFI 37804 .cfa: x29 64 +
STACK CFI INIT 378e8 180 .cfa: sp 0 +
STACK CFI 378ec .cfa: sp 160 +
STACK CFI 37904 .cfa: x29 80 + x19: .cfa -8 + ^ x20: .cfa -16 + ^ x21: .cfa -24 + ^ x22: .cfa -32 + ^ x23: .cfa -40 + ^ x24: .cfa -48 + ^ x25: .cfa -64 + ^ .ra: .cfa -72 + ^ x29: .cfa -80 + ^
STACK CFI 37a00 .cfa: sp 160 +
STACK CFI 37a18 .cfa: sp 0 +
STACK CFI 37a1c .cfa: x29 80 +
STACK CFI INIT 37aa0 130 .cfa: sp 0 +
STACK CFI 37aa4 .cfa: sp 96 +
STACK CFI 37ab8 .cfa: x29 64 + x19: .cfa -8 + ^ x20: .cfa -16 + ^ x21: .cfa -24 + ^ x22: .cfa -32 + ^ x23: .cfa -40 + ^ x24: .cfa -48 + ^ .ra: .cfa -56 + ^ x29: .cfa -64 + ^
STACK CFI 37b68 .cfa: sp 96 +
STACK CFI 37b7c .cfa: sp 0 +
STACK CFI 37b80 .cfa: x29 64 +
STACK CFI INIT 37bd0 bc .cfa: sp 0 +
STACK CFI 37bd4 .cfa: sp 80 +
STACK CFI 37be0 .cfa: x29 32 + x19: .cfa -8 + ^ x20: .cfa -16 + ^ .ra: .cfa -24 + ^ x29: .cfa -32 + ^
STACK CFI 37c4c .cfa: sp 80 +
STACK CFI 37c58 .cfa: sp 0 +
STACK CFI 37c5c .cfa: x29 32 +
STACK CFI INIT 37c8c 27e0 .cfa: sp 0 +
STACK CFI 37c90 .cfa: sp 112 +
STACK CFI 37cac .cfa: x29 96 + x19: .cfa -8 + ^ x20: .cfa -16 + ^ x21: .cfa -24 + ^ x22: .cfa -32 + ^ x23: .cfa -40 + ^ x24: .cfa -48 + ^ x25: .cfa -56 + ^ x26: .cfa -64 + ^ x27: .cfa -72 + ^ x28: .cfa -80 + ^ .ra: .cfa -88 + ^ x29: .cfa -96 + ^ v8: .cfa -112 + ^
STACK CFI 39f0c .cfa: sp 112 +
STACK CFI 39f28 .cfa: sp 0 +
STACK CFI 39f2c .cfa: x29 96 +
STACK CFI INIT 3a89c 20 .cfa: sp 0 +
STACK CFI 3a8a0 .cfa: sp 16 +
STACK CFI 3a8a4 .cfa: x29 16 + .ra: .cfa -8 + ^ x29: .cfa -16 + ^
STACK CFI 3a8b0 .cfa: sp 16 +
STACK CFI 3a8b4 .cfa: sp 0 +
STACK CFI 3a8b8 .cfa: x29 16 +
STACK CFI INIT 3a8bc 124 .cfa: sp 0 +
STACK CFI 3a8c0 .cfa: sp 32 +
STACK CFI 3a8c8 .cfa: x29 32 + x19: .cfa -8 + ^ x20: .cfa -16 + ^ .ra: .cfa -24 + ^ x29: .cfa -32 + ^
STACK CFI 3a99c .cfa: sp 32 +
STACK CFI 3a9a4 .cfa: sp 0 +
STACK CFI 3a9a8 .cfa: x29 32 +
STACK CFI 3a9c0 .cfa: sp 32 +
STACK CFI 3a9c8 .cfa: sp 0 +
STACK CFI 3a9cc .cfa: x29 32 +
STACK CFI INIT 3ab94 1cc .cfa: sp 0 +
STACK CFI 3ab98 .cfa: sp 144 +
STACK CFI 3aba8 .cfa: x29 48 + x19: .cfa -8 + ^ x20: .cfa -16 + ^ x21: .cfa -32 + ^ .ra: .cfa -40 + ^ x29: .cfa -48 + ^
STACK CFI 3acf8 .cfa: sp 144 +
STACK CFI 3ad08 .cfa: sp 0 +
STACK CFI 3ad0c .cfa: x29 48 +
STACK CFI INIT 3aebc 498 .cfa: sp 0 +
STACK CFI 3aec0 .cfa: sp 256 +
STACK CFI 3aedc .cfa: x29 96 + x19: .cfa -8 + ^ x20: .cfa -16 + ^ x21: .cfa -24 + ^ x22: .cfa -32 + ^ x23: .cfa -40 + ^ x24: .cfa -48 + ^ x25: .cfa -56 + ^ x26: .cfa -64 + ^ x27: .cfa -72 + ^ x28: .cfa -80 + ^ .ra: .cfa -88 + ^ x29: .cfa -96 + ^
STACK CFI 3b250 .cfa: sp 256 +
STACK CFI 3b26c .cfa: sp 0 +
STACK CFI 3b270 .cfa: x29 96 +
STACK CFI INIT 3b354 2b4 .cfa: sp 0 +
STACK CFI 3b358 .cfa: sp 144 +
STACK CFI 3b36c .cfa: x29 64 + x19: .cfa -8 + ^ x20: .cfa -16 + ^ x21: .cfa -24 + ^ x22: .cfa -32 + ^ x23: .cfa -48 + ^ .ra: .cfa -56 + ^ x29: .cfa -64 + ^
STACK CFI 3b538 .cfa: sp 144 +
STACK CFI 3b54c .cfa: sp 0 +
STACK CFI 3b550 .cfa: x29 64 +
STACK CFI INIT 3b608 108 .cfa: sp 0 +
STACK CFI 3b60c .cfa: sp 112 +
STACK CFI 3b618 .cfa: x29 32 + x19: .cfa -8 + ^ x20: .cfa -16 + ^ .ra: .cfa -24 + ^ x29: .cfa -32 + ^
STACK CFI 3b6d0 .cfa: sp 112 +
STACK CFI 3b6dc .cfa: sp 0 +
STACK CFI 3b6e0 .cfa: x29 32 +
STACK CFI INIT 3b714 1bc .cfa: sp 0 +
STACK CFI 3b718 .cfa: sp 176 +
STACK CFI 3b72c .cfa: x29 64 + x19: .cfa -8 + ^ x20: .cfa -16 + ^ x21: .cfa -24 + ^ x22: .cfa -32 + ^ x23: .cfa -40 + ^ x24: .cfa -48 + ^ .ra: .cfa -56 + ^ x29: .cfa -64 + ^
STACK CFI 3b7d4 .cfa: sp 176 +
STACK CFI 3b7e8 .cfa: sp 0 +
STACK CFI 3b7ec .cfa: x29 64 +
STACK CFI INIT 3b8d0 180 .cfa: sp 0 +
STACK CFI 3b8d4 .cfa: sp 160 +
STACK CFI 3b8ec .cfa: x29 80 + x19: .cfa -8 + ^ x20: .cfa -16 + ^ x21: .cfa -24 + ^ x22: .cfa -32 + ^ x23: .cfa -40 + ^ x24: .cfa -48 + ^ x25: .cfa -64 + ^ .ra: .cfa -72 + ^ x29: .cfa -80 + ^
STACK CFI 3b9e8 .cfa: sp 160 +
STACK CFI 3ba00 .cfa: sp 0 +
STACK CFI 3ba04 .cfa: x29 80 +
STACK CFI INIT 3ba88 124 .cfa: sp 0 +
STACK CFI 3ba8c .cfa: sp 96 +
STACK CFI 3ba9c .cfa: x29 48 + x19: .cfa -8 + ^ x20: .cfa -16 + ^ x21: .cfa -24 + ^ x22: .cfa -32 + ^ .ra: .cfa -40 + ^ x29: .cfa -48 + ^
STACK CFI 3bb48 .cfa: sp 96 +
STACK CFI 3bb58 .cfa: sp 0 +
STACK CFI 3bb5c .cfa: x29 48 +
STACK CFI INIT 3bbac b4 .cfa: sp 0 +
STACK CFI 3bbb0 .cfa: sp 80 +
STACK CFI 3bbbc .cfa: x29 32 + x19: .cfa -8 + ^ x20: .cfa -16 + ^ .ra: .cfa -24 + ^ x29: .cfa -32 + ^
STACK CFI 3bc20 .cfa: sp 80 +
STACK CFI 3bc2c .cfa: sp 0 +
STACK CFI 3bc30 .cfa: x29 32 +
STACK CFI INIT 3bc60 2630 .cfa: sp 0 +
STACK CFI 3bc64 .cfa: sp 112 +
STACK CFI 3bc80 .cfa: x29 96 + x19: .cfa -8 + ^ x20: .cfa -16 + ^ x21: .cfa -24 + ^ x22: .cfa -32 + ^ x23: .cfa -40 + ^ x24: .cfa -48 + ^ x25: .cfa -56 + ^ x26: .cfa -64 + ^ x27: .cfa -72 + ^ x28: .cfa -80 + ^ .ra: .cfa -88 + ^ x29: .cfa -96 + ^ v8: .cfa -104 + ^ v9: .cfa -112 + ^
STACK CFI 3de60 .cfa: sp 112 +
STACK CFI 3de7c .cfa: sp 0 +
STACK CFI 3de80 .cfa: x29 96 +
STACK CFI INIT 3e42c 370 .cfa: sp 0 +
STACK CFI 3e430 .cfa: sp 160 +
STACK CFI 3e44c .cfa: x29 96 + x19: .cfa -8 + ^ x20: .cfa -16 + ^ x21: .cfa -24 + ^ x22: .cfa -32 + ^ x23: .cfa -40 + ^ x24: .cfa -48 + ^ x25: .cfa -56 + ^ x26: .cfa -64 + ^ x27: .cfa -72 + ^ x28: .cfa -80 + ^ .ra: .cfa -88 + ^ x29: .cfa -96 + ^
STACK CFI 3e730 .cfa: sp 160 +
STACK CFI 3e74c .cfa: sp 0 +
STACK CFI 3e750 .cfa: x29 96 +
STACK CFI INIT 3e79c 34c .cfa: sp 0 +
STACK CFI 3e7a0 .cfa: sp 160 +
STACK CFI 3e7bc .cfa: x29 96 + x19: .cfa -8 + ^ x20: .cfa -16 + ^ x21: .cfa -24 + ^ x22: .cfa -32 + ^ x23: .cfa -40 + ^ x24: .cfa -48 + ^ x25: .cfa -56 + ^ x26: .cfa -64 + ^ x27: .cfa -72 + ^ x28: .cfa -80 + ^ .ra: .cfa -88 + ^ x29: .cfa -96 + ^
STACK CFI 3ea68 .cfa: sp 160 +
STACK CFI 3ea84 .cfa: sp 0 +
STACK CFI 3ea88 .cfa: x29 96 +
STACK CFI INIT 3eae8 348 .cfa: sp 0 +
STACK CFI 3eaec .cfa: sp 144 +
STACK CFI 3eb08 .cfa: x29 96 + x19: .cfa -8 + ^ x20: .cfa -16 + ^ x21: .cfa -24 + ^ x22: .cfa -32 + ^ x23: .cfa -40 + ^ x24: .cfa -48 + ^ x25: .cfa -56 + ^ x26: .cfa -64 + ^ x27: .cfa -72 + ^ x28: .cfa -80 + ^ .ra: .cfa -88 + ^ x29: .cfa -96 + ^
STACK CFI 3edc4 .cfa: sp 144 +
STACK CFI 3ede0 .cfa: sp 0 +
STACK CFI 3ede4 .cfa: x29 96 +
STACK CFI INIT 3f18c 1a4 .cfa: sp 0 +
STACK CFI 3f190 .cfa: sp 128 +
STACK CFI 3f1a0 .cfa: x29 48 + x19: .cfa -8 + ^ x20: .cfa -16 + ^ x21: .cfa -24 + ^ x22: .cfa -32 + ^ .ra: .cfa -40 + ^ x29: .cfa -48 + ^
STACK CFI 3f2c8 .cfa: sp 128 +
STACK CFI 3f2d8 .cfa: sp 0 +
STACK CFI 3f2dc .cfa: x29 48 +
STACK CFI INIT 3f48c 498 .cfa: sp 0 +
STACK CFI 3f490 .cfa: sp 256 +
STACK CFI 3f4ac .cfa: x29 96 + x19: .cfa -8 + ^ x20: .cfa -16 + ^ x21: .cfa -24 + ^ x22: .cfa -32 + ^ x23: .cfa -40 + ^ x24: .cfa -48 + ^ x25: .cfa -56 + ^ x26: .cfa -64 + ^ x27: .cfa -72 + ^ x28: .cfa -80 + ^ .ra: .cfa -88 + ^ x29: .cfa -96 + ^
STACK CFI 3f820 .cfa: sp 256 +
STACK CFI 3f83c .cfa: sp 0 +
STACK CFI 3f840 .cfa: x29 96 +
STACK CFI INIT 3f924 2ac .cfa: sp 0 +
STACK CFI 3f928 .cfa: sp 128 +
STACK CFI 3f93c .cfa: x29 64 + x19: .cfa -8 + ^ x20: .cfa -16 + ^ x21: .cfa -24 + ^ x22: .cfa -32 + ^ x23: .cfa -48 + ^ .ra: .cfa -56 + ^ x29: .cfa -64 + ^
STACK CFI 3fb00 .cfa: sp 128 +
STACK CFI 3fb14 .cfa: sp 0 +
STACK CFI 3fb18 .cfa: x29 64 +
STACK CFI INIT 3fbd0 108 .cfa: sp 0 +
STACK CFI 3fbd4 .cfa: sp 112 +
STACK CFI 3fbe0 .cfa: x29 32 + x19: .cfa -8 + ^ x20: .cfa -16 + ^ .ra: .cfa -24 + ^ x29: .cfa -32 + ^
STACK CFI 3fc98 .cfa: sp 112 +
STACK CFI 3fca4 .cfa: sp 0 +
STACK CFI 3fca8 .cfa: x29 32 +
STACK CFI INIT 3fcdc 1bc .cfa: sp 0 +
STACK CFI 3fce0 .cfa: sp 176 +
STACK CFI 3fcf4 .cfa: x29 64 + x19: .cfa -8 + ^ x20: .cfa -16 + ^ x21: .cfa -24 + ^ x22: .cfa -32 + ^ x23: .cfa -40 + ^ x24: .cfa -48 + ^ .ra: .cfa -56 + ^ x29: .cfa -64 + ^
STACK CFI 3fd9c .cfa: sp 176 +
STACK CFI 3fdb0 .cfa: sp 0 +
STACK CFI 3fdb4 .cfa: x29 64 +
STACK CFI INIT 3fe98 180 .cfa: sp 0 +
STACK CFI 3fe9c .cfa: sp 160 +
STACK CFI 3feb4 .cfa: x29 80 + x19: .cfa -8 + ^ x20: .cfa -16 + ^ x21: .cfa -24 + ^ x22: .cfa -32 + ^ x23: .cfa -40 + ^ x24: .cfa -48 + ^ x25: .cfa -64 + ^ .ra: .cfa -72 + ^ x29: .cfa -80 + ^
STACK CFI 3ffb0 .cfa: sp 160 +
STACK CFI 3ffc8 .cfa: sp 0 +
STACK CFI 3ffcc .cfa: x29 80 +
STACK CFI INIT 40050 128 .cfa: sp 0 +
STACK CFI 40054 .cfa: sp 96 +
STACK CFI 40068 .cfa: x29 64 + x19: .cfa -8 + ^ x20: .cfa -16 + ^ x21: .cfa -24 + ^ x22: .cfa -32 + ^ x23: .cfa -48 + ^ .ra: .cfa -56 + ^ x29: .cfa -64 + ^
STACK CFI 40110 .cfa: sp 96 +
STACK CFI 40124 .cfa: sp 0 +
STACK CFI 40128 .cfa: x29 64 +
STACK CFI INIT 40178 b8 .cfa: sp 0 +
STACK CFI 4017c .cfa: sp 80 +
STACK CFI 40188 .cfa: x29 32 + x19: .cfa -8 + ^ x20: .cfa -16 + ^ .ra: .cfa -24 + ^ x29: .cfa -32 + ^
STACK CFI 401f0 .cfa: sp 80 +
STACK CFI 401fc .cfa: sp 0 +
STACK CFI 40200 .cfa: x29 32 +
STACK CFI INIT 40230 a6c .cfa: sp 0 +
STACK CFI 40234 .cfa: sp 240 +
STACK CFI 40254 .cfa: x29 88 + x19: .cfa -8 + ^ x20: .cfa -16 + ^ x21: .cfa -24 + ^ x22: .cfa -32 + ^ x23: .cfa -40 + ^ x24: .cfa -48 + ^ x25: .cfa -56 + ^ x26: .cfa -64 + ^ x27: .cfa -72 + ^ .ra: .cfa -80 + ^ x29: .cfa -88 + ^ v8: .cfa -96 + ^
STACK CFI 40c10 .cfa: sp 240 +
STACK CFI 40c30 .cfa: sp 0 +
STACK CFI 40c34 .cfa: x29 88 +
STACK CFI INIT 40de0 240 .cfa: sp 0 +
STACK CFI 40de4 .cfa: sp 144 +
STACK CFI 40e00 .cfa: x29 96 + x19: .cfa -8 + ^ x20: .cfa -16 + ^ x21: .cfa -24 + ^ x22: .cfa -32 + ^ x23: .cfa -40 + ^ x24: .cfa -48 + ^ x25: .cfa -56 + ^ x26: .cfa -64 + ^ x27: .cfa -72 + ^ x28: .cfa -80 + ^ .ra: .cfa -88 + ^ x29: .cfa -96 + ^
STACK CFI 40fb8 .cfa: sp 144 +
STACK CFI 40fd4 .cfa: sp 0 +
STACK CFI 40fd8 .cfa: x29 96 +
STACK CFI INIT 410a4 1d4 .cfa: sp 0 +
STACK CFI 410a8 .cfa: sp 128 +
STACK CFI 410b8 .cfa: x29 48 + x19: .cfa -8 + ^ x20: .cfa -16 + ^ x21: .cfa -24 + ^ x22: .cfa -32 + ^ .ra: .cfa -40 + ^ x29: .cfa -48 + ^
STACK CFI 41210 .cfa: sp 128 +
STACK CFI 41220 .cfa: sp 0 +
STACK CFI 41224 .cfa: x29 48 +
STACK CFI INIT 412bc 498 .cfa: sp 0 +
STACK CFI 412c0 .cfa: sp 256 +
STACK CFI 412dc .cfa: x29 96 + x19: .cfa -8 + ^ x20: .cfa -16 + ^ x21: .cfa -24 + ^ x22: .cfa -32 + ^ x23: .cfa -40 + ^ x24: .cfa -48 + ^ x25: .cfa -56 + ^ x26: .cfa -64 + ^ x27: .cfa -72 + ^ x28: .cfa -80 + ^ .ra: .cfa -88 + ^ x29: .cfa -96 + ^
STACK CFI 41650 .cfa: sp 256 +
STACK CFI 4166c .cfa: sp 0 +
STACK CFI 41670 .cfa: x29 96 +
STACK CFI INIT 41754 504 .cfa: sp 0 +
STACK CFI 41758 .cfa: sp 160 +
STACK CFI 4176c .cfa: x29 64 + x19: .cfa -8 + ^ x20: .cfa -16 + ^ x21: .cfa -24 + ^ x22: .cfa -32 + ^ x23: .cfa -40 + ^ x24: .cfa -48 + ^ .ra: .cfa -56 + ^ x29: .cfa -64 + ^
STACK CFI 41b10 .cfa: sp 160 +
STACK CFI 41b24 .cfa: sp 0 +
STACK CFI 41b28 .cfa: x29 64 +
STACK CFI INIT 41c58 10c .cfa: sp 0 +
STACK CFI 41c5c .cfa: sp 112 +
STACK CFI 41c68 .cfa: x29 32 + x19: .cfa -8 + ^ x20: .cfa -16 + ^ .ra: .cfa -24 + ^ x29: .cfa -32 + ^
STACK CFI 41d24 .cfa: sp 112 +
STACK CFI 41d30 .cfa: sp 0 +
STACK CFI 41d34 .cfa: x29 32 +
STACK CFI INIT 41d68 1bc .cfa: sp 0 +
STACK CFI 41d6c .cfa: sp 176 +
STACK CFI 41d80 .cfa: x29 64 + x19: .cfa -8 + ^ x20: .cfa -16 + ^ x21: .cfa -24 + ^ x22: .cfa -32 + ^ x23: .cfa -40 + ^ x24: .cfa -48 + ^ .ra: .cfa -56 + ^ x29: .cfa -64 + ^
STACK CFI 41e28 .cfa: sp 176 +
STACK CFI 41e3c .cfa: sp 0 +
STACK CFI 41e40 .cfa: x29 64 +
STACK CFI INIT 41f24 118 .cfa: sp 0 +
STACK CFI 41f28 .cfa: sp 144 +
STACK CFI 41f40 .cfa: x29 80 + x19: .cfa -8 + ^ x20: .cfa -16 + ^ x21: .cfa -24 + ^ x22: .cfa -32 + ^ x23: .cfa -40 + ^ x24: .cfa -48 + ^ x25: .cfa -64 + ^ .ra: .cfa -72 + ^ x29: .cfa -80 + ^
STACK CFI 41fe8 .cfa: sp 144 +
STACK CFI 42000 .cfa: sp 0 +
STACK CFI 42004 .cfa: x29 80 +
STACK CFI INIT 4203c cc .cfa: sp 0 +
STACK CFI 42040 .cfa: sp 64 +
STACK CFI 4204c .cfa: x29 32 + x19: .cfa -8 + ^ x20: .cfa -16 + ^ .ra: .cfa -24 + ^ x29: .cfa -32 + ^
STACK CFI 420c8 .cfa: sp 64 +
STACK CFI 420d4 .cfa: sp 0 +
STACK CFI 420d8 .cfa: x29 32 +
STACK CFI INIT 42108 134 .cfa: sp 0 +
STACK CFI 4210c .cfa: sp 128 +
STACK CFI 42120 .cfa: x29 64 + x19: .cfa -8 + ^ x20: .cfa -16 + ^ x21: .cfa -24 + ^ x22: .cfa -32 + ^ x23: .cfa -40 + ^ x24: .cfa -48 + ^ .ra: .cfa -56 + ^ x29: .cfa -64 + ^
STACK CFI 421ec .cfa: sp 128 +
STACK CFI 42200 .cfa: sp 0 +
STACK CFI 42204 .cfa: x29 64 +
STACK CFI INIT 42274 1a0 .cfa: sp 0 +
STACK CFI 42278 .cfa: sp 80 +
STACK CFI 4228c .cfa: x29 64 + x19: .cfa -8 + ^ x20: .cfa -16 + ^ x21: .cfa -24 + ^ x22: .cfa -32 + ^ x23: .cfa -40 + ^ x24: .cfa -48 + ^ .ra: .cfa -56 + ^ x29: .cfa -64 + ^
STACK CFI 423a0 .cfa: sp 80 +
STACK CFI 423b4 .cfa: sp 0 +
STACK CFI 423b8 .cfa: x29 64 +
STACK CFI 423c4 .cfa: sp 80 +
STACK CFI 423d8 .cfa: sp 0 +
STACK CFI 423dc .cfa: x29 64 +
STACK CFI INIT 42414 174 .cfa: sp 0 +
STACK CFI 42418 .cfa: sp 48 +
STACK CFI 42424 .cfa: x29 48 + x19: .cfa -8 + ^ x20: .cfa -16 + ^ x21: .cfa -24 + ^ x22: .cfa -32 + ^ .ra: .cfa -40 + ^ x29: .cfa -48 + ^
STACK CFI 42470 .cfa: sp 48 +
STACK CFI 4247c .cfa: sp 0 +
STACK CFI 42480 .cfa: x29 48 +
STACK CFI 42484 .cfa: sp 48 +
STACK CFI 42490 .cfa: sp 0 +
STACK CFI 42494 .cfa: x29 48 +
STACK CFI INIT 42588 130 .cfa: sp 0 +
STACK CFI 4258c .cfa: sp 96 +
STACK CFI 425a0 .cfa: x29 64 + x19: .cfa -8 + ^ x20: .cfa -16 + ^ x21: .cfa -24 + ^ x22: .cfa -32 + ^ x23: .cfa -40 + ^ x24: .cfa -48 + ^ .ra: .cfa -56 + ^ x29: .cfa -64 + ^
STACK CFI 42650 .cfa: sp 96 +
STACK CFI 42664 .cfa: sp 0 +
STACK CFI 42668 .cfa: x29 64 +
STACK CFI INIT 426b8 bc .cfa: sp 0 +
STACK CFI 426bc .cfa: sp 80 +
STACK CFI 426c8 .cfa: x29 32 + x19: .cfa -8 + ^ x20: .cfa -16 + ^ .ra: .cfa -24 + ^ x29: .cfa -32 + ^
STACK CFI 42734 .cfa: sp 80 +
STACK CFI 42740 .cfa: sp 0 +
STACK CFI 42744 .cfa: x29 32 +
STACK CFI INIT 42774 490 .cfa: sp 0 +
STACK CFI 42778 .cfa: sp 208 +
STACK CFI 42794 .cfa: x29 96 + x19: .cfa -8 + ^ x20: .cfa -16 + ^ x21: .cfa -24 + ^ x22: .cfa -32 + ^ x23: .cfa -40 + ^ x24: .cfa -48 + ^ x25: .cfa -56 + ^ x26: .cfa -64 + ^ x27: .cfa -72 + ^ x28: .cfa -80 + ^ .ra: .cfa -88 + ^ x29: .cfa -96 + ^
STACK CFI 42b88 .cfa: sp 208 +
STACK CFI 42ba4 .cfa: sp 0 +
STACK CFI 42ba8 .cfa: x29 96 +
STACK CFI INIT 42c88 1e0 .cfa: sp 0 +
STACK CFI 42c8c .cfa: sp 128 +
STACK CFI 42c9c .cfa: x29 48 + x19: .cfa -8 + ^ x20: .cfa -16 + ^ x21: .cfa -32 + ^ .ra: .cfa -40 + ^ x29: .cfa -48 + ^
STACK CFI 42e00 .cfa: sp 128 +
STACK CFI 42e10 .cfa: sp 0 +
STACK CFI 42e14 .cfa: x29 48 +
STACK CFI INIT 42eac 498 .cfa: sp 0 +
STACK CFI 42eb0 .cfa: sp 256 +
STACK CFI 42ecc .cfa: x29 96 + x19: .cfa -8 + ^ x20: .cfa -16 + ^ x21: .cfa -24 + ^ x22: .cfa -32 + ^ x23: .cfa -40 + ^ x24: .cfa -48 + ^ x25: .cfa -56 + ^ x26: .cfa -64 + ^ x27: .cfa -72 + ^ x28: .cfa -80 + ^ .ra: .cfa -88 + ^ x29: .cfa -96 + ^
STACK CFI 43240 .cfa: sp 256 +
STACK CFI 4325c .cfa: sp 0 +
STACK CFI 43260 .cfa: x29 96 +
STACK CFI INIT 43344 2e4 .cfa: sp 0 +
STACK CFI 43348 .cfa: sp 176 +
STACK CFI 4335c .cfa: x29 64 + x19: .cfa -8 + ^ x20: .cfa -16 + ^ x21: .cfa -24 + ^ x22: .cfa -32 + ^ x23: .cfa -48 + ^ .ra: .cfa -56 + ^ x29: .cfa -64 + ^
STACK CFI 43550 .cfa: sp 176 +
STACK CFI 43564 .cfa: sp 0 +
STACK CFI 43568 .cfa: x29 64 +
STACK CFI INIT 43628 120 .cfa: sp 0 +
STACK CFI 4362c .cfa: sp 112 +
STACK CFI 43638 .cfa: x29 32 + x19: .cfa -8 + ^ x20: .cfa -16 + ^ .ra: .cfa -24 + ^ x29: .cfa -32 + ^
STACK CFI 43708 .cfa: sp 112 +
STACK CFI 43714 .cfa: sp 0 +
STACK CFI 43718 .cfa: x29 32 +
STACK CFI INIT 4374c 1bc .cfa: sp 0 +
STACK CFI 43750 .cfa: sp 176 +
STACK CFI 43764 .cfa: x29 64 + x19: .cfa -8 + ^ x20: .cfa -16 + ^ x21: .cfa -24 + ^ x22: .cfa -32 + ^ x23: .cfa -40 + ^ x24: .cfa -48 + ^ .ra: .cfa -56 + ^ x29: .cfa -64 + ^
STACK CFI 4380c .cfa: sp 176 +
STACK CFI 43820 .cfa: sp 0 +
STACK CFI 43824 .cfa: x29 64 +
STACK CFI INIT 43908 180 .cfa: sp 0 +
STACK CFI 4390c .cfa: sp 160 +
STACK CFI 43924 .cfa: x29 80 + x19: .cfa -8 + ^ x20: .cfa -16 + ^ x21: .cfa -24 + ^ x22: .cfa -32 + ^ x23: .cfa -40 + ^ x24: .cfa -48 + ^ x25: .cfa -64 + ^ .ra: .cfa -72 + ^ x29: .cfa -80 + ^
STACK CFI 43a20 .cfa: sp 160 +
STACK CFI 43a38 .cfa: sp 0 +
STACK CFI 43a3c .cfa: x29 80 +
STACK CFI INIT 43ab0 13c .cfa: sp 0 +
STACK CFI 43ab4 .cfa: sp 96 +
STACK CFI 43ac8 .cfa: x29 64 + x19: .cfa -8 + ^ x20: .cfa -16 + ^ x21: .cfa -24 + ^ x22: .cfa -32 + ^ x23: .cfa -48 + ^ .ra: .cfa -56 + ^ x29: .cfa -64 + ^
STACK CFI 43b84 .cfa: sp 96 +
STACK CFI 43b98 .cfa: sp 0 +
STACK CFI 43b9c .cfa: x29 64 +
STACK CFI INIT 43bec c0 .cfa: sp 0 +
STACK CFI 43bf0 .cfa: sp 80 +
STACK CFI 43bfc .cfa: x29 32 + x19: .cfa -8 + ^ x20: .cfa -16 + ^ .ra: .cfa -24 + ^ x29: .cfa -32 + ^
STACK CFI 43c6c .cfa: sp 80 +
STACK CFI 43c78 .cfa: sp 0 +
STACK CFI 43c7c .cfa: x29 32 +
STACK CFI INIT 43d30 498 .cfa: sp 0 +
STACK CFI 43d34 .cfa: sp 256 +
STACK CFI 43d50 .cfa: x29 96 + x19: .cfa -8 + ^ x20: .cfa -16 + ^ x21: .cfa -24 + ^ x22: .cfa -32 + ^ x23: .cfa -40 + ^ x24: .cfa -48 + ^ x25: .cfa -56 + ^ x26: .cfa -64 + ^ x27: .cfa -72 + ^ x28: .cfa -80 + ^ .ra: .cfa -88 + ^ x29: .cfa -96 + ^
STACK CFI 440c4 .cfa: sp 256 +
STACK CFI 440e0 .cfa: sp 0 +
STACK CFI 440e4 .cfa: x29 96 +
STACK CFI INIT 441c8 530 .cfa: sp 0 +
STACK CFI 441cc .cfa: sp 176 +
STACK CFI 441e0 .cfa: x29 64 + x19: .cfa -8 + ^ x20: .cfa -16 + ^ x21: .cfa -24 + ^ x22: .cfa -32 + ^ x23: .cfa -40 + ^ x24: .cfa -48 + ^ .ra: .cfa -56 + ^ x29: .cfa -64 + ^
STACK CFI 445a8 .cfa: sp 176 +
STACK CFI 445bc .cfa: sp 0 +
STACK CFI 445c0 .cfa: x29 64 +
STACK CFI INIT 446f8 1c4 .cfa: sp 0 +
STACK CFI 446fc .cfa: sp 128 +
STACK CFI 4470c .cfa: x29 48 + x19: .cfa -8 + ^ x20: .cfa -16 + ^ x21: .cfa -32 + ^ .ra: .cfa -40 + ^ x29: .cfa -48 + ^
STACK CFI 44874 .cfa: sp 128 +
STACK CFI 44884 .cfa: sp 0 +
STACK CFI 44888 .cfa: x29 48 +
STACK CFI INIT 448c0 1bc .cfa: sp 0 +
STACK CFI 448c4 .cfa: sp 176 +
STACK CFI 448d8 .cfa: x29 64 + x19: .cfa -8 + ^ x20: .cfa -16 + ^ x21: .cfa -24 + ^ x22: .cfa -32 + ^ x23: .cfa -40 + ^ x24: .cfa -48 + ^ .ra: .cfa -56 + ^ x29: .cfa -64 + ^
STACK CFI 44980 .cfa: sp 176 +
STACK CFI 44994 .cfa: sp 0 +
STACK CFI 44998 .cfa: x29 64 +
STACK CFI INIT 44a7c 180 .cfa: sp 0 +
STACK CFI 44a80 .cfa: sp 160 +
STACK CFI 44a98 .cfa: x29 80 + x19: .cfa -8 + ^ x20: .cfa -16 + ^ x21: .cfa -24 + ^ x22: .cfa -32 + ^ x23: .cfa -40 + ^ x24: .cfa -48 + ^ x25: .cfa -64 + ^ .ra: .cfa -72 + ^ x29: .cfa -80 + ^
STACK CFI 44b94 .cfa: sp 160 +
STACK CFI 44bac .cfa: sp 0 +
STACK CFI 44bb0 .cfa: x29 80 +
STACK CFI INIT 44c00 134 .cfa: sp 0 +
STACK CFI 44c04 .cfa: sp 128 +
STACK CFI 44c18 .cfa: x29 64 + x19: .cfa -8 + ^ x20: .cfa -16 + ^ x21: .cfa -24 + ^ x22: .cfa -32 + ^ x23: .cfa -40 + ^ x24: .cfa -48 + ^ .ra: .cfa -56 + ^ x29: .cfa -64 + ^
STACK CFI 44ce4 .cfa: sp 128 +
STACK CFI 44cf8 .cfa: sp 0 +
STACK CFI 44cfc .cfa: x29 64 +
STACK CFI INIT 44d38 ec .cfa: sp 0 +
STACK CFI 44d3c .cfa: sp 80 +
STACK CFI 44d4c .cfa: x29 48 + x19: .cfa -8 + ^ x20: .cfa -16 + ^ x21: .cfa -32 + ^ .ra: .cfa -40 + ^ x29: .cfa -48 + ^
STACK CFI 44de0 .cfa: sp 80 +
STACK CFI 44df0 .cfa: sp 0 +
STACK CFI 44df4 .cfa: x29 48 +
STACK CFI INIT 44e24 1e4 .cfa: sp 0 +
STACK CFI 44e28 .cfa: sp 80 +
STACK CFI 44e38 .cfa: x29 48 + x19: .cfa -8 + ^ x20: .cfa -16 + ^ x21: .cfa -32 + ^ .ra: .cfa -40 + ^ x29: .cfa -48 + ^
STACK CFI 44fbc .cfa: sp 80 +
STACK CFI 44fcc .cfa: sp 0 +
STACK CFI 44fd0 .cfa: x29 48 +
STACK CFI INIT 45008 2780 .cfa: sp 0 +
STACK CFI 4500c .cfa: sp 224 +
STACK CFI 45028 .cfa: x29 96 + x19: .cfa -8 + ^ x20: .cfa -16 + ^ x21: .cfa -24 + ^ x22: .cfa -32 + ^ x23: .cfa -40 + ^ x24: .cfa -48 + ^ x25: .cfa -56 + ^ x26: .cfa -64 + ^ x27: .cfa -72 + ^ x28: .cfa -80 + ^ .ra: .cfa -88 + ^ x29: .cfa -96 + ^
STACK CFI 475f8 .cfa: sp 224 +
STACK CFI 47614 .cfa: sp 0 +
STACK CFI 47618 .cfa: x29 96 +
STACK CFI INIT 47ab0 1c4 .cfa: sp 0 +
STACK CFI 47ab4 .cfa: sp 128 +
STACK CFI 47ac4 .cfa: x29 48 + x19: .cfa -8 + ^ x20: .cfa -16 + ^ x21: .cfa -32 + ^ .ra: .cfa -40 + ^ x29: .cfa -48 + ^
STACK CFI 47c0c .cfa: sp 128 +
STACK CFI 47c1c .cfa: sp 0 +
STACK CFI 47c20 .cfa: x29 48 +
STACK CFI INIT 47cb8 498 .cfa: sp 0 +
STACK CFI 47cbc .cfa: sp 256 +
STACK CFI 47cd8 .cfa: x29 96 + x19: .cfa -8 + ^ x20: .cfa -16 + ^ x21: .cfa -24 + ^ x22: .cfa -32 + ^ x23: .cfa -40 + ^ x24: .cfa -48 + ^ x25: .cfa -56 + ^ x26: .cfa -64 + ^ x27: .cfa -72 + ^ x28: .cfa -80 + ^ .ra: .cfa -88 + ^ x29: .cfa -96 + ^
STACK CFI 4804c .cfa: sp 256 +
STACK CFI 48068 .cfa: sp 0 +
STACK CFI 4806c .cfa: x29 96 +
STACK CFI INIT 48150 2ac .cfa: sp 0 +
STACK CFI 48154 .cfa: sp 128 +
STACK CFI 48168 .cfa: x29 64 + x19: .cfa -8 + ^ x20: .cfa -16 + ^ x21: .cfa -24 + ^ x22: .cfa -32 + ^ x23: .cfa -48 + ^ .ra: .cfa -56 + ^ x29: .cfa -64 + ^
STACK CFI 4832c .cfa: sp 128 +
STACK CFI 48340 .cfa: sp 0 +
STACK CFI 48344 .cfa: x29 64 +
STACK CFI INIT 483fc 108 .cfa: sp 0 +
STACK CFI 48400 .cfa: sp 112 +
STACK CFI 4840c .cfa: x29 32 + x19: .cfa -8 + ^ x20: .cfa -16 + ^ .ra: .cfa -24 + ^ x29: .cfa -32 + ^
STACK CFI 484c4 .cfa: sp 112 +
STACK CFI 484d0 .cfa: sp 0 +
STACK CFI 484d4 .cfa: x29 32 +
STACK CFI INIT 48508 1bc .cfa: sp 0 +
STACK CFI 4850c .cfa: sp 176 +
STACK CFI 48520 .cfa: x29 64 + x19: .cfa -8 + ^ x20: .cfa -16 + ^ x21: .cfa -24 + ^ x22: .cfa -32 + ^ x23: .cfa -40 + ^ x24: .cfa -48 + ^ .ra: .cfa -56 + ^ x29: .cfa -64 + ^
STACK CFI 485c8 .cfa: sp 176 +
STACK CFI 485dc .cfa: sp 0 +
STACK CFI 485e0 .cfa: x29 64 +
STACK CFI INIT 486c4 118 .cfa: sp 0 +
STACK CFI 486c8 .cfa: sp 144 +
STACK CFI 486e0 .cfa: x29 80 + x19: .cfa -8 + ^ x20: .cfa -16 + ^ x21: .cfa -24 + ^ x22: .cfa -32 + ^ x23: .cfa -40 + ^ x24: .cfa -48 + ^ x25: .cfa -64 + ^ .ra: .cfa -72 + ^ x29: .cfa -80 + ^
STACK CFI 48788 .cfa: sp 144 +
STACK CFI 487a0 .cfa: sp 0 +
STACK CFI 487a4 .cfa: x29 80 +
STACK CFI INIT 48814 2b0 .cfa: sp 0 +
STACK CFI 48818 .cfa: sp 80 +
STACK CFI 4882c .cfa: x29 64 + x19: .cfa -8 + ^ x20: .cfa -16 + ^ x21: .cfa -24 + ^ x22: .cfa -32 + ^ x23: .cfa -40 + ^ x24: .cfa -48 + ^ .ra: .cfa -56 + ^ x29: .cfa -64 + ^
STACK CFI 48968 .cfa: sp 80 +
STACK CFI 4897c .cfa: sp 0 +
STACK CFI 48980 .cfa: x29 64 +
STACK CFI 48a64 .cfa: sp 80 +
STACK CFI 48a78 .cfa: sp 0 +
STACK CFI 48a7c .cfa: x29 64 +
STACK CFI INIT 48ac4 12c .cfa: sp 0 +
STACK CFI 48ac8 .cfa: sp 96 +
STACK CFI 48adc .cfa: x29 64 + x19: .cfa -8 + ^ x20: .cfa -16 + ^ x21: .cfa -24 + ^ x22: .cfa -32 + ^ x23: .cfa -48 + ^ .ra: .cfa -56 + ^ x29: .cfa -64 + ^
STACK CFI 48b88 .cfa: sp 96 +
STACK CFI 48b9c .cfa: sp 0 +
STACK CFI 48ba0 .cfa: x29 64 +
STACK CFI INIT 48bf0 b8 .cfa: sp 0 +
STACK CFI 48bf4 .cfa: sp 80 +
STACK CFI 48c00 .cfa: x29 32 + x19: .cfa -8 + ^ x20: .cfa -16 + ^ .ra: .cfa -24 + ^ x29: .cfa -32 + ^
STACK CFI 48c68 .cfa: sp 80 +
STACK CFI 48c74 .cfa: sp 0 +
STACK CFI 48c78 .cfa: x29 32 +
STACK CFI INIT 48ca8 2b8 .cfa: sp 0 +
STACK CFI 48cac .cfa: sp 144 +
STACK CFI 48cbc .cfa: x29 48 + x19: .cfa -8 + ^ x20: .cfa -16 + ^ x21: .cfa -24 + ^ x22: .cfa -32 + ^ .ra: .cfa -40 + ^ x29: .cfa -48 + ^
STACK CFI 48f18 .cfa: sp 144 +
STACK CFI 48f28 .cfa: sp 0 +
STACK CFI 48f2c .cfa: x29 48 +
STACK CFI INIT 48fe4 1e0 .cfa: sp 0 +
STACK CFI 48fe8 .cfa: sp 144 +
STACK CFI 48ff8 .cfa: x29 48 + x19: .cfa -8 + ^ x20: .cfa -16 + ^ x21: .cfa -32 + ^ .ra: .cfa -40 + ^ x29: .cfa -48 + ^
STACK CFI 4915c .cfa: sp 144 +
STACK CFI 4916c .cfa: sp 0 +
STACK CFI 49170 .cfa: x29 48 +
STACK CFI INIT 49208 498 .cfa: sp 0 +
STACK CFI 4920c .cfa: sp 256 +
STACK CFI 49228 .cfa: x29 96 + x19: .cfa -8 + ^ x20: .cfa -16 + ^ x21: .cfa -24 + ^ x22: .cfa -32 + ^ x23: .cfa -40 + ^ x24: .cfa -48 + ^ x25: .cfa -56 + ^ x26: .cfa -64 + ^ x27: .cfa -72 + ^ x28: .cfa -80 + ^ .ra: .cfa -88 + ^ x29: .cfa -96 + ^
STACK CFI 4959c .cfa: sp 256 +
STACK CFI 495b8 .cfa: sp 0 +
STACK CFI 495bc .cfa: x29 96 +
STACK CFI INIT 496a0 2dc .cfa: sp 0 +
STACK CFI 496a4 .cfa: sp 160 +
STACK CFI 496b8 .cfa: x29 64 + x19: .cfa -8 + ^ x20: .cfa -16 + ^ x21: .cfa -24 + ^ x22: .cfa -32 + ^ x23: .cfa -48 + ^ .ra: .cfa -56 + ^ x29: .cfa -64 + ^
STACK CFI 498a4 .cfa: sp 160 +
STACK CFI 498b8 .cfa: sp 0 +
STACK CFI 498bc .cfa: x29 64 +
STACK CFI INIT 4997c 120 .cfa: sp 0 +
STACK CFI 49980 .cfa: sp 112 +
STACK CFI 4998c .cfa: x29 32 + x19: .cfa -8 + ^ x20: .cfa -16 + ^ .ra: .cfa -24 + ^ x29: .cfa -32 + ^
STACK CFI 49a5c .cfa: sp 112 +
STACK CFI 49a68 .cfa: sp 0 +
STACK CFI 49a6c .cfa: x29 32 +
STACK CFI INIT 49aa0 1bc .cfa: sp 0 +
STACK CFI 49aa4 .cfa: sp 176 +
STACK CFI 49ab8 .cfa: x29 64 + x19: .cfa -8 + ^ x20: .cfa -16 + ^ x21: .cfa -24 + ^ x22: .cfa -32 + ^ x23: .cfa -40 + ^ x24: .cfa -48 + ^ .ra: .cfa -56 + ^ x29: .cfa -64 + ^
STACK CFI 49b60 .cfa: sp 176 +
STACK CFI 49b74 .cfa: sp 0 +
STACK CFI 49b78 .cfa: x29 64 +
STACK CFI INIT 49c5c 180 .cfa: sp 0 +
STACK CFI 49c60 .cfa: sp 144 +
STACK CFI 49c78 .cfa: x29 80 + x19: .cfa -8 + ^ x20: .cfa -16 + ^ x21: .cfa -24 + ^ x22: .cfa -32 + ^ x23: .cfa -40 + ^ x24: .cfa -48 + ^ x25: .cfa -64 + ^ .ra: .cfa -72 + ^ x29: .cfa -80 + ^
STACK CFI 49d74 .cfa: sp 144 +
STACK CFI 49d8c .cfa: sp 0 +
STACK CFI 49d90 .cfa: x29 80 +
STACK CFI INIT 49e14 12c .cfa: sp 0 +
STACK CFI 49e18 .cfa: sp 96 +
STACK CFI 49e28 .cfa: x29 48 + x19: .cfa -8 + ^ x20: .cfa -16 + ^ x21: .cfa -24 + ^ x22: .cfa -32 + ^ .ra: .cfa -40 + ^ x29: .cfa -48 + ^
STACK CFI 49edc .cfa: sp 96 +
STACK CFI 49eec .cfa: sp 0 +
STACK CFI 49ef0 .cfa: x29 48 +
STACK CFI INIT 49f40 b8 .cfa: sp 0 +
STACK CFI 49f44 .cfa: sp 80 +
STACK CFI 49f50 .cfa: x29 32 + x19: .cfa -8 + ^ x20: .cfa -16 + ^ .ra: .cfa -24 + ^ x29: .cfa -32 + ^
STACK CFI 49fb8 .cfa: sp 80 +
STACK CFI 49fc4 .cfa: sp 0 +
STACK CFI 49fc8 .cfa: x29 32 +
STACK CFI INIT 49ff8 30e0 .cfa: sp 0 +
STACK CFI 49ffc .cfa: sp 256 +
STACK CFI 4a024 .cfa: x29 96 + x19: .cfa -8 + ^ x20: .cfa -16 + ^ x21: .cfa -24 + ^ x22: .cfa -32 + ^ x23: .cfa -40 + ^ x24: .cfa -48 + ^ x25: .cfa -56 + ^ x26: .cfa -64 + ^ x27: .cfa -72 + ^ x28: .cfa -80 + ^ .ra: .cfa -88 + ^ x29: .cfa -96 + ^ v8: .cfa -104 + ^ v9: .cfa -112 + ^ v10: .cfa -120 + ^ v11: .cfa -128 + ^ v12: .cfa -144 + ^
STACK CFI 4c9c0 .cfa: sp 256 +
STACK CFI 4c9e8 .cfa: sp 0 +
STACK CFI 4c9ec .cfa: x29 96 +
STACK CFI INIT 4d0d8 240 .cfa: sp 0 +
STACK CFI 4d0dc .cfa: sp 144 +
STACK CFI 4d0f8 .cfa: x29 96 + x19: .cfa -8 + ^ x20: .cfa -16 + ^ x21: .cfa -24 + ^ x22: .cfa -32 + ^ x23: .cfa -40 + ^ x24: .cfa -48 + ^ x25: .cfa -56 + ^ x26: .cfa -64 + ^ x27: .cfa -72 + ^ x28: .cfa -80 + ^ .ra: .cfa -88 + ^ x29: .cfa -96 + ^
STACK CFI 4d2b0 .cfa: sp 144 +
STACK CFI 4d2cc .cfa: sp 0 +
STACK CFI 4d2d0 .cfa: x29 96 +
STACK CFI INIT 4d39c 1e0 .cfa: sp 0 +
STACK CFI 4d3a0 .cfa: sp 144 +
STACK CFI 4d3b0 .cfa: x29 48 + x19: .cfa -8 + ^ x20: .cfa -16 + ^ x21: .cfa -32 + ^ .ra: .cfa -40 + ^ x29: .cfa -48 + ^
STACK CFI 4d514 .cfa: sp 144 +
STACK CFI 4d524 .cfa: sp 0 +
STACK CFI 4d528 .cfa: x29 48 +
STACK CFI INIT 4d6d8 498 .cfa: sp 0 +
STACK CFI 4d6dc .cfa: sp 256 +
STACK CFI 4d6f8 .cfa: x29 96 + x19: .cfa -8 + ^ x20: .cfa -16 + ^ x21: .cfa -24 + ^ x22: .cfa -32 + ^ x23: .cfa -40 + ^ x24: .cfa -48 + ^ x25: .cfa -56 + ^ x26: .cfa -64 + ^ x27: .cfa -72 + ^ x28: .cfa -80 + ^ .ra: .cfa -88 + ^ x29: .cfa -96 + ^
STACK CFI 4da6c .cfa: sp 256 +
STACK CFI 4da88 .cfa: sp 0 +
STACK CFI 4da8c .cfa: x29 96 +
STACK CFI INIT 4db70 2dc .cfa: sp 0 +
STACK CFI 4db74 .cfa: sp 160 +
STACK CFI 4db88 .cfa: x29 64 + x19: .cfa -8 + ^ x20: .cfa -16 + ^ x21: .cfa -24 + ^ x22: .cfa -32 + ^ x23: .cfa -48 + ^ .ra: .cfa -56 + ^ x29: .cfa -64 + ^
STACK CFI 4dd74 .cfa: sp 160 +
STACK CFI 4dd88 .cfa: sp 0 +
STACK CFI 4dd8c .cfa: x29 64 +
STACK CFI INIT 4de4c 120 .cfa: sp 0 +
STACK CFI 4de50 .cfa: sp 112 +
STACK CFI 4de5c .cfa: x29 32 + x19: .cfa -8 + ^ x20: .cfa -16 + ^ .ra: .cfa -24 + ^ x29: .cfa -32 + ^
STACK CFI 4df2c .cfa: sp 112 +
STACK CFI 4df38 .cfa: sp 0 +
STACK CFI 4df3c .cfa: x29 32 +
STACK CFI INIT 4df70 1bc .cfa: sp 0 +
STACK CFI 4df74 .cfa: sp 176 +
STACK CFI 4df88 .cfa: x29 64 + x19: .cfa -8 + ^ x20: .cfa -16 + ^ x21: .cfa -24 + ^ x22: .cfa -32 + ^ x23: .cfa -40 + ^ x24: .cfa -48 + ^ .ra: .cfa -56 + ^ x29: .cfa -64 + ^
STACK CFI 4e030 .cfa: sp 176 +
STACK CFI 4e044 .cfa: sp 0 +
STACK CFI 4e048 .cfa: x29 64 +
STACK CFI INIT 4e12c 180 .cfa: sp 0 +
STACK CFI 4e130 .cfa: sp 160 +
STACK CFI 4e148 .cfa: x29 80 + x19: .cfa -8 + ^ x20: .cfa -16 + ^ x21: .cfa -24 + ^ x22: .cfa -32 + ^ x23: .cfa -40 + ^ x24: .cfa -48 + ^ x25: .cfa -64 + ^ .ra: .cfa -72 + ^ x29: .cfa -80 + ^
STACK CFI 4e244 .cfa: sp 160 +
STACK CFI 4e25c .cfa: sp 0 +
STACK CFI 4e260 .cfa: x29 80 +
STACK CFI INIT 4e2e4 12c .cfa: sp 0 +
STACK CFI 4e2e8 .cfa: sp 96 +
STACK CFI 4e2f8 .cfa: x29 48 + x19: .cfa -8 + ^ x20: .cfa -16 + ^ x21: .cfa -24 + ^ x22: .cfa -32 + ^ .ra: .cfa -40 + ^ x29: .cfa -48 + ^
STACK CFI 4e3ac .cfa: sp 96 +
STACK CFI 4e3bc .cfa: sp 0 +
STACK CFI 4e3c0 .cfa: x29 48 +
STACK CFI INIT 4e410 b8 .cfa: sp 0 +
STACK CFI 4e414 .cfa: sp 80 +
STACK CFI 4e420 .cfa: x29 32 + x19: .cfa -8 + ^ x20: .cfa -16 + ^ .ra: .cfa -24 + ^ x29: .cfa -32 + ^
STACK CFI 4e488 .cfa: sp 80 +
STACK CFI 4e494 .cfa: sp 0 +
STACK CFI 4e498 .cfa: x29 32 +
STACK CFI INIT 4e4c8 1bfc .cfa: sp 0 +
STACK CFI 4e4cc .cfa: sp 176 +
STACK CFI 4e4e8 .cfa: x29 96 + x19: .cfa -8 + ^ x20: .cfa -16 + ^ x21: .cfa -24 + ^ x22: .cfa -32 + ^ x23: .cfa -40 + ^ x24: .cfa -48 + ^ x25: .cfa -56 + ^ x26: .cfa -64 + ^ x27: .cfa -72 + ^ x28: .cfa -80 + ^ .ra: .cfa -88 + ^ x29: .cfa -96 + ^
STACK CFI 4ffac .cfa: sp 176 +
STACK CFI 4ffc8 .cfa: sp 0 +
STACK CFI 4ffcc .cfa: x29 96 +
STACK CFI INIT 5028c 498 .cfa: sp 0 +
STACK CFI 50290 .cfa: sp 256 +
STACK CFI 502ac .cfa: x29 96 + x19: .cfa -8 + ^ x20: .cfa -16 + ^ x21: .cfa -24 + ^ x22: .cfa -32 + ^ x23: .cfa -40 + ^ x24: .cfa -48 + ^ x25: .cfa -56 + ^ x26: .cfa -64 + ^ x27: .cfa -72 + ^ x28: .cfa -80 + ^ .ra: .cfa -88 + ^ x29: .cfa -96 + ^
STACK CFI 50620 .cfa: sp 256 +
STACK CFI 5063c .cfa: sp 0 +
STACK CFI 50640 .cfa: x29 96 +
STACK CFI INIT 50724 784 .cfa: sp 0 +
STACK CFI 50728 .cfa: sp 176 +
STACK CFI 5073c .cfa: x29 64 + x19: .cfa -8 + ^ x20: .cfa -16 + ^ x21: .cfa -24 + ^ x22: .cfa -32 + ^ x23: .cfa -40 + ^ x24: .cfa -48 + ^ .ra: .cfa -56 + ^ x29: .cfa -64 + ^
STACK CFI 50ce0 .cfa: sp 176 +
STACK CFI 50cf4 .cfa: sp 0 +
STACK CFI 50cf8 .cfa: x29 64 +
STACK CFI INIT 50ea8 260 .cfa: sp 0 +
STACK CFI 50eac .cfa: sp 128 +
STACK CFI 50ebc .cfa: x29 48 + x19: .cfa -8 + ^ x20: .cfa -16 + ^ x21: .cfa -32 + ^ .ra: .cfa -40 + ^ x29: .cfa -48 + ^
STACK CFI 510bc .cfa: sp 128 +
STACK CFI 510cc .cfa: sp 0 +
STACK CFI 510d0 .cfa: x29 48 +
STACK CFI INIT 5110c 1bc .cfa: sp 0 +
STACK CFI 51110 .cfa: sp 176 +
STACK CFI 51124 .cfa: x29 64 + x19: .cfa -8 + ^ x20: .cfa -16 + ^ x21: .cfa -24 + ^ x22: .cfa -32 + ^ x23: .cfa -40 + ^ x24: .cfa -48 + ^ .ra: .cfa -56 + ^ x29: .cfa -64 + ^
STACK CFI 511cc .cfa: sp 176 +
STACK CFI 511e0 .cfa: sp 0 +
STACK CFI 511e4 .cfa: x29 64 +
STACK CFI INIT 512c8 134 .cfa: sp 0 +
STACK CFI 512cc .cfa: sp 128 +
STACK CFI 512e0 .cfa: x29 64 + x19: .cfa -8 + ^ x20: .cfa -16 + ^ x21: .cfa -24 + ^ x22: .cfa -32 + ^ x23: .cfa -40 + ^ x24: .cfa -48 + ^ .ra: .cfa -56 + ^ x29: .cfa -64 + ^
STACK CFI 513ac .cfa: sp 128 +
STACK CFI 513c0 .cfa: sp 0 +
STACK CFI 513c4 .cfa: x29 64 +
STACK CFI INIT 51430 180 .cfa: sp 0 +
STACK CFI 51434 .cfa: sp 160 +
STACK CFI 5144c .cfa: x29 80 + x19: .cfa -8 + ^ x20: .cfa -16 + ^ x21: .cfa -24 + ^ x22: .cfa -32 + ^ x23: .cfa -40 + ^ x24: .cfa -48 + ^ x25: .cfa -64 + ^ .ra: .cfa -72 + ^ x29: .cfa -80 + ^
STACK CFI 51548 .cfa: sp 160 +
STACK CFI 51560 .cfa: sp 0 +
STACK CFI 51564 .cfa: x29 80 +
STACK CFI INIT 515b0 cc .cfa: sp 0 +
STACK CFI 515b4 .cfa: sp 64 +
STACK CFI 515c0 .cfa: x29 32 + x19: .cfa -8 + ^ x20: .cfa -16 + ^ .ra: .cfa -24 + ^ x29: .cfa -32 + ^
STACK CFI 5163c .cfa: sp 64 +
STACK CFI 51648 .cfa: sp 0 +
STACK CFI 5164c .cfa: x29 32 +
STACK CFI INIT 516b4 12c .cfa: sp 0 +
STACK CFI 516b8 .cfa: sp 96 +
STACK CFI 516cc .cfa: x29 64 + x19: .cfa -8 + ^ x20: .cfa -16 + ^ x21: .cfa -24 + ^ x22: .cfa -32 + ^ x23: .cfa -48 + ^ .ra: .cfa -56 + ^ x29: .cfa -64 + ^
STACK CFI 51778 .cfa: sp 96 +
STACK CFI 5178c .cfa: sp 0 +
STACK CFI 51790 .cfa: x29 64 +
STACK CFI INIT 517e0 1c4 .cfa: sp 0 +
STACK CFI 517e4 .cfa: sp 64 +
STACK CFI 517f4 .cfa: x29 64 + x19: .cfa -8 + ^ x20: .cfa -16 + ^ x21: .cfa -24 + ^ x22: .cfa -32 + ^ x28: .cfa -48 + ^ .ra: .cfa -56 + ^ x29: .cfa -64 + ^
STACK CFI 5190c .cfa: sp 64 +
STACK CFI 5191c .cfa: sp 0 +
STACK CFI 51920 .cfa: x29 64 +
STACK CFI INIT 519a4 a8 .cfa: sp 0 +
STACK CFI 519a8 .cfa: sp 48 +
STACK CFI 519b4 .cfa: x29 48 + x19: .cfa -8 + ^ x20: .cfa -16 + ^ x28: .cfa -32 + ^ .ra: .cfa -40 + ^ x29: .cfa -48 + ^
STACK CFI 51a34 .cfa: sp 48 +
STACK CFI 51a40 .cfa: sp 0 +
STACK CFI 51a44 .cfa: x29 48 +
STACK CFI INIT 51a4c 60 .cfa: sp 0 +
STACK CFI 51a50 .cfa: sp 32 +
STACK CFI 51a58 .cfa: x29 32 + x19: .cfa -16 + ^ .ra: .cfa -24 + ^ x29: .cfa -32 + ^
STACK CFI 51a9c .cfa: sp 32 +
STACK CFI 51aa4 .cfa: sp 0 +
STACK CFI 51aa8 .cfa: x29 32 +
STACK CFI INIT 51aac e8 .cfa: sp 0 +
STACK CFI 51ab0 .cfa: sp 48 +
STACK CFI 51abc .cfa: x29 48 + x19: .cfa -8 + ^ x20: .cfa -16 + ^ x21: .cfa -32 + ^ .ra: .cfa -40 + ^ x29: .cfa -48 + ^
STACK CFI 51b60 .cfa: sp 48 +
STACK CFI 51b6c .cfa: sp 0 +
STACK CFI 51b70 .cfa: x29 48 +
STACK CFI INIT 51b94 64 .cfa: sp 0 +
STACK CFI 51b98 .cfa: sp 32 +
STACK CFI 51ba0 .cfa: x29 32 + x19: .cfa -16 + ^ .ra: .cfa -24 + ^ x29: .cfa -32 + ^
STACK CFI 51be8 .cfa: sp 32 +
STACK CFI 51bf0 .cfa: sp 0 +
STACK CFI 51bf4 .cfa: x29 32 +
STACK CFI INIT 51bf8 64 .cfa: sp 0 +
STACK CFI 51bfc .cfa: sp 32 +
STACK CFI 51c04 .cfa: x29 32 + x19: .cfa -16 + ^ .ra: .cfa -24 + ^ x29: .cfa -32 + ^
STACK CFI 51c4c .cfa: sp 32 +
STACK CFI 51c54 .cfa: sp 0 +
STACK CFI 51c58 .cfa: x29 32 +
STACK CFI INIT 51c5c 68 .cfa: sp 0 +
STACK CFI 51c60 .cfa: sp 32 +
STACK CFI 51c68 .cfa: x29 32 + x19: .cfa -16 + ^ .ra: .cfa -24 + ^ x29: .cfa -32 + ^
STACK CFI 51cb4 .cfa: sp 32 +
STACK CFI 51cbc .cfa: sp 0 +
STACK CFI 51cc0 .cfa: x29 32 +
STACK CFI INIT 51cd4 1c4 .cfa: sp 0 +
STACK CFI 51cd8 .cfa: sp 128 +
STACK CFI 51ce8 .cfa: x29 48 + x19: .cfa -8 + ^ x20: .cfa -16 + ^ x21: .cfa -32 + ^ .ra: .cfa -40 + ^ x29: .cfa -48 + ^
STACK CFI 51e30 .cfa: sp 128 +
STACK CFI 51e40 .cfa: sp 0 +
STACK CFI 51e44 .cfa: x29 48 +
STACK CFI INIT 51edc b8 .cfa: sp 0 +
STACK CFI 51ee0 .cfa: sp 80 +
STACK CFI 51eec .cfa: x29 32 + x19: .cfa -8 + ^ x20: .cfa -16 + ^ .ra: .cfa -24 + ^ x29: .cfa -32 + ^
STACK CFI 51f54 .cfa: sp 80 +
STACK CFI 51f60 .cfa: sp 0 +
STACK CFI 51f64 .cfa: x29 32 +
STACK CFI INIT 51f94 1508 .cfa: sp 0 +
STACK CFI 51f98 .cfa: sp 176 +
STACK CFI 51fb8 .cfa: x29 96 + x19: .cfa -8 + ^ x20: .cfa -16 + ^ x21: .cfa -24 + ^ x22: .cfa -32 + ^ x23: .cfa -40 + ^ x24: .cfa -48 + ^ x25: .cfa -56 + ^ x26: .cfa -64 + ^ x27: .cfa -72 + ^ x28: .cfa -80 + ^ .ra: .cfa -88 + ^ x29: .cfa -96 + ^ v8: .cfa -104 + ^ v9: .cfa -112 + ^
STACK CFI 533b0 .cfa: sp 176 +
STACK CFI 533d0 .cfa: sp 0 +
STACK CFI 533d4 .cfa: x29 96 +
STACK CFI INIT 5349c 230 .cfa: sp 0 +
STACK CFI 534a0 .cfa: sp 112 +
STACK CFI 534b8 .cfa: x29 80 + x19: .cfa -8 + ^ x20: .cfa -16 + ^ x21: .cfa -24 + ^ x22: .cfa -32 + ^ x23: .cfa -40 + ^ x24: .cfa -48 + ^ x25: .cfa -56 + ^ x26: .cfa -64 + ^ .ra: .cfa -72 + ^ x29: .cfa -80 + ^
STACK CFI 53668 .cfa: sp 112 +
STACK CFI 53680 .cfa: sp 0 +
STACK CFI 53684 .cfa: x29 80 +
STACK CFI INIT 536cc 20 .cfa: sp 0 +
STACK CFI 536d0 .cfa: sp 16 +
STACK CFI 536d4 .cfa: x29 16 + .ra: .cfa -8 + ^ x29: .cfa -16 + ^
STACK CFI 536e0 .cfa: sp 16 +
STACK CFI 536e4 .cfa: sp 0 +
STACK CFI 536e8 .cfa: x29 16 +
STACK CFI INIT 53770 1d4 .cfa: sp 0 +
STACK CFI 53774 .cfa: sp 128 +
STACK CFI 53784 .cfa: x29 48 + x19: .cfa -8 + ^ x20: .cfa -16 + ^ x21: .cfa -24 + ^ x22: .cfa -32 + ^ .ra: .cfa -40 + ^ x29: .cfa -48 + ^
STACK CFI 538dc .cfa: sp 128 +
STACK CFI 538ec .cfa: sp 0 +
STACK CFI 538f0 .cfa: x29 48 +
STACK CFI INIT 53988 498 .cfa: sp 0 +
STACK CFI 5398c .cfa: sp 256 +
STACK CFI 539a8 .cfa: x29 96 + x19: .cfa -8 + ^ x20: .cfa -16 + ^ x21: .cfa -24 + ^ x22: .cfa -32 + ^ x23: .cfa -40 + ^ x24: .cfa -48 + ^ x25: .cfa -56 + ^ x26: .cfa -64 + ^ x27: .cfa -72 + ^ x28: .cfa -80 + ^ .ra: .cfa -88 + ^ x29: .cfa -96 + ^
STACK CFI 53d1c .cfa: sp 256 +
STACK CFI 53d38 .cfa: sp 0 +
STACK CFI 53d3c .cfa: x29 96 +
STACK CFI INIT 53e20 9a8 .cfa: sp 0 +
STACK CFI 53e24 .cfa: sp 192 +
STACK CFI 53e3c .cfa: x29 80 + x19: .cfa -8 + ^ x20: .cfa -16 + ^ x21: .cfa -24 + ^ x22: .cfa -32 + ^ x23: .cfa -40 + ^ x24: .cfa -48 + ^ x25: .cfa -64 + ^ .ra: .cfa -72 + ^ x29: .cfa -80 + ^
STACK CFI 5458c .cfa: sp 192 +
STACK CFI 545a4 .cfa: sp 0 +
STACK CFI 545a8 .cfa: x29 80 +
STACK CFI INIT 547c8 10c .cfa: sp 0 +
STACK CFI 547cc .cfa: sp 112 +
STACK CFI 547d8 .cfa: x29 32 + x19: .cfa -8 + ^ x20: .cfa -16 + ^ .ra: .cfa -24 + ^ x29: .cfa -32 + ^
STACK CFI 54894 .cfa: sp 112 +
STACK CFI 548a0 .cfa: sp 0 +
STACK CFI 548a4 .cfa: x29 32 +
STACK CFI INIT 548d8 1bc .cfa: sp 0 +
STACK CFI 548dc .cfa: sp 176 +
STACK CFI 548f0 .cfa: x29 64 + x19: .cfa -8 + ^ x20: .cfa -16 + ^ x21: .cfa -24 + ^ x22: .cfa -32 + ^ x23: .cfa -40 + ^ x24: .cfa -48 + ^ .ra: .cfa -56 + ^ x29: .cfa -64 + ^
STACK CFI 54998 .cfa: sp 176 +
STACK CFI 549ac .cfa: sp 0 +
STACK CFI 549b0 .cfa: x29 64 +
STACK CFI INIT 54a94 118 .cfa: sp 0 +
STACK CFI 54a98 .cfa: sp 144 +
STACK CFI 54ab0 .cfa: x29 80 + x19: .cfa -8 + ^ x20: .cfa -16 + ^ x21: .cfa -24 + ^ x22: .cfa -32 + ^ x23: .cfa -40 + ^ x24: .cfa -48 + ^ x25: .cfa -64 + ^ .ra: .cfa -72 + ^ x29: .cfa -80 + ^
STACK CFI 54b58 .cfa: sp 144 +
STACK CFI 54b70 .cfa: sp 0 +
STACK CFI 54b74 .cfa: x29 80 +
STACK CFI INIT 54be4 134 .cfa: sp 0 +
STACK CFI 54be8 .cfa: sp 128 +
STACK CFI 54bfc .cfa: x29 64 + x19: .cfa -8 + ^ x20: .cfa -16 + ^ x21: .cfa -24 + ^ x22: .cfa -32 + ^ x23: .cfa -40 + ^ x24: .cfa -48 + ^ .ra: .cfa -56 + ^ x29: .cfa -64 + ^
STACK CFI 54cc8 .cfa: sp 128 +
STACK CFI 54cdc .cfa: sp 0 +
STACK CFI 54ce0 .cfa: x29 64 +
STACK CFI INIT 54d24 1a0 .cfa: sp 0 +
STACK CFI 54d28 .cfa: sp 96 +
STACK CFI 54d3c .cfa: x29 64 + x19: .cfa -8 + ^ x20: .cfa -16 + ^ x21: .cfa -24 + ^ x22: .cfa -32 + ^ x23: .cfa -40 + ^ x24: .cfa -48 + ^ .ra: .cfa -56 + ^ x29: .cfa -64 + ^
STACK CFI 54e50 .cfa: sp 96 +
STACK CFI 54e64 .cfa: sp 0 +
STACK CFI 54e68 .cfa: x29 64 +
STACK CFI 54e74 .cfa: sp 96 +
STACK CFI 54e88 .cfa: sp 0 +
STACK CFI 54e8c .cfa: x29 64 +
STACK CFI INIT 54ec4 130 .cfa: sp 0 +
STACK CFI 54ec8 .cfa: sp 96 +
STACK CFI 54edc .cfa: x29 64 + x19: .cfa -8 + ^ x20: .cfa -16 + ^ x21: .cfa -24 + ^ x22: .cfa -32 + ^ x23: .cfa -40 + ^ x24: .cfa -48 + ^ .ra: .cfa -56 + ^ x29: .cfa -64 + ^
STACK CFI 54f8c .cfa: sp 96 +
STACK CFI 54fa0 .cfa: sp 0 +
STACK CFI 54fa4 .cfa: x29 64 +
STACK CFI INIT 54ff4 174 .cfa: sp 0 +
STACK CFI 54ff8 .cfa: sp 80 +
STACK CFI 55008 .cfa: x29 48 + x19: .cfa -8 + ^ x20: .cfa -16 + ^ x21: .cfa -24 + ^ x22: .cfa -32 + ^ .ra: .cfa -40 + ^ x29: .cfa -48 + ^
STACK CFI 55120 .cfa: sp 80 +
STACK CFI 55130 .cfa: sp 0 +
STACK CFI 55134 .cfa: x29 48 +
STACK CFI INIT 55168 32c .cfa: sp 0 +
STACK CFI 5516c .cfa: sp 80 +
STACK CFI 5517c .cfa: x29 48 + x19: .cfa -8 + ^ x20: .cfa -16 + ^ x21: .cfa -32 + ^ .ra: .cfa -40 + ^ x29: .cfa -48 + ^
STACK CFI 5543c .cfa: sp 80 +
STACK CFI 5544c .cfa: sp 0 +
STACK CFI 55450 .cfa: x29 48 +
STACK CFI INIT 55494 140 .cfa: sp 0 +
STACK CFI 55498 .cfa: sp 144 +
STACK CFI 554b0 .cfa: x29 80 + x19: .cfa -8 + ^ x20: .cfa -16 + ^ x21: .cfa -24 + ^ x22: .cfa -32 + ^ x23: .cfa -40 + ^ x24: .cfa -48 + ^ x25: .cfa -64 + ^ .ra: .cfa -72 + ^ x29: .cfa -80 + ^
STACK CFI 55570 .cfa: sp 144 +
STACK CFI 55588 .cfa: sp 0 +
STACK CFI 5558c .cfa: x29 80 +
STACK CFI INIT 555d4 bc .cfa: sp 0 +
STACK CFI 555d8 .cfa: sp 80 +
STACK CFI 555e4 .cfa: x29 32 + x19: .cfa -8 + ^ x20: .cfa -16 + ^ .ra: .cfa -24 + ^ x29: .cfa -32 + ^
STACK CFI 55650 .cfa: sp 80 +
STACK CFI 5565c .cfa: sp 0 +
STACK CFI 55660 .cfa: x29 32 +
STACK CFI INIT 55690 1030 .cfa: sp 0 +
STACK CFI 55694 .cfa: sp 208 +
STACK CFI 556b4 .cfa: x29 96 + x19: .cfa -8 + ^ x20: .cfa -16 + ^ x21: .cfa -24 + ^ x22: .cfa -32 + ^ x23: .cfa -40 + ^ x24: .cfa -48 + ^ x25: .cfa -56 + ^ x26: .cfa -64 + ^ x27: .cfa -72 + ^ x28: .cfa -80 + ^ .ra: .cfa -88 + ^ x29: .cfa -96 + ^ v8: .cfa -112 + ^
STACK CFI 565b0 .cfa: sp 208 +
STACK CFI 565d0 .cfa: sp 0 +
STACK CFI 565d4 .cfa: x29 96 +
STACK CFI INIT 56744 1cc .cfa: sp 0 +
STACK CFI 56748 .cfa: sp 144 +
STACK CFI 56758 .cfa: x29 48 + x19: .cfa -8 + ^ x20: .cfa -16 + ^ x21: .cfa -32 + ^ .ra: .cfa -40 + ^ x29: .cfa -48 + ^
STACK CFI 568a8 .cfa: sp 144 +
STACK CFI 568b8 .cfa: sp 0 +
STACK CFI 568bc .cfa: x29 48 +
STACK CFI INIT 56954 498 .cfa: sp 0 +
STACK CFI 56958 .cfa: sp 256 +
STACK CFI 56974 .cfa: x29 96 + x19: .cfa -8 + ^ x20: .cfa -16 + ^ x21: .cfa -24 + ^ x22: .cfa -32 + ^ x23: .cfa -40 + ^ x24: .cfa -48 + ^ x25: .cfa -56 + ^ x26: .cfa -64 + ^ x27: .cfa -72 + ^ x28: .cfa -80 + ^ .ra: .cfa -88 + ^ x29: .cfa -96 + ^
STACK CFI 56ce8 .cfa: sp 256 +
STACK CFI 56d04 .cfa: sp 0 +
STACK CFI 56d08 .cfa: x29 96 +
STACK CFI INIT 56dec 2b4 .cfa: sp 0 +
STACK CFI 56df0 .cfa: sp 144 +
STACK CFI 56e04 .cfa: x29 64 + x19: .cfa -8 + ^ x20: .cfa -16 + ^ x21: .cfa -24 + ^ x22: .cfa -32 + ^ x23: .cfa -48 + ^ .ra: .cfa -56 + ^ x29: .cfa -64 + ^
STACK CFI 56fd0 .cfa: sp 144 +
STACK CFI 56fe4 .cfa: sp 0 +
STACK CFI 56fe8 .cfa: x29 64 +
STACK CFI INIT 570a0 108 .cfa: sp 0 +
STACK CFI 570a4 .cfa: sp 112 +
STACK CFI 570b0 .cfa: x29 32 + x19: .cfa -8 + ^ x20: .cfa -16 + ^ .ra: .cfa -24 + ^ x29: .cfa -32 + ^
STACK CFI 57168 .cfa: sp 112 +
STACK CFI 57174 .cfa: sp 0 +
STACK CFI 57178 .cfa: x29 32 +
STACK CFI INIT 571ac 1bc .cfa: sp 0 +
STACK CFI 571b0 .cfa: sp 176 +
STACK CFI 571c4 .cfa: x29 64 + x19: .cfa -8 + ^ x20: .cfa -16 + ^ x21: .cfa -24 + ^ x22: .cfa -32 + ^ x23: .cfa -40 + ^ x24: .cfa -48 + ^ .ra: .cfa -56 + ^ x29: .cfa -64 + ^
STACK CFI 5726c .cfa: sp 176 +
STACK CFI 57280 .cfa: sp 0 +
STACK CFI 57284 .cfa: x29 64 +
STACK CFI INIT 57368 118 .cfa: sp 0 +
STACK CFI 5736c .cfa: sp 144 +
STACK CFI 57384 .cfa: x29 80 + x19: .cfa -8 + ^ x20: .cfa -16 + ^ x21: .cfa -24 + ^ x22: .cfa -32 + ^ x23: .cfa -40 + ^ x24: .cfa -48 + ^ x25: .cfa -64 + ^ .ra: .cfa -72 + ^ x29: .cfa -80 + ^
STACK CFI 5742c .cfa: sp 144 +
STACK CFI 57444 .cfa: sp 0 +
STACK CFI 57448 .cfa: x29 80 +
STACK CFI INIT 574b8 284 .cfa: sp 0 +
STACK CFI 574bc .cfa: sp 80 +
STACK CFI 574d0 .cfa: x29 64 + x19: .cfa -8 + ^ x20: .cfa -16 + ^ x21: .cfa -24 + ^ x22: .cfa -32 + ^ x23: .cfa -40 + ^ x24: .cfa -48 + ^ .ra: .cfa -56 + ^ x29: .cfa -64 + ^
STACK CFI 575fc .cfa: sp 80 +
STACK CFI 57610 .cfa: sp 0 +
STACK CFI 57614 .cfa: x29 64 +
STACK CFI 576dc .cfa: sp 80 +
STACK CFI 576f0 .cfa: sp 0 +
STACK CFI 576f4 .cfa: x29 64 +
STACK CFI INIT 5773c 124 .cfa: sp 0 +
STACK CFI 57740 .cfa: sp 96 +
STACK CFI 57750 .cfa: x29 48 + x19: .cfa -8 + ^ x20: .cfa -16 + ^ x21: .cfa -24 + ^ x22: .cfa -32 + ^ .ra: .cfa -40 + ^ x29: .cfa -48 + ^
STACK CFI 577fc .cfa: sp 96 +
STACK CFI 5780c .cfa: sp 0 +
STACK CFI 57810 .cfa: x29 48 +
STACK CFI INIT 57860 b4 .cfa: sp 0 +
STACK CFI 57864 .cfa: sp 80 +
STACK CFI 57870 .cfa: x29 32 + x19: .cfa -8 + ^ x20: .cfa -16 + ^ .ra: .cfa -24 + ^ x29: .cfa -32 + ^
STACK CFI 578d4 .cfa: sp 80 +
STACK CFI 578e0 .cfa: sp 0 +
STACK CFI 578e4 .cfa: x29 32 +
STACK CFI INIT 57914 f70 .cfa: sp 0 +
STACK CFI 57918 .cfa: sp 96 +
STACK CFI 5792c .cfa: x29 64 + x19: .cfa -8 + ^ x20: .cfa -16 + ^ x21: .cfa -24 + ^ x22: .cfa -32 + ^ x23: .cfa -40 + ^ x24: .cfa -48 + ^ .ra: .cfa -56 + ^ x29: .cfa -64 + ^
STACK CFI 58800 .cfa: sp 96 +
STACK CFI 58814 .cfa: sp 0 +
STACK CFI 58818 .cfa: x29 64 +
STACK CFI INIT 58908 1cc .cfa: sp 0 +
STACK CFI 5890c .cfa: sp 144 +
STACK CFI 5891c .cfa: x29 48 + x19: .cfa -8 + ^ x20: .cfa -16 + ^ x21: .cfa -32 + ^ .ra: .cfa -40 + ^ x29: .cfa -48 + ^
STACK CFI 58a6c .cfa: sp 144 +
STACK CFI 58a7c .cfa: sp 0 +
STACK CFI 58a80 .cfa: x29 48 +
STACK CFI INIT 58b18 498 .cfa: sp 0 +
STACK CFI 58b1c .cfa: sp 256 +
STACK CFI 58b38 .cfa: x29 96 + x19: .cfa -8 + ^ x20: .cfa -16 + ^ x21: .cfa -24 + ^ x22: .cfa -32 + ^ x23: .cfa -40 + ^ x24: .cfa -48 + ^ x25: .cfa -56 + ^ x26: .cfa -64 + ^ x27: .cfa -72 + ^ x28: .cfa -80 + ^ .ra: .cfa -88 + ^ x29: .cfa -96 + ^
STACK CFI 58eac .cfa: sp 256 +
STACK CFI 58ec8 .cfa: sp 0 +
STACK CFI 58ecc .cfa: x29 96 +
STACK CFI INIT 58fb0 2b4 .cfa: sp 0 +
STACK CFI 58fb4 .cfa: sp 144 +
STACK CFI 58fc8 .cfa: x29 64 + x19: .cfa -8 + ^ x20: .cfa -16 + ^ x21: .cfa -24 + ^ x22: .cfa -32 + ^ x23: .cfa -48 + ^ .ra: .cfa -56 + ^ x29: .cfa -64 + ^
STACK CFI 59194 .cfa: sp 144 +
STACK CFI 591a8 .cfa: sp 0 +
STACK CFI 591ac .cfa: x29 64 +
STACK CFI INIT 59264 108 .cfa: sp 0 +
STACK CFI 59268 .cfa: sp 112 +
STACK CFI 59274 .cfa: x29 32 + x19: .cfa -8 + ^ x20: .cfa -16 + ^ .ra: .cfa -24 + ^ x29: .cfa -32 + ^
STACK CFI 5932c .cfa: sp 112 +
STACK CFI 59338 .cfa: sp 0 +
STACK CFI 5933c .cfa: x29 32 +
STACK CFI INIT 59370 1bc .cfa: sp 0 +
STACK CFI 59374 .cfa: sp 176 +
STACK CFI 59388 .cfa: x29 64 + x19: .cfa -8 + ^ x20: .cfa -16 + ^ x21: .cfa -24 + ^ x22: .cfa -32 + ^ x23: .cfa -40 + ^ x24: .cfa -48 + ^ .ra: .cfa -56 + ^ x29: .cfa -64 + ^
STACK CFI 59430 .cfa: sp 176 +
STACK CFI 59444 .cfa: sp 0 +
STACK CFI 59448 .cfa: x29 64 +
STACK CFI INIT 5952c 180 .cfa: sp 0 +
STACK CFI 59530 .cfa: sp 144 +
STACK CFI 59548 .cfa: x29 80 + x19: .cfa -8 + ^ x20: .cfa -16 + ^ x21: .cfa -24 + ^ x22: .cfa -32 + ^ x23: .cfa -40 + ^ x24: .cfa -48 + ^ x25: .cfa -64 + ^ .ra: .cfa -72 + ^ x29: .cfa -80 + ^
STACK CFI 59644 .cfa: sp 144 +
STACK CFI 5965c .cfa: sp 0 +
STACK CFI 59660 .cfa: x29 80 +
STACK CFI INIT 596e4 124 .cfa: sp 0 +
STACK CFI 596e8 .cfa: sp 96 +
STACK CFI 596f8 .cfa: x29 48 + x19: .cfa -8 + ^ x20: .cfa -16 + ^ x21: .cfa -24 + ^ x22: .cfa -32 + ^ .ra: .cfa -40 + ^ x29: .cfa -48 + ^
STACK CFI 597a4 .cfa: sp 96 +
STACK CFI 597b4 .cfa: sp 0 +
STACK CFI 597b8 .cfa: x29 48 +
STACK CFI INIT 59808 b4 .cfa: sp 0 +
STACK CFI 5980c .cfa: sp 80 +
STACK CFI 59818 .cfa: x29 32 + x19: .cfa -8 + ^ x20: .cfa -16 + ^ .ra: .cfa -24 + ^ x29: .cfa -32 + ^
STACK CFI 5987c .cfa: sp 80 +
STACK CFI 59888 .cfa: sp 0 +
STACK CFI 5988c .cfa: x29 32 +
STACK CFI INIT 59aa4 788 .cfa: sp 0 +
STACK CFI 59aa8 .cfa: sp 160 +
STACK CFI 59ac0 .cfa: x29 56 + x19: .cfa -8 + ^ x20: .cfa -16 + ^ x21: .cfa -24 + ^ x22: .cfa -32 + ^ x23: .cfa -40 + ^ .ra: .cfa -48 + ^ x29: .cfa -56 + ^ v8: .cfa -64 + ^
STACK CFI 5a1c8 .cfa: sp 160 +
STACK CFI 5a1e0 .cfa: sp 0 +
STACK CFI 5a1e4 .cfa: x29 56 +
STACK CFI INIT 5a2b0 1cc .cfa: sp 0 +
STACK CFI 5a2b4 .cfa: sp 128 +
STACK CFI 5a2c4 .cfa: x29 48 + x19: .cfa -8 + ^ x20: .cfa -16 + ^ x21: .cfa -32 + ^ .ra: .cfa -40 + ^ x29: .cfa -48 + ^
STACK CFI 5a414 .cfa: sp 128 +
STACK CFI 5a424 .cfa: sp 0 +
STACK CFI 5a428 .cfa: x29 48 +
STACK CFI INIT 5a4c0 498 .cfa: sp 0 +
STACK CFI 5a4c4 .cfa: sp 256 +
STACK CFI 5a4e0 .cfa: x29 96 + x19: .cfa -8 + ^ x20: .cfa -16 + ^ x21: .cfa -24 + ^ x22: .cfa -32 + ^ x23: .cfa -40 + ^ x24: .cfa -48 + ^ x25: .cfa -56 + ^ x26: .cfa -64 + ^ x27: .cfa -72 + ^ x28: .cfa -80 + ^ .ra: .cfa -88 + ^ x29: .cfa -96 + ^
STACK CFI 5a854 .cfa: sp 256 +
STACK CFI 5a870 .cfa: sp 0 +
STACK CFI 5a874 .cfa: x29 96 +
STACK CFI INIT 5a958 2dc .cfa: sp 0 +
STACK CFI 5a95c .cfa: sp 160 +
STACK CFI 5a970 .cfa: x29 64 + x19: .cfa -8 + ^ x20: .cfa -16 + ^ x21: .cfa -24 + ^ x22: .cfa -32 + ^ x23: .cfa -48 + ^ .ra: .cfa -56 + ^ x29: .cfa -64 + ^
STACK CFI 5ab5c .cfa: sp 160 +
STACK CFI 5ab70 .cfa: sp 0 +
STACK CFI 5ab74 .cfa: x29 64 +
STACK CFI INIT 5ac34 120 .cfa: sp 0 +
STACK CFI 5ac38 .cfa: sp 112 +
STACK CFI 5ac44 .cfa: x29 32 + x19: .cfa -8 + ^ x20: .cfa -16 + ^ .ra: .cfa -24 + ^ x29: .cfa -32 + ^
STACK CFI 5ad14 .cfa: sp 112 +
STACK CFI 5ad20 .cfa: sp 0 +
STACK CFI 5ad24 .cfa: x29 32 +
STACK CFI INIT 5ad58 1bc .cfa: sp 0 +
STACK CFI 5ad5c .cfa: sp 176 +
STACK CFI 5ad70 .cfa: x29 64 + x19: .cfa -8 + ^ x20: .cfa -16 + ^ x21: .cfa -24 + ^ x22: .cfa -32 + ^ x23: .cfa -40 + ^ x24: .cfa -48 + ^ .ra: .cfa -56 + ^ x29: .cfa -64 + ^
STACK CFI 5ae18 .cfa: sp 176 +
STACK CFI 5ae2c .cfa: sp 0 +
STACK CFI 5ae30 .cfa: x29 64 +
STACK CFI INIT 5af14 134 .cfa: sp 0 +
STACK CFI 5af18 .cfa: sp 128 +
STACK CFI 5af2c .cfa: x29 64 + x19: .cfa -8 + ^ x20: .cfa -16 + ^ x21: .cfa -24 + ^ x22: .cfa -32 + ^ x23: .cfa -40 + ^ x24: .cfa -48 + ^ .ra: .cfa -56 + ^ x29: .cfa -64 + ^
STACK CFI 5aff8 .cfa: sp 128 +
STACK CFI 5b00c .cfa: sp 0 +
STACK CFI 5b010 .cfa: x29 64 +
STACK CFI INIT 5b070 118 .cfa: sp 0 +
STACK CFI 5b074 .cfa: sp 48 +
STACK CFI 5b080 .cfa: x29 48 + x19: .cfa -8 + ^ x20: .cfa -16 + ^ x21: .cfa -24 + ^ x22: .cfa -32 + ^ .ra: .cfa -40 + ^ x29: .cfa -48 + ^
STACK CFI 5b0cc .cfa: sp 48 +
STACK CFI 5b0d8 .cfa: sp 0 +
STACK CFI 5b0dc .cfa: x29 48 +
STACK CFI 5b0e0 .cfa: sp 48 +
STACK CFI 5b0ec .cfa: sp 0 +
STACK CFI 5b0f0 .cfa: x29 48 +
STACK CFI INIT 5b188 134 .cfa: sp 0 +
STACK CFI 5b18c .cfa: sp 96 +
STACK CFI 5b1a0 .cfa: x29 64 + x19: .cfa -8 + ^ x20: .cfa -16 + ^ x21: .cfa -24 + ^ x22: .cfa -32 + ^ x23: .cfa -48 + ^ .ra: .cfa -56 + ^ x29: .cfa -64 + ^
STACK CFI 5b254 .cfa: sp 96 +
STACK CFI 5b268 .cfa: sp 0 +
STACK CFI 5b26c .cfa: x29 64 +
STACK CFI INIT 5b2bc bc .cfa: sp 0 +
STACK CFI 5b2c0 .cfa: sp 80 +
STACK CFI 5b2cc .cfa: x29 32 + x19: .cfa -8 + ^ x20: .cfa -16 + ^ .ra: .cfa -24 + ^ x29: .cfa -32 + ^
STACK CFI 5b338 .cfa: sp 80 +
STACK CFI 5b344 .cfa: sp 0 +
STACK CFI 5b348 .cfa: x29 32 +
STACK CFI INIT 5b378 27c .cfa: sp 0 +
STACK CFI 5b37c .cfa: sp 96 +
STACK CFI 5b390 .cfa: x29 64 + x19: .cfa -8 + ^ x20: .cfa -16 + ^ x21: .cfa -24 + ^ x22: .cfa -32 + ^ x23: .cfa -48 + ^ .ra: .cfa -56 + ^ x29: .cfa -64 + ^
STACK CFI 5b5a4 .cfa: sp 96 +
STACK CFI 5b5b8 .cfa: sp 0 +
STACK CFI 5b5bc .cfa: x29 64 +
STACK CFI INIT 5b678 1d8 .cfa: sp 0 +
STACK CFI 5b67c .cfa: sp 128 +
STACK CFI 5b68c .cfa: x29 48 + x19: .cfa -8 + ^ x20: .cfa -16 + ^ x21: .cfa -32 + ^ .ra: .cfa -40 + ^ x29: .cfa -48 + ^
STACK CFI 5b7e8 .cfa: sp 128 +
STACK CFI 5b7f8 .cfa: sp 0 +
STACK CFI 5b7fc .cfa: x29 48 +
STACK CFI INIT 5b894 498 .cfa: sp 0 +
STACK CFI 5b898 .cfa: sp 256 +
STACK CFI 5b8b4 .cfa: x29 96 + x19: .cfa -8 + ^ x20: .cfa -16 + ^ x21: .cfa -24 + ^ x22: .cfa -32 + ^ x23: .cfa -40 + ^ x24: .cfa -48 + ^ x25: .cfa -56 + ^ x26: .cfa -64 + ^ x27: .cfa -72 + ^ x28: .cfa -80 + ^ .ra: .cfa -88 + ^ x29: .cfa -96 + ^
STACK CFI 5bc28 .cfa: sp 256 +
STACK CFI 5bc44 .cfa: sp 0 +
STACK CFI 5bc48 .cfa: x29 96 +
STACK CFI INIT 5bd2c 2b8 .cfa: sp 0 +
STACK CFI 5bd30 .cfa: sp 144 +
STACK CFI 5bd44 .cfa: x29 64 + x19: .cfa -8 + ^ x20: .cfa -16 + ^ x21: .cfa -24 + ^ x22: .cfa -32 + ^ x23: .cfa -48 + ^ .ra: .cfa -56 + ^ x29: .cfa -64 + ^
STACK CFI 5bf14 .cfa: sp 144 +
STACK CFI 5bf28 .cfa: sp 0 +
STACK CFI 5bf2c .cfa: x29 64 +
STACK CFI INIT 5bfe4 108 .cfa: sp 0 +
STACK CFI 5bfe8 .cfa: sp 112 +
STACK CFI 5bff4 .cfa: x29 32 + x19: .cfa -8 + ^ x20: .cfa -16 + ^ .ra: .cfa -24 + ^ x29: .cfa -32 + ^
STACK CFI 5c0ac .cfa: sp 112 +
STACK CFI 5c0b8 .cfa: sp 0 +
STACK CFI 5c0bc .cfa: x29 32 +
STACK CFI INIT 5c0f0 1bc .cfa: sp 0 +
STACK CFI 5c0f4 .cfa: sp 176 +
STACK CFI 5c108 .cfa: x29 64 + x19: .cfa -8 + ^ x20: .cfa -16 + ^ x21: .cfa -24 + ^ x22: .cfa -32 + ^ x23: .cfa -40 + ^ x24: .cfa -48 + ^ .ra: .cfa -56 + ^ x29: .cfa -64 + ^
STACK CFI 5c1b0 .cfa: sp 176 +
STACK CFI 5c1c4 .cfa: sp 0 +
STACK CFI 5c1c8 .cfa: x29 64 +
STACK CFI INIT 5c2ac 118 .cfa: sp 0 +
STACK CFI 5c2b0 .cfa: sp 144 +
STACK CFI 5c2c8 .cfa: x29 80 + x19: .cfa -8 + ^ x20: .cfa -16 + ^ x21: .cfa -24 + ^ x22: .cfa -32 + ^ x23: .cfa -40 + ^ x24: .cfa -48 + ^ x25: .cfa -64 + ^ .ra: .cfa -72 + ^ x29: .cfa -80 + ^
STACK CFI 5c370 .cfa: sp 144 +
STACK CFI 5c388 .cfa: sp 0 +
STACK CFI 5c38c .cfa: x29 80 +
STACK CFI INIT 5c3fc 474 .cfa: sp 0 +
STACK CFI 5c400 .cfa: sp 128 +
STACK CFI 5c418 .cfa: x29 80 + x19: .cfa -8 + ^ x20: .cfa -16 + ^ x21: .cfa -24 + ^ x22: .cfa -32 + ^ x23: .cfa -40 + ^ x24: .cfa -48 + ^ x25: .cfa -64 + ^ .ra: .cfa -72 + ^ x29: .cfa -80 + ^
STACK CFI 5c708 .cfa: sp 128 +
STACK CFI 5c720 .cfa: sp 0 +
STACK CFI 5c724 .cfa: x29 80 +
STACK CFI 5c7ec .cfa: sp 128 +
STACK CFI 5c804 .cfa: sp 0 +
STACK CFI 5c808 .cfa: x29 80 +
STACK CFI INIT 5c870 13c .cfa: sp 0 +
STACK CFI 5c874 .cfa: sp 96 +
STACK CFI 5c888 .cfa: x29 64 + x19: .cfa -8 + ^ x20: .cfa -16 + ^ x21: .cfa -24 + ^ x22: .cfa -32 + ^ x23: .cfa -48 + ^ .ra: .cfa -56 + ^ x29: .cfa -64 + ^
STACK CFI 5c944 .cfa: sp 96 +
STACK CFI 5c958 .cfa: sp 0 +
STACK CFI 5c95c .cfa: x29 64 +
STACK CFI INIT 5c9ac c0 .cfa: sp 0 +
STACK CFI 5c9b0 .cfa: sp 80 +
STACK CFI 5c9bc .cfa: x29 32 + x19: .cfa -8 + ^ x20: .cfa -16 + ^ .ra: .cfa -24 + ^ x29: .cfa -32 + ^
STACK CFI 5ca2c .cfa: sp 80 +
STACK CFI 5ca38 .cfa: sp 0 +
STACK CFI 5ca3c .cfa: x29 32 +
STACK CFI INIT 5ca6c cc0 .cfa: sp 0 +
STACK CFI 5ca70 .cfa: sp 128 +
STACK CFI 5ca88 .cfa: x29 80 + x19: .cfa -8 + ^ x20: .cfa -16 + ^ x21: .cfa -24 + ^ x22: .cfa -32 + ^ x23: .cfa -40 + ^ x24: .cfa -48 + ^ x25: .cfa -56 + ^ x26: .cfa -64 + ^ .ra: .cfa -72 + ^ x29: .cfa -80 + ^
STACK CFI 5d6a4 .cfa: sp 128 +
STACK CFI 5d6bc .cfa: sp 0 +
STACK CFI 5d6c0 .cfa: x29 80 +
STACK CFI INIT 5d72c 200 .cfa: sp 0 +
STACK CFI 5d730 .cfa: sp 96 +
STACK CFI 5d744 .cfa: x29 64 + x19: .cfa -8 + ^ x20: .cfa -16 + ^ x21: .cfa -24 + ^ x22: .cfa -32 + ^ x23: .cfa -48 + ^ .ra: .cfa -56 + ^ x29: .cfa -64 + ^
STACK CFI 5d8e4 .cfa: sp 96 +
STACK CFI 5d8f8 .cfa: sp 0 +
STACK CFI 5d8fc .cfa: x29 64 +
STACK CFI INIT 5d9b0 1e0 .cfa: sp 0 +
STACK CFI 5d9b4 .cfa: sp 128 +
STACK CFI 5d9c4 .cfa: x29 48 + x19: .cfa -8 + ^ x20: .cfa -16 + ^ x21: .cfa -32 + ^ .ra: .cfa -40 + ^ x29: .cfa -48 + ^
STACK CFI 5db28 .cfa: sp 128 +
STACK CFI 5db38 .cfa: sp 0 +
STACK CFI 5db3c .cfa: x29 48 +
STACK CFI INIT 5dbd4 498 .cfa: sp 0 +
STACK CFI 5dbd8 .cfa: sp 256 +
STACK CFI 5dbf4 .cfa: x29 96 + x19: .cfa -8 + ^ x20: .cfa -16 + ^ x21: .cfa -24 + ^ x22: .cfa -32 + ^ x23: .cfa -40 + ^ x24: .cfa -48 + ^ x25: .cfa -56 + ^ x26: .cfa -64 + ^ x27: .cfa -72 + ^ x28: .cfa -80 + ^ .ra: .cfa -88 + ^ x29: .cfa -96 + ^
STACK CFI 5df68 .cfa: sp 256 +
STACK CFI 5df84 .cfa: sp 0 +
STACK CFI 5df88 .cfa: x29 96 +
STACK CFI INIT 5e06c 4fc .cfa: sp 0 +
STACK CFI 5e070 .cfa: sp 176 +
STACK CFI 5e084 .cfa: x29 64 + x19: .cfa -8 + ^ x20: .cfa -16 + ^ x21: .cfa -24 + ^ x22: .cfa -32 + ^ x23: .cfa -40 + ^ x24: .cfa -48 + ^ .ra: .cfa -56 + ^ x29: .cfa -64 + ^
STACK CFI 5e420 .cfa: sp 176 +
STACK CFI 5e434 .cfa: sp 0 +
STACK CFI 5e438 .cfa: x29 64 +
STACK CFI INIT 5e568 1a8 .cfa: sp 0 +
STACK CFI 5e56c .cfa: sp 128 +
STACK CFI 5e57c .cfa: x29 48 + x19: .cfa -8 + ^ x20: .cfa -16 + ^ x21: .cfa -32 + ^ .ra: .cfa -40 + ^ x29: .cfa -48 + ^
STACK CFI 5e6c8 .cfa: sp 128 +
STACK CFI 5e6d8 .cfa: sp 0 +
STACK CFI 5e6dc .cfa: x29 48 +
STACK CFI INIT 5e714 1bc .cfa: sp 0 +
STACK CFI 5e718 .cfa: sp 176 +
STACK CFI 5e72c .cfa: x29 64 + x19: .cfa -8 + ^ x20: .cfa -16 + ^ x21: .cfa -24 + ^ x22: .cfa -32 + ^ x23: .cfa -40 + ^ x24: .cfa -48 + ^ .ra: .cfa -56 + ^ x29: .cfa -64 + ^
STACK CFI 5e7d4 .cfa: sp 176 +
STACK CFI 5e7e8 .cfa: sp 0 +
STACK CFI 5e7ec .cfa: x29 64 +
STACK CFI INIT 5e8d0 118 .cfa: sp 0 +
STACK CFI 5e8d4 .cfa: sp 144 +
STACK CFI 5e8ec .cfa: x29 80 + x19: .cfa -8 + ^ x20: .cfa -16 + ^ x21: .cfa -24 + ^ x22: .cfa -32 + ^ x23: .cfa -40 + ^ x24: .cfa -48 + ^ x25: .cfa -64 + ^ .ra: .cfa -72 + ^ x29: .cfa -80 + ^
STACK CFI 5e994 .cfa: sp 144 +
STACK CFI 5e9ac .cfa: sp 0 +
STACK CFI 5e9b0 .cfa: x29 80 +
STACK CFI INIT 5ea20 180 .cfa: sp 0 +
STACK CFI 5ea24 .cfa: sp 160 +
STACK CFI 5ea3c .cfa: x29 80 + x19: .cfa -8 + ^ x20: .cfa -16 + ^ x21: .cfa -24 + ^ x22: .cfa -32 + ^ x23: .cfa -40 + ^ x24: .cfa -48 + ^ x25: .cfa -64 + ^ .ra: .cfa -72 + ^ x29: .cfa -80 + ^
STACK CFI 5eb38 .cfa: sp 160 +
STACK CFI 5eb50 .cfa: sp 0 +
STACK CFI 5eb54 .cfa: x29 80 +
STACK CFI INIT 5eba4 1a0 .cfa: sp 0 +
STACK CFI 5eba8 .cfa: sp 80 +
STACK CFI 5ebbc .cfa: x29 64 + x19: .cfa -8 + ^ x20: .cfa -16 + ^ x21: .cfa -24 + ^ x22: .cfa -32 + ^ x23: .cfa -40 + ^ x24: .cfa -48 + ^ .ra: .cfa -56 + ^ x29: .cfa -64 + ^
STACK CFI 5ecd0 .cfa: sp 80 +
STACK CFI 5ece4 .cfa: sp 0 +
STACK CFI 5ece8 .cfa: x29 64 +
STACK CFI 5ecf4 .cfa: sp 80 +
STACK CFI 5ed08 .cfa: sp 0 +
STACK CFI 5ed0c .cfa: x29 64 +
STACK CFI INIT 5ed44 13c .cfa: sp 0 +
STACK CFI 5ed48 .cfa: sp 96 +
STACK CFI 5ed5c .cfa: x29 64 + x19: .cfa -8 + ^ x20: .cfa -16 + ^ x21: .cfa -24 + ^ x22: .cfa -32 + ^ x23: .cfa -48 + ^ .ra: .cfa -56 + ^ x29: .cfa -64 + ^
STACK CFI 5ee18 .cfa: sp 96 +
STACK CFI 5ee2c .cfa: sp 0 +
STACK CFI 5ee30 .cfa: x29 64 +
STACK CFI INIT 5ee80 2238 .cfa: sp 0 +
STACK CFI 5ee84 .cfa: sp 112 +
STACK CFI 5eea0 .cfa: x29 96 + x19: .cfa -8 + ^ x20: .cfa -16 + ^ x21: .cfa -24 + ^ x22: .cfa -32 + ^ x23: .cfa -40 + ^ x24: .cfa -48 + ^ x25: .cfa -56 + ^ x26: .cfa -64 + ^ x27: .cfa -72 + ^ x28: .cfa -80 + ^ .ra: .cfa -88 + ^ x29: .cfa -96 + ^ v8: .cfa -104 + ^ v9: .cfa -112 + ^
STACK CFI 60d98 .cfa: sp 112 +
STACK CFI 60db4 .cfa: sp 0 +
STACK CFI 60db8 .cfa: x29 96 +
STACK CFI INIT 611d0 c0 .cfa: sp 0 +
STACK CFI 611d4 .cfa: sp 80 +
STACK CFI 611e0 .cfa: x29 32 + x19: .cfa -8 + ^ x20: .cfa -16 + ^ .ra: .cfa -24 + ^ x29: .cfa -32 + ^
STACK CFI 61250 .cfa: sp 80 +
STACK CFI 6125c .cfa: sp 0 +
STACK CFI 61260 .cfa: x29 32 +
STACK CFI INIT 61290 7e4 .cfa: sp 0 +
STACK CFI 61294 .cfa: sp 288 +
STACK CFI 612b0 .cfa: x29 96 + x19: .cfa -8 + ^ x20: .cfa -16 + ^ x21: .cfa -24 + ^ x22: .cfa -32 + ^ x23: .cfa -40 + ^ x24: .cfa -48 + ^ x25: .cfa -56 + ^ x26: .cfa -64 + ^ x28: .cfa -80 + ^ .ra: .cfa -88 + ^ x29: .cfa -96 + ^
STACK CFI 619a0 .cfa: sp 288 +
STACK CFI 619bc .cfa: sp 0 +
STACK CFI 619c0 .cfa: x29 96 +
STACK CFI INIT 61ba4 1e0 .cfa: sp 0 +
STACK CFI 61ba8 .cfa: sp 128 +
STACK CFI 61bb8 .cfa: x29 48 + x19: .cfa -8 + ^ x20: .cfa -16 + ^ x21: .cfa -32 + ^ .ra: .cfa -40 + ^ x29: .cfa -48 + ^
STACK CFI 61d1c .cfa: sp 128 +
STACK CFI 61d2c .cfa: sp 0 +
STACK CFI 61d30 .cfa: x29 48 +
STACK CFI INIT 61dc8 498 .cfa: sp 0 +
STACK CFI 61dcc .cfa: sp 256 +
STACK CFI 61de8 .cfa: x29 96 + x19: .cfa -8 + ^ x20: .cfa -16 + ^ x21: .cfa -24 + ^ x22: .cfa -32 + ^ x23: .cfa -40 + ^ x24: .cfa -48 + ^ x25: .cfa -56 + ^ x26: .cfa -64 + ^ x27: .cfa -72 + ^ x28: .cfa -80 + ^ .ra: .cfa -88 + ^ x29: .cfa -96 + ^
STACK CFI 6215c .cfa: sp 256 +
STACK CFI 62178 .cfa: sp 0 +
STACK CFI 6217c .cfa: x29 96 +
STACK CFI INIT 62260 2b0 .cfa: sp 0 +
STACK CFI 62264 .cfa: sp 144 +
STACK CFI 62278 .cfa: x29 64 + x19: .cfa -8 + ^ x20: .cfa -16 + ^ x21: .cfa -24 + ^ x22: .cfa -32 + ^ x23: .cfa -48 + ^ .ra: .cfa -56 + ^ x29: .cfa -64 + ^
STACK CFI 62440 .cfa: sp 144 +
STACK CFI 62454 .cfa: sp 0 +
STACK CFI 62458 .cfa: x29 64 +
STACK CFI INIT 62510 104 .cfa: sp 0 +
STACK CFI 62514 .cfa: sp 112 +
STACK CFI 62520 .cfa: x29 32 + x19: .cfa -8 + ^ x20: .cfa -16 + ^ .ra: .cfa -24 + ^ x29: .cfa -32 + ^
STACK CFI 625d4 .cfa: sp 112 +
STACK CFI 625e0 .cfa: sp 0 +
STACK CFI 625e4 .cfa: x29 32 +
STACK CFI INIT 62618 1bc .cfa: sp 0 +
STACK CFI 6261c .cfa: sp 176 +
STACK CFI 62630 .cfa: x29 64 + x19: .cfa -8 + ^ x20: .cfa -16 + ^ x21: .cfa -24 + ^ x22: .cfa -32 + ^ x23: .cfa -40 + ^ x24: .cfa -48 + ^ .ra: .cfa -56 + ^ x29: .cfa -64 + ^
STACK CFI 626d8 .cfa: sp 176 +
STACK CFI 626ec .cfa: sp 0 +
STACK CFI 626f0 .cfa: x29 64 +
STACK CFI INIT 627d4 134 .cfa: sp 0 +
STACK CFI 627d8 .cfa: sp 128 +
STACK CFI 627ec .cfa: x29 64 + x19: .cfa -8 + ^ x20: .cfa -16 + ^ x21: .cfa -24 + ^ x22: .cfa -32 + ^ x23: .cfa -40 + ^ x24: .cfa -48 + ^ .ra: .cfa -56 + ^ x29: .cfa -64 + ^
STACK CFI 628b8 .cfa: sp 128 +
STACK CFI 628cc .cfa: sp 0 +
STACK CFI 628d0 .cfa: x29 64 +
STACK CFI INIT 62940 128 .cfa: sp 0 +
STACK CFI 62944 .cfa: sp 48 +
STACK CFI 62950 .cfa: x29 48 + x19: .cfa -8 + ^ x20: .cfa -16 + ^ x21: .cfa -24 + ^ x22: .cfa -32 + ^ .ra: .cfa -40 + ^ x29: .cfa -48 + ^
STACK CFI 6299c .cfa: sp 48 +
STACK CFI 629a8 .cfa: sp 0 +
STACK CFI 629ac .cfa: x29 48 +
STACK CFI 629b0 .cfa: sp 48 +
STACK CFI 629bc .cfa: sp 0 +
STACK CFI 629c0 .cfa: x29 48 +
STACK CFI INIT 62a68 13c .cfa: sp 0 +
STACK CFI 62a6c .cfa: sp 96 +
STACK CFI 62a80 .cfa: x29 64 + x19: .cfa -8 + ^ x20: .cfa -16 + ^ x21: .cfa -24 + ^ x22: .cfa -32 + ^ x23: .cfa -48 + ^ .ra: .cfa -56 + ^ x29: .cfa -64 + ^
STACK CFI 62b3c .cfa: sp 96 +
STACK CFI 62b50 .cfa: sp 0 +
STACK CFI 62b54 .cfa: x29 64 +
STACK CFI INIT 62ba4 c0 .cfa: sp 0 +
STACK CFI 62ba8 .cfa: sp 80 +
STACK CFI 62bb4 .cfa: x29 32 + x19: .cfa -8 + ^ x20: .cfa -16 + ^ .ra: .cfa -24 + ^ x29: .cfa -32 + ^
STACK CFI 62c24 .cfa: sp 80 +
STACK CFI 62c30 .cfa: sp 0 +
STACK CFI 62c34 .cfa: x29 32 +
STACK CFI INIT 62c64 28c .cfa: sp 0 +
STACK CFI 62c68 .cfa: sp 96 +
STACK CFI 62c7c .cfa: x29 64 + x19: .cfa -8 + ^ x20: .cfa -16 + ^ x21: .cfa -24 + ^ x22: .cfa -32 + ^ x23: .cfa -48 + ^ .ra: .cfa -56 + ^ x29: .cfa -64 + ^
STACK CFI 62e9c .cfa: sp 96 +
STACK CFI 62eb0 .cfa: sp 0 +
STACK CFI 62eb4 .cfa: x29 64 +
STACK CFI INIT 62f74 1d4 .cfa: sp 0 +
STACK CFI 62f78 .cfa: sp 128 +
STACK CFI 62f88 .cfa: x29 48 + x19: .cfa -8 + ^ x20: .cfa -16 + ^ x21: .cfa -32 + ^ .ra: .cfa -40 + ^ x29: .cfa -48 + ^
STACK CFI 630e0 .cfa: sp 128 +
STACK CFI 630f0 .cfa: sp 0 +
STACK CFI 630f4 .cfa: x29 48 +
STACK CFI INIT 6318c 498 .cfa: sp 0 +
STACK CFI 63190 .cfa: sp 256 +
STACK CFI 631ac .cfa: x29 96 + x19: .cfa -8 + ^ x20: .cfa -16 + ^ x21: .cfa -24 + ^ x22: .cfa -32 + ^ x23: .cfa -40 + ^ x24: .cfa -48 + ^ x25: .cfa -56 + ^ x26: .cfa -64 + ^ x27: .cfa -72 + ^ x28: .cfa -80 + ^ .ra: .cfa -88 + ^ x29: .cfa -96 + ^
STACK CFI 63520 .cfa: sp 256 +
STACK CFI 6353c .cfa: sp 0 +
STACK CFI 63540 .cfa: x29 96 +
STACK CFI INIT 63624 2ac .cfa: sp 0 +
STACK CFI 63628 .cfa: sp 128 +
STACK CFI 6363c .cfa: x29 64 + x19: .cfa -8 + ^ x20: .cfa -16 + ^ x21: .cfa -24 + ^ x22: .cfa -32 + ^ x23: .cfa -48 + ^ .ra: .cfa -56 + ^ x29: .cfa -64 + ^
STACK CFI 63800 .cfa: sp 128 +
STACK CFI 63814 .cfa: sp 0 +
STACK CFI 63818 .cfa: x29 64 +
STACK CFI INIT 638d0 108 .cfa: sp 0 +
STACK CFI 638d4 .cfa: sp 112 +
STACK CFI 638e0 .cfa: x29 32 + x19: .cfa -8 + ^ x20: .cfa -16 + ^ .ra: .cfa -24 + ^ x29: .cfa -32 + ^
STACK CFI 63998 .cfa: sp 112 +
STACK CFI 639a4 .cfa: sp 0 +
STACK CFI 639a8 .cfa: x29 32 +
STACK CFI INIT 639dc 1bc .cfa: sp 0 +
STACK CFI 639e0 .cfa: sp 176 +
STACK CFI 639f4 .cfa: x29 64 + x19: .cfa -8 + ^ x20: .cfa -16 + ^ x21: .cfa -24 + ^ x22: .cfa -32 + ^ x23: .cfa -40 + ^ x24: .cfa -48 + ^ .ra: .cfa -56 + ^ x29: .cfa -64 + ^
STACK CFI 63a9c .cfa: sp 176 +
STACK CFI 63ab0 .cfa: sp 0 +
STACK CFI 63ab4 .cfa: x29 64 +
STACK CFI INIT 63b98 180 .cfa: sp 0 +
STACK CFI 63b9c .cfa: sp 160 +
STACK CFI 63bb4 .cfa: x29 80 + x19: .cfa -8 + ^ x20: .cfa -16 + ^ x21: .cfa -24 + ^ x22: .cfa -32 + ^ x23: .cfa -40 + ^ x24: .cfa -48 + ^ x25: .cfa -64 + ^ .ra: .cfa -72 + ^ x29: .cfa -80 + ^
STACK CFI 63cb0 .cfa: sp 160 +
STACK CFI 63cc8 .cfa: sp 0 +
STACK CFI 63ccc .cfa: x29 80 +
STACK CFI INIT 63d50 138 .cfa: sp 0 +
STACK CFI 63d54 .cfa: sp 80 +
STACK CFI 63d64 .cfa: x29 48 + x19: .cfa -8 + ^ x20: .cfa -16 + ^ x21: .cfa -24 + ^ x22: .cfa -32 + ^ .ra: .cfa -40 + ^ x29: .cfa -48 + ^
STACK CFI 63e24 .cfa: sp 80 +
STACK CFI 63e34 .cfa: sp 0 +
STACK CFI 63e38 .cfa: x29 48 +
STACK CFI INIT 63e88 bc .cfa: sp 0 +
STACK CFI 63e8c .cfa: sp 80 +
STACK CFI 63e98 .cfa: x29 32 + x19: .cfa -8 + ^ x20: .cfa -16 + ^ .ra: .cfa -24 + ^ x29: .cfa -32 + ^
STACK CFI 63f04 .cfa: sp 80 +
STACK CFI 63f10 .cfa: sp 0 +
STACK CFI 63f14 .cfa: x29 32 +
STACK CFI INIT 63f44 20c .cfa: sp 0 +
STACK CFI 63f48 .cfa: sp 144 +
STACK CFI 63f5c .cfa: x29 64 + x19: .cfa -8 + ^ x20: .cfa -16 + ^ x21: .cfa -24 + ^ x22: .cfa -32 + ^ x23: .cfa -40 + ^ x24: .cfa -48 + ^ .ra: .cfa -56 + ^ x29: .cfa -64 + ^
STACK CFI 640c8 .cfa: sp 144 +
STACK CFI 640dc .cfa: sp 0 +
STACK CFI 640e0 .cfa: x29 64 +
STACK CFI INIT 64150 1a0 .cfa: sp 0 +
STACK CFI 64154 .cfa: sp 112 +
STACK CFI 64168 .cfa: x29 64 + x19: .cfa -8 + ^ x20: .cfa -16 + ^ x21: .cfa -24 + ^ x22: .cfa -32 + ^ x23: .cfa -48 + ^ .ra: .cfa -56 + ^ x29: .cfa -64 + ^
STACK CFI 6421c .cfa: sp 112 +
STACK CFI 64230 .cfa: sp 0 +
STACK CFI 64234 .cfa: x29 64 +
STACK CFI 64298 .cfa: sp 112 +
STACK CFI 642ac .cfa: sp 0 +
STACK CFI 642b0 .cfa: x29 64 +
STACK CFI INIT 642f0 1bc .cfa: sp 0 +
STACK CFI 642f4 .cfa: sp 128 +
STACK CFI 6430c .cfa: x29 80 + x19: .cfa -8 + ^ x20: .cfa -16 + ^ x21: .cfa -24 + ^ x22: .cfa -32 + ^ x23: .cfa -40 + ^ x24: .cfa -48 + ^ x25: .cfa -56 + ^ x26: .cfa -64 + ^ .ra: .cfa -72 + ^ x29: .cfa -80 + ^
STACK CFI 64400 .cfa: sp 128 +
STACK CFI 64418 .cfa: sp 0 +
STACK CFI 6441c .cfa: x29 80 +
STACK CFI INIT 644b4 108 .cfa: sp 0 +
STACK CFI 644b8 .cfa: sp 64 +
STACK CFI 644c8 .cfa: x29 48 + x19: .cfa -8 + ^ x20: .cfa -16 + ^ x21: .cfa -32 + ^ .ra: .cfa -40 + ^ x29: .cfa -48 + ^
STACK CFI 64570 .cfa: sp 64 +
STACK CFI 64580 .cfa: sp 0 +
STACK CFI 64584 .cfa: x29 48 +
STACK CFI INIT 6468c 100 .cfa: sp 0 +
STACK CFI 64690 .cfa: sp 80 +
STACK CFI 646a0 .cfa: x29 48 + x19: .cfa -8 + ^ x20: .cfa -16 + ^ x21: .cfa -32 + ^ .ra: .cfa -40 + ^ x29: .cfa -48 + ^
STACK CFI 64720 .cfa: sp 80 +
STACK CFI 64730 .cfa: sp 0 +
STACK CFI 64734 .cfa: x29 48 +
STACK CFI INIT 64814 e8 .cfa: sp 0 +
STACK CFI 64818 .cfa: sp 64 +
STACK CFI 64824 .cfa: x29 32 + x19: .cfa -16 + ^ .ra: .cfa -24 + ^ x29: .cfa -32 + ^
STACK CFI 64880 .cfa: sp 64 +
STACK CFI 6488c .cfa: sp 0 +
STACK CFI 64890 .cfa: x29 32 +
STACK CFI INIT 648fc 100 .cfa: sp 0 +
STACK CFI 64900 .cfa: sp 96 +
STACK CFI 64910 .cfa: x29 48 + x19: .cfa -8 + ^ x20: .cfa -16 + ^ x21: .cfa -32 + ^ .ra: .cfa -40 + ^ x29: .cfa -48 + ^
STACK CFI 64988 .cfa: sp 96 +
STACK CFI 64998 .cfa: sp 0 +
STACK CFI 6499c .cfa: x29 48 +
STACK CFI INIT 649fc 13c .cfa: sp 0 +
STACK CFI 64a00 .cfa: sp 112 +
STACK CFI 64a10 .cfa: x29 48 + x19: .cfa -8 + ^ x20: .cfa -16 + ^ x21: .cfa -24 + ^ x22: .cfa -32 + ^ .ra: .cfa -40 + ^ x29: .cfa -48 + ^
STACK CFI 64a64 .cfa: sp 112 +
STACK CFI 64a74 .cfa: sp 0 +
STACK CFI 64a78 .cfa: x29 48 +
STACK CFI INIT 64bf4 100 .cfa: sp 0 +
STACK CFI 64bf8 .cfa: sp 48 +
STACK CFI 64c04 .cfa: x29 48 + x19: .cfa -8 + ^ x20: .cfa -16 + ^ x21: .cfa -24 + ^ x22: .cfa -32 + ^ .ra: .cfa -40 + ^ x29: .cfa -48 + ^
STACK CFI 64c14 .cfa: sp 48 +
STACK CFI 64c20 .cfa: sp 0 +
STACK CFI 64c24 .cfa: x29 48 +
STACK CFI INIT 64d58 18c .cfa: sp 0 +
STACK CFI 64d5c .cfa: sp 112 +
STACK CFI 64d6c .cfa: x29 48 + x19: .cfa -8 + ^ x20: .cfa -16 + ^ x21: .cfa -32 + ^ .ra: .cfa -40 + ^ x29: .cfa -48 + ^
STACK CFI 64dd8 .cfa: sp 112 +
STACK CFI 64de8 .cfa: sp 0 +
STACK CFI 64dec .cfa: x29 48 +
STACK CFI INIT 64ee4 16c .cfa: sp 0 +
STACK CFI 64ee8 .cfa: sp 112 +
STACK CFI 64ef8 .cfa: x29 48 + x19: .cfa -8 + ^ x20: .cfa -16 + ^ x21: .cfa -32 + ^ .ra: .cfa -40 + ^ x29: .cfa -48 + ^
STACK CFI 64f44 .cfa: sp 112 +
STACK CFI 64f54 .cfa: sp 0 +
STACK CFI 64f58 .cfa: x29 48 +
STACK CFI INIT 65050 28c .cfa: sp 0 +
STACK CFI 65054 .cfa: sp 144 +
STACK CFI 65068 .cfa: x29 64 + x19: .cfa -8 + ^ x20: .cfa -16 + ^ x21: .cfa -24 + ^ x22: .cfa -32 + ^ x23: .cfa -40 + ^ x24: .cfa -48 + ^ .ra: .cfa -56 + ^ x29: .cfa -64 + ^
STACK CFI 65184 .cfa: sp 144 +
STACK CFI 65198 .cfa: sp 0 +
STACK CFI 6519c .cfa: x29 64 +
STACK CFI INIT 65378 178 .cfa: sp 0 +
STACK CFI 6537c .cfa: sp 112 +
STACK CFI 6538c .cfa: x29 48 + x19: .cfa -8 + ^ x20: .cfa -16 + ^ x21: .cfa -32 + ^ .ra: .cfa -40 + ^ x29: .cfa -48 + ^
STACK CFI 653e4 .cfa: sp 112 +
STACK CFI 653f4 .cfa: sp 0 +
STACK CFI 653f8 .cfa: x29 48 +
STACK CFI INIT 654f0 2a4 .cfa: sp 0 +
STACK CFI 654f4 .cfa: sp 144 +
STACK CFI 65508 .cfa: x29 64 + x19: .cfa -8 + ^ x20: .cfa -16 + ^ x21: .cfa -24 + ^ x22: .cfa -32 + ^ x23: .cfa -40 + ^ x24: .cfa -48 + ^ .ra: .cfa -56 + ^ x29: .cfa -64 + ^
STACK CFI 6563c .cfa: sp 144 +
STACK CFI 65650 .cfa: sp 0 +
STACK CFI 65654 .cfa: x29 64 +
STACK CFI INIT 657b8 140 .cfa: sp 0 +
STACK CFI 657bc .cfa: sp 128 +
STACK CFI 657cc .cfa: x29 48 + x19: .cfa -8 + ^ x20: .cfa -16 + ^ x21: .cfa -24 + ^ x22: .cfa -32 + ^ .ra: .cfa -40 + ^ x29: .cfa -48 + ^
STACK CFI 65814 .cfa: sp 128 +
STACK CFI 65824 .cfa: sp 0 +
STACK CFI 65828 .cfa: x29 48 +
STACK CFI INIT 658f8 c8 .cfa: sp 0 +
STACK CFI 658fc .cfa: sp 64 +
STACK CFI 6590c .cfa: x29 48 + x19: .cfa -8 + ^ x20: .cfa -16 + ^ x21: .cfa -32 + ^ .ra: .cfa -40 + ^ x29: .cfa -48 + ^
STACK CFI 65978 .cfa: sp 64 +
STACK CFI 65988 .cfa: sp 0 +
STACK CFI 6598c .cfa: sp 64 +
STACK CFI 6599c .cfa: sp 0 +
STACK CFI 659a0 .cfa: x29 48 +
STACK CFI INIT 659ec 254 .cfa: sp 0 +
STACK CFI 659f0 .cfa: sp 144 +
STACK CFI 65a04 .cfa: x29 64 + x19: .cfa -8 + ^ x20: .cfa -16 + ^ x21: .cfa -24 + ^ x22: .cfa -32 + ^ x23: .cfa -40 + ^ x24: .cfa -48 + ^ .ra: .cfa -56 + ^ x29: .cfa -64 + ^
STACK CFI 65ae8 .cfa: sp 144 +
STACK CFI 65afc .cfa: sp 0 +
STACK CFI 65b00 .cfa: x29 64 +
STACK CFI INIT 65d24 c0 .cfa: sp 0 +
STACK CFI 65d28 .cfa: sp 48 +
STACK CFI 65d34 .cfa: x29 48 + x19: .cfa -8 + ^ x20: .cfa -16 + ^ x21: .cfa -32 + ^ .ra: .cfa -40 + ^ x29: .cfa -48 + ^
STACK CFI 65db0 .cfa: sp 48 +
STACK CFI 65dbc .cfa: sp 0 +
STACK CFI 65dc0 .cfa: x29 48 +
STACK CFI INIT 65de8 90 .cfa: sp 0 +
STACK CFI 65dec .cfa: sp 48 +
STACK CFI 65df8 .cfa: x29 32 + x19: .cfa -8 + ^ x20: .cfa -16 + ^ .ra: .cfa -24 + ^ x29: .cfa -32 + ^
STACK CFI 65e40 .cfa: sp 48 +
STACK CFI 65e4c .cfa: sp 0 +
STACK CFI 65e50 .cfa: x29 32 +
STACK CFI INIT 65e78 c0 .cfa: sp 0 +
STACK CFI 65e7c .cfa: sp 48 +
STACK CFI 65e88 .cfa: x29 48 + x19: .cfa -8 + ^ x20: .cfa -16 + ^ x21: .cfa -32 + ^ .ra: .cfa -40 + ^ x29: .cfa -48 + ^
STACK CFI 65ef8 .cfa: sp 48 +
STACK CFI 65f04 .cfa: sp 0 +
STACK CFI 65f08 .cfa: sp 48 +
STACK CFI 65f14 .cfa: sp 0 +
STACK CFI 65f18 .cfa: x29 48 +
STACK CFI INIT 65f38 170 .cfa: sp 0 +
STACK CFI 65f3c .cfa: sp 128 +
STACK CFI 65f4c .cfa: x29 48 + x19: .cfa -8 + ^ x20: .cfa -16 + ^ x21: .cfa -24 + ^ x22: .cfa -32 + ^ .ra: .cfa -40 + ^ x29: .cfa -48 + ^
STACK CFI 65fb0 .cfa: sp 128 +
STACK CFI 65fc0 .cfa: sp 0 +
STACK CFI 65fc4 .cfa: x29 48 +
STACK CFI INIT 660a8 308 .cfa: sp 0 +
STACK CFI 660ac .cfa: sp 144 +
STACK CFI 660c0 .cfa: x29 64 + x19: .cfa -8 + ^ x20: .cfa -16 + ^ x21: .cfa -24 + ^ x22: .cfa -32 + ^ x23: .cfa -40 + ^ x24: .cfa -48 + ^ .ra: .cfa -56 + ^ x29: .cfa -64 + ^
STACK CFI 66230 .cfa: sp 144 +
STACK CFI 66244 .cfa: sp 0 +
STACK CFI 66248 .cfa: x29 64 +
STACK CFI INIT 663d0 2dc .cfa: sp 0 +
STACK CFI 663d4 .cfa: sp 144 +
STACK CFI 663e8 .cfa: x29 64 + x19: .cfa -8 + ^ x20: .cfa -16 + ^ x21: .cfa -24 + ^ x22: .cfa -32 + ^ x23: .cfa -40 + ^ x24: .cfa -48 + ^ .ra: .cfa -56 + ^ x29: .cfa -64 + ^
STACK CFI 66554 .cfa: sp 144 +
STACK CFI 66568 .cfa: sp 0 +
STACK CFI 6656c .cfa: x29 64 +
STACK CFI INIT 66754 35c .cfa: sp 0 +
STACK CFI 66758 .cfa: sp 64 +
STACK CFI 66768 .cfa: x29 64 + x19: .cfa -8 + ^ x20: .cfa -16 + ^ x21: .cfa -24 + ^ x22: .cfa -32 + ^ x23: .cfa -40 + ^ x24: .cfa -48 + ^ .ra: .cfa -56 + ^ x29: .cfa -64 + ^
STACK CFI 66844 .cfa: sp 64 +
STACK CFI 66854 .cfa: sp 0 +
STACK CFI 66858 .cfa: x29 64 +
STACK CFI 66a88 .cfa: sp 64 +
STACK CFI 66a98 .cfa: sp 0 +
STACK CFI 66a9c .cfa: x29 64 +
STACK CFI INIT 66ed0 50 .cfa: sp 0 +
STACK CFI 66ed4 .cfa: sp 32 +
STACK CFI 66edc .cfa: x29 32 + x19: .cfa -8 + ^ x20: .cfa -16 + ^ .ra: .cfa -24 + ^ x29: .cfa -32 + ^
STACK CFI INIT 66f50 18c .cfa: sp 0 +
STACK CFI 66f54 .cfa: sp 208 +
STACK CFI 66f64 .cfa: x29 48 + x19: .cfa -8 + ^ x20: .cfa -16 + ^ x21: .cfa -24 + ^ x22: .cfa -32 + ^ .ra: .cfa -40 + ^ x29: .cfa -48 + ^
STACK CFI 67064 .cfa: sp 208 +
STACK CFI 67074 .cfa: sp 0 +
STACK CFI 67078 .cfa: x29 48 +
STACK CFI INIT 670dc 198 .cfa: sp 0 +
STACK CFI 670e0 .cfa: sp 96 +
STACK CFI 670f4 .cfa: x29 64 + x19: .cfa -8 + ^ x20: .cfa -16 + ^ x21: .cfa -24 + ^ x22: .cfa -32 + ^ x23: .cfa -48 + ^ .ra: .cfa -56 + ^ x29: .cfa -64 + ^
STACK CFI 671d4 .cfa: sp 96 +
STACK CFI 671e8 .cfa: sp 0 +
STACK CFI 671ec .cfa: x29 64 +
STACK CFI INIT 672f0 308 .cfa: sp 0 +
STACK CFI 672f4 .cfa: sp 160 +
STACK CFI 67308 .cfa: x29 64 + x19: .cfa -8 + ^ x20: .cfa -16 + ^ x21: .cfa -24 + ^ x22: .cfa -32 + ^ x23: .cfa -40 + ^ x24: .cfa -48 + ^ .ra: .cfa -56 + ^ x29: .cfa -64 + ^
STACK CFI 6751c .cfa: sp 160 +
STACK CFI 67530 .cfa: sp 0 +
STACK CFI 67534 .cfa: x29 64 +
STACK CFI INIT 676e4 124 .cfa: sp 0 +
STACK CFI 676e8 .cfa: sp 80 +
STACK CFI 676fc .cfa: x29 80 + x19: .cfa -8 + ^ x20: .cfa -16 + ^ x21: .cfa -24 + ^ x22: .cfa -32 + ^ x23: .cfa -40 + ^ x24: .cfa -48 + ^ x28: .cfa -64 + ^ .ra: .cfa -72 + ^ x29: .cfa -80 + ^
STACK CFI 677bc .cfa: sp 80 +
STACK CFI 677d0 .cfa: sp 0 +
STACK CFI 677d4 .cfa: x29 80 +
STACK CFI INIT 689e0 118 .cfa: sp 0 +
STACK CFI 689e4 .cfa: sp 80 +
STACK CFI 689f4 .cfa: x29 48 + x19: .cfa -8 + ^ x20: .cfa -16 + ^ x21: .cfa -32 + ^ .ra: .cfa -40 + ^ x29: .cfa -48 + ^
STACK CFI 68aa4 .cfa: sp 80 +
STACK CFI 68ab4 .cfa: sp 0 +
STACK CFI 68ab8 .cfa: x29 48 +
STACK CFI INIT 6ba14 68c .cfa: sp 0 +
STACK CFI 6ba18 .cfa: sp 288 +
STACK CFI 6ba34 .cfa: x29 96 + x19: .cfa -8 + ^ x20: .cfa -16 + ^ x21: .cfa -24 + ^ x22: .cfa -32 + ^ x23: .cfa -40 + ^ x24: .cfa -48 + ^ x25: .cfa -56 + ^ x26: .cfa -64 + ^ x27: .cfa -72 + ^ x28: .cfa -80 + ^ .ra: .cfa -88 + ^ x29: .cfa -96 + ^
STACK CFI 6bf9c .cfa: sp 288 +
STACK CFI 6bfb8 .cfa: sp 0 +
STACK CFI 6bfbc .cfa: x29 96 +
STACK CFI INIT 6c1f4 1c0 .cfa: sp 0 +
STACK CFI 6c1f8 .cfa: sp 144 +
STACK CFI 6c20c .cfa: x29 64 + x19: .cfa -8 + ^ x20: .cfa -16 + ^ x21: .cfa -24 + ^ x22: .cfa -32 + ^ x23: .cfa -40 + ^ x24: .cfa -48 + ^ .ra: .cfa -56 + ^ x29: .cfa -64 + ^
STACK CFI 6c300 .cfa: sp 144 +
STACK CFI 6c314 .cfa: sp 0 +
STACK CFI 6c318 .cfa: x29 64 +
STACK CFI INIT 6c8a4 2c4 .cfa: sp 0 +
STACK CFI 6c8a8 .cfa: sp 80 +
STACK CFI 6c8bc .cfa: x29 80 + x19: .cfa -8 + ^ x20: .cfa -16 + ^ x21: .cfa -24 + ^ x22: .cfa -32 + ^ x23: .cfa -40 + ^ x24: .cfa -48 + ^ x28: .cfa -64 + ^ .ra: .cfa -72 + ^ x29: .cfa -80 + ^
STACK CFI 6cb1c .cfa: sp 80 +
STACK CFI 6cb30 .cfa: sp 0 +
STACK CFI 6cb34 .cfa: x29 80 +
STACK CFI INIT 6cb68 3dc .cfa: sp 0 +
STACK CFI 6cb6c .cfa: sp 96 +
STACK CFI 6cb84 .cfa: x29 96 + x19: .cfa -8 + ^ x20: .cfa -16 + ^ x21: .cfa -24 + ^ x22: .cfa -32 + ^ x23: .cfa -40 + ^ x24: .cfa -48 + ^ x25: .cfa -56 + ^ x26: .cfa -64 + ^ x27: .cfa -72 + ^ x28: .cfa -80 + ^ .ra: .cfa -88 + ^ x29: .cfa -96 + ^
STACK CFI 6cee4 .cfa: sp 96 +
STACK CFI 6cefc .cfa: sp 0 +
STACK CFI 6cf00 .cfa: x29 96 +
STACK CFI INIT 6d1c0 144 .cfa: sp 0 +
STACK CFI 6d1c4 .cfa: sp 64 +
STACK CFI 6d1d4 .cfa: x29 64 + x19: .cfa -8 + ^ x20: .cfa -16 + ^ x21: .cfa -24 + ^ x22: .cfa -32 + ^ x23: .cfa -40 + ^ x28: .cfa -48 + ^ .ra: .cfa -56 + ^ x29: .cfa -64 + ^
STACK CFI 6d2bc .cfa: sp 64 +
STACK CFI 6d2cc .cfa: sp 0 +
STACK CFI 6d2d0 .cfa: x29 64 +
STACK CFI INIT 6d528 698 .cfa: sp 0 +
STACK CFI 6d52c .cfa: sp 288 +
STACK CFI 6d548 .cfa: x29 96 + x19: .cfa -8 + ^ x20: .cfa -16 + ^ x21: .cfa -24 + ^ x22: .cfa -32 + ^ x23: .cfa -40 + ^ x24: .cfa -48 + ^ x25: .cfa -56 + ^ x26: .cfa -64 + ^ x27: .cfa -72 + ^ x28: .cfa -80 + ^ .ra: .cfa -88 + ^ x29: .cfa -96 + ^
STACK CFI 6dabc .cfa: sp 288 +
STACK CFI 6dad8 .cfa: sp 0 +
STACK CFI 6dadc .cfa: x29 96 +
STACK CFI INIT 6e000 2dc .cfa: sp 0 +
STACK CFI 6e004 .cfa: sp 80 +
STACK CFI 6e018 .cfa: x29 80 + x19: .cfa -8 + ^ x20: .cfa -16 + ^ x21: .cfa -24 + ^ x22: .cfa -32 + ^ x23: .cfa -40 + ^ x24: .cfa -48 + ^ x28: .cfa -64 + ^ .ra: .cfa -72 + ^ x29: .cfa -80 + ^
STACK CFI 6e290 .cfa: sp 80 +
STACK CFI 6e2a4 .cfa: sp 0 +
STACK CFI 6e2a8 .cfa: x29 80 +
STACK CFI INIT 6e448 144 .cfa: sp 0 +
STACK CFI 6e44c .cfa: sp 64 +
STACK CFI 6e45c .cfa: x29 64 + x19: .cfa -8 + ^ x20: .cfa -16 + ^ x21: .cfa -24 + ^ x22: .cfa -32 + ^ x23: .cfa -40 + ^ x28: .cfa -48 + ^ .ra: .cfa -56 + ^ x29: .cfa -64 + ^
STACK CFI 6e544 .cfa: sp 64 +
STACK CFI 6e554 .cfa: sp 0 +
STACK CFI 6e558 .cfa: x29 64 +
STACK CFI INIT 6e7bc 43c .cfa: sp 0 +
STACK CFI 6e7c0 .cfa: sp 80 +
STACK CFI 6e7d4 .cfa: x29 80 + x19: .cfa -8 + ^ x20: .cfa -16 + ^ x21: .cfa -24 + ^ x22: .cfa -32 + ^ x23: .cfa -40 + ^ x24: .cfa -48 + ^ x25: .cfa -56 + ^ x28: .cfa -64 + ^ .ra: .cfa -72 + ^ x29: .cfa -80 + ^
STACK CFI 6eb6c .cfa: sp 80 +
STACK CFI 6eb80 .cfa: sp 0 +
STACK CFI 6eb84 .cfa: x29 80 +
STACK CFI INIT 6f65c 1454 .cfa: sp 0 +
STACK CFI 6f660 .cfa: sp 96 +
STACK CFI 6f678 .cfa: x29 96 + x19: .cfa -8 + ^ x20: .cfa -16 + ^ x21: .cfa -24 + ^ x22: .cfa -32 + ^ x23: .cfa -40 + ^ x24: .cfa -48 + ^ x25: .cfa -56 + ^ x26: .cfa -64 + ^ x27: .cfa -72 + ^ x28: .cfa -80 + ^ .ra: .cfa -88 + ^ x29: .cfa -96 + ^
STACK CFI 707e0 .cfa: sp 96 +
STACK CFI 707f8 .cfa: sp 0 +
STACK CFI 707fc .cfa: x29 96 +
STACK CFI INIT 711d4 5b0 .cfa: sp 0 +
STACK CFI 711d8 .cfa: sp 304 +
STACK CFI 711f4 .cfa: x29 96 + x19: .cfa -8 + ^ x20: .cfa -16 + ^ x21: .cfa -24 + ^ x22: .cfa -32 + ^ x23: .cfa -40 + ^ x24: .cfa -48 + ^ x25: .cfa -56 + ^ x26: .cfa -64 + ^ x27: .cfa -72 + ^ x28: .cfa -80 + ^ .ra: .cfa -88 + ^ x29: .cfa -96 + ^
STACK CFI 71708 .cfa: sp 304 +
STACK CFI 71724 .cfa: sp 0 +
STACK CFI 71728 .cfa: x29 96 +
STACK CFI INIT 71784 674 .cfa: sp 0 +
STACK CFI 71788 .cfa: sp 288 +
STACK CFI 717a4 .cfa: x29 96 + x19: .cfa -8 + ^ x20: .cfa -16 + ^ x21: .cfa -24 + ^ x22: .cfa -32 + ^ x23: .cfa -40 + ^ x24: .cfa -48 + ^ x25: .cfa -56 + ^ x26: .cfa -64 + ^ x27: .cfa -72 + ^ x28: .cfa -80 + ^ .ra: .cfa -88 + ^ x29: .cfa -96 + ^
STACK CFI 71cf4 .cfa: sp 288 +
STACK CFI 71d10 .cfa: sp 0 +
STACK CFI 71d14 .cfa: x29 96 +
STACK CFI INIT 7221c 424 .cfa: sp 0 +
STACK CFI 72220 .cfa: sp 96 +
STACK CFI 72238 .cfa: x29 96 + x19: .cfa -8 + ^ x20: .cfa -16 + ^ x21: .cfa -24 + ^ x22: .cfa -32 + ^ x23: .cfa -40 + ^ x24: .cfa -48 + ^ x25: .cfa -56 + ^ x26: .cfa -64 + ^ x28: .cfa -80 + ^ .ra: .cfa -88 + ^ x29: .cfa -96 + ^
STACK CFI 725ec .cfa: sp 96 +
STACK CFI 72604 .cfa: sp 0 +
STACK CFI 72608 .cfa: x29 96 +
STACK CFI INIT 727ac 228 .cfa: sp 0 +
STACK CFI 727b0 .cfa: sp 96 +
STACK CFI 727c8 .cfa: x29 96 + x19: .cfa -8 + ^ x20: .cfa -16 + ^ x21: .cfa -24 + ^ x22: .cfa -32 + ^ x23: .cfa -40 + ^ x24: .cfa -48 + ^ x25: .cfa -56 + ^ x26: .cfa -64 + ^ x27: .cfa -72 + ^ x28: .cfa -80 + ^ .ra: .cfa -88 + ^ x29: .cfa -96 + ^
STACK CFI 72950 .cfa: sp 96 +
STACK CFI 72968 .cfa: sp 0 +
STACK CFI 7296c .cfa: x29 96 +
STACK CFI 72984 .cfa: sp 96 +
STACK CFI 7299c .cfa: sp 0 +
STACK CFI 729a0 .cfa: x29 96 +
STACK CFI INIT 76b00 3ec .cfa: sp 0 +
STACK CFI 76b04 .cfa: sp 80 +
STACK CFI 76b1c .cfa: x29 72 + x19: .cfa -8 + ^ x20: .cfa -16 + ^ x21: .cfa -24 + ^ x22: .cfa -32 + ^ x23: .cfa -40 + ^ x24: .cfa -48 + ^ x28: .cfa -56 + ^ .ra: .cfa -64 + ^ x29: .cfa -72 + ^ v8: .cfa -80 + ^
STACK CFI 76e5c .cfa: sp 80 +
STACK CFI 76e74 .cfa: sp 0 +
STACK CFI 76e78 .cfa: x29 72 +
STACK CFI INIT 77454 7ec .cfa: sp 0 +
STACK CFI 77458 .cfa: sp 144 +
STACK CFI 77470 .cfa: x29 80 + x19: .cfa -8 + ^ x20: .cfa -16 + ^ x21: .cfa -24 + ^ x22: .cfa -32 + ^ x23: .cfa -40 + ^ x24: .cfa -48 + ^ x25: .cfa -64 + ^ .ra: .cfa -72 + ^ x29: .cfa -80 + ^
STACK CFI 77b98 .cfa: sp 144 +
STACK CFI 77bb0 .cfa: sp 0 +
STACK CFI 77bb4 .cfa: x29 80 +
STACK CFI INIT 77e14 3e8 .cfa: sp 0 +
STACK CFI 77e18 .cfa: sp 80 +
STACK CFI 77e30 .cfa: x29 72 + x19: .cfa -8 + ^ x20: .cfa -16 + ^ x21: .cfa -24 + ^ x22: .cfa -32 + ^ x23: .cfa -40 + ^ x24: .cfa -48 + ^ x28: .cfa -56 + ^ .ra: .cfa -64 + ^ x29: .cfa -72 + ^ v8: .cfa -80 + ^
STACK CFI 7816c .cfa: sp 80 +
STACK CFI 78184 .cfa: sp 0 +
STACK CFI 78188 .cfa: x29 72 +
STACK CFI INIT 792fc 2dc .cfa: sp 0 +
STACK CFI 79300 .cfa: sp 224 +
STACK CFI 7931c .cfa: x29 96 + x19: .cfa -8 + ^ x20: .cfa -16 + ^ x21: .cfa -24 + ^ x22: .cfa -32 + ^ x23: .cfa -40 + ^ x24: .cfa -48 + ^ x25: .cfa -56 + ^ x26: .cfa -64 + ^ x27: .cfa -80 + ^ .ra: .cfa -88 + ^ x29: .cfa -96 + ^
STACK CFI 79518 .cfa: sp 224 +
STACK CFI 79534 .cfa: sp 0 +
STACK CFI 79538 .cfa: x29 96 +
STACK CFI INIT 795d8 2b8 .cfa: sp 0 +
STACK CFI 795dc .cfa: sp 224 +
STACK CFI 795f8 .cfa: x29 96 + x19: .cfa -8 + ^ x20: .cfa -16 + ^ x21: .cfa -24 + ^ x22: .cfa -32 + ^ x23: .cfa -40 + ^ x24: .cfa -48 + ^ x25: .cfa -56 + ^ x26: .cfa -64 + ^ x27: .cfa -80 + ^ .ra: .cfa -88 + ^ x29: .cfa -96 + ^
STACK CFI 797d0 .cfa: sp 224 +
STACK CFI 797ec .cfa: sp 0 +
STACK CFI 797f0 .cfa: x29 96 +
STACK CFI INIT 79890 2dc .cfa: sp 0 +
STACK CFI 79894 .cfa: sp 224 +
STACK CFI 798b0 .cfa: x29 96 + x19: .cfa -8 + ^ x20: .cfa -16 + ^ x21: .cfa -24 + ^ x22: .cfa -32 + ^ x23: .cfa -40 + ^ x24: .cfa -48 + ^ x25: .cfa -56 + ^ x26: .cfa -64 + ^ x27: .cfa -80 + ^ .ra: .cfa -88 + ^ x29: .cfa -96 + ^
STACK CFI 79aac .cfa: sp 224 +
STACK CFI 79ac8 .cfa: sp 0 +
STACK CFI 79acc .cfa: x29 96 +
STACK CFI INIT 79b6c 2b8 .cfa: sp 0 +
STACK CFI 79b70 .cfa: sp 224 +
STACK CFI 79b8c .cfa: x29 96 + x19: .cfa -8 + ^ x20: .cfa -16 + ^ x21: .cfa -24 + ^ x22: .cfa -32 + ^ x23: .cfa -40 + ^ x24: .cfa -48 + ^ x25: .cfa -56 + ^ x26: .cfa -64 + ^ x27: .cfa -80 + ^ .ra: .cfa -88 + ^ x29: .cfa -96 + ^
STACK CFI 79d64 .cfa: sp 224 +
STACK CFI 79d80 .cfa: sp 0 +
STACK CFI 79d84 .cfa: x29 96 +
STACK CFI INIT 79e24 2e8 .cfa: sp 0 +
STACK CFI 79e28 .cfa: sp 224 +
STACK CFI 79e44 .cfa: x29 96 + x19: .cfa -8 + ^ x20: .cfa -16 + ^ x21: .cfa -24 + ^ x22: .cfa -32 + ^ x23: .cfa -40 + ^ x24: .cfa -48 + ^ x25: .cfa -56 + ^ x26: .cfa -64 + ^ x27: .cfa -72 + ^ x28: .cfa -80 + ^ .ra: .cfa -88 + ^ x29: .cfa -96 + ^
STACK CFI 7a04c .cfa: sp 224 +
STACK CFI 7a068 .cfa: sp 0 +
STACK CFI 7a06c .cfa: x29 96 +
STACK CFI INIT 7a10c 2c0 .cfa: sp 0 +
STACK CFI 7a110 .cfa: sp 224 +
STACK CFI 7a12c .cfa: x29 96 + x19: .cfa -8 + ^ x20: .cfa -16 + ^ x21: .cfa -24 + ^ x22: .cfa -32 + ^ x23: .cfa -40 + ^ x24: .cfa -48 + ^ x25: .cfa -56 + ^ x26: .cfa -64 + ^ x27: .cfa -72 + ^ x28: .cfa -80 + ^ .ra: .cfa -88 + ^ x29: .cfa -96 + ^
STACK CFI 7a30c .cfa: sp 224 +
STACK CFI 7a328 .cfa: sp 0 +
STACK CFI 7a32c .cfa: x29 96 +
