MODULE Linux arm64 542E4F35A624C13F541B2E077A97AE8A0 gdutilsdevs.gdutils.android64.so
INFO CODE_ID 354F2E5424A63FC1541B2E077A97AE8A3DC2CE1C
INFO GENERATOR mozilla/dump_syms 2.3.0
PUBLIC 85c60 0 __on_dlclose
PUBLIC 85c70 0 __emutls_unregister_key
PUBLIC 85c78 0 __on_dlclose_late
PUBLIC 85c80 0 __atexit_handler_wrapper
PUBLIC 85c94 0 atexit
PUBLIC 85cb0 0 pthread_atfork
PUBLIC 85cc0 0 BrownAlertDelegate::init(float, float, char const*, char const*)
PUBLIC 85f5c 0 BrownAlertDelegate::keyDown(cocos2d::enumKeyCodes)
PUBLIC 85f84 0 {virtual override thunk({offset(-344)}, BrownAlertDelegate::keyDown(cocos2d::enumKeyCodes))}
PUBLIC 85fb0 0 BrownAlertDelegate::onClose(cocos2d::CCObject*)
PUBLIC 85fec 0 cocos2d::CCCopying::copyWithZone(cocos2d::CCZone*)
PUBLIC 85ff4 0 cocos2d::CCLayerRGBA::setOpacityModifyRGB(bool)
PUBLIC 85ff8 0 cocos2d::CCLayerRGBA::isOpacityModifyRGB()
PUBLIC 86000 0 cocos2d::CCKeyboardDelegate::keyUp(cocos2d::enumKeyCodes)
PUBLIC 86004 0 cocos2d::CCMouseDelegate::rightKeyDown()
PUBLIC 86008 0 cocos2d::CCMouseDelegate::rightKeyUp()
PUBLIC 8600c 0 cocos2d::CCMouseDelegate::scrollWheel(float, float)
PUBLIC 86010 0 {virtual override thunk({offset(-408)}, cocos2d::CCLayerRGBA::setOpacityModifyRGB(bool))}
PUBLIC 86014 0 {virtual override thunk({offset(-408)}, cocos2d::CCLayerRGBA::isOpacityModifyRGB())}
PUBLIC 8601c 0 MoreLeaderboards::getWords(std::__ndk1::basic_string<char, std::__ndk1::char_traits<char>, std::__ndk1::allocator<char> >, std::__ndk1::basic_string<char, std::__ndk1::char_traits<char>, std::__ndk1::allocator<char> >)
PUBLIC 86494 0 std::__ndk1::vector<std::__ndk1::basic_string<char, std::__ndk1::char_traits<char>, std::__ndk1::allocator<char> >, std::__ndk1::allocator<std::__ndk1::basic_string<char, std::__ndk1::char_traits<char>, std::__ndk1::allocator<char> > > >::~vector[abi:v170000]()
PUBLIC 86510 0 MoreLeaderboards::responseToDict(std::__ndk1::basic_string<char, std::__ndk1::char_traits<char>, std::__ndk1::allocator<char> > const&)
PUBLIC 86960 0 std::__ndk1::basic_stringstream<char, std::__ndk1::char_traits<char>, std::__ndk1::allocator<char> >::basic_stringstream[abi:v170000](std::__ndk1::basic_string<char, std::__ndk1::char_traits<char>, std::__ndk1::allocator<char> > const&, unsigned int)
PUBLIC 86a80 0 std::__ndk1::getline[abi:v170000]<char, std::__ndk1::char_traits<char>, std::__ndk1::allocator<char> >(std::__ndk1::basic_istream<char, std::__ndk1::char_traits<char> >, std::__ndk1::basic_string<std::__ndk1::basic_istream, char, std::__ndk1::allocator<char> >&, std::__ndk1::basic_istream)
PUBLIC 86c38 0 std::__ndk1::basic_stringstream<char, std::__ndk1::char_traits<char>, std::__ndk1::allocator<char> >::~basic_stringstream()
PUBLIC 86cc4 0 MoreLeaderboards::onMoreLeaderboards(cocos2d::CCObject*)
PUBLIC 86da4 0 MoreLeaderboards::create(std::__ndk1::basic_string<char, std::__ndk1::char_traits<char>, std::__ndk1::allocator<char> >)
PUBLIC 86f64 0 MoreLeaderboards::onModsList(cocos2d::CCObject*)
PUBLIC 87044 0 MoreLeaderboards::init(std::__ndk1::basic_string<char, std::__ndk1::char_traits<char>, std::__ndk1::allocator<char> >)
PUBLIC 877ac 0 MoreLeaderboards::backButton(cocos2d::CCObject*)
PUBLIC 877c8 0 MoreLeaderboards::onTab(cocos2d::CCObject*)
PUBLIC 87c6c 0 MoreLeaderboards::startLoadingMods()
PUBLIC 87e24 0 MoreLeaderboards::loadPageMods()
PUBLIC 87f58 0 MoreLeaderboards::keyBackClicked()
PUBLIC 87f78 0 {virtual override thunk({offset(-336)}, MoreLeaderboards::keyBackClicked())}
PUBLIC 87f98 0 MoreLeaderboards::handle_request_mods(std::__ndk1::basic_string<char, std::__ndk1::char_traits<char>, std::__ndk1::allocator<char> > const&)
PUBLIC 883b4 0 geode::utils::web::AsyncWebResult<std::__ndk1::basic_string<char, std::__ndk1::char_traits<char>, std::__ndk1::allocator<char> > >::then(geode::utils::MiniFunction<void (std::__ndk1::basic_string<char, std::__ndk1::char_traits<char>, std::__ndk1::allocator<char> >)>)
PUBLIC 88510 0 MoreLeaderboards::startLoadingMore()
PUBLIC 88bc4 0 MoreLeaderboards::handle_request_more(std::__ndk1::basic_string<char, std::__ndk1::char_traits<char>, std::__ndk1::allocator<char> > const&)
PUBLIC 88f54 0 MoreLeaderboards::loadPageMore()
PUBLIC 890a8 0 MoreLeaderboards::~MoreLeaderboards()
PUBLIC 890cc 0 {virtual override thunk({offset(-320)}, MoreLeaderboards::~MoreLeaderboards())}
PUBLIC 890d4 0 {virtual override thunk({offset(-320)}, MoreLeaderboards::~MoreLeaderboards())}
PUBLIC 890fc 0 __cxx_global_var_init
PUBLIC 89670 0 geode::modifier::ModifyBase<geode::modifier::ModifyDerive<hook423<(anonymous namespace)::hook423Parent>, LeaderboardsLayer> >::~ModifyBase()
PUBLIC 8968c 0 __clang_call_terminate
PUBLIC 8969c 0 std::__ndk1::basic_string<char, std::__ndk1::char_traits<char>, std::__ndk1::allocator<char> >::__throw_length_error[abi:v170000]() const
PUBLIC 896b0 0 std::__ndk1::__throw_length_error[abi:v170000](char const*)
PUBLIC 89700 0 std::length_error::length_error[abi:v170000](char const*)
PUBLIC 89730 0 std::__throw_bad_array_new_length([abi:v170000], void)
PUBLIC 89764 0 std::__ndk1::vector<std::__ndk1::basic_string<char, std::__ndk1::char_traits<char>, std::__ndk1::allocator<char> >, std::__ndk1::allocator<std::__ndk1::basic_string<char, std::__ndk1::char_traits<char>, std::__ndk1::allocator<char> > > >::__push_back_slow_path<std::__ndk1::basic_string<char, std::__ndk1::char_traits<char>, std::__ndk1::allocator<char> > const&>(std::__ndk1::basic_string<char, std::__ndk1::char_traits<char>, std::__ndk1::allocator<char> > const&)
PUBLIC 89a04 0 std::__ndk1::__split_buffer<std::__ndk1::basic_string<char, std::__ndk1::char_traits<char>, std::__ndk1::allocator<char> >, std::__ndk1::allocator<std::__ndk1::basic_string<char, std::__ndk1::char_traits<char>, std::__ndk1::allocator<char> > >&>::~__split_buffer()
PUBLIC 89a6c 0 std::__ndk1::vector<std::__ndk1::basic_string<char, std::__ndk1::char_traits<char>, std::__ndk1::allocator<char> >, std::__ndk1::allocator<std::__ndk1::basic_string<char, std::__ndk1::char_traits<char>, std::__ndk1::allocator<char> > > >::__throw_length_error[abi:v170000]() const
PUBLIC 89a80 0 std::__ndk1::basic_string<char, std::__ndk1::char_traits<char>, std::__ndk1::allocator<char> >::__assign_external(char const*, unsigned long)
PUBLIC 89bbc 0 {virtual override thunk({offset(-16)}, std::__ndk1::basic_stringstream<char, std::__ndk1::char_traits<char>, std::__ndk1::allocator<char> >::~basic_stringstream())}
PUBLIC 89c48 0 {virtual override thunk({virtual offset(0, -24)}, std::__ndk1::basic_stringstream<char, std::__ndk1::char_traits<char>, std::__ndk1::allocator<char> >::~basic_stringstream())}
PUBLIC 89cdc 0 std::__ndk1::basic_stringstream<char, std::__ndk1::char_traits<char>, std::__ndk1::allocator<char> >::~basic_stringstream()
PUBLIC 89d70 0 {virtual override thunk({offset(-16)}, std::__ndk1::basic_stringstream<char, std::__ndk1::char_traits<char>, std::__ndk1::allocator<char> >::~basic_stringstream())}
PUBLIC 89e04 0 {virtual override thunk({virtual offset(0, -24)}, std::__ndk1::basic_stringstream<char, std::__ndk1::char_traits<char>, std::__ndk1::allocator<char> >::~basic_stringstream())}
PUBLIC 89ea0 0 std::__ndk1::basic_stringbuf<char, std::__ndk1::char_traits<char>, std::__ndk1::allocator<char> >::~basic_stringbuf()
PUBLIC 89ee0 0 std::__ndk1::basic_stringbuf<char, std::__ndk1::char_traits<char>, std::__ndk1::allocator<char> >::~basic_stringbuf()
PUBLIC 89f28 0 std::__ndk1::basic_stringbuf<char, std::__ndk1::char_traits<char>, std::__ndk1::allocator<char> >::seekoff(long long, std::__ndk1::ios_base::seekdir, unsigned int)
PUBLIC 8a04c 0 std::__ndk1::basic_stringbuf<char, std::__ndk1::char_traits<char>, std::__ndk1::allocator<char> >::seekpos(std::__ndk1::fpos<mbstate_t>, unsigned int)
PUBLIC 8a060 0 std::__ndk1::basic_stringbuf<char, std::__ndk1::char_traits<char>, std::__ndk1::allocator<char> >::underflow()
PUBLIC 8a0b0 0 std::__ndk1::basic_stringbuf<char, std::__ndk1::char_traits<char>, std::__ndk1::allocator<char> >::pbackfail(int)
PUBLIC 8a120 0 std::__ndk1::basic_stringbuf<char, std::__ndk1::char_traits<char>, std::__ndk1::allocator<char> >::overflow(int)
PUBLIC 8a304 0 std::__ndk1::basic_stringbuf<char, std::__ndk1::char_traits<char>, std::__ndk1::allocator<char> >::str(std::__ndk1::basic_string<char, std::__ndk1::char_traits<char>, std::__ndk1::allocator<char> > const&)
PUBLIC 8a470 0 geode::utils::MiniFunctionState<geode::utils::web::AsyncWebResult<std::__ndk1::basic_string<char, std::__ndk1::char_traits<char>, std::__ndk1::allocator<char> > >::then(geode::utils::MiniFunction<void (std::__ndk1::basic_string<char, std::__ndk1::char_traits<char>, std::__ndk1::allocator<char> >)>)::{lambda(geode::utils::web::SentAsyncWebRequest&, std::__ndk1::vector<unsigned char, std::__ndk1::allocator<unsigned char> > const&)#1}, void, geode::utils::web::SentAsyncWebRequest&, std::__ndk1::vector<unsigned char, std::__ndk1::allocator<unsigned char> > const&>::~MiniFunctionState()
PUBLIC 8a488 0 geode::utils::MiniFunctionState<geode::utils::web::AsyncWebResult<std::__ndk1::basic_string<char, std::__ndk1::char_traits<char>, std::__ndk1::allocator<char> > >::then(geode::utils::MiniFunction<void (std::__ndk1::basic_string<char, std::__ndk1::char_traits<char>, std::__ndk1::allocator<char> >)>)::{lambda(geode::utils::web::SentAsyncWebRequest&, std::__ndk1::vector<unsigned char, std::__ndk1::allocator<unsigned char> > const&)#1}, void, geode::utils::web::SentAsyncWebRequest&, std::__ndk1::vector<unsigned char, std::__ndk1::allocator<unsigned char> > const&>::~MiniFunctionState()
PUBLIC 8a4bc 0 geode::utils::MiniFunctionState<geode::utils::web::AsyncWebResult<std::__ndk1::basic_string<char, std::__ndk1::char_traits<char>, std::__ndk1::allocator<char> > >::then(geode::utils::MiniFunction<void (std::__ndk1::basic_string<char, std::__ndk1::char_traits<char>, std::__ndk1::allocator<char> >)>)::{lambda(geode::utils::web::SentAsyncWebRequest&, std::__ndk1::vector<unsigned char, std::__ndk1::allocator<unsigned char> > const&)#1}, void, geode::utils::web::SentAsyncWebRequest&, std::__ndk1::vector<unsigned char, std::__ndk1::allocator<unsigned char> > const&>::call(geode::utils::web::SentAsyncWebRequest&, std::__ndk1::vector<unsigned char, std::__ndk1::allocator<unsigned char> > const&) const
PUBLIC 8a4c4 0 geode::utils::MiniFunctionState<geode::utils::web::AsyncWebResult<std::__ndk1::basic_string<char, std::__ndk1::char_traits<char>, std::__ndk1::allocator<char> > >::then(geode::utils::MiniFunction<void (std::__ndk1::basic_string<char, std::__ndk1::char_traits<char>, std::__ndk1::allocator<char> >)>)::{lambda(geode::utils::web::SentAsyncWebRequest&, std::__ndk1::vector<unsigned char, std::__ndk1::allocator<unsigned char> > const&)#1}, void, geode::utils::web::SentAsyncWebRequest&, std::__ndk1::vector<unsigned char, std::__ndk1::allocator<unsigned char> > const&>::clone() const
PUBLIC 8a540 0 geode::utils::web::AsyncWebResult<std::__ndk1::basic_string<char, std::__ndk1::char_traits<char>, std::__ndk1::allocator<char> > >::then(geode::utils::MiniFunction<void (std::__ndk1::basic_string<char, std::__ndk1::char_traits<char>, std::__ndk1::allocator<char> >)>)::{lambda(geode::utils::web::SentAsyncWebRequest&, std::__ndk1::vector<unsigned char, std::__ndk1::allocator<unsigned char> > const&)#1}::operator()(geode::utils::web::SentAsyncWebRequest&, std::__ndk1::vector<unsigned char, std::__ndk1::allocator<unsigned char> > const&) const
PUBLIC 8a7c4 0 geode::utils::MiniFunction<void (std::__ndk1::basic_string<char, std::__ndk1::char_traits<char>, std::__ndk1::allocator<char> >)>::operator()(std::__ndk1::basic_string<char, std::__ndk1::char_traits<char>, std::__ndk1::allocator<char> >) const
PUBLIC 8a8ec 0 geode::Result<std::__ndk1::basic_string<char, std::__ndk1::char_traits<char>, std::__ndk1::allocator<char> >, std::__ndk1::basic_string<char, std::__ndk1::char_traits<char>, std::__ndk1::allocator<char> > >::unwrap() &
PUBLIC 8a9ec 0 cpp::bitwizeshift::bad_result_access<std::__ndk1::basic_string<char, std::__ndk1::char_traits<char>, std::__ndk1::allocator<char> > >::~bad_result_access()
PUBLIC 8aa28 0 cpp::bitwizeshift::bad_result_access<std::__ndk1::basic_string<char, std::__ndk1::char_traits<char>, std::__ndk1::allocator<char> > >::~bad_result_access()
PUBLIC 8aa6c 0 geode::utils::MiniFunctionStateBase<void, std::__ndk1::basic_string<char, std::__ndk1::char_traits<char>, std::__ndk1::allocator<char> > >::~MiniFunctionStateBase()
PUBLIC 8aa70 0 geode::utils::MiniFunctionState<MoreLeaderboards::startLoadingMods()::$_0, void, std::__ndk1::basic_string<char, std::__ndk1::char_traits<char>, std::__ndk1::allocator<char> > >::~MiniFunctionState()
PUBLIC 8aa74 0 geode::utils::MiniFunctionState<MoreLeaderboards::startLoadingMods()::$_0, void, std::__ndk1::basic_string<char, std::__ndk1::char_traits<char>, std::__ndk1::allocator<char> > >::call(std::__ndk1::basic_string<char, std::__ndk1::char_traits<char>, std::__ndk1::allocator<char> >) const
PUBLIC 8aaa8 0 geode::utils::MiniFunctionState<MoreLeaderboards::startLoadingMods()::$_0, void, std::__ndk1::basic_string<char, std::__ndk1::char_traits<char>, std::__ndk1::allocator<char> > >::clone() const
PUBLIC 8aadc 0 geode::utils::MiniFunctionStateBase<void, std::__ndk1::basic_string<char, std::__ndk1::char_traits<char>, std::__ndk1::allocator<char> > const&>::~MiniFunctionStateBase()
PUBLIC 8aae0 0 geode::utils::MiniFunctionState<MoreLeaderboards::startLoadingMods()::$_1, void, std::__ndk1::basic_string<char, std::__ndk1::char_traits<char>, std::__ndk1::allocator<char> > const&>::~MiniFunctionState()
PUBLIC 8aae4 0 geode::utils::MiniFunctionState<MoreLeaderboards::startLoadingMods()::$_1, void, std::__ndk1::basic_string<char, std::__ndk1::char_traits<char>, std::__ndk1::allocator<char> > const&>::call(std::__ndk1::basic_string<char, std::__ndk1::char_traits<char>, std::__ndk1::allocator<char> > const&) const
PUBLIC 8aaf8 0 geode::utils::MiniFunctionState<MoreLeaderboards::startLoadingMods()::$_1, void, std::__ndk1::basic_string<char, std::__ndk1::char_traits<char>, std::__ndk1::allocator<char> > const&>::clone() const
PUBLIC 8ab2c 0 geode::utils::MiniFunctionState<MoreLeaderboards::startLoadingMore()::$_0, void, std::__ndk1::basic_string<char, std::__ndk1::char_traits<char>, std::__ndk1::allocator<char> > >::~MiniFunctionState()
PUBLIC 8ab40 0 geode::utils::MiniFunctionState<MoreLeaderboards::startLoadingMore()::$_0, void, std::__ndk1::basic_string<char, std::__ndk1::char_traits<char>, std::__ndk1::allocator<char> > >::~MiniFunctionState()
PUBLIC 8ab70 0 geode::utils::MiniFunctionState<MoreLeaderboards::startLoadingMore()::$_0, void, std::__ndk1::basic_string<char, std::__ndk1::char_traits<char>, std::__ndk1::allocator<char> > >::call(std::__ndk1::basic_string<char, std::__ndk1::char_traits<char>, std::__ndk1::allocator<char> >) const
PUBLIC 8ae64 0 geode::utils::MiniFunctionState<MoreLeaderboards::startLoadingMore()::$_0, void, std::__ndk1::basic_string<char, std::__ndk1::char_traits<char>, std::__ndk1::allocator<char> > >::clone() const
PUBLIC 8af40 0 misc::getNodeName(cocos2d::CCObject*)
PUBLIC 8b024 0 geode::utils::MiniFunctionState<MoreLeaderboards::startLoadingMore()::$_0::operator()(std::__ndk1::basic_string<char, std::__ndk1::char_traits<char>, std::__ndk1::allocator<char> > const&) const::{lambda(auto:1, bool)#1}, void, FLAlertLayer*, bool>::~MiniFunctionState()
PUBLIC 8b028 0 geode::utils::MiniFunctionState<MoreLeaderboards::startLoadingMore()::$_0::operator()(std::__ndk1::basic_string<char, std::__ndk1::char_traits<char>, std::__ndk1::allocator<char> > const&) const::{lambda(auto:1, bool)#1}, void, FLAlertLayer*, bool>::call(FLAlertLayer*, bool) const
PUBLIC 8b048 0 geode::utils::MiniFunctionState<MoreLeaderboards::startLoadingMore()::$_0::operator()(std::__ndk1::basic_string<char, std::__ndk1::char_traits<char>, std::__ndk1::allocator<char> > const&) const::{lambda(auto:1, bool)#1}, void, FLAlertLayer*, bool>::clone() const
PUBLIC 8b07c 0 geode::utils::MiniFunctionState<MoreLeaderboards::startLoadingMore()::$_1, void, std::__ndk1::basic_string<char, std::__ndk1::char_traits<char>, std::__ndk1::allocator<char> > const&>::~MiniFunctionState()
PUBLIC 8b090 0 geode::utils::MiniFunctionState<MoreLeaderboards::startLoadingMore()::$_1, void, std::__ndk1::basic_string<char, std::__ndk1::char_traits<char>, std::__ndk1::allocator<char> > const&>::~MiniFunctionState()
PUBLIC 8b0c0 0 geode::utils::MiniFunctionState<MoreLeaderboards::startLoadingMore()::$_1, void, std::__ndk1::basic_string<char, std::__ndk1::char_traits<char>, std::__ndk1::allocator<char> > const&>::call(std::__ndk1::basic_string<char, std::__ndk1::char_traits<char>, std::__ndk1::allocator<char> > const&) const
PUBLIC 8b35c 0 geode::utils::MiniFunctionState<MoreLeaderboards::startLoadingMore()::$_1, void, std::__ndk1::basic_string<char, std::__ndk1::char_traits<char>, std::__ndk1::allocator<char> > const&>::clone() const
PUBLIC 8b438 0 geode::utils::MiniFunctionStateBase<void, FLAlertLayer*, bool>::~MiniFunctionStateBase()
PUBLIC 8b43c 0 geode::utils::MiniFunctionState<MoreLeaderboards::startLoadingMore()::$_1::operator()(std::__ndk1::basic_string<char, std::__ndk1::char_traits<char>, std::__ndk1::allocator<char> > const&) const::{lambda(auto:1, bool)#1}, void, FLAlertLayer*, bool>::~MiniFunctionState()
PUBLIC 8b440 0 geode::utils::MiniFunctionState<MoreLeaderboards::startLoadingMore()::$_1::operator()(std::__ndk1::basic_string<char, std::__ndk1::char_traits<char>, std::__ndk1::allocator<char> > const&) const::{lambda(auto:1, bool)#1}, void, FLAlertLayer*, bool>::call(FLAlertLayer*, bool) const
PUBLIC 8b460 0 geode::utils::MiniFunctionState<MoreLeaderboards::startLoadingMore()::$_1::operator()(std::__ndk1::basic_string<char, std::__ndk1::char_traits<char>, std::__ndk1::allocator<char> > const&) const::{lambda(auto:1, bool)#1}, void, FLAlertLayer*, bool>::clone() const
PUBLIC 8b494 0 geode::modifier::ModifyDerive<hook423<(anonymous namespace)::hook423Parent>, LeaderboardsLayer>::apply()
PUBLIC 8b85c 0 std::__ndk1::shared_ptr<geode::Hook>::~shared_ptr[abi:v170000]()
PUBLIC 8b8ac 0 geode::modifier::ModifyBase<geode::modifier::ModifyDerive<hook423<(anonymous namespace)::hook423Parent>, LeaderboardsLayer> >::apply()
PUBLIC 8b8b0 0 std::__ndk1::__tree<std::__ndk1::__value_type<std::__ndk1::basic_string<char, std::__ndk1::char_traits<char>, std::__ndk1::allocator<char> >, std::__ndk1::shared_ptr<geode::Hook> >, std::__ndk1::__map_value_compare<std::__ndk1::basic_string<char, std::__ndk1::char_traits<char>, std::__ndk1::allocator<char> >, std::__ndk1::__value_type<std::__ndk1::basic_string<char, std::__ndk1::char_traits<char>, std::__ndk1::allocator<char> >, std::__ndk1::shared_ptr<geode::Hook> >, std::__ndk1::less<std::__ndk1::basic_string<char, std::__ndk1::char_traits<char>, std::__ndk1::allocator<char> > >, true>, std::__ndk1::allocator<std::__ndk1::__value_type<std::__ndk1::basic_string<char, std::__ndk1::char_traits<char>, std::__ndk1::allocator<char> >, std::__ndk1::shared_ptr<geode::Hook> > > >::find<std::__ndk1::basic_string<char, std::__ndk1::char_traits<char>, std::__ndk1::allocator<char> > >(std::__ndk1::basic_string<char, std::__ndk1::char_traits<char>, std::__ndk1::allocator<char> > const&)
PUBLIC 8b9bc 0 std::__ndk1::__tree<std::__ndk1::__value_type<std::__ndk1::basic_string<char, std::__ndk1::char_traits<char>, std::__ndk1::allocator<char> >, std::__ndk1::shared_ptr<geode::Hook> >, std::__ndk1::__map_value_compare<std::__ndk1::basic_string<char, std::__ndk1::char_traits<char>, std::__ndk1::allocator<char> >, std::__ndk1::__value_type<std::__ndk1::basic_string<char, std::__ndk1::char_traits<char>, std::__ndk1::allocator<char> >, std::__ndk1::shared_ptr<geode::Hook> >, std::__ndk1::less<std::__ndk1::basic_string<char, std::__ndk1::char_traits<char>, std::__ndk1::allocator<char> > >, true>, std::__ndk1::allocator<std::__ndk1::__value_type<std::__ndk1::basic_string<char, std::__ndk1::char_traits<char>, std::__ndk1::allocator<char> >, std::__ndk1::shared_ptr<geode::Hook> > > >::erase(std::__ndk1::__tree_const_iterator<std::__ndk1::__value_type<std::__ndk1::basic_string<char, std::__ndk1::char_traits<char>, std::__ndk1::allocator<char> >, std::__ndk1::shared_ptr<geode::Hook> >, std::__ndk1::__tree_node<std::__ndk1::__value_type<std::__ndk1::basic_string<char, std::__ndk1::char_traits<char>, std::__ndk1::allocator<char> >, std::__ndk1::shared_ptr<geode::Hook> >, void*>*, long>)
PUBLIC 8ba90 0 std::__ndk1::__tree_remove[abi:v170000]<std::__ndk1::__tree_node_base<void*>*>(std::__ndk1::__tree_node_base<void*>*, std::__ndk1::__tree_node_base<void*>*)
PUBLIC 8be5c 0 std::__ndk1::__tree<std::__ndk1::__value_type<std::__ndk1::basic_string<char, std::__ndk1::char_traits<char>, std::__ndk1::allocator<char> >, std::__ndk1::shared_ptr<geode::Hook> >, std::__ndk1::__map_value_compare<std::__ndk1::basic_string<char, std::__ndk1::char_traits<char>, std::__ndk1::allocator<char> >, std::__ndk1::__value_type<std::__ndk1::basic_string<char, std::__ndk1::char_traits<char>, std::__ndk1::allocator<char> >, std::__ndk1::shared_ptr<geode::Hook> >, std::__ndk1::less<std::__ndk1::basic_string<char, std::__ndk1::char_traits<char>, std::__ndk1::allocator<char> > >, true>, std::__ndk1::allocator<std::__ndk1::__value_type<std::__ndk1::basic_string<char, std::__ndk1::char_traits<char>, std::__ndk1::allocator<char> >, std::__ndk1::shared_ptr<geode::Hook> > > >::destroy(std::__ndk1::__tree_node<std::__ndk1::__value_type<std::__ndk1::basic_string<char, std::__ndk1::char_traits<char>, std::__ndk1::allocator<char> >, std::__ndk1::shared_ptr<geode::Hook> >, void*>*)
PUBLIC 8bee8 0 geode::modifier::AsStaticFunction_init<hook423<(anonymous namespace)::hook423Parent>, bool (hook423<(anonymous namespace)::hook423Parent>::*)(LeaderboardState)>::Impl<bool (hook423<(anonymous namespace)::hook423Parent>::*)(LeaderboardState)>::function(hook423<(anonymous namespace)::hook423Parent>*, LeaderboardState)
PUBLIC 8c018 0 std::__ndk1::shared_ptr<tulip::hook::CallingConvention>::~shared_ptr[abi:v170000]()
PUBLIC 8c068 0 tulip::hook::HandlerMetadata::~HandlerMetadata()
PUBLIC 8c0cc 0 std::__ndk1::__tree<std::__ndk1::__value_type<std::__ndk1::basic_string<char, std::__ndk1::char_traits<char>, std::__ndk1::allocator<char> >, std::__ndk1::shared_ptr<geode::Hook> >, std::__ndk1::__map_value_compare<std::__ndk1::basic_string<char, std::__ndk1::char_traits<char>, std::__ndk1::allocator<char> >, std::__ndk1::__value_type<std::__ndk1::basic_string<char, std::__ndk1::char_traits<char>, std::__ndk1::allocator<char> >, std::__ndk1::shared_ptr<geode::Hook> >, std::__ndk1::less<std::__ndk1::basic_string<char, std::__ndk1::char_traits<char>, std::__ndk1::allocator<char> > >, true>, std::__ndk1::allocator<std::__ndk1::__value_type<std::__ndk1::basic_string<char, std::__ndk1::char_traits<char>, std::__ndk1::allocator<char> >, std::__ndk1::shared_ptr<geode::Hook> > > >::__find_equal<std::__ndk1::basic_string<char, std::__ndk1::char_traits<char>, std::__ndk1::allocator<char> > >(std::__ndk1::__tree_end_node<std::__ndk1::__tree_node_base<void*>*>*&, std::__ndk1::basic_string<char, std::__ndk1::char_traits<char>, std::__ndk1::allocator<char> > const&)
PUBLIC 8c1d0 0 std::__ndk1::__tree_balance_after_insert[abi:v170000]<std::__ndk1::__tree_node_base<void*>*>(std::__ndk1::__tree_node_base<void*>*, std::__ndk1::__tree_node_base<void*>*)
PUBLIC 8c384 0 MoreLeaderboardsCell::loadFromDict(cocos2d::CCDictionary*)
PUBLIC 8d16c 0 MoreLeaderboardsCell::callback_link(cocos2d::CCObject*)
PUBLIC 8d28c 0 MoreLeaderboardsCell::callback_user(cocos2d::CCObject*)
PUBLIC 8d61c 0 MoreLeaderboardsCell::draw()
PUBLIC m 8d620 0 MoreLeaderboardsCell::MoreLeaderboardsCell(char const*, cocos2d::CCSize)
PUBLIC 8d6a0 0 MoreLeaderboardsCell::~MoreLeaderboardsCell()
PUBLIC 8d6c4 0 {virtual override thunk({offset(-320)}, MoreLeaderboardsCell::~MoreLeaderboardsCell())}
PUBLIC 8d6cc 0 {virtual override thunk({offset(-320)}, MoreLeaderboardsCell::~MoreLeaderboardsCell())}
PUBLIC 8d6f4 0 std::__ndk1::__exception_guard<std::__ndk1::vector<std::__ndk1::basic_string<char, std::__ndk1::char_traits<char>, std::__ndk1::allocator<char> >, std::__ndk1::allocator<std::__ndk1::basic_string<char, std::__ndk1::char_traits<char>, std::__ndk1::allocator<char> > > >::__destroy_vector>::~__exception_guard[abi:v170000]()
PUBLIC 8d780 0 std::__ndk1::__uninitialized_allocator_copy[abi:v170000]<std::__ndk1::allocator<std::__ndk1::basic_string<char, std::__ndk1::char_traits<char>, std::__ndk1::__uninitialized_allocator_copy[abi:v170000]<char> > >, std::__ndk1::__uninitialized_allocator_copy[abi:v170000]<char>*, std::__ndk1::allocator<std::__ndk1::basic_string<char, std::__ndk1::char_traits<char>, std::__ndk1::__uninitialized_allocator_copy[abi:v170000]<char> > >, std::__ndk1::allocator<std::__ndk1::basic_string<char, std::__ndk1::char_traits<char>, std::__ndk1::__uninitialized_allocator_copy[abi:v170000]<char> > > >(std::__ndk1::allocator<std::__ndk1::basic_string<char, std::__ndk1::char_traits<char>, std::__ndk1::__uninitialized_allocator_copy[abi:v170000]<char> > >&, std::__ndk1::__uninitialized_allocator_copy[abi:v170000]<char>*, std::__ndk1::allocator<std::__ndk1::basic_string<char, std::__ndk1::char_traits<char>, std::__ndk1::__uninitialized_allocator_copy[abi:v170000]<char> > >, std::__ndk1::__uninitialized_allocator_copy[abi:v170000]<char>*)
PUBLIC 8d8d8 0 std::__ndk1::__exception_guard<std::__ndk1::_AllocatorDestroyRangeReverse<std::__ndk1::allocator<std::__ndk1::basic_string<char, std::__ndk1::char_traits<char>, std::__ndk1::allocator<char> > >, std::__ndk1::basic_string<char, std::__ndk1::char_traits<char>, std::__ndk1::allocator<char> >*> >::~__exception_guard[abi:v170000]()
PUBLIC 8d934 0 MoreLeaderboardsListView::create(cocos2d::CCArray*, float, float)
PUBLIC 8da50 0 MoreLeaderboardsListView::setupList(float)
PUBLIC 8db40 0 MoreLeaderboardsListView::calculateNodeCoverage(cocos2d::CCArray*)
PUBLIC 8dea4 0 MoreLeaderboardsListView::loadCell(TableViewCell*, int)
PUBLIC 8dee4 0 MoreLeaderboardsListView::getListCell(char const*)
PUBLIC 8df84 0 MoreLeaderboardsListView::~MoreLeaderboardsListView()
PUBLIC 8dfa8 0 {virtual override thunk({offset(-320)}, MoreLeaderboardsListView::~MoreLeaderboardsListView())}
PUBLIC 8dfb0 0 {virtual override thunk({offset(-320)}, MoreLeaderboardsListView::~MoreLeaderboardsListView())}
PUBLIC 8dfd8 0 std::__ndk1::shared_ptr<sio::message>::~shared_ptr[abi:v170000]()
PUBLIC 8e028 0 sio::object_message::~object_message()
PUBLIC 8e044 0 sio::object_message::~object_message()
PUBLIC 8e07c 0 sio::message::get_bool() const
PUBLIC 8e084 0 sio::message::get_int() const
PUBLIC 8e08c 0 sio::message::get_double() const
PUBLIC 8e094 0 sio::message::get_string() const
PUBLIC 8e12c 0 sio::message::get_binary() const
PUBLIC 8e1e8 0 sio::message::get_vector() const
PUBLIC 8e2a8 0 sio::message::get_vector()
PUBLIC 8e368 0 sio::object_message::get_map() const
PUBLIC 8e370 0 sio::object_message::get_map()
PUBLIC 8e378 0 sio::message::~message()
PUBLIC 8e37c 0 sio::message::get_map() const
PUBLIC 8e414 0 sio::message::get_map()
PUBLIC 8e4ac 0 std::__ndk1::map<std::__ndk1::basic_string<char, std::__ndk1::char_traits<char>, std::__ndk1::allocator<char> >, std::__ndk1::shared_ptr<sio::message>, std::__ndk1::less<std::__ndk1::basic_string<char, std::__ndk1::char_traits<char>, std::__ndk1::allocator<char> > >, std::__ndk1::allocator<std::__ndk1::pair<std::__ndk1::basic_string<char, std::__ndk1::char_traits<char>, std::__ndk1::allocator<char> > const, std::__ndk1::shared_ptr<sio::message> > > >::~map[abi:v170000]()
PUBLIC 8e4b4 0 std::__ndk1::__tree<std::__ndk1::__value_type<std::__ndk1::basic_string<char, std::__ndk1::char_traits<char>, std::__ndk1::allocator<char> >, std::__ndk1::shared_ptr<sio::message> >, std::__ndk1::__map_value_compare<std::__ndk1::basic_string<char, std::__ndk1::char_traits<char>, std::__ndk1::allocator<char> >, std::__ndk1::__value_type<std::__ndk1::basic_string<char, std::__ndk1::char_traits<char>, std::__ndk1::allocator<char> >, std::__ndk1::shared_ptr<sio::message> >, std::__ndk1::less<std::__ndk1::basic_string<char, std::__ndk1::char_traits<char>, std::__ndk1::allocator<char> > >, true>, std::__ndk1::allocator<std::__ndk1::__value_type<std::__ndk1::basic_string<char, std::__ndk1::char_traits<char>, std::__ndk1::allocator<char> >, std::__ndk1::shared_ptr<sio::message> > > >::destroy(std::__ndk1::__tree_node<std::__ndk1::__value_type<std::__ndk1::basic_string<char, std::__ndk1::char_traits<char>, std::__ndk1::allocator<char> >, std::__ndk1::shared_ptr<sio::message> >, void*>*)
PUBLIC 8e540 0 std::__ndk1::shared_ptr<std::__ndk1::basic_string<char, std::__ndk1::char_traits<char>, std::__ndk1::allocator<char> > const>::~shared_ptr[abi:v170000]()
PUBLIC 8e590 0 std::__ndk1::vector<std::__ndk1::shared_ptr<sio::message>, std::__ndk1::allocator<std::__ndk1::shared_ptr<sio::message> > >::~vector[abi:v170000]()
PUBLIC 8e638 0 std::__ndk1::__shared_ptr_pointer<sio::object_message*, std::__ndk1::shared_ptr<sio::message>::__shared_ptr_default_delete<sio::message, sio::object_message>, std::__ndk1::allocator<sio::object_message> >::~__shared_ptr_pointer()
PUBLIC 8e65c 0 std::__ndk1::__shared_ptr_pointer<sio::object_message*, std::__ndk1::shared_ptr<sio::message>::__shared_ptr_default_delete<sio::message, sio::object_message>, std::__ndk1::allocator<sio::object_message> >::__on_zero_shared()
PUBLIC 8e674 0 std::__ndk1::__shared_ptr_pointer<sio::object_message*, std::__ndk1::shared_ptr<sio::message>::__shared_ptr_default_delete<sio::message, sio::object_message>, std::__ndk1::allocator<sio::object_message> >::__get_deleter(std::type_info const&) const
PUBLIC 8e690 0 std::__ndk1::__shared_ptr_pointer<sio::object_message*, std::__ndk1::shared_ptr<sio::message>::__shared_ptr_default_delete<sio::message, sio::object_message>, std::__ndk1::allocator<sio::object_message> >::__on_zero_shared_weak()
PUBLIC 8e694 0 sio::string_message::~string_message()
PUBLIC 8e6b4 0 sio::string_message::~string_message()
PUBLIC 8e6f0 0 sio::string_message::get_string() const
PUBLIC 8e6f8 0 std::__ndk1::__shared_ptr_pointer<sio::string_message*, std::__ndk1::shared_ptr<sio::message>::__shared_ptr_default_delete<sio::message, sio::string_message>, std::__ndk1::allocator<sio::string_message> >::~__shared_ptr_pointer()
PUBLIC 8e71c 0 std::__ndk1::__shared_ptr_pointer<sio::string_message*, std::__ndk1::shared_ptr<sio::message>::__shared_ptr_default_delete<sio::message, sio::string_message>, std::__ndk1::allocator<sio::string_message> >::__on_zero_shared()
PUBLIC 8e734 0 std::__ndk1::__shared_ptr_pointer<sio::string_message*, std::__ndk1::shared_ptr<sio::message>::__shared_ptr_default_delete<sio::message, sio::string_message>, std::__ndk1::allocator<sio::string_message> >::__get_deleter(std::type_info const&) const
PUBLIC 8e750 0 std::__ndk1::__shared_ptr_pointer<sio::string_message*, std::__ndk1::shared_ptr<sio::message>::__shared_ptr_default_delete<sio::message, sio::string_message>, std::__ndk1::allocator<sio::string_message> >::__on_zero_shared_weak()
PUBLIC 8e754 0 sio::int_message::~int_message()
PUBLIC 8e758 0 sio::int_message::get_int() const
PUBLIC 8e760 0 sio::int_message::get_double() const
PUBLIC 8e76c 0 std::__ndk1::__shared_ptr_pointer<sio::int_message*, std::__ndk1::shared_ptr<sio::message>::__shared_ptr_default_delete<sio::message, sio::int_message>, std::__ndk1::allocator<sio::int_message> >::~__shared_ptr_pointer()
PUBLIC 8e790 0 std::__ndk1::__shared_ptr_pointer<sio::int_message*, std::__ndk1::shared_ptr<sio::message>::__shared_ptr_default_delete<sio::message, sio::int_message>, std::__ndk1::allocator<sio::int_message> >::__on_zero_shared()
PUBLIC 8e7a8 0 std::__ndk1::__shared_ptr_pointer<sio::int_message*, std::__ndk1::shared_ptr<sio::message>::__shared_ptr_default_delete<sio::message, sio::int_message>, std::__ndk1::allocator<sio::int_message> >::__get_deleter(std::type_info const&) const
PUBLIC 8e7c4 0 std::__ndk1::__shared_ptr_pointer<sio::int_message*, std::__ndk1::shared_ptr<sio::message>::__shared_ptr_default_delete<sio::message, sio::int_message>, std::__ndk1::allocator<sio::int_message> >::__on_zero_shared_weak()
PUBLIC 8e7c8 0 geode::cast::traverseTypeinfoFor(void*, geode::cast::ClassTypeinfoType const*, char const*)
PUBLIC 8e8c8 0 std::__ndk1::__tree<std::__ndk1::__value_type<std::__ndk1::basic_string<char, std::__ndk1::char_traits<char>, std::__ndk1::allocator<char> >, std::__ndk1::shared_ptr<sio::message> >, std::__ndk1::__map_value_compare<std::__ndk1::basic_string<char, std::__ndk1::char_traits<char>, std::__ndk1::allocator<char> >, std::__ndk1::__value_type<std::__ndk1::basic_string<char, std::__ndk1::char_traits<char>, std::__ndk1::allocator<char> >, std::__ndk1::shared_ptr<sio::message> >, std::__ndk1::less<std::__ndk1::basic_string<char, std::__ndk1::char_traits<char>, std::__ndk1::allocator<char> > >, true>, std::__ndk1::allocator<std::__ndk1::__value_type<std::__ndk1::basic_string<char, std::__ndk1::char_traits<char>, std::__ndk1::allocator<char> >, std::__ndk1::shared_ptr<sio::message> > > >::__find_equal<std::__ndk1::basic_string<char, std::__ndk1::char_traits<char>, std::__ndk1::allocator<char> > >(std::__ndk1::__tree_end_node<std::__ndk1::__tree_node_base<void*>*>*&, std::__ndk1::basic_string<char, std::__ndk1::char_traits<char>, std::__ndk1::allocator<char> > const&)
PUBLIC 8e9cc 0 std::__ndk1::basic_string<char, std::__ndk1::char_traits<char>, std::__ndk1::allocator<char> >::basic_string[abi:v170000]<std::nullptr_t>()
PUBLIC 8ea54 0 std::__ndk1::queue<std::__ndk1::shared_ptr<sio::message>, std::__ndk1::deque<std::__ndk1::shared_ptr<sio::message>, std::__ndk1::allocator<std::__ndk1::shared_ptr<sio::message> > > >::~queue()
PUBLIC 8ea58 0 EventsPush::create(std::__ndk1::shared_ptr<sio::message> const&)
PUBLIC 8eb68 0 EventsPush::destroySelf()
PUBLIC 8ebc0 0 getDifficulty(int)
PUBLIC 8ec10 0 EventsPush::onClickBtn(cocos2d::CCObject*)
PUBLIC 8f084 0 std::__ndk1::operator+[abi:v170000]<char, std::__ndk1::char_traits<char>, std::__ndk1::allocator<char> >(std::__ndk1::basic_string const*, std::__ndk1::allocator<char>&&)
PUBLIC 8f0e0 0 EventsPush::init(std::__ndk1::shared_ptr<sio::message> const&)
PUBLIC 9190c 0 geode::Mod::get<void>()
PUBLIC 91948 0 std::__ndk1::operator+[abi:v170000]<char, std::__ndk1::char_traits<char>, std::__ndk1::allocator<char> >(std::__ndk1::allocator<char>&&, std::__ndk1::basic_string const*)
PUBLIC 919a4 0 cocos2d::CCSequence::create(cocos2d::CCFiniteTimeAction*, ...)
PUBLIC 91a3c 0 EventsPush::stopNow(cocos2d::CCScene*)
PUBLIC 91a48 0 EventsPush::pushRateLevel(cocos2d::CCScene*, std::__ndk1::shared_ptr<sio::message> const&)
PUBLIC 91b64 0 EventsPush::processNextEvent(cocos2d::CCScene*)
PUBLIC 91d08 0 EventsPush::~EventsPush()
PUBLIC 91d2c 0 {virtual override thunk({offset(-320)}, EventsPush::~EventsPush())}
PUBLIC 91d34 0 {virtual override thunk({offset(-320)}, EventsPush::~EventsPush())}
PUBLIC 91d5c 0 std::__ndk1::deque<std::__ndk1::shared_ptr<sio::message>, std::__ndk1::allocator<std::__ndk1::shared_ptr<sio::message> > >::~deque[abi:v170000]()
PUBLIC 91f10 0 std::__ndk1::__tree<std::__ndk1::__value_type<std::__ndk1::basic_string<char, std::__ndk1::char_traits<char>, std::__ndk1::allocator<char> >, std::__ndk1::shared_ptr<sio::message> >, std::__ndk1::__map_value_compare<std::__ndk1::basic_string<char, std::__ndk1::char_traits<char>, std::__ndk1::allocator<char> >, std::__ndk1::__value_type<std::__ndk1::basic_string<char, std::__ndk1::char_traits<char>, std::__ndk1::allocator<char> >, std::__ndk1::shared_ptr<sio::message> >, std::__ndk1::less<std::__ndk1::basic_string<char, std::__ndk1::char_traits<char>, std::__ndk1::allocator<char> > >, true>, std::__ndk1::allocator<std::__ndk1::__value_type<std::__ndk1::basic_string<char, std::__ndk1::char_traits<char>, std::__ndk1::allocator<char> >, std::__ndk1::shared_ptr<sio::message> > > >::find<std::__ndk1::basic_string<char, std::__ndk1::char_traits<char>, std::__ndk1::allocator<char> > >(std::__ndk1::basic_string<char, std::__ndk1::char_traits<char>, std::__ndk1::allocator<char> > const&)
PUBLIC 9201c 0 geode::utils::MiniFunctionState<EventsPush::onClickBtn(cocos2d::CCObject*)::$_0, void, std::__ndk1::basic_string<char, std::__ndk1::char_traits<char>, std::__ndk1::allocator<char> > >::~MiniFunctionState()
PUBLIC 92020 0 geode::utils::MiniFunctionState<EventsPush::onClickBtn(cocos2d::CCObject*)::$_0, void, std::__ndk1::basic_string<char, std::__ndk1::char_traits<char>, std::__ndk1::allocator<char> > >::call(std::__ndk1::basic_string<char, std::__ndk1::char_traits<char>, std::__ndk1::allocator<char> >) const
PUBLIC 9212c 0 geode::utils::MiniFunctionState<EventsPush::onClickBtn(cocos2d::CCObject*)::$_0, void, std::__ndk1::basic_string<char, std::__ndk1::char_traits<char>, std::__ndk1::allocator<char> > >::clone() const
PUBLIC 92150 0 geode::utils::MiniFunctionState<EventsPush::onClickBtn(cocos2d::CCObject*)::$_1, void, std::__ndk1::basic_string<char, std::__ndk1::char_traits<char>, std::__ndk1::allocator<char> > const&>::~MiniFunctionState()
PUBLIC 92154 0 geode::utils::MiniFunctionState<EventsPush::onClickBtn(cocos2d::CCObject*)::$_1, void, std::__ndk1::basic_string<char, std::__ndk1::char_traits<char>, std::__ndk1::allocator<char> > const&>::call(std::__ndk1::basic_string<char, std::__ndk1::char_traits<char>, std::__ndk1::allocator<char> > const&) const
PUBLIC 921d8 0 geode::utils::MiniFunctionState<EventsPush::onClickBtn(cocos2d::CCObject*)::$_1, void, std::__ndk1::basic_string<char, std::__ndk1::char_traits<char>, std::__ndk1::allocator<char> > const&>::clone() const
PUBLIC 921fc 0 std::__ndk1::map<std::__ndk1::basic_string<char, std::__ndk1::char_traits<char>, std::__ndk1::allocator<char> >, std::__ndk1::shared_ptr<sio::message>, std::__ndk1::less<std::__ndk1::basic_string<char, std::__ndk1::char_traits<char>, std::__ndk1::allocator<char> > >, std::__ndk1::allocator<std::__ndk1::pair<std::__ndk1::basic_string<char, std::__ndk1::char_traits<char>, std::__ndk1::allocator<char> > const, std::__ndk1::shared_ptr<sio::message> > > >::insert[abi:v170000]<std::__ndk1::__map_const_iterator<std::__ndk1::__tree_const_iterator<std::__ndk1::__value_type<std::__ndk1::basic_string<char, std::__ndk1::char_traits<char>, std::__ndk1::allocator<char> >, std::__ndk1::shared_ptr<sio::message> >, std::__ndk1::__tree_node<std::__ndk1::__value_type, void*>*, long> > >(std::__ndk1::__map_const_iterator<std::__ndk1::__tree_const_iterator<std::__ndk1::__value_type<std::__ndk1::basic_string<char, std::__ndk1::char_traits<char>, std::__ndk1::allocator<char> >, std::__ndk1::shared_ptr<sio::message> >, std::__ndk1::__tree_node<std::__ndk1::__value_type, void*>*, long> >, std::__ndk1::__map_const_iterator<std::__ndk1::__tree_const_iterator<std::__ndk1::__value_type<std::__ndk1::basic_string<char, std::__ndk1::char_traits<char>, std::__ndk1::allocator<char> >, std::__ndk1::shared_ptr<sio::message> >, std::__ndk1::__tree_node<std::__ndk1::__value_type, void*>*, long> >)
PUBLIC 92328 0 std::__ndk1::__tree<std::__ndk1::__value_type<std::__ndk1::basic_string<char, std::__ndk1::char_traits<char>, std::__ndk1::allocator<char> >, std::__ndk1::shared_ptr<sio::message> >, std::__ndk1::__map_value_compare<std::__ndk1::basic_string<char, std::__ndk1::char_traits<char>, std::__ndk1::allocator<char> >, std::__ndk1::__value_type<std::__ndk1::basic_string<char, std::__ndk1::char_traits<char>, std::__ndk1::allocator<char> >, std::__ndk1::shared_ptr<sio::message> >, std::__ndk1::less<std::__ndk1::basic_string<char, std::__ndk1::char_traits<char>, std::__ndk1::allocator<char> > >, true>, std::__ndk1::allocator<std::__ndk1::__value_type<std::__ndk1::basic_string<char, std::__ndk1::char_traits<char>, std::__ndk1::allocator<char> >, std::__ndk1::shared_ptr<sio::message> > > >::__find_equal<std::__ndk1::basic_string<char, std::__ndk1::char_traits<char>, std::__ndk1::allocator<char> > >(std::__ndk1::__tree_const_iterator<std::__ndk1::__value_type<std::__ndk1::basic_string<char, std::__ndk1::char_traits<char>, std::__ndk1::allocator<char> >, std::__ndk1::shared_ptr<sio::message> >, std::__ndk1::__tree_node<std::__ndk1::__value_type<std::__ndk1::basic_string<char, std::__ndk1::char_traits<char>, std::__ndk1::allocator<char> >, std::__ndk1::shared_ptr<sio::message> >, void*>*, long>, std::__ndk1::__tree_end_node<std::__ndk1::__tree_node_base<void*>*>*&, std::__ndk1::__tree_node_base<void*>*&, std::__ndk1::basic_string<char, std::__ndk1::char_traits<char>, std::__ndk1::allocator<char> > const&)
PUBLIC 925cc 0 std::__ndk1::__tree<std::__ndk1::__value_type<std::__ndk1::basic_string<char, std::__ndk1::char_traits<char>, std::__ndk1::allocator<char> >, std::__ndk1::shared_ptr<sio::message> >, std::__ndk1::__map_value_compare<std::__ndk1::basic_string<char, std::__ndk1::char_traits<char>, std::__ndk1::allocator<char> >, std::__ndk1::__value_type<std::__ndk1::basic_string<char, std::__ndk1::char_traits<char>, std::__ndk1::allocator<char> >, std::__ndk1::shared_ptr<sio::message> >, std::__ndk1::less<std::__ndk1::basic_string<char, std::__ndk1::char_traits<char>, std::__ndk1::allocator<char> > >, true>, std::__ndk1::allocator<std::__ndk1::__value_type<std::__ndk1::basic_string<char, std::__ndk1::char_traits<char>, std::__ndk1::allocator<char> >, std::__ndk1::shared_ptr<sio::message> > > >::__construct_node<std::__ndk1::pair<std::__ndk1::basic_string<char, std::__ndk1::char_traits<char>, std::__ndk1::allocator<char> > const, std::__ndk1::shared_ptr<sio::message> > const&>(std::__ndk1::pair<std::__ndk1::basic_string<char, std::__ndk1::char_traits<char>, std::__ndk1::allocator<char> > const, std::__ndk1::shared_ptr<sio::message> > const&)
PUBLIC 926c4 0 std::__ndk1::unique_ptr<std::__ndk1::__tree_node<std::__ndk1::__value_type<std::__ndk1::basic_string<char, std::__ndk1::char_traits<char>, std::__ndk1::allocator<char> >, std::__ndk1::shared_ptr<sio::message> >, void*>, std::__ndk1::__tree_node_destructor<std::__ndk1::allocator<std::__ndk1::__tree_node<std::__ndk1::__value_type<std::__ndk1::basic_string<char, std::__ndk1::char_traits<char>, std::__ndk1::allocator<char> >, std::__ndk1::shared_ptr<sio::message> >, void*> > > >::~unique_ptr[abi:v170000]()
PUBLIC 9274c 0 std::__ndk1::deque<std::__ndk1::shared_ptr<sio::message>, std::__ndk1::allocator<std::__ndk1::shared_ptr<sio::message> > >::__add_back_capacity()
PUBLIC 92d4c 0 std::__ndk1::__split_buffer<std::__ndk1::shared_ptr<sio::message>*, std::__ndk1::allocator<std::__ndk1::shared_ptr<sio::message>*> >::push_back(std::__ndk1::shared_ptr<sio::message>*&&)
PUBLIC 92ed0 0 std::__ndk1::__split_buffer<std::__ndk1::shared_ptr<sio::message>*, std::__ndk1::allocator<std::__ndk1::shared_ptr<sio::message>*> >::push_front(std::__ndk1::shared_ptr<sio::message>*&&)
PUBLIC 93060 0 _GLOBAL__sub_I_EventsPush.cpp
PUBLIC 930e0 0 ProcessLambdas::callMenuHandler(cocos2d::CCLayer*, void (cocos2d::CCObject::*)(cocos2d::CCObject*))
PUBLIC 93104 0 ProcessLambdas::processMenuHandler()
PUBLIC 93154 0 ProcessLambdas::shouldProcessMenuHandler()
PUBLIC 93160 0 BadApple::init()
PUBLIC 93198 0 BadApple::keyBackClicked()
PUBLIC 931c4 0 {virtual override thunk({offset(-336)}, BadApple::keyBackClicked())}
PUBLIC 931f4 0 BadApple::~BadApple()
PUBLIC 93218 0 {virtual override thunk({offset(-320)}, BadApple::~BadApple())}
PUBLIC 93220 0 {virtual override thunk({offset(-320)}, BadApple::~BadApple())}
PUBLIC 93248 0 __cxx_global_var_init.1
PUBLIC 932b0 0 geode::modifier::ModifyBase<geode::modifier::ModifyDerive<SecretVault, SecretLayer2> >::~ModifyBase()
PUBLIC 932cc 0 geode::modifier::ModifyBase<geode::modifier::ModifyDerive<SecretVault, SecretLayer2> >::ModifyBase()
PUBLIC 93768 0 geode::modifier::ModifyDerive<SecretVault, SecretLayer2>::apply()
PUBLIC 93e90 0 geode::modifier::ModifyBase<geode::modifier::ModifyDerive<SecretVault, SecretLayer2> >::apply()
PUBLIC 93e94 0 geode::Hook::create<void (*)(SecretVault*, cocos2d::CCObject*)>(void*, void (*)(SecretVault*, cocos2d::CCObject*), std::__ndk1::basic_string<char, std::__ndk1::char_traits<char>, std::__ndk1::allocator<char> > const&, tulip::hook::TulipConvention, tulip::hook::HookMetadata const&)
PUBLIC 94014 0 geode::modifier::AsStaticFunction_onSubmit<SecretVault, void (SecretVault::*)(cocos2d::CCObject*)>::Impl<void (SecretVault::*)(cocos2d::CCObject*)>::function(SecretVault*, cocos2d::CCObject*)
PUBLIC 94018 0 geode::Hook::create<void (*)(SecretVault*, char const*)>(void*, void (*)(SecretVault*, char const*), std::__ndk1::basic_string<char, std::__ndk1::char_traits<char>, std::__ndk1::allocator<char> > const&, tulip::hook::TulipConvention, tulip::hook::HookMetadata const&)
PUBLIC 94198 0 geode::modifier::AsStaticFunction_updateSearchLabel<SecretVault, void (SecretVault::*)(char const*)>::Impl<void (SecretVault::*)(char const*)>::function(SecretVault*, char const*)
PUBLIC 941e4 0 geode::Hook::create<bool (*)(SecretVault*)>(void*, bool (*)(SecretVault*), std::__ndk1::basic_string<char, std::__ndk1::char_traits<char>, std::__ndk1::allocator<char> > const&, tulip::hook::TulipConvention, tulip::hook::HookMetadata const&)
PUBLIC 94318 0 geode::modifier::AsStaticFunction_init<SecretVault, bool (SecretVault::*)()>::Impl<bool (SecretVault::*)()>::function(SecretVault*)
PUBLIC 9433c 0 SecretVault::onSubmit(cocos2d::CCObject*)
PUBLIC 94600 0 SecretVault::onLaunchBadApple(cocos2d::CCObject*)
PUBLIC 94748 0 SecretVault::launchBadApple(cocos2d::CCObject*)
PUBLIC 94830 0 geode::addresser::Addresser::addressOfVirtual<bool, SecretLayer2, >(bool (SecretLayer2::*)())
PUBLIC 94994 0 _GLOBAL__sub_I_BadApple.cpp
PUBLIC 949b4 0 CreditsBetaMenu::create()
PUBLIC 94abc 0 CreditsBetaMenu::setup()
PUBLIC 94dd4 0 CreditsBetaMenu::nextPage(cocos2d::CCObject*)
PUBLIC 94e7c 0 CreditsBetaMenu::prevPage(cocos2d::CCObject*)
PUBLIC 94f1c 0 CreditsBetaMenu::goToURL(cocos2d::CCObject*)
PUBLIC 9500c 0 CreditsBetaMenu::getPage(int)
PUBLIC 97a54 0 CreditsBetaMenu::~CreditsBetaMenu()
PUBLIC 97a78 0 {virtual override thunk({offset(-320)}, CreditsBetaMenu::~CreditsBetaMenu())}
PUBLIC 97a80 0 {virtual override thunk({offset(-320)}, CreditsBetaMenu::~CreditsBetaMenu())}
PUBLIC 97aa8 0 CreditsMenu::onFireeBtn(cocos2d::CCObject*)
PUBLIC 97b58 0 CreditsMenu::onJoucaBtn(cocos2d::CCObject*)
PUBLIC 97c10 0 CreditsMenu::onMaverickBtn(cocos2d::CCObject*)
PUBLIC 97cd0 0 CreditsMenu::setup()
PUBLIC 981c4 0 CreditsMenu::create()
PUBLIC 982c0 0 CreditsMenu::~CreditsMenu()
PUBLIC 982e4 0 {virtual override thunk({offset(-320)}, CreditsMenu::~CreditsMenu())}
PUBLIC 982ec 0 {virtual override thunk({offset(-320)}, CreditsMenu::~CreditsMenu())}
PUBLIC 98314 0 SettingSectionValue::createNode(float)
PUBLIC 983b8 0 SettingTestValue::createNode(float)
PUBLIC 9845c 0 SettingAppValue::createNode(float)
PUBLIC 98460 0 SettingAppNode::create(SettingAppValue*, float)
PUBLIC 985b4 0 SettingPosValue::createNode(float)
PUBLIC 98658 0 SettingCreditsValue::createNode(float)
PUBLIC 986fc 0 SettingAppNode::onPickFile(cocos2d::CCObject*)
PUBLIC 987a8 0 SettingTestNode::onTestBtn(cocos2d::CCObject*)
PUBLIC 9eae8 0 SettingTestValue::~SettingTestValue()
PUBLIC 9eb70 0 SettingTestValue::~SettingTestValue()
PUBLIC 9ec04 0 SettingTestValue::load(matjson::Value const&)
PUBLIC 9ec0c 0 SettingTestValue::save(matjson::Value&) const
PUBLIC 9ec14 0 SettingSectionValue::~SettingSectionValue()
PUBLIC 9ec9c 0 SettingSectionValue::~SettingSectionValue()
PUBLIC 9ed30 0 SettingSectionValue::load(matjson::Value const&)
PUBLIC 9ed38 0 SettingSectionValue::save(matjson::Value&) const
PUBLIC 9ed40 0 geode::SettingValue::~SettingValue()
PUBLIC 9ed90 0 SettingPosValue::~SettingPosValue()
PUBLIC 9edf4 0 SettingPosValue::load(matjson::Value const&)
PUBLIC 9ee3c 0 SettingPosValue::save(matjson::Value&) const
PUBLIC 9eecc 0 SettingAppValue::~SettingAppValue()
PUBLIC 9ef54 0 SettingAppValue::~SettingAppValue()
PUBLIC 9efe8 0 SettingAppValue::load(matjson::Value const&)
PUBLIC 9f084 0 SettingAppValue::save(matjson::Value&) const
PUBLIC 9f1cc 0 SettingCreditsValue::~SettingCreditsValue()
PUBLIC 9f254 0 SettingCreditsValue::~SettingCreditsValue()
PUBLIC 9f2e8 0 SettingCreditsValue::load(matjson::Value const&)
PUBLIC 9f2f0 0 SettingCreditsValue::save(matjson::Value&) const
PUBLIC 9f2f8 0 SettingSectionNode::init(SettingSectionValue*, float)
PUBLIC 9f840 0 SettingSectionNode::~SettingSectionNode()
PUBLIC 9f864 0 SettingSectionNode::commit()
PUBLIC 9f868 0 SettingSectionNode::hasUncommittedChanges()
PUBLIC 9f870 0 SettingSectionNode::hasNonDefaultValue()
PUBLIC 9f878 0 SettingSectionNode::resetToDefault()
PUBLIC 9f87c 0 std::__ndk1::__optional_destruct_base<geode::CustomSetting, false>::~__optional_destruct_base[abi:v170000]()
PUBLIC 9f8d4 0 std::__ndk1::__optional_destruct_base<geode::Setting, false>::~__optional_destruct_base[abi:v170000]()
PUBLIC 9f970 0 SettingSectionNode::onInfoBtn(cocos2d::CCObject*)
PUBLIC 9ffa0 0 std::__ndk1::__variant_detail::__visitation::__base::__dispatcher<(unsigned long)0>::__dispatch[abi:v170000]<std::__ndk1::__variant_detail::__dtor<std::__ndk1::__variant_detail::__traits<geode::BoolSetting, std::__ndk1::__variant_detail::__traits::IntSetting, std::__ndk1::__variant_detail::__traits::FloatSetting, std::__ndk1::__variant_detail::__traits::StringSetting, std::__ndk1::__variant_detail::__traits::FileSetting, std::__ndk1::__variant_detail::__traits::ColorSetting, std::__ndk1::__variant_detail::__traits::ColorAlphaSetting, std::__ndk1::__variant_detail::__traits::CustomSetting>, (std::__ndk1::__variant_detail::_Trait)1>::__destroy[abi:v170000]()::{lambda(auto:1&)#1}, std::__ndk1::__variant_detail::__base<(std::__ndk1::__variant_detail::__traits<geode::BoolSetting, std::__ndk1::__variant_detail::__traits::IntSetting, std::__ndk1::__variant_detail::__traits::FloatSetting, std::__ndk1::__variant_detail::__traits::StringSetting, std::__ndk1::__variant_detail::__traits::FileSetting, std::__ndk1::__variant_detail::__traits::ColorSetting, std::__ndk1::__variant_detail::__traits::ColorAlphaSetting, std::__ndk1::__variant_detail::__traits::CustomSetting>)1, geode, geode::BoolSetting, std::__ndk1::__variant_detail::__traits::IntSetting, std::__ndk1::__variant_detail::__traits::FloatSetting, std::__ndk1::__variant_detail::__traits::StringSetting, std::__ndk1::__variant_detail::__traits::FileSetting, std::__ndk1::__variant_detail::__traits::ColorSetting, std::__ndk1::__variant_detail::__traits::ColorAlphaSetting>&>(std::__ndk1::__variant_detail::__dtor<std::__ndk1::__variant_detail::__traits<geode::BoolSetting, std::__ndk1::__variant_detail::__traits::IntSetting, std::__ndk1::__variant_detail::__traits::FloatSetting, std::__ndk1::__variant_detail::__traits::StringSetting, std::__ndk1::__variant_detail::__traits::FileSetting, std::__ndk1::__variant_detail::__traits::ColorSetting, std::__ndk1::__variant_detail::__traits::ColorAlphaSetting, std::__ndk1::__variant_detail::__traits::CustomSetting>, (std::__ndk1::__variant_detail::_Trait)1>, std::__ndk1::__variant_detail::__base<(std::__ndk1::__variant_detail::__traits<geode::BoolSetting, std::__ndk1::__variant_detail::__traits::IntSetting, std::__ndk1::__variant_detail::__traits::FloatSetting, std::__ndk1::__variant_detail::__traits::StringSetting, std::__ndk1::__variant_detail::__traits::FileSetting, std::__ndk1::__variant_detail::__traits::ColorSetting, std::__ndk1::__variant_detail::__traits::ColorAlphaSetting, std::__ndk1::__variant_detail::__traits::CustomSetting>)1, geode, geode::BoolSetting, std::__ndk1::__variant_detail::__traits::IntSetting, std::__ndk1::__variant_detail::__traits::FloatSetting, std::__ndk1::__variant_detail::__traits::StringSetting, std::__ndk1::__variant_detail::__traits::FileSetting, std::__ndk1::__variant_detail::__traits::ColorSetting, std::__ndk1::__variant_detail::__traits::ColorAlphaSetting>&)
PUBLIC 9fff4 0 std::__ndk1::__variant_detail::__visitation::__base::__dispatcher<(unsigned long)1>::__dispatch[abi:v170000]<std::__ndk1::__variant_detail::__dtor<std::__ndk1::__variant_detail::__traits<geode::BoolSetting, std::__ndk1::__variant_detail::__traits::IntSetting, std::__ndk1::__variant_detail::__traits::FloatSetting, std::__ndk1::__variant_detail::__traits::StringSetting, std::__ndk1::__variant_detail::__traits::FileSetting, std::__ndk1::__variant_detail::__traits::ColorSetting, std::__ndk1::__variant_detail::__traits::ColorAlphaSetting, std::__ndk1::__variant_detail::__traits::CustomSetting>, (std::__ndk1::__variant_detail::_Trait)1>::__destroy[abi:v170000]()::{lambda(auto:1&)#1}, std::__ndk1::__variant_detail::__base<(std::__ndk1::__variant_detail::__traits<geode::BoolSetting, std::__ndk1::__variant_detail::__traits::IntSetting, std::__ndk1::__variant_detail::__traits::FloatSetting, std::__ndk1::__variant_detail::__traits::StringSetting, std::__ndk1::__variant_detail::__traits::FileSetting, std::__ndk1::__variant_detail::__traits::ColorSetting, std::__ndk1::__variant_detail::__traits::ColorAlphaSetting, std::__ndk1::__variant_detail::__traits::CustomSetting>)1, geode, geode::BoolSetting, std::__ndk1::__variant_detail::__traits::IntSetting, std::__ndk1::__variant_detail::__traits::FloatSetting, std::__ndk1::__variant_detail::__traits::StringSetting, std::__ndk1::__variant_detail::__traits::FileSetting, std::__ndk1::__variant_detail::__traits::ColorSetting, std::__ndk1::__variant_detail::__traits::ColorAlphaSetting>&>(std::__ndk1::__variant_detail::__dtor<std::__ndk1::__variant_detail::__traits<geode::BoolSetting, std::__ndk1::__variant_detail::__traits::IntSetting, std::__ndk1::__variant_detail::__traits::FloatSetting, std::__ndk1::__variant_detail::__traits::StringSetting, std::__ndk1::__variant_detail::__traits::FileSetting, std::__ndk1::__variant_detail::__traits::ColorSetting, std::__ndk1::__variant_detail::__traits::ColorAlphaSetting, std::__ndk1::__variant_detail::__traits::CustomSetting>, (std::__ndk1::__variant_detail::_Trait)1>, std::__ndk1::__variant_detail::__base<(std::__ndk1::__variant_detail::__traits<geode::BoolSetting, std::__ndk1::__variant_detail::__traits::IntSetting, std::__ndk1::__variant_detail::__traits::FloatSetting, std::__ndk1::__variant_detail::__traits::StringSetting, std::__ndk1::__variant_detail::__traits::FileSetting, std::__ndk1::__variant_detail::__traits::ColorSetting, std::__ndk1::__variant_detail::__traits::ColorAlphaSetting, std::__ndk1::__variant_detail::__traits::CustomSetting>)1, geode, geode::BoolSetting, std::__ndk1::__variant_detail::__traits::IntSetting, std::__ndk1::__variant_detail::__traits::FloatSetting, std::__ndk1::__variant_detail::__traits::StringSetting, std::__ndk1::__variant_detail::__traits::FileSetting, std::__ndk1::__variant_detail::__traits::ColorSetting, std::__ndk1::__variant_detail::__traits::ColorAlphaSetting>&)
PUBLIC a0048 0 std::__ndk1::__variant_detail::__visitation::__base::__dispatcher<(unsigned long)2>::__dispatch[abi:v170000]<std::__ndk1::__variant_detail::__dtor<std::__ndk1::__variant_detail::__traits<geode::BoolSetting, std::__ndk1::__variant_detail::__traits::IntSetting, std::__ndk1::__variant_detail::__traits::FloatSetting, std::__ndk1::__variant_detail::__traits::StringSetting, std::__ndk1::__variant_detail::__traits::FileSetting, std::__ndk1::__variant_detail::__traits::ColorSetting, std::__ndk1::__variant_detail::__traits::ColorAlphaSetting, std::__ndk1::__variant_detail::__traits::CustomSetting>, (std::__ndk1::__variant_detail::_Trait)1>::__destroy[abi:v170000]()::{lambda(auto:1&)#1}, std::__ndk1::__variant_detail::__base<(std::__ndk1::__variant_detail::__traits<geode::BoolSetting, std::__ndk1::__variant_detail::__traits::IntSetting, std::__ndk1::__variant_detail::__traits::FloatSetting, std::__ndk1::__variant_detail::__traits::StringSetting, std::__ndk1::__variant_detail::__traits::FileSetting, std::__ndk1::__variant_detail::__traits::ColorSetting, std::__ndk1::__variant_detail::__traits::ColorAlphaSetting, std::__ndk1::__variant_detail::__traits::CustomSetting>)1, geode, geode::BoolSetting, std::__ndk1::__variant_detail::__traits::IntSetting, std::__ndk1::__variant_detail::__traits::FloatSetting, std::__ndk1::__variant_detail::__traits::StringSetting, std::__ndk1::__variant_detail::__traits::FileSetting, std::__ndk1::__variant_detail::__traits::ColorSetting, std::__ndk1::__variant_detail::__traits::ColorAlphaSetting>&>(std::__ndk1::__variant_detail::__dtor<std::__ndk1::__variant_detail::__traits<geode::BoolSetting, std::__ndk1::__variant_detail::__traits::IntSetting, std::__ndk1::__variant_detail::__traits::FloatSetting, std::__ndk1::__variant_detail::__traits::StringSetting, std::__ndk1::__variant_detail::__traits::FileSetting, std::__ndk1::__variant_detail::__traits::ColorSetting, std::__ndk1::__variant_detail::__traits::ColorAlphaSetting, std::__ndk1::__variant_detail::__traits::CustomSetting>, (std::__ndk1::__variant_detail::_Trait)1>, std::__ndk1::__variant_detail::__base<(std::__ndk1::__variant_detail::__traits<geode::BoolSetting, std::__ndk1::__variant_detail::__traits::IntSetting, std::__ndk1::__variant_detail::__traits::FloatSetting, std::__ndk1::__variant_detail::__traits::StringSetting, std::__ndk1::__variant_detail::__traits::FileSetting, std::__ndk1::__variant_detail::__traits::ColorSetting, std::__ndk1::__variant_detail::__traits::ColorAlphaSetting, std::__ndk1::__variant_detail::__traits::CustomSetting>)1, geode, geode::BoolSetting, std::__ndk1::__variant_detail::__traits::IntSetting, std::__ndk1::__variant_detail::__traits::FloatSetting, std::__ndk1::__variant_detail::__traits::StringSetting, std::__ndk1::__variant_detail::__traits::FileSetting, std::__ndk1::__variant_detail::__traits::ColorSetting, std::__ndk1::__variant_detail::__traits::ColorAlphaSetting>&)
PUBLIC a009c 0 std::__ndk1::__variant_detail::__visitation::__base::__dispatcher<(unsigned long)3>::__dispatch[abi:v170000]<std::__ndk1::__variant_detail::__dtor<std::__ndk1::__variant_detail::__traits<geode::BoolSetting, std::__ndk1::__variant_detail::__traits::IntSetting, std::__ndk1::__variant_detail::__traits::FloatSetting, std::__ndk1::__variant_detail::__traits::StringSetting, std::__ndk1::__variant_detail::__traits::FileSetting, std::__ndk1::__variant_detail::__traits::ColorSetting, std::__ndk1::__variant_detail::__traits::ColorAlphaSetting, std::__ndk1::__variant_detail::__traits::CustomSetting>, (std::__ndk1::__variant_detail::_Trait)1>::__destroy[abi:v170000]()::{lambda(auto:1&)#1}, std::__ndk1::__variant_detail::__base<(std::__ndk1::__variant_detail::__traits<geode::BoolSetting, std::__ndk1::__variant_detail::__traits::IntSetting, std::__ndk1::__variant_detail::__traits::FloatSetting, std::__ndk1::__variant_detail::__traits::StringSetting, std::__ndk1::__variant_detail::__traits::FileSetting, std::__ndk1::__variant_detail::__traits::ColorSetting, std::__ndk1::__variant_detail::__traits::ColorAlphaSetting, std::__ndk1::__variant_detail::__traits::CustomSetting>)1, geode, geode::BoolSetting, std::__ndk1::__variant_detail::__traits::IntSetting, std::__ndk1::__variant_detail::__traits::FloatSetting, std::__ndk1::__variant_detail::__traits::StringSetting, std::__ndk1::__variant_detail::__traits::FileSetting, std::__ndk1::__variant_detail::__traits::ColorSetting, std::__ndk1::__variant_detail::__traits::ColorAlphaSetting>&>(std::__ndk1::__variant_detail::__dtor<std::__ndk1::__variant_detail::__traits<geode::BoolSetting, std::__ndk1::__variant_detail::__traits::IntSetting, std::__ndk1::__variant_detail::__traits::FloatSetting, std::__ndk1::__variant_detail::__traits::StringSetting, std::__ndk1::__variant_detail::__traits::FileSetting, std::__ndk1::__variant_detail::__traits::ColorSetting, std::__ndk1::__variant_detail::__traits::ColorAlphaSetting, std::__ndk1::__variant_detail::__traits::CustomSetting>, (std::__ndk1::__variant_detail::_Trait)1>, std::__ndk1::__variant_detail::__base<(std::__ndk1::__variant_detail::__traits<geode::BoolSetting, std::__ndk1::__variant_detail::__traits::IntSetting, std::__ndk1::__variant_detail::__traits::FloatSetting, std::__ndk1::__variant_detail::__traits::StringSetting, std::__ndk1::__variant_detail::__traits::FileSetting, std::__ndk1::__variant_detail::__traits::ColorSetting, std::__ndk1::__variant_detail::__traits::ColorAlphaSetting, std::__ndk1::__variant_detail::__traits::CustomSetting>)1, geode, geode::BoolSetting, std::__ndk1::__variant_detail::__traits::IntSetting, std::__ndk1::__variant_detail::__traits::FloatSetting, std::__ndk1::__variant_detail::__traits::StringSetting, std::__ndk1::__variant_detail::__traits::FileSetting, std::__ndk1::__variant_detail::__traits::ColorSetting, std::__ndk1::__variant_detail::__traits::ColorAlphaSetting>&)
PUBLIC a00a4 0 std::__ndk1::__variant_detail::__visitation::__base::__dispatcher<(unsigned long)4>::__dispatch[abi:v170000]<std::__ndk1::__variant_detail::__dtor<std::__ndk1::__variant_detail::__traits<geode::BoolSetting, std::__ndk1::__variant_detail::__traits::IntSetting, std::__ndk1::__variant_detail::__traits::FloatSetting, std::__ndk1::__variant_detail::__traits::StringSetting, std::__ndk1::__variant_detail::__traits::FileSetting, std::__ndk1::__variant_detail::__traits::ColorSetting, std::__ndk1::__variant_detail::__traits::ColorAlphaSetting, std::__ndk1::__variant_detail::__traits::CustomSetting>, (std::__ndk1::__variant_detail::_Trait)1>::__destroy[abi:v170000]()::{lambda(auto:1&)#1}, std::__ndk1::__variant_detail::__base<(std::__ndk1::__variant_detail::__traits<geode::BoolSetting, std::__ndk1::__variant_detail::__traits::IntSetting, std::__ndk1::__variant_detail::__traits::FloatSetting, std::__ndk1::__variant_detail::__traits::StringSetting, std::__ndk1::__variant_detail::__traits::FileSetting, std::__ndk1::__variant_detail::__traits::ColorSetting, std::__ndk1::__variant_detail::__traits::ColorAlphaSetting, std::__ndk1::__variant_detail::__traits::CustomSetting>)1, geode, geode::BoolSetting, std::__ndk1::__variant_detail::__traits::IntSetting, std::__ndk1::__variant_detail::__traits::FloatSetting, std::__ndk1::__variant_detail::__traits::StringSetting, std::__ndk1::__variant_detail::__traits::FileSetting, std::__ndk1::__variant_detail::__traits::ColorSetting, std::__ndk1::__variant_detail::__traits::ColorAlphaSetting>&>(std::__ndk1::__variant_detail::__dtor<std::__ndk1::__variant_detail::__traits<geode::BoolSetting, std::__ndk1::__variant_detail::__traits::IntSetting, std::__ndk1::__variant_detail::__traits::FloatSetting, std::__ndk1::__variant_detail::__traits::StringSetting, std::__ndk1::__variant_detail::__traits::FileSetting, std::__ndk1::__variant_detail::__traits::ColorSetting, std::__ndk1::__variant_detail::__traits::ColorAlphaSetting, std::__ndk1::__variant_detail::__traits::CustomSetting>, (std::__ndk1::__variant_detail::_Trait)1>, std::__ndk1::__variant_detail::__base<(std::__ndk1::__variant_detail::__traits<geode::BoolSetting, std::__ndk1::__variant_detail::__traits::IntSetting, std::__ndk1::__variant_detail::__traits::FloatSetting, std::__ndk1::__variant_detail::__traits::StringSetting, std::__ndk1::__variant_detail::__traits::FileSetting, std::__ndk1::__variant_detail::__traits::ColorSetting, std::__ndk1::__variant_detail::__traits::ColorAlphaSetting, std::__ndk1::__variant_detail::__traits::CustomSetting>)1, geode, geode::BoolSetting, std::__ndk1::__variant_detail::__traits::IntSetting, std::__ndk1::__variant_detail::__traits::FloatSetting, std::__ndk1::__variant_detail::__traits::StringSetting, std::__ndk1::__variant_detail::__traits::FileSetting, std::__ndk1::__variant_detail::__traits::ColorSetting, std::__ndk1::__variant_detail::__traits::ColorAlphaSetting>&)
PUBLIC a0134 0 std::__ndk1::__variant_detail::__visitation::__base::__dispatcher<(unsigned long)5>::__dispatch[abi:v170000]<std::__ndk1::__variant_detail::__dtor<std::__ndk1::__variant_detail::__traits<geode::BoolSetting, std::__ndk1::__variant_detail::__traits::IntSetting, std::__ndk1::__variant_detail::__traits::FloatSetting, std::__ndk1::__variant_detail::__traits::StringSetting, std::__ndk1::__variant_detail::__traits::FileSetting, std::__ndk1::__variant_detail::__traits::ColorSetting, std::__ndk1::__variant_detail::__traits::ColorAlphaSetting, std::__ndk1::__variant_detail::__traits::CustomSetting>, (std::__ndk1::__variant_detail::_Trait)1>::__destroy[abi:v170000]()::{lambda(auto:1&)#1}, std::__ndk1::__variant_detail::__base<(std::__ndk1::__variant_detail::__traits<geode::BoolSetting, std::__ndk1::__variant_detail::__traits::IntSetting, std::__ndk1::__variant_detail::__traits::FloatSetting, std::__ndk1::__variant_detail::__traits::StringSetting, std::__ndk1::__variant_detail::__traits::FileSetting, std::__ndk1::__variant_detail::__traits::ColorSetting, std::__ndk1::__variant_detail::__traits::ColorAlphaSetting, std::__ndk1::__variant_detail::__traits::CustomSetting>)1, geode, geode::BoolSetting, std::__ndk1::__variant_detail::__traits::IntSetting, std::__ndk1::__variant_detail::__traits::FloatSetting, std::__ndk1::__variant_detail::__traits::StringSetting, std::__ndk1::__variant_detail::__traits::FileSetting, std::__ndk1::__variant_detail::__traits::ColorSetting, std::__ndk1::__variant_detail::__traits::ColorAlphaSetting>&>(std::__ndk1::__variant_detail::__dtor<std::__ndk1::__variant_detail::__traits<geode::BoolSetting, std::__ndk1::__variant_detail::__traits::IntSetting, std::__ndk1::__variant_detail::__traits::FloatSetting, std::__ndk1::__variant_detail::__traits::StringSetting, std::__ndk1::__variant_detail::__traits::FileSetting, std::__ndk1::__variant_detail::__traits::ColorSetting, std::__ndk1::__variant_detail::__traits::ColorAlphaSetting, std::__ndk1::__variant_detail::__traits::CustomSetting>, (std::__ndk1::__variant_detail::_Trait)1>, std::__ndk1::__variant_detail::__base<(std::__ndk1::__variant_detail::__traits<geode::BoolSetting, std::__ndk1::__variant_detail::__traits::IntSetting, std::__ndk1::__variant_detail::__traits::FloatSetting, std::__ndk1::__variant_detail::__traits::StringSetting, std::__ndk1::__variant_detail::__traits::FileSetting, std::__ndk1::__variant_detail::__traits::ColorSetting, std::__ndk1::__variant_detail::__traits::ColorAlphaSetting, std::__ndk1::__variant_detail::__traits::CustomSetting>)1, geode, geode::BoolSetting, std::__ndk1::__variant_detail::__traits::IntSetting, std::__ndk1::__variant_detail::__traits::FloatSetting, std::__ndk1::__variant_detail::__traits::StringSetting, std::__ndk1::__variant_detail::__traits::FileSetting, std::__ndk1::__variant_detail::__traits::ColorSetting, std::__ndk1::__variant_detail::__traits::ColorAlphaSetting>&)
PUBLIC a0188 0 std::__ndk1::__variant_detail::__visitation::__base::__dispatcher<(unsigned long)6>::__dispatch[abi:v170000]<std::__ndk1::__variant_detail::__dtor<std::__ndk1::__variant_detail::__traits<geode::BoolSetting, std::__ndk1::__variant_detail::__traits::IntSetting, std::__ndk1::__variant_detail::__traits::FloatSetting, std::__ndk1::__variant_detail::__traits::StringSetting, std::__ndk1::__variant_detail::__traits::FileSetting, std::__ndk1::__variant_detail::__traits::ColorSetting, std::__ndk1::__variant_detail::__traits::ColorAlphaSetting, std::__ndk1::__variant_detail::__traits::CustomSetting>, (std::__ndk1::__variant_detail::_Trait)1>::__destroy[abi:v170000]()::{lambda(auto:1&)#1}, std::__ndk1::__variant_detail::__base<(std::__ndk1::__variant_detail::__traits<geode::BoolSetting, std::__ndk1::__variant_detail::__traits::IntSetting, std::__ndk1::__variant_detail::__traits::FloatSetting, std::__ndk1::__variant_detail::__traits::StringSetting, std::__ndk1::__variant_detail::__traits::FileSetting, std::__ndk1::__variant_detail::__traits::ColorSetting, std::__ndk1::__variant_detail::__traits::ColorAlphaSetting, std::__ndk1::__variant_detail::__traits::CustomSetting>)1, geode, geode::BoolSetting, std::__ndk1::__variant_detail::__traits::IntSetting, std::__ndk1::__variant_detail::__traits::FloatSetting, std::__ndk1::__variant_detail::__traits::StringSetting, std::__ndk1::__variant_detail::__traits::FileSetting, std::__ndk1::__variant_detail::__traits::ColorSetting, std::__ndk1::__variant_detail::__traits::ColorAlphaSetting>&>(std::__ndk1::__variant_detail::__dtor<std::__ndk1::__variant_detail::__traits<geode::BoolSetting, std::__ndk1::__variant_detail::__traits::IntSetting, std::__ndk1::__variant_detail::__traits::FloatSetting, std::__ndk1::__variant_detail::__traits::StringSetting, std::__ndk1::__variant_detail::__traits::FileSetting, std::__ndk1::__variant_detail::__traits::ColorSetting, std::__ndk1::__variant_detail::__traits::ColorAlphaSetting, std::__ndk1::__variant_detail::__traits::CustomSetting>, (std::__ndk1::__variant_detail::_Trait)1>, std::__ndk1::__variant_detail::__base<(std::__ndk1::__variant_detail::__traits<geode::BoolSetting, std::__ndk1::__variant_detail::__traits::IntSetting, std::__ndk1::__variant_detail::__traits::FloatSetting, std::__ndk1::__variant_detail::__traits::StringSetting, std::__ndk1::__variant_detail::__traits::FileSetting, std::__ndk1::__variant_detail::__traits::ColorSetting, std::__ndk1::__variant_detail::__traits::ColorAlphaSetting, std::__ndk1::__variant_detail::__traits::CustomSetting>)1, geode, geode::BoolSetting, std::__ndk1::__variant_detail::__traits::IntSetting, std::__ndk1::__variant_detail::__traits::FloatSetting, std::__ndk1::__variant_detail::__traits::StringSetting, std::__ndk1::__variant_detail::__traits::FileSetting, std::__ndk1::__variant_detail::__traits::ColorSetting, std::__ndk1::__variant_detail::__traits::ColorAlphaSetting>&)
PUBLIC a01dc 0 std::__ndk1::__variant_detail::__visitation::__base::__dispatcher<(unsigned long)7>::__dispatch[abi:v170000]<std::__ndk1::__variant_detail::__dtor<std::__ndk1::__variant_detail::__traits<geode::BoolSetting, std::__ndk1::__variant_detail::__traits::IntSetting, std::__ndk1::__variant_detail::__traits::FloatSetting, std::__ndk1::__variant_detail::__traits::StringSetting, std::__ndk1::__variant_detail::__traits::FileSetting, std::__ndk1::__variant_detail::__traits::ColorSetting, std::__ndk1::__variant_detail::__traits::ColorAlphaSetting, std::__ndk1::__variant_detail::__traits::CustomSetting>, (std::__ndk1::__variant_detail::_Trait)1>::__destroy[abi:v170000]()::{lambda(auto:1&)#1}, std::__ndk1::__variant_detail::__base<(std::__ndk1::__variant_detail::__traits<geode::BoolSetting, std::__ndk1::__variant_detail::__traits::IntSetting, std::__ndk1::__variant_detail::__traits::FloatSetting, std::__ndk1::__variant_detail::__traits::StringSetting, std::__ndk1::__variant_detail::__traits::FileSetting, std::__ndk1::__variant_detail::__traits::ColorSetting, std::__ndk1::__variant_detail::__traits::ColorAlphaSetting, std::__ndk1::__variant_detail::__traits::CustomSetting>)1, geode, geode::BoolSetting, std::__ndk1::__variant_detail::__traits::IntSetting, std::__ndk1::__variant_detail::__traits::FloatSetting, std::__ndk1::__variant_detail::__traits::StringSetting, std::__ndk1::__variant_detail::__traits::FileSetting, std::__ndk1::__variant_detail::__traits::ColorSetting, std::__ndk1::__variant_detail::__traits::ColorAlphaSetting>&>(std::__ndk1::__variant_detail::__dtor<std::__ndk1::__variant_detail::__traits<geode::BoolSetting, std::__ndk1::__variant_detail::__traits::IntSetting, std::__ndk1::__variant_detail::__traits::FloatSetting, std::__ndk1::__variant_detail::__traits::StringSetting, std::__ndk1::__variant_detail::__traits::FileSetting, std::__ndk1::__variant_detail::__traits::ColorSetting, std::__ndk1::__variant_detail::__traits::ColorAlphaSetting, std::__ndk1::__variant_detail::__traits::CustomSetting>, (std::__ndk1::__variant_detail::_Trait)1>, std::__ndk1::__variant_detail::__base<(std::__ndk1::__variant_detail::__traits<geode::BoolSetting, std::__ndk1::__variant_detail::__traits::IntSetting, std::__ndk1::__variant_detail::__traits::FloatSetting, std::__ndk1::__variant_detail::__traits::StringSetting, std::__ndk1::__variant_detail::__traits::FileSetting, std::__ndk1::__variant_detail::__traits::ColorSetting, std::__ndk1::__variant_detail::__traits::ColorAlphaSetting, std::__ndk1::__variant_detail::__traits::CustomSetting>)1, geode, geode::BoolSetting, std::__ndk1::__variant_detail::__traits::IntSetting, std::__ndk1::__variant_detail::__traits::FloatSetting, std::__ndk1::__variant_detail::__traits::StringSetting, std::__ndk1::__variant_detail::__traits::FileSetting, std::__ndk1::__variant_detail::__traits::ColorSetting, std::__ndk1::__variant_detail::__traits::ColorAlphaSetting>&)
PUBLIC a022c 0 geode::StringSetting::~StringSetting()
PUBLIC a02c0 0 std::__ndk1::vector<geode::utils::file::FilePickOptions::Filter, std::__ndk1::allocator<geode::utils::file::FilePickOptions::Filter> >::__destroy_vector::operator()[abi:v170000]()
PUBLIC a03a4 0 SettingTestNode::init(SettingTestValue*, float)
PUBLIC a0534 0 SettingTestNode::~SettingTestNode()
PUBLIC a0558 0 SettingTestNode::commit()
PUBLIC a055c 0 SettingTestNode::hasUncommittedChanges()
PUBLIC a0564 0 SettingTestNode::hasNonDefaultValue()
PUBLIC a056c 0 SettingTestNode::resetToDefault()
PUBLIC a0570 0 SettingAppNode::init(SettingAppValue*, float)
PUBLIC a0898 0 SettingAppNode::~SettingAppNode()
PUBLIC a08d4 0 SettingAppNode::~SettingAppNode()
PUBLIC a0918 0 SettingAppNode::commit()
PUBLIC a0a44 0 SettingAppNode::hasUncommittedChanges()
PUBLIC a0bf0 0 SettingAppNode::hasNonDefaultValue()
PUBLIC a0cb8 0 SettingAppNode::resetToDefault()
PUBLIC a0dfc 0 SettingAppNode::onInfoBtn(cocos2d::CCObject*)
PUBLIC a1264 0 SettingPosNode::init(SettingPosValue*, float)
PUBLIC a15d8 0 SettingPosNode::~SettingPosNode()
PUBLIC a15fc 0 SettingPosNode::commit()
PUBLIC a160c 0 SettingPosNode::hasUncommittedChanges()
PUBLIC a1624 0 SettingPosNode::hasNonDefaultValue()
PUBLIC a1634 0 SettingPosNode::resetToDefault()
PUBLIC a1688 0 SettingPosNode::onCornerClick(cocos2d::CCObject*)
PUBLIC a1704 0 SettingCreditsNode::init(SettingCreditsValue*, float)
PUBLIC a18c8 0 SettingCreditsNode::~SettingCreditsNode()
PUBLIC a18ec 0 SettingCreditsNode::commit()
PUBLIC a18f0 0 SettingCreditsNode::hasUncommittedChanges()
PUBLIC a18f8 0 SettingCreditsNode::hasNonDefaultValue()
PUBLIC a1900 0 SettingCreditsNode::resetToDefault()
PUBLIC a1904 0 SettingCreditsNode::onCreditsBtn(cocos2d::CCObject*)
PUBLIC a1920 0 SettingCreditsNode::onBetaBtn(cocos2d::CCObject*)
PUBLIC a193c 0 geode::SettingValue::~SettingValue()
PUBLIC a1940 0 _GLOBAL__sub_I_CustomSettings.cpp
PUBLIC a1984 0 std::__ndk1::unordered_map<int, int, std::__ndk1::hash<int>, std::__ndk1::equal_to<int>, std::__ndk1::allocator<std::__ndk1::pair<int const, int> > >::~unordered_map[abi:v170000]()
PUBLIC a19d0 0 url_encode(std::__ndk1::basic_string<char, std::__ndk1::char_traits<char>, std::__ndk1::allocator<char> > const&)
PUBLIC a1abc 0 __cxx_global_var_init.1
PUBLIC a2030 0 _GLOBAL__sub_I_DemonList.cpp
PUBLIC a205c 0 geode::modifier::ModifyBase<geode::modifier::ModifyDerive<hook26<(anonymous namespace)::hook26Parent>, LevelInfoLayer> >::~ModifyBase()
PUBLIC a2078 0 std::__ndk1::basic_string<char, std::__ndk1::char_traits<char>, std::__ndk1::allocator<char> >::__shrink_or_extend[abi:v170000](unsigned long)
PUBLIC a217c 0 geode::modifier::ModifyDerive<hook26<(anonymous namespace)::hook26Parent>, LevelInfoLayer>::apply()
PUBLIC a257c 0 geode::modifier::ModifyBase<geode::modifier::ModifyDerive<hook26<(anonymous namespace)::hook26Parent>, LevelInfoLayer> >::apply()
PUBLIC a2580 0 geode::modifier::AsStaticFunction_init<hook26<(anonymous namespace)::hook26Parent>, bool (hook26<(anonymous namespace)::hook26Parent>::*)(GJGameLevel*, bool)>::Impl<bool (hook26<(anonymous namespace)::hook26Parent>::*)(GJGameLevel*, bool)>::function(hook26<(anonymous namespace)::hook26Parent>*, GJGameLevel*, bool)
PUBLIC a2db8 0 geode::utils::web::AsyncWebResult<matjson::Value>::then(geode::utils::MiniFunction<void (matjson::Value)>)
PUBLIC a2f14 0 geode::utils::MiniFunctionState<geode::utils::web::AsyncWebResult<matjson::Value>::then(geode::utils::MiniFunction<void (matjson::Value)>)::{lambda(geode::utils::web::SentAsyncWebRequest&, std::__ndk1::vector<unsigned char, std::__ndk1::allocator<unsigned char> > const&)#1}, void, geode::utils::web::SentAsyncWebRequest&, std::__ndk1::vector<unsigned char, std::__ndk1::allocator<unsigned char> > const&>::~MiniFunctionState()
PUBLIC a2f2c 0 geode::utils::MiniFunctionState<geode::utils::web::AsyncWebResult<matjson::Value>::then(geode::utils::MiniFunction<void (matjson::Value)>)::{lambda(geode::utils::web::SentAsyncWebRequest&, std::__ndk1::vector<unsigned char, std::__ndk1::allocator<unsigned char> > const&)#1}, void, geode::utils::web::SentAsyncWebRequest&, std::__ndk1::vector<unsigned char, std::__ndk1::allocator<unsigned char> > const&>::~MiniFunctionState()
PUBLIC a2f60 0 geode::utils::MiniFunctionState<geode::utils::web::AsyncWebResult<matjson::Value>::then(geode::utils::MiniFunction<void (matjson::Value)>)::{lambda(geode::utils::web::SentAsyncWebRequest&, std::__ndk1::vector<unsigned char, std::__ndk1::allocator<unsigned char> > const&)#1}, void, geode::utils::web::SentAsyncWebRequest&, std::__ndk1::vector<unsigned char, std::__ndk1::allocator<unsigned char> > const&>::call(geode::utils::web::SentAsyncWebRequest&, std::__ndk1::vector<unsigned char, std::__ndk1::allocator<unsigned char> > const&) const
PUBLIC a2f68 0 geode::utils::MiniFunctionState<geode::utils::web::AsyncWebResult<matjson::Value>::then(geode::utils::MiniFunction<void (matjson::Value)>)::{lambda(geode::utils::web::SentAsyncWebRequest&, std::__ndk1::vector<unsigned char, std::__ndk1::allocator<unsigned char> > const&)#1}, void, geode::utils::web::SentAsyncWebRequest&, std::__ndk1::vector<unsigned char, std::__ndk1::allocator<unsigned char> > const&>::clone() const
PUBLIC a2fe4 0 geode::utils::web::AsyncWebResult<matjson::Value>::then(geode::utils::MiniFunction<void (matjson::Value)>)::{lambda(geode::utils::web::SentAsyncWebRequest&, std::__ndk1::vector<unsigned char, std::__ndk1::allocator<unsigned char> > const&)#1}::operator()(geode::utils::web::SentAsyncWebRequest&, std::__ndk1::vector<unsigned char, std::__ndk1::allocator<unsigned char> > const&) const
PUBLIC a3294 0 geode::Result<matjson::Value, std::__ndk1::basic_string<char, std::__ndk1::char_traits<char>, std::__ndk1::allocator<char> > >::unwrap() &
PUBLIC a3394 0 cpp::bitwizeshift::result<matjson::Value, std::__ndk1::basic_string<char, std::__ndk1::char_traits<char>, std::__ndk1::allocator<char> > >::~result()
PUBLIC a33b4 0 geode::utils::MiniFunctionState<hook26<(anonymous namespace)::hook26Parent>::init(GJGameLevel*, bool)::{lambda(matjson::Value const&)#1}, void, matjson::Value>::~MiniFunctionState()
PUBLIC a33b8 0 geode::utils::MiniFunctionState<hook26<(anonymous namespace)::hook26Parent>::init(GJGameLevel*, bool)::{lambda(matjson::Value const&)#1}, void, matjson::Value>::call(matjson::Value) const
PUBLIC a36c0 0 geode::utils::MiniFunctionState<hook26<(anonymous namespace)::hook26Parent>::init(GJGameLevel*, bool)::{lambda(matjson::Value const&)#1}, void, matjson::Value>::clone() const
PUBLIC a3710 0 geode::utils::MiniFunctionStateBase<void, matjson::Value>::~MiniFunctionStateBase()
PUBLIC a3714 0 std::__ndk1::__hash_table<std::__ndk1::__hash_value_type<int, int>, std::__ndk1::__unordered_map_hasher<int, std::__ndk1::__hash_value_type<int, int>, std::__ndk1::hash<int>, std::__ndk1::equal_to<int>, true>, std::__ndk1::__unordered_map_equal<int, std::__ndk1::__hash_value_type<int, int>, std::__ndk1::equal_to<int>, std::__ndk1::hash<int>, true>, std::__ndk1::allocator<std::__ndk1::__hash_value_type<int, int> > >::__emplace_unique_key_args<int, std::__ndk1::piecewise_construct_t const&, std::__ndk1::tuple<int const&>, std::__ndk1::tuple<> >(int const&, std::__ndk1::piecewise_construct_t const&, std::__ndk1::tuple<int const&>, std::__ndk1::tuple<>)
PUBLIC a3a34 0 std::__ndk1::__hash_table<std::__ndk1::__hash_value_type<int, int>, std::__ndk1::__unordered_map_hasher<int, std::__ndk1::__hash_value_type<int, int>, std::__ndk1::hash<int>, std::__ndk1::equal_to<int>, true>, std::__ndk1::__unordered_map_equal<int, std::__ndk1::__hash_value_type<int, int>, std::__ndk1::equal_to<int>, std::__ndk1::hash<int>, true>, std::__ndk1::allocator<std::__ndk1::__hash_value_type<int, int> > >::__do_rehash<true>(unsigned long)
PUBLIC a3c0c 0 geode::utils::MiniFunctionState<hook26<(anonymous namespace)::hook26Parent>::init(GJGameLevel*, bool)::{lambda(std::__ndk1::basic_string<char, std::__ndk1::char_traits<char>, std::__ndk1::allocator<char> > const&)#1}, void, std::__ndk1::basic_string<char, std::__ndk1::char_traits<char>, std::__ndk1::allocator<char> > const&>::~MiniFunctionState()
PUBLIC a3c10 0 geode::utils::MiniFunctionState<hook26<(anonymous namespace)::hook26Parent>::init(GJGameLevel*, bool)::{lambda(std::__ndk1::basic_string<char, std::__ndk1::char_traits<char>, std::__ndk1::allocator<char> > const&)#1}, void, std::__ndk1::basic_string<char, std::__ndk1::char_traits<char>, std::__ndk1::allocator<char> > const&>::call(std::__ndk1::basic_string<char, std::__ndk1::char_traits<char>, std::__ndk1::allocator<char> > const&) const
PUBLIC a3d28 0 geode::utils::MiniFunctionState<hook26<(anonymous namespace)::hook26Parent>::init(GJGameLevel*, bool)::{lambda(std::__ndk1::basic_string<char, std::__ndk1::char_traits<char>, std::__ndk1::allocator<char> > const&)#1}, void, std::__ndk1::basic_string<char, std::__ndk1::char_traits<char>, std::__ndk1::allocator<char> > const&>::clone() const
PUBLIC a3d60 0 ProgressBar::init()
PUBLIC a3e68 0 ProgressBar::setProgress(float)
PUBLIC a3ed4 0 ProgressBar::create()
PUBLIC a3fc4 0 DownloadManager::setup()
PUBLIC a4430 0 geode::utils::web::AsyncWebResult<std::__ndk1::monostate>::then(geode::utils::MiniFunction<void (std::__ndk1::monostate)>)
PUBLIC a458c 0 DownloadManager::create(char const*, char const*, void (cocos2d::CCObject::*)(cocos2d::CCObject*))
PUBLIC a46c8 0 ProgressBar::~ProgressBar()
PUBLIC a46ec 0 DownloadManager::~DownloadManager()
PUBLIC a4710 0 {virtual override thunk({offset(-320)}, DownloadManager::~DownloadManager())}
PUBLIC a4718 0 {virtual override thunk({offset(-320)}, DownloadManager::~DownloadManager())}
PUBLIC a4740 0 geode::utils::MiniFunctionState<geode::utils::web::AsyncWebResult<std::__ndk1::monostate>::then(geode::utils::MiniFunction<void (std::__ndk1::monostate)>)::{lambda(geode::utils::web::SentAsyncWebRequest&, std::__ndk1::vector<unsigned char, std::__ndk1::allocator<unsigned char> > const&)#1}, void, geode::utils::web::SentAsyncWebRequest&, std::__ndk1::vector<unsigned char, std::__ndk1::allocator<unsigned char> > const&>::~MiniFunctionState()
PUBLIC a4758 0 geode::utils::MiniFunctionState<geode::utils::web::AsyncWebResult<std::__ndk1::monostate>::then(geode::utils::MiniFunction<void (std::__ndk1::monostate)>)::{lambda(geode::utils::web::SentAsyncWebRequest&, std::__ndk1::vector<unsigned char, std::__ndk1::allocator<unsigned char> > const&)#1}, void, geode::utils::web::SentAsyncWebRequest&, std::__ndk1::vector<unsigned char, std::__ndk1::allocator<unsigned char> > const&>::~MiniFunctionState()
PUBLIC a478c 0 geode::utils::MiniFunctionState<geode::utils::web::AsyncWebResult<std::__ndk1::monostate>::then(geode::utils::MiniFunction<void (std::__ndk1::monostate)>)::{lambda(geode::utils::web::SentAsyncWebRequest&, std::__ndk1::vector<unsigned char, std::__ndk1::allocator<unsigned char> > const&)#1}, void, geode::utils::web::SentAsyncWebRequest&, std::__ndk1::vector<unsigned char, std::__ndk1::allocator<unsigned char> > const&>::call(geode::utils::web::SentAsyncWebRequest&, std::__ndk1::vector<unsigned char, std::__ndk1::allocator<unsigned char> > const&) const
PUBLIC a4794 0 geode::utils::MiniFunctionState<geode::utils::web::AsyncWebResult<std::__ndk1::monostate>::then(geode::utils::MiniFunction<void (std::__ndk1::monostate)>)::{lambda(geode::utils::web::SentAsyncWebRequest&, std::__ndk1::vector<unsigned char, std::__ndk1::allocator<unsigned char> > const&)#1}, void, geode::utils::web::SentAsyncWebRequest&, std::__ndk1::vector<unsigned char, std::__ndk1::allocator<unsigned char> > const&>::clone() const
PUBLIC a4810 0 geode::utils::web::AsyncWebResult<std::__ndk1::monostate>::then(geode::utils::MiniFunction<void (std::__ndk1::monostate)>)::{lambda(geode::utils::web::SentAsyncWebRequest&, std::__ndk1::vector<unsigned char, std::__ndk1::allocator<unsigned char> > const&)#1}::operator()(geode::utils::web::SentAsyncWebRequest&, std::__ndk1::vector<unsigned char, std::__ndk1::allocator<unsigned char> > const&) const
PUBLIC a4a28 0 geode::Result<std::__ndk1::monostate, std::__ndk1::basic_string<char, std::__ndk1::char_traits<char>, std::__ndk1::allocator<char> > >::unwrap() &
PUBLIC a4b28 0 geode::utils::MiniFunctionStateBase<void, std::__ndk1::monostate>::~MiniFunctionStateBase()
PUBLIC a4b2c 0 geode::utils::MiniFunctionState<DownloadManager::setup()::$_0, void, std::__ndk1::monostate>::~MiniFunctionState()
PUBLIC a4b30 0 geode::utils::MiniFunctionState<DownloadManager::setup()::$_0, void, std::__ndk1::monostate>::call(std::__ndk1::monostate) const
PUBLIC a4bc0 0 geode::utils::MiniFunctionState<DownloadManager::setup()::$_0, void, std::__ndk1::monostate>::clone() const
PUBLIC a4bf4 0 geode::utils::MiniFunctionState<DownloadManager::setup()::$_1, void, std::__ndk1::basic_string<char, std::__ndk1::char_traits<char>, std::__ndk1::allocator<char> > const&>::~MiniFunctionState()
PUBLIC a4bf8 0 geode::utils::MiniFunctionState<DownloadManager::setup()::$_1, void, std::__ndk1::basic_string<char, std::__ndk1::char_traits<char>, std::__ndk1::allocator<char> > const&>::call(std::__ndk1::basic_string<char, std::__ndk1::char_traits<char>, std::__ndk1::allocator<char> > const&) const
PUBLIC a4cec 0 geode::utils::MiniFunctionState<DownloadManager::setup()::$_1, void, std::__ndk1::basic_string<char, std::__ndk1::char_traits<char>, std::__ndk1::allocator<char> > const&>::clone() const
PUBLIC a4d10 0 geode::utils::MiniFunctionStateBase<void, geode::utils::web::SentAsyncWebRequest&, double, double>::~MiniFunctionStateBase()
PUBLIC a4d14 0 geode::utils::MiniFunctionState<DownloadManager::setup()::$_2, void, geode::utils::web::SentAsyncWebRequest&, double, double>::~MiniFunctionState()
PUBLIC a4d18 0 geode::utils::MiniFunctionState<DownloadManager::setup()::$_2, void, geode::utils::web::SentAsyncWebRequest&, double, double>::call(geode::utils::web::SentAsyncWebRequest&, double, double) const
PUBLIC a4db0 0 geode::utils::MiniFunctionState<DownloadManager::setup()::$_2, void, geode::utils::web::SentAsyncWebRequest&, double, double>::clone() const
PUBLIC a4dd4 0 SearchUserLayer::onValidate(cocos2d::CCObject*)
PUBLIC a4e94 0 FriendPage::searchUser(char const*)
PUBLIC a53a0 0 __cxx_global_var_init
PUBLIC a5408 0 geode::modifier::ModifyBase<geode::modifier::ModifyDerive<FriendPage, FriendsProfilePage> >::~ModifyBase()
PUBLIC a5424 0 FriendPage::getCustomList(cocos2d::CCArray*)
PUBLIC a57a4 0 misc::findNode(std::__ndk1::basic_string<char, std::__ndk1::char_traits<char>, std::__ndk1::allocator<char> >)
PUBLIC a5a40 0 std::__ndk1::__put_character_sequence[abi:v170000]<char, std::__ndk1::char_traits<char> >(std::__ndk1::basic_ostream<char, std::__ndk1::char_traits<char> >, std::__ndk1::basic_ostream const*, unsigned long)
PUBLIC a5be4 0 std::__ndk1::__pad_and_output[abi:v170000]<char, std::__ndk1::char_traits<char> >(std::__ndk1::char_traits<char>, std::__ndk1::ostreambuf_iterator const*, std::__ndk1::ostreambuf_iterator const, std::__ndk1::ostreambuf_iterator const, std::__ndk1::ios_base&, std::__ndk1::ostreambuf_iterator)
PUBLIC a5dc0 0 geode::modifier::ModifyBase<geode::modifier::ModifyDerive<FriendPage, FriendsProfilePage> >::ModifyBase()
PUBLIC a625c 0 geode::modifier::ModifyDerive<FriendPage, FriendsProfilePage>::apply()
PUBLIC a6538 0 geode::modifier::ModifyBase<geode::modifier::ModifyDerive<FriendPage, FriendsProfilePage> >::apply()
PUBLIC a653c 0 geode::Hook::create<bool (*)(FriendPage*, UserListType)>(void*, bool (*)(FriendPage*, UserListType), std::__ndk1::basic_string<char, std::__ndk1::char_traits<char>, std::__ndk1::allocator<char> > const&, tulip::hook::TulipConvention, tulip::hook::HookMetadata const&)
PUBLIC a66bc 0 geode::modifier::AsStaticFunction_init<FriendPage, bool (FriendPage::*)(UserListType)>::Impl<bool (FriendPage::*)(UserListType)>::function(FriendPage*, UserListType)
PUBLIC a66c0 0 FriendPage::init(UserListType)
PUBLIC a682c 0 FriendPage::onDown(cocos2d::CCObject*)
PUBLIC a685c 0 FriendPage::onUp(cocos2d::CCObject*)
PUBLIC a688c 0 FriendPage::onSearch(cocos2d::CCObject*)
PUBLIC a68a8 0 SearchUserLayer::create()
PUBLIC a6a40 0 SearchUserLayer::~SearchUserLayer()
PUBLIC a6a64 0 SearchUserLayer::setup()
PUBLIC a6b84 0 SearchUserLayer::onClose(cocos2d::CCObject*)
PUBLIC a6b88 0 {virtual override thunk({offset(-320)}, SearchUserLayer::~SearchUserLayer())}
PUBLIC a6b90 0 {virtual override thunk({offset(-320)}, SearchUserLayer::~SearchUserLayer())}
PUBLIC a6bb8 0 InfoNewLayer::onCopyLevelURL(cocos2d::CCObject*)
PUBLIC a6e8c 0 __cxx_global_var_init
PUBLIC a7400 0 geode::modifier::ModifyBase<geode::modifier::ModifyDerive<hook15<(anonymous namespace)::hook15Parent>, InfoLayer> >::~ModifyBase()
PUBLIC a741c 0 geode::modifier::ModifyDerive<hook15<(anonymous namespace)::hook15Parent>, InfoLayer>::apply()
PUBLIC a7818 0 geode::modifier::ModifyBase<geode::modifier::ModifyDerive<hook15<(anonymous namespace)::hook15Parent>, InfoLayer> >::apply()
PUBLIC a781c 0 geode::modifier::AsStaticFunction_init<hook15<(anonymous namespace)::hook15Parent>, bool (hook15<(anonymous namespace)::hook15Parent>::*)(GJGameLevel*, GJUserScore*, GJLevelList*)>::Impl<bool (hook15<(anonymous namespace)::hook15Parent>::*)(GJGameLevel*, GJUserScore*, GJLevelList*)>::function(hook15<(anonymous namespace)::hook15Parent>*, GJGameLevel*, GJUserScore*, GJLevelList*)
PUBLIC a79cc 0 NewProfilePage::onBadgePressed(cocos2d::CCObject*)
PUBLIC a7b88 0 NewProfilePage::onGDUtilsBadgePressed(cocos2d::CCObject*)
PUBLIC a7c3c 0 __cxx_global_var_init
PUBLIC a81b0 0 geode::modifier::ModifyBase<geode::modifier::ModifyDerive<hook142<(anonymous namespace)::hook142Parent>, ProfilePage> >::~ModifyBase()
PUBLIC a81cc 0 geode::modifier::ModifyDerive<hook142<(anonymous namespace)::hook142Parent>, ProfilePage>::apply()
PUBLIC a8594 0 geode::modifier::ModifyBase<geode::modifier::ModifyDerive<hook142<(anonymous namespace)::hook142Parent>, ProfilePage> >::apply()
PUBLIC a8598 0 geode::modifier::AsStaticFunction_loadPageFromUserInfo<hook142<(anonymous namespace)::hook142Parent>, void (hook142<(anonymous namespace)::hook142Parent>::*)(GJUserScore*)>::Impl<void (hook142<(anonymous namespace)::hook142Parent>::*)(GJUserScore*)>::function(hook142<(anonymous namespace)::hook142Parent>*, GJUserScore*)
PUBLIC a8e04 0 _GLOBAL__sub_I_SpotifyHandler.cpp
PUBLIC a8e48 0 std::__ndk1::unique_lock<std::__ndk1::mutex>::~unique_lock[abi:v170000]()
PUBLIC a8e5c 0 std::__ndk1::shared_ptr<sio::socket>::~shared_ptr[abi:v170000]()
PUBLIC a8eac 0 ConnectionHandler::onSuccess()
PUBLIC a8f30 0 ConnectionHandler::onClose(sio::client::close_reason const&)
PUBLIC a9008 0 ConnectionHandler::onFail()
PUBLIC a9074 0 ConnectionHandler::onError(std::__ndk1::shared_ptr<sio::message> const&)
PUBLIC a9108 0 setSocket(std::__ndk1::shared_ptr<sio::socket>)
PUBLIC a9514 0 sio::message::list::~list()
PUBLIC a95bc 0 start_socket_func()
PUBLIC a9ae4 0 processEvent(cocos2d::CCScene*)
PUBLIC a9c90 0 geodeExecFunction278<(anonymous namespace)::ExecFuncUnique278>(geode::ModStateEvent*)
PUBLIC a9f84 0 __cxx_global_var_init.23
PUBLIC aa4f8 0 _GLOBAL__sub_I_main.cpp
PUBLIC aa71c 0 geode::modifier::ModifyBase<geode::modifier::ModifyDerive<hook131<(anonymous namespace)::hook131Parent>, cocos2d::CCScheduler> >::~ModifyBase()
PUBLIC aa738 0 std::__ndk1::__function::__func<setSocket(std::__ndk1::shared_ptr<sio::socket>)::$_0, std::__ndk1::allocator<setSocket(std::__ndk1::shared_ptr<sio::socket>)::$_0>, void (std::__ndk1::basic_string<char, std::__ndk1::char_traits<char>, std::__ndk1::allocator<char> > const&, std::__ndk1::shared_ptr<sio::message> const&, bool, sio::message&::list)>::~__func()
PUBLIC aa73c 0 std::__ndk1::__function::__func<setSocket(std::__ndk1::shared_ptr<sio::socket>)::$_0, std::__ndk1::allocator<setSocket(std::__ndk1::shared_ptr<sio::socket>)::$_0>, void (std::__ndk1::basic_string<char, std::__ndk1::char_traits<char>, std::__ndk1::allocator<char> > const&, std::__ndk1::shared_ptr<sio::message> const&, bool, sio::message&::list)>::__clone() const
PUBLIC aa760 0 std::__ndk1::__function::__func<setSocket(std::__ndk1::shared_ptr<sio::socket>)::$_0, std::__ndk1::allocator<setSocket(std::__ndk1::shared_ptr<sio::socket>)::$_0>, void (std::__ndk1::basic_string<char, std::__ndk1::char_traits<char>, std::__ndk1::allocator<char> > const&, std::__ndk1::shared_ptr<sio::message> const&, bool, sio::message&::list)>::__clone(std::__ndk1::__function::__base<void (std::__ndk1::basic_string<char, std::__ndk1::char_traits<char>, std::__ndk1::allocator<char> > const&, std::__ndk1::shared_ptr<sio::message> const&, bool, sio::message&::list)>*) const
PUBLIC aa770 0 std::__ndk1::__function::__func<setSocket(std::__ndk1::shared_ptr<sio::socket>)::$_0, std::__ndk1::allocator<setSocket(std::__ndk1::shared_ptr<sio::socket>)::$_0>, void (std::__ndk1::basic_string<char, std::__ndk1::char_traits<char>, std::__ndk1::allocator<char> > const&, std::__ndk1::shared_ptr<sio::message> const&, bool, sio::message&::list)>::destroy()
PUBLIC aa774 0 std::__ndk1::__function::__func<setSocket(std::__ndk1::shared_ptr<sio::socket>)::$_0, std::__ndk1::allocator<setSocket(std::__ndk1::shared_ptr<sio::socket>)::$_0>, void (std::__ndk1::basic_string<char, std::__ndk1::char_traits<char>, std::__ndk1::allocator<char> > const&, std::__ndk1::shared_ptr<sio::message> const&, bool, sio::message&::list)>::destroy_deallocate()
PUBLIC aa778 0 std::__ndk1::__function::__func<setSocket(std::__ndk1::shared_ptr<sio::socket>)::$_0, std::__ndk1::allocator<setSocket(std::__ndk1::shared_ptr<sio::socket>)::$_0>, void (std::__ndk1::basic_string<char, std::__ndk1::char_traits<char>, std::__ndk1::allocator<char> > const&, std::__ndk1::shared_ptr<sio::message> const&, bool, sio::message&::list)>::operator()(std::__ndk1::basic_string<char, std::__ndk1::char_traits<char>, std::__ndk1::allocator<char> > const&, std::__ndk1::shared_ptr<sio::message> const&, bool&&, sio::message&::list)
PUBLIC aa84c 0 std::__ndk1::__function::__func<setSocket(std::__ndk1::shared_ptr<sio::socket>)::$_0, std::__ndk1::allocator<setSocket(std::__ndk1::shared_ptr<sio::socket>)::$_0>, void (std::__ndk1::basic_string<char, std::__ndk1::char_traits<char>, std::__ndk1::allocator<char> > const&, std::__ndk1::shared_ptr<sio::message> const&, bool, sio::message&::list)>::target(std::type_info const&) const
PUBLIC aa868 0 std::__ndk1::__function::__func<setSocket(std::__ndk1::shared_ptr<sio::socket>)::$_0, std::__ndk1::allocator<setSocket(std::__ndk1::shared_ptr<sio::socket>)::$_0>, void (std::__ndk1::basic_string<char, std::__ndk1::char_traits<char>, std::__ndk1::allocator<char> > const&, std::__ndk1::shared_ptr<sio::message> const&, bool, sio::message&::list)>::target_type() const
PUBLIC aa874 0 std::__ndk1::__function::__base<void (std::__ndk1::basic_string<char, std::__ndk1::char_traits<char>, std::__ndk1::allocator<char> > const&, std::__ndk1::shared_ptr<sio::message> const&, bool, sio::message&::list)>::~__base()
PUBLIC aa878 0 std::__ndk1::__function::__func<setSocket(std::__ndk1::shared_ptr<sio::socket>)::$_1, std::__ndk1::allocator<setSocket(std::__ndk1::shared_ptr<sio::socket>)::$_1>, void (std::__ndk1::basic_string<char, std::__ndk1::char_traits<char>, std::__ndk1::allocator<char> > const&, std::__ndk1::shared_ptr<sio::message> const&, bool, sio::message&::list)>::~__func()
PUBLIC aa87c 0 std::__ndk1::__function::__func<setSocket(std::__ndk1::shared_ptr<sio::socket>)::$_1, std::__ndk1::allocator<setSocket(std::__ndk1::shared_ptr<sio::socket>)::$_1>, void (std::__ndk1::basic_string<char, std::__ndk1::char_traits<char>, std::__ndk1::allocator<char> > const&, std::__ndk1::shared_ptr<sio::message> const&, bool, sio::message&::list)>::__clone() const
PUBLIC aa8a0 0 std::__ndk1::__function::__func<setSocket(std::__ndk1::shared_ptr<sio::socket>)::$_1, std::__ndk1::allocator<setSocket(std::__ndk1::shared_ptr<sio::socket>)::$_1>, void (std::__ndk1::basic_string<char, std::__ndk1::char_traits<char>, std::__ndk1::allocator<char> > const&, std::__ndk1::shared_ptr<sio::message> const&, bool, sio::message&::list)>::__clone(std::__ndk1::__function::__base<void (std::__ndk1::basic_string<char, std::__ndk1::char_traits<char>, std::__ndk1::allocator<char> > const&, std::__ndk1::shared_ptr<sio::message> const&, bool, sio::message&::list)>*) const
PUBLIC aa8b0 0 std::__ndk1::__function::__func<setSocket(std::__ndk1::shared_ptr<sio::socket>)::$_1, std::__ndk1::allocator<setSocket(std::__ndk1::shared_ptr<sio::socket>)::$_1>, void (std::__ndk1::basic_string<char, std::__ndk1::char_traits<char>, std::__ndk1::allocator<char> > const&, std::__ndk1::shared_ptr<sio::message> const&, bool, sio::message&::list)>::destroy()
PUBLIC aa8b4 0 std::__ndk1::__function::__func<setSocket(std::__ndk1::shared_ptr<sio::socket>)::$_1, std::__ndk1::allocator<setSocket(std::__ndk1::shared_ptr<sio::socket>)::$_1>, void (std::__ndk1::basic_string<char, std::__ndk1::char_traits<char>, std::__ndk1::allocator<char> > const&, std::__ndk1::shared_ptr<sio::message> const&, bool, sio::message&::list)>::destroy_deallocate()
PUBLIC aa8b8 0 std::__ndk1::__function::__func<setSocket(std::__ndk1::shared_ptr<sio::socket>)::$_1, std::__ndk1::allocator<setSocket(std::__ndk1::shared_ptr<sio::socket>)::$_1>, void (std::__ndk1::basic_string<char, std::__ndk1::char_traits<char>, std::__ndk1::allocator<char> > const&, std::__ndk1::shared_ptr<sio::message> const&, bool, sio::message&::list)>::operator()(std::__ndk1::basic_string<char, std::__ndk1::char_traits<char>, std::__ndk1::allocator<char> > const&, std::__ndk1::shared_ptr<sio::message> const&, bool&&, sio::message&::list)
PUBLIC aa91c 0 std::__ndk1::__function::__func<setSocket(std::__ndk1::shared_ptr<sio::socket>)::$_1, std::__ndk1::allocator<setSocket(std::__ndk1::shared_ptr<sio::socket>)::$_1>, void (std::__ndk1::basic_string<char, std::__ndk1::char_traits<char>, std::__ndk1::allocator<char> > const&, std::__ndk1::shared_ptr<sio::message> const&, bool, sio::message&::list)>::target(std::type_info const&) const
PUBLIC aa938 0 std::__ndk1::__function::__func<setSocket(std::__ndk1::shared_ptr<sio::socket>)::$_1, std::__ndk1::allocator<setSocket(std::__ndk1::shared_ptr<sio::socket>)::$_1>, void (std::__ndk1::basic_string<char, std::__ndk1::char_traits<char>, std::__ndk1::allocator<char> > const&, std::__ndk1::shared_ptr<sio::message> const&, bool, sio::message&::list)>::target_type() const
PUBLIC aa944 0 std::__ndk1::__function::__base<void ()>::~__base()
PUBLIC aa948 0 std::__ndk1::__function::__func<void (*)(), std::__ndk1::allocator<void (*)()>, void ()>::~__func()
PUBLIC aa94c 0 std::__ndk1::__function::__func<void (*)(), std::__ndk1::allocator<void (*)()>, void ()>::__clone() const
PUBLIC aa980 0 std::__ndk1::__function::__func<void (*)(), std::__ndk1::allocator<void (*)()>, void ()>::__clone(std::__ndk1::__function::__base<void ()>*) const
PUBLIC aa994 0 std::__ndk1::__function::__func<void (*)(), std::__ndk1::allocator<void (*)()>, void ()>::destroy()
PUBLIC aa998 0 std::__ndk1::__function::__func<void (*)(), std::__ndk1::allocator<void (*)()>, void ()>::destroy_deallocate()
PUBLIC aa99c 0 std::__ndk1::__function::__func<void (*)(), std::__ndk1::allocator<void (*)()>, void ()>::operator()()
PUBLIC aa9a4 0 std::__ndk1::__function::__func<void (*)(), std::__ndk1::allocator<void (*)()>, void ()>::target(std::type_info const&) const
PUBLIC aa9c0 0 std::__ndk1::__function::__func<void (*)(), std::__ndk1::allocator<void (*)()>, void ()>::target_type() const
PUBLIC aa9cc 0 std::__ndk1::__function::__func<void (*)(sio::client::close_reason const&), std::__ndk1::allocator<void (*)(sio::client::close_reason const&)>, void (sio::client::close_reason const&)>::~__func()
PUBLIC aa9d0 0 std::__ndk1::__function::__func<void (*)(sio::client::close_reason const&), std::__ndk1::allocator<void (*)(sio::client::close_reason const&)>, void (sio::client::close_reason const&)>::__clone() const
PUBLIC aaa04 0 std::__ndk1::__function::__func<void (*)(sio::client::close_reason const&), std::__ndk1::allocator<void (*)(sio::client::close_reason const&)>, void (sio::client::close_reason const&)>::__clone(std::__ndk1::__function::__base<void (sio::client::close_reason const&)>*) const
PUBLIC aaa18 0 std::__ndk1::__function::__func<void (*)(sio::client::close_reason const&), std::__ndk1::allocator<void (*)(sio::client::close_reason const&)>, void (sio::client::close_reason const&)>::destroy()
PUBLIC aaa1c 0 std::__ndk1::__function::__func<void (*)(sio::client::close_reason const&), std::__ndk1::allocator<void (*)(sio::client::close_reason const&)>, void (sio::client::close_reason const&)>::destroy_deallocate()
PUBLIC aaa20 0 std::__ndk1::__function::__func<void (*)(sio::client::close_reason const&), std::__ndk1::allocator<void (*)(sio::client::close_reason const&)>, void (sio::client::close_reason const&)>::operator()(sio::client::close_reason const&)
PUBLIC aaa2c 0 std::__ndk1::__function::__func<void (*)(sio::client::close_reason const&), std::__ndk1::allocator<void (*)(sio::client::close_reason const&)>, void (sio::client::close_reason const&)>::target(std::type_info const&) const
PUBLIC aaa48 0 std::__ndk1::__function::__func<void (*)(sio::client::close_reason const&), std::__ndk1::allocator<void (*)(sio::client::close_reason const&)>, void (sio::client::close_reason const&)>::target_type() const
PUBLIC aaa54 0 std::__ndk1::__function::__base<void (sio::client::close_reason const&)>::~__base()
PUBLIC aaa58 0 std::__ndk1::__function::__base<void (std::__ndk1::shared_ptr<sio::message> const&)>::~__base()
PUBLIC aaa5c 0 std::__ndk1::__function::__func<void (*)(std::__ndk1::shared_ptr<sio::message> const&), std::__ndk1::allocator<void (*)(std::__ndk1::shared_ptr<sio::message> const&)>, void (std::__ndk1::shared_ptr<sio::message> const&)>::~__func()
PUBLIC aaa60 0 std::__ndk1::__function::__func<void (*)(std::__ndk1::shared_ptr<sio::message> const&), std::__ndk1::allocator<void (*)(std::__ndk1::shared_ptr<sio::message> const&)>, void (std::__ndk1::shared_ptr<sio::message> const&)>::__clone() const
PUBLIC aaa94 0 std::__ndk1::__function::__func<void (*)(std::__ndk1::shared_ptr<sio::message> const&), std::__ndk1::allocator<void (*)(std::__ndk1::shared_ptr<sio::message> const&)>, void (std::__ndk1::shared_ptr<sio::message> const&)>::__clone(std::__ndk1::__function::__base<void (std::__ndk1::shared_ptr<sio::message> const&)>*) const
PUBLIC aaaa8 0 std::__ndk1::__function::__func<void (*)(std::__ndk1::shared_ptr<sio::message> const&), std::__ndk1::allocator<void (*)(std::__ndk1::shared_ptr<sio::message> const&)>, void (std::__ndk1::shared_ptr<sio::message> const&)>::destroy()
PUBLIC aaaac 0 std::__ndk1::__function::__func<void (*)(std::__ndk1::shared_ptr<sio::message> const&), std::__ndk1::allocator<void (*)(std::__ndk1::shared_ptr<sio::message> const&)>, void (std::__ndk1::shared_ptr<sio::message> const&)>::destroy_deallocate()
PUBLIC aaab0 0 std::__ndk1::__function::__func<void (*)(std::__ndk1::shared_ptr<sio::message> const&), std::__ndk1::allocator<void (*)(std::__ndk1::shared_ptr<sio::message> const&)>, void (std::__ndk1::shared_ptr<sio::message> const&)>::operator()(std::__ndk1::shared_ptr<sio::message> const&)
PUBLIC aaabc 0 std::__ndk1::__function::__func<void (*)(std::__ndk1::shared_ptr<sio::message> const&), std::__ndk1::allocator<void (*)(std::__ndk1::shared_ptr<sio::message> const&)>, void (std::__ndk1::shared_ptr<sio::message> const&)>::target(std::type_info const&) const
PUBLIC aaad8 0 std::__ndk1::__function::__func<void (*)(std::__ndk1::shared_ptr<sio::message> const&), std::__ndk1::allocator<void (*)(std::__ndk1::shared_ptr<sio::message> const&)>, void (std::__ndk1::shared_ptr<sio::message> const&)>::target_type() const
PUBLIC aaae4 0 geode::modifier::ModifyDerive<hook131<(anonymous namespace)::hook131Parent>, cocos2d::CCScheduler>::apply()
PUBLIC aaeb4 0 geode::modifier::ModifyBase<geode::modifier::ModifyDerive<hook131<(anonymous namespace)::hook131Parent>, cocos2d::CCScheduler> >::apply()
PUBLIC aaeb8 0 geode::modifier::AsStaticFunction_update<hook131<(anonymous namespace)::hook131Parent>, void (hook131<(anonymous namespace)::hook131Parent>::*)(float)>::Impl<void (hook131<(anonymous namespace)::hook131Parent>::*)(float)>::function(hook131<(anonymous namespace)::hook131Parent>*, float)
PUBLIC ab438 0 geode::addresser::Addresser::addressOfVirtual<void, cocos2d::CCScheduler, float>(void (cocos2d::CCScheduler::*)(float))
PUBLIC ab530 0 std::__ndk1::thread::thread<void (&)(), , void>(&&)
PUBLIC ab620 0 geode::Mod::addCustomSetting<SettingTestValue, char [5]>(std::__ndk1::basic_string_view<char, std::__ndk1::char_traits<char> >, char const (&) [5])
PUBLIC ab858 0 geode::Mod::addCustomSetting<SettingPosValue, int>(std::__ndk1::basic_string_view<char, std::__ndk1::char_traits<char> >, int const&)
PUBLIC aba84 0 geode::Mod::addCustomSetting<SettingSectionValue, char [5]>(std::__ndk1::basic_string_view<char, std::__ndk1::char_traits<char> >, char const (&) [5])
PUBLIC abcbc 0 geode::Mod::addCustomSetting<SettingAppValue, char [12]>(std::__ndk1::basic_string_view<char, std::__ndk1::char_traits<char> >, char const (&) [12])
PUBLIC abef4 0 geode::Mod::addCustomSetting<SettingCreditsValue, char [5]>(std::__ndk1::basic_string_view<char, std::__ndk1::char_traits<char> >, char const (&) [5])
PUBLIC ac12c 0 std::__ndk1::__thread_proxy[abi:v170000]<std::__ndk1::tuple<std::__ndk1::unique_ptr<std::__ndk1::__thread_struct, std::__ndk1::default_delete<std::__ndk1::unique_ptr> >, void (*)()> >(std::__ndk1::tuple<std::__ndk1::unique_ptr<std::__ndk1::__thread_struct, std::__ndk1::default_delete<std::__ndk1::unique_ptr> >, void (*)()>)
PUBLIC ac1e4 0 std::__ndk1::unique_ptr<std::__ndk1::tuple<std::__ndk1::unique_ptr<std::__ndk1::__thread_struct, std::__ndk1::default_delete<std::__ndk1::__thread_struct> >, void (*)()>, std::__ndk1::default_delete<std::__ndk1::tuple<std::__ndk1::unique_ptr<std::__ndk1::__thread_struct, std::__ndk1::default_delete<std::__ndk1::__thread_struct> >, void (*)()> > >::~unique_ptr[abi:v170000]()
PUBLIC ac234 0 std::__ndk1::unique_ptr<std::__ndk1::__thread_struct, std::__ndk1::default_delete<std::__ndk1::__thread_struct> >::~unique_ptr[abi:v170000]()
PUBLIC ac270 0 std::__ndk1::make_unique[abi:v170000]<SettingTestValue, std::__ndk1::basic_string<char, std::__ndk1::char_traits<char>, std::__ndk1::allocator<char> >, std::__ndk1::allocator<char>, char const (&) [5]>(std::__ndk1::basic_string<char, std::__ndk1::char_traits<char>, std::__ndk1::allocator<char> >&&, std::__ndk1::allocator<char>, char const (&) [5])
PUBLIC ac464 0 std::__ndk1::make_unique[abi:v170000]<SettingSectionValue, std::__ndk1::basic_string<char, std::__ndk1::char_traits<char>, std::__ndk1::allocator<char> >, std::__ndk1::allocator<char>, char const (&) [5]>(std::__ndk1::basic_string<char, std::__ndk1::char_traits<char>, std::__ndk1::allocator<char> >&&, std::__ndk1::allocator<char>, char const (&) [5])
PUBLIC ac658 0 std::__ndk1::make_unique[abi:v170000]<SettingAppValue, std::__ndk1::basic_string<char, std::__ndk1::char_traits<char>, std::__ndk1::allocator<char> >, std::__ndk1::allocator<char>, char const (&) [12]>(std::__ndk1::basic_string<char, std::__ndk1::char_traits<char>, std::__ndk1::allocator<char> >&&, std::__ndk1::allocator<char>, char const (&) [12])
PUBLIC ac84c 0 std::__ndk1::make_unique[abi:v170000]<SettingCreditsValue, std::__ndk1::basic_string<char, std::__ndk1::char_traits<char>, std::__ndk1::allocator<char> >, std::__ndk1::allocator<char>, char const (&) [5]>(std::__ndk1::basic_string<char, std::__ndk1::char_traits<char>, std::__ndk1::allocator<char> >&&, std::__ndk1::allocator<char>, char const (&) [5])
PUBLIC aca40 0 geode::EventListener<geode::ModStateFilter>::getPool() const
PUBLIC aca44 0 geode::EventListener<geode::ModStateFilter>::handle(geode::Event*)
PUBLIC acb4c 0 geode::EventListener<geode::ModStateFilter>::~EventListener()
PUBLIC acb8c 0 geode::EventListener<geode::ModStateFilter>::~EventListener()
PUBLIC acbd4 0 geode::utils::MiniFunctionStateBase<void, geode::ModStateEvent*>::~MiniFunctionStateBase()
PUBLIC acbd8 0 geode::utils::MiniFunctionState<void (*)(geode::ModStateEvent*), void, geode::ModStateEvent*>::~MiniFunctionState()
PUBLIC acbdc 0 geode::utils::MiniFunctionState<void (*)(geode::ModStateEvent*), void, geode::ModStateEvent*>::call(geode::ModStateEvent*) const
PUBLIC acbe8 0 geode::utils::MiniFunctionState<void (*)(geode::ModStateEvent*), void, geode::ModStateEvent*>::clone() const
PUBLIC acc1c 0 geode::getMod()
PUBLIC acc58 0 _GLOBAL__sub_I_entry.cpp
PUBLIC acca4 0 std::__ndk1::vector<int, std::__ndk1::allocator<int> >::~vector[abi:v170000]()
PUBLIC m accbc 0 sio::client::client()
PUBLIC m acd48 0 sio::client::~client()
PUBLIC acd80 0 sio::client::set_open_listener(std::__ndk1::function<void ()> const&)
PUBLIC ace54 0 sio::client::set_fail_listener(std::__ndk1::function<void ()> const&)
PUBLIC acf28 0 sio::client::set_close_listener(std::__ndk1::function<void (sio::client::close_reason const&)> const&)
PUBLIC acffc 0 sio::client::connect(std::__ndk1::basic_string<char, std::__ndk1::char_traits<char>, std::__ndk1::allocator<char> > const&)
PUBLIC ad0f8 0 sio::client::socket(std::__ndk1::basic_string<char, std::__ndk1::char_traits<char>, std::__ndk1::allocator<char> > const&)
PUBLIC ad100 0 sio::client::set_reconnect_attempts(int)
PUBLIC ad10c 0 sio::client::set_reconnect_delay(unsigned int)
PUBLIC ad128 0 sio::client::set_reconnect_delay_max(unsigned int)
PUBLIC ad144 0 __cxx_global_var_init.7
PUBLIC m ad1a4 0 asio::detail::posix_tss_ptr<asio::detail::call_stack<asio::detail::thread_context, asio::detail::thread_info_base>::context>::~posix_tss_ptr()
PUBLIC ad1c0 0 __cxx_global_var_init.8
PUBLIC ad1dc 0 __cxx_global_var_init.9
PUBLIC ad1f8 0 __cxx_global_var_init.10
PUBLIC m ad230 0 asio::detail::posix_global_impl<asio::system_context>::~posix_global_impl()
PUBLIC ad270 0 __cxx_global_var_init.11
PUBLIC m ad2d0 0 asio::detail::posix_tss_ptr<asio::detail::call_stack<asio::detail::strand_service::strand_impl, unsigned char>::context>::~posix_tss_ptr()
PUBLIC ad2ec 0 __cxx_global_var_init.12
PUBLIC ad308 0 __cxx_global_var_init.13
PUBLIC ad324 0 __cxx_global_var_init.14
PUBLIC ad340 0 __cxx_global_var_init.15
PUBLIC ad35c 0 __cxx_global_var_init.16
PUBLIC m ad3bc 0 asio::detail::posix_tss_ptr<asio::detail::call_stack<asio::detail::strand_executor_service::strand_impl, unsigned char>::context>::~posix_tss_ptr()
PUBLIC ad3d8 0 __cxx_global_var_init.17
PUBLIC m ad3f4 0 asio::detail::system_category::~system_category()
PUBLIC m ad418 0 asio::detail::system_category::name() const
PUBLIC m ad424 0 asio::detail::system_category::message(int) const
PUBLIC m ad54c 0 asio::error::detail::netdb_category::~netdb_category()
PUBLIC m ad570 0 asio::error::detail::netdb_category::name() const
PUBLIC m ad57c 0 asio::error::detail::netdb_category::message(int) const
PUBLIC m ad708 0 asio::error::detail::addrinfo_category::~addrinfo_category()
PUBLIC m ad72c 0 asio::error::detail::addrinfo_category::name() const
PUBLIC m ad738 0 asio::error::detail::addrinfo_category::message(int) const
PUBLIC m ad7f8 0 asio::error::detail::misc_category::~misc_category()
PUBLIC m ad81c 0 asio::error::detail::misc_category::name() const
PUBLIC m ad828 0 asio::error::detail::misc_category::message(int) const
PUBLIC ad968 0 std::__ndk1::__function::__value_func<void ()>::swap[abi:v170000](std::__ndk1::__function::__value_func<void ()>&)
PUBLIC adb00 0 std::__ndk1::__function::__value_func<void (sio::client::close_reason const&)>::swap[abi:v170000](std::__ndk1::__function::__value_func<void (sio::client::close_reason const&)>&)
PUBLIC m adc98 0 asio::detail::posix_tss_ptr_create(int&)
PUBLIC m adde4 0 asio::system_context::~system_context()
PUBLIC m adf20 0 asio::detail::scheduler::stop()
PUBLIC ae030 0 asio::detail::thread_group::~thread_group()
PUBLIC m ae0bc 0 asio::detail::conditionally_enabled_mutex::scoped_lock::~scoped_lock()
PUBLIC ae0e4 0 std::__ndk1::__tree<std::__ndk1::__value_type<std::__ndk1::basic_string<char, std::__ndk1::char_traits<char>, std::__ndk1::allocator<char> >, std::__ndk1::basic_string<char, std::__ndk1::char_traits<char>, std::__ndk1::allocator<char> > >, std::__ndk1::__map_value_compare<std::__ndk1::basic_string<char, std::__ndk1::char_traits<char>, std::__ndk1::allocator<char> >, std::__ndk1::__value_type<std::__ndk1::basic_string<char, std::__ndk1::char_traits<char>, std::__ndk1::allocator<char> >, std::__ndk1::basic_string<char, std::__ndk1::char_traits<char>, std::__ndk1::allocator<char> > >, std::__ndk1::less<std::__ndk1::basic_string<char, std::__ndk1::char_traits<char>, std::__ndk1::allocator<char> > >, true>, std::__ndk1::allocator<std::__ndk1::__value_type<std::__ndk1::basic_string<char, std::__ndk1::char_traits<char>, std::__ndk1::allocator<char> >, std::__ndk1::basic_string<char, std::__ndk1::char_traits<char>, std::__ndk1::allocator<char> > > > >::destroy(std::__ndk1::__tree_node<std::__ndk1::__value_type<std::__ndk1::basic_string<char, std::__ndk1::char_traits<char>, std::__ndk1::allocator<char> >, std::__ndk1::basic_string<char, std::__ndk1::char_traits<char>, std::__ndk1::allocator<char> > >, void*>*)
PUBLIC ae15c 0 _GLOBAL__sub_I_sio_client.cpp
PUBLIC ae364 0 sio::socket::impl::on(std::__ndk1::basic_string<char, std::__ndk1::char_traits<char>, std::__ndk1::allocator<char> > const&, std::__ndk1::function<void (std::__ndk1::basic_string<char, std::__ndk1::char_traits<char>, std::__ndk1::allocator<char> > const&, std::__ndk1::shared_ptr<sio::message> const&, bool, sio::message&::list)> const&)
PUBLIC ae584 0 sio::socket::impl::on(std::__ndk1::basic_string<char, std::__ndk1::char_traits<char>, std::__ndk1::allocator<char> > const&, std::__ndk1::function<void (sio::event&)> const&)
PUBLIC m ae6bc 0 sio::socket::impl::impl(sio::client_impl*, std::__ndk1::basic_string<char, std::__ndk1::char_traits<char>, std::__ndk1::allocator<char> > const&, std::__ndk1::shared_ptr<sio::message> const&)
PUBLIC ae85c 0 sio::socket::impl::send_connect()
PUBLIC aeabc 0 std::__ndk1::unique_ptr<asio::basic_waitable_timer<std::__ndk1::chrono::steady_clock, asio::wait_traits<std::__ndk1::chrono::steady_clock> >, std::__ndk1::default_delete<asio::basic_waitable_timer<std::__ndk1::chrono::steady_clock, asio::wait_traits<std::__ndk1::chrono::steady_clock> > > >::~unique_ptr[abi:v170000]()
PUBLIC m aeaf8 0 sio::socket::impl::~impl()
PUBLIC aebe4 0 sio::socket::impl::emit(std::__ndk1::basic_string<char, std::__ndk1::char_traits<char>, std::__ndk1::allocator<char> > const&, sio::message::list const&, std::__ndk1::function<void (sio::message::list const&)> const&)
PUBLIC aeefc 0 sio::message::list::to_array_message(std::__ndk1::basic_string<char, std::__ndk1::char_traits<char>, std::__ndk1::allocator<char> > const&) const
PUBLIC af0fc 0 sio::socket::impl::send_packet(sio::packet&)
PUBLIC af4a4 0 sio::packet::~packet()
PUBLIC af584 0 sio::socket::impl::timeout_connection(std::__ndk1::error_code const&)
PUBLIC af5dc 0 sio::socket::impl::close()
PUBLIC af87c 0 sio::socket::impl::on_close()
PUBLIC af9ec 0 sio::socket::impl::on_connected()
PUBLIC afd08 0 sio::socket::impl::on_disconnect()
PUBLIC afe04 0 sio::socket::impl::on_message_packet(sio::packet const&)
PUBLIC b033c 0 sio::socket::impl::on_socketio_event(std::__ndk1::basic_string<char, std::__ndk1::char_traits<char>, std::__ndk1::allocator<char> > const&, int, std::__ndk1::basic_string<char, std::__ndk1::char_traits<char>, std::__ndk1::allocator<char> > const&, sio::message::list&&)
PUBLIC b0588 0 sio::message::list::list<std::__ndk1::vector<std::__ndk1::shared_ptr<sio::message>, std::__ndk1::allocator<std::__ndk1::shared_ptr<sio::message> > >&>(std::__ndk1::enable_if<std::is_same<std::__ndk1::vector<std::__ndk1::shared_ptr<sio::message>, std::__ndk1::allocator<std::__ndk1::shared_ptr<sio::message> > >, std::__ndk1::remove_reference<std::__ndk1::vector<std::__ndk1::shared_ptr<sio::message>, std::__ndk1::allocator<std::__ndk1::shared_ptr<sio::message> > >&>::type>::value, void>::type*)
PUBLIC b06a0 0 sio::socket::impl::on_socketio_ack(int, sio::message::list const&)
PUBLIC b092c 0 sio::socket::impl::ack(int, std::__ndk1::basic_string<char, std::__ndk1::char_traits<char>, std::__ndk1::allocator<char> > const&, sio::message::list const&)
PUBLIC b0b34 0 sio::event::~event()
PUBLIC m b0c54 0 sio::socket::socket(sio::client_impl*, std::__ndk1::basic_string<char, std::__ndk1::char_traits<char>, std::__ndk1::allocator<char> > const&, std::__ndk1::shared_ptr<sio::message> const&)
PUBLIC m b0cc0 0 sio::socket::~socket()
PUBLIC b0cf8 0 sio::socket::on(std::__ndk1::basic_string<char, std::__ndk1::char_traits<char>, std::__ndk1::allocator<char> > const&, std::__ndk1::function<void (std::__ndk1::basic_string<char, std::__ndk1::char_traits<char>, std::__ndk1::allocator<char> > const&, std::__ndk1::shared_ptr<sio::message> const&, bool, sio::message&::list)> const&)
PUBLIC b0d00 0 sio::socket::close()
PUBLIC b0d08 0 sio::socket::on_error(std::__ndk1::function<void (std::__ndk1::shared_ptr<sio::message> const&)> const&)
PUBLIC b0ddc 0 sio::socket::emit(std::__ndk1::basic_string<char, std::__ndk1::char_traits<char>, std::__ndk1::allocator<char> > const&, sio::message::list const&, std::__ndk1::function<void (sio::message::list const&)> const&)
PUBLIC b0de4 0 sio::socket::on_close()
PUBLIC b0dec 0 sio::socket::on_open()
PUBLIC b0df4 0 sio::socket::on_message_packet(sio::packet const&)
PUBLIC b0dfc 0 sio::socket::on_disconnect()
PUBLIC b0e04 0 __cxx_global_var_init.18
PUBLIC b0e20 0 std::__ndk1::vector<std::__ndk1::shared_ptr<sio::message>, std::__ndk1::allocator<std::__ndk1::shared_ptr<sio::message> > >::__throw_length_error[abi:v170000]() const
PUBLIC b0e34 0 sio::event_adapter::adapt_func(std::__ndk1::function<void (std::__ndk1::basic_string<char, std::__ndk1::char_traits<char>, std::__ndk1::allocator<char> > const&, std::__ndk1::shared_ptr<sio::message> const&, bool, sio::message&::list)> const&, sio::event&)
PUBLIC b0f48 0 std::__ndk1::__throw_bad_function_call[abi:v170000]()
PUBLIC m b0f7c 0 std::__ndk1::bad_function_call::~bad_function_call()
PUBLIC b0fa0 0 std::__ndk1::__function::__func<std::__ndk1::__bind<void (*)(std::__ndk1::function<void (std::__ndk1::basic_string<char, std::__ndk1::char_traits<char>, std::__ndk1::allocator<char> > const&, std::__ndk1::shared_ptr<sio::message> const&, bool, sio::message&::list)> const&, sio::event&), std::__ndk1::function<void (std::__ndk1::basic_string<char, std::__ndk1::char_traits<char>, std::__ndk1::allocator<char> > const&, std::__ndk1::shared_ptr<sio::message> const&, bool, sio::message&::list)> const&, std::__ndk1::placeholders::__ph<1> const&>, std::__ndk1::allocator<std::__ndk1::__bind<void (*)(std::__ndk1::function<void (std::__ndk1::basic_string<char, std::__ndk1::char_traits<char>, std::__ndk1::allocator<char> > const&, std::__ndk1::shared_ptr<sio::message> const&, bool, sio::message&::list)> const&, sio::event&), std::__ndk1::function<void (std::__ndk1::basic_string<char, std::__ndk1::char_traits<char>, std::__ndk1::allocator<char> > const&, std::__ndk1::shared_ptr<sio::message> const&, bool, sio::message&::list)> const&, std::__ndk1::placeholders::__ph<1> const&> >, void (sio::event&)>::~__func()
PUBLIC b0fe4 0 std::__ndk1::__function::__func<std::__ndk1::__bind<void (*)(std::__ndk1::function<void (std::__ndk1::basic_string<char, std::__ndk1::char_traits<char>, std::__ndk1::allocator<char> > const&, std::__ndk1::shared_ptr<sio::message> const&, bool, sio::message&::list)> const&, sio::event&), std::__ndk1::function<void (std::__ndk1::basic_string<char, std::__ndk1::char_traits<char>, std::__ndk1::allocator<char> > const&, std::__ndk1::shared_ptr<sio::message> const&, bool, sio::message&::list)> const&, std::__ndk1::placeholders::__ph<1> const&>, std::__ndk1::allocator<std::__ndk1::__bind<void (*)(std::__ndk1::function<void (std::__ndk1::basic_string<char, std::__ndk1::char_traits<char>, std::__ndk1::allocator<char> > const&, std::__ndk1::shared_ptr<sio::message> const&, bool, sio::message&::list)> const&, sio::event&), std::__ndk1::function<void (std::__ndk1::basic_string<char, std::__ndk1::char_traits<char>, std::__ndk1::allocator<char> > const&, std::__ndk1::shared_ptr<sio::message> const&, bool, sio::message&::list)> const&, std::__ndk1::placeholders::__ph<1> const&> >, void (sio::event&)>::~__func()
PUBLIC b1044 0 std::__ndk1::__function::__func<std::__ndk1::__bind<void (*)(std::__ndk1::function<void (std::__ndk1::basic_string<char, std::__ndk1::char_traits<char>, std::__ndk1::allocator<char> > const&, std::__ndk1::shared_ptr<sio::message> const&, bool, sio::message&::list)> const&, sio::event&), std::__ndk1::function<void (std::__ndk1::basic_string<char, std::__ndk1::char_traits<char>, std::__ndk1::allocator<char> > const&, std::__ndk1::shared_ptr<sio::message> const&, bool, sio::message&::list)> const&, std::__ndk1::placeholders::__ph<1> const&>, std::__ndk1::allocator<std::__ndk1::__bind<void (*)(std::__ndk1::function<void (std::__ndk1::basic_string<char, std::__ndk1::char_traits<char>, std::__ndk1::allocator<char> > const&, std::__ndk1::shared_ptr<sio::message> const&, bool, sio::message&::list)> const&, sio::event&), std::__ndk1::function<void (std::__ndk1::basic_string<char, std::__ndk1::char_traits<char>, std::__ndk1::allocator<char> > const&, std::__ndk1::shared_ptr<sio::message> const&, bool, sio::message&::list)> const&, std::__ndk1::placeholders::__ph<1> const&> >, void (sio::event&)>::__clone() const
PUBLIC b10d4 0 std::__ndk1::__function::__func<std::__ndk1::__bind<void (*)(std::__ndk1::function<void (std::__ndk1::basic_string<char, std::__ndk1::char_traits<char>, std::__ndk1::allocator<char> > const&, std::__ndk1::shared_ptr<sio::message> const&, bool, sio::message&::list)> const&, sio::event&), std::__ndk1::function<void (std::__ndk1::basic_string<char, std::__ndk1::char_traits<char>, std::__ndk1::allocator<char> > const&, std::__ndk1::shared_ptr<sio::message> const&, bool, sio::message&::list)> const&, std::__ndk1::placeholders::__ph<1> const&>, std::__ndk1::allocator<std::__ndk1::__bind<void (*)(std::__ndk1::function<void (std::__ndk1::basic_string<char, std::__ndk1::char_traits<char>, std::__ndk1::allocator<char> > const&, std::__ndk1::shared_ptr<sio::message> const&, bool, sio::message&::list)> const&, sio::event&), std::__ndk1::function<void (std::__ndk1::basic_string<char, std::__ndk1::char_traits<char>, std::__ndk1::allocator<char> > const&, std::__ndk1::shared_ptr<sio::message> const&, bool, sio::message&::list)> const&, std::__ndk1::placeholders::__ph<1> const&> >, void (sio::event&)>::__clone(std::__ndk1::__function::__base<void (sio::event&)>*) const
PUBLIC b115c 0 std::__ndk1::__function::__func<std::__ndk1::__bind<void (*)(std::__ndk1::function<void (std::__ndk1::basic_string<char, std::__ndk1::char_traits<char>, std::__ndk1::allocator<char> > const&, std::__ndk1::shared_ptr<sio::message> const&, bool, sio::message&::list)> const&, sio::event&), std::__ndk1::function<void (std::__ndk1::basic_string<char, std::__ndk1::char_traits<char>, std::__ndk1::allocator<char> > const&, std::__ndk1::shared_ptr<sio::message> const&, bool, sio::message&::list)> const&, std::__ndk1::placeholders::__ph<1> const&>, std::__ndk1::allocator<std::__ndk1::__bind<void (*)(std::__ndk1::function<void (std::__ndk1::basic_string<char, std::__ndk1::char_traits<char>, std::__ndk1::allocator<char> > const&, std::__ndk1::shared_ptr<sio::message> const&, bool, sio::message&::list)> const&, sio::event&), std::__ndk1::function<void (std::__ndk1::basic_string<char, std::__ndk1::char_traits<char>, std::__ndk1::allocator<char> > const&, std::__ndk1::shared_ptr<sio::message> const&, bool, sio::message&::list)> const&, std::__ndk1::placeholders::__ph<1> const&> >, void (sio::event&)>::destroy()
PUBLIC b1194 0 std::__ndk1::__function::__func<std::__ndk1::__bind<void (*)(std::__ndk1::function<void (std::__ndk1::basic_string<char, std::__ndk1::char_traits<char>, std::__ndk1::allocator<char> > const&, std::__ndk1::shared_ptr<sio::message> const&, bool, sio::message&::list)> const&, sio::event&), std::__ndk1::function<void (std::__ndk1::basic_string<char, std::__ndk1::char_traits<char>, std::__ndk1::allocator<char> > const&, std::__ndk1::shared_ptr<sio::message> const&, bool, sio::message&::list)> const&, std::__ndk1::placeholders::__ph<1> const&>, std::__ndk1::allocator<std::__ndk1::__bind<void (*)(std::__ndk1::function<void (std::__ndk1::basic_string<char, std::__ndk1::char_traits<char>, std::__ndk1::allocator<char> > const&, std::__ndk1::shared_ptr<sio::message> const&, bool, sio::message&::list)> const&, sio::event&), std::__ndk1::function<void (std::__ndk1::basic_string<char, std::__ndk1::char_traits<char>, std::__ndk1::allocator<char> > const&, std::__ndk1::shared_ptr<sio::message> const&, bool, sio::message&::list)> const&, std::__ndk1::placeholders::__ph<1> const&> >, void (sio::event&)>::destroy_deallocate()
PUBLIC b11e8 0 std::__ndk1::__function::__func<std::__ndk1::__bind<void (*)(std::__ndk1::function<void (std::__ndk1::basic_string<char, std::__ndk1::char_traits<char>, std::__ndk1::allocator<char> > const&, std::__ndk1::shared_ptr<sio::message> const&, bool, sio::message&::list)> const&, sio::event&), std::__ndk1::function<void (std::__ndk1::basic_string<char, std::__ndk1::char_traits<char>, std::__ndk1::allocator<char> > const&, std::__ndk1::shared_ptr<sio::message> const&, bool, sio::message&::list)> const&, std::__ndk1::placeholders::__ph<1> const&>, std::__ndk1::allocator<std::__ndk1::__bind<void (*)(std::__ndk1::function<void (std::__ndk1::basic_string<char, std::__ndk1::char_traits<char>, std::__ndk1::allocator<char> > const&, std::__ndk1::shared_ptr<sio::message> const&, bool, sio::message&::list)> const&, sio::event&), std::__ndk1::function<void (std::__ndk1::basic_string<char, std::__ndk1::char_traits<char>, std::__ndk1::allocator<char> > const&, std::__ndk1::shared_ptr<sio::message> const&, bool, sio::message&::list)> const&, std::__ndk1::placeholders::__ph<1> const&> >, void (sio::event&)>::operator()(sio::event&)
PUBLIC b11f8 0 std::__ndk1::__function::__func<std::__ndk1::__bind<void (*)(std::__ndk1::function<void (std::__ndk1::basic_string<char, std::__ndk1::char_traits<char>, std::__ndk1::allocator<char> > const&, std::__ndk1::shared_ptr<sio::message> const&, bool, sio::message&::list)> const&, sio::event&), std::__ndk1::function<void (std::__ndk1::basic_string<char, std::__ndk1::char_traits<char>, std::__ndk1::allocator<char> > const&, std::__ndk1::shared_ptr<sio::message> const&, bool, sio::message&::list)> const&, std::__ndk1::placeholders::__ph<1> const&>, std::__ndk1::allocator<std::__ndk1::__bind<void (*)(std::__ndk1::function<void (std::__ndk1::basic_string<char, std::__ndk1::char_traits<char>, std::__ndk1::allocator<char> > const&, std::__ndk1::shared_ptr<sio::message> const&, bool, sio::message&::list)> const&, sio::event&), std::__ndk1::function<void (std::__ndk1::basic_string<char, std::__ndk1::char_traits<char>, std::__ndk1::allocator<char> > const&, std::__ndk1::shared_ptr<sio::message> const&, bool, sio::message&::list)> const&, std::__ndk1::placeholders::__ph<1> const&> >, void (sio::event&)>::target(std::type_info const&) const
PUBLIC b1214 0 std::__ndk1::__function::__func<std::__ndk1::__bind<void (*)(std::__ndk1::function<void (std::__ndk1::basic_string<char, std::__ndk1::char_traits<char>, std::__ndk1::allocator<char> > const&, std::__ndk1::shared_ptr<sio::message> const&, bool, sio::message&::list)> const&, sio::event&), std::__ndk1::function<void (std::__ndk1::basic_string<char, std::__ndk1::char_traits<char>, std::__ndk1::allocator<char> > const&, std::__ndk1::shared_ptr<sio::message> const&, bool, sio::message&::list)> const&, std::__ndk1::placeholders::__ph<1> const&>, std::__ndk1::allocator<std::__ndk1::__bind<void (*)(std::__ndk1::function<void (std::__ndk1::basic_string<char, std::__ndk1::char_traits<char>, std::__ndk1::allocator<char> > const&, std::__ndk1::shared_ptr<sio::message> const&, bool, sio::message&::list)> const&, sio::event&), std::__ndk1::function<void (std::__ndk1::basic_string<char, std::__ndk1::char_traits<char>, std::__ndk1::allocator<char> > const&, std::__ndk1::shared_ptr<sio::message> const&, bool, sio::message&::list)> const&, std::__ndk1::placeholders::__ph<1> const&> >, void (sio::event&)>::target_type() const
PUBLIC b1220 0 std::__ndk1::deque<sio::packet, std::__ndk1::allocator<sio::packet> >::~deque[abi:v170000]()
PUBLIC b13c0 0 std::__ndk1::allocator<sio::packet>::destroy[abi:v170000](sio::packet*)
PUBLIC b14a0 0 std::__ndk1::vector<std::__ndk1::shared_ptr<sio::message>, std::__ndk1::allocator<std::__ndk1::shared_ptr<sio::message> > >::insert<std::__ndk1::__wrap_iter<std::__ndk1::shared_ptr<sio::message> const*>, 0>(std::__ndk1::__wrap_iter<std::__ndk1::shared_ptr<sio::message> const*>, std::__ndk1::__wrap_iter<std::__ndk1::shared_ptr<sio::message> const*>, std::__ndk1::__wrap_iter<std::__ndk1::shared_ptr<sio::message> const*>)
PUBLIC b1830 0 sio::array_message::~array_message()
PUBLIC b18e4 0 sio::array_message::~array_message()
PUBLIC b1980 0 sio::array_message::get_vector() const
PUBLIC b1988 0 sio::array_message::get_vector()
PUBLIC b1990 0 std::__ndk1::__shared_ptr_pointer<sio::array_message*, std::__ndk1::shared_ptr<sio::message>::__shared_ptr_default_delete<sio::message, sio::array_message>, std::__ndk1::allocator<sio::array_message> >::~__shared_ptr_pointer()
PUBLIC b19b4 0 std::__ndk1::__shared_ptr_pointer<sio::array_message*, std::__ndk1::shared_ptr<sio::message>::__shared_ptr_default_delete<sio::message, sio::array_message>, std::__ndk1::allocator<sio::array_message> >::__on_zero_shared()
PUBLIC b19cc 0 std::__ndk1::__shared_ptr_pointer<sio::array_message*, std::__ndk1::shared_ptr<sio::message>::__shared_ptr_default_delete<sio::message, sio::array_message>, std::__ndk1::allocator<sio::array_message> >::__get_deleter(std::type_info const&) const
PUBLIC b19e8 0 std::__ndk1::__shared_ptr_pointer<sio::array_message*, std::__ndk1::shared_ptr<sio::message>::__shared_ptr_default_delete<sio::message, sio::array_message>, std::__ndk1::allocator<sio::array_message> >::__on_zero_shared_weak()
PUBLIC b19ec 0 std::__ndk1::vector<std::__ndk1::shared_ptr<sio::message>, std::__ndk1::allocator<std::__ndk1::shared_ptr<sio::message> > >::__push_back_slow_path<std::__ndk1::shared_ptr<sio::message> >(std::__ndk1::shared_ptr<sio::message>&&)
PUBLIC b1b28 0 std::__ndk1::vector<std::__ndk1::shared_ptr<sio::message>, std::__ndk1::allocator<std::__ndk1::shared_ptr<sio::message> > >::__push_back_slow_path<std::__ndk1::shared_ptr<sio::message> const&>(std::__ndk1::shared_ptr<sio::message> const&)
PUBLIC b1c8c 0 sio::message::list::list(sio::message::list const&)
PUBLIC b1da4 0 std::__ndk1::__function::__value_func<void (std::__ndk1::shared_ptr<sio::message> const&)>::swap[abi:v170000](std::__ndk1::__function::__value_func<void (std::__ndk1::shared_ptr<sio::message> const&)>&)
PUBLIC b1f3c 0 std::__ndk1::__tree<std::__ndk1::__value_type<std::__ndk1::basic_string<char, std::__ndk1::char_traits<char>, std::__ndk1::allocator<char> >, std::__ndk1::function<void (sio::event&)> >, std::__ndk1::__map_value_compare<std::__ndk1::basic_string<char, std::__ndk1::char_traits<char>, std::__ndk1::allocator<char> >, std::__ndk1::__value_type<std::__ndk1::basic_string<char, std::__ndk1::char_traits<char>, std::__ndk1::allocator<char> >, std::__ndk1::function<void (sio::event&)> >, std::__ndk1::less<std::__ndk1::basic_string<char, std::__ndk1::char_traits<char>, std::__ndk1::allocator<char> > >, true>, std::__ndk1::allocator<std::__ndk1::__value_type<std::__ndk1::basic_string<char, std::__ndk1::char_traits<char>, std::__ndk1::allocator<char> >, std::__ndk1::function<void (sio::event&)> > > >::__emplace_unique_key_args<std::__ndk1::basic_string<char, std::__ndk1::char_traits<char>, std::__ndk1::allocator<char> >, std::__ndk1::piecewise_construct_t const&, std::__ndk1::tuple<std::__ndk1::basic_string<char, std::__ndk1::char_traits<char>, std::__ndk1::allocator<char> > const&>, std::__ndk1::tuple<> >(std::__ndk1::basic_string<char, std::__ndk1::char_traits<char>, std::__ndk1::allocator<char> > const&, std::__ndk1::piecewise_construct_t const&, std::__ndk1::tuple<std::__ndk1::basic_string<char, std::__ndk1::char_traits<char>, std::__ndk1::allocator<char> > const&>, std::__ndk1::tuple<>)
PUBLIC b2048 0 std::__ndk1::__tree<std::__ndk1::__value_type<std::__ndk1::basic_string<char, std::__ndk1::char_traits<char>, std::__ndk1::allocator<char> >, std::__ndk1::function<void (sio::event&)> >, std::__ndk1::__map_value_compare<std::__ndk1::basic_string<char, std::__ndk1::char_traits<char>, std::__ndk1::allocator<char> >, std::__ndk1::__value_type<std::__ndk1::basic_string<char, std::__ndk1::char_traits<char>, std::__ndk1::allocator<char> >, std::__ndk1::function<void (sio::event&)> >, std::__ndk1::less<std::__ndk1::basic_string<char, std::__ndk1::char_traits<char>, std::__ndk1::allocator<char> > >, true>, std::__ndk1::allocator<std::__ndk1::__value_type<std::__ndk1::basic_string<char, std::__ndk1::char_traits<char>, std::__ndk1::allocator<char> >, std::__ndk1::function<void (sio::event&)> > > >::__find_equal<std::__ndk1::basic_string<char, std::__ndk1::char_traits<char>, std::__ndk1::allocator<char> > >(std::__ndk1::__tree_end_node<std::__ndk1::__tree_node_base<void*>*>*&, std::__ndk1::basic_string<char, std::__ndk1::char_traits<char>, std::__ndk1::allocator<char> > const&)
PUBLIC b2154 0 std::__ndk1::__function::__value_func<void (sio::event&)>::swap[abi:v170000](std::__ndk1::__function::__value_func<void (sio::event&)>&)
PUBLIC b22ec 0 std::__ndk1::__tree<std::__ndk1::__value_type<std::__ndk1::basic_string<char, std::__ndk1::char_traits<char>, std::__ndk1::allocator<char> >, std::__ndk1::function<void (sio::event&)> >, std::__ndk1::__map_value_compare<std::__ndk1::basic_string<char, std::__ndk1::char_traits<char>, std::__ndk1::allocator<char> >, std::__ndk1::__value_type<std::__ndk1::basic_string<char, std::__ndk1::char_traits<char>, std::__ndk1::allocator<char> >, std::__ndk1::function<void (sio::event&)> >, std::__ndk1::less<std::__ndk1::basic_string<char, std::__ndk1::char_traits<char>, std::__ndk1::allocator<char> > >, true>, std::__ndk1::allocator<std::__ndk1::__value_type<std::__ndk1::basic_string<char, std::__ndk1::char_traits<char>, std::__ndk1::allocator<char> >, std::__ndk1::function<void (sio::event&)> > > >::find<std::__ndk1::basic_string<char, std::__ndk1::char_traits<char>, std::__ndk1::allocator<char> > >(std::__ndk1::basic_string<char, std::__ndk1::char_traits<char>, std::__ndk1::allocator<char> > const&)
PUBLIC b242c 0 std::__ndk1::__tree<std::__ndk1::__value_type<std::__ndk1::basic_string<char, std::__ndk1::char_traits<char>, std::__ndk1::allocator<char> >, std::__ndk1::function<void (sio::event&)> >, std::__ndk1::__map_value_compare<std::__ndk1::basic_string<char, std::__ndk1::char_traits<char>, std::__ndk1::allocator<char> >, std::__ndk1::__value_type<std::__ndk1::basic_string<char, std::__ndk1::char_traits<char>, std::__ndk1::allocator<char> >, std::__ndk1::function<void (sio::event&)> >, std::__ndk1::less<std::__ndk1::basic_string<char, std::__ndk1::char_traits<char>, std::__ndk1::allocator<char> > >, true>, std::__ndk1::allocator<std::__ndk1::__value_type<std::__ndk1::basic_string<char, std::__ndk1::char_traits<char>, std::__ndk1::allocator<char> >, std::__ndk1::function<void (sio::event&)> > > >::destroy(std::__ndk1::__tree_node<std::__ndk1::__value_type<std::__ndk1::basic_string<char, std::__ndk1::char_traits<char>, std::__ndk1::allocator<char> >, std::__ndk1::function<void (sio::event&)> >, void*>*)
PUBLIC b24b0 0 std::__ndk1::__tree<std::__ndk1::__value_type<unsigned int, std::__ndk1::function<void (sio::message::list const&)> >, std::__ndk1::__map_value_compare<unsigned int, std::__ndk1::__value_type<unsigned int, std::__ndk1::function<void (sio::message::list const&)> >, std::__ndk1::less<unsigned int>, true>, std::__ndk1::allocator<std::__ndk1::__value_type<unsigned int, std::__ndk1::function<void (sio::message::list const&)> > > >::destroy(std::__ndk1::__tree_node<std::__ndk1::__value_type<unsigned int, std::__ndk1::function<void (sio::message::list const&)> >, void*>*)
PUBLIC b2524 0 std::__ndk1::__function::__value_func<void (sio::message::list const&)>::swap[abi:v170000](std::__ndk1::__function::__value_func<void (sio::message::list const&)>&)
PUBLIC m b26bc 0 asio::basic_io_object<asio::detail::deadline_timer_service<asio::detail::chrono_time_traits<std::__ndk1::chrono::steady_clock, asio::wait_traits<std::__ndk1::chrono::steady_clock> > >, true>::~basic_io_object()
PUBLIC m b2784 0 asio::detail::epoll_reactor::cancel_timer<asio::detail::chrono_time_traits<std::__ndk1::chrono::steady_clock, asio::wait_traits<std::__ndk1::chrono::steady_clock> > >(asio::detail::timer_queue<asio::detail::chrono_time_traits<std::__ndk1::chrono::steady_clock, asio::wait_traits<std::__ndk1::chrono::steady_clock> > >&, asio::detail::timer_queue<asio::detail::chrono_time_traits<std::__ndk1::chrono::steady_clock, asio::wait_traits<std::__ndk1::chrono::steady_clock> > >&::per_timer_data, unsigned long)
PUBLIC m b28c8 0 asio::detail::timer_queue<asio::detail::chrono_time_traits<std::__ndk1::chrono::steady_clock, asio::wait_traits<std::__ndk1::chrono::steady_clock> > >::cancel_timer(asio::detail::timer_queue<asio::detail::chrono_time_traits<std::__ndk1::chrono::steady_clock, asio::wait_traits<std::__ndk1::chrono::steady_clock> > >::per_timer_data&, asio::detail::op_queue<asio::detail::scheduler_operation>&, unsigned long)
PUBLIC m b2a54 0 asio::detail::scheduler::post_deferred_completions(asio::detail::op_queue<asio::detail::scheduler_operation>&)
PUBLIC m b2c5c 0 asio::detail::op_queue<asio::detail::scheduler_operation>::~op_queue()
PUBLIC m b2cf4 0 asio::detail::timer_queue<asio::detail::chrono_time_traits<std::__ndk1::chrono::steady_clock, asio::wait_traits<std::__ndk1::chrono::steady_clock> > >::remove_timer(asio::detail::timer_queue<asio::detail::chrono_time_traits<std::__ndk1::chrono::steady_clock, asio::wait_traits<std::__ndk1::chrono::steady_clock> > >::per_timer_data&)
PUBLIC m b2f20 0 asio::detail::service_registry::create<asio::detail::deadline_timer_service<asio::detail::chrono_time_traits<std::__ndk1::chrono::steady_clock, asio::wait_traits<std::__ndk1::chrono::steady_clock> > >, asio::io_context>(void*)
PUBLIC m b2f68 0 asio::detail::service_registry::do_use_service(asio::execution_context::service::key const&, asio::execution_context::service* (*)(void*), void*)
PUBLIC m b31ac 0 asio::detail::deadline_timer_service<asio::detail::chrono_time_traits<std::__ndk1::chrono::steady_clock, asio::wait_traits<std::__ndk1::chrono::steady_clock> > >::deadline_timer_service(asio::io_context&)
PUBLIC m b32f0 0 asio::detail::timer_queue<asio::detail::chrono_time_traits<std::__ndk1::chrono::steady_clock, asio::wait_traits<std::__ndk1::chrono::steady_clock> > >::~timer_queue()
PUBLIC m b3318 0 asio::detail::deadline_timer_service<asio::detail::chrono_time_traits<std::__ndk1::chrono::steady_clock, asio::wait_traits<std::__ndk1::chrono::steady_clock> > >::~deadline_timer_service()
PUBLIC m b33dc 0 asio::detail::deadline_timer_service<asio::detail::chrono_time_traits<std::__ndk1::chrono::steady_clock, asio::wait_traits<std::__ndk1::chrono::steady_clock> > >::~deadline_timer_service()
PUBLIC m b3400 0 asio::detail::deadline_timer_service<asio::detail::chrono_time_traits<std::__ndk1::chrono::steady_clock, asio::wait_traits<std::__ndk1::chrono::steady_clock> > >::shutdown()
PUBLIC m b3404 0 asio::io_context::service::notify_fork(asio::execution_context::fork_event)
PUBLIC m b3410 0 asio::io_context::service::shutdown_service()
PUBLIC m b3414 0 asio::io_context::service::fork_service(asio::execution_context::fork_event)
PUBLIC m b3418 0 asio::execution_context::service::notify_fork(asio::execution_context::fork_event)
PUBLIC m b341c 0 asio::detail::timer_queue<asio::detail::chrono_time_traits<std::__ndk1::chrono::steady_clock, asio::wait_traits<std::__ndk1::chrono::steady_clock> > >::~timer_queue()
PUBLIC m b345c 0 asio::detail::timer_queue<asio::detail::chrono_time_traits<std::__ndk1::chrono::steady_clock, asio::wait_traits<std::__ndk1::chrono::steady_clock> > >::empty() const
PUBLIC m b346c 0 asio::detail::timer_queue<asio::detail::chrono_time_traits<std::__ndk1::chrono::steady_clock, asio::wait_traits<std::__ndk1::chrono::steady_clock> > >::wait_duration_msec(long) const
PUBLIC m b357c 0 asio::detail::timer_queue<asio::detail::chrono_time_traits<std::__ndk1::chrono::steady_clock, asio::wait_traits<std::__ndk1::chrono::steady_clock> > >::wait_duration_usec(long) const
PUBLIC m b368c 0 asio::detail::timer_queue<asio::detail::chrono_time_traits<std::__ndk1::chrono::steady_clock, asio::wait_traits<std::__ndk1::chrono::steady_clock> > >::get_ready_timers(asio::detail::op_queue<asio::detail::scheduler_operation>&)
PUBLIC m b3724 0 asio::detail::timer_queue<asio::detail::chrono_time_traits<std::__ndk1::chrono::steady_clock, asio::wait_traits<std::__ndk1::chrono::steady_clock> > >::get_all_timers(asio::detail::op_queue<asio::detail::scheduler_operation>&)
PUBLIC m b3784 0 asio::detail::service_registry::create<asio::detail::epoll_reactor, asio::io_context>(void*)
PUBLIC m b37cc 0 asio::detail::epoll_reactor::epoll_reactor(asio::execution_context&)
PUBLIC m b3990 0 asio::detail::epoll_reactor::do_epoll_create()
PUBLIC m b3b1c 0 asio::detail::object_pool<asio::detail::epoll_reactor::descriptor_state>::~object_pool()
PUBLIC m b3b88 0 asio::detail::eventfd_select_interrupter::~eventfd_select_interrupter()
PUBLIC m b3bd0 0 asio::detail::epoll_reactor::~epoll_reactor()
PUBLIC m b3cb8 0 asio::detail::epoll_reactor::~epoll_reactor()
PUBLIC m b3cdc 0 asio::detail::epoll_reactor::shutdown()
PUBLIC m b3f64 0 asio::detail::epoll_reactor::notify_fork(asio::execution_context::fork_event)
PUBLIC m b4268 0 asio::detail::service_registry::create<asio::detail::scheduler, asio::execution_context>(void*)
PUBLIC m b431c 0 asio::detail::scheduler::~scheduler()
PUBLIC m b43dc 0 asio::detail::scheduler::~scheduler()
PUBLIC m b44a4 0 asio::detail::scheduler::shutdown()
PUBLIC m b4600 0 asio::detail::posix_event::posix_event()
PUBLIC m b4764 0 asio::detail::posix_mutex::posix_mutex()
PUBLIC m b48b0 0 asio::detail::eventfd_select_interrupter::open_descriptors()
PUBLIC m b4ab8 0 asio::detail::epoll_reactor::descriptor_state::~descriptor_state()
PUBLIC m b4bf0 0 asio::detail::scheduler::init_task()
PUBLIC m b4d8c 0 asio::detail::service_registry::create<asio::detail::epoll_reactor, asio::execution_context>(void*)
PUBLIC m b4dd4 0 asio::detail::scoped_lock<asio::detail::posix_mutex>::~scoped_lock()
PUBLIC b4df8 0 asio::detail::deadline_timer_service<asio::detail::chrono_time_traits<std::__ndk1::chrono::steady_clock, asio::wait_traits<std::__ndk1::chrono::steady_clock> > >::async_wait<std::__ndk1::__bind<void (sio::socket::impl::*)(std::__ndk1::error_code const&), sio::socket::impl*, std::__ndk1::placeholders::__ph<1> const&> >(asio::detail::deadline_timer_service<asio::detail::chrono_time_traits<std::__ndk1::chrono::steady_clock, asio::wait_traits<std::__ndk1::chrono::steady_clock> > >::implementation_type&, std::__ndk1::__bind<void (sio::socket::impl::*)(std::__ndk1::error_code const&), sio::socket::impl*, std::__ndk1::placeholders::__ph<1> const&>&)
PUBLIC m b4f20 0 asio::detail::epoll_reactor::schedule_timer<asio::detail::chrono_time_traits<std::__ndk1::chrono::steady_clock, asio::wait_traits<std::__ndk1::chrono::steady_clock> > >(asio::detail::timer_queue<asio::detail::chrono_time_traits<std::__ndk1::chrono::steady_clock, asio::wait_traits<std::__ndk1::chrono::steady_clock> > >&, asio::detail::chrono_time_traits<std::__ndk1::chrono::steady_clock, asio::wait_traits<std::__ndk1::chrono::steady_clock> > const::time_type&, asio::detail::timer_queue<asio::detail::chrono_time_traits<std::__ndk1::chrono::steady_clock, asio::wait_traits<std::__ndk1::chrono::steady_clock> > >&::per_timer_data, asio::detail::wait_op*)
PUBLIC b505c 0 asio::detail::wait_handler<std::__ndk1::__bind<void (sio::socket::impl::*)(std::__ndk1::error_code const&), sio::socket::impl*, std::__ndk1::placeholders::__ph<1> const&> >::ptr::~ptr()
PUBLIC b50d0 0 asio::detail::wait_handler<std::__ndk1::__bind<void (sio::socket::impl::*)(std::__ndk1::error_code const&), sio::socket::impl*, std::__ndk1::placeholders::__ph<1> const&> >::do_complete(void*, asio::detail::scheduler_operation*, std::__ndk1::error_code const&, unsigned long)
PUBLIC m b51e4 0 asio::detail::scheduler::post_immediate_completion(asio::detail::scheduler_operation*, bool)
PUBLIC m b53b8 0 asio::detail::timer_queue<asio::detail::chrono_time_traits<std::__ndk1::chrono::steady_clock, asio::wait_traits<std::__ndk1::chrono::steady_clock> > >::enqueue_timer(std::__ndk1::chrono::time_point<std::__ndk1::chrono::steady_clock, std::__ndk1::chrono::duration<long long, std::__ndk1::ratio<(long)1, (long)1000000000> > > const&, asio::detail::timer_queue<asio::detail::chrono_time_traits<std::__ndk1::chrono::steady_clock, asio::wait_traits<std::__ndk1::chrono::steady_clock> > >::per_timer_data&, asio::detail::wait_op*)
PUBLIC b55fc 0 std::__ndk1::vector<asio::detail::timer_queue<asio::detail::chrono_time_traits<std::__ndk1::chrono::steady_clock, asio::wait_traits<std::__ndk1::chrono::steady_clock> > >::heap_entry, std::__ndk1::allocator<asio::detail::timer_queue<asio::detail::chrono_time_traits<std::__ndk1::chrono::steady_clock, asio::wait_traits<std::__ndk1::chrono::steady_clock> > >::heap_entry> >::__throw_length_error[abi:v170000]() const
PUBLIC b5610 0 asio::detail::deadline_timer_service<asio::detail::chrono_time_traits<std::__ndk1::chrono::steady_clock, asio::wait_traits<std::__ndk1::chrono::steady_clock> > >::async_wait<std::__ndk1::__bind<void (sio::socket::impl::*)(), sio::socket::impl*> >(asio::detail::deadline_timer_service<asio::detail::chrono_time_traits<std::__ndk1::chrono::steady_clock, asio::wait_traits<std::__ndk1::chrono::steady_clock> > >::implementation_type&, std::__ndk1::__bind<void (sio::socket::impl::*)(), sio::socket::impl*>&)
PUBLIC b5738 0 asio::detail::wait_handler<std::__ndk1::__bind<void (sio::socket::impl::*)(), sio::socket::impl*> >::ptr::~ptr()
PUBLIC b57ac 0 asio::detail::wait_handler<std::__ndk1::__bind<void (sio::socket::impl::*)(), sio::socket::impl*> >::do_complete(void*, asio::detail::scheduler_operation*, std::__ndk1::error_code const&, unsigned long)
PUBLIC b58bc 0 std::__ndk1::deque<sio::packet, std::__ndk1::allocator<sio::packet> >::__add_back_capacity()
PUBLIC b5ebc 0 std::__ndk1::__split_buffer<sio::packet*, std::__ndk1::allocator<sio::packet*> >::push_back(sio::packet*&&)
PUBLIC b6040 0 std::__ndk1::__split_buffer<sio::packet*, std::__ndk1::allocator<sio::packet*> >::push_front(sio::packet*&&)
PUBLIC b61d0 0 sio::packet::packet(sio::packet const&)
PUBLIC b6348 0 std::__ndk1::__exception_guard<std::__ndk1::vector<std::__ndk1::shared_ptr<std::__ndk1::basic_string<char, std::__ndk1::char_traits<char>, std::__ndk1::allocator<char> > const>, std::__ndk1::allocator<std::__ndk1::shared_ptr<std::__ndk1::basic_string<char, std::__ndk1::char_traits<char>, std::__ndk1::allocator<char> > const> > >::__destroy_vector>::~__exception_guard[abi:v170000]()
PUBLIC b6410 0 std::__ndk1::vector<std::__ndk1::shared_ptr<std::__ndk1::basic_string<char, std::__ndk1::char_traits<char>, std::__ndk1::allocator<char> > const>, std::__ndk1::allocator<std::__ndk1::shared_ptr<std::__ndk1::basic_string<char, std::__ndk1::char_traits<char>, std::__ndk1::allocator<char> > const> > >::__throw_length_error[abi:v170000]() const
PUBLIC b6424 0 _GLOBAL__sub_I_sio_socket.cpp
PUBLIC m b662c 0 asio::error::get_system_category()
PUBLIC m b669c 0 sio::client_impl::client_impl(sio::client_options const&)
PUBLIC b6e20 0 websocketpp::transport::asio::endpoint<websocketpp::config::asio_client::transport_config>::init_asio(asio::io_context*)
PUBLIC b6ef4 0 websocketpp::endpoint<websocketpp::connection<websocketpp::config::asio_client>, websocketpp::config::asio_client>::set_open_handler(std::__ndk1::function<void (std::__ndk1::weak_ptr<void>)>)
PUBLIC b7010 0 sio::client_impl::on_open(std::__ndk1::weak_ptr<void>)
PUBLIC b7234 0 websocketpp::endpoint<websocketpp::connection<websocketpp::config::asio_client>, websocketpp::config::asio_client>::set_close_handler(std::__ndk1::function<void (std::__ndk1::weak_ptr<void>)>)
PUBLIC b7350 0 sio::client_impl::on_close(std::__ndk1::weak_ptr<void>)
PUBLIC b7944 0 websocketpp::endpoint<websocketpp::connection<websocketpp::config::asio_client>, websocketpp::config::asio_client>::set_fail_handler(std::__ndk1::function<void (std::__ndk1::weak_ptr<void>)>)
PUBLIC b7a60 0 sio::client_impl::on_fail(std::__ndk1::weak_ptr<void>)
PUBLIC b7dc0 0 websocketpp::endpoint<websocketpp::connection<websocketpp::config::asio_client>, websocketpp::config::asio_client>::set_message_handler(std::__ndk1::function<void (std::__ndk1::weak_ptr<void>, std::__ndk1::shared_ptr<websocketpp::message_buffer::message<websocketpp::message_buffer::alloc::con_msg_manager> >)>)
PUBLIC b7edc 0 sio::client_impl::on_message(std::__ndk1::weak_ptr<void>, std::__ndk1::shared_ptr<websocketpp::message_buffer::message<websocketpp::message_buffer::alloc::con_msg_manager> >)
PUBLIC b7eec 0 sio::client_impl::on_decode(sio::packet const&)
PUBLIC b8114 0 sio::client_impl::on_encode(bool, std::__ndk1::shared_ptr<std::__ndk1::basic_string<char, std::__ndk1::char_traits<char>, std::__ndk1::allocator<char> > const> const&)
PUBLIC b81f8 0 sio::packet_manager::~packet_manager()
PUBLIC b82a0 0 std::__ndk1::unique_ptr<std::__ndk1::thread, std::__ndk1::default_delete<std::__ndk1::thread> >::~unique_ptr[abi:v170000]()
PUBLIC b82dc 0 websocketpp::endpoint<websocketpp::connection<websocketpp::config::asio_client>, websocketpp::config::asio_client>::~endpoint()
PUBLIC m b85ac 0 sio::client_impl::~client_impl()
PUBLIC b8a74 0 sio::client_impl::sync_close()
PUBLIC b8c54 0 sio::client_impl::connect(std::__ndk1::basic_string<char, std::__ndk1::char_traits<char>, std::__ndk1::allocator<char> > const&, std::__ndk1::map<std::__ndk1::basic_string<char, std::__ndk1::char_traits<char>, std::__ndk1::allocator<char> >, std::__ndk1::basic_string<char, std::__ndk1::char_traits<char>, std::__ndk1::allocator<char> >, std::__ndk1::less<std::__ndk1::basic_string<char, std::__ndk1::char_traits<char>, std::__ndk1::allocator<char> > >, std::__ndk1::allocator<std::__ndk1::pair<std::__ndk1::basic_string<char, std::__ndk1::char_traits<char>, std::__ndk1::allocator<char> > const, std::__ndk1::basic_string<char, std::__ndk1::char_traits<char>, std::__ndk1::allocator<char> > > > > const&, std::__ndk1::map<std::__ndk1::basic_string<char, std::__ndk1::char_traits<char>, std::__ndk1::allocator<char> >, std::__ndk1::basic_string<char, std::__ndk1::char_traits<char>, std::__ndk1::allocator<char> >, std::__ndk1::less<std::__ndk1::basic_string<char, std::__ndk1::char_traits<char>, std::__ndk1::allocator<char> > >, std::__ndk1::allocator<std::__ndk1::pair<std::__ndk1::basic_string<char, std::__ndk1::char_traits<char>, std::__ndk1::allocator<char> > const, std::__ndk1::basic_string<char, std::__ndk1::char_traits<char>, std::__ndk1::allocator<char> > > > > const&, std::__ndk1::shared_ptr<sio::message> const&)
PUBLIC b9074 0 sio::client_impl::encode_query_string(std::__ndk1::basic_string<char, std::__ndk1::char_traits<char>, std::__ndk1::allocator<char> > const&)
PUBLIC b9330 0 asio::io_context::dispatch<std::__ndk1::__bind<void (sio::client_impl::*)(std::__ndk1::basic_string<char, std::__ndk1::char_traits<char>, std::__ndk1::allocator<char> > const&, std::__ndk1::basic_string<char, std::__ndk1::char_traits<char>, std::__ndk1::allocator<char> > const&), sio::client_impl*, std::__ndk1::basic_string<char, std::__ndk1::char_traits<char>, std::__ndk1::allocator<char> > const&, std::__ndk1::basic_string<char, std::__ndk1::char_traits<char>, std::__ndk1::allocator<char> >&> >(std::__ndk1::__bind<void (sio::client_impl::*)(std::__ndk1::basic_string<char, std::__ndk1::char_traits<char>, std::__ndk1::allocator<char> > const&, std::__ndk1::basic_string<char, std::__ndk1::char_traits<char>, std::__ndk1::allocator<char> > const&), sio::client_impl*, std::__ndk1::basic_string<char, std::__ndk1::char_traits<char>, std::__ndk1::allocator<char> > const&, std::__ndk1::basic_string<char, std::__ndk1::char_traits<char>, std::__ndk1::allocator<char> >&>&&)
PUBLIC b94d0 0 sio::client_impl::connect_impl(std::__ndk1::basic_string<char, std::__ndk1::char_traits<char>, std::__ndk1::allocator<char> > const&, std::__ndk1::basic_string<char, std::__ndk1::char_traits<char>, std::__ndk1::allocator<char> > const&)
PUBLIC b9cf4 0 std::__ndk1::__bind<void (sio::client_impl::*)(std::__ndk1::basic_string<char, std::__ndk1::char_traits<char>, std::__ndk1::allocator<char> > const&, std::__ndk1::basic_string<char, std::__ndk1::char_traits<char>, std::__ndk1::allocator<char> > const&), sio::client_impl*, std::__ndk1::basic_string<char, std::__ndk1::char_traits<char>, std::__ndk1::allocator<char> > const&, std::__ndk1::basic_string<char, std::__ndk1::char_traits<char>, std::__ndk1::allocator<char> >&>::~__bind()
PUBLIC b9d38 0 sio::client_impl::run_loop()
PUBLIC b9da8 0 std::__ndk1::thread::thread<std::__ndk1::__bind<void (sio::client_impl::*)(), sio::client_impl*>, , void>(&&)
PUBLIC b9ea8 0 sio::client_impl::socket(std::__ndk1::basic_string<char, std::__ndk1::char_traits<char>, std::__ndk1::allocator<char> > const&)
PUBLIC ba100 0 std::__ndk1::pair<std::__ndk1::basic_string<char, std::__ndk1::char_traits<char>, std::__ndk1::allocator<char> > const, std::__ndk1::shared_ptr<sio::socket> >::~pair()
PUBLIC ba16c 0 sio::client_impl::close()
PUBLIC ba324 0 asio::io_context::dispatch<std::__ndk1::__bind<void (sio::client_impl::*)(unsigned short const&, std::__ndk1::basic_string<char, std::__ndk1::char_traits<char>, std::__ndk1::allocator<char> > const&), sio::client_impl*, unsigned short const&, char const (&) [12]> >(std::__ndk1::__bind<void (sio::client_impl::*)(unsigned short const&, std::__ndk1::basic_string<char, std::__ndk1::char_traits<char>, std::__ndk1::allocator<char> > const&), sio::client_impl*, unsigned short const&, char const (&) [12]>&&)
PUBLIC ba484 0 sio::client_impl::close_impl(unsigned short const&, std::__ndk1::basic_string<char, std::__ndk1::char_traits<char>, std::__ndk1::allocator<char> > const&)
PUBLIC ba63c 0 sio::client_impl::send(sio::packet&)
PUBLIC ba714 0 sio::client_impl::remove_socket(std::__ndk1::basic_string<char, std::__ndk1::char_traits<char>, std::__ndk1::allocator<char> > const&)
PUBLIC ba788 0 sio::client_impl::get_io_service()
PUBLIC ba790 0 sio::client_impl::on_socket_closed(std::__ndk1::basic_string<char, std::__ndk1::char_traits<char>, std::__ndk1::allocator<char> > const&)
PUBLIC ba7a8 0 sio::client_impl::on_socket_opened(std::__ndk1::basic_string<char, std::__ndk1::char_traits<char>, std::__ndk1::allocator<char> > const&)
PUBLIC ba7c0 0 websocketpp::transport::asio::endpoint<websocketpp::config::asio_client::transport_config>::run()
PUBLIC ba8b4 0 websocketpp::log::basic<websocketpp::concurrency::basic, websocketpp::log::alevel>::write(unsigned int, char const*)
PUBLIC bab60 0 websocketpp::uri::uri(std::__ndk1::basic_string<char, std::__ndk1::char_traits<char>, std::__ndk1::allocator<char> > const&)
PUBLIC bb0b8 0 std::__ndk1::operator<<[abi:v170000]<char, std::__ndk1::char_traits<char>, std::__ndk1::allocator<char> >(std::__ndk1::basic_ostream<char, std::__ndk1::char_traits<char> >, std::__ndk1::basic_string<std::__ndk1::basic_ostream, char, std::__ndk1::allocator<char> > const&)
PUBLIC bb0d4 0 websocketpp::client<websocketpp::config::asio_client>::get_connection(std::__ndk1::basic_string<char, std::__ndk1::char_traits<char>, std::__ndk1::allocator<char> > const&, std::__ndk1::error_code&)
PUBLIC bb2a8 0 websocketpp::log::basic<websocketpp::concurrency::basic, websocketpp::log::alevel>::write(unsigned int, std::__ndk1::basic_string<char, std::__ndk1::char_traits<char>, std::__ndk1::allocator<char> > const&)
PUBLIC bb554 0 websocketpp::connection<websocketpp::config::asio_client>::replace_header(std::__ndk1::basic_string<char, std::__ndk1::char_traits<char>, std::__ndk1::allocator<char> > const&, std::__ndk1::basic_string<char, std::__ndk1::char_traits<char>, std::__ndk1::allocator<char> > const&)
PUBLIC bb72c 0 websocketpp::transport::asio::connection<websocketpp::config::asio_client::transport_config>::set_proxy(std::__ndk1::basic_string<char, std::__ndk1::char_traits<char>, std::__ndk1::allocator<char> > const&, std::__ndk1::error_code&)
PUBLIC bb7e8 0 websocketpp::transport::asio::connection<websocketpp::config::asio_client::transport_config>::set_proxy_basic_auth(std::__ndk1::basic_string<char, std::__ndk1::char_traits<char>, std::__ndk1::allocator<char> > const&, std::__ndk1::basic_string<char, std::__ndk1::char_traits<char>, std::__ndk1::allocator<char> > const&, std::__ndk1::error_code&)
PUBLIC bbba4 0 websocketpp::client<websocketpp::config::asio_client>::connect(std::__ndk1::shared_ptr<websocketpp::connection<websocketpp::config::asio_client> >)
PUBLIC bbdb8 0 std::__ndk1::shared_ptr<websocketpp::connection<websocketpp::config::asio_client> >::~shared_ptr[abi:v170000]()
PUBLIC bbe08 0 std::__ndk1::basic_ostringstream<char, std::__ndk1::char_traits<char>, std::__ndk1::allocator<char> >::~basic_ostringstream()
PUBLIC bbe8c 0 websocketpp::uri::~uri()
PUBLIC bbef0 0 websocketpp::endpoint<websocketpp::connection<websocketpp::config::asio_client>, websocketpp::config::asio_client>::close(std::__ndk1::weak_ptr<void>, unsigned short, std::__ndk1::basic_string<char, std::__ndk1::char_traits<char>, std::__ndk1::allocator<char> > const&, std::__ndk1::error_code&)
PUBLIC bc010 0 sio::client_impl::send_impl(std::__ndk1::shared_ptr<std::__ndk1::basic_string<char, std::__ndk1::char_traits<char>, std::__ndk1::allocator<char> > const> const&, websocketpp::frame::opcode::value)
PUBLIC bc1cc 0 websocketpp::endpoint<websocketpp::connection<websocketpp::config::asio_client>, websocketpp::config::asio_client>::send(std::__ndk1::weak_ptr<void>, std::__ndk1::basic_string<char, std::__ndk1::char_traits<char>, std::__ndk1::allocator<char> > const&, websocketpp::frame::opcode::value, std::__ndk1::error_code&)
PUBLIC bc2ec 0 sio::client_impl::timeout_ping(std::__ndk1::error_code const&)
PUBLIC bc364 0 asio::io_context::dispatch<std::__ndk1::__bind<void (sio::client_impl::*)(unsigned short const&, std::__ndk1::basic_string<char, std::__ndk1::char_traits<char>, std::__ndk1::allocator<char> > const&), sio::client_impl*, unsigned short const&, char const (&) [13]> >(std::__ndk1::__bind<void (sio::client_impl::*)(unsigned short const&, std::__ndk1::basic_string<char, std::__ndk1::char_traits<char>, std::__ndk1::allocator<char> > const&), sio::client_impl*, unsigned short const&, char const (&) [13]>&&)
PUBLIC bc4c4 0 sio::client_impl::timeout_reconnect(std::__ndk1::error_code const&)
PUBLIC bc658 0 asio::io_context::dispatch<std::__ndk1::__bind<void (sio::client_impl::*)(std::__ndk1::basic_string<char, std::__ndk1::char_traits<char>, std::__ndk1::allocator<char> > const&, std::__ndk1::basic_string<char, std::__ndk1::char_traits<char>, std::__ndk1::allocator<char> > const&), sio::client_impl*, std::__ndk1::basic_string<char, std::__ndk1::char_traits<char>, std::__ndk1::allocator<char> >&, std::__ndk1::basic_string<char, std::__ndk1::char_traits<char>, std::__ndk1::allocator<char> >&> >(std::__ndk1::__bind<void (sio::client_impl::*)(std::__ndk1::basic_string<char, std::__ndk1::char_traits<char>, std::__ndk1::allocator<char> > const&, std::__ndk1::basic_string<char, std::__ndk1::char_traits<char>, std::__ndk1::allocator<char> > const&), sio::client_impl*, std::__ndk1::basic_string<char, std::__ndk1::char_traits<char>, std::__ndk1::allocator<char> >&, std::__ndk1::basic_string<char, std::__ndk1::char_traits<char>, std::__ndk1::allocator<char> >&>&&)
PUBLIC bc7f8 0 std::__ndk1::__bind<void (sio::client_impl::*)(std::__ndk1::basic_string<char, std::__ndk1::char_traits<char>, std::__ndk1::allocator<char> > const&, std::__ndk1::basic_string<char, std::__ndk1::char_traits<char>, std::__ndk1::allocator<char> > const&), sio::client_impl*, std::__ndk1::basic_string<char, std::__ndk1::char_traits<char>, std::__ndk1::allocator<char> >&, std::__ndk1::basic_string<char, std::__ndk1::char_traits<char>, std::__ndk1::allocator<char> >&>::~__bind()
PUBLIC bc83c 0 websocketpp::endpoint<websocketpp::connection<websocketpp::config::asio_client>, websocketpp::config::asio_client>::get_con_from_hdl(std::__ndk1::weak_ptr<void>, std::__ndk1::error_code&)
PUBLIC bc95c 0 sio::client_impl::on_handshake(std::__ndk1::shared_ptr<sio::message> const&)
PUBLIC bcc94 0 std::__ndk1::shared_ptr<sio::string_message>::~shared_ptr[abi:v170000]()
PUBLIC bcce4 0 std::__ndk1::shared_ptr<sio::int_message>::~shared_ptr[abi:v170000]()
PUBLIC bcd34 0 sio::client_impl::update_ping_timeout_timer()
PUBLIC bceb4 0 asio::io_context::dispatch<std::__ndk1::__bind<void (sio::client_impl::*)(unsigned short const&, std::__ndk1::basic_string<char, std::__ndk1::char_traits<char>, std::__ndk1::allocator<char> > const&), sio::client_impl*, unsigned short const&, char const (&) [16]> >(std::__ndk1::__bind<void (sio::client_impl::*)(unsigned short const&, std::__ndk1::basic_string<char, std::__ndk1::char_traits<char>, std::__ndk1::allocator<char> > const&), sio::client_impl*, unsigned short const&, char const (&) [16]>&&)
PUBLIC bd014 0 sio::client_impl::on_ping()
PUBLIC bd1dc 0 asio::io_context::dispatch<std::__ndk1::__bind<void (sio::client_impl::*)(std::__ndk1::shared_ptr<std::__ndk1::basic_string<char, std::__ndk1::char_traits<char>, std::__ndk1::allocator<char> > const> const&, websocketpp::frame::opcode::value), sio::client_impl*, std::__ndk1::shared_ptr<std::__ndk1::basic_string<char, std::__ndk1::char_traits<char>, std::__ndk1::allocator<char> > const> const&, websocketpp::frame::opcode::value> >(std::__ndk1::__bind<void (sio::client_impl::*)(std::__ndk1::shared_ptr<std::__ndk1::basic_string<char, std::__ndk1::char_traits<char>, std::__ndk1::allocator<char> > const> const&, websocketpp::frame::opcode::value), sio::client_impl*, std::__ndk1::shared_ptr<std::__ndk1::basic_string<char, std::__ndk1::char_traits<char>, std::__ndk1::allocator<char> > const> const&, websocketpp::frame::opcode::value>&&)
PUBLIC bd35c 0 std::__ndk1::__bind<void (sio::client_impl::*)(std::__ndk1::shared_ptr<std::__ndk1::basic_string<char, std::__ndk1::char_traits<char>, std::__ndk1::allocator<char> > const> const&, websocketpp::frame::opcode::value), sio::client_impl*, std::__ndk1::shared_ptr<std::__ndk1::basic_string<char, std::__ndk1::char_traits<char>, std::__ndk1::allocator<char> > const> const&, websocketpp::frame::opcode::value>::~__bind()
PUBLIC bd3ac 0 __cxx_global_var_init.44
PUBLIC bd3c8 0 std::__ndk1::default_delete<sio::packet>::operator()[abi:v170000](sio::packet*) const
PUBLIC bd4ac 0 std::__ndk1::shared_ptr<websocketpp::log::basic<websocketpp::concurrency::basic, websocketpp::log::elevel> >::~shared_ptr[abi:v170000]()
PUBLIC bd4fc 0 std::__ndk1::shared_ptr<websocketpp::log::basic<websocketpp::concurrency::basic, websocketpp::log::alevel> >::~shared_ptr[abi:v170000]()
PUBLIC bd54c 0 websocketpp::transport::asio::endpoint<websocketpp::config::asio_client::transport_config>::~endpoint()
PUBLIC m bd890 0 asio::execution_context::~execution_context()
PUBLIC bd92c 0 std::__ndk1::basic_string<char, std::__ndk1::char_traits<char>, std::__ndk1::allocator<char> >::append[abi:v170000]<std::__ndk1::__wrap_iter<char const*> >(std::__ndk1::enable_if, std::__ndk1::enable_if)
PUBLIC bdc04 0 websocketpp::uri::get_port_from_string(std::__ndk1::basic_string<char, std::__ndk1::char_traits<char>, std::__ndk1::allocator<char> > const&, std::__ndk1::error_code&) const
PUBLIC bdd24 0 websocketpp::error::make_error_code(websocketpp::error::value)
PUBLIC bddc8 0 websocketpp::error::category::~category()
PUBLIC bddec 0 websocketpp::error::category::name() const
PUBLIC bddf8 0 websocketpp::error::category::message(int) const
PUBLIC be36c 0 {virtual override thunk({virtual offset(0, -24)}, std::__ndk1::basic_ostringstream<char, std::__ndk1::char_traits<char>, std::__ndk1::allocator<char> >::~basic_ostringstream())}
PUBLIC be3f8 0 std::__ndk1::basic_ostringstream<char, std::__ndk1::char_traits<char>, std::__ndk1::allocator<char> >::~basic_ostringstream()
PUBLIC be484 0 {virtual override thunk({virtual offset(0, -24)}, std::__ndk1::basic_ostringstream<char, std::__ndk1::char_traits<char>, std::__ndk1::allocator<char> >::~basic_ostringstream())}
PUBLIC be518 0 std::__ndk1::basic_stringbuf<char, std::__ndk1::char_traits<char>, std::__ndk1::allocator<char> >::str() const
PUBLIC be72c 0 std::__ndk1::__tree<std::__ndk1::__value_type<std::__ndk1::basic_string<char, std::__ndk1::char_traits<char>, std::__ndk1::allocator<char> >, std::__ndk1::shared_ptr<sio::message> >, std::__ndk1::__map_value_compare<std::__ndk1::basic_string<char, std::__ndk1::char_traits<char>, std::__ndk1::allocator<char> >, std::__ndk1::__value_type<std::__ndk1::basic_string<char, std::__ndk1::char_traits<char>, std::__ndk1::allocator<char> >, std::__ndk1::shared_ptr<sio::message> >, std::__ndk1::less<std::__ndk1::basic_string<char, std::__ndk1::char_traits<char>, std::__ndk1::allocator<char> > >, true>, std::__ndk1::allocator<std::__ndk1::__value_type<std::__ndk1::basic_string<char, std::__ndk1::char_traits<char>, std::__ndk1::allocator<char> >, std::__ndk1::shared_ptr<sio::message> > > >::find<std::__ndk1::basic_string<char, std::__ndk1::char_traits<char>, std::__ndk1::allocator<char> > >(std::__ndk1::basic_string<char, std::__ndk1::char_traits<char>, std::__ndk1::allocator<char> > const&) const
PUBLIC be86c 0 websocketpp::endpoint<websocketpp::connection<websocketpp::config::asio_client>, websocketpp::config::asio_client>::endpoint(bool)
PUBLIC bee34 0 std::__ndk1::unique_ptr<websocketpp::log::basic<websocketpp::concurrency::basic, websocketpp::log::alevel>, std::__ndk1::default_delete<websocketpp::log::basic<websocketpp::concurrency::basic, websocketpp::log::alevel> > >::~unique_ptr[abi:v170000]()
PUBLIC bee70 0 std::__ndk1::__shared_ptr_pointer<websocketpp::log::basic<websocketpp::concurrency::basic, websocketpp::log::alevel>*, std::__ndk1::shared_ptr<websocketpp::log::basic<websocketpp::concurrency::basic, websocketpp::log::alevel> >::__shared_ptr_default_delete<websocketpp::log::basic<websocketpp::concurrency::basic, websocketpp::log::alevel>, websocketpp::log::basic<websocketpp::concurrency::basic, websocketpp::log::alevel> >, std::__ndk1::allocator<websocketpp::log::basic<websocketpp::concurrency::basic, websocketpp::log::alevel> > >::~__shared_ptr_pointer()
PUBLIC bee94 0 std::__ndk1::__shared_ptr_pointer<websocketpp::log::basic<websocketpp::concurrency::basic, websocketpp::log::alevel>*, std::__ndk1::shared_ptr<websocketpp::log::basic<websocketpp::concurrency::basic, websocketpp::log::alevel> >::__shared_ptr_default_delete<websocketpp::log::basic<websocketpp::concurrency::basic, websocketpp::log::alevel>, websocketpp::log::basic<websocketpp::concurrency::basic, websocketpp::log::alevel> >, std::__ndk1::allocator<websocketpp::log::basic<websocketpp::concurrency::basic, websocketpp::log::alevel> > >::__on_zero_shared()
PUBLIC beecc 0 std::__ndk1::__shared_ptr_pointer<websocketpp::log::basic<websocketpp::concurrency::basic, websocketpp::log::alevel>*, std::__ndk1::shared_ptr<websocketpp::log::basic<websocketpp::concurrency::basic, websocketpp::log::alevel> >::__shared_ptr_default_delete<websocketpp::log::basic<websocketpp::concurrency::basic, websocketpp::log::alevel>, websocketpp::log::basic<websocketpp::concurrency::basic, websocketpp::log::alevel> >, std::__ndk1::allocator<websocketpp::log::basic<websocketpp::concurrency::basic, websocketpp::log::alevel> > >::__get_deleter(std::type_info const&) const
PUBLIC beee8 0 std::__ndk1::__shared_ptr_pointer<websocketpp::log::basic<websocketpp::concurrency::basic, websocketpp::log::alevel>*, std::__ndk1::shared_ptr<websocketpp::log::basic<websocketpp::concurrency::basic, websocketpp::log::alevel> >::__shared_ptr_default_delete<websocketpp::log::basic<websocketpp::concurrency::basic, websocketpp::log::alevel>, websocketpp::log::basic<websocketpp::concurrency::basic, websocketpp::log::alevel> >, std::__ndk1::allocator<websocketpp::log::basic<websocketpp::concurrency::basic, websocketpp::log::alevel> > >::__on_zero_shared_weak()
PUBLIC beeec 0 std::__ndk1::unique_ptr<websocketpp::log::basic<websocketpp::concurrency::basic, websocketpp::log::elevel>, std::__ndk1::default_delete<websocketpp::log::basic<websocketpp::concurrency::basic, websocketpp::log::elevel> > >::~unique_ptr[abi:v170000]()
PUBLIC bef28 0 std::__ndk1::__shared_ptr_pointer<websocketpp::log::basic<websocketpp::concurrency::basic, websocketpp::log::elevel>*, std::__ndk1::shared_ptr<websocketpp::log::basic<websocketpp::concurrency::basic, websocketpp::log::elevel> >::__shared_ptr_default_delete<websocketpp::log::basic<websocketpp::concurrency::basic, websocketpp::log::elevel>, websocketpp::log::basic<websocketpp::concurrency::basic, websocketpp::log::elevel> >, std::__ndk1::allocator<websocketpp::log::basic<websocketpp::concurrency::basic, websocketpp::log::elevel> > >::~__shared_ptr_pointer()
PUBLIC bef4c 0 std::__ndk1::__shared_ptr_pointer<websocketpp::log::basic<websocketpp::concurrency::basic, websocketpp::log::elevel>*, std::__ndk1::shared_ptr<websocketpp::log::basic<websocketpp::concurrency::basic, websocketpp::log::elevel> >::__shared_ptr_default_delete<websocketpp::log::basic<websocketpp::concurrency::basic, websocketpp::log::elevel>, websocketpp::log::basic<websocketpp::concurrency::basic, websocketpp::log::elevel> >, std::__ndk1::allocator<websocketpp::log::basic<websocketpp::concurrency::basic, websocketpp::log::elevel> > >::__on_zero_shared()
PUBLIC bef84 0 std::__ndk1::__shared_ptr_pointer<websocketpp::log::basic<websocketpp::concurrency::basic, websocketpp::log::elevel>*, std::__ndk1::shared_ptr<websocketpp::log::basic<websocketpp::concurrency::basic, websocketpp::log::elevel> >::__shared_ptr_default_delete<websocketpp::log::basic<websocketpp::concurrency::basic, websocketpp::log::elevel>, websocketpp::log::basic<websocketpp::concurrency::basic, websocketpp::log::elevel> >, std::__ndk1::allocator<websocketpp::log::basic<websocketpp::concurrency::basic, websocketpp::log::elevel> > >::__get_deleter(std::type_info const&) const
PUBLIC befa0 0 std::__ndk1::__shared_ptr_pointer<websocketpp::log::basic<websocketpp::concurrency::basic, websocketpp::log::elevel>*, std::__ndk1::shared_ptr<websocketpp::log::basic<websocketpp::concurrency::basic, websocketpp::log::elevel> >::__shared_ptr_default_delete<websocketpp::log::basic<websocketpp::concurrency::basic, websocketpp::log::elevel>, websocketpp::log::basic<websocketpp::concurrency::basic, websocketpp::log::elevel> >, std::__ndk1::allocator<websocketpp::log::basic<websocketpp::concurrency::basic, websocketpp::log::elevel> > >::__on_zero_shared_weak()
PUBLIC befa4 0 std::__ndk1::__tree<std::__ndk1::__value_type<std::__ndk1::basic_string<char, std::__ndk1::char_traits<char>, std::__ndk1::allocator<char> > const, std::__ndk1::shared_ptr<sio::socket> >, std::__ndk1::__map_value_compare<std::__ndk1::basic_string<char, std::__ndk1::char_traits<char>, std::__ndk1::allocator<char> > const, std::__ndk1::__value_type<std::__ndk1::basic_string<char, std::__ndk1::char_traits<char>, std::__ndk1::allocator<char> > const, std::__ndk1::shared_ptr<sio::socket> >, std::__ndk1::less<std::__ndk1::basic_string<char, std::__ndk1::char_traits<char>, std::__ndk1::allocator<char> > const>, true>, std::__ndk1::allocator<std::__ndk1::__value_type<std::__ndk1::basic_string<char, std::__ndk1::char_traits<char>, std::__ndk1::allocator<char> > const, std::__ndk1::shared_ptr<sio::socket> > > >::destroy(std::__ndk1::__tree_node<std::__ndk1::__value_type<std::__ndk1::basic_string<char, std::__ndk1::char_traits<char>, std::__ndk1::allocator<char> > const, std::__ndk1::shared_ptr<sio::socket> >, void*>*)
PUBLIC bf030 0 websocketpp::transport::asio::endpoint<websocketpp::config::asio_client::transport_config>::init_asio(asio::io_context*, std::__ndk1::error_code&)
PUBLIC bf22c 0 websocketpp::exception::exception(std::__ndk1::error_code)
PUBLIC bf2c4 0 websocketpp::exception::~exception()
PUBLIC bf300 0 websocketpp::log::basic<websocketpp::concurrency::basic, websocketpp::log::elevel>::write(unsigned int, char const*)
PUBLIC bf4fc 0 std::__ndk1::__shared_ptr_pointer<asio::basic_socket_acceptor<asio::ip::tcp>*, std::__ndk1::shared_ptr<asio::basic_socket_acceptor<asio::ip::tcp> >::__shared_ptr_default_delete<asio::basic_socket_acceptor<asio::ip::tcp>, asio::basic_socket_acceptor<asio::ip::tcp> >, std::__ndk1::allocator<asio::basic_socket_acceptor<asio::ip::tcp> > >::~__shared_ptr_pointer()
PUBLIC bf520 0 std::__ndk1::__shared_ptr_pointer<asio::basic_socket_acceptor<asio::ip::tcp>*, std::__ndk1::shared_ptr<asio::basic_socket_acceptor<asio::ip::tcp> >::__shared_ptr_default_delete<asio::basic_socket_acceptor<asio::ip::tcp>, asio::basic_socket_acceptor<asio::ip::tcp> >, std::__ndk1::allocator<asio::basic_socket_acceptor<asio::ip::tcp> > >::__on_zero_shared()
PUBLIC bf564 0 std::__ndk1::__shared_ptr_pointer<asio::basic_socket_acceptor<asio::ip::tcp>*, std::__ndk1::shared_ptr<asio::basic_socket_acceptor<asio::ip::tcp> >::__shared_ptr_default_delete<asio::basic_socket_acceptor<asio::ip::tcp>, asio::basic_socket_acceptor<asio::ip::tcp> >, std::__ndk1::allocator<asio::basic_socket_acceptor<asio::ip::tcp> > >::__get_deleter(std::type_info const&) const
PUBLIC bf580 0 std::__ndk1::__shared_ptr_pointer<asio::basic_socket_acceptor<asio::ip::tcp>*, std::__ndk1::shared_ptr<asio::basic_socket_acceptor<asio::ip::tcp> >::__shared_ptr_default_delete<asio::basic_socket_acceptor<asio::ip::tcp>, asio::basic_socket_acceptor<asio::ip::tcp> >, std::__ndk1::allocator<asio::basic_socket_acceptor<asio::ip::tcp> > >::__on_zero_shared_weak()
PUBLIC m bf584 0 asio::detail::reactive_socket_service_base::destroy(asio::detail::reactive_socket_service_base::base_implementation_type&)
PUBLIC m bf69c 0 asio::detail::epoll_reactor::deregister_descriptor(int, asio::detail::epoll_reactor::descriptor_state*&, bool)
PUBLIC m bfaf4 0 asio::detail::socket_ops::close(int, unsigned char&, bool, std::__ndk1::error_code&)
PUBLIC bfdbc 0 std::__ndk1::error_code::operator=[abi:v170000]<asio::error::basic_errors>(std::__ndk1::enable_if)
PUBLIC m bfe50 0 asio::detail::socket_ops::setsockopt(int, unsigned char&, int, int, void const*, unsigned long, std::__ndk1::error_code&)
PUBLIC m c0084 0 asio::detail::service_registry::create<asio::detail::reactive_socket_service<asio::ip::tcp>, asio::io_context>(void*)
PUBLIC m c015c 0 asio::detail::reactive_socket_service<asio::ip::tcp>::~reactive_socket_service()
PUBLIC m c0160 0 asio::detail::reactive_socket_service<asio::ip::tcp>::shutdown()
PUBLIC m c0164 0 asio::detail::service_base<asio::detail::reactive_socket_service<asio::ip::tcp> >::~service_base()
PUBLIC m c0168 0 asio::io_context::service::shutdown()
PUBLIC c0174 0 websocketpp::exception::~exception()
PUBLIC c01b8 0 websocketpp::exception::what() const
PUBLIC m c01d0 0 asio::io_context::io_context()
PUBLIC m c033c 0 asio::detail::service_registry::do_add_service(asio::execution_context::service::key const&, asio::execution_context::service*)
PUBLIC m c0570 0 asio::invalid_service_owner::~invalid_service_owner()
PUBLIC m c0594 0 asio::service_already_exists::~service_already_exists()
PUBLIC c05b8 0 std::__ndk1::default_delete<asio::io_context>::operator()[abi:v170000](asio::io_context*) const
PUBLIC c0660 0 std::__ndk1::__function::__value_func<void (std::__ndk1::weak_ptr<void>)>::swap[abi:v170000](std::__ndk1::__function::__value_func<void (std::__ndk1::weak_ptr<void>)>&)
PUBLIC c07f8 0 std::__ndk1::__function::__base<void (std::__ndk1::weak_ptr<void>)>::~__base()
PUBLIC c07fc 0 std::__ndk1::__function::__func<std::__ndk1::__bind<void (sio::client_impl::*)(std::__ndk1::weak_ptr<void>), sio::client_impl*, std::__ndk1::placeholders::__ph<1> const&>, std::__ndk1::allocator<std::__ndk1::__bind<void (sio::client_impl::*)(std::__ndk1::weak_ptr<void>), sio::client_impl*, std::__ndk1::placeholders::__ph<1> const&> >, void (std::__ndk1::weak_ptr<void>)>::~__func()
PUBLIC c0800 0 std::__ndk1::__function::__func<std::__ndk1::__bind<void (sio::client_impl::*)(std::__ndk1::weak_ptr<void>), sio::client_impl*, std::__ndk1::placeholders::__ph<1> const&>, std::__ndk1::allocator<std::__ndk1::__bind<void (sio::client_impl::*)(std::__ndk1::weak_ptr<void>), sio::client_impl*, std::__ndk1::placeholders::__ph<1> const&> >, void (std::__ndk1::weak_ptr<void>)>::__clone() const
PUBLIC c0840 0 std::__ndk1::__function::__func<std::__ndk1::__bind<void (sio::client_impl::*)(std::__ndk1::weak_ptr<void>), sio::client_impl*, std::__ndk1::placeholders::__ph<1> const&>, std::__ndk1::allocator<std::__ndk1::__bind<void (sio::client_impl::*)(std::__ndk1::weak_ptr<void>), sio::client_impl*, std::__ndk1::placeholders::__ph<1> const&> >, void (std::__ndk1::weak_ptr<void>)>::__clone(std::__ndk1::__function::__base<void (std::__ndk1::weak_ptr<void>)>*) const
PUBLIC c0860 0 std::__ndk1::__function::__func<std::__ndk1::__bind<void (sio::client_impl::*)(std::__ndk1::weak_ptr<void>), sio::client_impl*, std::__ndk1::placeholders::__ph<1> const&>, std::__ndk1::allocator<std::__ndk1::__bind<void (sio::client_impl::*)(std::__ndk1::weak_ptr<void>), sio::client_impl*, std::__ndk1::placeholders::__ph<1> const&> >, void (std::__ndk1::weak_ptr<void>)>::destroy()
PUBLIC c0864 0 std::__ndk1::__function::__func<std::__ndk1::__bind<void (sio::client_impl::*)(std::__ndk1::weak_ptr<void>), sio::client_impl*, std::__ndk1::placeholders::__ph<1> const&>, std::__ndk1::allocator<std::__ndk1::__bind<void (sio::client_impl::*)(std::__ndk1::weak_ptr<void>), sio::client_impl*, std::__ndk1::placeholders::__ph<1> const&> >, void (std::__ndk1::weak_ptr<void>)>::destroy_deallocate()
PUBLIC c0868 0 std::__ndk1::__function::__func<std::__ndk1::__bind<void (sio::client_impl::*)(std::__ndk1::weak_ptr<void>), sio::client_impl*, std::__ndk1::placeholders::__ph<1> const&>, std::__ndk1::allocator<std::__ndk1::__bind<void (sio::client_impl::*)(std::__ndk1::weak_ptr<void>), sio::client_impl*, std::__ndk1::placeholders::__ph<1> const&> >, void (std::__ndk1::weak_ptr<void>)>::operator()(std::__ndk1::weak_ptr<void>&&)
PUBLIC c090c 0 std::__ndk1::__function::__func<std::__ndk1::__bind<void (sio::client_impl::*)(std::__ndk1::weak_ptr<void>), sio::client_impl*, std::__ndk1::placeholders::__ph<1> const&>, std::__ndk1::allocator<std::__ndk1::__bind<void (sio::client_impl::*)(std::__ndk1::weak_ptr<void>), sio::client_impl*, std::__ndk1::placeholders::__ph<1> const&> >, void (std::__ndk1::weak_ptr<void>)>::target(std::type_info const&) const
PUBLIC c0928 0 std::__ndk1::__function::__func<std::__ndk1::__bind<void (sio::client_impl::*)(std::__ndk1::weak_ptr<void>), sio::client_impl*, std::__ndk1::placeholders::__ph<1> const&>, std::__ndk1::allocator<std::__ndk1::__bind<void (sio::client_impl::*)(std::__ndk1::weak_ptr<void>), sio::client_impl*, std::__ndk1::placeholders::__ph<1> const&> >, void (std::__ndk1::weak_ptr<void>)>::target_type() const
PUBLIC c0934 0 std::__ndk1::__function::__value_func<void (std::__ndk1::weak_ptr<void>, std::__ndk1::shared_ptr<websocketpp::message_buffer::message<websocketpp::message_buffer::alloc::con_msg_manager> >)>::swap[abi:v170000](std::__ndk1::__function::__value_func<void (std::__ndk1::weak_ptr<void>, std::__ndk1::shared_ptr<websocketpp::message_buffer::message<websocketpp::message_buffer::alloc::con_msg_manager> >)>&)
PUBLIC c0acc 0 std::__ndk1::__function::__base<void (std::__ndk1::weak_ptr<void>, std::__ndk1::shared_ptr<websocketpp::message_buffer::message<websocketpp::message_buffer::alloc::con_msg_manager> >)>::~__base()
PUBLIC c0ad0 0 std::__ndk1::__function::__func<std::__ndk1::__bind<void (sio::client_impl::*)(std::__ndk1::weak_ptr<void>, std::__ndk1::shared_ptr<websocketpp::message_buffer::message<websocketpp::message_buffer::alloc::con_msg_manager> >), sio::client_impl*, std::__ndk1::placeholders::__ph<1> const&, std::__ndk1::placeholders::__ph<2> const&>, std::__ndk1::allocator<std::__ndk1::__bind<void (sio::client_impl::*)(std::__ndk1::weak_ptr<void>, std::__ndk1::shared_ptr<websocketpp::message_buffer::message<websocketpp::message_buffer::alloc::con_msg_manager> >), sio::client_impl*, std::__ndk1::placeholders::__ph<1> const&, std::__ndk1::placeholders::__ph<2> const&> >, void (std::__ndk1::weak_ptr<void>, std::__ndk1::shared_ptr<websocketpp::message_buffer::message<websocketpp::message_buffer::alloc::con_msg_manager> >)>::~__func()
PUBLIC c0ad4 0 std::__ndk1::__function::__func<std::__ndk1::__bind<void (sio::client_impl::*)(std::__ndk1::weak_ptr<void>, std::__ndk1::shared_ptr<websocketpp::message_buffer::message<websocketpp::message_buffer::alloc::con_msg_manager> >), sio::client_impl*, std::__ndk1::placeholders::__ph<1> const&, std::__ndk1::placeholders::__ph<2> const&>, std::__ndk1::allocator<std::__ndk1::__bind<void (sio::client_impl::*)(std::__ndk1::weak_ptr<void>, std::__ndk1::shared_ptr<websocketpp::message_buffer::message<websocketpp::message_buffer::alloc::con_msg_manager> >), sio::client_impl*, std::__ndk1::placeholders::__ph<1> const&, std::__ndk1::placeholders::__ph<2> const&> >, void (std::__ndk1::weak_ptr<void>, std::__ndk1::shared_ptr<websocketpp::message_buffer::message<websocketpp::message_buffer::alloc::con_msg_manager> >)>::__clone() const
PUBLIC c0b14 0 std::__ndk1::__function::__func<std::__ndk1::__bind<void (sio::client_impl::*)(std::__ndk1::weak_ptr<void>, std::__ndk1::shared_ptr<websocketpp::message_buffer::message<websocketpp::message_buffer::alloc::con_msg_manager> >), sio::client_impl*, std::__ndk1::placeholders::__ph<1> const&, std::__ndk1::placeholders::__ph<2> const&>, std::__ndk1::allocator<std::__ndk1::__bind<void (sio::client_impl::*)(std::__ndk1::weak_ptr<void>, std::__ndk1::shared_ptr<websocketpp::message_buffer::message<websocketpp::message_buffer::alloc::con_msg_manager> >), sio::client_impl*, std::__ndk1::placeholders::__ph<1> const&, std::__ndk1::placeholders::__ph<2> const&> >, void (std::__ndk1::weak_ptr<void>, std::__ndk1::shared_ptr<websocketpp::message_buffer::message<websocketpp::message_buffer::alloc::con_msg_manager> >)>::__clone(std::__ndk1::__function::__base<void (std::__ndk1::weak_ptr<void>, std::__ndk1::shared_ptr<websocketpp::message_buffer::message<websocketpp::message_buffer::alloc::con_msg_manager> >)>*) const
PUBLIC c0b34 0 std::__ndk1::__function::__func<std::__ndk1::__bind<void (sio::client_impl::*)(std::__ndk1::weak_ptr<void>, std::__ndk1::shared_ptr<websocketpp::message_buffer::message<websocketpp::message_buffer::alloc::con_msg_manager> >), sio::client_impl*, std::__ndk1::placeholders::__ph<1> const&, std::__ndk1::placeholders::__ph<2> const&>, std::__ndk1::allocator<std::__ndk1::__bind<void (sio::client_impl::*)(std::__ndk1::weak_ptr<void>, std::__ndk1::shared_ptr<websocketpp::message_buffer::message<websocketpp::message_buffer::alloc::con_msg_manager> >), sio::client_impl*, std::__ndk1::placeholders::__ph<1> const&, std::__ndk1::placeholders::__ph<2> const&> >, void (std::__ndk1::weak_ptr<void>, std::__ndk1::shared_ptr<websocketpp::message_buffer::message<websocketpp::message_buffer::alloc::con_msg_manager> >)>::destroy()
PUBLIC c0b38 0 std::__ndk1::__function::__func<std::__ndk1::__bind<void (sio::client_impl::*)(std::__ndk1::weak_ptr<void>, std::__ndk1::shared_ptr<websocketpp::message_buffer::message<websocketpp::message_buffer::alloc::con_msg_manager> >), sio::client_impl*, std::__ndk1::placeholders::__ph<1> const&, std::__ndk1::placeholders::__ph<2> const&>, std::__ndk1::allocator<std::__ndk1::__bind<void (sio::client_impl::*)(std::__ndk1::weak_ptr<void>, std::__ndk1::shared_ptr<websocketpp::message_buffer::message<websocketpp::message_buffer::alloc::con_msg_manager> >), sio::client_impl*, std::__ndk1::placeholders::__ph<1> const&, std::__ndk1::placeholders::__ph<2> const&> >, void (std::__ndk1::weak_ptr<void>, std::__ndk1::shared_ptr<websocketpp::message_buffer::message<websocketpp::message_buffer::alloc::con_msg_manager> >)>::destroy_deallocate()
PUBLIC c0b3c 0 std::__ndk1::__function::__func<std::__ndk1::__bind<void (sio::client_impl::*)(std::__ndk1::weak_ptr<void>, std::__ndk1::shared_ptr<websocketpp::message_buffer::message<websocketpp::message_buffer::alloc::con_msg_manager> >), sio::client_impl*, std::__ndk1::placeholders::__ph<1> const&, std::__ndk1::placeholders::__ph<2> const&>, std::__ndk1::allocator<std::__ndk1::__bind<void (sio::client_impl::*)(std::__ndk1::weak_ptr<void>, std::__ndk1::shared_ptr<websocketpp::message_buffer::message<websocketpp::message_buffer::alloc::con_msg_manager> >), sio::client_impl*, std::__ndk1::placeholders::__ph<1> const&, std::__ndk1::placeholders::__ph<2> const&> >, void (std::__ndk1::weak_ptr<void>, std::__ndk1::shared_ptr<websocketpp::message_buffer::message<websocketpp::message_buffer::alloc::con_msg_manager> >)>::operator()(std::__ndk1::weak_ptr<void>&&, std::__ndk1::shared_ptr<websocketpp::message_buffer::message<websocketpp::message_buffer::alloc::con_msg_manager> >&&)
PUBLIC c0b98 0 std::__ndk1::__function::__func<std::__ndk1::__bind<void (sio::client_impl::*)(std::__ndk1::weak_ptr<void>, std::__ndk1::shared_ptr<websocketpp::message_buffer::message<websocketpp::message_buffer::alloc::con_msg_manager> >), sio::client_impl*, std::__ndk1::placeholders::__ph<1> const&, std::__ndk1::placeholders::__ph<2> const&>, std::__ndk1::allocator<std::__ndk1::__bind<void (sio::client_impl::*)(std::__ndk1::weak_ptr<void>, std::__ndk1::shared_ptr<websocketpp::message_buffer::message<websocketpp::message_buffer::alloc::con_msg_manager> >), sio::client_impl*, std::__ndk1::placeholders::__ph<1> const&, std::__ndk1::placeholders::__ph<2> const&> >, void (std::__ndk1::weak_ptr<void>, std::__ndk1::shared_ptr<websocketpp::message_buffer::message<websocketpp::message_buffer::alloc::con_msg_manager> >)>::target(std::type_info const&) const
PUBLIC c0bb4 0 std::__ndk1::__function::__func<std::__ndk1::__bind<void (sio::client_impl::*)(std::__ndk1::weak_ptr<void>, std::__ndk1::shared_ptr<websocketpp::message_buffer::message<websocketpp::message_buffer::alloc::con_msg_manager> >), sio::client_impl*, std::__ndk1::placeholders::__ph<1> const&, std::__ndk1::placeholders::__ph<2> const&>, std::__ndk1::allocator<std::__ndk1::__bind<void (sio::client_impl::*)(std::__ndk1::weak_ptr<void>, std::__ndk1::shared_ptr<websocketpp::message_buffer::message<websocketpp::message_buffer::alloc::con_msg_manager> >), sio::client_impl*, std::__ndk1::placeholders::__ph<1> const&, std::__ndk1::placeholders::__ph<2> const&> >, void (std::__ndk1::weak_ptr<void>, std::__ndk1::shared_ptr<websocketpp::message_buffer::message<websocketpp::message_buffer::alloc::con_msg_manager> >)>::target_type() const
PUBLIC c0bc0 0 std::__ndk1::__apply_functor[abi:v170000]<void (sio::client_impl::*)(std::__ndk1::weak_ptr<void>, std::__ndk1::shared_ptr<websocketpp::message_buffer::message<websocketpp::alloc::con_msg_manager> >), std::__ndk1::tuple<sio*, std::__ndk1::placeholders::__ph<1>, std::__ndk1::placeholders<2> >, (unsigned long)0, (unsigned long)1, (unsigned long)2, void (sio::client_impl::*)(std::__ndk1::weak_ptr<void>, std::__ndk1::shared_ptr<websocketpp::message_buffer::message<websocketpp::alloc::con_msg_manager> >)<std::__ndk1::weak_ptr&&, websocketpp::message_buffer::message<websocketpp::alloc::con_msg_manager>&&> >(std::__ndk1::__bind_return&, void (sio::client_impl&::*)(std::__ndk1::weak_ptr<void>, std::__ndk1::shared_ptr<websocketpp::message_buffer::message<websocketpp::alloc::con_msg_manager> >), std::__ndk1::__tuple_indices<((unsigned long)0, (unsigned long)1, (unsigned long)2)...>, std::__ndk1::tuple<sio*, std::__ndk1::placeholders::__ph<1>, std::__ndk1::placeholders<2> >&&)
PUBLIC c0cdc 0 std::__ndk1::shared_ptr<websocketpp::message_buffer::message<websocketpp::message_buffer::alloc::con_msg_manager> >::~shared_ptr[abi:v170000]()
PUBLIC c0d2c 0 std::__ndk1::__function::__func<std::__ndk1::__bind<void (sio::client_impl::*)(sio::packet const&), sio::client_impl*, std::__ndk1::placeholders::__ph<1> const&>, std::__ndk1::allocator<std::__ndk1::__bind<void (sio::client_impl::*)(sio::packet const&), sio::client_impl*, std::__ndk1::placeholders::__ph<1> const&> >, void (sio::packet const&)>::~__func()
PUBLIC c0d30 0 std::__ndk1::__function::__func<std::__ndk1::__bind<void (sio::client_impl::*)(sio::packet const&), sio::client_impl*, std::__ndk1::placeholders::__ph<1> const&>, std::__ndk1::allocator<std::__ndk1::__bind<void (sio::client_impl::*)(sio::packet const&), sio::client_impl*, std::__ndk1::placeholders::__ph<1> const&> >, void (sio::packet const&)>::__clone() const
PUBLIC c0d70 0 std::__ndk1::__function::__func<std::__ndk1::__bind<void (sio::client_impl::*)(sio::packet const&), sio::client_impl*, std::__ndk1::placeholders::__ph<1> const&>, std::__ndk1::allocator<std::__ndk1::__bind<void (sio::client_impl::*)(sio::packet const&), sio::client_impl*, std::__ndk1::placeholders::__ph<1> const&> >, void (sio::packet const&)>::__clone(std::__ndk1::__function::__base<void (sio::packet const&)>*) const
PUBLIC c0d90 0 std::__ndk1::__function::__func<std::__ndk1::__bind<void (sio::client_impl::*)(sio::packet const&), sio::client_impl*, std::__ndk1::placeholders::__ph<1> const&>, std::__ndk1::allocator<std::__ndk1::__bind<void (sio::client_impl::*)(sio::packet const&), sio::client_impl*, std::__ndk1::placeholders::__ph<1> const&> >, void (sio::packet const&)>::destroy()
PUBLIC c0d94 0 std::__ndk1::__function::__func<std::__ndk1::__bind<void (sio::client_impl::*)(sio::packet const&), sio::client_impl*, std::__ndk1::placeholders::__ph<1> const&>, std::__ndk1::allocator<std::__ndk1::__bind<void (sio::client_impl::*)(sio::packet const&), sio::client_impl*, std::__ndk1::placeholders::__ph<1> const&> >, void (sio::packet const&)>::destroy_deallocate()
PUBLIC c0d98 0 std::__ndk1::__function::__func<std::__ndk1::__bind<void (sio::client_impl::*)(sio::packet const&), sio::client_impl*, std::__ndk1::placeholders::__ph<1> const&>, std::__ndk1::allocator<std::__ndk1::__bind<void (sio::client_impl::*)(sio::packet const&), sio::client_impl*, std::__ndk1::placeholders::__ph<1> const&> >, void (sio::packet const&)>::operator()(sio::packet const&)
PUBLIC c0db4 0 std::__ndk1::__function::__func<std::__ndk1::__bind<void (sio::client_impl::*)(sio::packet const&), sio::client_impl*, std::__ndk1::placeholders::__ph<1> const&>, std::__ndk1::allocator<std::__ndk1::__bind<void (sio::client_impl::*)(sio::packet const&), sio::client_impl*, std::__ndk1::placeholders::__ph<1> const&> >, void (sio::packet const&)>::target(std::type_info const&) const
PUBLIC c0dd0 0 std::__ndk1::__function::__func<std::__ndk1::__bind<void (sio::client_impl::*)(sio::packet const&), sio::client_impl*, std::__ndk1::placeholders::__ph<1> const&>, std::__ndk1::allocator<std::__ndk1::__bind<void (sio::client_impl::*)(sio::packet const&), sio::client_impl*, std::__ndk1::placeholders::__ph<1> const&> >, void (sio::packet const&)>::target_type() const
PUBLIC c0ddc 0 std::__ndk1::__function::__base<void (sio::packet const&)>::~__base()
PUBLIC c0de0 0 std::__ndk1::__function::__base<void (bool, std::__ndk1::shared_ptr<std::__ndk1::basic_string<char, std::__ndk1::char_traits<char>, std::__ndk1::allocator<char> > const> const&)>::~__base()
PUBLIC c0de4 0 std::__ndk1::__function::__func<std::__ndk1::__bind<void (sio::client_impl::*)(bool, std::__ndk1::shared_ptr<std::__ndk1::basic_string<char, std::__ndk1::char_traits<char>, std::__ndk1::allocator<char> > const> const&), sio::client_impl*, std::__ndk1::placeholders::__ph<1> const&, std::__ndk1::placeholders::__ph<2> const&>, std::__ndk1::allocator<std::__ndk1::__bind<void (sio::client_impl::*)(bool, std::__ndk1::shared_ptr<std::__ndk1::basic_string<char, std::__ndk1::char_traits<char>, std::__ndk1::allocator<char> > const> const&), sio::client_impl*, std::__ndk1::placeholders::__ph<1> const&, std::__ndk1::placeholders::__ph<2> const&> >, void (bool, std::__ndk1::shared_ptr<std::__ndk1::basic_string<char, std::__ndk1::char_traits<char>, std::__ndk1::allocator<char> > const> const&)>::~__func()
PUBLIC c0de8 0 std::__ndk1::__function::__func<std::__ndk1::__bind<void (sio::client_impl::*)(bool, std::__ndk1::shared_ptr<std::__ndk1::basic_string<char, std::__ndk1::char_traits<char>, std::__ndk1::allocator<char> > const> const&), sio::client_impl*, std::__ndk1::placeholders::__ph<1> const&, std::__ndk1::placeholders::__ph<2> const&>, std::__ndk1::allocator<std::__ndk1::__bind<void (sio::client_impl::*)(bool, std::__ndk1::shared_ptr<std::__ndk1::basic_string<char, std::__ndk1::char_traits<char>, std::__ndk1::allocator<char> > const> const&), sio::client_impl*, std::__ndk1::placeholders::__ph<1> const&, std::__ndk1::placeholders::__ph<2> const&> >, void (bool, std::__ndk1::shared_ptr<std::__ndk1::basic_string<char, std::__ndk1::char_traits<char>, std::__ndk1::allocator<char> > const> const&)>::__clone() const
PUBLIC c0e28 0 std::__ndk1::__function::__func<std::__ndk1::__bind<void (sio::client_impl::*)(bool, std::__ndk1::shared_ptr<std::__ndk1::basic_string<char, std::__ndk1::char_traits<char>, std::__ndk1::allocator<char> > const> const&), sio::client_impl*, std::__ndk1::placeholders::__ph<1> const&, std::__ndk1::placeholders::__ph<2> const&>, std::__ndk1::allocator<std::__ndk1::__bind<void (sio::client_impl::*)(bool, std::__ndk1::shared_ptr<std::__ndk1::basic_string<char, std::__ndk1::char_traits<char>, std::__ndk1::allocator<char> > const> const&), sio::client_impl*, std::__ndk1::placeholders::__ph<1> const&, std::__ndk1::placeholders::__ph<2> const&> >, void (bool, std::__ndk1::shared_ptr<std::__ndk1::basic_string<char, std::__ndk1::char_traits<char>, std::__ndk1::allocator<char> > const> const&)>::__clone(std::__ndk1::__function::__base<void (bool, std::__ndk1::shared_ptr<std::__ndk1::basic_string<char, std::__ndk1::char_traits<char>, std::__ndk1::allocator<char> > const> const&)>*) const
PUBLIC c0e48 0 std::__ndk1::__function::__func<std::__ndk1::__bind<void (sio::client_impl::*)(bool, std::__ndk1::shared_ptr<std::__ndk1::basic_string<char, std::__ndk1::char_traits<char>, std::__ndk1::allocator<char> > const> const&), sio::client_impl*, std::__ndk1::placeholders::__ph<1> const&, std::__ndk1::placeholders::__ph<2> const&>, std::__ndk1::allocator<std::__ndk1::__bind<void (sio::client_impl::*)(bool, std::__ndk1::shared_ptr<std::__ndk1::basic_string<char, std::__ndk1::char_traits<char>, std::__ndk1::allocator<char> > const> const&), sio::client_impl*, std::__ndk1::placeholders::__ph<1> const&, std::__ndk1::placeholders::__ph<2> const&> >, void (bool, std::__ndk1::shared_ptr<std::__ndk1::basic_string<char, std::__ndk1::char_traits<char>, std::__ndk1::allocator<char> > const> const&)>::destroy()
PUBLIC c0e4c 0 std::__ndk1::__function::__func<std::__ndk1::__bind<void (sio::client_impl::*)(bool, std::__ndk1::shared_ptr<std::__ndk1::basic_string<char, std::__ndk1::char_traits<char>, std::__ndk1::allocator<char> > const> const&), sio::client_impl*, std::__ndk1::placeholders::__ph<1> const&, std::__ndk1::placeholders::__ph<2> const&>, std::__ndk1::allocator<std::__ndk1::__bind<void (sio::client_impl::*)(bool, std::__ndk1::shared_ptr<std::__ndk1::basic_string<char, std::__ndk1::char_traits<char>, std::__ndk1::allocator<char> > const> const&), sio::client_impl*, std::__ndk1::placeholders::__ph<1> const&, std::__ndk1::placeholders::__ph<2> const&> >, void (bool, std::__ndk1::shared_ptr<std::__ndk1::basic_string<char, std::__ndk1::char_traits<char>, std::__ndk1::allocator<char> > const> const&)>::destroy_deallocate()
PUBLIC c0e50 0 std::__ndk1::__function::__func<std::__ndk1::__bind<void (sio::client_impl::*)(bool, std::__ndk1::shared_ptr<std::__ndk1::basic_string<char, std::__ndk1::char_traits<char>, std::__ndk1::allocator<char> > const> const&), sio::client_impl*, std::__ndk1::placeholders::__ph<1> const&, std::__ndk1::placeholders::__ph<2> const&>, std::__ndk1::allocator<std::__ndk1::__bind<void (sio::client_impl::*)(bool, std::__ndk1::shared_ptr<std::__ndk1::basic_string<char, std::__ndk1::char_traits<char>, std::__ndk1::allocator<char> > const> const&), sio::client_impl*, std::__ndk1::placeholders::__ph<1> const&, std::__ndk1::placeholders::__ph<2> const&> >, void (bool, std::__ndk1::shared_ptr<std::__ndk1::basic_string<char, std::__ndk1::char_traits<char>, std::__ndk1::allocator<char> > const> const&)>::operator()(bool&&, std::__ndk1::shared_ptr<std::__ndk1::basic_string<char, std::__ndk1::char_traits<char>, std::__ndk1::allocator<char> > const> const&)
PUBLIC c0e70 0 std::__ndk1::__function::__func<std::__ndk1::__bind<void (sio::client_impl::*)(bool, std::__ndk1::shared_ptr<std::__ndk1::basic_string<char, std::__ndk1::char_traits<char>, std::__ndk1::allocator<char> > const> const&), sio::client_impl*, std::__ndk1::placeholders::__ph<1> const&, std::__ndk1::placeholders::__ph<2> const&>, std::__ndk1::allocator<std::__ndk1::__bind<void (sio::client_impl::*)(bool, std::__ndk1::shared_ptr<std::__ndk1::basic_string<char, std::__ndk1::char_traits<char>, std::__ndk1::allocator<char> > const> const&), sio::client_impl*, std::__ndk1::placeholders::__ph<1> const&, std::__ndk1::placeholders::__ph<2> const&> >, void (bool, std::__ndk1::shared_ptr<std::__ndk1::basic_string<char, std::__ndk1::char_traits<char>, std::__ndk1::allocator<char> > const> const&)>::target(std::type_info const&) const
PUBLIC c0e8c 0 std::__ndk1::__function::__func<std::__ndk1::__bind<void (sio::client_impl::*)(bool, std::__ndk1::shared_ptr<std::__ndk1::basic_string<char, std::__ndk1::char_traits<char>, std::__ndk1::allocator<char> > const> const&), sio::client_impl*, std::__ndk1::placeholders::__ph<1> const&, std::__ndk1::placeholders::__ph<2> const&>, std::__ndk1::allocator<std::__ndk1::__bind<void (sio::client_impl::*)(bool, std::__ndk1::shared_ptr<std::__ndk1::basic_string<char, std::__ndk1::char_traits<char>, std::__ndk1::allocator<char> > const> const&), sio::client_impl*, std::__ndk1::placeholders::__ph<1> const&, std::__ndk1::placeholders::__ph<2> const&> >, void (bool, std::__ndk1::shared_ptr<std::__ndk1::basic_string<char, std::__ndk1::char_traits<char>, std::__ndk1::allocator<char> > const> const&)>::target_type() const
PUBLIC c0e98 0 std::__ndk1::__tree<std::__ndk1::__value_type<std::__ndk1::basic_string<char, std::__ndk1::char_traits<char>, std::__ndk1::allocator<char> >, std::__ndk1::basic_string<char, std::__ndk1::char_traits<char>, std::__ndk1::allocator<char> > >, std::__ndk1::__map_value_compare<std::__ndk1::basic_string<char, std::__ndk1::char_traits<char>, std::__ndk1::allocator<char> >, std::__ndk1::__value_type<std::__ndk1::basic_string<char, std::__ndk1::char_traits<char>, std::__ndk1::allocator<char> >, std::__ndk1::basic_string<char, std::__ndk1::char_traits<char>, std::__ndk1::allocator<char> > >, std::__ndk1::less<std::__ndk1::basic_string<char, std::__ndk1::char_traits<char>, std::__ndk1::allocator<char> > >, true>, std::__ndk1::allocator<std::__ndk1::__value_type<std::__ndk1::basic_string<char, std::__ndk1::char_traits<char>, std::__ndk1::allocator<char> >, std::__ndk1::basic_string<char, std::__ndk1::char_traits<char>, std::__ndk1::allocator<char> > > > >::__assign_multi<std::__ndk1::__tree_const_iterator<std::__ndk1::__value_type<std::__ndk1::basic_string<char, std::__ndk1::char_traits<char>, std::__ndk1::allocator<char> >, std::__ndk1::basic_string<char, std::__ndk1::char_traits<char>, std::__ndk1::allocator<char> > >, std::__ndk1::__tree_node<std::__ndk1::__value_type<std::__ndk1::basic_string<char, std::__ndk1::char_traits<char>, std::__ndk1::allocator<char> >, std::__ndk1::basic_string<char, std::__ndk1::char_traits<char>, std::__ndk1::allocator<char> > >, void*>*, long> >(std::__ndk1::__tree_const_iterator<std::__ndk1::__value_type<std::__ndk1::basic_string<char, std::__ndk1::char_traits<char>, std::__ndk1::allocator<char> >, std::__ndk1::basic_string<char, std::__ndk1::char_traits<char>, std::__ndk1::allocator<char> > >, std::__ndk1::__tree_node<std::__ndk1::__value_type<std::__ndk1::basic_string<char, std::__ndk1::char_traits<char>, std::__ndk1::allocator<char> >, std::__ndk1::basic_string<char, std::__ndk1::char_traits<char>, std::__ndk1::allocator<char> > >, void*>*, long>, std::__ndk1::__tree_const_iterator<std::__ndk1::__value_type<std::__ndk1::basic_string<char, std::__ndk1::char_traits<char>, std::__ndk1::allocator<char> >, std::__ndk1::basic_string<char, std::__ndk1::char_traits<char>, std::__ndk1::allocator<char> > >, std::__ndk1::__tree_node<std::__ndk1::__value_type<std::__ndk1::basic_string<char, std::__ndk1::char_traits<char>, std::__ndk1::allocator<char> >, std::__ndk1::basic_string<char, std::__ndk1::char_traits<char>, std::__ndk1::allocator<char> > >, void*>*, long>)
PUBLIC c1130 0 std::__ndk1::__tree<std::__ndk1::__value_type<std::__ndk1::basic_string<char, std::__ndk1::char_traits<char>, std::__ndk1::allocator<char> >, std::__ndk1::basic_string<char, std::__ndk1::char_traits<char>, std::__ndk1::allocator<char> > >, std::__ndk1::__map_value_compare<std::__ndk1::basic_string<char, std::__ndk1::char_traits<char>, std::__ndk1::allocator<char> >, std::__ndk1::__value_type<std::__ndk1::basic_string<char, std::__ndk1::char_traits<char>, std::__ndk1::allocator<char> >, std::__ndk1::basic_string<char, std::__ndk1::char_traits<char>, std::__ndk1::allocator<char> > >, std::__ndk1::less<std::__ndk1::basic_string<char, std::__ndk1::char_traits<char>, std::__ndk1::allocator<char> > >, true>, std::__ndk1::allocator<std::__ndk1::__value_type<std::__ndk1::basic_string<char, std::__ndk1::char_traits<char>, std::__ndk1::allocator<char> >, std::__ndk1::basic_string<char, std::__ndk1::char_traits<char>, std::__ndk1::allocator<char> > > > >::__node_insert_multi(std::__ndk1::__tree_node<std::__ndk1::__value_type<std::__ndk1::basic_string<char, std::__ndk1::char_traits<char>, std::__ndk1::allocator<char> >, std::__ndk1::basic_string<char, std::__ndk1::char_traits<char>, std::__ndk1::allocator<char> > >, void*>*)
PUBLIC c123c 0 std::__ndk1::__tree<std::__ndk1::__value_type<std::__ndk1::basic_string<char, std::__ndk1::char_traits<char>, std::__ndk1::allocator<char> >, std::__ndk1::basic_string<char, std::__ndk1::char_traits<char>, std::__ndk1::allocator<char> > >, std::__ndk1::__map_value_compare<std::__ndk1::basic_string<char, std::__ndk1::char_traits<char>, std::__ndk1::allocator<char> >, std::__ndk1::__value_type<std::__ndk1::basic_string<char, std::__ndk1::char_traits<char>, std::__ndk1::allocator<char> >, std::__ndk1::basic_string<char, std::__ndk1::char_traits<char>, std::__ndk1::allocator<char> > >, std::__ndk1::less<std::__ndk1::basic_string<char, std::__ndk1::char_traits<char>, std::__ndk1::allocator<char> > >, true>, std::__ndk1::allocator<std::__ndk1::__value_type<std::__ndk1::basic_string<char, std::__ndk1::char_traits<char>, std::__ndk1::allocator<char> >, std::__ndk1::basic_string<char, std::__ndk1::char_traits<char>, std::__ndk1::allocator<char> > > > >::_DetachedTreeCache::~_DetachedTreeCache[abi:v170000]()
PUBLIC c1294 0 std::__ndk1::__tree<std::__ndk1::__value_type<std::__ndk1::basic_string<char, std::__ndk1::char_traits<char>, std::__ndk1::allocator<char> >, std::__ndk1::basic_string<char, std::__ndk1::char_traits<char>, std::__ndk1::allocator<char> > >, std::__ndk1::__map_value_compare<std::__ndk1::basic_string<char, std::__ndk1::char_traits<char>, std::__ndk1::allocator<char> >, std::__ndk1::__value_type<std::__ndk1::basic_string<char, std::__ndk1::char_traits<char>, std::__ndk1::allocator<char> >, std::__ndk1::basic_string<char, std::__ndk1::char_traits<char>, std::__ndk1::allocator<char> > >, std::__ndk1::less<std::__ndk1::basic_string<char, std::__ndk1::char_traits<char>, std::__ndk1::allocator<char> > >, true>, std::__ndk1::allocator<std::__ndk1::__value_type<std::__ndk1::basic_string<char, std::__ndk1::char_traits<char>, std::__ndk1::allocator<char> >, std::__ndk1::basic_string<char, std::__ndk1::char_traits<char>, std::__ndk1::allocator<char> > > > >::__emplace_multi<std::__ndk1::pair<std::__ndk1::basic_string<char, std::__ndk1::char_traits<char>, std::__ndk1::allocator<char> > const, std::__ndk1::basic_string<char, std::__ndk1::char_traits<char>, std::__ndk1::allocator<char> > > const&>(std::__ndk1::pair<std::__ndk1::basic_string<char, std::__ndk1::char_traits<char>, std::__ndk1::allocator<char> > const, std::__ndk1::basic_string<char, std::__ndk1::char_traits<char>, std::__ndk1::allocator<char> > > const&)
PUBLIC c1450 0 std::__ndk1::unique_ptr<std::__ndk1::__tree_node<std::__ndk1::__value_type<std::__ndk1::basic_string<char, std::__ndk1::char_traits<char>, std::__ndk1::allocator<char> >, std::__ndk1::basic_string<char, std::__ndk1::char_traits<char>, std::__ndk1::allocator<char> > >, void*>, std::__ndk1::__tree_node_destructor<std::__ndk1::allocator<std::__ndk1::__tree_node<std::__ndk1::__value_type<std::__ndk1::basic_string<char, std::__ndk1::char_traits<char>, std::__ndk1::allocator<char> >, std::__ndk1::basic_string<char, std::__ndk1::char_traits<char>, std::__ndk1::allocator<char> > >, void*> > > >::~unique_ptr[abi:v170000]()
PUBLIC m c14ac 0 asio::detail::scheduler::do_dispatch(asio::detail::scheduler_operation*)
PUBLIC c1614 0 asio::detail::completion_handler<std::__ndk1::__bind<void (sio::client_impl::*)(std::__ndk1::basic_string<char, std::__ndk1::char_traits<char>, std::__ndk1::allocator<char> > const&, std::__ndk1::basic_string<char, std::__ndk1::char_traits<char>, std::__ndk1::allocator<char> > const&), sio::client_impl*, std::__ndk1::basic_string<char, std::__ndk1::char_traits<char>, std::__ndk1::allocator<char> > const&, std::__ndk1::basic_string<char, std::__ndk1::char_traits<char>, std::__ndk1::allocator<char> >&> >::do_complete(void*, asio::detail::scheduler_operation*, std::__ndk1::error_code const&, unsigned long)
PUBLIC c1798 0 asio::detail::completion_handler<std::__ndk1::__bind<void (sio::client_impl::*)(std::__ndk1::basic_string<char, std::__ndk1::char_traits<char>, std::__ndk1::allocator<char> > const&, std::__ndk1::basic_string<char, std::__ndk1::char_traits<char>, std::__ndk1::allocator<char> > const&), sio::client_impl*, std::__ndk1::basic_string<char, std::__ndk1::char_traits<char>, std::__ndk1::allocator<char> > const&, std::__ndk1::basic_string<char, std::__ndk1::char_traits<char>, std::__ndk1::allocator<char> >&> >::ptr::reset()
PUBLIC c1828 0 std::__ndk1::__thread_proxy[abi:v170000]<std::__ndk1::tuple<std::__ndk1::unique_ptr<std::__ndk1::__thread_struct, std::__ndk1::default_delete<std::__ndk1::unique_ptr> >, std::__ndk1::__bind<void (sio::client_impl::*)(), sio*> > >(std::__ndk1::tuple<std::__ndk1::unique_ptr<std::__ndk1::__thread_struct, std::__ndk1::default_delete<std::__ndk1::unique_ptr> >, std::__ndk1::__bind<void (sio::client_impl::*)(), sio*> >)
PUBLIC c18f4 0 std::__ndk1::unique_ptr<std::__ndk1::tuple<std::__ndk1::unique_ptr<std::__ndk1::__thread_struct, std::__ndk1::default_delete<std::__ndk1::__thread_struct> >, std::__ndk1::__bind<void (sio::client_impl::*)(), sio::client_impl*> >, std::__ndk1::default_delete<std::__ndk1::tuple<std::__ndk1::unique_ptr<std::__ndk1::__thread_struct, std::__ndk1::default_delete<std::__ndk1::__thread_struct> >, std::__ndk1::__bind<void (sio::client_impl::*)(), sio::client_impl*> > > >::~unique_ptr[abi:v170000]()
PUBLIC c1944 0 std::__ndk1::__tree<std::__ndk1::__value_type<std::__ndk1::basic_string<char, std::__ndk1::char_traits<char>, std::__ndk1::allocator<char> > const, std::__ndk1::shared_ptr<sio::socket> >, std::__ndk1::__map_value_compare<std::__ndk1::basic_string<char, std::__ndk1::char_traits<char>, std::__ndk1::allocator<char> > const, std::__ndk1::__value_type<std::__ndk1::basic_string<char, std::__ndk1::char_traits<char>, std::__ndk1::allocator<char> > const, std::__ndk1::shared_ptr<sio::socket> >, std::__ndk1::less<std::__ndk1::basic_string<char, std::__ndk1::char_traits<char>, std::__ndk1::allocator<char> > const>, true>, std::__ndk1::allocator<std::__ndk1::__value_type<std::__ndk1::basic_string<char, std::__ndk1::char_traits<char>, std::__ndk1::allocator<char> > const, std::__ndk1::shared_ptr<sio::socket> > > >::find<std::__ndk1::basic_string<char, std::__ndk1::char_traits<char>, std::__ndk1::allocator<char> > >(std::__ndk1::basic_string<char, std::__ndk1::char_traits<char>, std::__ndk1::allocator<char> > const&)
PUBLIC c1a84 0 std::__ndk1::unique_ptr<sio::socket, std::__ndk1::default_delete<sio::socket> >::~unique_ptr[abi:v170000]()
PUBLIC c1ac0 0 std::__ndk1::__shared_ptr_pointer<sio::socket*, std::__ndk1::shared_ptr<sio::socket>::__shared_ptr_default_delete<sio::socket, sio::socket>, std::__ndk1::allocator<sio::socket> >::~__shared_ptr_pointer()
PUBLIC c1ae4 0 std::__ndk1::__shared_ptr_pointer<sio::socket*, std::__ndk1::shared_ptr<sio::socket>::__shared_ptr_default_delete<sio::socket, sio::socket>, std::__ndk1::allocator<sio::socket> >::__on_zero_shared()
PUBLIC c1b1c 0 std::__ndk1::__shared_ptr_pointer<sio::socket*, std::__ndk1::shared_ptr<sio::socket>::__shared_ptr_default_delete<sio::socket, sio::socket>, std::__ndk1::allocator<sio::socket> >::__get_deleter(std::type_info const&) const
PUBLIC c1b38 0 std::__ndk1::__shared_ptr_pointer<sio::socket*, std::__ndk1::shared_ptr<sio::socket>::__shared_ptr_default_delete<sio::socket, sio::socket>, std::__ndk1::allocator<sio::socket> >::__on_zero_shared_weak()
PUBLIC c1b3c 0 std::__ndk1::__tree<std::__ndk1::__value_type<std::__ndk1::basic_string<char, std::__ndk1::char_traits<char>, std::__ndk1::allocator<char> > const, std::__ndk1::shared_ptr<sio::socket> >, std::__ndk1::__map_value_compare<std::__ndk1::basic_string<char, std::__ndk1::char_traits<char>, std::__ndk1::allocator<char> > const, std::__ndk1::__value_type<std::__ndk1::basic_string<char, std::__ndk1::char_traits<char>, std::__ndk1::allocator<char> > const, std::__ndk1::shared_ptr<sio::socket> >, std::__ndk1::less<std::__ndk1::basic_string<char, std::__ndk1::char_traits<char>, std::__ndk1::allocator<char> > const>, true>, std::__ndk1::allocator<std::__ndk1::__value_type<std::__ndk1::basic_string<char, std::__ndk1::char_traits<char>, std::__ndk1::allocator<char> > const, std::__ndk1::shared_ptr<sio::socket> > > >::__emplace_unique_key_args<std::__ndk1::basic_string<char, std::__ndk1::char_traits<char>, std::__ndk1::allocator<char> >, std::__ndk1::pair<std::__ndk1::basic_string<char, std::__ndk1::char_traits<char>, std::__ndk1::allocator<char> > const, std::__ndk1::shared_ptr<sio::socket> > const&>(std::__ndk1::basic_string<char, std::__ndk1::char_traits<char>, std::__ndk1::allocator<char> > const&, std::__ndk1::pair<std::__ndk1::basic_string<char, std::__ndk1::char_traits<char>, std::__ndk1::allocator<char> > const, std::__ndk1::shared_ptr<sio::socket> > const&)
PUBLIC c1c5c 0 std::__ndk1::__tree<std::__ndk1::__value_type<std::__ndk1::basic_string<char, std::__ndk1::char_traits<char>, std::__ndk1::allocator<char> > const, std::__ndk1::shared_ptr<sio::socket> >, std::__ndk1::__map_value_compare<std::__ndk1::basic_string<char, std::__ndk1::char_traits<char>, std::__ndk1::allocator<char> > const, std::__ndk1::__value_type<std::__ndk1::basic_string<char, std::__ndk1::char_traits<char>, std::__ndk1::allocator<char> > const, std::__ndk1::shared_ptr<sio::socket> >, std::__ndk1::less<std::__ndk1::basic_string<char, std::__ndk1::char_traits<char>, std::__ndk1::allocator<char> > const>, true>, std::__ndk1::allocator<std::__ndk1::__value_type<std::__ndk1::basic_string<char, std::__ndk1::char_traits<char>, std::__ndk1::allocator<char> > const, std::__ndk1::shared_ptr<sio::socket> > > >::__find_equal<std::__ndk1::basic_string<char, std::__ndk1::char_traits<char>, std::__ndk1::allocator<char> > >(std::__ndk1::__tree_end_node<std::__ndk1::__tree_node_base<void*>*>*&, std::__ndk1::basic_string<char, std::__ndk1::char_traits<char>, std::__ndk1::allocator<char> > const&)
PUBLIC c1d68 0 asio::detail::completion_handler<std::__ndk1::__bind<void (sio::client_impl::*)(unsigned short const&, std::__ndk1::basic_string<char, std::__ndk1::char_traits<char>, std::__ndk1::allocator<char> > const&), sio::client_impl*, unsigned short const&, char const (&) [12]> >::ptr::~ptr()
PUBLIC c1ddc 0 std::__ndk1::__invoke[abi:v170000]<void (sio::client_impl&::*)(unsigned short const&, std::__ndk1::basic_string<char, std::__ndk1::char_traits<char>, std::__ndk1::allocator<char> > const&), sio*&, unsigned short&, char const*&, void>(sio*&, char const*&, void (sio::client_impl&::*)(unsigned short const&, std::__ndk1::basic_string<char, std::__ndk1::char_traits<char>, std::__ndk1::allocator<char> > const&))
PUBLIC c1f18 0 asio::detail::completion_handler<std::__ndk1::__bind<void (sio::client_impl::*)(unsigned short const&, std::__ndk1::basic_string<char, std::__ndk1::char_traits<char>, std::__ndk1::allocator<char> > const&), sio::client_impl*, unsigned short const&, char const (&) [12]> >::do_complete(void*, asio::detail::scheduler_operation*, std::__ndk1::error_code const&, unsigned long)
PUBLIC c2020 0 std::__ndk1::__tree<std::__ndk1::__value_type<std::__ndk1::basic_string<char, std::__ndk1::char_traits<char>, std::__ndk1::allocator<char> > const, std::__ndk1::shared_ptr<sio::socket> >, std::__ndk1::__map_value_compare<std::__ndk1::basic_string<char, std::__ndk1::char_traits<char>, std::__ndk1::allocator<char> > const, std::__ndk1::__value_type<std::__ndk1::basic_string<char, std::__ndk1::char_traits<char>, std::__ndk1::allocator<char> > const, std::__ndk1::shared_ptr<sio::socket> >, std::__ndk1::less<std::__ndk1::basic_string<char, std::__ndk1::char_traits<char>, std::__ndk1::allocator<char> > const>, true>, std::__ndk1::allocator<std::__ndk1::__value_type<std::__ndk1::basic_string<char, std::__ndk1::char_traits<char>, std::__ndk1::allocator<char> > const, std::__ndk1::shared_ptr<sio::socket> > > >::erase(std::__ndk1::__tree_const_iterator<std::__ndk1::__value_type<std::__ndk1::basic_string<char, std::__ndk1::char_traits<char>, std::__ndk1::allocator<char> > const, std::__ndk1::shared_ptr<sio::socket> >, std::__ndk1::__tree_node<std::__ndk1::__value_type<std::__ndk1::basic_string<char, std::__ndk1::char_traits<char>, std::__ndk1::allocator<char> > const, std::__ndk1::shared_ptr<sio::socket> >, void*>*, long>)
PUBLIC m c20f4 0 asio::detail::scheduler::run(std::__ndk1::error_code&)
PUBLIC m c22e4 0 asio::detail::scheduler::do_run_one(asio::detail::conditionally_enabled_mutex::scoped_lock&, asio::detail::scheduler_thread_info&, std::__ndk1::error_code const&)
PUBLIC m c2710 0 asio::detail::call_stack<asio::detail::thread_context, asio::detail::thread_info_base>::context::~context()
PUBLIC m c2738 0 asio::detail::scheduler_thread_info::~scheduler_thread_info()
PUBLIC m c27dc 0 asio::detail::epoll_reactor::run(long, asio::detail::op_queue<asio::detail::scheduler_operation>&)
PUBLIC m c2a20 0 asio::detail::scheduler::task_cleanup::~task_cleanup()
PUBLIC m c2ae8 0 asio::detail::scheduler::work_cleanup::~work_cleanup()
PUBLIC c2bc8 0 websocketpp::client<websocketpp::config::asio_client>::get_connection(std::__ndk1::shared_ptr<websocketpp::uri>, std::__ndk1::error_code&)
PUBLIC c2db0 0 std::__ndk1::shared_ptr<websocketpp::uri>::~shared_ptr[abi:v170000]()
PUBLIC c2e00 0 std::__ndk1::__shared_ptr_emplace<websocketpp::uri, std::__ndk1::allocator<websocketpp::uri> >::~__shared_ptr_emplace()
PUBLIC c2e10 0 std::__ndk1::__shared_ptr_emplace<websocketpp::uri, std::__ndk1::allocator<websocketpp::uri> >::~__shared_ptr_emplace()
PUBLIC c2e40 0 std::__ndk1::__shared_ptr_emplace<websocketpp::uri, std::__ndk1::allocator<websocketpp::uri> >::__on_zero_shared()
PUBLIC c2ea4 0 std::__ndk1::__shared_ptr_emplace<websocketpp::uri, std::__ndk1::allocator<websocketpp::uri> >::__on_zero_shared_weak()
PUBLIC c2ea8 0 websocketpp::endpoint<websocketpp::connection<websocketpp::config::asio_client>, websocketpp::config::asio_client>::create_connection()
PUBLIC c3df8 0 websocketpp::connection<websocketpp::config::asio_client>::set_handle(std::__ndk1::weak_ptr<void>)
PUBLIC c3ecc 0 websocketpp::transport::asio::endpoint<websocketpp::config::asio_client::transport_config>::init(std::__ndk1::shared_ptr<websocketpp::transport::asio::connection<websocketpp::config::asio_client::transport_config> >)
PUBLIC c4268 0 std::__ndk1::shared_ptr<websocketpp::transport::asio::connection<websocketpp::config::asio_client::transport_config> >::~shared_ptr[abi:v170000]()
PUBLIC c42b8 0 websocketpp::log::basic<websocketpp::concurrency::basic, websocketpp::log::elevel>::write(unsigned int, std::__ndk1::basic_string<char, std::__ndk1::char_traits<char>, std::__ndk1::allocator<char> > const&)
PUBLIC c44b4 0 std::__ndk1::allocate_shared[abi:v170000]<websocketpp::connection<std::__ndk1::allocate_shared[abi:v170000]::config::asio_client>, std::__ndk1::allocator<std::__ndk1::allocate_shared[abi:v170000]::config::asio_client>, bool const&, std::__ndk1::basic_string<char, std::__ndk1::char_traits<char>, websocketpp::connection<std::__ndk1::allocate_shared[abi:v170000]::config::asio_client><char> >&, std::__ndk1::shared_ptr<std::__ndk1::allocate_shared[abi:v170000]::log::basic<std::__ndk1::allocate_shared[abi:v170000]::concurrency::basic, std::__ndk1::shared_ptr::alevel> >&, std::__ndk1::basic_string<char, std::__ndk1::char_traits<char>, websocketpp::connection<std::__ndk1::allocate_shared[abi:v170000]::config::asio_client><char> ><std::__ndk1::allocate_shared[abi:v170000]::log<std::__ndk1::allocate_shared[abi:v170000]::concurrency, std::__ndk1::shared_ptr::elevel> >&, std::__ndk1::reference_wrapper<std::__ndk1::allocate_shared[abi:v170000]::random::random_device::int_generator<unsigned int, std::__ndk1::allocate_shared[abi:v170000]::concurrency> >, void>(std::__ndk1::allocator<std::__ndk1::allocate_shared[abi:v170000]::config::asio_client> const&, bool const&, std::__ndk1::basic_string<char, std::__ndk1::char_traits<char>, websocketpp::connection<std::__ndk1::allocate_shared[abi:v170000]::config::asio_client><char> >&, std::__ndk1::shared_ptr<std::__ndk1::allocate_shared[abi:v170000]::log::basic<std::__ndk1::allocate_shared[abi:v170000]::concurrency::basic, std::__ndk1::shared_ptr::alevel> >&, std::__ndk1::basic_string<char, std::__ndk1::char_traits<char>, websocketpp::connection<std::__ndk1::allocate_shared[abi:v170000]::config::asio_client><char> ><std::__ndk1::allocate_shared[abi:v170000]::log<std::__ndk1::allocate_shared[abi:v170000]::concurrency, std::__ndk1::shared_ptr::elevel> >&, std::__ndk1::reference_wrapper<std::__ndk1::allocate_shared[abi:v170000]::random::random_device::int_generator<unsigned int, std::__ndk1::allocate_shared[abi:v170000]::concurrency> >)
PUBLIC c4608 0 websocketpp::connection<websocketpp::config::asio_client>::connection(bool, std::__ndk1::basic_string<char, std::__ndk1::char_traits<char>, std::__ndk1::allocator<char> > const&, std::__ndk1::shared_ptr<websocketpp::log::basic<websocketpp::concurrency::basic, websocketpp::log::alevel> > const&, std::__ndk1::shared_ptr<websocketpp::log::basic<websocketpp::concurrency::basic, websocketpp::log::elevel> > const&, websocketpp::random::random_device::int_generator<unsigned int, websocketpp::concurrency::basic>&)
PUBLIC c4da0 0 std::__ndk1::__shared_ptr_emplace<websocketpp::connection<websocketpp::config::asio_client>, std::__ndk1::allocator<websocketpp::connection<websocketpp::config::asio_client> > >::~__shared_ptr_emplace()
PUBLIC c4db0 0 std::__ndk1::__shared_ptr_emplace<websocketpp::connection<websocketpp::config::asio_client>, std::__ndk1::allocator<websocketpp::connection<websocketpp::config::asio_client> > >::~__shared_ptr_emplace()
PUBLIC c4de0 0 std::__ndk1::__shared_ptr_emplace<websocketpp::connection<websocketpp::config::asio_client>, std::__ndk1::allocator<websocketpp::connection<websocketpp::config::asio_client> > >::__on_zero_shared()
PUBLIC c4de8 0 std::__ndk1::__shared_ptr_emplace<websocketpp::connection<websocketpp::config::asio_client>, std::__ndk1::allocator<websocketpp::connection<websocketpp::config::asio_client> > >::__on_zero_shared_weak()
PUBLIC c4dec 0 websocketpp::transport::asio::connection<websocketpp::config::asio_client::transport_config>::connection(bool, std::__ndk1::shared_ptr<websocketpp::log::basic<websocketpp::concurrency::basic, websocketpp::log::alevel> > const&, std::__ndk1::shared_ptr<websocketpp::log::basic<websocketpp::concurrency::basic, websocketpp::log::elevel> > const&)
PUBLIC c4fd0 0 websocketpp::connection<websocketpp::config::asio_client>::handle_read_frame(std::__ndk1::error_code const&, unsigned long)
PUBLIC c5e78 0 websocketpp::connection<websocketpp::config::asio_client>::handle_write_frame(std::__ndk1::error_code const&)
PUBLIC c6178 0 std::__ndk1::shared_ptr<websocketpp::message_buffer::alloc::con_msg_manager<websocketpp::message_buffer::message<websocketpp::message_buffer::alloc::con_msg_manager> > >::shared_ptr<websocketpp::message_buffer::alloc::con_msg_manager<websocketpp::message_buffer::message<websocketpp::message_buffer::alloc::con_msg_manager> >, void>()
PUBLIC c6304 0 websocketpp::http::parser::response::~response()
PUBLIC c63b8 0 websocketpp::http::parser::request::~request()
PUBLIC c6488 0 std::__ndk1::vector<std::__ndk1::shared_ptr<websocketpp::message_buffer::message<websocketpp::message_buffer::alloc::con_msg_manager> >, std::__ndk1::allocator<std::__ndk1::shared_ptr<websocketpp::message_buffer::message<websocketpp::message_buffer::alloc::con_msg_manager> > > >::~vector[abi:v170000]()
PUBLIC c6530 0 std::__ndk1::shared_ptr<websocketpp::processor::processor<websocketpp::config::asio_client> >::~shared_ptr[abi:v170000]()
PUBLIC c6580 0 std::__ndk1::shared_ptr<asio::basic_waitable_timer<std::__ndk1::chrono::steady_clock, asio::wait_traits<std::__ndk1::chrono::steady_clock> > >::~shared_ptr[abi:v170000]()
PUBLIC c65d0 0 std::__ndk1::shared_ptr<websocketpp::message_buffer::alloc::con_msg_manager<websocketpp::message_buffer::message<websocketpp::message_buffer::alloc::con_msg_manager> > >::~shared_ptr[abi:v170000]()
PUBLIC c6620 0 websocketpp::transport::asio::connection<websocketpp::config::asio_client::transport_config>::~connection()
PUBLIC c6834 0 std::__ndk1::shared_ptr<asio::io_context::strand>::~shared_ptr[abi:v170000]()
PUBLIC c6884 0 std::__ndk1::shared_ptr<websocketpp::transport::asio::connection<websocketpp::config::asio_client::transport_config>::proxy_data>::~shared_ptr[abi:v170000]()
PUBLIC c68d4 0 websocketpp::transport::asio::basic_socket::connection::~connection()
PUBLIC c697c 0 websocketpp::connection<websocketpp::config::asio_client>::terminate(std::__ndk1::error_code const&)
PUBLIC c6d10 0 websocketpp::connection<websocketpp::config::asio_client>::log_err<std::__ndk1::error_code>(unsigned int, char const*, std::__ndk1::error_code const&)
PUBLIC c6fd8 0 std::__ndk1::basic_stringstream<char, std::__ndk1::char_traits<char>, std::__ndk1::allocator<char> >::basic_stringstream[abi:v170000]()
PUBLIC c70bc 0 websocketpp::utility::to_hex(unsigned char const*, unsigned long)
PUBLIC c7214 0 websocketpp::connection<websocketpp::config::asio_client>::close(unsigned short, std::__ndk1::basic_string<char, std::__ndk1::char_traits<char>, std::__ndk1::allocator<char> > const&, std::__ndk1::error_code&)
PUBLIC c7400 0 websocketpp::connection<websocketpp::config::asio_client>::process_control_frame(std::__ndk1::shared_ptr<websocketpp::message_buffer::message<websocketpp::message_buffer::alloc::con_msg_manager> >)
PUBLIC c7b58 0 websocketpp::transport::error::category::~category()
PUBLIC c7b7c 0 websocketpp::transport::error::category::name() const
PUBLIC c7b88 0 websocketpp::transport::error::category::message(int) const
PUBLIC c7e24 0 websocketpp::connection<websocketpp::config::asio_client>::log_fail_result()
PUBLIC c843c 0 websocketpp::transport::asio::connection<websocketpp::config::asio_client::transport_config>::async_shutdown(std::__ndk1::function<void (std::__ndk1::error_code const&)>)
PUBLIC c8a68 0 websocketpp::connection<websocketpp::config::asio_client>::handle_terminate(websocketpp::connection<websocketpp::config::asio_client>::terminate_status, std::__ndk1::error_code const&)
PUBLIC c8ea8 0 std::__ndk1::__bind<void (websocketpp::connection<websocketpp::config::asio_client>::*)(websocketpp::connection<websocketpp::config::asio_client>::terminate_status, std::__ndk1::error_code const&), std::__ndk1::shared_ptr<websocketpp::connection<websocketpp::config::asio_client> >, websocketpp::connection<websocketpp::config::asio_client>&::terminate_status, std::__ndk1::placeholders::__ph<1> const&>::~__bind()
PUBLIC c8ef8 0 websocketpp::processor::get_websocket_version<websocketpp::http::parser::request>(websocketpp::http::parser::request&)
PUBLIC c9138 0 websocketpp::transport::asio::connection<websocketpp::config::asio_client::transport_config>::get_remote_endpoint() const
PUBLIC c9230 0 websocketpp::utility::string_replace_all(std::__ndk1::basic_string<char, std::__ndk1::char_traits<char>, std::__ndk1::allocator<char> >, std::__ndk1::basic_string<char, std::__ndk1::char_traits<char>, std::__ndk1::allocator<char> > const&, std::__ndk1::basic_string<char, std::__ndk1::char_traits<char>, std::__ndk1::allocator<char> > const&)
PUBLIC c93ac 0 std::__ndk1::operator<<[abi:v170000]<char, std::__ndk1::char_traits<char> >(std::__ndk1::basic_ostream<char, std::__ndk1::char_traits<char> >, std::__ndk1::error_code const&)
PUBLIC c9440 0 std::__ndk1::basic_istringstream<char, std::__ndk1::char_traits<char>, std::__ndk1::allocator<char> >::basic_istringstream[abi:v170000](std::__ndk1::basic_string<char, std::__ndk1::char_traits<char>, std::__ndk1::allocator<char> > const&, unsigned int)
PUBLIC c954c 0 std::__ndk1::basic_istringstream<char, std::__ndk1::char_traits<char>, std::__ndk1::allocator<char> >::~basic_istringstream()
PUBLIC c95d0 0 std::__ndk1::basic_istringstream<char, std::__ndk1::char_traits<char>, std::__ndk1::allocator<char> >::~basic_istringstream()
PUBLIC c965c 0 {virtual override thunk({virtual offset(0, -24)}, std::__ndk1::basic_istringstream<char, std::__ndk1::char_traits<char>, std::__ndk1::allocator<char> >::~basic_istringstream())}
PUBLIC c96e8 0 {virtual override thunk({virtual offset(0, -24)}, std::__ndk1::basic_istringstream<char, std::__ndk1::char_traits<char>, std::__ndk1::allocator<char> >::~basic_istringstream())}
PUBLIC c977c 0 websocketpp::transport::asio::basic_socket::connection::get_remote_endpoint(std::__ndk1::error_code&) const
PUBLIC c9b00 0 websocketpp::transport::asio::error::make_error_code(websocketpp::transport::asio::error::value)
PUBLIC m c9b98 0 asio::ip::operator<< <char, std::__ndk1::char_traits<char>, asio::ip::tcp>(std::__ndk1::basic_ostream<char, std::__ndk1::char_traits<char> >&, asio::ip::basic_endpoint<asio::ip::tcp> const&)
PUBLIC m c9cb8 0 asio::detail::socket_ops::getpeername(int, sockaddr*, unsigned long*, bool, std::__ndk1::error_code&)
PUBLIC m c9e3c 0 asio::ip::detail::endpoint::resize(unsigned long)
PUBLIC c9f68 0 websocketpp::transport::asio::error::category::~category()
PUBLIC c9f8c 0 websocketpp::transport::asio::error::category::name() const
PUBLIC c9f98 0 websocketpp::transport::asio::error::category::message(int) const
PUBLIC m ca150 0 asio::ip::detail::endpoint::endpoint(asio::ip::address const&, unsigned short)
PUBLIC m ca2cc 0 asio::ip::detail::endpoint::to_string() const
PUBLIC m ca5b8 0 asio::ip::bad_address_cast::~bad_address_cast()
PUBLIC m ca5dc 0 asio::ip::bad_address_cast::what() const
PUBLIC m ca5e8 0 asio::ip::operator<< <char, std::__ndk1::char_traits<char> >(std::__ndk1::basic_ostream<char, std::__ndk1::char_traits<char> >&, asio::ip::address const&)
PUBLIC m ca6d0 0 asio::ip::address_v6::to_string() const
PUBLIC m ca848 0 asio::ip::address_v4::to_string() const
PUBLIC m ca9c0 0 asio::detail::socket_ops::inet_ntop(int, void const*, char*, unsigned long, unsigned long, std::__ndk1::error_code&)
PUBLIC cabb4 0 sprintf(char*, char const* pass_object_size1, ...)
PUBLIC cac58 0 std::__ndk1::__tree<std::__ndk1::__value_type<std::__ndk1::basic_string<char, std::__ndk1::char_traits<char>, std::__ndk1::allocator<char> >, std::__ndk1::basic_string<char, std::__ndk1::char_traits<char>, std::__ndk1::allocator<char> > >, std::__ndk1::__map_value_compare<std::__ndk1::basic_string<char, std::__ndk1::char_traits<char>, std::__ndk1::allocator<char> >, std::__ndk1::__value_type<std::__ndk1::basic_string<char, std::__ndk1::char_traits<char>, std::__ndk1::allocator<char> >, std::__ndk1::basic_string<char, std::__ndk1::char_traits<char>, std::__ndk1::allocator<char> > >, websocketpp::utility::ci_less, true>, std::__ndk1::allocator<std::__ndk1::__value_type<std::__ndk1::basic_string<char, std::__ndk1::char_traits<char>, std::__ndk1::allocator<char> >, std::__ndk1::basic_string<char, std::__ndk1::char_traits<char>, std::__ndk1::allocator<char> > > > >::find<std::__ndk1::basic_string<char, std::__ndk1::char_traits<char>, std::__ndk1::allocator<char> > >(std::__ndk1::basic_string<char, std::__ndk1::char_traits<char>, std::__ndk1::allocator<char> > const&) const
PUBLIC cadb8 0 websocketpp::transport::asio::connection<websocketpp::config::asio_client::transport_config>::set_timer(long, std::__ndk1::function<void (std::__ndk1::error_code const&)>)
PUBLIC cb16c 0 websocketpp::transport::asio::connection<websocketpp::config::asio_client::transport_config>::handle_async_shutdown_timeout(std::__ndk1::shared_ptr<asio::basic_waitable_timer<std::__ndk1::chrono::steady_clock, asio::wait_traits<std::__ndk1::chrono::steady_clock> > >, std::__ndk1::function<void (std::__ndk1::error_code const&)>, std::__ndk1::error_code const&)
PUBLIC cb358 0 std::__ndk1::__bind<void (websocketpp::transport::asio::connection<websocketpp::config::asio_client::transport_config>::*)(std::__ndk1::shared_ptr<asio::basic_waitable_timer<std::__ndk1::chrono::steady_clock, asio::wait_traits<std::__ndk1::chrono::steady_clock> > >, std::__ndk1::function<void (std::__ndk1::error_code const&)>, std::__ndk1::error_code const&), std::__ndk1::shared_ptr<websocketpp::transport::asio::connection<websocketpp::config::asio_client::transport_config> >, std::__ndk1::shared_ptr<asio::basic_waitable_timer<std::__ndk1::chrono::steady_clock, asio::wait_traits<std::__ndk1::chrono::steady_clock> > >&, std::__ndk1::function<void (std::__ndk1::error_code const&)>&, std::__ndk1::placeholders::__ph<1> const&>::~__bind()
PUBLIC cb418 0 websocketpp::transport::asio::connection<websocketpp::config::asio_client::transport_config>::handle_async_shutdown(std::__ndk1::shared_ptr<asio::basic_waitable_timer<std::__ndk1::chrono::steady_clock, asio::wait_traits<std::__ndk1::chrono::steady_clock> > >, std::__ndk1::function<void (std::__ndk1::error_code const&)>, std::__ndk1::error_code const&)
PUBLIC m cb67c 0 asio::basic_waitable_timer<std::__ndk1::chrono::steady_clock, asio::wait_traits<std::__ndk1::chrono::steady_clock> >::basic_waitable_timer(asio::io_context&, std::__ndk1::chrono::duration<long long, std::__ndk1::ratio<(long)1, (long)1000000000> > const&)
PUBLIC cb7b0 0 websocketpp::transport::asio::connection<websocketpp::config::asio_client::transport_config>::handle_timer(std::__ndk1::shared_ptr<asio::basic_waitable_timer<std::__ndk1::chrono::steady_clock, asio::wait_traits<std::__ndk1::chrono::steady_clock> > >, std::__ndk1::function<void (std::__ndk1::error_code const&)>, std::__ndk1::error_code const&)
PUBLIC cb9ac 0 asio::detail::wrapped_handler<asio::io_context::strand, std::__ndk1::__bind<void (websocketpp::transport::asio::connection<websocketpp::config::asio_client::transport_config>::*)(std::__ndk1::shared_ptr<asio::basic_waitable_timer<std::__ndk1::chrono::steady_clock, asio::wait_traits<std::__ndk1::chrono::steady_clock> > >, std::__ndk1::function<void (std::__ndk1::error_code const&)>, std::__ndk1::error_code const&), std::__ndk1::shared_ptr<websocketpp::transport::asio::connection<websocketpp::config::asio_client::transport_config> >, std::__ndk1::shared_ptr<asio::basic_waitable_timer<std::__ndk1::chrono::steady_clock, asio::wait_traits<std::__ndk1::chrono::steady_clock> > >&, std::__ndk1::function<void (std::__ndk1::error_code const&)>&, std::__ndk1::placeholders::__ph<1> const&>, asio::detail::is_continuation_if_running>::~wrapped_handler()
PUBLIC m cba6c 0 asio::detail::noncopyable::~noncopyable()
PUBLIC cba70 0 std::__ndk1::__shared_ptr_pointer<asio::basic_waitable_timer<std::__ndk1::chrono::steady_clock, asio::wait_traits<std::__ndk1::chrono::steady_clock> >*, std::__ndk1::shared_ptr<asio::basic_waitable_timer<std::__ndk1::chrono::steady_clock, asio::wait_traits<std::__ndk1::chrono::steady_clock> > >::__shared_ptr_default_delete<asio::basic_waitable_timer<std::__ndk1::chrono::steady_clock, asio::wait_traits<std::__ndk1::chrono::steady_clock> >, asio::basic_waitable_timer<std::__ndk1::chrono::steady_clock, asio::wait_traits<std::__ndk1::chrono::steady_clock> > >, std::__ndk1::allocator<asio::basic_waitable_timer<std::__ndk1::chrono::steady_clock, asio::wait_traits<std::__ndk1::chrono::steady_clock> > > >::~__shared_ptr_pointer()
PUBLIC cba94 0 std::__ndk1::__shared_ptr_pointer<asio::basic_waitable_timer<std::__ndk1::chrono::steady_clock, asio::wait_traits<std::__ndk1::chrono::steady_clock> >*, std::__ndk1::shared_ptr<asio::basic_waitable_timer<std::__ndk1::chrono::steady_clock, asio::wait_traits<std::__ndk1::chrono::steady_clock> > >::__shared_ptr_default_delete<asio::basic_waitable_timer<std::__ndk1::chrono::steady_clock, asio::wait_traits<std::__ndk1::chrono::steady_clock> >, asio::basic_waitable_timer<std::__ndk1::chrono::steady_clock, asio::wait_traits<std::__ndk1::chrono::steady_clock> > >, std::__ndk1::allocator<asio::basic_waitable_timer<std::__ndk1::chrono::steady_clock, asio::wait_traits<std::__ndk1::chrono::steady_clock> > > >::__on_zero_shared()
PUBLIC cbacc 0 std::__ndk1::__shared_ptr_pointer<asio::basic_waitable_timer<std::__ndk1::chrono::steady_clock, asio::wait_traits<std::__ndk1::chrono::steady_clock> >*, std::__ndk1::shared_ptr<asio::basic_waitable_timer<std::__ndk1::chrono::steady_clock, asio::wait_traits<std::__ndk1::chrono::steady_clock> > >::__shared_ptr_default_delete<asio::basic_waitable_timer<std::__ndk1::chrono::steady_clock, asio::wait_traits<std::__ndk1::chrono::steady_clock> >, asio::basic_waitable_timer<std::__ndk1::chrono::steady_clock, asio::wait_traits<std::__ndk1::chrono::steady_clock> > >, std::__ndk1::allocator<asio::basic_waitable_timer<std::__ndk1::chrono::steady_clock, asio::wait_traits<std::__ndk1::chrono::steady_clock> > > >::__get_deleter(std::type_info const&) const
PUBLIC cbae8 0 std::__ndk1::__shared_ptr_pointer<asio::basic_waitable_timer<std::__ndk1::chrono::steady_clock, asio::wait_traits<std::__ndk1::chrono::steady_clock> >*, std::__ndk1::shared_ptr<asio::basic_waitable_timer<std::__ndk1::chrono::steady_clock, asio::wait_traits<std::__ndk1::chrono::steady_clock> > >::__shared_ptr_default_delete<asio::basic_waitable_timer<std::__ndk1::chrono::steady_clock, asio::wait_traits<std::__ndk1::chrono::steady_clock> >, asio::basic_waitable_timer<std::__ndk1::chrono::steady_clock, asio::wait_traits<std::__ndk1::chrono::steady_clock> > >, std::__ndk1::allocator<asio::basic_waitable_timer<std::__ndk1::chrono::steady_clock, asio::wait_traits<std::__ndk1::chrono::steady_clock> > > >::__on_zero_shared_weak()
PUBLIC cbaec 0 asio::detail::deadline_timer_service<asio::detail::chrono_time_traits<std::__ndk1::chrono::steady_clock, asio::wait_traits<std::__ndk1::chrono::steady_clock> > >::async_wait<asio::detail::wrapped_handler<asio::io_context::strand, std::__ndk1::__bind<void (websocketpp::transport::asio::connection<websocketpp::config::asio_client::transport_config>::*)(std::__ndk1::shared_ptr<asio::basic_waitable_timer<std::__ndk1::chrono::steady_clock, asio::wait_traits<std::__ndk1::chrono::steady_clock> > >, std::__ndk1::function<void (std::__ndk1::error_code const&)>, std::__ndk1::error_code const&), std::__ndk1::shared_ptr<websocketpp::transport::asio::connection<websocketpp::config::asio_client::transport_config> >, std::__ndk1::shared_ptr<asio::basic_waitable_timer<std::__ndk1::chrono::steady_clock, asio::wait_traits<std::__ndk1::chrono::steady_clock> > >&, std::__ndk1::function<void (std::__ndk1::error_code const&)>&, std::__ndk1::placeholders::__ph<1> const&>, asio::detail::is_continuation_if_running> >(asio::detail::deadline_timer_service<asio::detail::chrono_time_traits<std::__ndk1::chrono::steady_clock, asio::wait_traits<std::__ndk1::chrono::steady_clock> > >::implementation_type&, asio::detail::wrapped_handler<asio::io_context::strand, std::__ndk1::__bind<void (websocketpp::transport::asio::connection<websocketpp::config::asio_client::transport_config>::*)(std::__ndk1::shared_ptr<asio::basic_waitable_timer<std::__ndk1::chrono::steady_clock, asio::wait_traits<std::__ndk1::chrono::steady_clock> > >, std::__ndk1::function<void (std::__ndk1::error_code const&)>, std::__ndk1::error_code const&), std::__ndk1::shared_ptr<websocketpp::transport::asio::connection<websocketpp::config::asio_client::transport_config> >, std::__ndk1::shared_ptr<asio::basic_waitable_timer<std::__ndk1::chrono::steady_clock, asio::wait_traits<std::__ndk1::chrono::steady_clock> > >&, std::__ndk1::function<void (std::__ndk1::error_code const&)>&, std::__ndk1::placeholders::__ph<1> const&>, asio::detail::is_continuation_if_running>&)
PUBLIC cbc90 0 asio::detail::wait_handler<asio::detail::wrapped_handler<asio::io_context::strand, std::__ndk1::__bind<void (websocketpp::transport::asio::connection<websocketpp::config::asio_client::transport_config>::*)(std::__ndk1::shared_ptr<asio::basic_waitable_timer<std::__ndk1::chrono::steady_clock, asio::wait_traits<std::__ndk1::chrono::steady_clock> > >, std::__ndk1::function<void (std::__ndk1::error_code const&)>, std::__ndk1::error_code const&), std::__ndk1::shared_ptr<websocketpp::transport::asio::connection<websocketpp::config::asio_client::transport_config> >, std::__ndk1::shared_ptr<asio::basic_waitable_timer<std::__ndk1::chrono::steady_clock, asio::wait_traits<std::__ndk1::chrono::steady_clock> > >&, std::__ndk1::function<void (std::__ndk1::error_code const&)>&, std::__ndk1::placeholders::__ph<1> const&>, asio::detail::is_continuation_if_running> >::do_complete(void*, asio::detail::scheduler_operation*, std::__ndk1::error_code const&, unsigned long)
PUBLIC cbe54 0 asio::detail::wait_handler<asio::detail::wrapped_handler<asio::io_context::strand, std::__ndk1::__bind<void (websocketpp::transport::asio::connection<websocketpp::config::asio_client::transport_config>::*)(std::__ndk1::shared_ptr<asio::basic_waitable_timer<std::__ndk1::chrono::steady_clock, asio::wait_traits<std::__ndk1::chrono::steady_clock> > >, std::__ndk1::function<void (std::__ndk1::error_code const&)>, std::__ndk1::error_code const&), std::__ndk1::shared_ptr<websocketpp::transport::asio::connection<websocketpp::config::asio_client::transport_config> >, std::__ndk1::shared_ptr<asio::basic_waitable_timer<std::__ndk1::chrono::steady_clock, asio::wait_traits<std::__ndk1::chrono::steady_clock> > >&, std::__ndk1::function<void (std::__ndk1::error_code const&)>&, std::__ndk1::placeholders::__ph<1> const&>, asio::detail::is_continuation_if_running> >::ptr::reset()
PUBLIC cbf6c 0 asio::detail::binder1<asio::detail::wrapped_handler<asio::io_context::strand, std::__ndk1::__bind<void (websocketpp::transport::asio::connection<websocketpp::config::asio_client::transport_config>::*)(std::__ndk1::shared_ptr<asio::basic_waitable_timer<std::__ndk1::chrono::steady_clock, asio::wait_traits<std::__ndk1::chrono::steady_clock> > >, std::__ndk1::function<void (std::__ndk1::error_code const&)>, std::__ndk1::error_code const&), std::__ndk1::shared_ptr<websocketpp::transport::asio::connection<websocketpp::config::asio_client::transport_config> >, std::__ndk1::shared_ptr<asio::basic_waitable_timer<std::__ndk1::chrono::steady_clock, asio::wait_traits<std::__ndk1::chrono::steady_clock> > >&, std::__ndk1::function<void (std::__ndk1::error_code const&)>&, std::__ndk1::placeholders::__ph<1> const&>, asio::detail::is_continuation_if_running>, std::__ndk1::error_code>::~binder1()
PUBLIC cc02c 0 asio::detail::asio_handler_invoke<asio::detail::binder1<asio::detail::wrapped_handler<asio::io_context::strand, std::__ndk1::__bind<void (websocketpp::transport::asio::connection<websocketpp::config::asio_client::transport_config>::*)(std::__ndk1::shared_ptr<asio::basic_waitable_timer<std::__ndk1::chrono::steady_clock, asio::wait_traits<std::__ndk1::chrono::steady_clock> > >, std::__ndk1::function<void (std::__ndk1::error_code const&)>, std::__ndk1::error_code const&), std::__ndk1::shared_ptr<websocketpp::transport::asio::connection<websocketpp::config::asio_client::transport_config> >, std::__ndk1::shared_ptr<asio::basic_waitable_timer<std::__ndk1::chrono::steady_clock, asio::wait_traits<std::__ndk1::chrono::steady_clock> > >&, std::__ndk1::function<void (std::__ndk1::error_code const&)>&, std::__ndk1::placeholders::__ph<1> const&>, asio::detail::is_continuation_if_running>, std::__ndk1::error_code>, asio::io_context::strand, std::__ndk1::__bind<void (websocketpp::transport::asio::connection<websocketpp::config::asio_client::transport_config>::*)(std::__ndk1::shared_ptr<asio::basic_waitable_timer<std::__ndk1::chrono::steady_clock, asio::wait_traits<std::__ndk1::chrono::steady_clock> > >, std::__ndk1::function<void (std::__ndk1::error_code const&)>, std::__ndk1::error_code const&), std::__ndk1::shared_ptr<websocketpp::transport::asio::connection<websocketpp::config::asio_client::transport_config> >, std::__ndk1::shared_ptr<asio::basic_waitable_timer<std::__ndk1::chrono::steady_clock, asio::wait_traits<std::__ndk1::chrono::steady_clock> > >&, std::__ndk1::function<void (std::__ndk1::error_code const&)>&, std::__ndk1::placeholders::__ph<1> const&>, asio::detail::is_continuation_if_running>(asio::detail::binder1<asio::detail::wrapped_handler<asio::io_context::strand, std::__ndk1::__bind<void (websocketpp::transport::asio::connection<websocketpp::config::asio_client::transport_config>::*)(std::__ndk1::shared_ptr<asio::basic_waitable_timer<std::__ndk1::chrono::steady_clock, asio::wait_traits<std::__ndk1::chrono::steady_clock> > >, std::__ndk1::function<void (std::__ndk1::error_code const&)>, std::__ndk1::error_code const&), std::__ndk1::shared_ptr<websocketpp::transport::asio::connection<websocketpp::config::asio_client::transport_config> >, std::__ndk1::shared_ptr<asio::basic_waitable_timer<std::__ndk1::chrono::steady_clock, asio::wait_traits<std::__ndk1::chrono::steady_clock> > >&, std::__ndk1::function<void (std::__ndk1::error_code const&)>&, std::__ndk1::placeholders::__ph<1> const&>, asio::detail::is_continuation_if_running>, std::__ndk1::error_code>&, asio::detail::wrapped_handler<asio::io_context::strand, std::__ndk1::__bind<void (websocketpp::transport::asio::connection<websocketpp::config::asio_client::transport_config>::*)(std::__ndk1::shared_ptr<asio::basic_waitable_timer<std::__ndk1::chrono::steady_clock, asio::wait_traits<std::__ndk1::chrono::steady_clock> > >, std::__ndk1::function<void (std::__ndk1::error_code const&)>, std::__ndk1::error_code const&), std::__ndk1::shared_ptr<websocketpp::transport::asio::connection<websocketpp::config::asio_client::transport_config> >, std::__ndk1::shared_ptr<asio::basic_waitable_timer<std::__ndk1::chrono::steady_clock, asio::wait_traits<std::__ndk1::chrono::steady_clock> > >&, std::__ndk1::function<void (std::__ndk1::error_code const&)>&, std::__ndk1::placeholders::__ph<1> const&>, asio::detail::is_continuation_if_running>*)
PUBLIC cc13c 0 asio::detail::rewrapped_handler<asio::detail::binder1<asio::detail::wrapped_handler<asio::io_context::strand, std::__ndk1::__bind<void (websocketpp::transport::asio::connection<websocketpp::config::asio_client::transport_config>::*)(std::__ndk1::shared_ptr<asio::basic_waitable_timer<std::__ndk1::chrono::steady_clock, asio::wait_traits<std::__ndk1::chrono::steady_clock> > >, std::__ndk1::function<void (std::__ndk1::error_code const&)>, std::__ndk1::error_code const&), std::__ndk1::shared_ptr<websocketpp::transport::asio::connection<websocketpp::config::asio_client::transport_config> >, std::__ndk1::shared_ptr<asio::basic_waitable_timer<std::__ndk1::chrono::steady_clock, asio::wait_traits<std::__ndk1::chrono::steady_clock> > >&, std::__ndk1::function<void (std::__ndk1::error_code const&)>&, std::__ndk1::placeholders::__ph<1> const&>, asio::detail::is_continuation_if_running>, std::__ndk1::error_code>, std::__ndk1::__bind<void (websocketpp::transport::asio::connection<websocketpp::config::asio_client::transport_config>::*)(std::__ndk1::shared_ptr<asio::basic_waitable_timer<std::__ndk1::chrono::steady_clock, asio::wait_traits<std::__ndk1::chrono::steady_clock> > >, std::__ndk1::function<void (std::__ndk1::error_code const&)>, std::__ndk1::error_code const&), std::__ndk1::shared_ptr<websocketpp::transport::asio::connection<websocketpp::config::asio_client::transport_config> >, std::__ndk1::shared_ptr<asio::basic_waitable_timer<std::__ndk1::chrono::steady_clock, asio::wait_traits<std::__ndk1::chrono::steady_clock> > >&, std::__ndk1::function<void (std::__ndk1::error_code const&)>&, std::__ndk1::placeholders::__ph<1> const&> >::~rewrapped_handler()
PUBLIC cc29c 0 asio::detail::strand_service::dispatch<asio::detail::rewrapped_handler<asio::detail::binder1<asio::detail::wrapped_handler<asio::io_context::strand, std::__ndk1::__bind<void (websocketpp::transport::asio::connection<websocketpp::config::asio_client::transport_config>::*)(std::__ndk1::shared_ptr<asio::basic_waitable_timer<std::__ndk1::chrono::steady_clock, asio::wait_traits<std::__ndk1::chrono::steady_clock> > >, std::__ndk1::function<void (std::__ndk1::error_code const&)>, std::__ndk1::error_code const&), std::__ndk1::shared_ptr<websocketpp::transport::asio::connection<websocketpp::config::asio_client::transport_config> >, std::__ndk1::shared_ptr<asio::basic_waitable_timer<std::__ndk1::chrono::steady_clock, asio::wait_traits<std::__ndk1::chrono::steady_clock> > >&, std::__ndk1::function<void (std::__ndk1::error_code const&)>&, std::__ndk1::placeholders::__ph<1> const&>, asio::detail::is_continuation_if_running>, std::__ndk1::error_code>, std::__ndk1::__bind<void (websocketpp::transport::asio::connection<websocketpp::config::asio_client::transport_config>::*)(std::__ndk1::shared_ptr<asio::basic_waitable_timer<std::__ndk1::chrono::steady_clock, asio::wait_traits<std::__ndk1::chrono::steady_clock> > >, std::__ndk1::function<void (std::__ndk1::error_code const&)>, std::__ndk1::error_code const&), std::__ndk1::shared_ptr<websocketpp::transport::asio::connection<websocketpp::config::asio_client::transport_config> >, std::__ndk1::shared_ptr<asio::basic_waitable_timer<std::__ndk1::chrono::steady_clock, asio::wait_traits<std::__ndk1::chrono::steady_clock> > >&, std::__ndk1::function<void (std::__ndk1::error_code const&)>&, std::__ndk1::placeholders::__ph<1> const&> > >(asio::detail::strand_service::strand_impl*&, asio::detail::rewrapped_handler<asio::detail::binder1<asio::detail::wrapped_handler<asio::io_context::strand, std::__ndk1::__bind<void (websocketpp::transport::asio::connection<websocketpp::config::asio_client::transport_config>::*)(std::__ndk1::shared_ptr<asio::basic_waitable_timer<std::__ndk1::chrono::steady_clock, asio::wait_traits<std::__ndk1::chrono::steady_clock> > >, std::__ndk1::function<void (std::__ndk1::error_code const&)>, std::__ndk1::error_code const&), std::__ndk1::shared_ptr<websocketpp::transport::asio::connection<websocketpp::config::asio_client::transport_config> >, std::__ndk1::shared_ptr<asio::basic_waitable_timer<std::__ndk1::chrono::steady_clock, asio::wait_traits<std::__ndk1::chrono::steady_clock> > >&, std::__ndk1::function<void (std::__ndk1::error_code const&)>&, std::__ndk1::placeholders::__ph<1> const&>, asio::detail::is_continuation_if_running>, std::__ndk1::error_code>, std::__ndk1::__bind<void (websocketpp::transport::asio::connection<websocketpp::config::asio_client::transport_config>::*)(std::__ndk1::shared_ptr<asio::basic_waitable_timer<std::__ndk1::chrono::steady_clock, asio::wait_traits<std::__ndk1::chrono::steady_clock> > >, std::__ndk1::function<void (std::__ndk1::error_code const&)>, std::__ndk1::error_code const&), std::__ndk1::shared_ptr<websocketpp::transport::asio::connection<websocketpp::config::asio_client::transport_config> >, std::__ndk1::shared_ptr<asio::basic_waitable_timer<std::__ndk1::chrono::steady_clock, asio::wait_traits<std::__ndk1::chrono::steady_clock> > >&, std::__ndk1::function<void (std::__ndk1::error_code const&)>&, std::__ndk1::placeholders::__ph<1> const&> >&)
PUBLIC m cc518 0 asio::detail::strand_service::do_dispatch(asio::detail::strand_service::strand_impl*&, asio::detail::scheduler_operation*)
PUBLIC cc654 0 asio::detail::completion_handler<asio::detail::rewrapped_handler<asio::detail::binder1<asio::detail::wrapped_handler<asio::io_context::strand, std::__ndk1::__bind<void (websocketpp::transport::asio::connection<websocketpp::config::asio_client::transport_config>::*)(std::__ndk1::shared_ptr<asio::basic_waitable_timer<std::__ndk1::chrono::steady_clock, asio::wait_traits<std::__ndk1::chrono::steady_clock> > >, std::__ndk1::function<void (std::__ndk1::error_code const&)>, std::__ndk1::error_code const&), std::__ndk1::shared_ptr<websocketpp::transport::asio::connection<websocketpp::config::asio_client::transport_config> >, std::__ndk1::shared_ptr<asio::basic_waitable_timer<std::__ndk1::chrono::steady_clock, asio::wait_traits<std::__ndk1::chrono::steady_clock> > >&, std::__ndk1::function<void (std::__ndk1::error_code const&)>&, std::__ndk1::placeholders::__ph<1> const&>, asio::detail::is_continuation_if_running>, std::__ndk1::error_code>, std::__ndk1::__bind<void (websocketpp::transport::asio::connection<websocketpp::config::asio_client::transport_config>::*)(std::__ndk1::shared_ptr<asio::basic_waitable_timer<std::__ndk1::chrono::steady_clock, asio::wait_traits<std::__ndk1::chrono::steady_clock> > >, std::__ndk1::function<void (std::__ndk1::error_code const&)>, std::__ndk1::error_code const&), std::__ndk1::shared_ptr<websocketpp::transport::asio::connection<websocketpp::config::asio_client::transport_config> >, std::__ndk1::shared_ptr<asio::basic_waitable_timer<std::__ndk1::chrono::steady_clock, asio::wait_traits<std::__ndk1::chrono::steady_clock> > >&, std::__ndk1::function<void (std::__ndk1::error_code const&)>&, std::__ndk1::placeholders::__ph<1> const&> > >::do_complete(void*, asio::detail::scheduler_operation*, std::__ndk1::error_code const&, unsigned long)
PUBLIC m cc758 0 asio::detail::strand_service::on_dispatch_exit::~on_dispatch_exit()
PUBLIC m cc7e0 0 asio::detail::call_stack<asio::detail::strand_service::strand_impl, unsigned char>::context::~context()
PUBLIC cc808 0 asio::detail::completion_handler<asio::detail::rewrapped_handler<asio::detail::binder1<asio::detail::wrapped_handler<asio::io_context::strand, std::__ndk1::__bind<void (websocketpp::transport::asio::connection<websocketpp::config::asio_client::transport_config>::*)(std::__ndk1::shared_ptr<asio::basic_waitable_timer<std::__ndk1::chrono::steady_clock, asio::wait_traits<std::__ndk1::chrono::steady_clock> > >, std::__ndk1::function<void (std::__ndk1::error_code const&)>, std::__ndk1::error_code const&), std::__ndk1::shared_ptr<websocketpp::transport::asio::connection<websocketpp::config::asio_client::transport_config> >, std::__ndk1::shared_ptr<asio::basic_waitable_timer<std::__ndk1::chrono::steady_clock, asio::wait_traits<std::__ndk1::chrono::steady_clock> > >&, std::__ndk1::function<void (std::__ndk1::error_code const&)>&, std::__ndk1::placeholders::__ph<1> const&>, asio::detail::is_continuation_if_running>, std::__ndk1::error_code>, std::__ndk1::__bind<void (websocketpp::transport::asio::connection<websocketpp::config::asio_client::transport_config>::*)(std::__ndk1::shared_ptr<asio::basic_waitable_timer<std::__ndk1::chrono::steady_clock, asio::wait_traits<std::__ndk1::chrono::steady_clock> > >, std::__ndk1::function<void (std::__ndk1::error_code const&)>, std::__ndk1::error_code const&), std::__ndk1::shared_ptr<websocketpp::transport::asio::connection<websocketpp::config::asio_client::transport_config> >, std::__ndk1::shared_ptr<asio::basic_waitable_timer<std::__ndk1::chrono::steady_clock, asio::wait_traits<std::__ndk1::chrono::steady_clock> > >&, std::__ndk1::function<void (std::__ndk1::error_code const&)>&, std::__ndk1::placeholders::__ph<1> const&> > >::ptr::~ptr()
PUBLIC cc860 0 asio::detail::wrapped_handler<asio::io_context::strand, std::__ndk1::__bind<void (websocketpp::transport::asio::connection<websocketpp::config::asio_client::transport_config>::*)(std::__ndk1::shared_ptr<asio::basic_waitable_timer<std::__ndk1::chrono::steady_clock, asio::wait_traits<std::__ndk1::chrono::steady_clock> > >, std::__ndk1::function<void (std::__ndk1::error_code const&)>, std::__ndk1::error_code const&), std::__ndk1::shared_ptr<websocketpp::transport::asio::connection<websocketpp::config::asio_client::transport_config> >, std::__ndk1::shared_ptr<asio::basic_waitable_timer<std::__ndk1::chrono::steady_clock, asio::wait_traits<std::__ndk1::chrono::steady_clock> > >&, std::__ndk1::function<void (std::__ndk1::error_code const&)>&, std::__ndk1::placeholders::__ph<1> const&>, asio::detail::is_continuation_if_running>::operator()<std::__ndk1::error_code>(std::__ndk1::error_code const&)
PUBLIC cc998 0 asio::detail::binder1<std::__ndk1::__bind<void (websocketpp::transport::asio::connection<websocketpp::config::asio_client::transport_config>::*)(std::__ndk1::shared_ptr<asio::basic_waitable_timer<std::__ndk1::chrono::steady_clock, asio::wait_traits<std::__ndk1::chrono::steady_clock> > >, std::__ndk1::function<void (std::__ndk1::error_code const&)>, std::__ndk1::error_code const&), std::__ndk1::shared_ptr<websocketpp::transport::asio::connection<websocketpp::config::asio_client::transport_config> >, std::__ndk1::shared_ptr<asio::basic_waitable_timer<std::__ndk1::chrono::steady_clock, asio::wait_traits<std::__ndk1::chrono::steady_clock> > >&, std::__ndk1::function<void (std::__ndk1::error_code const&)>&, std::__ndk1::placeholders::__ph<1> const&>, std::__ndk1::error_code>::~binder1()
PUBLIC cca58 0 asio::detail::strand_service::dispatch<asio::detail::binder1<std::__ndk1::__bind<void (websocketpp::transport::asio::connection<websocketpp::config::asio_client::transport_config>::*)(std::__ndk1::shared_ptr<asio::basic_waitable_timer<std::__ndk1::chrono::steady_clock, asio::wait_traits<std::__ndk1::chrono::steady_clock> > >, std::__ndk1::function<void (std::__ndk1::error_code const&)>, std::__ndk1::error_code const&), std::__ndk1::shared_ptr<websocketpp::transport::asio::connection<websocketpp::config::asio_client::transport_config> >, std::__ndk1::shared_ptr<asio::basic_waitable_timer<std::__ndk1::chrono::steady_clock, asio::wait_traits<std::__ndk1::chrono::steady_clock> > >&, std::__ndk1::function<void (std::__ndk1::error_code const&)>&, std::__ndk1::placeholders::__ph<1> const&>, std::__ndk1::error_code> >(asio::detail::strand_service::strand_impl*&, asio::detail::binder1<std::__ndk1::__bind<void (websocketpp::transport::asio::connection<websocketpp::config::asio_client::transport_config>::*)(std::__ndk1::shared_ptr<asio::basic_waitable_timer<std::__ndk1::chrono::steady_clock, asio::wait_traits<std::__ndk1::chrono::steady_clock> > >, std::__ndk1::function<void (std::__ndk1::error_code const&)>, std::__ndk1::error_code const&), std::__ndk1::shared_ptr<websocketpp::transport::asio::connection<websocketpp::config::asio_client::transport_config> >, std::__ndk1::shared_ptr<asio::basic_waitable_timer<std::__ndk1::chrono::steady_clock, asio::wait_traits<std::__ndk1::chrono::steady_clock> > >&, std::__ndk1::function<void (std::__ndk1::error_code const&)>&, std::__ndk1::placeholders::__ph<1> const&>, std::__ndk1::error_code>&)
PUBLIC ccd34 0 asio::detail::completion_handler<asio::detail::binder1<std::__ndk1::__bind<void (websocketpp::transport::asio::connection<websocketpp::config::asio_client::transport_config>::*)(std::__ndk1::shared_ptr<asio::basic_waitable_timer<std::__ndk1::chrono::steady_clock, asio::wait_traits<std::__ndk1::chrono::steady_clock> > >, std::__ndk1::function<void (std::__ndk1::error_code const&)>, std::__ndk1::error_code const&), std::__ndk1::shared_ptr<websocketpp::transport::asio::connection<websocketpp::config::asio_client::transport_config> >, std::__ndk1::shared_ptr<asio::basic_waitable_timer<std::__ndk1::chrono::steady_clock, asio::wait_traits<std::__ndk1::chrono::steady_clock> > >&, std::__ndk1::function<void (std::__ndk1::error_code const&)>&, std::__ndk1::placeholders::__ph<1> const&>, std::__ndk1::error_code> >::do_complete(void*, asio::detail::scheduler_operation*, std::__ndk1::error_code const&, unsigned long)
PUBLIC ccf08 0 std::__ndk1::__invoke[abi:v170000]<void (websocketpp::transport::asio::connection<std::__ndk1::__invoke[abi:v170000]::config::asio_client::transport_config>&::*)(std::__ndk1::shared_ptr<asio::basic_waitable_timer<std::__ndk1::chrono::steady_clock, std::__ndk1::shared_ptr::wait_traits<std::__ndk1::chrono> > >, std::__ndk1::function<void (std::__ndk1::error_code const&)>, std::__ndk1::error_code const), websocketpp::transport::asio::connection<std::__ndk1::__invoke[abi:v170000]::config::asio_client::transport_config>&<std::__ndk1::__invoke[abi:v170000]::config::asio_client::transport_config>, asio::basic_waitable_timer<std::__ndk1::chrono::steady_clock, std::__ndk1::shared_ptr::wait_traits<std::__ndk1::chrono> >&, void (&)(std::__ndk1::error_code const&), std::__ndk1::error_code const, void>(websocketpp::transport::asio::connection<std::__ndk1::__invoke[abi:v170000]::config::asio_client::transport_config>&<std::__ndk1::__invoke[abi:v170000]::config::asio_client::transport_config>, void (&)(std::__ndk1::error_code const&), void (websocketpp::transport::asio::connection<std::__ndk1::__invoke[abi:v170000]::config::asio_client::transport_config>&::*)(std::__ndk1::shared_ptr<asio::basic_waitable_timer<std::__ndk1::chrono::steady_clock, std::__ndk1::shared_ptr::wait_traits<std::__ndk1::chrono> > >, std::__ndk1::function<void (std::__ndk1::error_code const&)>, std::__ndk1::error_code const))
PUBLIC cd0a8 0 std::__ndk1::function<void (std::__ndk1::error_code const&)>::function(std::__ndk1::function<void (std::__ndk1::error_code const&)> const&)
PUBLIC cd118 0 asio::detail::completion_handler<asio::detail::binder1<std::__ndk1::__bind<void (websocketpp::transport::asio::connection<websocketpp::config::asio_client::transport_config>::*)(std::__ndk1::shared_ptr<asio::basic_waitable_timer<std::__ndk1::chrono::steady_clock, asio::wait_traits<std::__ndk1::chrono::steady_clock> > >, std::__ndk1::function<void (std::__ndk1::error_code const&)>, std::__ndk1::error_code const&), std::__ndk1::shared_ptr<websocketpp::transport::asio::connection<websocketpp::config::asio_client::transport_config> >, std::__ndk1::shared_ptr<asio::basic_waitable_timer<std::__ndk1::chrono::steady_clock, asio::wait_traits<std::__ndk1::chrono::steady_clock> > >&, std::__ndk1::function<void (std::__ndk1::error_code const&)>&, std::__ndk1::placeholders::__ph<1> const&>, std::__ndk1::error_code> >::ptr::reset()
PUBLIC cd230 0 std::__ndk1::tuple<std::__ndk1::shared_ptr<websocketpp::transport::asio::connection<websocketpp::config::asio_client::transport_config> >, std::__ndk1::shared_ptr<asio::basic_waitable_timer<std::__ndk1::chrono::steady_clock, asio::wait_traits<std::__ndk1::chrono::steady_clock> > >, std::__ndk1::function<void (std::__ndk1::error_code const&)>, std::__ndk1::placeholders::__ph<1> >::tuple(std::__ndk1::tuple<std::__ndk1::shared_ptr<websocketpp::transport::asio::connection<websocketpp::config::asio_client::transport_config> >, std::__ndk1::shared_ptr<asio::basic_waitable_timer<std::__ndk1::chrono::steady_clock, asio::wait_traits<std::__ndk1::chrono::steady_clock> > >, std::__ndk1::function<void (std::__ndk1::error_code const&)>, std::__ndk1::placeholders::__ph<1> > const&)
PUBLIC cd334 0 asio::detail::rewrapped_handler<asio::detail::binder1<asio::detail::wrapped_handler<asio::io_context::strand, std::__ndk1::__bind<void (websocketpp::transport::asio::connection<websocketpp::config::asio_client::transport_config>::*)(std::__ndk1::shared_ptr<asio::basic_waitable_timer<std::__ndk1::chrono::steady_clock, asio::wait_traits<std::__ndk1::chrono::steady_clock> > >, std::__ndk1::function<void (std::__ndk1::error_code const&)>, std::__ndk1::error_code const&), std::__ndk1::shared_ptr<websocketpp::transport::asio::connection<websocketpp::config::asio_client::transport_config> >, std::__ndk1::shared_ptr<asio::basic_waitable_timer<std::__ndk1::chrono::steady_clock, asio::wait_traits<std::__ndk1::chrono::steady_clock> > >&, std::__ndk1::function<void (std::__ndk1::error_code const&)>&, std::__ndk1::placeholders::__ph<1> const&>, asio::detail::is_continuation_if_running>, std::__ndk1::error_code>, std::__ndk1::__bind<void (websocketpp::transport::asio::connection<websocketpp::config::asio_client::transport_config>::*)(std::__ndk1::shared_ptr<asio::basic_waitable_timer<std::__ndk1::chrono::steady_clock, asio::wait_traits<std::__ndk1::chrono::steady_clock> > >, std::__ndk1::function<void (std::__ndk1::error_code const&)>, std::__ndk1::error_code const&), std::__ndk1::shared_ptr<websocketpp::transport::asio::connection<websocketpp::config::asio_client::transport_config> >, std::__ndk1::shared_ptr<asio::basic_waitable_timer<std::__ndk1::chrono::steady_clock, asio::wait_traits<std::__ndk1::chrono::steady_clock> > >&, std::__ndk1::function<void (std::__ndk1::error_code const&)>&, std::__ndk1::placeholders::__ph<1> const&> >::rewrapped_handler(asio::detail::rewrapped_handler<asio::detail::binder1<asio::detail::wrapped_handler<asio::io_context::strand, std::__ndk1::__bind<void (websocketpp::transport::asio::connection<websocketpp::config::asio_client::transport_config>::*)(std::__ndk1::shared_ptr<asio::basic_waitable_timer<std::__ndk1::chrono::steady_clock, asio::wait_traits<std::__ndk1::chrono::steady_clock> > >, std::__ndk1::function<void (std::__ndk1::error_code const&)>, std::__ndk1::error_code const&), std::__ndk1::shared_ptr<websocketpp::transport::asio::connection<websocketpp::config::asio_client::transport_config> >, std::__ndk1::shared_ptr<asio::basic_waitable_timer<std::__ndk1::chrono::steady_clock, asio::wait_traits<std::__ndk1::chrono::steady_clock> > >&, std::__ndk1::function<void (std::__ndk1::error_code const&)>&, std::__ndk1::placeholders::__ph<1> const&>, asio::detail::is_continuation_if_running>, std::__ndk1::error_code>, std::__ndk1::__bind<void (websocketpp::transport::asio::connection<websocketpp::config::asio_client::transport_config>::*)(std::__ndk1::shared_ptr<asio::basic_waitable_timer<std::__ndk1::chrono::steady_clock, asio::wait_traits<std::__ndk1::chrono::steady_clock> > >, std::__ndk1::function<void (std::__ndk1::error_code const&)>, std::__ndk1::error_code const&), std::__ndk1::shared_ptr<websocketpp::transport::asio::connection<websocketpp::config::asio_client::transport_config> >, std::__ndk1::shared_ptr<asio::basic_waitable_timer<std::__ndk1::chrono::steady_clock, asio::wait_traits<std::__ndk1::chrono::steady_clock> > >&, std::__ndk1::function<void (std::__ndk1::error_code const&)>&, std::__ndk1::placeholders::__ph<1> const&> >&&)
PUBLIC cd42c 0 websocketpp::transport::asio::connection<websocketpp::config::asio_client::transport_config>::log_err<std::__ndk1::error_code>(unsigned int, char const*, std::__ndk1::error_code const&)
PUBLIC cd6f4 0 std::__ndk1::tuple<std::__ndk1::shared_ptr<websocketpp::transport::asio::connection<websocketpp::config::asio_client::transport_config> >, std::__ndk1::shared_ptr<asio::basic_waitable_timer<std::__ndk1::chrono::steady_clock, asio::wait_traits<std::__ndk1::chrono::steady_clock> > >, std::__ndk1::function<void (std::__ndk1::error_code const&)>, std::__ndk1::placeholders::__ph<1> >::tuple[abi:v170000]<std::__ndk1::shared_ptr<websocketpp::transport::asio::connection<websocketpp::config::asio_client::transport_config> >, std::__ndk1::shared_ptr<asio::basic_waitable_timer<std::__ndk1::chrono::steady_clock, asio::wait_traits<std::__ndk1::chrono::steady_clock> > >&, std::__ndk1::function<void (std::__ndk1::error_code const&)>&, std::__ndk1::placeholders::__ph<1> const&, 0>()
PUBLIC cd7e8 0 websocketpp::transport::asio::connection<websocketpp::config::asio_client::transport_config>::cancel_socket_checked()
PUBLIC cd8ec 0 websocketpp::transport::asio::basic_socket::connection::cancel_socket()
PUBLIC m cd9ac 0 asio::detail::epoll_reactor::cancel_ops(int, asio::detail::epoll_reactor::descriptor_state*&)
PUBLIC cdda0 0 std::__ndk1::shared_ptr<websocketpp::transport::asio::basic_socket::connection>::~shared_ptr[abi:v170000]()
PUBLIC cddf0 0 std::__ndk1::__throw_bad_weak_ptr[abi:v170000]()
PUBLIC cde24 0 std::__ndk1::__function::__func<std::__ndk1::__bind<void (websocketpp::transport::asio::connection<websocketpp::config::asio_client::transport_config>::*)(std::__ndk1::shared_ptr<asio::basic_waitable_timer<std::__ndk1::chrono::steady_clock, asio::wait_traits<std::__ndk1::chrono::steady_clock> > >, std::__ndk1::function<void (std::__ndk1::error_code const&)>, std::__ndk1::error_code const&), std::__ndk1::shared_ptr<websocketpp::transport::asio::connection<websocketpp::config::asio_client::transport_config> >, std::__ndk1::shared_ptr<asio::basic_waitable_timer<std::__ndk1::chrono::steady_clock, asio::wait_traits<std::__ndk1::chrono::steady_clock> > >&, std::__ndk1::function<void (std::__ndk1::error_code const&)>&, std::__ndk1::placeholders::__ph<1> const&>, std::__ndk1::allocator<std::__ndk1::__bind<void (websocketpp::transport::asio::connection<websocketpp::config::asio_client::transport_config>::*)(std::__ndk1::shared_ptr<asio::basic_waitable_timer<std::__ndk1::chrono::steady_clock, asio::wait_traits<std::__ndk1::chrono::steady_clock> > >, std::__ndk1::function<void (std::__ndk1::error_code const&)>, std::__ndk1::error_code const&), std::__ndk1::shared_ptr<websocketpp::transport::asio::connection<websocketpp::config::asio_client::transport_config> >, std::__ndk1::shared_ptr<asio::basic_waitable_timer<std::__ndk1::chrono::steady_clock, asio::wait_traits<std::__ndk1::chrono::steady_clock> > >&, std::__ndk1::function<void (std::__ndk1::error_code const&)>&, std::__ndk1::placeholders::__ph<1> const&> >, void (std::__ndk1::error_code const&)>::~__func()
PUBLIC cdef0 0 std::__ndk1::__function::__func<std::__ndk1::__bind<void (websocketpp::transport::asio::connection<websocketpp::config::asio_client::transport_config>::*)(std::__ndk1::shared_ptr<asio::basic_waitable_timer<std::__ndk1::chrono::steady_clock, asio::wait_traits<std::__ndk1::chrono::steady_clock> > >, std::__ndk1::function<void (std::__ndk1::error_code const&)>, std::__ndk1::error_code const&), std::__ndk1::shared_ptr<websocketpp::transport::asio::connection<websocketpp::config::asio_client::transport_config> >, std::__ndk1::shared_ptr<asio::basic_waitable_timer<std::__ndk1::chrono::steady_clock, asio::wait_traits<std::__ndk1::chrono::steady_clock> > >&, std::__ndk1::function<void (std::__ndk1::error_code const&)>&, std::__ndk1::placeholders::__ph<1> const&>, std::__ndk1::allocator<std::__ndk1::__bind<void (websocketpp::transport::asio::connection<websocketpp::config::asio_client::transport_config>::*)(std::__ndk1::shared_ptr<asio::basic_waitable_timer<std::__ndk1::chrono::steady_clock, asio::wait_traits<std::__ndk1::chrono::steady_clock> > >, std::__ndk1::function<void (std::__ndk1::error_code const&)>, std::__ndk1::error_code const&), std::__ndk1::shared_ptr<websocketpp::transport::asio::connection<websocketpp::config::asio_client::transport_config> >, std::__ndk1::shared_ptr<asio::basic_waitable_timer<std::__ndk1::chrono::steady_clock, asio::wait_traits<std::__ndk1::chrono::steady_clock> > >&, std::__ndk1::function<void (std::__ndk1::error_code const&)>&, std::__ndk1::placeholders::__ph<1> const&> >, void (std::__ndk1::error_code const&)>::~__func()
PUBLIC cdfcc 0 std::__ndk1::__function::__func<std::__ndk1::__bind<void (websocketpp::transport::asio::connection<websocketpp::config::asio_client::transport_config>::*)(std::__ndk1::shared_ptr<asio::basic_waitable_timer<std::__ndk1::chrono::steady_clock, asio::wait_traits<std::__ndk1::chrono::steady_clock> > >, std::__ndk1::function<void (std::__ndk1::error_code const&)>, std::__ndk1::error_code const&), std::__ndk1::shared_ptr<websocketpp::transport::asio::connection<websocketpp::config::asio_client::transport_config> >, std::__ndk1::shared_ptr<asio::basic_waitable_timer<std::__ndk1::chrono::steady_clock, asio::wait_traits<std::__ndk1::chrono::steady_clock> > >&, std::__ndk1::function<void (std::__ndk1::error_code const&)>&, std::__ndk1::placeholders::__ph<1> const&>, std::__ndk1::allocator<std::__ndk1::__bind<void (websocketpp::transport::asio::connection<websocketpp::config::asio_client::transport_config>::*)(std::__ndk1::shared_ptr<asio::basic_waitable_timer<std::__ndk1::chrono::steady_clock, asio::wait_traits<std::__ndk1::chrono::steady_clock> > >, std::__ndk1::function<void (std::__ndk1::error_code const&)>, std::__ndk1::error_code const&), std::__ndk1::shared_ptr<websocketpp::transport::asio::connection<websocketpp::config::asio_client::transport_config> >, std::__ndk1::shared_ptr<asio::basic_waitable_timer<std::__ndk1::chrono::steady_clock, asio::wait_traits<std::__ndk1::chrono::steady_clock> > >&, std::__ndk1::function<void (std::__ndk1::error_code const&)>&, std::__ndk1::placeholders::__ph<1> const&> >, void (std::__ndk1::error_code const&)>::__clone() const
PUBLIC ce02c 0 std::__ndk1::__function::__func<std::__ndk1::__bind<void (websocketpp::transport::asio::connection<websocketpp::config::asio_client::transport_config>::*)(std::__ndk1::shared_ptr<asio::basic_waitable_timer<std::__ndk1::chrono::steady_clock, asio::wait_traits<std::__ndk1::chrono::steady_clock> > >, std::__ndk1::function<void (std::__ndk1::error_code const&)>, std::__ndk1::error_code const&), std::__ndk1::shared_ptr<websocketpp::transport::asio::connection<websocketpp::config::asio_client::transport_config> >, std::__ndk1::shared_ptr<asio::basic_waitable_timer<std::__ndk1::chrono::steady_clock, asio::wait_traits<std::__ndk1::chrono::steady_clock> > >&, std::__ndk1::function<void (std::__ndk1::error_code const&)>&, std::__ndk1::placeholders::__ph<1> const&>, std::__ndk1::allocator<std::__ndk1::__bind<void (websocketpp::transport::asio::connection<websocketpp::config::asio_client::transport_config>::*)(std::__ndk1::shared_ptr<asio::basic_waitable_timer<std::__ndk1::chrono::steady_clock, asio::wait_traits<std::__ndk1::chrono::steady_clock> > >, std::__ndk1::function<void (std::__ndk1::error_code const&)>, std::__ndk1::error_code const&), std::__ndk1::shared_ptr<websocketpp::transport::asio::connection<websocketpp::config::asio_client::transport_config> >, std::__ndk1::shared_ptr<asio::basic_waitable_timer<std::__ndk1::chrono::steady_clock, asio::wait_traits<std::__ndk1::chrono::steady_clock> > >&, std::__ndk1::function<void (std::__ndk1::error_code const&)>&, std::__ndk1::placeholders::__ph<1> const&> >, void (std::__ndk1::error_code const&)>::__clone(std::__ndk1::__function::__base<void (std::__ndk1::error_code const&)>*) const
PUBLIC ce054 0 std::__ndk1::__function::__func<std::__ndk1::__bind<void (websocketpp::transport::asio::connection<websocketpp::config::asio_client::transport_config>::*)(std::__ndk1::shared_ptr<asio::basic_waitable_timer<std::__ndk1::chrono::steady_clock, asio::wait_traits<std::__ndk1::chrono::steady_clock> > >, std::__ndk1::function<void (std::__ndk1::error_code const&)>, std::__ndk1::error_code const&), std::__ndk1::shared_ptr<websocketpp::transport::asio::connection<websocketpp::config::asio_client::transport_config> >, std::__ndk1::shared_ptr<asio::basic_waitable_timer<std::__ndk1::chrono::steady_clock, asio::wait_traits<std::__ndk1::chrono::steady_clock> > >&, std::__ndk1::function<void (std::__ndk1::error_code const&)>&, std::__ndk1::placeholders::__ph<1> const&>, std::__ndk1::allocator<std::__ndk1::__bind<void (websocketpp::transport::asio::connection<websocketpp::config::asio_client::transport_config>::*)(std::__ndk1::shared_ptr<asio::basic_waitable_timer<std::__ndk1::chrono::steady_clock, asio::wait_traits<std::__ndk1::chrono::steady_clock> > >, std::__ndk1::function<void (std::__ndk1::error_code const&)>, std::__ndk1::error_code const&), std::__ndk1::shared_ptr<websocketpp::transport::asio::connection<websocketpp::config::asio_client::transport_config> >, std::__ndk1::shared_ptr<asio::basic_waitable_timer<std::__ndk1::chrono::steady_clock, asio::wait_traits<std::__ndk1::chrono::steady_clock> > >&, std::__ndk1::function<void (std::__ndk1::error_code const&)>&, std::__ndk1::placeholders::__ph<1> const&> >, void (std::__ndk1::error_code const&)>::destroy()
PUBLIC ce114 0 std::__ndk1::__function::__func<std::__ndk1::__bind<void (websocketpp::transport::asio::connection<websocketpp::config::asio_client::transport_config>::*)(std::__ndk1::shared_ptr<asio::basic_waitable_timer<std::__ndk1::chrono::steady_clock, asio::wait_traits<std::__ndk1::chrono::steady_clock> > >, std::__ndk1::function<void (std::__ndk1::error_code const&)>, std::__ndk1::error_code const&), std::__ndk1::shared_ptr<websocketpp::transport::asio::connection<websocketpp::config::asio_client::transport_config> >, std::__ndk1::shared_ptr<asio::basic_waitable_timer<std::__ndk1::chrono::steady_clock, asio::wait_traits<std::__ndk1::chrono::steady_clock> > >&, std::__ndk1::function<void (std::__ndk1::error_code const&)>&, std::__ndk1::placeholders::__ph<1> const&>, std::__ndk1::allocator<std::__ndk1::__bind<void (websocketpp::transport::asio::connection<websocketpp::config::asio_client::transport_config>::*)(std::__ndk1::shared_ptr<asio::basic_waitable_timer<std::__ndk1::chrono::steady_clock, asio::wait_traits<std::__ndk1::chrono::steady_clock> > >, std::__ndk1::function<void (std::__ndk1::error_code const&)>, std::__ndk1::error_code const&), std::__ndk1::shared_ptr<websocketpp::transport::asio::connection<websocketpp::config::asio_client::transport_config> >, std::__ndk1::shared_ptr<asio::basic_waitable_timer<std::__ndk1::chrono::steady_clock, asio::wait_traits<std::__ndk1::chrono::steady_clock> > >&, std::__ndk1::function<void (std::__ndk1::error_code const&)>&, std::__ndk1::placeholders::__ph<1> const&> >, void (std::__ndk1::error_code const&)>::destroy_deallocate()
PUBLIC ce1e4 0 std::__ndk1::__function::__func<std::__ndk1::__bind<void (websocketpp::transport::asio::connection<websocketpp::config::asio_client::transport_config>::*)(std::__ndk1::shared_ptr<asio::basic_waitable_timer<std::__ndk1::chrono::steady_clock, asio::wait_traits<std::__ndk1::chrono::steady_clock> > >, std::__ndk1::function<void (std::__ndk1::error_code const&)>, std::__ndk1::error_code const&), std::__ndk1::shared_ptr<websocketpp::transport::asio::connection<websocketpp::config::asio_client::transport_config> >, std::__ndk1::shared_ptr<asio::basic_waitable_timer<std::__ndk1::chrono::steady_clock, asio::wait_traits<std::__ndk1::chrono::steady_clock> > >&, std::__ndk1::function<void (std::__ndk1::error_code const&)>&, std::__ndk1::placeholders::__ph<1> const&>, std::__ndk1::allocator<std::__ndk1::__bind<void (websocketpp::transport::asio::connection<websocketpp::config::asio_client::transport_config>::*)(std::__ndk1::shared_ptr<asio::basic_waitable_timer<std::__ndk1::chrono::steady_clock, asio::wait_traits<std::__ndk1::chrono::steady_clock> > >, std::__ndk1::function<void (std::__ndk1::error_code const&)>, std::__ndk1::error_code const&), std::__ndk1::shared_ptr<websocketpp::transport::asio::connection<websocketpp::config::asio_client::transport_config> >, std::__ndk1::shared_ptr<asio::basic_waitable_timer<std::__ndk1::chrono::steady_clock, asio::wait_traits<std::__ndk1::chrono::steady_clock> > >&, std::__ndk1::function<void (std::__ndk1::error_code const&)>&, std::__ndk1::placeholders::__ph<1> const&> >, void (std::__ndk1::error_code const&)>::operator()(std::__ndk1::error_code const&)
PUBLIC ce200 0 std::__ndk1::__function::__func<std::__ndk1::__bind<void (websocketpp::transport::asio::connection<websocketpp::config::asio_client::transport_config>::*)(std::__ndk1::shared_ptr<asio::basic_waitable_timer<std::__ndk1::chrono::steady_clock, asio::wait_traits<std::__ndk1::chrono::steady_clock> > >, std::__ndk1::function<void (std::__ndk1::error_code const&)>, std::__ndk1::error_code const&), std::__ndk1::shared_ptr<websocketpp::transport::asio::connection<websocketpp::config::asio_client::transport_config> >, std::__ndk1::shared_ptr<asio::basic_waitable_timer<std::__ndk1::chrono::steady_clock, asio::wait_traits<std::__ndk1::chrono::steady_clock> > >&, std::__ndk1::function<void (std::__ndk1::error_code const&)>&, std::__ndk1::placeholders::__ph<1> const&>, std::__ndk1::allocator<std::__ndk1::__bind<void (websocketpp::transport::asio::connection<websocketpp::config::asio_client::transport_config>::*)(std::__ndk1::shared_ptr<asio::basic_waitable_timer<std::__ndk1::chrono::steady_clock, asio::wait_traits<std::__ndk1::chrono::steady_clock> > >, std::__ndk1::function<void (std::__ndk1::error_code const&)>, std::__ndk1::error_code const&), std::__ndk1::shared_ptr<websocketpp::transport::asio::connection<websocketpp::config::asio_client::transport_config> >, std::__ndk1::shared_ptr<asio::basic_waitable_timer<std::__ndk1::chrono::steady_clock, asio::wait_traits<std::__ndk1::chrono::steady_clock> > >&, std::__ndk1::function<void (std::__ndk1::error_code const&)>&, std::__ndk1::placeholders::__ph<1> const&> >, void (std::__ndk1::error_code const&)>::target(std::type_info const&) const
PUBLIC ce21c 0 std::__ndk1::__function::__func<std::__ndk1::__bind<void (websocketpp::transport::asio::connection<websocketpp::config::asio_client::transport_config>::*)(std::__ndk1::shared_ptr<asio::basic_waitable_timer<std::__ndk1::chrono::steady_clock, asio::wait_traits<std::__ndk1::chrono::steady_clock> > >, std::__ndk1::function<void (std::__ndk1::error_code const&)>, std::__ndk1::error_code const&), std::__ndk1::shared_ptr<websocketpp::transport::asio::connection<websocketpp::config::asio_client::transport_config> >, std::__ndk1::shared_ptr<asio::basic_waitable_timer<std::__ndk1::chrono::steady_clock, asio::wait_traits<std::__ndk1::chrono::steady_clock> > >&, std::__ndk1::function<void (std::__ndk1::error_code const&)>&, std::__ndk1::placeholders::__ph<1> const&>, std::__ndk1::allocator<std::__ndk1::__bind<void (websocketpp::transport::asio::connection<websocketpp::config::asio_client::transport_config>::*)(std::__ndk1::shared_ptr<asio::basic_waitable_timer<std::__ndk1::chrono::steady_clock, asio::wait_traits<std::__ndk1::chrono::steady_clock> > >, std::__ndk1::function<void (std::__ndk1::error_code const&)>, std::__ndk1::error_code const&), std::__ndk1::shared_ptr<websocketpp::transport::asio::connection<websocketpp::config::asio_client::transport_config> >, std::__ndk1::shared_ptr<asio::basic_waitable_timer<std::__ndk1::chrono::steady_clock, asio::wait_traits<std::__ndk1::chrono::steady_clock> > >&, std::__ndk1::function<void (std::__ndk1::error_code const&)>&, std::__ndk1::placeholders::__ph<1> const&> >, void (std::__ndk1::error_code const&)>::target_type() const
PUBLIC m ce228 0 asio::detail::socket_ops::shutdown(int, int, std::__ndk1::error_code&)
PUBLIC ce380 0 websocketpp::connection<websocketpp::config::asio_client>::log_close_result()
PUBLIC ce6c8 0 std::__ndk1::__function::__func<std::__ndk1::__bind<void (websocketpp::connection<websocketpp::config::asio_client>::*)(websocketpp::connection<websocketpp::config::asio_client>::terminate_status, std::__ndk1::error_code const&), std::__ndk1::shared_ptr<websocketpp::connection<websocketpp::config::asio_client> >, websocketpp::connection<websocketpp::config::asio_client>&::terminate_status, std::__ndk1::placeholders::__ph<1> const&>, std::__ndk1::allocator<std::__ndk1::__bind<void (websocketpp::connection<websocketpp::config::asio_client>::*)(websocketpp::connection<websocketpp::config::asio_client>::terminate_status, std::__ndk1::error_code const&), std::__ndk1::shared_ptr<websocketpp::connection<websocketpp::config::asio_client> >, websocketpp::connection<websocketpp::config::asio_client>&::terminate_status, std::__ndk1::placeholders::__ph<1> const&> >, void (std::__ndk1::error_code const&)>::~__func()
PUBLIC ce724 0 std::__ndk1::__function::__func<std::__ndk1::__bind<void (websocketpp::connection<websocketpp::config::asio_client>::*)(websocketpp::connection<websocketpp::config::asio_client>::terminate_status, std::__ndk1::error_code const&), std::__ndk1::shared_ptr<websocketpp::connection<websocketpp::config::asio_client> >, websocketpp::connection<websocketpp::config::asio_client>&::terminate_status, std::__ndk1::placeholders::__ph<1> const&>, std::__ndk1::allocator<std::__ndk1::__bind<void (websocketpp::connection<websocketpp::config::asio_client>::*)(websocketpp::connection<websocketpp::config::asio_client>::terminate_status, std::__ndk1::error_code const&), std::__ndk1::shared_ptr<websocketpp::connection<websocketpp::config::asio_client> >, websocketpp::connection<websocketpp::config::asio_client>&::terminate_status, std::__ndk1::placeholders::__ph<1> const&> >, void (std::__ndk1::error_code const&)>::~__func()
PUBLIC ce790 0 std::__ndk1::__function::__func<std::__ndk1::__bind<void (websocketpp::connection<websocketpp::config::asio_client>::*)(websocketpp::connection<websocketpp::config::asio_client>::terminate_status, std::__ndk1::error_code const&), std::__ndk1::shared_ptr<websocketpp::connection<websocketpp::config::asio_client> >, websocketpp::connection<websocketpp::config::asio_client>&::terminate_status, std::__ndk1::placeholders::__ph<1> const&>, std::__ndk1::allocator<std::__ndk1::__bind<void (websocketpp::connection<websocketpp::config::asio_client>::*)(websocketpp::connection<websocketpp::config::asio_client>::terminate_status, std::__ndk1::error_code const&), std::__ndk1::shared_ptr<websocketpp::connection<websocketpp::config::asio_client> >, websocketpp::connection<websocketpp::config::asio_client>&::terminate_status, std::__ndk1::placeholders::__ph<1> const&> >, void (std::__ndk1::error_code const&)>::__clone() const
PUBLIC ce7f0 0 std::__ndk1::__function::__func<std::__ndk1::__bind<void (websocketpp::connection<websocketpp::config::asio_client>::*)(websocketpp::connection<websocketpp::config::asio_client>::terminate_status, std::__ndk1::error_code const&), std::__ndk1::shared_ptr<websocketpp::connection<websocketpp::config::asio_client> >, websocketpp::connection<websocketpp::config::asio_client>&::terminate_status, std::__ndk1::placeholders::__ph<1> const&>, std::__ndk1::allocator<std::__ndk1::__bind<void (websocketpp::connection<websocketpp::config::asio_client>::*)(websocketpp::connection<websocketpp::config::asio_client>::terminate_status, std::__ndk1::error_code const&), std::__ndk1::shared_ptr<websocketpp::connection<websocketpp::config::asio_client> >, websocketpp::connection<websocketpp::config::asio_client>&::terminate_status, std::__ndk1::placeholders::__ph<1> const&> >, void (std::__ndk1::error_code const&)>::__clone(std::__ndk1::__function::__base<void (std::__ndk1::error_code const&)>*) const
PUBLIC ce848 0 std::__ndk1::__function::__func<std::__ndk1::__bind<void (websocketpp::connection<websocketpp::config::asio_client>::*)(websocketpp::connection<websocketpp::config::asio_client>::terminate_status, std::__ndk1::error_code const&), std::__ndk1::shared_ptr<websocketpp::connection<websocketpp::config::asio_client> >, websocketpp::connection<websocketpp::config::asio_client>&::terminate_status, std::__ndk1::placeholders::__ph<1> const&>, std::__ndk1::allocator<std::__ndk1::__bind<void (websocketpp::connection<websocketpp::config::asio_client>::*)(websocketpp::connection<websocketpp::config::asio_client>::terminate_status, std::__ndk1::error_code const&), std::__ndk1::shared_ptr<websocketpp::connection<websocketpp::config::asio_client> >, websocketpp::connection<websocketpp::config::asio_client>&::terminate_status, std::__ndk1::placeholders::__ph<1> const&> >, void (std::__ndk1::error_code const&)>::destroy()
PUBLIC ce898 0 std::__ndk1::__function::__func<std::__ndk1::__bind<void (websocketpp::connection<websocketpp::config::asio_client>::*)(websocketpp::connection<websocketpp::config::asio_client>::terminate_status, std::__ndk1::error_code const&), std::__ndk1::shared_ptr<websocketpp::connection<websocketpp::config::asio_client> >, websocketpp::connection<websocketpp::config::asio_client>&::terminate_status, std::__ndk1::placeholders::__ph<1> const&>, std::__ndk1::allocator<std::__ndk1::__bind<void (websocketpp::connection<websocketpp::config::asio_client>::*)(websocketpp::connection<websocketpp::config::asio_client>::terminate_status, std::__ndk1::error_code const&), std::__ndk1::shared_ptr<websocketpp::connection<websocketpp::config::asio_client> >, websocketpp::connection<websocketpp::config::asio_client>&::terminate_status, std::__ndk1::placeholders::__ph<1> const&> >, void (std::__ndk1::error_code const&)>::destroy_deallocate()
PUBLIC ce8f8 0 std::__ndk1::__function::__func<std::__ndk1::__bind<void (websocketpp::connection<websocketpp::config::asio_client>::*)(websocketpp::connection<websocketpp::config::asio_client>::terminate_status, std::__ndk1::error_code const&), std::__ndk1::shared_ptr<websocketpp::connection<websocketpp::config::asio_client> >, websocketpp::connection<websocketpp::config::asio_client>&::terminate_status, std::__ndk1::placeholders::__ph<1> const&>, std::__ndk1::allocator<std::__ndk1::__bind<void (websocketpp::connection<websocketpp::config::asio_client>::*)(websocketpp::connection<websocketpp::config::asio_client>::terminate_status, std::__ndk1::error_code const&), std::__ndk1::shared_ptr<websocketpp::connection<websocketpp::config::asio_client> >, websocketpp::connection<websocketpp::config::asio_client>&::terminate_status, std::__ndk1::placeholders::__ph<1> const&> >, void (std::__ndk1::error_code const&)>::operator()(std::__ndk1::error_code const&)
PUBLIC ce920 0 std::__ndk1::__function::__func<std::__ndk1::__bind<void (websocketpp::connection<websocketpp::config::asio_client>::*)(websocketpp::connection<websocketpp::config::asio_client>::terminate_status, std::__ndk1::error_code const&), std::__ndk1::shared_ptr<websocketpp::connection<websocketpp::config::asio_client> >, websocketpp::connection<websocketpp::config::asio_client>&::terminate_status, std::__ndk1::placeholders::__ph<1> const&>, std::__ndk1::allocator<std::__ndk1::__bind<void (websocketpp::connection<websocketpp::config::asio_client>::*)(websocketpp::connection<websocketpp::config::asio_client>::terminate_status, std::__ndk1::error_code const&), std::__ndk1::shared_ptr<websocketpp::connection<websocketpp::config::asio_client> >, websocketpp::connection<websocketpp::config::asio_client>&::terminate_status, std::__ndk1::placeholders::__ph<1> const&> >, void (std::__ndk1::error_code const&)>::target(std::type_info const&) const
PUBLIC ce93c 0 std::__ndk1::__function::__func<std::__ndk1::__bind<void (websocketpp::connection<websocketpp::config::asio_client>::*)(websocketpp::connection<websocketpp::config::asio_client>::terminate_status, std::__ndk1::error_code const&), std::__ndk1::shared_ptr<websocketpp::connection<websocketpp::config::asio_client> >, websocketpp::connection<websocketpp::config::asio_client>&::terminate_status, std::__ndk1::placeholders::__ph<1> const&>, std::__ndk1::allocator<std::__ndk1::__bind<void (websocketpp::connection<websocketpp::config::asio_client>::*)(websocketpp::connection<websocketpp::config::asio_client>::terminate_status, std::__ndk1::error_code const&), std::__ndk1::shared_ptr<websocketpp::connection<websocketpp::config::asio_client> >, websocketpp::connection<websocketpp::config::asio_client>&::terminate_status, std::__ndk1::placeholders::__ph<1> const&> >, void (std::__ndk1::error_code const&)>::target_type() const
PUBLIC ce948 0 websocketpp::connection<websocketpp::config::asio_client>::send_close_frame(unsigned short, std::__ndk1::basic_string<char, std::__ndk1::char_traits<char>, std::__ndk1::allocator<char> > const&, bool, bool)
PUBLIC cf334 0 websocketpp::message_buffer::alloc::con_msg_manager<websocketpp::message_buffer::message<websocketpp::message_buffer::alloc::con_msg_manager> >::get_message()
PUBLIC cf4c4 0 websocketpp::connection<websocketpp::config::asio_client>::handle_close_handshake_timeout(std::__ndk1::error_code const&)
PUBLIC cf74c 0 std::__ndk1::__bind<void (websocketpp::connection<websocketpp::config::asio_client>::*)(std::__ndk1::error_code const&), std::__ndk1::shared_ptr<websocketpp::connection<websocketpp::config::asio_client> >, std::__ndk1::placeholders::__ph<1> const&>::~__bind()
PUBLIC cf79c 0 websocketpp::connection<websocketpp::config::asio_client>::write_push(std::__ndk1::shared_ptr<websocketpp::message_buffer::message<websocketpp::message_buffer::alloc::con_msg_manager> >)
PUBLIC cfa68 0 websocketpp::transport::asio::connection<websocketpp::config::asio_client::transport_config>::dispatch(std::__ndk1::function<void ()>)
PUBLIC cfc84 0 websocketpp::connection<websocketpp::config::asio_client>::write_frame()
PUBLIC d0934 0 std::__ndk1::__bind<void (websocketpp::connection<websocketpp::config::asio_client>::*)(), std::__ndk1::shared_ptr<websocketpp::connection<websocketpp::config::asio_client> > >::~__bind()
PUBLIC d0984 0 std::__ndk1::__shared_ptr_emplace<websocketpp::message_buffer::message<websocketpp::message_buffer::alloc::con_msg_manager>, std::__ndk1::allocator<websocketpp::message_buffer::message<websocketpp::message_buffer::alloc::con_msg_manager> > >::~__shared_ptr_emplace()
PUBLIC d0994 0 std::__ndk1::__shared_ptr_emplace<websocketpp::message_buffer::message<websocketpp::message_buffer::alloc::con_msg_manager>, std::__ndk1::allocator<websocketpp::message_buffer::message<websocketpp::message_buffer::alloc::con_msg_manager> > >::~__shared_ptr_emplace()
PUBLIC d09c4 0 std::__ndk1::__shared_ptr_emplace<websocketpp::message_buffer::message<websocketpp::message_buffer::alloc::con_msg_manager>, std::__ndk1::allocator<websocketpp::message_buffer::message<websocketpp::message_buffer::alloc::con_msg_manager> > >::__on_zero_shared()
PUBLIC d0a3c 0 std::__ndk1::__shared_ptr_emplace<websocketpp::message_buffer::message<websocketpp::message_buffer::alloc::con_msg_manager>, std::__ndk1::allocator<websocketpp::message_buffer::message<websocketpp::message_buffer::alloc::con_msg_manager> > >::__on_zero_shared_weak()
PUBLIC d0a40 0 std::__ndk1::__function::__func<std::__ndk1::__bind<void (websocketpp::connection<websocketpp::config::asio_client>::*)(std::__ndk1::error_code const&), std::__ndk1::shared_ptr<websocketpp::connection<websocketpp::config::asio_client> >, std::__ndk1::placeholders::__ph<1> const&>, std::__ndk1::allocator<std::__ndk1::__bind<void (websocketpp::connection<websocketpp::config::asio_client>::*)(std::__ndk1::error_code const&), std::__ndk1::shared_ptr<websocketpp::connection<websocketpp::config::asio_client> >, std::__ndk1::placeholders::__ph<1> const&> >, void (std::__ndk1::error_code const&)>::~__func()
PUBLIC d0a9c 0 std::__ndk1::__function::__func<std::__ndk1::__bind<void (websocketpp::connection<websocketpp::config::asio_client>::*)(std::__ndk1::error_code const&), std::__ndk1::shared_ptr<websocketpp::connection<websocketpp::config::asio_client> >, std::__ndk1::placeholders::__ph<1> const&>, std::__ndk1::allocator<std::__ndk1::__bind<void (websocketpp::connection<websocketpp::config::asio_client>::*)(std::__ndk1::error_code const&), std::__ndk1::shared_ptr<websocketpp::connection<websocketpp::config::asio_client> >, std::__ndk1::placeholders::__ph<1> const&> >, void (std::__ndk1::error_code const&)>::~__func()
PUBLIC d0b08 0 std::__ndk1::__function::__func<std::__ndk1::__bind<void (websocketpp::connection<websocketpp::config::asio_client>::*)(std::__ndk1::error_code const&), std::__ndk1::shared_ptr<websocketpp::connection<websocketpp::config::asio_client> >, std::__ndk1::placeholders::__ph<1> const&>, std::__ndk1::allocator<std::__ndk1::__bind<void (websocketpp::connection<websocketpp::config::asio_client>::*)(std::__ndk1::error_code const&), std::__ndk1::shared_ptr<websocketpp::connection<websocketpp::config::asio_client> >, std::__ndk1::placeholders::__ph<1> const&> >, void (std::__ndk1::error_code const&)>::__clone() const
PUBLIC d0b60 0 std::__ndk1::__function::__func<std::__ndk1::__bind<void (websocketpp::connection<websocketpp::config::asio_client>::*)(std::__ndk1::error_code const&), std::__ndk1::shared_ptr<websocketpp::connection<websocketpp::config::asio_client> >, std::__ndk1::placeholders::__ph<1> const&>, std::__ndk1::allocator<std::__ndk1::__bind<void (websocketpp::connection<websocketpp::config::asio_client>::*)(std::__ndk1::error_code const&), std::__ndk1::shared_ptr<websocketpp::connection<websocketpp::config::asio_client> >, std::__ndk1::placeholders::__ph<1> const&> >, void (std::__ndk1::error_code const&)>::__clone(std::__ndk1::__function::__base<void (std::__ndk1::error_code const&)>*) const
PUBLIC d0ba0 0 std::__ndk1::__function::__func<std::__ndk1::__bind<void (websocketpp::connection<websocketpp::config::asio_client>::*)(std::__ndk1::error_code const&), std::__ndk1::shared_ptr<websocketpp::connection<websocketpp::config::asio_client> >, std::__ndk1::placeholders::__ph<1> const&>, std::__ndk1::allocator<std::__ndk1::__bind<void (websocketpp::connection<websocketpp::config::asio_client>::*)(std::__ndk1::error_code const&), std::__ndk1::shared_ptr<websocketpp::connection<websocketpp::config::asio_client> >, std::__ndk1::placeholders::__ph<1> const&> >, void (std::__ndk1::error_code const&)>::destroy()
PUBLIC d0bf0 0 std::__ndk1::__function::__func<std::__ndk1::__bind<void (websocketpp::connection<websocketpp::config::asio_client>::*)(std::__ndk1::error_code const&), std::__ndk1::shared_ptr<websocketpp::connection<websocketpp::config::asio_client> >, std::__ndk1::placeholders::__ph<1> const&>, std::__ndk1::allocator<std::__ndk1::__bind<void (websocketpp::connection<websocketpp::config::asio_client>::*)(std::__ndk1::error_code const&), std::__ndk1::shared_ptr<websocketpp::connection<websocketpp::config::asio_client> >, std::__ndk1::placeholders::__ph<1> const&> >, void (std::__ndk1::error_code const&)>::destroy_deallocate()
PUBLIC d0c50 0 std::__ndk1::__function::__func<std::__ndk1::__bind<void (websocketpp::connection<websocketpp::config::asio_client>::*)(std::__ndk1::error_code const&), std::__ndk1::shared_ptr<websocketpp::connection<websocketpp::config::asio_client> >, std::__ndk1::placeholders::__ph<1> const&>, std::__ndk1::allocator<std::__ndk1::__bind<void (websocketpp::connection<websocketpp::config::asio_client>::*)(std::__ndk1::error_code const&), std::__ndk1::shared_ptr<websocketpp::connection<websocketpp::config::asio_client> >, std::__ndk1::placeholders::__ph<1> const&> >, void (std::__ndk1::error_code const&)>::operator()(std::__ndk1::error_code const&)
PUBLIC d0c6c 0 std::__ndk1::__function::__func<std::__ndk1::__bind<void (websocketpp::connection<websocketpp::config::asio_client>::*)(std::__ndk1::error_code const&), std::__ndk1::shared_ptr<websocketpp::connection<websocketpp::config::asio_client> >, std::__ndk1::placeholders::__ph<1> const&>, std::__ndk1::allocator<std::__ndk1::__bind<void (websocketpp::connection<websocketpp::config::asio_client>::*)(std::__ndk1::error_code const&), std::__ndk1::shared_ptr<websocketpp::connection<websocketpp::config::asio_client> >, std::__ndk1::placeholders::__ph<1> const&> >, void (std::__ndk1::error_code const&)>::target(std::type_info const&) const
PUBLIC d0c88 0 std::__ndk1::__function::__func<std::__ndk1::__bind<void (websocketpp::connection<websocketpp::config::asio_client>::*)(std::__ndk1::error_code const&), std::__ndk1::shared_ptr<websocketpp::connection<websocketpp::config::asio_client> >, std::__ndk1::placeholders::__ph<1> const&>, std::__ndk1::allocator<std::__ndk1::__bind<void (websocketpp::connection<websocketpp::config::asio_client>::*)(std::__ndk1::error_code const&), std::__ndk1::shared_ptr<websocketpp::connection<websocketpp::config::asio_client> >, std::__ndk1::placeholders::__ph<1> const&> >, void (std::__ndk1::error_code const&)>::target_type() const
PUBLIC d0c94 0 std::__ndk1::deque<std::__ndk1::shared_ptr<websocketpp::message_buffer::message<websocketpp::message_buffer::alloc::con_msg_manager> >, std::__ndk1::allocator<std::__ndk1::shared_ptr<websocketpp::message_buffer::message<websocketpp::message_buffer::alloc::con_msg_manager> > > >::__add_back_capacity()
PUBLIC d1294 0 std::__ndk1::__split_buffer<std::__ndk1::shared_ptr<websocketpp::message_buffer::message<websocketpp::message_buffer::alloc::con_msg_manager> >*, std::__ndk1::allocator<std::__ndk1::shared_ptr<websocketpp::message_buffer::message<websocketpp::message_buffer::alloc::con_msg_manager> >*> >::push_back(std::__ndk1::shared_ptr<websocketpp::message_buffer::message<websocketpp::message_buffer::alloc::con_msg_manager> >*&&)
PUBLIC d1418 0 std::__ndk1::__split_buffer<std::__ndk1::shared_ptr<websocketpp::message_buffer::message<websocketpp::message_buffer::alloc::con_msg_manager> >*, std::__ndk1::allocator<std::__ndk1::shared_ptr<websocketpp::message_buffer::message<websocketpp::message_buffer::alloc::con_msg_manager> >*> >::push_front(std::__ndk1::shared_ptr<websocketpp::message_buffer::message<websocketpp::message_buffer::alloc::con_msg_manager> >*&&)
PUBLIC m d15a8 0 asio::io_context::post<asio::detail::wrapped_handler<asio::io_context::strand, std::__ndk1::function<void ()>, asio::detail::is_continuation_if_running> >(asio::detail::wrapped_handler<asio::io_context::strand, std::__ndk1::function<void ()>, asio::detail::is_continuation_if_running>&&)
PUBLIC m d174c 0 asio::detail::completion_handler<asio::detail::wrapped_handler<asio::io_context::strand, std::__ndk1::function<void ()>, asio::detail::is_continuation_if_running> >::ptr::~ptr()
PUBLIC m d17f4 0 asio::detail::completion_handler<asio::detail::wrapped_handler<asio::io_context::strand, std::__ndk1::function<void ()>, asio::detail::is_continuation_if_running> >::do_complete(void*, asio::detail::scheduler_operation*, std::__ndk1::error_code const&, unsigned long)
PUBLIC m d19d0 0 asio::detail::asio_handler_invoke<asio::detail::wrapped_handler<asio::io_context::strand, std::__ndk1::function<void ()>, asio::detail::is_continuation_if_running>, asio::io_context::strand, std::__ndk1::function<void ()>, asio::detail::is_continuation_if_running>(asio::detail::wrapped_handler<asio::io_context::strand, std::__ndk1::function<void ()>, asio::detail::is_continuation_if_running>&, asio::detail::wrapped_handler<asio::io_context::strand, std::__ndk1::function<void ()>, asio::detail::is_continuation_if_running>*)
PUBLIC m d1b60 0 asio::detail::rewrapped_handler<asio::detail::wrapped_handler<asio::io_context::strand, std::__ndk1::function<void ()>, asio::detail::is_continuation_if_running>, std::__ndk1::function<void ()> >::~rewrapped_handler()
PUBLIC m d1bf8 0 asio::detail::strand_service::dispatch<asio::detail::rewrapped_handler<asio::detail::wrapped_handler<asio::io_context::strand, std::__ndk1::function<void ()>, asio::detail::is_continuation_if_running>, std::__ndk1::function<void ()> > >(asio::detail::strand_service::strand_impl*&, asio::detail::rewrapped_handler<asio::detail::wrapped_handler<asio::io_context::strand, std::__ndk1::function<void ()>, asio::detail::is_continuation_if_running>, std::__ndk1::function<void ()> >&)
PUBLIC m d1ee4 0 asio::detail::completion_handler<asio::detail::rewrapped_handler<asio::detail::wrapped_handler<asio::io_context::strand, std::__ndk1::function<void ()>, asio::detail::is_continuation_if_running>, std::__ndk1::function<void ()> > >::do_complete(void*, asio::detail::scheduler_operation*, std::__ndk1::error_code const&, unsigned long)
PUBLIC m d216c 0 asio::detail::completion_handler<asio::detail::rewrapped_handler<asio::detail::wrapped_handler<asio::io_context::strand, std::__ndk1::function<void ()>, asio::detail::is_continuation_if_running>, std::__ndk1::function<void ()> > >::ptr::~ptr()
PUBLIC m d2250 0 asio::detail::strand_service::dispatch<std::__ndk1::function<void ()> >(asio::detail::strand_service::strand_impl*&, std::__ndk1::function<void ()>&)
PUBLIC m d259c 0 asio::detail::completion_handler<std::__ndk1::function<void ()> >::do_complete(void*, asio::detail::scheduler_operation*, std::__ndk1::error_code const&, unsigned long)
PUBLIC m d279c 0 asio::detail::completion_handler<std::__ndk1::function<void ()> >::ptr::~ptr()
PUBLIC d2844 0 websocketpp::connection<websocketpp::config::asio_client>::write_pop()
PUBLIC d2b98 0 websocketpp::utility::to_hex(std::__ndk1::basic_string<char, std::__ndk1::char_traits<char>, std::__ndk1::allocator<char> > const&)
PUBLIC d2d48 0 websocketpp::transport::asio::connection<websocketpp::config::asio_client::transport_config>::async_write(std::__ndk1::vector<websocketpp::transport::buffer, std::__ndk1::allocator<websocketpp::transport::buffer> > const&, std::__ndk1::function<void (std::__ndk1::error_code const&)>)
PUBLIC d325c 0 std::__ndk1::vector<std::__ndk1::shared_ptr<websocketpp::message_buffer::message<websocketpp::message_buffer::alloc::con_msg_manager> >, std::__ndk1::allocator<std::__ndk1::shared_ptr<websocketpp::message_buffer::message<websocketpp::message_buffer::alloc::con_msg_manager> > > >::__push_back_slow_path<std::__ndk1::shared_ptr<websocketpp::message_buffer::message<websocketpp::message_buffer::alloc::con_msg_manager> > const&>(std::__ndk1::shared_ptr<websocketpp::message_buffer::message<websocketpp::message_buffer::alloc::con_msg_manager> > const&)
PUBLIC d33c0 0 std::__ndk1::vector<std::__ndk1::shared_ptr<websocketpp::message_buffer::message<websocketpp::message_buffer::alloc::con_msg_manager> >, std::__ndk1::allocator<std::__ndk1::shared_ptr<websocketpp::message_buffer::message<websocketpp::message_buffer::alloc::con_msg_manager> > > >::__throw_length_error[abi:v170000]() const
PUBLIC d33d4 0 std::__ndk1::vector<websocketpp::transport::buffer, std::__ndk1::allocator<websocketpp::transport::buffer> >::__throw_length_error[abi:v170000]() const
PUBLIC d33e8 0 websocketpp::transport::asio::make_custom_alloc_handler<std::__ndk1::__bind<void (websocketpp::transport::asio::connection<websocketpp::config::asio_client::transport_config>::*)(std::__ndk1::function<void (std::__ndk1::error_code const&)>, std::__ndk1::error_code const&, unsigned long), std::__ndk1::shared_ptr<websocketpp::transport::asio::connection<websocketpp::config::asio_client::transport_config> >, std::__ndk1::function<void (std::__ndk1::error_code const&)>&, std::__ndk1::placeholders::__ph<1> const&, std::__ndk1::placeholders::__ph<2> const&> >(websocketpp::transport::asio::handler_allocator&, std::__ndk1::__bind<void (websocketpp::transport::asio::connection<websocketpp::config::asio_client::transport_config>::*)(std::__ndk1::function<void (std::__ndk1::error_code const&)>, std::__ndk1::error_code const&, unsigned long), std::__ndk1::shared_ptr<websocketpp::transport::asio::connection<websocketpp::config::asio_client::transport_config> >, std::__ndk1::function<void (std::__ndk1::error_code const&)>&, std::__ndk1::placeholders::__ph<1> const&, std::__ndk1::placeholders::__ph<2> const&>)
PUBLIC d361c 0 websocketpp::transport::asio::connection<websocketpp::config::asio_client::transport_config>::handle_async_write(std::__ndk1::function<void (std::__ndk1::error_code const&)>, std::__ndk1::error_code const&, unsigned long)
PUBLIC d3760 0 asio::detail::wrapped_handler<asio::io_context::strand, websocketpp::transport::asio::custom_alloc_handler<std::__ndk1::__bind<void (websocketpp::transport::asio::connection<websocketpp::config::asio_client::transport_config>::*)(std::__ndk1::function<void (std::__ndk1::error_code const&)>, std::__ndk1::error_code const&, unsigned long), std::__ndk1::shared_ptr<websocketpp::transport::asio::connection<websocketpp::config::asio_client::transport_config> >, std::__ndk1::function<void (std::__ndk1::error_code const&)>&, std::__ndk1::placeholders::__ph<1> const&, std::__ndk1::placeholders::__ph<2> const&> >, asio::detail::is_continuation_if_running>::~wrapped_handler()
PUBLIC d37e8 0 websocketpp::transport::asio::custom_alloc_handler<std::__ndk1::__bind<void (websocketpp::transport::asio::connection<websocketpp::config::asio_client::transport_config>::*)(std::__ndk1::function<void (std::__ndk1::error_code const&)>, std::__ndk1::error_code const&, unsigned long), std::__ndk1::shared_ptr<websocketpp::transport::asio::connection<websocketpp::config::asio_client::transport_config> >, std::__ndk1::function<void (std::__ndk1::error_code const&)>&, std::__ndk1::placeholders::__ph<1> const&, std::__ndk1::placeholders::__ph<2> const&> >::~custom_alloc_handler()
PUBLIC d3870 0 std::__ndk1::__bind<void (websocketpp::transport::asio::connection<websocketpp::config::asio_client::transport_config>::*)(std::__ndk1::function<void (std::__ndk1::error_code const&)>, std::__ndk1::error_code const&, unsigned long), std::__ndk1::shared_ptr<websocketpp::transport::asio::connection<websocketpp::config::asio_client::transport_config> >, std::__ndk1::function<void (std::__ndk1::error_code const&)>&, std::__ndk1::placeholders::__ph<1> const&, std::__ndk1::placeholders::__ph<2> const&>::~__bind()
PUBLIC d38f8 0 std::__ndk1::vector<asio::const_buffer, std::__ndk1::allocator<asio::const_buffer> >::__throw_length_error[abi:v170000]() const
PUBLIC d390c 0 asio::detail::start_write_buffer_sequence_op<asio::basic_stream_socket<asio::ip::tcp>, std::__ndk1::vector<asio::const_buffer, std::__ndk1::allocator<asio::const_buffer> >, std::__ndk1::__wrap_iter<asio::const_buffer const*>, asio::detail::transfer_all_t, asio::detail::wrapped_handler<asio::io_context::strand, websocketpp::transport::asio::custom_alloc_handler<std::__ndk1::__bind<void (websocketpp::transport::asio::connection<websocketpp::config::asio_client::transport_config>::*)(std::__ndk1::function<void (std::__ndk1::error_code const&)>, std::__ndk1::error_code const&, unsigned long), std::__ndk1::shared_ptr<websocketpp::transport::asio::connection<websocketpp::config::asio_client::transport_config> >, std::__ndk1::function<void (std::__ndk1::error_code const&)>&, std::__ndk1::placeholders::__ph<1> const&, std::__ndk1::placeholders::__ph<2> const&> >, asio::detail::is_continuation_if_running> >(asio::basic_stream_socket<asio::ip::tcp>&, std::__ndk1::vector<asio::const_buffer, std::__ndk1::allocator<asio::const_buffer> > const&, std::__ndk1::__wrap_iter<asio::const_buffer const*> const&, asio::detail::transfer_all_t, asio::detail::wrapped_handler<asio::io_context::strand, websocketpp::transport::asio::custom_alloc_handler<std::__ndk1::__bind<void (websocketpp::transport::asio::connection<websocketpp::config::asio_client::transport_config>::*)(std::__ndk1::function<void (std::__ndk1::error_code const&)>, std::__ndk1::error_code const&, unsigned long), std::__ndk1::shared_ptr<websocketpp::transport::asio::connection<websocketpp::config::asio_client::transport_config> >, std::__ndk1::function<void (std::__ndk1::error_code const&)>&, std::__ndk1::placeholders::__ph<1> const&, std::__ndk1::placeholders::__ph<2> const&> >, asio::detail::is_continuation_if_running>&)
PUBLIC d3a18 0 asio::detail::write_op<asio::basic_stream_socket<asio::ip::tcp>, std::__ndk1::vector<asio::const_buffer, std::__ndk1::allocator<asio::const_buffer> >, std::__ndk1::__wrap_iter<asio::const_buffer const*>, asio::detail::transfer_all_t, asio::detail::wrapped_handler<asio::io_context::strand, websocketpp::transport::asio::custom_alloc_handler<std::__ndk1::__bind<void (websocketpp::transport::asio::connection<websocketpp::config::asio_client::transport_config>::*)(std::__ndk1::function<void (std::__ndk1::error_code const&)>, std::__ndk1::error_code const&, unsigned long), std::__ndk1::shared_ptr<websocketpp::transport::asio::connection<websocketpp::config::asio_client::transport_config> >, std::__ndk1::function<void (std::__ndk1::error_code const&)>&, std::__ndk1::placeholders::__ph<1> const&, std::__ndk1::placeholders::__ph<2> const&> >, asio::detail::is_continuation_if_running> >::write_op(asio::basic_stream_socket<asio::ip::tcp>&, std::__ndk1::vector<asio::const_buffer, std::__ndk1::allocator<asio::const_buffer> > const&, asio::detail::transfer_all_t, asio::detail::wrapped_handler<asio::io_context::strand, websocketpp::transport::asio::custom_alloc_handler<std::__ndk1::__bind<void (websocketpp::transport::asio::connection<websocketpp::config::asio_client::transport_config>::*)(std::__ndk1::function<void (std::__ndk1::error_code const&)>, std::__ndk1::error_code const&, unsigned long), std::__ndk1::shared_ptr<websocketpp::transport::asio::connection<websocketpp::config::asio_client::transport_config> >, std::__ndk1::function<void (std::__ndk1::error_code const&)>&, std::__ndk1::placeholders::__ph<1> const&, std::__ndk1::placeholders::__ph<2> const&> >, asio::detail::is_continuation_if_running>&)
PUBLIC d3bfc 0 asio::detail::write_op<asio::basic_stream_socket<asio::ip::tcp>, std::__ndk1::vector<asio::const_buffer, std::__ndk1::allocator<asio::const_buffer> >, std::__ndk1::__wrap_iter<asio::const_buffer const*>, asio::detail::transfer_all_t, asio::detail::wrapped_handler<asio::io_context::strand, websocketpp::transport::asio::custom_alloc_handler<std::__ndk1::__bind<void (websocketpp::transport::asio::connection<websocketpp::config::asio_client::transport_config>::*)(std::__ndk1::function<void (std::__ndk1::error_code const&)>, std::__ndk1::error_code const&, unsigned long), std::__ndk1::shared_ptr<websocketpp::transport::asio::connection<websocketpp::config::asio_client::transport_config> >, std::__ndk1::function<void (std::__ndk1::error_code const&)>&, std::__ndk1::placeholders::__ph<1> const&, std::__ndk1::placeholders::__ph<2> const&> >, asio::detail::is_continuation_if_running> >::operator()(std::__ndk1::error_code const&, unsigned long, int)
PUBLIC d3e48 0 asio::detail::write_op<asio::basic_stream_socket<asio::ip::tcp>, std::__ndk1::vector<asio::const_buffer, std::__ndk1::allocator<asio::const_buffer> >, std::__ndk1::__wrap_iter<asio::const_buffer const*>, asio::detail::transfer_all_t, asio::detail::wrapped_handler<asio::io_context::strand, websocketpp::transport::asio::custom_alloc_handler<std::__ndk1::__bind<void (websocketpp::transport::asio::connection<websocketpp::config::asio_client::transport_config>::*)(std::__ndk1::function<void (std::__ndk1::error_code const&)>, std::__ndk1::error_code const&, unsigned long), std::__ndk1::shared_ptr<websocketpp::transport::asio::connection<websocketpp::config::asio_client::transport_config> >, std::__ndk1::function<void (std::__ndk1::error_code const&)>&, std::__ndk1::placeholders::__ph<1> const&, std::__ndk1::placeholders::__ph<2> const&> >, asio::detail::is_continuation_if_running> >::~write_op()
PUBLIC d3ee8 0 asio::detail::wrapped_handler<asio::io_context::strand, websocketpp::transport::asio::custom_alloc_handler<std::__ndk1::__bind<void (websocketpp::transport::asio::connection<websocketpp::config::asio_client::transport_config>::*)(std::__ndk1::function<void (std::__ndk1::error_code const&)>, std::__ndk1::error_code const&, unsigned long), std::__ndk1::shared_ptr<websocketpp::transport::asio::connection<websocketpp::config::asio_client::transport_config> >, std::__ndk1::function<void (std::__ndk1::error_code const&)>&, std::__ndk1::placeholders::__ph<1> const&, std::__ndk1::placeholders::__ph<2> const&> >, asio::detail::is_continuation_if_running>::operator()<std::__ndk1::error_code, unsigned long>(std::__ndk1::error_code const&, unsigned long const&)
PUBLIC d4090 0 asio::detail::reactive_socket_service_base::async_send<asio::detail::prepared_buffers<asio::const_buffer>, asio::detail::write_op<asio::basic_stream_socket<asio::ip::tcp>, std::__ndk1::vector<asio::const_buffer, std::__ndk1::allocator<asio::const_buffer> >, std::__ndk1::__wrap_iter<asio::const_buffer const*>, asio::detail::transfer_all_t, asio::detail::wrapped_handler<asio::io_context::strand, websocketpp::transport::asio::custom_alloc_handler<std::__ndk1::__bind<void (websocketpp::transport::asio::connection<websocketpp::config::asio_client::transport_config>::*)(std::__ndk1::function<void (std::__ndk1::error_code const&)>, std::__ndk1::error_code const&, unsigned long), std::__ndk1::shared_ptr<websocketpp::transport::asio::connection<websocketpp::config::asio_client::transport_config> >, std::__ndk1::function<void (std::__ndk1::error_code const&)>&, std::__ndk1::placeholders::__ph<1> const&, std::__ndk1::placeholders::__ph<2> const&> >, asio::detail::is_continuation_if_running> > >(asio::detail::reactive_socket_service_base::base_implementation_type&, asio::detail::prepared_buffers<asio::const_buffer> const&, int, asio::detail::write_op<asio::basic_stream_socket<asio::ip::tcp>, std::__ndk1::vector<asio::const_buffer, std::__ndk1::allocator<asio::const_buffer> >, std::__ndk1::__wrap_iter<asio::const_buffer const*>, asio::detail::transfer_all_t, asio::detail::wrapped_handler<asio::io_context::strand, websocketpp::transport::asio::custom_alloc_handler<std::__ndk1::__bind<void (websocketpp::transport::asio::connection<websocketpp::config::asio_client::transport_config>::*)(std::__ndk1::function<void (std::__ndk1::error_code const&)>, std::__ndk1::error_code const&, unsigned long), std::__ndk1::shared_ptr<websocketpp::transport::asio::connection<websocketpp::config::asio_client::transport_config> >, std::__ndk1::function<void (std::__ndk1::error_code const&)>&, std::__ndk1::placeholders::__ph<1> const&, std::__ndk1::placeholders::__ph<2> const&> >, asio::detail::is_continuation_if_running> >&)
PUBLIC d42fc 0 asio::detail::reactive_socket_send_op<asio::detail::prepared_buffers<asio::const_buffer>, asio::detail::write_op<asio::basic_stream_socket<asio::ip::tcp>, std::__ndk1::vector<asio::const_buffer, std::__ndk1::allocator<asio::const_buffer> >, std::__ndk1::__wrap_iter<asio::const_buffer const*>, asio::detail::transfer_all_t, asio::detail::wrapped_handler<asio::io_context::strand, websocketpp::transport::asio::custom_alloc_handler<std::__ndk1::__bind<void (websocketpp::transport::asio::connection<websocketpp::config::asio_client::transport_config>::*)(std::__ndk1::function<void (std::__ndk1::error_code const&)>, std::__ndk1::error_code const&, unsigned long), std::__ndk1::shared_ptr<websocketpp::transport::asio::connection<websocketpp::config::asio_client::transport_config> >, std::__ndk1::function<void (std::__ndk1::error_code const&)>&, std::__ndk1::placeholders::__ph<1> const&, std::__ndk1::placeholders::__ph<2> const&> >, asio::detail::is_continuation_if_running> > >::do_complete(void*, asio::detail::scheduler_operation*, std::__ndk1::error_code const&, unsigned long)
PUBLIC d4598 0 asio::detail::write_op<asio::basic_stream_socket<asio::ip::tcp>, std::__ndk1::vector<asio::const_buffer, std::__ndk1::allocator<asio::const_buffer> >, std::__ndk1::__wrap_iter<asio::const_buffer const*>, asio::detail::transfer_all_t, asio::detail::wrapped_handler<asio::io_context::strand, websocketpp::transport::asio::custom_alloc_handler<std::__ndk1::__bind<void (websocketpp::transport::asio::connection<websocketpp::config::asio_client::transport_config>::*)(std::__ndk1::function<void (std::__ndk1::error_code const&)>, std::__ndk1::error_code const&, unsigned long), std::__ndk1::shared_ptr<websocketpp::transport::asio::connection<websocketpp::config::asio_client::transport_config> >, std::__ndk1::function<void (std::__ndk1::error_code const&)>&, std::__ndk1::placeholders::__ph<1> const&, std::__ndk1::placeholders::__ph<2> const&> >, asio::detail::is_continuation_if_running> >::write_op(asio::detail::write_op<asio::basic_stream_socket<asio::ip::tcp>, std::__ndk1::vector<asio::const_buffer, std::__ndk1::allocator<asio::const_buffer> >, std::__ndk1::__wrap_iter<asio::const_buffer const*>, asio::detail::transfer_all_t, asio::detail::wrapped_handler<asio::io_context::strand, websocketpp::transport::asio::custom_alloc_handler<std::__ndk1::__bind<void (websocketpp::transport::asio::connection<websocketpp::config::asio_client::transport_config>::*)(std::__ndk1::function<void (std::__ndk1::error_code const&)>, std::__ndk1::error_code const&, unsigned long), std::__ndk1::shared_ptr<websocketpp::transport::asio::connection<websocketpp::config::asio_client::transport_config> >, std::__ndk1::function<void (std::__ndk1::error_code const&)>&, std::__ndk1::placeholders::__ph<1> const&, std::__ndk1::placeholders::__ph<2> const&> >, asio::detail::is_continuation_if_running> >&&)
PUBLIC d46c4 0 asio::detail::reactive_socket_send_op<asio::detail::prepared_buffers<asio::const_buffer>, asio::detail::write_op<asio::basic_stream_socket<asio::ip::tcp>, std::__ndk1::vector<asio::const_buffer, std::__ndk1::allocator<asio::const_buffer> >, std::__ndk1::__wrap_iter<asio::const_buffer const*>, asio::detail::transfer_all_t, asio::detail::wrapped_handler<asio::io_context::strand, websocketpp::transport::asio::custom_alloc_handler<std::__ndk1::__bind<void (websocketpp::transport::asio::connection<websocketpp::config::asio_client::transport_config>::*)(std::__ndk1::function<void (std::__ndk1::error_code const&)>, std::__ndk1::error_code const&, unsigned long), std::__ndk1::shared_ptr<websocketpp::transport::asio::connection<websocketpp::config::asio_client::transport_config> >, std::__ndk1::function<void (std::__ndk1::error_code const&)>&, std::__ndk1::placeholders::__ph<1> const&, std::__ndk1::placeholders::__ph<2> const&> >, asio::detail::is_continuation_if_running> > >::ptr::reset()
PUBLIC d4790 0 asio::detail::binder2<asio::detail::write_op<asio::basic_stream_socket<asio::ip::tcp>, std::__ndk1::vector<asio::const_buffer, std::__ndk1::allocator<asio::const_buffer> >, std::__ndk1::__wrap_iter<asio::const_buffer const*>, asio::detail::transfer_all_t, asio::detail::wrapped_handler<asio::io_context::strand, websocketpp::transport::asio::custom_alloc_handler<std::__ndk1::__bind<void (websocketpp::transport::asio::connection<websocketpp::config::asio_client::transport_config>::*)(std::__ndk1::function<void (std::__ndk1::error_code const&)>, std::__ndk1::error_code const&, unsigned long), std::__ndk1::shared_ptr<websocketpp::transport::asio::connection<websocketpp::config::asio_client::transport_config> >, std::__ndk1::function<void (std::__ndk1::error_code const&)>&, std::__ndk1::placeholders::__ph<1> const&, std::__ndk1::placeholders::__ph<2> const&> >, asio::detail::is_continuation_if_running> >, std::__ndk1::error_code, unsigned long>::~binder2()
PUBLIC d4830 0 asio::detail::asio_handler_invoke<asio::detail::binder2<asio::detail::write_op<asio::basic_stream_socket<asio::ip::tcp>, std::__ndk1::vector<asio::const_buffer, std::__ndk1::allocator<asio::const_buffer> >, std::__ndk1::__wrap_iter<asio::const_buffer const*>, asio::detail::transfer_all_t, asio::detail::wrapped_handler<asio::io_context::strand, websocketpp::transport::asio::custom_alloc_handler<std::__ndk1::__bind<void (websocketpp::transport::asio::connection<websocketpp::config::asio_client::transport_config>::*)(std::__ndk1::function<void (std::__ndk1::error_code const&)>, std::__ndk1::error_code const&, unsigned long), std::__ndk1::shared_ptr<websocketpp::transport::asio::connection<websocketpp::config::asio_client::transport_config> >, std::__ndk1::function<void (std::__ndk1::error_code const&)>&, std::__ndk1::placeholders::__ph<1> const&, std::__ndk1::placeholders::__ph<2> const&> >, asio::detail::is_continuation_if_running> >, std::__ndk1::error_code, unsigned long>, asio::io_context::strand, websocketpp::transport::asio::custom_alloc_handler<std::__ndk1::__bind<void (websocketpp::transport::asio::connection<websocketpp::config::asio_client::transport_config>::*)(std::__ndk1::function<void (std::__ndk1::error_code const&)>, std::__ndk1::error_code const&, unsigned long), std::__ndk1::shared_ptr<websocketpp::transport::asio::connection<websocketpp::config::asio_client::transport_config> >, std::__ndk1::function<void (std::__ndk1::error_code const&)>&, std::__ndk1::placeholders::__ph<1> const&, std::__ndk1::placeholders::__ph<2> const&> >, asio::detail::is_continuation_if_running>(asio::detail::binder2<asio::detail::write_op<asio::basic_stream_socket<asio::ip::tcp>, std::__ndk1::vector<asio::const_buffer, std::__ndk1::allocator<asio::const_buffer> >, std::__ndk1::__wrap_iter<asio::const_buffer const*>, asio::detail::transfer_all_t, asio::detail::wrapped_handler<asio::io_context::strand, websocketpp::transport::asio::custom_alloc_handler<std::__ndk1::__bind<void (websocketpp::transport::asio::connection<websocketpp::config::asio_client::transport_config>::*)(std::__ndk1::function<void (std::__ndk1::error_code const&)>, std::__ndk1::error_code const&, unsigned long), std::__ndk1::shared_ptr<websocketpp::transport::asio::connection<websocketpp::config::asio_client::transport_config> >, std::__ndk1::function<void (std::__ndk1::error_code const&)>&, std::__ndk1::placeholders::__ph<1> const&, std::__ndk1::placeholders::__ph<2> const&> >, asio::detail::is_continuation_if_running> >, std::__ndk1::error_code, unsigned long>&, asio::detail::wrapped_handler<asio::io_context::strand, websocketpp::transport::asio::custom_alloc_handler<std::__ndk1::__bind<void (websocketpp::transport::asio::connection<websocketpp::config::asio_client::transport_config>::*)(std::__ndk1::function<void (std::__ndk1::error_code const&)>, std::__ndk1::error_code const&, unsigned long), std::__ndk1::shared_ptr<websocketpp::transport::asio::connection<websocketpp::config::asio_client::transport_config> >, std::__ndk1::function<void (std::__ndk1::error_code const&)>&, std::__ndk1::placeholders::__ph<1> const&, std::__ndk1::placeholders::__ph<2> const&> >, asio::detail::is_continuation_if_running>*)
PUBLIC d49a0 0 asio::detail::rewrapped_handler<asio::detail::binder2<asio::detail::write_op<asio::basic_stream_socket<asio::ip::tcp>, std::__ndk1::vector<asio::const_buffer, std::__ndk1::allocator<asio::const_buffer> >, std::__ndk1::__wrap_iter<asio::const_buffer const*>, asio::detail::transfer_all_t, asio::detail::wrapped_handler<asio::io_context::strand, websocketpp::transport::asio::custom_alloc_handler<std::__ndk1::__bind<void (websocketpp::transport::asio::connection<websocketpp::config::asio_client::transport_config>::*)(std::__ndk1::function<void (std::__ndk1::error_code const&)>, std::__ndk1::error_code const&, unsigned long), std::__ndk1::shared_ptr<websocketpp::transport::asio::connection<websocketpp::config::asio_client::transport_config> >, std::__ndk1::function<void (std::__ndk1::error_code const&)>&, std::__ndk1::placeholders::__ph<1> const&, std::__ndk1::placeholders::__ph<2> const&> >, asio::detail::is_continuation_if_running> >, std::__ndk1::error_code, unsigned long>, websocketpp::transport::asio::custom_alloc_handler<std::__ndk1::__bind<void (websocketpp::transport::asio::connection<websocketpp::config::asio_client::transport_config>::*)(std::__ndk1::function<void (std::__ndk1::error_code const&)>, std::__ndk1::error_code const&, unsigned long), std::__ndk1::shared_ptr<websocketpp::transport::asio::connection<websocketpp::config::asio_client::transport_config> >, std::__ndk1::function<void (std::__ndk1::error_code const&)>&, std::__ndk1::placeholders::__ph<1> const&, std::__ndk1::placeholders::__ph<2> const&> > >::rewrapped_handler(asio::detail::binder2<asio::detail::write_op<asio::basic_stream_socket<asio::ip::tcp>, std::__ndk1::vector<asio::const_buffer, std::__ndk1::allocator<asio::const_buffer> >, std::__ndk1::__wrap_iter<asio::const_buffer const*>, asio::detail::transfer_all_t, asio::detail::wrapped_handler<asio::io_context::strand, websocketpp::transport::asio::custom_alloc_handler<std::__ndk1::__bind<void (websocketpp::transport::asio::connection<websocketpp::config::asio_client::transport_config>::*)(std::__ndk1::function<void (std::__ndk1::error_code const&)>, std::__ndk1::error_code const&, unsigned long), std::__ndk1::shared_ptr<websocketpp::transport::asio::connection<websocketpp::config::asio_client::transport_config> >, std::__ndk1::function<void (std::__ndk1::error_code const&)>&, std::__ndk1::placeholders::__ph<1> const&, std::__ndk1::placeholders::__ph<2> const&> >, asio::detail::is_continuation_if_running> >, std::__ndk1::error_code, unsigned long>&, websocketpp::transport::asio::custom_alloc_handler<std::__ndk1::__bind<void (websocketpp::transport::asio::connection<websocketpp::config::asio_client::transport_config>::*)(std::__ndk1::function<void (std::__ndk1::error_code const&)>, std::__ndk1::error_code const&, unsigned long), std::__ndk1::shared_ptr<websocketpp::transport::asio::connection<websocketpp::config::asio_client::transport_config> >, std::__ndk1::function<void (std::__ndk1::error_code const&)>&, std::__ndk1::placeholders::__ph<1> const&, std::__ndk1::placeholders::__ph<2> const&> > const&)
PUBLIC d4aa0 0 asio::detail::rewrapped_handler<asio::detail::binder2<asio::detail::write_op<asio::basic_stream_socket<asio::ip::tcp>, std::__ndk1::vector<asio::const_buffer, std::__ndk1::allocator<asio::const_buffer> >, std::__ndk1::__wrap_iter<asio::const_buffer const*>, asio::detail::transfer_all_t, asio::detail::wrapped_handler<asio::io_context::strand, websocketpp::transport::asio::custom_alloc_handler<std::__ndk1::__bind<void (websocketpp::transport::asio::connection<websocketpp::config::asio_client::transport_config>::*)(std::__ndk1::function<void (std::__ndk1::error_code const&)>, std::__ndk1::error_code const&, unsigned long), std::__ndk1::shared_ptr<websocketpp::transport::asio::connection<websocketpp::config::asio_client::transport_config> >, std::__ndk1::function<void (std::__ndk1::error_code const&)>&, std::__ndk1::placeholders::__ph<1> const&, std::__ndk1::placeholders::__ph<2> const&> >, asio::detail::is_continuation_if_running> >, std::__ndk1::error_code, unsigned long>, websocketpp::transport::asio::custom_alloc_handler<std::__ndk1::__bind<void (websocketpp::transport::asio::connection<websocketpp::config::asio_client::transport_config>::*)(std::__ndk1::function<void (std::__ndk1::error_code const&)>, std::__ndk1::error_code const&, unsigned long), std::__ndk1::shared_ptr<websocketpp::transport::asio::connection<websocketpp::config::asio_client::transport_config> >, std::__ndk1::function<void (std::__ndk1::error_code const&)>&, std::__ndk1::placeholders::__ph<1> const&, std::__ndk1::placeholders::__ph<2> const&> > >::~rewrapped_handler()
PUBLIC d4ba8 0 asio::detail::strand_service::dispatch<asio::detail::rewrapped_handler<asio::detail::binder2<asio::detail::write_op<asio::basic_stream_socket<asio::ip::tcp>, std::__ndk1::vector<asio::const_buffer, std::__ndk1::allocator<asio::const_buffer> >, std::__ndk1::__wrap_iter<asio::const_buffer const*>, asio::detail::transfer_all_t, asio::detail::wrapped_handler<asio::io_context::strand, websocketpp::transport::asio::custom_alloc_handler<std::__ndk1::__bind<void (websocketpp::transport::asio::connection<websocketpp::config::asio_client::transport_config>::*)(std::__ndk1::function<void (std::__ndk1::error_code const&)>, std::__ndk1::error_code const&, unsigned long), std::__ndk1::shared_ptr<websocketpp::transport::asio::connection<websocketpp::config::asio_client::transport_config> >, std::__ndk1::function<void (std::__ndk1::error_code const&)>&, std::__ndk1::placeholders::__ph<1> const&, std::__ndk1::placeholders::__ph<2> const&> >, asio::detail::is_continuation_if_running> >, std::__ndk1::error_code, unsigned long>, websocketpp::transport::asio::custom_alloc_handler<std::__ndk1::__bind<void (websocketpp::transport::asio::connection<websocketpp::config::asio_client::transport_config>::*)(std::__ndk1::function<void (std::__ndk1::error_code const&)>, std::__ndk1::error_code const&, unsigned long), std::__ndk1::shared_ptr<websocketpp::transport::asio::connection<websocketpp::config::asio_client::transport_config> >, std::__ndk1::function<void (std::__ndk1::error_code const&)>&, std::__ndk1::placeholders::__ph<1> const&, std::__ndk1::placeholders::__ph<2> const&> > > >(asio::detail::strand_service::strand_impl*&, asio::detail::rewrapped_handler<asio::detail::binder2<asio::detail::write_op<asio::basic_stream_socket<asio::ip::tcp>, std::__ndk1::vector<asio::const_buffer, std::__ndk1::allocator<asio::const_buffer> >, std::__ndk1::__wrap_iter<asio::const_buffer const*>, asio::detail::transfer_all_t, asio::detail::wrapped_handler<asio::io_context::strand, websocketpp::transport::asio::custom_alloc_handler<std::__ndk1::__bind<void (websocketpp::transport::asio::connection<websocketpp::config::asio_client::transport_config>::*)(std::__ndk1::function<void (std::__ndk1::error_code const&)>, std::__ndk1::error_code const&, unsigned long), std::__ndk1::shared_ptr<websocketpp::transport::asio::connection<websocketpp::config::asio_client::transport_config> >, std::__ndk1::function<void (std::__ndk1::error_code const&)>&, std::__ndk1::placeholders::__ph<1> const&, std::__ndk1::placeholders::__ph<2> const&> >, asio::detail::is_continuation_if_running> >, std::__ndk1::error_code, unsigned long>, websocketpp::transport::asio::custom_alloc_handler<std::__ndk1::__bind<void (websocketpp::transport::asio::connection<websocketpp::config::asio_client::transport_config>::*)(std::__ndk1::function<void (std::__ndk1::error_code const&)>, std::__ndk1::error_code const&, unsigned long), std::__ndk1::shared_ptr<websocketpp::transport::asio::connection<websocketpp::config::asio_client::transport_config> >, std::__ndk1::function<void (std::__ndk1::error_code const&)>&, std::__ndk1::placeholders::__ph<1> const&, std::__ndk1::placeholders::__ph<2> const&> > >&)
PUBLIC d4e88 0 asio::detail::completion_handler<asio::detail::rewrapped_handler<asio::detail::binder2<asio::detail::write_op<asio::basic_stream_socket<asio::ip::tcp>, std::__ndk1::vector<asio::const_buffer, std::__ndk1::allocator<asio::const_buffer> >, std::__ndk1::__wrap_iter<asio::const_buffer const*>, asio::detail::transfer_all_t, asio::detail::wrapped_handler<asio::io_context::strand, websocketpp::transport::asio::custom_alloc_handler<std::__ndk1::__bind<void (websocketpp::transport::asio::connection<websocketpp::config::asio_client::transport_config>::*)(std::__ndk1::function<void (std::__ndk1::error_code const&)>, std::__ndk1::error_code const&, unsigned long), std::__ndk1::shared_ptr<websocketpp::transport::asio::connection<websocketpp::config::asio_client::transport_config> >, std::__ndk1::function<void (std::__ndk1::error_code const&)>&, std::__ndk1::placeholders::__ph<1> const&, std::__ndk1::placeholders::__ph<2> const&> >, asio::detail::is_continuation_if_running> >, std::__ndk1::error_code, unsigned long>, websocketpp::transport::asio::custom_alloc_handler<std::__ndk1::__bind<void (websocketpp::transport::asio::connection<websocketpp::config::asio_client::transport_config>::*)(std::__ndk1::function<void (std::__ndk1::error_code const&)>, std::__ndk1::error_code const&, unsigned long), std::__ndk1::shared_ptr<websocketpp::transport::asio::connection<websocketpp::config::asio_client::transport_config> >, std::__ndk1::function<void (std::__ndk1::error_code const&)>&, std::__ndk1::placeholders::__ph<1> const&, std::__ndk1::placeholders::__ph<2> const&> > > >::do_complete(void*, asio::detail::scheduler_operation*, std::__ndk1::error_code const&, unsigned long)
PUBLIC d50d0 0 asio::detail::completion_handler<asio::detail::rewrapped_handler<asio::detail::binder2<asio::detail::write_op<asio::basic_stream_socket<asio::ip::tcp>, std::__ndk1::vector<asio::const_buffer, std::__ndk1::allocator<asio::const_buffer> >, std::__ndk1::__wrap_iter<asio::const_buffer const*>, asio::detail::transfer_all_t, asio::detail::wrapped_handler<asio::io_context::strand, websocketpp::transport::asio::custom_alloc_handler<std::__ndk1::__bind<void (websocketpp::transport::asio::connection<websocketpp::config::asio_client::transport_config>::*)(std::__ndk1::function<void (std::__ndk1::error_code const&)>, std::__ndk1::error_code const&, unsigned long), std::__ndk1::shared_ptr<websocketpp::transport::asio::connection<websocketpp::config::asio_client::transport_config> >, std::__ndk1::function<void (std::__ndk1::error_code const&)>&, std::__ndk1::placeholders::__ph<1> const&, std::__ndk1::placeholders::__ph<2> const&> >, asio::detail::is_continuation_if_running> >, std::__ndk1::error_code, unsigned long>, websocketpp::transport::asio::custom_alloc_handler<std::__ndk1::__bind<void (websocketpp::transport::asio::connection<websocketpp::config::asio_client::transport_config>::*)(std::__ndk1::function<void (std::__ndk1::error_code const&)>, std::__ndk1::error_code const&, unsigned long), std::__ndk1::shared_ptr<websocketpp::transport::asio::connection<websocketpp::config::asio_client::transport_config> >, std::__ndk1::function<void (std::__ndk1::error_code const&)>&, std::__ndk1::placeholders::__ph<1> const&, std::__ndk1::placeholders::__ph<2> const&> > > >::ptr::reset()
PUBLIC m d5200 0 asio::detail::reactive_socket_send_op_base<asio::detail::prepared_buffers<asio::const_buffer> >::do_perform(asio::detail::reactor_op*)
PUBLIC m d5380 0 asio::detail::socket_ops::non_blocking_send(int, iovec const*, unsigned long, int, std::__ndk1::error_code&, unsigned long&)
PUBLIC m d55e0 0 asio::detail::socket_ops::set_internal_non_blocking(int, unsigned char&, bool, std::__ndk1::error_code&)
PUBLIC m d57e0 0 asio::detail::epoll_reactor::start_op(int, int, asio::detail::epoll_reactor::descriptor_state*&, asio::detail::reactor_op*, bool, bool)
PUBLIC d5bb4 0 asio::detail::binder2<websocketpp::transport::asio::custom_alloc_handler<std::__ndk1::__bind<void (websocketpp::transport::asio::connection<websocketpp::config::asio_client::transport_config>::*)(std::__ndk1::function<void (std::__ndk1::error_code const&)>, std::__ndk1::error_code const&, unsigned long), std::__ndk1::shared_ptr<websocketpp::transport::asio::connection<websocketpp::config::asio_client::transport_config> >, std::__ndk1::function<void (std::__ndk1::error_code const&)>&, std::__ndk1::placeholders::__ph<1> const&, std::__ndk1::placeholders::__ph<2> const&> >, std::__ndk1::error_code, unsigned long>::~binder2()
PUBLIC d5c3c 0 asio::detail::strand_service::dispatch<asio::detail::binder2<websocketpp::transport::asio::custom_alloc_handler<std::__ndk1::__bind<void (websocketpp::transport::asio::connection<websocketpp::config::asio_client::transport_config>::*)(std::__ndk1::function<void (std::__ndk1::error_code const&)>, std::__ndk1::error_code const&, unsigned long), std::__ndk1::shared_ptr<websocketpp::transport::asio::connection<websocketpp::config::asio_client::transport_config> >, std::__ndk1::function<void (std::__ndk1::error_code const&)>&, std::__ndk1::placeholders::__ph<1> const&, std::__ndk1::placeholders::__ph<2> const&> >, std::__ndk1::error_code, unsigned long> >(asio::detail::strand_service::strand_impl*&, asio::detail::binder2<websocketpp::transport::asio::custom_alloc_handler<std::__ndk1::__bind<void (websocketpp::transport::asio::connection<websocketpp::config::asio_client::transport_config>::*)(std::__ndk1::function<void (std::__ndk1::error_code const&)>, std::__ndk1::error_code const&, unsigned long), std::__ndk1::shared_ptr<websocketpp::transport::asio::connection<websocketpp::config::asio_client::transport_config> >, std::__ndk1::function<void (std::__ndk1::error_code const&)>&, std::__ndk1::placeholders::__ph<1> const&, std::__ndk1::placeholders::__ph<2> const&> >, std::__ndk1::error_code, unsigned long>&)
PUBLIC d5f84 0 asio::detail::completion_handler<asio::detail::binder2<websocketpp::transport::asio::custom_alloc_handler<std::__ndk1::__bind<void (websocketpp::transport::asio::connection<websocketpp::config::asio_client::transport_config>::*)(std::__ndk1::function<void (std::__ndk1::error_code const&)>, std::__ndk1::error_code const&, unsigned long), std::__ndk1::shared_ptr<websocketpp::transport::asio::connection<websocketpp::config::asio_client::transport_config> >, std::__ndk1::function<void (std::__ndk1::error_code const&)>&, std::__ndk1::placeholders::__ph<1> const&, std::__ndk1::placeholders::__ph<2> const&> >, std::__ndk1::error_code, unsigned long> >::do_complete(void*, asio::detail::scheduler_operation*, std::__ndk1::error_code const&, unsigned long)
PUBLIC d6220 0 asio::detail::completion_handler<asio::detail::binder2<websocketpp::transport::asio::custom_alloc_handler<std::__ndk1::__bind<void (websocketpp::transport::asio::connection<websocketpp::config::asio_client::transport_config>::*)(std::__ndk1::function<void (std::__ndk1::error_code const&)>, std::__ndk1::error_code const&, unsigned long), std::__ndk1::shared_ptr<websocketpp::transport::asio::connection<websocketpp::config::asio_client::transport_config> >, std::__ndk1::function<void (std::__ndk1::error_code const&)>&, std::__ndk1::placeholders::__ph<1> const&, std::__ndk1::placeholders::__ph<2> const&> >, std::__ndk1::error_code, unsigned long> >::ptr::~ptr()
PUBLIC d62dc 0 asio::detail::binder2<websocketpp::transport::asio::custom_alloc_handler<std::__ndk1::__bind<void (websocketpp::transport::asio::connection<websocketpp::config::asio_client::transport_config>::*)(std::__ndk1::function<void (std::__ndk1::error_code const&)>, std::__ndk1::error_code const&, unsigned long), std::__ndk1::shared_ptr<websocketpp::transport::asio::connection<websocketpp::config::asio_client::transport_config> >, std::__ndk1::function<void (std::__ndk1::error_code const&)>&, std::__ndk1::placeholders::__ph<1> const&, std::__ndk1::placeholders::__ph<2> const&> >, std::__ndk1::error_code, unsigned long>::operator()()
PUBLIC d642c 0 std::__ndk1::__function::__func<std::__ndk1::__bind<void (websocketpp::connection<websocketpp::config::asio_client>::*)(), std::__ndk1::shared_ptr<websocketpp::connection<websocketpp::config::asio_client> > >, std::__ndk1::allocator<std::__ndk1::__bind<void (websocketpp::connection<websocketpp::config::asio_client>::*)(), std::__ndk1::shared_ptr<websocketpp::connection<websocketpp::config::asio_client> > > >, void ()>::~__func()
PUBLIC d6488 0 std::__ndk1::__function::__func<std::__ndk1::__bind<void (websocketpp::connection<websocketpp::config::asio_client>::*)(), std::__ndk1::shared_ptr<websocketpp::connection<websocketpp::config::asio_client> > >, std::__ndk1::allocator<std::__ndk1::__bind<void (websocketpp::connection<websocketpp::config::asio_client>::*)(), std::__ndk1::shared_ptr<websocketpp::connection<websocketpp::config::asio_client> > > >, void ()>::~__func()
PUBLIC d64f4 0 std::__ndk1::__function::__func<std::__ndk1::__bind<void (websocketpp::connection<websocketpp::config::asio_client>::*)(), std::__ndk1::shared_ptr<websocketpp::connection<websocketpp::config::asio_client> > >, std::__ndk1::allocator<std::__ndk1::__bind<void (websocketpp::connection<websocketpp::config::asio_client>::*)(), std::__ndk1::shared_ptr<websocketpp::connection<websocketpp::config::asio_client> > > >, void ()>::__clone() const
PUBLIC d654c 0 std::__ndk1::__function::__func<std::__ndk1::__bind<void (websocketpp::connection<websocketpp::config::asio_client>::*)(), std::__ndk1::shared_ptr<websocketpp::connection<websocketpp::config::asio_client> > >, std::__ndk1::allocator<std::__ndk1::__bind<void (websocketpp::connection<websocketpp::config::asio_client>::*)(), std::__ndk1::shared_ptr<websocketpp::connection<websocketpp::config::asio_client> > > >, void ()>::__clone(std::__ndk1::__function::__base<void ()>*) const
PUBLIC d658c 0 std::__ndk1::__function::__func<std::__ndk1::__bind<void (websocketpp::connection<websocketpp::config::asio_client>::*)(), std::__ndk1::shared_ptr<websocketpp::connection<websocketpp::config::asio_client> > >, std::__ndk1::allocator<std::__ndk1::__bind<void (websocketpp::connection<websocketpp::config::asio_client>::*)(), std::__ndk1::shared_ptr<websocketpp::connection<websocketpp::config::asio_client> > > >, void ()>::destroy()
PUBLIC d65dc 0 std::__ndk1::__function::__func<std::__ndk1::__bind<void (websocketpp::connection<websocketpp::config::asio_client>::*)(), std::__ndk1::shared_ptr<websocketpp::connection<websocketpp::config::asio_client> > >, std::__ndk1::allocator<std::__ndk1::__bind<void (websocketpp::connection<websocketpp::config::asio_client>::*)(), std::__ndk1::shared_ptr<websocketpp::connection<websocketpp::config::asio_client> > > >, void ()>::destroy_deallocate()
PUBLIC d663c 0 std::__ndk1::__function::__func<std::__ndk1::__bind<void (websocketpp::connection<websocketpp::config::asio_client>::*)(), std::__ndk1::shared_ptr<websocketpp::connection<websocketpp::config::asio_client> > >, std::__ndk1::allocator<std::__ndk1::__bind<void (websocketpp::connection<websocketpp::config::asio_client>::*)(), std::__ndk1::shared_ptr<websocketpp::connection<websocketpp::config::asio_client> > > >, void ()>::operator()()
PUBLIC d6658 0 std::__ndk1::__function::__func<std::__ndk1::__bind<void (websocketpp::connection<websocketpp::config::asio_client>::*)(), std::__ndk1::shared_ptr<websocketpp::connection<websocketpp::config::asio_client> > >, std::__ndk1::allocator<std::__ndk1::__bind<void (websocketpp::connection<websocketpp::config::asio_client>::*)(), std::__ndk1::shared_ptr<websocketpp::connection<websocketpp::config::asio_client> > > >, void ()>::target(std::type_info const&) const
PUBLIC d6674 0 std::__ndk1::__function::__func<std::__ndk1::__bind<void (websocketpp::connection<websocketpp::config::asio_client>::*)(), std::__ndk1::shared_ptr<websocketpp::connection<websocketpp::config::asio_client> > >, std::__ndk1::allocator<std::__ndk1::__bind<void (websocketpp::connection<websocketpp::config::asio_client>::*)(), std::__ndk1::shared_ptr<websocketpp::connection<websocketpp::config::asio_client> > > >, void ()>::target_type() const
PUBLIC d6680 0 websocketpp::processor::error::processor_category::~processor_category()
PUBLIC d66a4 0 websocketpp::processor::error::processor_category::name() const
PUBLIC d66b0 0 websocketpp::processor::error::processor_category::message(int) const
PUBLIC d6cc4 0 websocketpp::connection<websocketpp::config::asio_client>::pong(std::__ndk1::basic_string<char, std::__ndk1::char_traits<char>, std::__ndk1::allocator<char> > const&, std::__ndk1::error_code&)
PUBLIC d72f0 0 websocketpp::close::extract_code(std::__ndk1::basic_string<char, std::__ndk1::char_traits<char>, std::__ndk1::allocator<char> > const&, std::__ndk1::error_code&)
PUBLIC d7550 0 websocketpp::close::extract_reason(std::__ndk1::basic_string<char, std::__ndk1::char_traits<char>, std::__ndk1::allocator<char> > const&, std::__ndk1::error_code&)
PUBLIC d76e0 0 websocketpp::transport::asio::connection<websocketpp::config::asio_client::transport_config>::async_read_at_least(unsigned long, char*, unsigned long, std::__ndk1::function<void (std::__ndk1::error_code const&, unsigned long)>)
PUBLIC d7c60 0 websocketpp::transport::asio::make_custom_alloc_handler<std::__ndk1::__bind<void (websocketpp::transport::asio::connection<websocketpp::config::asio_client::transport_config>::*)(std::__ndk1::function<void (std::__ndk1::error_code const&, unsigned long)>, std::__ndk1::error_code const&, unsigned long), std::__ndk1::shared_ptr<websocketpp::transport::asio::connection<websocketpp::config::asio_client::transport_config> >, std::__ndk1::function<void (std::__ndk1::error_code const&, unsigned long)>&, std::__ndk1::placeholders::__ph<1> const&, std::__ndk1::placeholders::__ph<2> const&> >(websocketpp::transport::asio::handler_allocator&, std::__ndk1::__bind<void (websocketpp::transport::asio::connection<websocketpp::config::asio_client::transport_config>::*)(std::__ndk1::function<void (std::__ndk1::error_code const&, unsigned long)>, std::__ndk1::error_code const&, unsigned long), std::__ndk1::shared_ptr<websocketpp::transport::asio::connection<websocketpp::config::asio_client::transport_config> >, std::__ndk1::function<void (std::__ndk1::error_code const&, unsigned long)>&, std::__ndk1::placeholders::__ph<1> const&, std::__ndk1::placeholders::__ph<2> const&>)
PUBLIC d7e94 0 websocketpp::transport::asio::connection<websocketpp::config::asio_client::transport_config>::handle_async_read(std::__ndk1::function<void (std::__ndk1::error_code const&, unsigned long)>, std::__ndk1::error_code const&, unsigned long)
PUBLIC d8180 0 asio::detail::wrapped_handler<asio::io_context::strand, websocketpp::transport::asio::custom_alloc_handler<std::__ndk1::__bind<void (websocketpp::transport::asio::connection<websocketpp::config::asio_client::transport_config>::*)(std::__ndk1::function<void (std::__ndk1::error_code const&, unsigned long)>, std::__ndk1::error_code const&, unsigned long), std::__ndk1::shared_ptr<websocketpp::transport::asio::connection<websocketpp::config::asio_client::transport_config> >, std::__ndk1::function<void (std::__ndk1::error_code const&, unsigned long)>&, std::__ndk1::placeholders::__ph<1> const&, std::__ndk1::placeholders::__ph<2> const&> >, asio::detail::is_continuation_if_running>::~wrapped_handler()
PUBLIC d8208 0 websocketpp::transport::asio::custom_alloc_handler<std::__ndk1::__bind<void (websocketpp::transport::asio::connection<websocketpp::config::asio_client::transport_config>::*)(std::__ndk1::function<void (std::__ndk1::error_code const&, unsigned long)>, std::__ndk1::error_code const&, unsigned long), std::__ndk1::shared_ptr<websocketpp::transport::asio::connection<websocketpp::config::asio_client::transport_config> >, std::__ndk1::function<void (std::__ndk1::error_code const&, unsigned long)>&, std::__ndk1::placeholders::__ph<1> const&, std::__ndk1::placeholders::__ph<2> const&> >::~custom_alloc_handler()
PUBLIC d8290 0 std::__ndk1::__bind<void (websocketpp::transport::asio::connection<websocketpp::config::asio_client::transport_config>::*)(std::__ndk1::function<void (std::__ndk1::error_code const&, unsigned long)>, std::__ndk1::error_code const&, unsigned long), std::__ndk1::shared_ptr<websocketpp::transport::asio::connection<websocketpp::config::asio_client::transport_config> >, std::__ndk1::function<void (std::__ndk1::error_code const&, unsigned long)>&, std::__ndk1::placeholders::__ph<1> const&, std::__ndk1::placeholders::__ph<2> const&>::~__bind()
PUBLIC d8318 0 asio::detail::start_read_buffer_sequence_op<asio::basic_stream_socket<asio::ip::tcp>, asio::mutable_buffers_1, asio::mutable_buffer const*, asio::detail::transfer_at_least_t, asio::detail::wrapped_handler<asio::io_context::strand, websocketpp::transport::asio::custom_alloc_handler<std::__ndk1::__bind<void (websocketpp::transport::asio::connection<websocketpp::config::asio_client::transport_config>::*)(std::__ndk1::function<void (std::__ndk1::error_code const&, unsigned long)>, std::__ndk1::error_code const&, unsigned long), std::__ndk1::shared_ptr<websocketpp::transport::asio::connection<websocketpp::config::asio_client::transport_config> >, std::__ndk1::function<void (std::__ndk1::error_code const&, unsigned long)>&, std::__ndk1::placeholders::__ph<1> const&, std::__ndk1::placeholders::__ph<2> const&> >, asio::detail::is_continuation_if_running> >(asio::basic_stream_socket<asio::ip::tcp>&, asio::mutable_buffers_1 const&, asio::mutable_buffer const* const&, asio::detail::transfer_at_least_t, asio::detail::wrapped_handler<asio::io_context::strand, websocketpp::transport::asio::custom_alloc_handler<std::__ndk1::__bind<void (websocketpp::transport::asio::connection<websocketpp::config::asio_client::transport_config>::*)(std::__ndk1::function<void (std::__ndk1::error_code const&, unsigned long)>, std::__ndk1::error_code const&, unsigned long), std::__ndk1::shared_ptr<websocketpp::transport::asio::connection<websocketpp::config::asio_client::transport_config> >, std::__ndk1::function<void (std::__ndk1::error_code const&, unsigned long)>&, std::__ndk1::placeholders::__ph<1> const&, std::__ndk1::placeholders::__ph<2> const&> >, asio::detail::is_continuation_if_running>&)
PUBLIC d84b4 0 asio::detail::read_op<asio::basic_stream_socket<asio::ip::tcp>, asio::mutable_buffers_1, asio::mutable_buffer const*, asio::detail::transfer_at_least_t, asio::detail::wrapped_handler<asio::io_context::strand, websocketpp::transport::asio::custom_alloc_handler<std::__ndk1::__bind<void (websocketpp::transport::asio::connection<websocketpp::config::asio_client::transport_config>::*)(std::__ndk1::function<void (std::__ndk1::error_code const&, unsigned long)>, std::__ndk1::error_code const&, unsigned long), std::__ndk1::shared_ptr<websocketpp::transport::asio::connection<websocketpp::config::asio_client::transport_config> >, std::__ndk1::function<void (std::__ndk1::error_code const&, unsigned long)>&, std::__ndk1::placeholders::__ph<1> const&, std::__ndk1::placeholders::__ph<2> const&> >, asio::detail::is_continuation_if_running> >::~read_op()
PUBLIC d853c 0 asio::detail::wrapped_handler<asio::io_context::strand, websocketpp::transport::asio::custom_alloc_handler<std::__ndk1::__bind<void (websocketpp::transport::asio::connection<websocketpp::config::asio_client::transport_config>::*)(std::__ndk1::function<void (std::__ndk1::error_code const&, unsigned long)>, std::__ndk1::error_code const&, unsigned long), std::__ndk1::shared_ptr<websocketpp::transport::asio::connection<websocketpp::config::asio_client::transport_config> >, std::__ndk1::function<void (std::__ndk1::error_code const&, unsigned long)>&, std::__ndk1::placeholders::__ph<1> const&, std::__ndk1::placeholders::__ph<2> const&> >, asio::detail::is_continuation_if_running>::operator()<std::__ndk1::error_code, unsigned long>(std::__ndk1::error_code const&, unsigned long const&)
PUBLIC d86e4 0 asio::detail::reactive_socket_service_base::async_receive<asio::mutable_buffers_1, asio::detail::read_op<asio::basic_stream_socket<asio::ip::tcp>, asio::mutable_buffers_1, asio::mutable_buffer const*, asio::detail::transfer_at_least_t, asio::detail::wrapped_handler<asio::io_context::strand, websocketpp::transport::asio::custom_alloc_handler<std::__ndk1::__bind<void (websocketpp::transport::asio::connection<websocketpp::config::asio_client::transport_config>::*)(std::__ndk1::function<void (std::__ndk1::error_code const&, unsigned long)>, std::__ndk1::error_code const&, unsigned long), std::__ndk1::shared_ptr<websocketpp::transport::asio::connection<websocketpp::config::asio_client::transport_config> >, std::__ndk1::function<void (std::__ndk1::error_code const&, unsigned long)>&, std::__ndk1::placeholders::__ph<1> const&, std::__ndk1::placeholders::__ph<2> const&> >, asio::detail::is_continuation_if_running> > >(asio::detail::reactive_socket_service_base::base_implementation_type&, asio::mutable_buffers_1 const&, int, asio::detail::read_op<asio::basic_stream_socket<asio::ip::tcp>, asio::mutable_buffers_1, asio::mutable_buffer const*, asio::detail::transfer_at_least_t, asio::detail::wrapped_handler<asio::io_context::strand, websocketpp::transport::asio::custom_alloc_handler<std::__ndk1::__bind<void (websocketpp::transport::asio::connection<websocketpp::config::asio_client::transport_config>::*)(std::__ndk1::function<void (std::__ndk1::error_code const&, unsigned long)>, std::__ndk1::error_code const&, unsigned long), std::__ndk1::shared_ptr<websocketpp::transport::asio::connection<websocketpp::config::asio_client::transport_config> >, std::__ndk1::function<void (std::__ndk1::error_code const&, unsigned long)>&, std::__ndk1::placeholders::__ph<1> const&, std::__ndk1::placeholders::__ph<2> const&> >, asio::detail::is_continuation_if_running> >&)
PUBLIC d8980 0 asio::detail::reactive_socket_recv_op<asio::mutable_buffers_1, asio::detail::read_op<asio::basic_stream_socket<asio::ip::tcp>, asio::mutable_buffers_1, asio::mutable_buffer const*, asio::detail::transfer_at_least_t, asio::detail::wrapped_handler<asio::io_context::strand, websocketpp::transport::asio::custom_alloc_handler<std::__ndk1::__bind<void (websocketpp::transport::asio::connection<websocketpp::config::asio_client::transport_config>::*)(std::__ndk1::function<void (std::__ndk1::error_code const&, unsigned long)>, std::__ndk1::error_code const&, unsigned long), std::__ndk1::shared_ptr<websocketpp::transport::asio::connection<websocketpp::config::asio_client::transport_config> >, std::__ndk1::function<void (std::__ndk1::error_code const&, unsigned long)>&, std::__ndk1::placeholders::__ph<1> const&, std::__ndk1::placeholders::__ph<2> const&> >, asio::detail::is_continuation_if_running> > >::ptr::~ptr()
PUBLIC d8a3c 0 asio::detail::reactive_socket_recv_op<asio::mutable_buffers_1, asio::detail::read_op<asio::basic_stream_socket<asio::ip::tcp>, asio::mutable_buffers_1, asio::mutable_buffer const*, asio::detail::transfer_at_least_t, asio::detail::wrapped_handler<asio::io_context::strand, websocketpp::transport::asio::custom_alloc_handler<std::__ndk1::__bind<void (websocketpp::transport::asio::connection<websocketpp::config::asio_client::transport_config>::*)(std::__ndk1::function<void (std::__ndk1::error_code const&, unsigned long)>, std::__ndk1::error_code const&, unsigned long), std::__ndk1::shared_ptr<websocketpp::transport::asio::connection<websocketpp::config::asio_client::transport_config> >, std::__ndk1::function<void (std::__ndk1::error_code const&, unsigned long)>&, std::__ndk1::placeholders::__ph<1> const&, std::__ndk1::placeholders::__ph<2> const&> >, asio::detail::is_continuation_if_running> > >::do_complete(void*, asio::detail::scheduler_operation*, std::__ndk1::error_code const&, unsigned long)
PUBLIC d8d24 0 asio::detail::binder2<asio::detail::read_op<asio::basic_stream_socket<asio::ip::tcp>, asio::mutable_buffers_1, asio::mutable_buffer const*, asio::detail::transfer_at_least_t, asio::detail::wrapped_handler<asio::io_context::strand, websocketpp::transport::asio::custom_alloc_handler<std::__ndk1::__bind<void (websocketpp::transport::asio::connection<websocketpp::config::asio_client::transport_config>::*)(std::__ndk1::function<void (std::__ndk1::error_code const&, unsigned long)>, std::__ndk1::error_code const&, unsigned long), std::__ndk1::shared_ptr<websocketpp::transport::asio::connection<websocketpp::config::asio_client::transport_config> >, std::__ndk1::function<void (std::__ndk1::error_code const&, unsigned long)>&, std::__ndk1::placeholders::__ph<1> const&, std::__ndk1::placeholders::__ph<2> const&> >, asio::detail::is_continuation_if_running> >, std::__ndk1::error_code, unsigned long>::~binder2()
PUBLIC d8dac 0 asio::detail::asio_handler_invoke<asio::detail::binder2<asio::detail::read_op<asio::basic_stream_socket<asio::ip::tcp>, asio::mutable_buffers_1, asio::mutable_buffer const*, asio::detail::transfer_at_least_t, asio::detail::wrapped_handler<asio::io_context::strand, websocketpp::transport::asio::custom_alloc_handler<std::__ndk1::__bind<void (websocketpp::transport::asio::connection<websocketpp::config::asio_client::transport_config>::*)(std::__ndk1::function<void (std::__ndk1::error_code const&, unsigned long)>, std::__ndk1::error_code const&, unsigned long), std::__ndk1::shared_ptr<websocketpp::transport::asio::connection<websocketpp::config::asio_client::transport_config> >, std::__ndk1::function<void (std::__ndk1::error_code const&, unsigned long)>&, std::__ndk1::placeholders::__ph<1> const&, std::__ndk1::placeholders::__ph<2> const&> >, asio::detail::is_continuation_if_running> >, std::__ndk1::error_code, unsigned long>, asio::io_context::strand, websocketpp::transport::asio::custom_alloc_handler<std::__ndk1::__bind<void (websocketpp::transport::asio::connection<websocketpp::config::asio_client::transport_config>::*)(std::__ndk1::function<void (std::__ndk1::error_code const&, unsigned long)>, std::__ndk1::error_code const&, unsigned long), std::__ndk1::shared_ptr<websocketpp::transport::asio::connection<websocketpp::config::asio_client::transport_config> >, std::__ndk1::function<void (std::__ndk1::error_code const&, unsigned long)>&, std::__ndk1::placeholders::__ph<1> const&, std::__ndk1::placeholders::__ph<2> const&> >, asio::detail::is_continuation_if_running>(asio::detail::binder2<asio::detail::read_op<asio::basic_stream_socket<asio::ip::tcp>, asio::mutable_buffers_1, asio::mutable_buffer const*, asio::detail::transfer_at_least_t, asio::detail::wrapped_handler<asio::io_context::strand, websocketpp::transport::asio::custom_alloc_handler<std::__ndk1::__bind<void (websocketpp::transport::asio::connection<websocketpp::config::asio_client::transport_config>::*)(std::__ndk1::function<void (std::__ndk1::error_code const&, unsigned long)>, std::__ndk1::error_code const&, unsigned long), std::__ndk1::shared_ptr<websocketpp::transport::asio::connection<websocketpp::config::asio_client::transport_config> >, std::__ndk1::function<void (std::__ndk1::error_code const&, unsigned long)>&, std::__ndk1::placeholders::__ph<1> const&, std::__ndk1::placeholders::__ph<2> const&> >, asio::detail::is_continuation_if_running> >, std::__ndk1::error_code, unsigned long>&, asio::detail::wrapped_handler<asio::io_context::strand, websocketpp::transport::asio::custom_alloc_handler<std::__ndk1::__bind<void (websocketpp::transport::asio::connection<websocketpp::config::asio_client::transport_config>::*)(std::__ndk1::function<void (std::__ndk1::error_code const&, unsigned long)>, std::__ndk1::error_code const&, unsigned long), std::__ndk1::shared_ptr<websocketpp::transport::asio::connection<websocketpp::config::asio_client::transport_config> >, std::__ndk1::function<void (std::__ndk1::error_code const&, unsigned long)>&, std::__ndk1::placeholders::__ph<1> const&, std::__ndk1::placeholders::__ph<2> const&> >, asio::detail::is_continuation_if_running>*)
PUBLIC d8f20 0 asio::detail::rewrapped_handler<asio::detail::binder2<asio::detail::read_op<asio::basic_stream_socket<asio::ip::tcp>, asio::mutable_buffers_1, asio::mutable_buffer const*, asio::detail::transfer_at_least_t, asio::detail::wrapped_handler<asio::io_context::strand, websocketpp::transport::asio::custom_alloc_handler<std::__ndk1::__bind<void (websocketpp::transport::asio::connection<websocketpp::config::asio_client::transport_config>::*)(std::__ndk1::function<void (std::__ndk1::error_code const&, unsigned long)>, std::__ndk1::error_code const&, unsigned long), std::__ndk1::shared_ptr<websocketpp::transport::asio::connection<websocketpp::config::asio_client::transport_config> >, std::__ndk1::function<void (std::__ndk1::error_code const&, unsigned long)>&, std::__ndk1::placeholders::__ph<1> const&, std::__ndk1::placeholders::__ph<2> const&> >, asio::detail::is_continuation_if_running> >, std::__ndk1::error_code, unsigned long>, websocketpp::transport::asio::custom_alloc_handler<std::__ndk1::__bind<void (websocketpp::transport::asio::connection<websocketpp::config::asio_client::transport_config>::*)(std::__ndk1::function<void (std::__ndk1::error_code const&, unsigned long)>, std::__ndk1::error_code const&, unsigned long), std::__ndk1::shared_ptr<websocketpp::transport::asio::connection<websocketpp::config::asio_client::transport_config> >, std::__ndk1::function<void (std::__ndk1::error_code const&, unsigned long)>&, std::__ndk1::placeholders::__ph<1> const&, std::__ndk1::placeholders::__ph<2> const&> > >::rewrapped_handler(asio::detail::binder2<asio::detail::read_op<asio::basic_stream_socket<asio::ip::tcp>, asio::mutable_buffers_1, asio::mutable_buffer const*, asio::detail::transfer_at_least_t, asio::detail::wrapped_handler<asio::io_context::strand, websocketpp::transport::asio::custom_alloc_handler<std::__ndk1::__bind<void (websocketpp::transport::asio::connection<websocketpp::config::asio_client::transport_config>::*)(std::__ndk1::function<void (std::__ndk1::error_code const&, unsigned long)>, std::__ndk1::error_code const&, unsigned long), std::__ndk1::shared_ptr<websocketpp::transport::asio::connection<websocketpp::config::asio_client::transport_config> >, std::__ndk1::function<void (std::__ndk1::error_code const&, unsigned long)>&, std::__ndk1::placeholders::__ph<1> const&, std::__ndk1::placeholders::__ph<2> const&> >, asio::detail::is_continuation_if_running> >, std::__ndk1::error_code, unsigned long>&, websocketpp::transport::asio::custom_alloc_handler<std::__ndk1::__bind<void (websocketpp::transport::asio::connection<websocketpp::config::asio_client::transport_config>::*)(std::__ndk1::function<void (std::__ndk1::error_code const&, unsigned long)>, std::__ndk1::error_code const&, unsigned long), std::__ndk1::shared_ptr<websocketpp::transport::asio::connection<websocketpp::config::asio_client::transport_config> >, std::__ndk1::function<void (std::__ndk1::error_code const&, unsigned long)>&, std::__ndk1::placeholders::__ph<1> const&, std::__ndk1::placeholders::__ph<2> const&> > const&)
PUBLIC d9090 0 asio::detail::rewrapped_handler<asio::detail::binder2<asio::detail::read_op<asio::basic_stream_socket<asio::ip::tcp>, asio::mutable_buffers_1, asio::mutable_buffer const*, asio::detail::transfer_at_least_t, asio::detail::wrapped_handler<asio::io_context::strand, websocketpp::transport::asio::custom_alloc_handler<std::__ndk1::__bind<void (websocketpp::transport::asio::connection<websocketpp::config::asio_client::transport_config>::*)(std::__ndk1::function<void (std::__ndk1::error_code const&, unsigned long)>, std::__ndk1::error_code const&, unsigned long), std::__ndk1::shared_ptr<websocketpp::transport::asio::connection<websocketpp::config::asio_client::transport_config> >, std::__ndk1::function<void (std::__ndk1::error_code const&, unsigned long)>&, std::__ndk1::placeholders::__ph<1> const&, std::__ndk1::placeholders::__ph<2> const&> >, asio::detail::is_continuation_if_running> >, std::__ndk1::error_code, unsigned long>, websocketpp::transport::asio::custom_alloc_handler<std::__ndk1::__bind<void (websocketpp::transport::asio::connection<websocketpp::config::asio_client::transport_config>::*)(std::__ndk1::function<void (std::__ndk1::error_code const&, unsigned long)>, std::__ndk1::error_code const&, unsigned long), std::__ndk1::shared_ptr<websocketpp::transport::asio::connection<websocketpp::config::asio_client::transport_config> >, std::__ndk1::function<void (std::__ndk1::error_code const&, unsigned long)>&, std::__ndk1::placeholders::__ph<1> const&, std::__ndk1::placeholders::__ph<2> const&> > >::~rewrapped_handler()
PUBLIC d918c 0 asio::detail::strand_service::dispatch<asio::detail::rewrapped_handler<asio::detail::binder2<asio::detail::read_op<asio::basic_stream_socket<asio::ip::tcp>, asio::mutable_buffers_1, asio::mutable_buffer const*, asio::detail::transfer_at_least_t, asio::detail::wrapped_handler<asio::io_context::strand, websocketpp::transport::asio::custom_alloc_handler<std::__ndk1::__bind<void (websocketpp::transport::asio::connection<websocketpp::config::asio_client::transport_config>::*)(std::__ndk1::function<void (std::__ndk1::error_code const&, unsigned long)>, std::__ndk1::error_code const&, unsigned long), std::__ndk1::shared_ptr<websocketpp::transport::asio::connection<websocketpp::config::asio_client::transport_config> >, std::__ndk1::function<void (std::__ndk1::error_code const&, unsigned long)>&, std::__ndk1::placeholders::__ph<1> const&, std::__ndk1::placeholders::__ph<2> const&> >, asio::detail::is_continuation_if_running> >, std::__ndk1::error_code, unsigned long>, websocketpp::transport::asio::custom_alloc_handler<std::__ndk1::__bind<void (websocketpp::transport::asio::connection<websocketpp::config::asio_client::transport_config>::*)(std::__ndk1::function<void (std::__ndk1::error_code const&, unsigned long)>, std::__ndk1::error_code const&, unsigned long), std::__ndk1::shared_ptr<websocketpp::transport::asio::connection<websocketpp::config::asio_client::transport_config> >, std::__ndk1::function<void (std::__ndk1::error_code const&, unsigned long)>&, std::__ndk1::placeholders::__ph<1> const&, std::__ndk1::placeholders::__ph<2> const&> > > >(asio::detail::strand_service::strand_impl*&, asio::detail::rewrapped_handler<asio::detail::binder2<asio::detail::read_op<asio::basic_stream_socket<asio::ip::tcp>, asio::mutable_buffers_1, asio::mutable_buffer const*, asio::detail::transfer_at_least_t, asio::detail::wrapped_handler<asio::io_context::strand, websocketpp::transport::asio::custom_alloc_handler<std::__ndk1::__bind<void (websocketpp::transport::asio::connection<websocketpp::config::asio_client::transport_config>::*)(std::__ndk1::function<void (std::__ndk1::error_code const&, unsigned long)>, std::__ndk1::error_code const&, unsigned long), std::__ndk1::shared_ptr<websocketpp::transport::asio::connection<websocketpp::config::asio_client::transport_config> >, std::__ndk1::function<void (std::__ndk1::error_code const&, unsigned long)>&, std::__ndk1::placeholders::__ph<1> const&, std::__ndk1::placeholders::__ph<2> const&> >, asio::detail::is_continuation_if_running> >, std::__ndk1::error_code, unsigned long>, websocketpp::transport::asio::custom_alloc_handler<std::__ndk1::__bind<void (websocketpp::transport::asio::connection<websocketpp::config::asio_client::transport_config>::*)(std::__ndk1::function<void (std::__ndk1::error_code const&, unsigned long)>, std::__ndk1::error_code const&, unsigned long), std::__ndk1::shared_ptr<websocketpp::transport::asio::connection<websocketpp::config::asio_client::transport_config> >, std::__ndk1::function<void (std::__ndk1::error_code const&, unsigned long)>&, std::__ndk1::placeholders::__ph<1> const&, std::__ndk1::placeholders::__ph<2> const&> > >&)
PUBLIC d9464 0 asio::detail::completion_handler<asio::detail::rewrapped_handler<asio::detail::binder2<asio::detail::read_op<asio::basic_stream_socket<asio::ip::tcp>, asio::mutable_buffers_1, asio::mutable_buffer const*, asio::detail::transfer_at_least_t, asio::detail::wrapped_handler<asio::io_context::strand, websocketpp::transport::asio::custom_alloc_handler<std::__ndk1::__bind<void (websocketpp::transport::asio::connection<websocketpp::config::asio_client::transport_config>::*)(std::__ndk1::function<void (std::__ndk1::error_code const&, unsigned long)>, std::__ndk1::error_code const&, unsigned long), std::__ndk1::shared_ptr<websocketpp::transport::asio::connection<websocketpp::config::asio_client::transport_config> >, std::__ndk1::function<void (std::__ndk1::error_code const&, unsigned long)>&, std::__ndk1::placeholders::__ph<1> const&, std::__ndk1::placeholders::__ph<2> const&> >, asio::detail::is_continuation_if_running> >, std::__ndk1::error_code, unsigned long>, websocketpp::transport::asio::custom_alloc_handler<std::__ndk1::__bind<void (websocketpp::transport::asio::connection<websocketpp::config::asio_client::transport_config>::*)(std::__ndk1::function<void (std::__ndk1::error_code const&, unsigned long)>, std::__ndk1::error_code const&, unsigned long), std::__ndk1::shared_ptr<websocketpp::transport::asio::connection<websocketpp::config::asio_client::transport_config> >, std::__ndk1::function<void (std::__ndk1::error_code const&, unsigned long)>&, std::__ndk1::placeholders::__ph<1> const&, std::__ndk1::placeholders::__ph<2> const&> > > >::do_complete(void*, asio::detail::scheduler_operation*, std::__ndk1::error_code const&, unsigned long)
PUBLIC d96ac 0 asio::detail::rewrapped_handler<asio::detail::binder2<asio::detail::read_op<asio::basic_stream_socket<asio::ip::tcp>, asio::mutable_buffers_1, asio::mutable_buffer const*, asio::detail::transfer_at_least_t, asio::detail::wrapped_handler<asio::io_context::strand, websocketpp::transport::asio::custom_alloc_handler<std::__ndk1::__bind<void (websocketpp::transport::asio::connection<websocketpp::config::asio_client::transport_config>::*)(std::__ndk1::function<void (std::__ndk1::error_code const&, unsigned long)>, std::__ndk1::error_code const&, unsigned long), std::__ndk1::shared_ptr<websocketpp::transport::asio::connection<websocketpp::config::asio_client::transport_config> >, std::__ndk1::function<void (std::__ndk1::error_code const&, unsigned long)>&, std::__ndk1::placeholders::__ph<1> const&, std::__ndk1::placeholders::__ph<2> const&> >, asio::detail::is_continuation_if_running> >, std::__ndk1::error_code, unsigned long>, websocketpp::transport::asio::custom_alloc_handler<std::__ndk1::__bind<void (websocketpp::transport::asio::connection<websocketpp::config::asio_client::transport_config>::*)(std::__ndk1::function<void (std::__ndk1::error_code const&, unsigned long)>, std::__ndk1::error_code const&, unsigned long), std::__ndk1::shared_ptr<websocketpp::transport::asio::connection<websocketpp::config::asio_client::transport_config> >, std::__ndk1::function<void (std::__ndk1::error_code const&, unsigned long)>&, std::__ndk1::placeholders::__ph<1> const&, std::__ndk1::placeholders::__ph<2> const&> > >::rewrapped_handler(asio::detail::rewrapped_handler<asio::detail::binder2<asio::detail::read_op<asio::basic_stream_socket<asio::ip::tcp>, asio::mutable_buffers_1, asio::mutable_buffer const*, asio::detail::transfer_at_least_t, asio::detail::wrapped_handler<asio::io_context::strand, websocketpp::transport::asio::custom_alloc_handler<std::__ndk1::__bind<void (websocketpp::transport::asio::connection<websocketpp::config::asio_client::transport_config>::*)(std::__ndk1::function<void (std::__ndk1::error_code const&, unsigned long)>, std::__ndk1::error_code const&, unsigned long), std::__ndk1::shared_ptr<websocketpp::transport::asio::connection<websocketpp::config::asio_client::transport_config> >, std::__ndk1::function<void (std::__ndk1::error_code const&, unsigned long)>&, std::__ndk1::placeholders::__ph<1> const&, std::__ndk1::placeholders::__ph<2> const&> >, asio::detail::is_continuation_if_running> >, std::__ndk1::error_code, unsigned long>, websocketpp::transport::asio::custom_alloc_handler<std::__ndk1::__bind<void (websocketpp::transport::asio::connection<websocketpp::config::asio_client::transport_config>::*)(std::__ndk1::function<void (std::__ndk1::error_code const&, unsigned long)>, std::__ndk1::error_code const&, unsigned long), std::__ndk1::shared_ptr<websocketpp::transport::asio::connection<websocketpp::config::asio_client::transport_config> >, std::__ndk1::function<void (std::__ndk1::error_code const&, unsigned long)>&, std::__ndk1::placeholders::__ph<1> const&, std::__ndk1::placeholders::__ph<2> const&> > >&&)
PUBLIC d97d4 0 asio::detail::completion_handler<asio::detail::rewrapped_handler<asio::detail::binder2<asio::detail::read_op<asio::basic_stream_socket<asio::ip::tcp>, asio::mutable_buffers_1, asio::mutable_buffer const*, asio::detail::transfer_at_least_t, asio::detail::wrapped_handler<asio::io_context::strand, websocketpp::transport::asio::custom_alloc_handler<std::__ndk1::__bind<void (websocketpp::transport::asio::connection<websocketpp::config::asio_client::transport_config>::*)(std::__ndk1::function<void (std::__ndk1::error_code const&, unsigned long)>, std::__ndk1::error_code const&, unsigned long), std::__ndk1::shared_ptr<websocketpp::transport::asio::connection<websocketpp::config::asio_client::transport_config> >, std::__ndk1::function<void (std::__ndk1::error_code const&, unsigned long)>&, std::__ndk1::placeholders::__ph<1> const&, std::__ndk1::placeholders::__ph<2> const&> >, asio::detail::is_continuation_if_running> >, std::__ndk1::error_code, unsigned long>, websocketpp::transport::asio::custom_alloc_handler<std::__ndk1::__bind<void (websocketpp::transport::asio::connection<websocketpp::config::asio_client::transport_config>::*)(std::__ndk1::function<void (std::__ndk1::error_code const&, unsigned long)>, std::__ndk1::error_code const&, unsigned long), std::__ndk1::shared_ptr<websocketpp::transport::asio::connection<websocketpp::config::asio_client::transport_config> >, std::__ndk1::function<void (std::__ndk1::error_code const&, unsigned long)>&, std::__ndk1::placeholders::__ph<1> const&, std::__ndk1::placeholders::__ph<2> const&> > > >::ptr::reset()
PUBLIC m d9904 0 asio::detail::reactive_socket_recv_op_base<asio::mutable_buffers_1>::do_perform(asio::detail::reactor_op*)
PUBLIC m d99d8 0 asio::detail::socket_ops::non_blocking_recv(int, iovec*, unsigned long, int, bool, std::__ndk1::error_code&, unsigned long&)
PUBLIC d9cbc 0 asio::detail::binder2<websocketpp::transport::asio::custom_alloc_handler<std::__ndk1::__bind<void (websocketpp::transport::asio::connection<websocketpp::config::asio_client::transport_config>::*)(std::__ndk1::function<void (std::__ndk1::error_code const&, unsigned long)>, std::__ndk1::error_code const&, unsigned long), std::__ndk1::shared_ptr<websocketpp::transport::asio::connection<websocketpp::config::asio_client::transport_config> >, std::__ndk1::function<void (std::__ndk1::error_code const&, unsigned long)>&, std::__ndk1::placeholders::__ph<1> const&, std::__ndk1::placeholders::__ph<2> const&> >, std::__ndk1::error_code, unsigned long>::~binder2()
PUBLIC d9d44 0 asio::detail::strand_service::dispatch<asio::detail::binder2<websocketpp::transport::asio::custom_alloc_handler<std::__ndk1::__bind<void (websocketpp::transport::asio::connection<websocketpp::config::asio_client::transport_config>::*)(std::__ndk1::function<void (std::__ndk1::error_code const&, unsigned long)>, std::__ndk1::error_code const&, unsigned long), std::__ndk1::shared_ptr<websocketpp::transport::asio::connection<websocketpp::config::asio_client::transport_config> >, std::__ndk1::function<void (std::__ndk1::error_code const&, unsigned long)>&, std::__ndk1::placeholders::__ph<1> const&, std::__ndk1::placeholders::__ph<2> const&> >, std::__ndk1::error_code, unsigned long> >(asio::detail::strand_service::strand_impl*&, asio::detail::binder2<websocketpp::transport::asio::custom_alloc_handler<std::__ndk1::__bind<void (websocketpp::transport::asio::connection<websocketpp::config::asio_client::transport_config>::*)(std::__ndk1::function<void (std::__ndk1::error_code const&, unsigned long)>, std::__ndk1::error_code const&, unsigned long), std::__ndk1::shared_ptr<websocketpp::transport::asio::connection<websocketpp::config::asio_client::transport_config> >, std::__ndk1::function<void (std::__ndk1::error_code const&, unsigned long)>&, std::__ndk1::placeholders::__ph<1> const&, std::__ndk1::placeholders::__ph<2> const&> >, std::__ndk1::error_code, unsigned long>&)
PUBLIC da08c 0 asio::detail::completion_handler<asio::detail::binder2<websocketpp::transport::asio::custom_alloc_handler<std::__ndk1::__bind<void (websocketpp::transport::asio::connection<websocketpp::config::asio_client::transport_config>::*)(std::__ndk1::function<void (std::__ndk1::error_code const&, unsigned long)>, std::__ndk1::error_code const&, unsigned long), std::__ndk1::shared_ptr<websocketpp::transport::asio::connection<websocketpp::config::asio_client::transport_config> >, std::__ndk1::function<void (std::__ndk1::error_code const&, unsigned long)>&, std::__ndk1::placeholders::__ph<1> const&, std::__ndk1::placeholders::__ph<2> const&> >, std::__ndk1::error_code, unsigned long> >::do_complete(void*, asio::detail::scheduler_operation*, std::__ndk1::error_code const&, unsigned long)
PUBLIC da328 0 asio::detail::completion_handler<asio::detail::binder2<websocketpp::transport::asio::custom_alloc_handler<std::__ndk1::__bind<void (websocketpp::transport::asio::connection<websocketpp::config::asio_client::transport_config>::*)(std::__ndk1::function<void (std::__ndk1::error_code const&, unsigned long)>, std::__ndk1::error_code const&, unsigned long), std::__ndk1::shared_ptr<websocketpp::transport::asio::connection<websocketpp::config::asio_client::transport_config> >, std::__ndk1::function<void (std::__ndk1::error_code const&, unsigned long)>&, std::__ndk1::placeholders::__ph<1> const&, std::__ndk1::placeholders::__ph<2> const&> >, std::__ndk1::error_code, unsigned long> >::ptr::~ptr()
PUBLIC da3e4 0 asio::detail::binder2<websocketpp::transport::asio::custom_alloc_handler<std::__ndk1::__bind<void (websocketpp::transport::asio::connection<websocketpp::config::asio_client::transport_config>::*)(std::__ndk1::function<void (std::__ndk1::error_code const&, unsigned long)>, std::__ndk1::error_code const&, unsigned long), std::__ndk1::shared_ptr<websocketpp::transport::asio::connection<websocketpp::config::asio_client::transport_config> >, std::__ndk1::function<void (std::__ndk1::error_code const&, unsigned long)>&, std::__ndk1::placeholders::__ph<1> const&, std::__ndk1::placeholders::__ph<2> const&> >, std::__ndk1::error_code, unsigned long>::operator()()
PUBLIC da534 0 std::__ndk1::__function::__base<void (std::__ndk1::error_code const&, unsigned long)>::~__base()
PUBLIC da538 0 std::__ndk1::__function::__func<std::__ndk1::__bind<void (websocketpp::connection<websocketpp::config::asio_client>::*)(std::__ndk1::error_code const&, unsigned long), websocketpp::connection<websocketpp::config::asio_client>*, std::__ndk1::placeholders::__ph<1> const&, std::__ndk1::placeholders::__ph<2> const&>, std::__ndk1::allocator<std::__ndk1::__bind<void (websocketpp::connection<websocketpp::config::asio_client>::*)(std::__ndk1::error_code const&, unsigned long), websocketpp::connection<websocketpp::config::asio_client>*, std::__ndk1::placeholders::__ph<1> const&, std::__ndk1::placeholders::__ph<2> const&> >, void (std::__ndk1::error_code const&, unsigned long)>::~__func()
PUBLIC da53c 0 std::__ndk1::__function::__func<std::__ndk1::__bind<void (websocketpp::connection<websocketpp::config::asio_client>::*)(std::__ndk1::error_code const&, unsigned long), websocketpp::connection<websocketpp::config::asio_client>*, std::__ndk1::placeholders::__ph<1> const&, std::__ndk1::placeholders::__ph<2> const&>, std::__ndk1::allocator<std::__ndk1::__bind<void (websocketpp::connection<websocketpp::config::asio_client>::*)(std::__ndk1::error_code const&, unsigned long), websocketpp::connection<websocketpp::config::asio_client>*, std::__ndk1::placeholders::__ph<1> const&, std::__ndk1::placeholders::__ph<2> const&> >, void (std::__ndk1::error_code const&, unsigned long)>::__clone() const
PUBLIC da57c 0 std::__ndk1::__function::__func<std::__ndk1::__bind<void (websocketpp::connection<websocketpp::config::asio_client>::*)(std::__ndk1::error_code const&, unsigned long), websocketpp::connection<websocketpp::config::asio_client>*, std::__ndk1::placeholders::__ph<1> const&, std::__ndk1::placeholders::__ph<2> const&>, std::__ndk1::allocator<std::__ndk1::__bind<void (websocketpp::connection<websocketpp::config::asio_client>::*)(std::__ndk1::error_code const&, unsigned long), websocketpp::connection<websocketpp::config::asio_client>*, std::__ndk1::placeholders::__ph<1> const&, std::__ndk1::placeholders::__ph<2> const&> >, void (std::__ndk1::error_code const&, unsigned long)>::__clone(std::__ndk1::__function::__base<void (std::__ndk1::error_code const&, unsigned long)>*) const
PUBLIC da59c 0 std::__ndk1::__function::__func<std::__ndk1::__bind<void (websocketpp::connection<websocketpp::config::asio_client>::*)(std::__ndk1::error_code const&, unsigned long), websocketpp::connection<websocketpp::config::asio_client>*, std::__ndk1::placeholders::__ph<1> const&, std::__ndk1::placeholders::__ph<2> const&>, std::__ndk1::allocator<std::__ndk1::__bind<void (websocketpp::connection<websocketpp::config::asio_client>::*)(std::__ndk1::error_code const&, unsigned long), websocketpp::connection<websocketpp::config::asio_client>*, std::__ndk1::placeholders::__ph<1> const&, std::__ndk1::placeholders::__ph<2> const&> >, void (std::__ndk1::error_code const&, unsigned long)>::destroy()
PUBLIC da5a0 0 std::__ndk1::__function::__func<std::__ndk1::__bind<void (websocketpp::connection<websocketpp::config::asio_client>::*)(std::__ndk1::error_code const&, unsigned long), websocketpp::connection<websocketpp::config::asio_client>*, std::__ndk1::placeholders::__ph<1> const&, std::__ndk1::placeholders::__ph<2> const&>, std::__ndk1::allocator<std::__ndk1::__bind<void (websocketpp::connection<websocketpp::config::asio_client>::*)(std::__ndk1::error_code const&, unsigned long), websocketpp::connection<websocketpp::config::asio_client>*, std::__ndk1::placeholders::__ph<1> const&, std::__ndk1::placeholders::__ph<2> const&> >, void (std::__ndk1::error_code const&, unsigned long)>::destroy_deallocate()
PUBLIC da5a4 0 std::__ndk1::__function::__func<std::__ndk1::__bind<void (websocketpp::connection<websocketpp::config::asio_client>::*)(std::__ndk1::error_code const&, unsigned long), websocketpp::connection<websocketpp::config::asio_client>*, std::__ndk1::placeholders::__ph<1> const&, std::__ndk1::placeholders::__ph<2> const&>, std::__ndk1::allocator<std::__ndk1::__bind<void (websocketpp::connection<websocketpp::config::asio_client>::*)(std::__ndk1::error_code const&, unsigned long), websocketpp::connection<websocketpp::config::asio_client>*, std::__ndk1::placeholders::__ph<1> const&, std::__ndk1::placeholders::__ph<2> const&> >, void (std::__ndk1::error_code const&, unsigned long)>::operator()(std::__ndk1::error_code const&, unsigned long&&)
PUBLIC da5c4 0 std::__ndk1::__function::__func<std::__ndk1::__bind<void (websocketpp::connection<websocketpp::config::asio_client>::*)(std::__ndk1::error_code const&, unsigned long), websocketpp::connection<websocketpp::config::asio_client>*, std::__ndk1::placeholders::__ph<1> const&, std::__ndk1::placeholders::__ph<2> const&>, std::__ndk1::allocator<std::__ndk1::__bind<void (websocketpp::connection<websocketpp::config::asio_client>::*)(std::__ndk1::error_code const&, unsigned long), websocketpp::connection<websocketpp::config::asio_client>*, std::__ndk1::placeholders::__ph<1> const&, std::__ndk1::placeholders::__ph<2> const&> >, void (std::__ndk1::error_code const&, unsigned long)>::target(std::type_info const&) const
PUBLIC da5e0 0 std::__ndk1::__function::__func<std::__ndk1::__bind<void (websocketpp::connection<websocketpp::config::asio_client>::*)(std::__ndk1::error_code const&, unsigned long), websocketpp::connection<websocketpp::config::asio_client>*, std::__ndk1::placeholders::__ph<1> const&, std::__ndk1::placeholders::__ph<2> const&>, std::__ndk1::allocator<std::__ndk1::__bind<void (websocketpp::connection<websocketpp::config::asio_client>::*)(std::__ndk1::error_code const&, unsigned long), websocketpp::connection<websocketpp::config::asio_client>*, std::__ndk1::placeholders::__ph<1> const&, std::__ndk1::placeholders::__ph<2> const&> >, void (std::__ndk1::error_code const&, unsigned long)>::target_type() const
PUBLIC da5ec 0 std::__ndk1::__function::__base<void (std::__ndk1::error_code const&)>::~__base()
PUBLIC da5f0 0 std::__ndk1::__function::__func<std::__ndk1::__bind<void (websocketpp::connection<websocketpp::config::asio_client>::*)(std::__ndk1::error_code const&), websocketpp::connection<websocketpp::config::asio_client>*, std::__ndk1::placeholders::__ph<1> const&>, std::__ndk1::allocator<std::__ndk1::__bind<void (websocketpp::connection<websocketpp::config::asio_client>::*)(std::__ndk1::error_code const&), websocketpp::connection<websocketpp::config::asio_client>*, std::__ndk1::placeholders::__ph<1> const&> >, void (std::__ndk1::error_code const&)>::~__func()
PUBLIC da5f4 0 std::__ndk1::__function::__func<std::__ndk1::__bind<void (websocketpp::connection<websocketpp::config::asio_client>::*)(std::__ndk1::error_code const&), websocketpp::connection<websocketpp::config::asio_client>*, std::__ndk1::placeholders::__ph<1> const&>, std::__ndk1::allocator<std::__ndk1::__bind<void (websocketpp::connection<websocketpp::config::asio_client>::*)(std::__ndk1::error_code const&), websocketpp::connection<websocketpp::config::asio_client>*, std::__ndk1::placeholders::__ph<1> const&> >, void (std::__ndk1::error_code const&)>::__clone() const
PUBLIC da634 0 std::__ndk1::__function::__func<std::__ndk1::__bind<void (websocketpp::connection<websocketpp::config::asio_client>::*)(std::__ndk1::error_code const&), websocketpp::connection<websocketpp::config::asio_client>*, std::__ndk1::placeholders::__ph<1> const&>, std::__ndk1::allocator<std::__ndk1::__bind<void (websocketpp::connection<websocketpp::config::asio_client>::*)(std::__ndk1::error_code const&), websocketpp::connection<websocketpp::config::asio_client>*, std::__ndk1::placeholders::__ph<1> const&> >, void (std::__ndk1::error_code const&)>::__clone(std::__ndk1::__function::__base<void (std::__ndk1::error_code const&)>*) const
PUBLIC da654 0 std::__ndk1::__function::__func<std::__ndk1::__bind<void (websocketpp::connection<websocketpp::config::asio_client>::*)(std::__ndk1::error_code const&), websocketpp::connection<websocketpp::config::asio_client>*, std::__ndk1::placeholders::__ph<1> const&>, std::__ndk1::allocator<std::__ndk1::__bind<void (websocketpp::connection<websocketpp::config::asio_client>::*)(std::__ndk1::error_code const&), websocketpp::connection<websocketpp::config::asio_client>*, std::__ndk1::placeholders::__ph<1> const&> >, void (std::__ndk1::error_code const&)>::destroy()
PUBLIC da658 0 std::__ndk1::__function::__func<std::__ndk1::__bind<void (websocketpp::connection<websocketpp::config::asio_client>::*)(std::__ndk1::error_code const&), websocketpp::connection<websocketpp::config::asio_client>*, std::__ndk1::placeholders::__ph<1> const&>, std::__ndk1::allocator<std::__ndk1::__bind<void (websocketpp::connection<websocketpp::config::asio_client>::*)(std::__ndk1::error_code const&), websocketpp::connection<websocketpp::config::asio_client>*, std::__ndk1::placeholders::__ph<1> const&> >, void (std::__ndk1::error_code const&)>::destroy_deallocate()
PUBLIC da65c 0 std::__ndk1::__function::__func<std::__ndk1::__bind<void (websocketpp::connection<websocketpp::config::asio_client>::*)(std::__ndk1::error_code const&), websocketpp::connection<websocketpp::config::asio_client>*, std::__ndk1::placeholders::__ph<1> const&>, std::__ndk1::allocator<std::__ndk1::__bind<void (websocketpp::connection<websocketpp::config::asio_client>::*)(std::__ndk1::error_code const&), websocketpp::connection<websocketpp::config::asio_client>*, std::__ndk1::placeholders::__ph<1> const&> >, void (std::__ndk1::error_code const&)>::operator()(std::__ndk1::error_code const&)
PUBLIC da678 0 std::__ndk1::__function::__func<std::__ndk1::__bind<void (websocketpp::connection<websocketpp::config::asio_client>::*)(std::__ndk1::error_code const&), websocketpp::connection<websocketpp::config::asio_client>*, std::__ndk1::placeholders::__ph<1> const&>, std::__ndk1::allocator<std::__ndk1::__bind<void (websocketpp::connection<websocketpp::config::asio_client>::*)(std::__ndk1::error_code const&), websocketpp::connection<websocketpp::config::asio_client>*, std::__ndk1::placeholders::__ph<1> const&> >, void (std::__ndk1::error_code const&)>::target(std::type_info const&) const
PUBLIC da694 0 std::__ndk1::__function::__func<std::__ndk1::__bind<void (websocketpp::connection<websocketpp::config::asio_client>::*)(std::__ndk1::error_code const&), websocketpp::connection<websocketpp::config::asio_client>*, std::__ndk1::placeholders::__ph<1> const&>, std::__ndk1::allocator<std::__ndk1::__bind<void (websocketpp::connection<websocketpp::config::asio_client>::*)(std::__ndk1::error_code const&), websocketpp::connection<websocketpp::config::asio_client>*, std::__ndk1::placeholders::__ph<1> const&> >, void (std::__ndk1::error_code const&)>::target_type() const
PUBLIC da6a0 0 std::__ndk1::unique_ptr<websocketpp::message_buffer::alloc::con_msg_manager<websocketpp::message_buffer::message<websocketpp::message_buffer::alloc::con_msg_manager> >, std::__ndk1::default_delete<websocketpp::message_buffer::alloc::con_msg_manager<websocketpp::message_buffer::message<websocketpp::message_buffer::alloc::con_msg_manager> > > >::~unique_ptr[abi:v170000]()
PUBLIC da6e0 0 std::__ndk1::__shared_ptr_pointer<websocketpp::message_buffer::alloc::con_msg_manager<websocketpp::message_buffer::message<websocketpp::message_buffer::alloc::con_msg_manager> >*, std::__ndk1::shared_ptr<websocketpp::message_buffer::alloc::con_msg_manager<websocketpp::message_buffer::message<websocketpp::message_buffer::alloc::con_msg_manager> > >::__shared_ptr_default_delete<websocketpp::message_buffer::alloc::con_msg_manager<websocketpp::message_buffer::message<websocketpp::message_buffer::alloc::con_msg_manager> >, websocketpp::message_buffer::alloc::con_msg_manager<websocketpp::message_buffer::message<websocketpp::message_buffer::alloc::con_msg_manager> > >, std::__ndk1::allocator<websocketpp::message_buffer::alloc::con_msg_manager<websocketpp::message_buffer::message<websocketpp::message_buffer::alloc::con_msg_manager> > > >::~__shared_ptr_pointer()
PUBLIC da704 0 std::__ndk1::__shared_ptr_pointer<websocketpp::message_buffer::alloc::con_msg_manager<websocketpp::message_buffer::message<websocketpp::message_buffer::alloc::con_msg_manager> >*, std::__ndk1::shared_ptr<websocketpp::message_buffer::alloc::con_msg_manager<websocketpp::message_buffer::message<websocketpp::message_buffer::alloc::con_msg_manager> > >::__shared_ptr_default_delete<websocketpp::message_buffer::alloc::con_msg_manager<websocketpp::message_buffer::message<websocketpp::message_buffer::alloc::con_msg_manager> >, websocketpp::message_buffer::alloc::con_msg_manager<websocketpp::message_buffer::message<websocketpp::message_buffer::alloc::con_msg_manager> > >, std::__ndk1::allocator<websocketpp::message_buffer::alloc::con_msg_manager<websocketpp::message_buffer::message<websocketpp::message_buffer::alloc::con_msg_manager> > > >::__on_zero_shared()
PUBLIC da740 0 std::__ndk1::__shared_ptr_pointer<websocketpp::message_buffer::alloc::con_msg_manager<websocketpp::message_buffer::message<websocketpp::message_buffer::alloc::con_msg_manager> >*, std::__ndk1::shared_ptr<websocketpp::message_buffer::alloc::con_msg_manager<websocketpp::message_buffer::message<websocketpp::message_buffer::alloc::con_msg_manager> > >::__shared_ptr_default_delete<websocketpp::message_buffer::alloc::con_msg_manager<websocketpp::message_buffer::message<websocketpp::message_buffer::alloc::con_msg_manager> >, websocketpp::message_buffer::alloc::con_msg_manager<websocketpp::message_buffer::message<websocketpp::message_buffer::alloc::con_msg_manager> > >, std::__ndk1::allocator<websocketpp::message_buffer::alloc::con_msg_manager<websocketpp::message_buffer::message<websocketpp::message_buffer::alloc::con_msg_manager> > > >::__get_deleter(std::type_info const&) const
PUBLIC da75c 0 std::__ndk1::__shared_ptr_pointer<websocketpp::message_buffer::alloc::con_msg_manager<websocketpp::message_buffer::message<websocketpp::message_buffer::alloc::con_msg_manager> >*, std::__ndk1::shared_ptr<websocketpp::message_buffer::alloc::con_msg_manager<websocketpp::message_buffer::message<websocketpp::message_buffer::alloc::con_msg_manager> > >::__shared_ptr_default_delete<websocketpp::message_buffer::alloc::con_msg_manager<websocketpp::message_buffer::message<websocketpp::message_buffer::alloc::con_msg_manager> >, websocketpp::message_buffer::alloc::con_msg_manager<websocketpp::message_buffer::message<websocketpp::message_buffer::alloc::con_msg_manager> > >, std::__ndk1::allocator<websocketpp::message_buffer::alloc::con_msg_manager<websocketpp::message_buffer::message<websocketpp::message_buffer::alloc::con_msg_manager> > > >::__on_zero_shared_weak()
PUBLIC da760 0 websocketpp::http::parser::parser::~parser()
PUBLIC da7b0 0 std::__ndk1::__shared_ptr_emplace<std::__ndk1::basic_string<char, std::__ndk1::char_traits<char>, std::__ndk1::allocator<char> >, std::__ndk1::allocator<std::__ndk1::basic_string<char, std::__ndk1::char_traits<char>, std::__ndk1::allocator<char> > > >::~__shared_ptr_emplace()
PUBLIC da7c0 0 std::__ndk1::__shared_ptr_emplace<std::__ndk1::basic_string<char, std::__ndk1::char_traits<char>, std::__ndk1::allocator<char> >, std::__ndk1::allocator<std::__ndk1::basic_string<char, std::__ndk1::char_traits<char>, std::__ndk1::allocator<char> > > >::~__shared_ptr_emplace()
PUBLIC da7f0 0 std::__ndk1::__shared_ptr_emplace<std::__ndk1::basic_string<char, std::__ndk1::char_traits<char>, std::__ndk1::allocator<char> >, std::__ndk1::allocator<std::__ndk1::basic_string<char, std::__ndk1::char_traits<char>, std::__ndk1::allocator<char> > > >::__on_zero_shared()
PUBLIC da804 0 std::__ndk1::__shared_ptr_emplace<std::__ndk1::basic_string<char, std::__ndk1::char_traits<char>, std::__ndk1::allocator<char> >, std::__ndk1::allocator<std::__ndk1::basic_string<char, std::__ndk1::char_traits<char>, std::__ndk1::allocator<char> > > >::__on_zero_shared_weak()
PUBLIC da808 0 std::__ndk1::__tree<std::__ndk1::__value_type<std::__ndk1::basic_string<char, std::__ndk1::char_traits<char>, std::__ndk1::allocator<char> >, std::__ndk1::basic_string<char, std::__ndk1::char_traits<char>, std::__ndk1::allocator<char> > >, std::__ndk1::__map_value_compare<std::__ndk1::basic_string<char, std::__ndk1::char_traits<char>, std::__ndk1::allocator<char> >, std::__ndk1::__value_type<std::__ndk1::basic_string<char, std::__ndk1::char_traits<char>, std::__ndk1::allocator<char> >, std::__ndk1::basic_string<char, std::__ndk1::char_traits<char>, std::__ndk1::allocator<char> > >, websocketpp::utility::ci_less, true>, std::__ndk1::allocator<std::__ndk1::__value_type<std::__ndk1::basic_string<char, std::__ndk1::char_traits<char>, std::__ndk1::allocator<char> >, std::__ndk1::basic_string<char, std::__ndk1::char_traits<char>, std::__ndk1::allocator<char> > > > >::destroy(std::__ndk1::__tree_node<std::__ndk1::__value_type<std::__ndk1::basic_string<char, std::__ndk1::char_traits<char>, std::__ndk1::allocator<char> >, std::__ndk1::basic_string<char, std::__ndk1::char_traits<char>, std::__ndk1::allocator<char> > >, void*>*)
PUBLIC da880 0 std::__ndk1::deque<std::__ndk1::shared_ptr<websocketpp::message_buffer::message<websocketpp::message_buffer::alloc::con_msg_manager> >, std::__ndk1::allocator<std::__ndk1::shared_ptr<websocketpp::message_buffer::message<websocketpp::message_buffer::alloc::con_msg_manager> > > >::~deque[abi:v170000]()
PUBLIC daa34 0 websocketpp::connection<websocketpp::config::asio_client>::~connection()
PUBLIC db08c 0 std::__ndk1::__function::__value_func<bool (std::__ndk1::weak_ptr<void>, std::__ndk1::basic_string<char, std::__ndk1::char_traits<char>, std::__ndk1::allocator<char> >)>::swap[abi:v170000](std::__ndk1::__function::__value_func<bool (std::__ndk1::weak_ptr<void>, std::__ndk1::basic_string<char, std::__ndk1::char_traits<char>, std::__ndk1::allocator<char> >)>&)
PUBLIC db224 0 std::__ndk1::__function::__value_func<void (std::__ndk1::weak_ptr<void>, std::__ndk1::basic_string<char, std::__ndk1::char_traits<char>, std::__ndk1::allocator<char> >)>::swap[abi:v170000](std::__ndk1::__function::__value_func<void (std::__ndk1::weak_ptr<void>, std::__ndk1::basic_string<char, std::__ndk1::char_traits<char>, std::__ndk1::allocator<char> >)>&)
PUBLIC db3bc 0 std::__ndk1::__function::__value_func<bool (std::__ndk1::weak_ptr<void>)>::swap[abi:v170000](std::__ndk1::__function::__value_func<bool (std::__ndk1::weak_ptr<void>)>&)
PUBLIC db554 0 websocketpp::transport::asio::basic_socket::endpoint::init(std::__ndk1::shared_ptr<websocketpp::transport::asio::basic_socket::connection>)
PUBLIC db708 0 websocketpp::transport::asio::connection<websocketpp::config::asio_client::transport_config>::init_asio(asio::io_context*)
PUBLIC db898 0 std::__ndk1::__function::__value_func<void (std::__ndk1::weak_ptr<void>, asio::basic_stream_socket<asio::ip::tcp>&)>::swap[abi:v170000](std::__ndk1::__function::__value_func<void (std::__ndk1::weak_ptr<void>, asio::basic_stream_socket<asio::ip::tcp>&)>&)
PUBLIC dba30 0 websocketpp::transport::asio::basic_socket::connection::init_asio(asio::io_context*, std::__ndk1::shared_ptr<asio::io_context::strand>, bool)
PUBLIC dbc84 0 std::__ndk1::__shared_ptr_pointer<asio::io_context::strand*, std::__ndk1::shared_ptr<asio::io_context::strand>::__shared_ptr_default_delete<asio::io_context::strand, asio::io_context::strand>, std::__ndk1::allocator<asio::io_context::strand> >::~__shared_ptr_pointer()
PUBLIC dbca8 0 std::__ndk1::__shared_ptr_pointer<asio::io_context::strand*, std::__ndk1::shared_ptr<asio::io_context::strand>::__shared_ptr_default_delete<asio::io_context::strand, asio::io_context::strand>, std::__ndk1::allocator<asio::io_context::strand> >::__on_zero_shared()
PUBLIC dbcb8 0 std::__ndk1::__shared_ptr_pointer<asio::io_context::strand*, std::__ndk1::shared_ptr<asio::io_context::strand>::__shared_ptr_default_delete<asio::io_context::strand, asio::io_context::strand>, std::__ndk1::allocator<asio::io_context::strand> >::__get_deleter(std::type_info const&) const
PUBLIC dbcd4 0 std::__ndk1::__shared_ptr_pointer<asio::io_context::strand*, std::__ndk1::shared_ptr<asio::io_context::strand>::__shared_ptr_default_delete<asio::io_context::strand, asio::io_context::strand>, std::__ndk1::allocator<asio::io_context::strand> >::__on_zero_shared_weak()
PUBLIC m dbcd8 0 asio::detail::strand_service::construct(asio::detail::strand_service::strand_impl*&)
PUBLIC m dbe30 0 asio::detail::service_registry::create<asio::detail::strand_service, asio::io_context>(void*)
PUBLIC m dbea8 0 asio::detail::strand_service::~strand_service()
PUBLIC m dbf18 0 asio::detail::strand_service::~strand_service()
PUBLIC m dbf8c 0 asio::detail::strand_service::shutdown()
PUBLIC m dc0c0 0 asio::detail::strand_service::strand_impl::~strand_impl()
PUBLIC m dc1b0 0 asio::detail::strand_service::do_complete(void*, asio::detail::scheduler_operation*, std::__ndk1::error_code const&, unsigned long)
PUBLIC m dc31c 0 asio::detail::strand_service::on_do_complete_exit::~on_do_complete_exit()
PUBLIC dc3a4 0 websocketpp::transport::asio::socket::socket_category::~socket_category()
PUBLIC dc3c8 0 websocketpp::transport::asio::socket::socket_category::name() const
PUBLIC dc3d4 0 websocketpp::transport::asio::socket::socket_category::message(int) const
PUBLIC dc63c 0 std::__ndk1::__shared_ptr_pointer<asio::basic_stream_socket<asio::ip::tcp>*, std::__ndk1::shared_ptr<asio::basic_stream_socket<asio::ip::tcp> >::__shared_ptr_default_delete<asio::basic_stream_socket<asio::ip::tcp>, asio::basic_stream_socket<asio::ip::tcp> >, std::__ndk1::allocator<asio::basic_stream_socket<asio::ip::tcp> > >::~__shared_ptr_pointer()
PUBLIC dc660 0 std::__ndk1::__shared_ptr_pointer<asio::basic_stream_socket<asio::ip::tcp>*, std::__ndk1::shared_ptr<asio::basic_stream_socket<asio::ip::tcp> >::__shared_ptr_default_delete<asio::basic_stream_socket<asio::ip::tcp>, asio::basic_stream_socket<asio::ip::tcp> >, std::__ndk1::allocator<asio::basic_stream_socket<asio::ip::tcp> > >::__on_zero_shared()
PUBLIC dc6a4 0 std::__ndk1::__shared_ptr_pointer<asio::basic_stream_socket<asio::ip::tcp>*, std::__ndk1::shared_ptr<asio::basic_stream_socket<asio::ip::tcp> >::__shared_ptr_default_delete<asio::basic_stream_socket<asio::ip::tcp>, asio::basic_stream_socket<asio::ip::tcp> >, std::__ndk1::allocator<asio::basic_stream_socket<asio::ip::tcp> > >::__get_deleter(std::type_info const&) const
PUBLIC dc6c0 0 std::__ndk1::__shared_ptr_pointer<asio::basic_stream_socket<asio::ip::tcp>*, std::__ndk1::shared_ptr<asio::basic_stream_socket<asio::ip::tcp> >::__shared_ptr_default_delete<asio::basic_stream_socket<asio::ip::tcp>, asio::basic_stream_socket<asio::ip::tcp> >, std::__ndk1::allocator<asio::basic_stream_socket<asio::ip::tcp> > >::__on_zero_shared_weak()
PUBLIC dc6c4 0 websocketpp::http::parser::parser::replace_header(std::__ndk1::basic_string<char, std::__ndk1::char_traits<char>, std::__ndk1::allocator<char> > const&, std::__ndk1::basic_string<char, std::__ndk1::char_traits<char>, std::__ndk1::allocator<char> > const&)
PUBLIC dc730 0 websocketpp::exception::exception(std::__ndk1::basic_string<char, std::__ndk1::char_traits<char>, std::__ndk1::allocator<char> > const&, std::__ndk1::error_code)
PUBLIC dc7ec 0 std::__ndk1::__tree<std::__ndk1::__value_type<std::__ndk1::basic_string<char, std::__ndk1::char_traits<char>, std::__ndk1::allocator<char> >, std::__ndk1::basic_string<char, std::__ndk1::char_traits<char>, std::__ndk1::allocator<char> > >, std::__ndk1::__map_value_compare<std::__ndk1::basic_string<char, std::__ndk1::char_traits<char>, std::__ndk1::allocator<char> >, std::__ndk1::__value_type<std::__ndk1::basic_string<char, std::__ndk1::char_traits<char>, std::__ndk1::allocator<char> >, std::__ndk1::basic_string<char, std::__ndk1::char_traits<char>, std::__ndk1::allocator<char> > >, websocketpp::utility::ci_less, true>, std::__ndk1::allocator<std::__ndk1::__value_type<std::__ndk1::basic_string<char, std::__ndk1::char_traits<char>, std::__ndk1::allocator<char> >, std::__ndk1::basic_string<char, std::__ndk1::char_traits<char>, std::__ndk1::allocator<char> > > > >::__emplace_unique_key_args<std::__ndk1::basic_string<char, std::__ndk1::char_traits<char>, std::__ndk1::allocator<char> >, std::__ndk1::piecewise_construct_t const&, std::__ndk1::tuple<std::__ndk1::basic_string<char, std::__ndk1::char_traits<char>, std::__ndk1::allocator<char> > const&>, std::__ndk1::tuple<> >(std::__ndk1::basic_string<char, std::__ndk1::char_traits<char>, std::__ndk1::allocator<char> > const&, std::__ndk1::piecewise_construct_t const&, std::__ndk1::tuple<std::__ndk1::basic_string<char, std::__ndk1::char_traits<char>, std::__ndk1::allocator<char> > const&>, std::__ndk1::tuple<>)
PUBLIC dc8fc 0 std::__ndk1::__tree<std::__ndk1::__value_type<std::__ndk1::basic_string<char, std::__ndk1::char_traits<char>, std::__ndk1::allocator<char> >, std::__ndk1::basic_string<char, std::__ndk1::char_traits<char>, std::__ndk1::allocator<char> > >, std::__ndk1::__map_value_compare<std::__ndk1::basic_string<char, std::__ndk1::char_traits<char>, std::__ndk1::allocator<char> >, std::__ndk1::__value_type<std::__ndk1::basic_string<char, std::__ndk1::char_traits<char>, std::__ndk1::allocator<char> >, std::__ndk1::basic_string<char, std::__ndk1::char_traits<char>, std::__ndk1::allocator<char> > >, websocketpp::utility::ci_less, true>, std::__ndk1::allocator<std::__ndk1::__value_type<std::__ndk1::basic_string<char, std::__ndk1::char_traits<char>, std::__ndk1::allocator<char> >, std::__ndk1::basic_string<char, std::__ndk1::char_traits<char>, std::__ndk1::allocator<char> > > > >::__find_equal<std::__ndk1::basic_string<char, std::__ndk1::char_traits<char>, std::__ndk1::allocator<char> > >(std::__ndk1::__tree_end_node<std::__ndk1::__tree_node_base<void*>*>*&, std::__ndk1::basic_string<char, std::__ndk1::char_traits<char>, std::__ndk1::allocator<char> > const&)
PUBLIC dca8c 0 websocketpp::transport::asio::connection<websocketpp::config::asio_client::transport_config>::proxy_data::proxy_data()
PUBLIC dcc40 0 std::__ndk1::__shared_ptr_emplace<websocketpp::transport::asio::connection<websocketpp::config::asio_client::transport_config>::proxy_data, std::__ndk1::allocator<websocketpp::transport::asio::connection<websocketpp::config::asio_client::transport_config>::proxy_data> >::~__shared_ptr_emplace()
PUBLIC dcc50 0 std::__ndk1::__shared_ptr_emplace<websocketpp::transport::asio::connection<websocketpp::config::asio_client::transport_config>::proxy_data, std::__ndk1::allocator<websocketpp::transport::asio::connection<websocketpp::config::asio_client::transport_config>::proxy_data> >::~__shared_ptr_emplace()
PUBLIC dcc80 0 std::__ndk1::__shared_ptr_emplace<websocketpp::transport::asio::connection<websocketpp::config::asio_client::transport_config>::proxy_data, std::__ndk1::allocator<websocketpp::transport::asio::connection<websocketpp::config::asio_client::transport_config>::proxy_data> >::__on_zero_shared()
PUBLIC dcc88 0 std::__ndk1::__shared_ptr_emplace<websocketpp::transport::asio::connection<websocketpp::config::asio_client::transport_config>::proxy_data, std::__ndk1::allocator<websocketpp::transport::asio::connection<websocketpp::config::asio_client::transport_config>::proxy_data> >::__on_zero_shared_weak()
PUBLIC m dcc8c 0 asio::basic_streambuf<std::__ndk1::allocator<char> >::~basic_streambuf()
PUBLIC m dcccc 0 asio::basic_streambuf<std::__ndk1::allocator<char> >::~basic_streambuf()
PUBLIC m dcd14 0 asio::basic_streambuf<std::__ndk1::allocator<char> >::underflow()
PUBLIC m dcd40 0 asio::basic_streambuf<std::__ndk1::allocator<char> >::overflow(int)
PUBLIC dcdc8 0 std::__ndk1::vector<char, std::__ndk1::allocator<char> >::__throw_length_error[abi:v170000]() const
PUBLIC m dcddc 0 asio::basic_streambuf<std::__ndk1::allocator<char> >::reserve(unsigned long)
PUBLIC dd108 0 websocketpp::transport::asio::connection<websocketpp::config::asio_client::transport_config>::proxy_data::~proxy_data()
PUBLIC dd234 0 websocketpp::base64_encode(unsigned char const*, unsigned long)
PUBLIC dd508 0 websocketpp::transport::asio::endpoint<websocketpp::config::asio_client::transport_config>::async_connect(std::__ndk1::shared_ptr<websocketpp::transport::asio::connection<websocketpp::config::asio_client::transport_config> >, std::__ndk1::shared_ptr<websocketpp::uri>, std::__ndk1::function<void (std::__ndk1::error_code const&)>)
PUBLIC de18c 0 websocketpp::client<websocketpp::config::asio_client>::handle_connect(std::__ndk1::shared_ptr<websocketpp::connection<websocketpp::config::asio_client> >, std::__ndk1::error_code const&)
PUBLIC de31c 0 std::__ndk1::__bind<void (websocketpp::client<websocketpp::config::asio_client>::*)(std::__ndk1::shared_ptr<websocketpp::connection<websocketpp::config::asio_client> >, std::__ndk1::error_code const&), websocketpp::client<websocketpp::config::asio_client>*, std::__ndk1::shared_ptr<websocketpp::connection<websocketpp::config::asio_client> >&, std::__ndk1::placeholders::__ph<1> const&>::~__bind()
PUBLIC de36c 0 std::__ndk1::shared_ptr<asio::ip::basic_resolver<asio::ip::tcp> >::reset[abi:v170000]<asio::ip::basic_resolver<asio::ip::tcp>, void>(asio::ip::basic_resolver<asio::ip::tcp>*)
PUBLIC de468 0 websocketpp::uri::get_port_str() const
PUBLIC de614 0 websocketpp::transport::asio::connection<websocketpp::config::asio_client::transport_config>::proxy_init(std::__ndk1::basic_string<char, std::__ndk1::char_traits<char>, std::__ndk1::allocator<char> > const&)
PUBLIC de824 0 websocketpp::uri::get_authority() const
PUBLIC dea00 0 websocketpp::transport::asio::endpoint<websocketpp::config::asio_client::transport_config>::handle_resolve_timeout(std::__ndk1::shared_ptr<asio::basic_waitable_timer<std::__ndk1::chrono::steady_clock, asio::wait_traits<std::__ndk1::chrono::steady_clock> > >, std::__ndk1::function<void (std::__ndk1::error_code const&)>, std::__ndk1::error_code const&)
PUBLIC debf4 0 std::__ndk1::__bind<void (websocketpp::transport::asio::endpoint<websocketpp::config::asio_client::transport_config>::*)(std::__ndk1::shared_ptr<asio::basic_waitable_timer<std::__ndk1::chrono::steady_clock, asio::wait_traits<std::__ndk1::chrono::steady_clock> > >, std::__ndk1::function<void (std::__ndk1::error_code const&)>, std::__ndk1::error_code const&), websocketpp::transport::asio::endpoint<websocketpp::config::asio_client::transport_config>*, std::__ndk1::shared_ptr<asio::basic_waitable_timer<std::__ndk1::chrono::steady_clock, asio::wait_traits<std::__ndk1::chrono::steady_clock> > >&, std::__ndk1::function<void (std::__ndk1::error_code const&)>&, std::__ndk1::placeholders::__ph<1> const&>::~__bind()
PUBLIC dec7c 0 websocketpp::transport::asio::endpoint<websocketpp::config::asio_client::transport_config>::handle_resolve(std::__ndk1::shared_ptr<websocketpp::transport::asio::connection<websocketpp::config::asio_client::transport_config> >, std::__ndk1::shared_ptr<asio::basic_waitable_timer<std::__ndk1::chrono::steady_clock, asio::wait_traits<std::__ndk1::chrono::steady_clock> > >, std::__ndk1::function<void (std::__ndk1::error_code const&)>, std::__ndk1::error_code const&, asio::ip::basic_resolver_iterator<asio::ip::tcp>)
PUBLIC df774 0 asio::detail::wrapped_handler<asio::io_context::strand, std::__ndk1::__bind<void (websocketpp::transport::asio::endpoint<websocketpp::config::asio_client::transport_config>::*)(std::__ndk1::shared_ptr<websocketpp::transport::asio::connection<websocketpp::config::asio_client::transport_config> >, std::__ndk1::shared_ptr<asio::basic_waitable_timer<std::__ndk1::chrono::steady_clock, asio::wait_traits<std::__ndk1::chrono::steady_clock> > >, std::__ndk1::function<void (std::__ndk1::error_code const&)>, std::__ndk1::error_code const&, asio::ip::basic_resolver_iterator<asio::ip::tcp>), websocketpp::transport::asio::endpoint<websocketpp::config::asio_client::transport_config>*, std::__ndk1::shared_ptr<websocketpp::transport::asio::connection<websocketpp::config::asio_client::transport_config> >&, std::__ndk1::shared_ptr<asio::basic_waitable_timer<std::__ndk1::chrono::steady_clock, asio::wait_traits<std::__ndk1::chrono::steady_clock> > >&, std::__ndk1::function<void (std::__ndk1::error_code const&)>&, std::__ndk1::placeholders::__ph<1> const&, std::__ndk1::placeholders::__ph<2> const&>, asio::detail::is_continuation_if_running>::~wrapped_handler()
PUBLIC df834 0 std::__ndk1::__bind<void (websocketpp::transport::asio::endpoint<websocketpp::config::asio_client::transport_config>::*)(std::__ndk1::shared_ptr<websocketpp::transport::asio::connection<websocketpp::config::asio_client::transport_config> >, std::__ndk1::shared_ptr<asio::basic_waitable_timer<std::__ndk1::chrono::steady_clock, asio::wait_traits<std::__ndk1::chrono::steady_clock> > >, std::__ndk1::function<void (std::__ndk1::error_code const&)>, std::__ndk1::error_code const&, asio::ip::basic_resolver_iterator<asio::ip::tcp>), websocketpp::transport::asio::endpoint<websocketpp::config::asio_client::transport_config>*, std::__ndk1::shared_ptr<websocketpp::transport::asio::connection<websocketpp::config::asio_client::transport_config> >&, std::__ndk1::shared_ptr<asio::basic_waitable_timer<std::__ndk1::chrono::steady_clock, asio::wait_traits<std::__ndk1::chrono::steady_clock> > >&, std::__ndk1::function<void (std::__ndk1::error_code const&)>&, std::__ndk1::placeholders::__ph<1> const&, std::__ndk1::placeholders::__ph<2> const&>::~__bind()
PUBLIC m df8f4 0 asio::ip::basic_resolver_query<asio::ip::tcp>::~basic_resolver_query()
PUBLIC df938 0 std::__ndk1::__shared_ptr_pointer<asio::ip::basic_resolver<asio::ip::tcp>*, std::__ndk1::shared_ptr<asio::ip::basic_resolver<asio::ip::tcp> >::__shared_ptr_default_delete<asio::ip::basic_resolver<asio::ip::tcp>, asio::ip::basic_resolver<asio::ip::tcp> >, std::__ndk1::allocator<asio::ip::basic_resolver<asio::ip::tcp> > >::~__shared_ptr_pointer()
PUBLIC df95c 0 std::__ndk1::__shared_ptr_pointer<asio::ip::basic_resolver<asio::ip::tcp>*, std::__ndk1::shared_ptr<asio::ip::basic_resolver<asio::ip::tcp> >::__shared_ptr_default_delete<asio::ip::basic_resolver<asio::ip::tcp>, asio::ip::basic_resolver<asio::ip::tcp> >, std::__ndk1::allocator<asio::ip::basic_resolver<asio::ip::tcp> > >::__on_zero_shared()
PUBLIC dfa00 0 std::__ndk1::__shared_ptr_pointer<asio::ip::basic_resolver<asio::ip::tcp>*, std::__ndk1::shared_ptr<asio::ip::basic_resolver<asio::ip::tcp> >::__shared_ptr_default_delete<asio::ip::basic_resolver<asio::ip::tcp>, asio::ip::basic_resolver<asio::ip::tcp> >, std::__ndk1::allocator<asio::ip::basic_resolver<asio::ip::tcp> > >::__get_deleter(std::type_info const&) const
PUBLIC dfa1c 0 std::__ndk1::__shared_ptr_pointer<asio::ip::basic_resolver<asio::ip::tcp>*, std::__ndk1::shared_ptr<asio::ip::basic_resolver<asio::ip::tcp> >::__shared_ptr_default_delete<asio::ip::basic_resolver<asio::ip::tcp>, asio::ip::basic_resolver<asio::ip::tcp> >, std::__ndk1::allocator<asio::ip::basic_resolver<asio::ip::tcp> > >::__on_zero_shared_weak()
PUBLIC m dfa20 0 asio::detail::service_registry::create<asio::detail::resolver_service<asio::ip::tcp>, asio::io_context>(void*)
PUBLIC m dfa68 0 asio::detail::resolver_service<asio::ip::tcp>::resolver_service(asio::io_context&)
PUBLIC m dfb28 0 asio::detail::resolver_service<asio::ip::tcp>::~resolver_service()
PUBLIC m dfb30 0 asio::detail::resolver_service<asio::ip::tcp>::~resolver_service()
PUBLIC m dfb58 0 asio::detail::resolver_service<asio::ip::tcp>::shutdown()
PUBLIC m dfb60 0 asio::detail::resolver_service<asio::ip::tcp>::notify_fork(asio::execution_context::fork_event)
PUBLIC m dfb68 0 asio::detail::service_base<asio::detail::resolver_service<asio::ip::tcp> >::~service_base()
PUBLIC m dfb6c 0 asio::io_context::io_context(int)
PUBLIC m dfd10 0 asio::detail::scoped_ptr<asio::io_context>::~scoped_ptr()
PUBLIC m dfdb8 0 asio::detail::resolver_service_base::~resolver_service_base()
PUBLIC m dfe44 0 asio::detail::resolver_service_base::base_shutdown()
PUBLIC m dff14 0 asio::detail::scoped_ptr<asio::io_context>::reset(asio::io_context*)
PUBLIC m dffc4 0 asio::detail::resolver_service_base::base_notify_fork(asio::execution_context::fork_event)
PUBLIC m e00e4 0 asio::detail::posix_thread::start_thread(asio::detail::posix_thread::func_base*)
PUBLIC m e023c 0 asio_detail_posix_thread_function
PUBLIC m e0294 0 asio::detail::posix_thread::func<asio::detail::resolver_service_base::work_io_context_runner>::~func()
PUBLIC m e0298 0 asio::detail::posix_thread::func<asio::detail::resolver_service_base::work_io_context_runner>::run()
PUBLIC m e02a0 0 asio::detail::posix_thread::func_base::~func_base()
PUBLIC m e02a4 0 asio::detail::resolver_service_base::work_io_context_runner::operator()()
PUBLIC e0398 0 std::__ndk1::shared_ptr<void>::reset[abi:v170000]<void, asio::detail::socket_ops::noop_deleter, void>(void*, asio::detail::socket_ops::noop_deleter)
PUBLIC e0434 0 std::__ndk1::__shared_ptr_pointer<void*, asio::detail::socket_ops::noop_deleter, std::__ndk1::allocator<void> >::~__shared_ptr_pointer()
PUBLIC e0458 0 std::__ndk1::__shared_ptr_pointer<void*, asio::detail::socket_ops::noop_deleter, std::__ndk1::allocator<void> >::__on_zero_shared()
PUBLIC e045c 0 std::__ndk1::__shared_ptr_pointer<void*, asio::detail::socket_ops::noop_deleter, std::__ndk1::allocator<void> >::__get_deleter(std::type_info const&) const
PUBLIC e0478 0 std::__ndk1::__shared_ptr_pointer<void*, asio::detail::socket_ops::noop_deleter, std::__ndk1::allocator<void> >::__on_zero_shared_weak()
PUBLIC e047c 0 websocketpp::http::parser::request::set_method(std::__ndk1::basic_string<char, std::__ndk1::char_traits<char>, std::__ndk1::allocator<char> > const&)
PUBLIC e0618 0 websocketpp::http::exception::exception(std::__ndk1::basic_string<char, std::__ndk1::char_traits<char>, std::__ndk1::allocator<char> > const&, websocketpp::http::status_code::value, std::__ndk1::basic_string<char, std::__ndk1::char_traits<char>, std::__ndk1::allocator<char> > const&, std::__ndk1::basic_string<char, std::__ndk1::char_traits<char>, std::__ndk1::allocator<char> > const&)
PUBLIC e06f8 0 websocketpp::http::exception::~exception()
PUBLIC e0774 0 websocketpp::http::exception::~exception()
PUBLIC e0800 0 websocketpp::http::exception::what() const
PUBLIC e0818 0 websocketpp::transport::asio::endpoint<websocketpp::config::asio_client::transport_config>::log_err<std::__ndk1::error_code>(unsigned int, char const*, std::__ndk1::error_code const&)
PUBLIC e0ae0 0 std::__ndk1::__function::__func<std::__ndk1::__bind<void (websocketpp::transport::asio::endpoint<websocketpp::config::asio_client::transport_config>::*)(std::__ndk1::shared_ptr<asio::basic_waitable_timer<std::__ndk1::chrono::steady_clock, asio::wait_traits<std::__ndk1::chrono::steady_clock> > >, std::__ndk1::function<void (std::__ndk1::error_code const&)>, std::__ndk1::error_code const&), websocketpp::transport::asio::endpoint<websocketpp::config::asio_client::transport_config>*, std::__ndk1::shared_ptr<asio::basic_waitable_timer<std::__ndk1::chrono::steady_clock, asio::wait_traits<std::__ndk1::chrono::steady_clock> > >&, std::__ndk1::function<void (std::__ndk1::error_code const&)>&, std::__ndk1::placeholders::__ph<1> const&>, std::__ndk1::allocator<std::__ndk1::__bind<void (websocketpp::transport::asio::endpoint<websocketpp::config::asio_client::transport_config>::*)(std::__ndk1::shared_ptr<asio::basic_waitable_timer<std::__ndk1::chrono::steady_clock, asio::wait_traits<std::__ndk1::chrono::steady_clock> > >, std::__ndk1::function<void (std::__ndk1::error_code const&)>, std::__ndk1::error_code const&), websocketpp::transport::asio::endpoint<websocketpp::config::asio_client::transport_config>*, std::__ndk1::shared_ptr<asio::basic_waitable_timer<std::__ndk1::chrono::steady_clock, asio::wait_traits<std::__ndk1::chrono::steady_clock> > >&, std::__ndk1::function<void (std::__ndk1::error_code const&)>&, std::__ndk1::placeholders::__ph<1> const&> >, void (std::__ndk1::error_code const&)>::~__func()
PUBLIC e0b74 0 std::__ndk1::__function::__func<std::__ndk1::__bind<void (websocketpp::transport::asio::endpoint<websocketpp::config::asio_client::transport_config>::*)(std::__ndk1::shared_ptr<asio::basic_waitable_timer<std::__ndk1::chrono::steady_clock, asio::wait_traits<std::__ndk1::chrono::steady_clock> > >, std::__ndk1::function<void (std::__ndk1::error_code const&)>, std::__ndk1::error_code const&), websocketpp::transport::asio::endpoint<websocketpp::config::asio_client::transport_config>*, std::__ndk1::shared_ptr<asio::basic_waitable_timer<std::__ndk1::chrono::steady_clock, asio::wait_traits<std::__ndk1::chrono::steady_clock> > >&, std::__ndk1::function<void (std::__ndk1::error_code const&)>&, std::__ndk1::placeholders::__ph<1> const&>, std::__ndk1::allocator<std::__ndk1::__bind<void (websocketpp::transport::asio::endpoint<websocketpp::config::asio_client::transport_config>::*)(std::__ndk1::shared_ptr<asio::basic_waitable_timer<std::__ndk1::chrono::steady_clock, asio::wait_traits<std::__ndk1::chrono::steady_clock> > >, std::__ndk1::function<void (std::__ndk1::error_code const&)>, std::__ndk1::error_code const&), websocketpp::transport::asio::endpoint<websocketpp::config::asio_client::transport_config>*, std::__ndk1::shared_ptr<asio::basic_waitable_timer<std::__ndk1::chrono::steady_clock, asio::wait_traits<std::__ndk1::chrono::steady_clock> > >&, std::__ndk1::function<void (std::__ndk1::error_code const&)>&, std::__ndk1::placeholders::__ph<1> const&> >, void (std::__ndk1::error_code const&)>::~__func()
PUBLIC e0c14 0 std::__ndk1::__function::__func<std::__ndk1::__bind<void (websocketpp::transport::asio::endpoint<websocketpp::config::asio_client::transport_config>::*)(std::__ndk1::shared_ptr<asio::basic_waitable_timer<std::__ndk1::chrono::steady_clock, asio::wait_traits<std::__ndk1::chrono::steady_clock> > >, std::__ndk1::function<void (std::__ndk1::error_code const&)>, std::__ndk1::error_code const&), websocketpp::transport::asio::endpoint<websocketpp::config::asio_client::transport_config>*, std::__ndk1::shared_ptr<asio::basic_waitable_timer<std::__ndk1::chrono::steady_clock, asio::wait_traits<std::__ndk1::chrono::steady_clock> > >&, std::__ndk1::function<void (std::__ndk1::error_code const&)>&, std::__ndk1::placeholders::__ph<1> const&>, std::__ndk1::allocator<std::__ndk1::__bind<void (websocketpp::transport::asio::endpoint<websocketpp::config::asio_client::transport_config>::*)(std::__ndk1::shared_ptr<asio::basic_waitable_timer<std::__ndk1::chrono::steady_clock, asio::wait_traits<std::__ndk1::chrono::steady_clock> > >, std::__ndk1::function<void (std::__ndk1::error_code const&)>, std::__ndk1::error_code const&), websocketpp::transport::asio::endpoint<websocketpp::config::asio_client::transport_config>*, std::__ndk1::shared_ptr<asio::basic_waitable_timer<std::__ndk1::chrono::steady_clock, asio::wait_traits<std::__ndk1::chrono::steady_clock> > >&, std::__ndk1::function<void (std::__ndk1::error_code const&)>&, std::__ndk1::placeholders::__ph<1> const&> >, void (std::__ndk1::error_code const&)>::__clone() const
PUBLIC e0cfc 0 std::__ndk1::__function::__func<std::__ndk1::__bind<void (websocketpp::transport::asio::endpoint<websocketpp::config::asio_client::transport_config>::*)(std::__ndk1::shared_ptr<asio::basic_waitable_timer<std::__ndk1::chrono::steady_clock, asio::wait_traits<std::__ndk1::chrono::steady_clock> > >, std::__ndk1::function<void (std::__ndk1::error_code const&)>, std::__ndk1::error_code const&), websocketpp::transport::asio::endpoint<websocketpp::config::asio_client::transport_config>*, std::__ndk1::shared_ptr<asio::basic_waitable_timer<std::__ndk1::chrono::steady_clock, asio::wait_traits<std::__ndk1::chrono::steady_clock> > >&, std::__ndk1::function<void (std::__ndk1::error_code const&)>&, std::__ndk1::placeholders::__ph<1> const&>, std::__ndk1::allocator<std::__ndk1::__bind<void (websocketpp::transport::asio::endpoint<websocketpp::config::asio_client::transport_config>::*)(std::__ndk1::shared_ptr<asio::basic_waitable_timer<std::__ndk1::chrono::steady_clock, asio::wait_traits<std::__ndk1::chrono::steady_clock> > >, std::__ndk1::function<void (std::__ndk1::error_code const&)>, std::__ndk1::error_code const&), websocketpp::transport::asio::endpoint<websocketpp::config::asio_client::transport_config>*, std::__ndk1::shared_ptr<asio::basic_waitable_timer<std::__ndk1::chrono::steady_clock, asio::wait_traits<std::__ndk1::chrono::steady_clock> > >&, std::__ndk1::function<void (std::__ndk1::error_code const&)>&, std::__ndk1::placeholders::__ph<1> const&> >, void (std::__ndk1::error_code const&)>::__clone(std::__ndk1::__function::__base<void (std::__ndk1::error_code const&)>*) const
PUBLIC e0dd0 0 std::__ndk1::__function::__func<std::__ndk1::__bind<void (websocketpp::transport::asio::endpoint<websocketpp::config::asio_client::transport_config>::*)(std::__ndk1::shared_ptr<asio::basic_waitable_timer<std::__ndk1::chrono::steady_clock, asio::wait_traits<std::__ndk1::chrono::steady_clock> > >, std::__ndk1::function<void (std::__ndk1::error_code const&)>, std::__ndk1::error_code const&), websocketpp::transport::asio::endpoint<websocketpp::config::asio_client::transport_config>*, std::__ndk1::shared_ptr<asio::basic_waitable_timer<std::__ndk1::chrono::steady_clock, asio::wait_traits<std::__ndk1::chrono::steady_clock> > >&, std::__ndk1::function<void (std::__ndk1::error_code const&)>&, std::__ndk1::placeholders::__ph<1> const&>, std::__ndk1::allocator<std::__ndk1::__bind<void (websocketpp::transport::asio::endpoint<websocketpp::config::asio_client::transport_config>::*)(std::__ndk1::shared_ptr<asio::basic_waitable_timer<std::__ndk1::chrono::steady_clock, asio::wait_traits<std::__ndk1::chrono::steady_clock> > >, std::__ndk1::function<void (std::__ndk1::error_code const&)>, std::__ndk1::error_code const&), websocketpp::transport::asio::endpoint<websocketpp::config::asio_client::transport_config>*, std::__ndk1::shared_ptr<asio::basic_waitable_timer<std::__ndk1::chrono::steady_clock, asio::wait_traits<std::__ndk1::chrono::steady_clock> > >&, std::__ndk1::function<void (std::__ndk1::error_code const&)>&, std::__ndk1::placeholders::__ph<1> const&> >, void (std::__ndk1::error_code const&)>::destroy()
PUBLIC e0e58 0 std::__ndk1::__function::__func<std::__ndk1::__bind<void (websocketpp::transport::asio::endpoint<websocketpp::config::asio_client::transport_config>::*)(std::__ndk1::shared_ptr<asio::basic_waitable_timer<std::__ndk1::chrono::steady_clock, asio::wait_traits<std::__ndk1::chrono::steady_clock> > >, std::__ndk1::function<void (std::__ndk1::error_code const&)>, std::__ndk1::error_code const&), websocketpp::transport::asio::endpoint<websocketpp::config::asio_client::transport_config>*, std::__ndk1::shared_ptr<asio::basic_waitable_timer<std::__ndk1::chrono::steady_clock, asio::wait_traits<std::__ndk1::chrono::steady_clock> > >&, std::__ndk1::function<void (std::__ndk1::error_code const&)>&, std::__ndk1::placeholders::__ph<1> const&>, std::__ndk1::allocator<std::__ndk1::__bind<void (websocketpp::transport::asio::endpoint<websocketpp::config::asio_client::transport_config>::*)(std::__ndk1::shared_ptr<asio::basic_waitable_timer<std::__ndk1::chrono::steady_clock, asio::wait_traits<std::__ndk1::chrono::steady_clock> > >, std::__ndk1::function<void (std::__ndk1::error_code const&)>, std::__ndk1::error_code const&), websocketpp::transport::asio::endpoint<websocketpp::config::asio_client::transport_config>*, std::__ndk1::shared_ptr<asio::basic_waitable_timer<std::__ndk1::chrono::steady_clock, asio::wait_traits<std::__ndk1::chrono::steady_clock> > >&, std::__ndk1::function<void (std::__ndk1::error_code const&)>&, std::__ndk1::placeholders::__ph<1> const&> >, void (std::__ndk1::error_code const&)>::destroy_deallocate()
PUBLIC e0eec 0 std::__ndk1::__function::__func<std::__ndk1::__bind<void (websocketpp::transport::asio::endpoint<websocketpp::config::asio_client::transport_config>::*)(std::__ndk1::shared_ptr<asio::basic_waitable_timer<std::__ndk1::chrono::steady_clock, asio::wait_traits<std::__ndk1::chrono::steady_clock> > >, std::__ndk1::function<void (std::__ndk1::error_code const&)>, std::__ndk1::error_code const&), websocketpp::transport::asio::endpoint<websocketpp::config::asio_client::transport_config>*, std::__ndk1::shared_ptr<asio::basic_waitable_timer<std::__ndk1::chrono::steady_clock, asio::wait_traits<std::__ndk1::chrono::steady_clock> > >&, std::__ndk1::function<void (std::__ndk1::error_code const&)>&, std::__ndk1::placeholders::__ph<1> const&>, std::__ndk1::allocator<std::__ndk1::__bind<void (websocketpp::transport::asio::endpoint<websocketpp::config::asio_client::transport_config>::*)(std::__ndk1::shared_ptr<asio::basic_waitable_timer<std::__ndk1::chrono::steady_clock, asio::wait_traits<std::__ndk1::chrono::steady_clock> > >, std::__ndk1::function<void (std::__ndk1::error_code const&)>, std::__ndk1::error_code const&), websocketpp::transport::asio::endpoint<websocketpp::config::asio_client::transport_config>*, std::__ndk1::shared_ptr<asio::basic_waitable_timer<std::__ndk1::chrono::steady_clock, asio::wait_traits<std::__ndk1::chrono::steady_clock> > >&, std::__ndk1::function<void (std::__ndk1::error_code const&)>&, std::__ndk1::placeholders::__ph<1> const&> >, void (std::__ndk1::error_code const&)>::operator()(std::__ndk1::error_code const&)
PUBLIC e0f08 0 std::__ndk1::__function::__func<std::__ndk1::__bind<void (websocketpp::transport::asio::endpoint<websocketpp::config::asio_client::transport_config>::*)(std::__ndk1::shared_ptr<asio::basic_waitable_timer<std::__ndk1::chrono::steady_clock, asio::wait_traits<std::__ndk1::chrono::steady_clock> > >, std::__ndk1::function<void (std::__ndk1::error_code const&)>, std::__ndk1::error_code const&), websocketpp::transport::asio::endpoint<websocketpp::config::asio_client::transport_config>*, std::__ndk1::shared_ptr<asio::basic_waitable_timer<std::__ndk1::chrono::steady_clock, asio::wait_traits<std::__ndk1::chrono::steady_clock> > >&, std::__ndk1::function<void (std::__ndk1::error_code const&)>&, std::__ndk1::placeholders::__ph<1> const&>, std::__ndk1::allocator<std::__ndk1::__bind<void (websocketpp::transport::asio::endpoint<websocketpp::config::asio_client::transport_config>::*)(std::__ndk1::shared_ptr<asio::basic_waitable_timer<std::__ndk1::chrono::steady_clock, asio::wait_traits<std::__ndk1::chrono::steady_clock> > >, std::__ndk1::function<void (std::__ndk1::error_code const&)>, std::__ndk1::error_code const&), websocketpp::transport::asio::endpoint<websocketpp::config::asio_client::transport_config>*, std::__ndk1::shared_ptr<asio::basic_waitable_timer<std::__ndk1::chrono::steady_clock, asio::wait_traits<std::__ndk1::chrono::steady_clock> > >&, std::__ndk1::function<void (std::__ndk1::error_code const&)>&, std::__ndk1::placeholders::__ph<1> const&> >, void (std::__ndk1::error_code const&)>::target(std::type_info const&) const
PUBLIC e0f24 0 std::__ndk1::__function::__func<std::__ndk1::__bind<void (websocketpp::transport::asio::endpoint<websocketpp::config::asio_client::transport_config>::*)(std::__ndk1::shared_ptr<asio::basic_waitable_timer<std::__ndk1::chrono::steady_clock, asio::wait_traits<std::__ndk1::chrono::steady_clock> > >, std::__ndk1::function<void (std::__ndk1::error_code const&)>, std::__ndk1::error_code const&), websocketpp::transport::asio::endpoint<websocketpp::config::asio_client::transport_config>*, std::__ndk1::shared_ptr<asio::basic_waitable_timer<std::__ndk1::chrono::steady_clock, asio::wait_traits<std::__ndk1::chrono::steady_clock> > >&, std::__ndk1::function<void (std::__ndk1::error_code const&)>&, std::__ndk1::placeholders::__ph<1> const&>, std::__ndk1::allocator<std::__ndk1::__bind<void (websocketpp::transport::asio::endpoint<websocketpp::config::asio_client::transport_config>::*)(std::__ndk1::shared_ptr<asio::basic_waitable_timer<std::__ndk1::chrono::steady_clock, asio::wait_traits<std::__ndk1::chrono::steady_clock> > >, std::__ndk1::function<void (std::__ndk1::error_code const&)>, std::__ndk1::error_code const&), websocketpp::transport::asio::endpoint<websocketpp::config::asio_client::transport_config>*, std::__ndk1::shared_ptr<asio::basic_waitable_timer<std::__ndk1::chrono::steady_clock, asio::wait_traits<std::__ndk1::chrono::steady_clock> > >&, std::__ndk1::function<void (std::__ndk1::error_code const&)>&, std::__ndk1::placeholders::__ph<1> const&> >, void (std::__ndk1::error_code const&)>::target_type() const
PUBLIC e0f30 0 std::__ndk1::__invoke[abi:v170000]<void (websocketpp::transport::asio::endpoint<std::__ndk1::__invoke[abi:v170000]::config::asio_client::transport_config>&::*)(std::__ndk1::shared_ptr<asio::basic_waitable_timer<std::__ndk1::chrono::steady_clock, std::__ndk1::shared_ptr::wait_traits<std::__ndk1::chrono> > >, std::__ndk1::function<void (std::__ndk1::error_code const&)>, std::__ndk1::error_code const), std::__ndk1::__invoke[abi:v170000]::config::asio_client::transport_config*&, asio::basic_waitable_timer<std::__ndk1::chrono::steady_clock, std::__ndk1::shared_ptr::wait_traits<std::__ndk1::chrono> >&, void (&)(std::__ndk1::error_code const&), std::__ndk1::error_code const, void>(std::__ndk1::__invoke[abi:v170000]::config::asio_client::transport_config*&, void (&)(std::__ndk1::error_code const&), void (websocketpp::transport::asio::endpoint<std::__ndk1::__invoke[abi:v170000]::config::asio_client::transport_config>&::*)(std::__ndk1::shared_ptr<asio::basic_waitable_timer<std::__ndk1::chrono::steady_clock, std::__ndk1::shared_ptr::wait_traits<std::__ndk1::chrono> > >, std::__ndk1::function<void (std::__ndk1::error_code const&)>, std::__ndk1::error_code const))
PUBLIC e10d0 0 asio::detail::resolver_service<asio::ip::tcp>::async_resolve<asio::detail::wrapped_handler<asio::io_context::strand, std::__ndk1::__bind<void (websocketpp::transport::asio::endpoint<websocketpp::config::asio_client::transport_config>::*)(std::__ndk1::shared_ptr<websocketpp::transport::asio::connection<websocketpp::config::asio_client::transport_config> >, std::__ndk1::shared_ptr<asio::basic_waitable_timer<std::__ndk1::chrono::steady_clock, asio::wait_traits<std::__ndk1::chrono::steady_clock> > >, std::__ndk1::function<void (std::__ndk1::error_code const&)>, std::__ndk1::error_code const&, asio::ip::basic_resolver_iterator<asio::ip::tcp>), websocketpp::transport::asio::endpoint<websocketpp::config::asio_client::transport_config>*, std::__ndk1::shared_ptr<websocketpp::transport::asio::connection<websocketpp::config::asio_client::transport_config> >&, std::__ndk1::shared_ptr<asio::basic_waitable_timer<std::__ndk1::chrono::steady_clock, asio::wait_traits<std::__ndk1::chrono::steady_clock> > >&, std::__ndk1::function<void (std::__ndk1::error_code const&)>&, std::__ndk1::placeholders::__ph<1> const&, std::__ndk1::placeholders::__ph<2> const&>, asio::detail::is_continuation_if_running> >(std::__ndk1::shared_ptr<void>&, asio::ip::basic_resolver_query<asio::ip::tcp> const&, asio::detail::wrapped_handler<asio::io_context::strand, std::__ndk1::__bind<void (websocketpp::transport::asio::endpoint<websocketpp::config::asio_client::transport_config>::*)(std::__ndk1::shared_ptr<websocketpp::transport::asio::connection<websocketpp::config::asio_client::transport_config> >, std::__ndk1::shared_ptr<asio::basic_waitable_timer<std::__ndk1::chrono::steady_clock, asio::wait_traits<std::__ndk1::chrono::steady_clock> > >, std::__ndk1::function<void (std::__ndk1::error_code const&)>, std::__ndk1::error_code const&, asio::ip::basic_resolver_iterator<asio::ip::tcp>), websocketpp::transport::asio::endpoint<websocketpp::config::asio_client::transport_config>*, std::__ndk1::shared_ptr<websocketpp::transport::asio::connection<websocketpp::config::asio_client::transport_config> >&, std::__ndk1::shared_ptr<asio::basic_waitable_timer<std::__ndk1::chrono::steady_clock, asio::wait_traits<std::__ndk1::chrono::steady_clock> > >&, std::__ndk1::function<void (std::__ndk1::error_code const&)>&, std::__ndk1::placeholders::__ph<1> const&, std::__ndk1::placeholders::__ph<2> const&>, asio::detail::is_continuation_if_running>&)
PUBLIC e1298 0 asio::detail::resolve_query_op<asio::ip::tcp, asio::detail::wrapped_handler<asio::io_context::strand, std::__ndk1::__bind<void (websocketpp::transport::asio::endpoint<websocketpp::config::asio_client::transport_config>::*)(std::__ndk1::shared_ptr<websocketpp::transport::asio::connection<websocketpp::config::asio_client::transport_config> >, std::__ndk1::shared_ptr<asio::basic_waitable_timer<std::__ndk1::chrono::steady_clock, asio::wait_traits<std::__ndk1::chrono::steady_clock> > >, std::__ndk1::function<void (std::__ndk1::error_code const&)>, std::__ndk1::error_code const&, asio::ip::basic_resolver_iterator<asio::ip::tcp>), websocketpp::transport::asio::endpoint<websocketpp::config::asio_client::transport_config>*, std::__ndk1::shared_ptr<websocketpp::transport::asio::connection<websocketpp::config::asio_client::transport_config> >&, std::__ndk1::shared_ptr<asio::basic_waitable_timer<std::__ndk1::chrono::steady_clock, asio::wait_traits<std::__ndk1::chrono::steady_clock> > >&, std::__ndk1::function<void (std::__ndk1::error_code const&)>&, std::__ndk1::placeholders::__ph<1> const&, std::__ndk1::placeholders::__ph<2> const&>, asio::detail::is_continuation_if_running> >::resolve_query_op(std::__ndk1::weak_ptr<void>, asio::ip::basic_resolver_query<asio::ip::tcp> const&, asio::detail::scheduler&, asio::detail::wrapped_handler<asio::io_context::strand, std::__ndk1::__bind<void (websocketpp::transport::asio::endpoint<websocketpp::config::asio_client::transport_config>::*)(std::__ndk1::shared_ptr<websocketpp::transport::asio::connection<websocketpp::config::asio_client::transport_config> >, std::__ndk1::shared_ptr<asio::basic_waitable_timer<std::__ndk1::chrono::steady_clock, asio::wait_traits<std::__ndk1::chrono::steady_clock> > >, std::__ndk1::function<void (std::__ndk1::error_code const&)>, std::__ndk1::error_code const&, asio::ip::basic_resolver_iterator<asio::ip::tcp>), websocketpp::transport::asio::endpoint<websocketpp::config::asio_client::transport_config>*, std::__ndk1::shared_ptr<websocketpp::transport::asio::connection<websocketpp::config::asio_client::transport_config> >&, std::__ndk1::shared_ptr<asio::basic_waitable_timer<std::__ndk1::chrono::steady_clock, asio::wait_traits<std::__ndk1::chrono::steady_clock> > >&, std::__ndk1::function<void (std::__ndk1::error_code const&)>&, std::__ndk1::placeholders::__ph<1> const&, std::__ndk1::placeholders::__ph<2> const&>, asio::detail::is_continuation_if_running>&)
PUBLIC e1404 0 asio::detail::resolve_query_op<asio::ip::tcp, asio::detail::wrapped_handler<asio::io_context::strand, std::__ndk1::__bind<void (websocketpp::transport::asio::endpoint<websocketpp::config::asio_client::transport_config>::*)(std::__ndk1::shared_ptr<websocketpp::transport::asio::connection<websocketpp::config::asio_client::transport_config> >, std::__ndk1::shared_ptr<asio::basic_waitable_timer<std::__ndk1::chrono::steady_clock, asio::wait_traits<std::__ndk1::chrono::steady_clock> > >, std::__ndk1::function<void (std::__ndk1::error_code const&)>, std::__ndk1::error_code const&, asio::ip::basic_resolver_iterator<asio::ip::tcp>), websocketpp::transport::asio::endpoint<websocketpp::config::asio_client::transport_config>*, std::__ndk1::shared_ptr<websocketpp::transport::asio::connection<websocketpp::config::asio_client::transport_config> >&, std::__ndk1::shared_ptr<asio::basic_waitable_timer<std::__ndk1::chrono::steady_clock, asio::wait_traits<std::__ndk1::chrono::steady_clock> > >&, std::__ndk1::function<void (std::__ndk1::error_code const&)>&, std::__ndk1::placeholders::__ph<1> const&, std::__ndk1::placeholders::__ph<2> const&>, asio::detail::is_continuation_if_running> >::ptr::~ptr()
PUBLIC e1458 0 asio::detail::resolve_query_op<asio::ip::tcp, asio::detail::wrapped_handler<asio::io_context::strand, std::__ndk1::__bind<void (websocketpp::transport::asio::endpoint<websocketpp::config::asio_client::transport_config>::*)(std::__ndk1::shared_ptr<websocketpp::transport::asio::connection<websocketpp::config::asio_client::transport_config> >, std::__ndk1::shared_ptr<asio::basic_waitable_timer<std::__ndk1::chrono::steady_clock, asio::wait_traits<std::__ndk1::chrono::steady_clock> > >, std::__ndk1::function<void (std::__ndk1::error_code const&)>, std::__ndk1::error_code const&, asio::ip::basic_resolver_iterator<asio::ip::tcp>), websocketpp::transport::asio::endpoint<websocketpp::config::asio_client::transport_config>*, std::__ndk1::shared_ptr<websocketpp::transport::asio::connection<websocketpp::config::asio_client::transport_config> >&, std::__ndk1::shared_ptr<asio::basic_waitable_timer<std::__ndk1::chrono::steady_clock, asio::wait_traits<std::__ndk1::chrono::steady_clock> > >&, std::__ndk1::function<void (std::__ndk1::error_code const&)>&, std::__ndk1::placeholders::__ph<1> const&, std::__ndk1::placeholders::__ph<2> const&>, asio::detail::is_continuation_if_running> >::do_complete(void*, asio::detail::scheduler_operation*, std::__ndk1::error_code const&, unsigned long)
PUBLIC m e1a24 0 asio::detail::scheduler::post_deferred_completion(asio::detail::scheduler_operation*)
PUBLIC m e1bdc 0 asio::ip::basic_resolver_iterator<asio::ip::tcp>::~basic_resolver_iterator()
PUBLIC m e1c2c 0 asio::ip::basic_resolver_results<asio::ip::tcp>::create(addrinfo*, std::__ndk1::basic_string<char, std::__ndk1::char_traits<char>, std::__ndk1::allocator<char> > const&, std::__ndk1::basic_string<char, std::__ndk1::char_traits<char>, std::__ndk1::allocator<char> > const&)
PUBLIC e1e98 0 asio::detail::binder2<asio::detail::wrapped_handler<asio::io_context::strand, std::__ndk1::__bind<void (websocketpp::transport::asio::endpoint<websocketpp::config::asio_client::transport_config>::*)(std::__ndk1::shared_ptr<websocketpp::transport::asio::connection<websocketpp::config::asio_client::transport_config> >, std::__ndk1::shared_ptr<asio::basic_waitable_timer<std::__ndk1::chrono::steady_clock, asio::wait_traits<std::__ndk1::chrono::steady_clock> > >, std::__ndk1::function<void (std::__ndk1::error_code const&)>, std::__ndk1::error_code const&, asio::ip::basic_resolver_iterator<asio::ip::tcp>), websocketpp::transport::asio::endpoint<websocketpp::config::asio_client::transport_config>*, std::__ndk1::shared_ptr<websocketpp::transport::asio::connection<websocketpp::config::asio_client::transport_config> >&, std::__ndk1::shared_ptr<asio::basic_waitable_timer<std::__ndk1::chrono::steady_clock, asio::wait_traits<std::__ndk1::chrono::steady_clock> > >&, std::__ndk1::function<void (std::__ndk1::error_code const&)>&, std::__ndk1::placeholders::__ph<1> const&, std::__ndk1::placeholders::__ph<2> const&>, asio::detail::is_continuation_if_running>, std::__ndk1::error_code, asio::ip::basic_resolver_results<asio::ip::tcp> >::~binder2()
PUBLIC m e1f98 0 asio::detail::socket_ops::translate_addrinfo_error(int)
PUBLIC e2460 0 std::__ndk1::shared_ptr<std::__ndk1::vector<asio::ip::basic_resolver_entry<asio::ip::tcp>, std::__ndk1::allocator<asio::ip::basic_resolver_entry<asio::ip::tcp> > > >::reset[abi:v170000]<std::__ndk1::vector<asio::ip::basic_resolver_entry<asio::ip::tcp>, std::__ndk1::allocator<asio::ip::basic_resolver_entry<asio::ip::tcp> > >, void>(std::__ndk1::vector<asio::ip::basic_resolver_entry<asio::ip::tcp>, std::__ndk1::allocator<asio::ip::basic_resolver_entry<asio::ip::tcp> > >*)
PUBLIC m e2570 0 asio::ip::basic_resolver_entry<asio::ip::tcp>::~basic_resolver_entry()
PUBLIC e25b4 0 std::__ndk1::__shared_ptr_pointer<std::__ndk1::vector<asio::ip::basic_resolver_entry<asio::ip::tcp>, std::__ndk1::allocator<asio::ip::basic_resolver_entry<asio::ip::tcp> > >*, std::__ndk1::shared_ptr<std::__ndk1::vector<asio::ip::basic_resolver_entry<asio::ip::tcp>, std::__ndk1::allocator<asio::ip::basic_resolver_entry<asio::ip::tcp> > > >::__shared_ptr_default_delete<std::__ndk1::vector<asio::ip::basic_resolver_entry<asio::ip::tcp>, std::__ndk1::allocator<asio::ip::basic_resolver_entry<asio::ip::tcp> > >, std::__ndk1::vector<asio::ip::basic_resolver_entry<asio::ip::tcp>, std::__ndk1::allocator<asio::ip::basic_resolver_entry<asio::ip::tcp> > > >, std::__ndk1::allocator<std::__ndk1::vector<asio::ip::basic_resolver_entry<asio::ip::tcp>, std::__ndk1::allocator<asio::ip::basic_resolver_entry<asio::ip::tcp> > > > >::~__shared_ptr_pointer()
PUBLIC e25d8 0 std::__ndk1::__shared_ptr_pointer<std::__ndk1::vector<asio::ip::basic_resolver_entry<asio::ip::tcp>, std::__ndk1::allocator<asio::ip::basic_resolver_entry<asio::ip::tcp> > >*, std::__ndk1::shared_ptr<std::__ndk1::vector<asio::ip::basic_resolver_entry<asio::ip::tcp>, std::__ndk1::allocator<asio::ip::basic_resolver_entry<asio::ip::tcp> > > >::__shared_ptr_default_delete<std::__ndk1::vector<asio::ip::basic_resolver_entry<asio::ip::tcp>, std::__ndk1::allocator<asio::ip::basic_resolver_entry<asio::ip::tcp> > >, std::__ndk1::vector<asio::ip::basic_resolver_entry<asio::ip::tcp>, std::__ndk1::allocator<asio::ip::basic_resolver_entry<asio::ip::tcp> > > >, std::__ndk1::allocator<std::__ndk1::vector<asio::ip::basic_resolver_entry<asio::ip::tcp>, std::__ndk1::allocator<asio::ip::basic_resolver_entry<asio::ip::tcp> > > > >::__on_zero_shared()
PUBLIC e2680 0 std::__ndk1::__shared_ptr_pointer<std::__ndk1::vector<asio::ip::basic_resolver_entry<asio::ip::tcp>, std::__ndk1::allocator<asio::ip::basic_resolver_entry<asio::ip::tcp> > >*, std::__ndk1::shared_ptr<std::__ndk1::vector<asio::ip::basic_resolver_entry<asio::ip::tcp>, std::__ndk1::allocator<asio::ip::basic_resolver_entry<asio::ip::tcp> > > >::__shared_ptr_default_delete<std::__ndk1::vector<asio::ip::basic_resolver_entry<asio::ip::tcp>, std::__ndk1::allocator<asio::ip::basic_resolver_entry<asio::ip::tcp> > >, std::__ndk1::vector<asio::ip::basic_resolver_entry<asio::ip::tcp>, std::__ndk1::allocator<asio::ip::basic_resolver_entry<asio::ip::tcp> > > >, std::__ndk1::allocator<std::__ndk1::vector<asio::ip::basic_resolver_entry<asio::ip::tcp>, std::__ndk1::allocator<asio::ip::basic_resolver_entry<asio::ip::tcp> > > > >::__get_deleter(std::type_info const&) const
PUBLIC e269c 0 std::__ndk1::__shared_ptr_pointer<std::__ndk1::vector<asio::ip::basic_resolver_entry<asio::ip::tcp>, std::__ndk1::allocator<asio::ip::basic_resolver_entry<asio::ip::tcp> > >*, std::__ndk1::shared_ptr<std::__ndk1::vector<asio::ip::basic_resolver_entry<asio::ip::tcp>, std::__ndk1::allocator<asio::ip::basic_resolver_entry<asio::ip::tcp> > > >::__shared_ptr_default_delete<std::__ndk1::vector<asio::ip::basic_resolver_entry<asio::ip::tcp>, std::__ndk1::allocator<asio::ip::basic_resolver_entry<asio::ip::tcp> > >, std::__ndk1::vector<asio::ip::basic_resolver_entry<asio::ip::tcp>, std::__ndk1::allocator<asio::ip::basic_resolver_entry<asio::ip::tcp> > > >, std::__ndk1::allocator<std::__ndk1::vector<asio::ip::basic_resolver_entry<asio::ip::tcp>, std::__ndk1::allocator<asio::ip::basic_resolver_entry<asio::ip::tcp> > > > >::__on_zero_shared_weak()
PUBLIC e26a0 0 std::__ndk1::vector<asio::ip::basic_resolver_entry<asio::ip::tcp>, std::__ndk1::allocator<asio::ip::basic_resolver_entry<asio::ip::tcp> > >::__push_back_slow_path<asio::ip::basic_resolver_entry<asio::ip::tcp> >(asio::ip::basic_resolver_entry<asio::ip::tcp>&&)
PUBLIC e2884 0 std::__ndk1::vector<asio::ip::basic_resolver_entry<asio::ip::tcp>, std::__ndk1::allocator<asio::ip::basic_resolver_entry<asio::ip::tcp> > >::__swap_out_circular_buffer(std::__ndk1::__split_buffer<asio::ip::basic_resolver_entry<asio::ip::tcp>, std::__ndk1::allocator<asio::ip::basic_resolver_entry<asio::ip::tcp> >&>&)
PUBLIC e29b8 0 std::__ndk1::__split_buffer<asio::ip::basic_resolver_entry<asio::ip::tcp>, std::__ndk1::allocator<asio::ip::basic_resolver_entry<asio::ip::tcp> >&>::~__split_buffer()
PUBLIC e2a34 0 std::__ndk1::vector<asio::ip::basic_resolver_entry<asio::ip::tcp>, std::__ndk1::allocator<asio::ip::basic_resolver_entry<asio::ip::tcp> > >::__throw_length_error[abi:v170000]() const
PUBLIC e2a48 0 asio::detail::resolve_query_op<asio::ip::tcp, asio::detail::wrapped_handler<asio::io_context::strand, std::__ndk1::__bind<void (websocketpp::transport::asio::endpoint<websocketpp::config::asio_client::transport_config>::*)(std::__ndk1::shared_ptr<websocketpp::transport::asio::connection<websocketpp::config::asio_client::transport_config> >, std::__ndk1::shared_ptr<asio::basic_waitable_timer<std::__ndk1::chrono::steady_clock, asio::wait_traits<std::__ndk1::chrono::steady_clock> > >, std::__ndk1::function<void (std::__ndk1::error_code const&)>, std::__ndk1::error_code const&, asio::ip::basic_resolver_iterator<asio::ip::tcp>), websocketpp::transport::asio::endpoint<websocketpp::config::asio_client::transport_config>*, std::__ndk1::shared_ptr<websocketpp::transport::asio::connection<websocketpp::config::asio_client::transport_config> >&, std::__ndk1::shared_ptr<asio::basic_waitable_timer<std::__ndk1::chrono::steady_clock, asio::wait_traits<std::__ndk1::chrono::steady_clock> > >&, std::__ndk1::function<void (std::__ndk1::error_code const&)>&, std::__ndk1::placeholders::__ph<1> const&, std::__ndk1::placeholders::__ph<2> const&>, asio::detail::is_continuation_if_running> >::~resolve_query_op()
PUBLIC e2b54 0 _ZN4asio6detail17rewrapped_handlerINS0_7binder2INS0_15wrapped_handlerINS_10io_context6strandENSt6__ndk16__bindIMN11websocketpp9transport4asio8endpointINS8_6config11asio_client16transport_configEEEFvNS6_10shared_ptrINSA_10connectionISE_EEEENSG_INS_20basic_waitable_timerINS6_6chrono12steady_clockENS_11wait_traitsISM_EEEEEENS6_8functionIFvRKNS6_10error_codeEEEESU_NS_2ip23basic_resolver_iteratorINSX_3tcpEEEEJPSF_RSJ_RSQ_RSW_RKNS6_12placeholders4__phILi1EEERKNS18_ILi2EEEEEENS0_26is_continuation_if_runningEEESS_NSX_22basic_resolver_resultsISZ_EEEES1F_EC2ERS1K_RKS1F_
PUBLIC e2c24 0 asio::detail::rewrapped_handler<asio::detail::binder2<asio::detail::wrapped_handler<asio::io_context::strand, std::__ndk1::__bind<void (websocketpp::transport::asio::endpoint<websocketpp::config::asio_client::transport_config>::*)(std::__ndk1::shared_ptr<websocketpp::transport::asio::connection<websocketpp::config::asio_client::transport_config> >, std::__ndk1::shared_ptr<asio::basic_waitable_timer<std::__ndk1::chrono::steady_clock, asio::wait_traits<std::__ndk1::chrono::steady_clock> > >, std::__ndk1::function<void (std::__ndk1::error_code const&)>, std::__ndk1::error_code const&, asio::ip::basic_resolver_iterator<asio::ip::tcp>), websocketpp::transport::asio::endpoint<websocketpp::config::asio_client::transport_config>*, std::__ndk1::shared_ptr<websocketpp::transport::asio::connection<websocketpp::config::asio_client::transport_config> >&, std::__ndk1::shared_ptr<asio::basic_waitable_timer<std::__ndk1::chrono::steady_clock, asio::wait_traits<std::__ndk1::chrono::steady_clock> > >&, std::__ndk1::function<void (std::__ndk1::error_code const&)>&, std::__ndk1::placeholders::__ph<1> const&, std::__ndk1::placeholders::__ph<2> const&>, asio::detail::is_continuation_if_running>, std::__ndk1::error_code, asio::ip::basic_resolver_results<asio::ip::tcp> >, std::__ndk1::__bind<void (websocketpp::transport::asio::endpoint<websocketpp::config::asio_client::transport_config>::*)(std::__ndk1::shared_ptr<websocketpp::transport::asio::connection<websocketpp::config::asio_client::transport_config> >, std::__ndk1::shared_ptr<asio::basic_waitable_timer<std::__ndk1::chrono::steady_clock, asio::wait_traits<std::__ndk1::chrono::steady_clock> > >, std::__ndk1::function<void (std::__ndk1::error_code const&)>, std::__ndk1::error_code const&, asio::ip::basic_resolver_iterator<asio::ip::tcp>), websocketpp::transport::asio::endpoint<websocketpp::config::asio_client::transport_config>*, std::__ndk1::shared_ptr<websocketpp::transport::asio::connection<websocketpp::config::asio_client::transport_config> >&, std::__ndk1::shared_ptr<asio::basic_waitable_timer<std::__ndk1::chrono::steady_clock, asio::wait_traits<std::__ndk1::chrono::steady_clock> > >&, std::__ndk1::function<void (std::__ndk1::error_code const&)>&, std::__ndk1::placeholders::__ph<1> const&, std::__ndk1::placeholders::__ph<2> const&> >::~rewrapped_handler()
PUBLIC e2dc4 0 _ZN4asio6detail14strand_service8dispatchINS0_17rewrapped_handlerINS0_7binder2INS0_15wrapped_handlerINS_10io_context6strandENSt6__ndk16__bindIMN11websocketpp9transport4asio8endpointINSA_6config11asio_client16transport_configEEEFvNS8_10shared_ptrINSC_10connectionISG_EEEENSI_INS_20basic_waitable_timerINS8_6chrono12steady_clockENS_11wait_traitsISO_EEEEEENS8_8functionIFvRKNS8_10error_codeEEEESW_NS_2ip23basic_resolver_iteratorINSZ_3tcpEEEEJPSH_RSL_RSS_RSY_RKNS8_12placeholders4__phILi1EEERKNS1A_ILi2EEEEEENS0_26is_continuation_if_runningEEESU_NSZ_22basic_resolver_resultsIS11_EEEES1H_EEEEvRPNS1_11strand_implERT_
PUBLIC e3044 0 asio::detail::completion_handler<asio::detail::rewrapped_handler<asio::detail::binder2<asio::detail::wrapped_handler<asio::io_context::strand, std::__ndk1::__bind<void (websocketpp::transport::asio::endpoint<websocketpp::config::asio_client::transport_config>::*)(std::__ndk1::shared_ptr<websocketpp::transport::asio::connection<websocketpp::config::asio_client::transport_config> >, std::__ndk1::shared_ptr<asio::basic_waitable_timer<std::__ndk1::chrono::steady_clock, asio::wait_traits<std::__ndk1::chrono::steady_clock> > >, std::__ndk1::function<void (std::__ndk1::error_code const&)>, std::__ndk1::error_code const&, asio::ip::basic_resolver_iterator<asio::ip::tcp>), websocketpp::transport::asio::endpoint<websocketpp::config::asio_client::transport_config>*, std::__ndk1::shared_ptr<websocketpp::transport::asio::connection<websocketpp::config::asio_client::transport_config> >&, std::__ndk1::shared_ptr<asio::basic_waitable_timer<std::__ndk1::chrono::steady_clock, asio::wait_traits<std::__ndk1::chrono::steady_clock> > >&, std::__ndk1::function<void (std::__ndk1::error_code const&)>&, std::__ndk1::placeholders::__ph<1> const&, std::__ndk1::placeholders::__ph<2> const&>, asio::detail::is_continuation_if_running>, std::__ndk1::error_code, asio::ip::basic_resolver_results<asio::ip::tcp> >, std::__ndk1::__bind<void (websocketpp::transport::asio::endpoint<websocketpp::config::asio_client::transport_config>::*)(std::__ndk1::shared_ptr<websocketpp::transport::asio::connection<websocketpp::config::asio_client::transport_config> >, std::__ndk1::shared_ptr<asio::basic_waitable_timer<std::__ndk1::chrono::steady_clock, asio::wait_traits<std::__ndk1::chrono::steady_clock> > >, std::__ndk1::function<void (std::__ndk1::error_code const&)>, std::__ndk1::error_code const&, asio::ip::basic_resolver_iterator<asio::ip::tcp>), websocketpp::transport::asio::endpoint<websocketpp::config::asio_client::transport_config>*, std::__ndk1::shared_ptr<websocketpp::transport::asio::connection<websocketpp::config::asio_client::transport_config> >&, std::__ndk1::shared_ptr<asio::basic_waitable_timer<std::__ndk1::chrono::steady_clock, asio::wait_traits<std::__ndk1::chrono::steady_clock> > >&, std::__ndk1::function<void (std::__ndk1::error_code const&)>&, std::__ndk1::placeholders::__ph<1> const&, std::__ndk1::placeholders::__ph<2> const&> > >::do_complete(void*, asio::detail::scheduler_operation*, std::__ndk1::error_code const&, unsigned long)
PUBLIC e314c 0 asio::detail::completion_handler<asio::detail::rewrapped_handler<asio::detail::binder2<asio::detail::wrapped_handler<asio::io_context::strand, std::__ndk1::__bind<void (websocketpp::transport::asio::endpoint<websocketpp::config::asio_client::transport_config>::*)(std::__ndk1::shared_ptr<websocketpp::transport::asio::connection<websocketpp::config::asio_client::transport_config> >, std::__ndk1::shared_ptr<asio::basic_waitable_timer<std::__ndk1::chrono::steady_clock, asio::wait_traits<std::__ndk1::chrono::steady_clock> > >, std::__ndk1::function<void (std::__ndk1::error_code const&)>, std::__ndk1::error_code const&, asio::ip::basic_resolver_iterator<asio::ip::tcp>), websocketpp::transport::asio::endpoint<websocketpp::config::asio_client::transport_config>*, std::__ndk1::shared_ptr<websocketpp::transport::asio::connection<websocketpp::config::asio_client::transport_config> >&, std::__ndk1::shared_ptr<asio::basic_waitable_timer<std::__ndk1::chrono::steady_clock, asio::wait_traits<std::__ndk1::chrono::steady_clock> > >&, std::__ndk1::function<void (std::__ndk1::error_code const&)>&, std::__ndk1::placeholders::__ph<1> const&, std::__ndk1::placeholders::__ph<2> const&>, asio::detail::is_continuation_if_running>, std::__ndk1::error_code, asio::ip::basic_resolver_results<asio::ip::tcp> >, std::__ndk1::__bind<void (websocketpp::transport::asio::endpoint<websocketpp::config::asio_client::transport_config>::*)(std::__ndk1::shared_ptr<websocketpp::transport::asio::connection<websocketpp::config::asio_client::transport_config> >, std::__ndk1::shared_ptr<asio::basic_waitable_timer<std::__ndk1::chrono::steady_clock, asio::wait_traits<std::__ndk1::chrono::steady_clock> > >, std::__ndk1::function<void (std::__ndk1::error_code const&)>, std::__ndk1::error_code const&, asio::ip::basic_resolver_iterator<asio::ip::tcp>), websocketpp::transport::asio::endpoint<websocketpp::config::asio_client::transport_config>*, std::__ndk1::shared_ptr<websocketpp::transport::asio::connection<websocketpp::config::asio_client::transport_config> >&, std::__ndk1::shared_ptr<asio::basic_waitable_timer<std::__ndk1::chrono::steady_clock, asio::wait_traits<std::__ndk1::chrono::steady_clock> > >&, std::__ndk1::function<void (std::__ndk1::error_code const&)>&, std::__ndk1::placeholders::__ph<1> const&, std::__ndk1::placeholders::__ph<2> const&> > >::ptr::~ptr()
PUBLIC e31a4 0 asio::detail::wrapped_handler<asio::io_context::strand, std::__ndk1::__bind<void (websocketpp::transport::asio::endpoint<websocketpp::config::asio_client::transport_config>::*)(std::__ndk1::shared_ptr<websocketpp::transport::asio::connection<websocketpp::config::asio_client::transport_config> >, std::__ndk1::shared_ptr<asio::basic_waitable_timer<std::__ndk1::chrono::steady_clock, asio::wait_traits<std::__ndk1::chrono::steady_clock> > >, std::__ndk1::function<void (std::__ndk1::error_code const&)>, std::__ndk1::error_code const&, asio::ip::basic_resolver_iterator<asio::ip::tcp>), websocketpp::transport::asio::endpoint<websocketpp::config::asio_client::transport_config>*, std::__ndk1::shared_ptr<websocketpp::transport::asio::connection<websocketpp::config::asio_client::transport_config> >&, std::__ndk1::shared_ptr<asio::basic_waitable_timer<std::__ndk1::chrono::steady_clock, asio::wait_traits<std::__ndk1::chrono::steady_clock> > >&, std::__ndk1::function<void (std::__ndk1::error_code const&)>&, std::__ndk1::placeholders::__ph<1> const&, std::__ndk1::placeholders::__ph<2> const&>, asio::detail::is_continuation_if_running>::operator()<std::__ndk1::error_code, asio::ip::basic_resolver_results<asio::ip::tcp> >(std::__ndk1::error_code const&, asio::ip::basic_resolver_results<asio::ip::tcp> const&)
PUBLIC e3348 0 asio::detail::binder2<std::__ndk1::__bind<void (websocketpp::transport::asio::endpoint<websocketpp::config::asio_client::transport_config>::*)(std::__ndk1::shared_ptr<websocketpp::transport::asio::connection<websocketpp::config::asio_client::transport_config> >, std::__ndk1::shared_ptr<asio::basic_waitable_timer<std::__ndk1::chrono::steady_clock, asio::wait_traits<std::__ndk1::chrono::steady_clock> > >, std::__ndk1::function<void (std::__ndk1::error_code const&)>, std::__ndk1::error_code const&, asio::ip::basic_resolver_iterator<asio::ip::tcp>), websocketpp::transport::asio::endpoint<websocketpp::config::asio_client::transport_config>*, std::__ndk1::shared_ptr<websocketpp::transport::asio::connection<websocketpp::config::asio_client::transport_config> >&, std::__ndk1::shared_ptr<asio::basic_waitable_timer<std::__ndk1::chrono::steady_clock, asio::wait_traits<std::__ndk1::chrono::steady_clock> > >&, std::__ndk1::function<void (std::__ndk1::error_code const&)>&, std::__ndk1::placeholders::__ph<1> const&, std::__ndk1::placeholders::__ph<2> const&>, std::__ndk1::error_code, asio::ip::basic_resolver_results<asio::ip::tcp> >::~binder2()
PUBLIC e3448 0 asio::detail::strand_service::dispatch<asio::detail::binder2<std::__ndk1::__bind<void (websocketpp::transport::asio::endpoint<websocketpp::config::asio_client::transport_config>::*)(std::__ndk1::shared_ptr<websocketpp::transport::asio::connection<websocketpp::config::asio_client::transport_config> >, std::__ndk1::shared_ptr<asio::basic_waitable_timer<std::__ndk1::chrono::steady_clock, asio::wait_traits<std::__ndk1::chrono::steady_clock> > >, std::__ndk1::function<void (std::__ndk1::error_code const&)>, std::__ndk1::error_code const&, asio::ip::basic_resolver_iterator<asio::ip::tcp>), websocketpp::transport::asio::endpoint<websocketpp::config::asio_client::transport_config>*, std::__ndk1::shared_ptr<websocketpp::transport::asio::connection<websocketpp::config::asio_client::transport_config> >&, std::__ndk1::shared_ptr<asio::basic_waitable_timer<std::__ndk1::chrono::steady_clock, asio::wait_traits<std::__ndk1::chrono::steady_clock> > >&, std::__ndk1::function<void (std::__ndk1::error_code const&)>&, std::__ndk1::placeholders::__ph<1> const&, std::__ndk1::placeholders::__ph<2> const&>, std::__ndk1::error_code, asio::ip::basic_resolver_results<asio::ip::tcp> > >(asio::detail::strand_service::strand_impl*&, asio::detail::binder2<std::__ndk1::__bind<void (websocketpp::transport::asio::endpoint<websocketpp::config::asio_client::transport_config>::*)(std::__ndk1::shared_ptr<websocketpp::transport::asio::connection<websocketpp::config::asio_client::transport_config> >, std::__ndk1::shared_ptr<asio::basic_waitable_timer<std::__ndk1::chrono::steady_clock, asio::wait_traits<std::__ndk1::chrono::steady_clock> > >, std::__ndk1::function<void (std::__ndk1::error_code const&)>, std::__ndk1::error_code const&, asio::ip::basic_resolver_iterator<asio::ip::tcp>), websocketpp::transport::asio::endpoint<websocketpp::config::asio_client::transport_config>*, std::__ndk1::shared_ptr<websocketpp::transport::asio::connection<websocketpp::config::asio_client::transport_config> >&, std::__ndk1::shared_ptr<asio::basic_waitable_timer<std::__ndk1::chrono::steady_clock, asio::wait_traits<std::__ndk1::chrono::steady_clock> > >&, std::__ndk1::function<void (std::__ndk1::error_code const&)>&, std::__ndk1::placeholders::__ph<1> const&, std::__ndk1::placeholders::__ph<2> const&>, std::__ndk1::error_code, asio::ip::basic_resolver_results<asio::ip::tcp> >&)
PUBLIC e374c 0 asio::detail::completion_handler<asio::detail::binder2<std::__ndk1::__bind<void (websocketpp::transport::asio::endpoint<websocketpp::config::asio_client::transport_config>::*)(std::__ndk1::shared_ptr<websocketpp::transport::asio::connection<websocketpp::config::asio_client::transport_config> >, std::__ndk1::shared_ptr<asio::basic_waitable_timer<std::__ndk1::chrono::steady_clock, asio::wait_traits<std::__ndk1::chrono::steady_clock> > >, std::__ndk1::function<void (std::__ndk1::error_code const&)>, std::__ndk1::error_code const&, asio::ip::basic_resolver_iterator<asio::ip::tcp>), websocketpp::transport::asio::endpoint<websocketpp::config::asio_client::transport_config>*, std::__ndk1::shared_ptr<websocketpp::transport::asio::connection<websocketpp::config::asio_client::transport_config> >&, std::__ndk1::shared_ptr<asio::basic_waitable_timer<std::__ndk1::chrono::steady_clock, asio::wait_traits<std::__ndk1::chrono::steady_clock> > >&, std::__ndk1::function<void (std::__ndk1::error_code const&)>&, std::__ndk1::placeholders::__ph<1> const&, std::__ndk1::placeholders::__ph<2> const&>, std::__ndk1::error_code, asio::ip::basic_resolver_results<asio::ip::tcp> > >::do_complete(void*, asio::detail::scheduler_operation*, std::__ndk1::error_code const&, unsigned long)
PUBLIC e398c 0 std::__ndk1::__invoke[abi:v170000]<void (websocketpp::transport::asio::endpoint<std::__ndk1::__invoke[abi:v170000]::config::asio_client::transport_config>&::*)(std::__ndk1::shared_ptr<websocketpp::transport::connection<std::__ndk1::__invoke[abi:v170000]::config::asio_client> >, websocketpp::transport::asio::endpoint<std::__ndk1::__invoke[abi:v170000]::config::asio_client::transport_config><asio::basic_waitable_timer<std::__ndk1::chrono::steady_clock, std::__ndk1::shared_ptr<websocketpp::transport::connection<std::__ndk1::__invoke[abi:v170000]::config::asio_client> >::wait_traits<std::__ndk1::chrono> > >, std::__ndk1::function<void (std::__ndk1::error_code const&)>, std::__ndk1::error_code const, std::__ndk1::shared_ptr<websocketpp::transport::connection<std::__ndk1::__invoke[abi:v170000]::config::asio_client> >::ip::basic_resolver_iterator<std::__ndk1::function<void (std::__ndk1::error_code const&)>::tcp>), std::__ndk1::__invoke[abi:v170000]::config::asio_client::transport_config*&, websocketpp::transport::connection<std::__ndk1::__invoke[abi:v170000]::config::asio_client>&, asio::basic_waitable_timer<std::__ndk1::chrono::steady_clock, std::__ndk1::shared_ptr<websocketpp::transport::connection<std::__ndk1::__invoke[abi:v170000]::config::asio_client> >::wait_traits<std::__ndk1::chrono> >&, void (&)(std::__ndk1::error_code const&), std::__ndk1::error_code const, std::__ndk1::function<void (std::__ndk1::error_code const&)> const::basic_resolver_results<std::__ndk1::shared_ptr<websocketpp::transport::connection<std::__ndk1::__invoke[abi:v170000]::config::asio_client> >::ip::basic_resolver_iterator>&, void>(std::__ndk1::__invoke[abi:v170000]::config::asio_client::transport_config*&, std::__ndk1::function<void (std::__ndk1::error_code const&)> const::basic_resolver_results<std::__ndk1::shared_ptr<websocketpp::transport::connection<std::__ndk1::__invoke[abi:v170000]::config::asio_client> >::ip::basic_resolver_iterator>&, void (websocketpp::transport::asio::endpoint<std::__ndk1::__invoke[abi:v170000]::config::asio_client::transport_config>&::*)(std::__ndk1::shared_ptr<websocketpp::transport::connection<std::__ndk1::__invoke[abi:v170000]::config::asio_client> >, websocketpp::transport::asio::endpoint<std::__ndk1::__invoke[abi:v170000]::config::asio_client::transport_config><asio::basic_waitable_timer<std::__ndk1::chrono::steady_clock, std::__ndk1::shared_ptr<websocketpp::transport::connection<std::__ndk1::__invoke[abi:v170000]::config::asio_client> >::wait_traits<std::__ndk1::chrono> > >, std::__ndk1::function<void (std::__ndk1::error_code const&)>, std::__ndk1::error_code const, std::__ndk1::shared_ptr<websocketpp::transport::connection<std::__ndk1::__invoke[abi:v170000]::config::asio_client> >::ip::basic_resolver_iterator<std::__ndk1::function<void (std::__ndk1::error_code const&)>::tcp>))
PUBLIC e3bfc 0 asio::detail::completion_handler<asio::detail::binder2<std::__ndk1::__bind<void (websocketpp::transport::asio::endpoint<websocketpp::config::asio_client::transport_config>::*)(std::__ndk1::shared_ptr<websocketpp::transport::asio::connection<websocketpp::config::asio_client::transport_config> >, std::__ndk1::shared_ptr<asio::basic_waitable_timer<std::__ndk1::chrono::steady_clock, asio::wait_traits<std::__ndk1::chrono::steady_clock> > >, std::__ndk1::function<void (std::__ndk1::error_code const&)>, std::__ndk1::error_code const&, asio::ip::basic_resolver_iterator<asio::ip::tcp>), websocketpp::transport::asio::endpoint<websocketpp::config::asio_client::transport_config>*, std::__ndk1::shared_ptr<websocketpp::transport::asio::connection<websocketpp::config::asio_client::transport_config> >&, std::__ndk1::shared_ptr<asio::basic_waitable_timer<std::__ndk1::chrono::steady_clock, asio::wait_traits<std::__ndk1::chrono::steady_clock> > >&, std::__ndk1::function<void (std::__ndk1::error_code const&)>&, std::__ndk1::placeholders::__ph<1> const&, std::__ndk1::placeholders::__ph<2> const&>, std::__ndk1::error_code, asio::ip::basic_resolver_results<asio::ip::tcp> > >::ptr::reset()
PUBLIC e3d54 0 std::__ndk1::tuple<websocketpp::transport::asio::endpoint<websocketpp::config::asio_client::transport_config>*, std::__ndk1::shared_ptr<websocketpp::transport::asio::connection<websocketpp::config::asio_client::transport_config> >, std::__ndk1::shared_ptr<asio::basic_waitable_timer<std::__ndk1::chrono::steady_clock, asio::wait_traits<std::__ndk1::chrono::steady_clock> > >, std::__ndk1::function<void (std::__ndk1::error_code const&)>, std::__ndk1::placeholders::__ph<1>, std::__ndk1::placeholders::__ph<2> >::tuple(std::__ndk1::tuple<websocketpp::transport::asio::endpoint<websocketpp::config::asio_client::transport_config>*, std::__ndk1::shared_ptr<websocketpp::transport::asio::connection<websocketpp::config::asio_client::transport_config> >, std::__ndk1::shared_ptr<asio::basic_waitable_timer<std::__ndk1::chrono::steady_clock, asio::wait_traits<std::__ndk1::chrono::steady_clock> > >, std::__ndk1::function<void (std::__ndk1::error_code const&)>, std::__ndk1::placeholders::__ph<1>, std::__ndk1::placeholders::__ph<2> > const&)
PUBLIC e3e60 0 _ZN4asio6detail17rewrapped_handlerINS0_7binder2INS0_15wrapped_handlerINS_10io_context6strandENSt6__ndk16__bindIMN11websocketpp9transport4asio8endpointINS8_6config11asio_client16transport_configEEEFvNS6_10shared_ptrINSA_10connectionISE_EEEENSG_INS_20basic_waitable_timerINS6_6chrono12steady_clockENS_11wait_traitsISM_EEEEEENS6_8functionIFvRKNS6_10error_codeEEEESU_NS_2ip23basic_resolver_iteratorINSX_3tcpEEEEJPSF_RSJ_RSQ_RSW_RKNS6_12placeholders4__phILi1EEERKNS18_ILi2EEEEEENS0_26is_continuation_if_runningEEESS_NSX_22basic_resolver_resultsISZ_EEEES1F_EC2EOS1L_
PUBLIC m e3f90 0 asio::detail::resolver_service_base::start_work_thread()
PUBLIC e40a4 0 std::__ndk1::tuple<websocketpp::transport::asio::endpoint<websocketpp::config::asio_client::transport_config>*, std::__ndk1::shared_ptr<websocketpp::transport::asio::connection<websocketpp::config::asio_client::transport_config> >, std::__ndk1::shared_ptr<asio::basic_waitable_timer<std::__ndk1::chrono::steady_clock, asio::wait_traits<std::__ndk1::chrono::steady_clock> > >, std::__ndk1::function<void (std::__ndk1::error_code const&)>, std::__ndk1::placeholders::__ph<1>, std::__ndk1::placeholders::__ph<2> >::tuple[abi:v170000]<websocketpp::transport::asio::endpoint<websocketpp::config::asio_client::transport_config>*, std::__ndk1::shared_ptr<websocketpp::transport::asio::connection<websocketpp::config::asio_client::transport_config> >&, std::__ndk1::shared_ptr<asio::basic_waitable_timer<std::__ndk1::chrono::steady_clock, asio::wait_traits<std::__ndk1::chrono::steady_clock> > >&, std::__ndk1::function<void (std::__ndk1::error_code const&)>&, std::__ndk1::placeholders::__ph<1> const&, std::__ndk1::placeholders::__ph<2> const&, 0>()
PUBLIC e41b0 0 websocketpp::transport::asio::endpoint<websocketpp::config::asio_client::transport_config>::handle_connect_timeout(std::__ndk1::shared_ptr<websocketpp::transport::asio::connection<websocketpp::config::asio_client::transport_config> >, std::__ndk1::shared_ptr<asio::basic_waitable_timer<std::__ndk1::chrono::steady_clock, asio::wait_traits<std::__ndk1::chrono::steady_clock> > >, std::__ndk1::function<void (std::__ndk1::error_code const&)>, std::__ndk1::error_code const&)
PUBLIC e43ac 0 std::__ndk1::__bind<void (websocketpp::transport::asio::endpoint<websocketpp::config::asio_client::transport_config>::*)(std::__ndk1::shared_ptr<websocketpp::transport::asio::connection<websocketpp::config::asio_client::transport_config> >, std::__ndk1::shared_ptr<asio::basic_waitable_timer<std::__ndk1::chrono::steady_clock, asio::wait_traits<std::__ndk1::chrono::steady_clock> > >, std::__ndk1::function<void (std::__ndk1::error_code const&)>, std::__ndk1::error_code const&), websocketpp::transport::asio::endpoint<websocketpp::config::asio_client::transport_config>*, std::__ndk1::shared_ptr<websocketpp::transport::asio::connection<websocketpp::config::asio_client::transport_config> >&, std::__ndk1::shared_ptr<asio::basic_waitable_timer<std::__ndk1::chrono::steady_clock, asio::wait_traits<std::__ndk1::chrono::steady_clock> > >&, std::__ndk1::function<void (std::__ndk1::error_code const&)>&, std::__ndk1::placeholders::__ph<1> const&>::~__bind()
PUBLIC e446c 0 asio::async_connect<asio::ip::tcp, asio::ip::basic_resolver_iterator<asio::ip::tcp>, asio::detail::wrapped_handler<asio::io_context::strand, std::__ndk1::__bind<void (websocketpp::transport::asio::endpoint<websocketpp::config::asio_client::transport_config>::*)(std::__ndk1::shared_ptr<websocketpp::transport::asio::connection<websocketpp::config::asio_client::transport_config> >, std::__ndk1::shared_ptr<asio::basic_waitable_timer<std::__ndk1::chrono::steady_clock, asio::wait_traits<std::__ndk1::chrono::steady_clock> > >, std::__ndk1::function<void (std::__ndk1::error_code const&)>, std::__ndk1::error_code const&), websocketpp::transport::asio::endpoint<websocketpp::config::asio_client::transport_config>*, std::__ndk1::shared_ptr<websocketpp::transport::asio::connection<websocketpp::config::asio_client::transport_config> >&, std::__ndk1::shared_ptr<asio::basic_waitable_timer<std::__ndk1::chrono::steady_clock, asio::wait_traits<std::__ndk1::chrono::steady_clock> > >&, std::__ndk1::function<void (std::__ndk1::error_code const&)>&, std::__ndk1::placeholders::__ph<1> const&>, asio::detail::is_continuation_if_running> >(asio::basic_socket<asio::ip::tcp>&, asio::ip::basic_resolver_iterator<asio::ip::tcp>, asio::detail::wrapped_handler<asio::io_context::strand, std::__ndk1::__bind<void (websocketpp::transport::asio::endpoint<websocketpp::config::asio_client::transport_config>::*)(std::__ndk1::shared_ptr<websocketpp::transport::asio::connection<websocketpp::config::asio_client::transport_config> >, std::__ndk1::shared_ptr<asio::basic_waitable_timer<std::__ndk1::chrono::steady_clock, asio::wait_traits<std::__ndk1::chrono::steady_clock> > >, std::__ndk1::function<void (std::__ndk1::error_code const&)>, std::__ndk1::error_code const&), websocketpp::transport::asio::endpoint<websocketpp::config::asio_client::transport_config>*, std::__ndk1::shared_ptr<websocketpp::transport::asio::connection<websocketpp::config::asio_client::transport_config> >&, std::__ndk1::shared_ptr<asio::basic_waitable_timer<std::__ndk1::chrono::steady_clock, asio::wait_traits<std::__ndk1::chrono::steady_clock> > >&, std::__ndk1::function<void (std::__ndk1::error_code const&)>&, std::__ndk1::placeholders::__ph<1> const&>, asio::detail::is_continuation_if_running>&&, std::__ndk1::enable_if<!(is_endpoint_sequence<asio::ip::basic_resolver_iterator<asio::ip::tcp> >::value), void>::type*)
PUBLIC e4610 0 websocketpp::transport::asio::endpoint<websocketpp::config::asio_client::transport_config>::handle_connect(std::__ndk1::shared_ptr<websocketpp::transport::asio::connection<websocketpp::config::asio_client::transport_config> >, std::__ndk1::shared_ptr<asio::basic_waitable_timer<std::__ndk1::chrono::steady_clock, asio::wait_traits<std::__ndk1::chrono::steady_clock> > >, std::__ndk1::function<void (std::__ndk1::error_code const&)>, std::__ndk1::error_code const&)
PUBLIC e494c 0 asio::detail::wrapped_handler<asio::io_context::strand, std::__ndk1::__bind<void (websocketpp::transport::asio::endpoint<websocketpp::config::asio_client::transport_config>::*)(std::__ndk1::shared_ptr<websocketpp::transport::asio::connection<websocketpp::config::asio_client::transport_config> >, std::__ndk1::shared_ptr<asio::basic_waitable_timer<std::__ndk1::chrono::steady_clock, asio::wait_traits<std::__ndk1::chrono::steady_clock> > >, std::__ndk1::function<void (std::__ndk1::error_code const&)>, std::__ndk1::error_code const&), websocketpp::transport::asio::endpoint<websocketpp::config::asio_client::transport_config>*, std::__ndk1::shared_ptr<websocketpp::transport::asio::connection<websocketpp::config::asio_client::transport_config> >&, std::__ndk1::shared_ptr<asio::basic_waitable_timer<std::__ndk1::chrono::steady_clock, asio::wait_traits<std::__ndk1::chrono::steady_clock> > >&, std::__ndk1::function<void (std::__ndk1::error_code const&)>&, std::__ndk1::placeholders::__ph<1> const&>, asio::detail::is_continuation_if_running>::~wrapped_handler()
PUBLIC e4a0c 0 std::__ndk1::tuple<websocketpp::transport::asio::endpoint<websocketpp::config::asio_client::transport_config>*, std::__ndk1::shared_ptr<websocketpp::transport::asio::connection<websocketpp::config::asio_client::transport_config> >, std::__ndk1::shared_ptr<asio::basic_waitable_timer<std::__ndk1::chrono::steady_clock, asio::wait_traits<std::__ndk1::chrono::steady_clock> > >, std::__ndk1::function<void (std::__ndk1::error_code const&)>, std::__ndk1::placeholders::__ph<1> >::tuple[abi:v170000]<websocketpp::transport::asio::endpoint<websocketpp::config::asio_client::transport_config>*, std::__ndk1::shared_ptr<websocketpp::transport::asio::connection<websocketpp::config::asio_client::transport_config> >&, std::__ndk1::shared_ptr<asio::basic_waitable_timer<std::__ndk1::chrono::steady_clock, asio::wait_traits<std::__ndk1::chrono::steady_clock> > >&, std::__ndk1::function<void (std::__ndk1::error_code const&)>&, std::__ndk1::placeholders::__ph<1> const&, 0>()
PUBLIC e4b18 0 std::__ndk1::__function::__func<std::__ndk1::__bind<void (websocketpp::transport::asio::endpoint<websocketpp::config::asio_client::transport_config>::*)(std::__ndk1::shared_ptr<websocketpp::transport::asio::connection<websocketpp::config::asio_client::transport_config> >, std::__ndk1::shared_ptr<asio::basic_waitable_timer<std::__ndk1::chrono::steady_clock, asio::wait_traits<std::__ndk1::chrono::steady_clock> > >, std::__ndk1::function<void (std::__ndk1::error_code const&)>, std::__ndk1::error_code const&), websocketpp::transport::asio::endpoint<websocketpp::config::asio_client::transport_config>*, std::__ndk1::shared_ptr<websocketpp::transport::asio::connection<websocketpp::config::asio_client::transport_config> >&, std::__ndk1::shared_ptr<asio::basic_waitable_timer<std::__ndk1::chrono::steady_clock, asio::wait_traits<std::__ndk1::chrono::steady_clock> > >&, std::__ndk1::function<void (std::__ndk1::error_code const&)>&, std::__ndk1::placeholders::__ph<1> const&>, std::__ndk1::allocator<std::__ndk1::__bind<void (websocketpp::transport::asio::endpoint<websocketpp::config::asio_client::transport_config>::*)(std::__ndk1::shared_ptr<websocketpp::transport::asio::connection<websocketpp::config::asio_client::transport_config> >, std::__ndk1::shared_ptr<asio::basic_waitable_timer<std::__ndk1::chrono::steady_clock, asio::wait_traits<std::__ndk1::chrono::steady_clock> > >, std::__ndk1::function<void (std::__ndk1::error_code const&)>, std::__ndk1::error_code const&), websocketpp::transport::asio::endpoint<websocketpp::config::asio_client::transport_config>*, std::__ndk1::shared_ptr<websocketpp::transport::asio::connection<websocketpp::config::asio_client::transport_config> >&, std::__ndk1::shared_ptr<asio::basic_waitable_timer<std::__ndk1::chrono::steady_clock, asio::wait_traits<std::__ndk1::chrono::steady_clock> > >&, std::__ndk1::function<void (std::__ndk1::error_code const&)>&, std::__ndk1::placeholders::__ph<1> const&> >, void (std::__ndk1::error_code const&)>::~__func()
PUBLIC e4be4 0 std::__ndk1::__function::__func<std::__ndk1::__bind<void (websocketpp::transport::asio::endpoint<websocketpp::config::asio_client::transport_config>::*)(std::__ndk1::shared_ptr<websocketpp::transport::asio::connection<websocketpp::config::asio_client::transport_config> >, std::__ndk1::shared_ptr<asio::basic_waitable_timer<std::__ndk1::chrono::steady_clock, asio::wait_traits<std::__ndk1::chrono::steady_clock> > >, std::__ndk1::function<void (std::__ndk1::error_code const&)>, std::__ndk1::error_code const&), websocketpp::transport::asio::endpoint<websocketpp::config::asio_client::transport_config>*, std::__ndk1::shared_ptr<websocketpp::transport::asio::connection<websocketpp::config::asio_client::transport_config> >&, std::__ndk1::shared_ptr<asio::basic_waitable_timer<std::__ndk1::chrono::steady_clock, asio::wait_traits<std::__ndk1::chrono::steady_clock> > >&, std::__ndk1::function<void (std::__ndk1::error_code const&)>&, std::__ndk1::placeholders::__ph<1> const&>, std::__ndk1::allocator<std::__ndk1::__bind<void (websocketpp::transport::asio::endpoint<websocketpp::config::asio_client::transport_config>::*)(std::__ndk1::shared_ptr<websocketpp::transport::asio::connection<websocketpp::config::asio_client::transport_config> >, std::__ndk1::shared_ptr<asio::basic_waitable_timer<std::__ndk1::chrono::steady_clock, asio::wait_traits<std::__ndk1::chrono::steady_clock> > >, std::__ndk1::function<void (std::__ndk1::error_code const&)>, std::__ndk1::error_code const&), websocketpp::transport::asio::endpoint<websocketpp::config::asio_client::transport_config>*, std::__ndk1::shared_ptr<websocketpp::transport::asio::connection<websocketpp::config::asio_client::transport_config> >&, std::__ndk1::shared_ptr<asio::basic_waitable_timer<std::__ndk1::chrono::steady_clock, asio::wait_traits<std::__ndk1::chrono::steady_clock> > >&, std::__ndk1::function<void (std::__ndk1::error_code const&)>&, std::__ndk1::placeholders::__ph<1> const&> >, void (std::__ndk1::error_code const&)>::~__func()
PUBLIC e4cc0 0 std::__ndk1::__function::__func<std::__ndk1::__bind<void (websocketpp::transport::asio::endpoint<websocketpp::config::asio_client::transport_config>::*)(std::__ndk1::shared_ptr<websocketpp::transport::asio::connection<websocketpp::config::asio_client::transport_config> >, std::__ndk1::shared_ptr<asio::basic_waitable_timer<std::__ndk1::chrono::steady_clock, asio::wait_traits<std::__ndk1::chrono::steady_clock> > >, std::__ndk1::function<void (std::__ndk1::error_code const&)>, std::__ndk1::error_code const&), websocketpp::transport::asio::endpoint<websocketpp::config::asio_client::transport_config>*, std::__ndk1::shared_ptr<websocketpp::transport::asio::connection<websocketpp::config::asio_client::transport_config> >&, std::__ndk1::shared_ptr<asio::basic_waitable_timer<std::__ndk1::chrono::steady_clock, asio::wait_traits<std::__ndk1::chrono::steady_clock> > >&, std::__ndk1::function<void (std::__ndk1::error_code const&)>&, std::__ndk1::placeholders::__ph<1> const&>, std::__ndk1::allocator<std::__ndk1::__bind<void (websocketpp::transport::asio::endpoint<websocketpp::config::asio_client::transport_config>::*)(std::__ndk1::shared_ptr<websocketpp::transport::asio::connection<websocketpp::config::asio_client::transport_config> >, std::__ndk1::shared_ptr<asio::basic_waitable_timer<std::__ndk1::chrono::steady_clock, asio::wait_traits<std::__ndk1::chrono::steady_clock> > >, std::__ndk1::function<void (std::__ndk1::error_code const&)>, std::__ndk1::error_code const&), websocketpp::transport::asio::endpoint<websocketpp::config::asio_client::transport_config>*, std::__ndk1::shared_ptr<websocketpp::transport::asio::connection<websocketpp::config::asio_client::transport_config> >&, std::__ndk1::shared_ptr<asio::basic_waitable_timer<std::__ndk1::chrono::steady_clock, asio::wait_traits<std::__ndk1::chrono::steady_clock> > >&, std::__ndk1::function<void (std::__ndk1::error_code const&)>&, std::__ndk1::placeholders::__ph<1> const&> >, void (std::__ndk1::error_code const&)>::__clone() const
PUBLIC e4d20 0 std::__ndk1::__function::__func<std::__ndk1::__bind<void (websocketpp::transport::asio::endpoint<websocketpp::config::asio_client::transport_config>::*)(std::__ndk1::shared_ptr<websocketpp::transport::asio::connection<websocketpp::config::asio_client::transport_config> >, std::__ndk1::shared_ptr<asio::basic_waitable_timer<std::__ndk1::chrono::steady_clock, asio::wait_traits<std::__ndk1::chrono::steady_clock> > >, std::__ndk1::function<void (std::__ndk1::error_code const&)>, std::__ndk1::error_code const&), websocketpp::transport::asio::endpoint<websocketpp::config::asio_client::transport_config>*, std::__ndk1::shared_ptr<websocketpp::transport::asio::connection<websocketpp::config::asio_client::transport_config> >&, std::__ndk1::shared_ptr<asio::basic_waitable_timer<std::__ndk1::chrono::steady_clock, asio::wait_traits<std::__ndk1::chrono::steady_clock> > >&, std::__ndk1::function<void (std::__ndk1::error_code const&)>&, std::__ndk1::placeholders::__ph<1> const&>, std::__ndk1::allocator<std::__ndk1::__bind<void (websocketpp::transport::asio::endpoint<websocketpp::config::asio_client::transport_config>::*)(std::__ndk1::shared_ptr<websocketpp::transport::asio::connection<websocketpp::config::asio_client::transport_config> >, std::__ndk1::shared_ptr<asio::basic_waitable_timer<std::__ndk1::chrono::steady_clock, asio::wait_traits<std::__ndk1::chrono::steady_clock> > >, std::__ndk1::function<void (std::__ndk1::error_code const&)>, std::__ndk1::error_code const&), websocketpp::transport::asio::endpoint<websocketpp::config::asio_client::transport_config>*, std::__ndk1::shared_ptr<websocketpp::transport::asio::connection<websocketpp::config::asio_client::transport_config> >&, std::__ndk1::shared_ptr<asio::basic_waitable_timer<std::__ndk1::chrono::steady_clock, asio::wait_traits<std::__ndk1::chrono::steady_clock> > >&, std::__ndk1::function<void (std::__ndk1::error_code const&)>&, std::__ndk1::placeholders::__ph<1> const&> >, void (std::__ndk1::error_code const&)>::__clone(std::__ndk1::__function::__base<void (std::__ndk1::error_code const&)>*) const
PUBLIC e4d48 0 std::__ndk1::__function::__func<std::__ndk1::__bind<void (websocketpp::transport::asio::endpoint<websocketpp::config::asio_client::transport_config>::*)(std::__ndk1::shared_ptr<websocketpp::transport::asio::connection<websocketpp::config::asio_client::transport_config> >, std::__ndk1::shared_ptr<asio::basic_waitable_timer<std::__ndk1::chrono::steady_clock, asio::wait_traits<std::__ndk1::chrono::steady_clock> > >, std::__ndk1::function<void (std::__ndk1::error_code const&)>, std::__ndk1::error_code const&), websocketpp::transport::asio::endpoint<websocketpp::config::asio_client::transport_config>*, std::__ndk1::shared_ptr<websocketpp::transport::asio::connection<websocketpp::config::asio_client::transport_config> >&, std::__ndk1::shared_ptr<asio::basic_waitable_timer<std::__ndk1::chrono::steady_clock, asio::wait_traits<std::__ndk1::chrono::steady_clock> > >&, std::__ndk1::function<void (std::__ndk1::error_code const&)>&, std::__ndk1::placeholders::__ph<1> const&>, std::__ndk1::allocator<std::__ndk1::__bind<void (websocketpp::transport::asio::endpoint<websocketpp::config::asio_client::transport_config>::*)(std::__ndk1::shared_ptr<websocketpp::transport::asio::connection<websocketpp::config::asio_client::transport_config> >, std::__ndk1::shared_ptr<asio::basic_waitable_timer<std::__ndk1::chrono::steady_clock, asio::wait_traits<std::__ndk1::chrono::steady_clock> > >, std::__ndk1::function<void (std::__ndk1::error_code const&)>, std::__ndk1::error_code const&), websocketpp::transport::asio::endpoint<websocketpp::config::asio_client::transport_config>*, std::__ndk1::shared_ptr<websocketpp::transport::asio::connection<websocketpp::config::asio_client::transport_config> >&, std::__ndk1::shared_ptr<asio::basic_waitable_timer<std::__ndk1::chrono::steady_clock, asio::wait_traits<std::__ndk1::chrono::steady_clock> > >&, std::__ndk1::function<void (std::__ndk1::error_code const&)>&, std::__ndk1::placeholders::__ph<1> const&> >, void (std::__ndk1::error_code const&)>::destroy()
PUBLIC e4e08 0 std::__ndk1::__function::__func<std::__ndk1::__bind<void (websocketpp::transport::asio::endpoint<websocketpp::config::asio_client::transport_config>::*)(std::__ndk1::shared_ptr<websocketpp::transport::asio::connection<websocketpp::config::asio_client::transport_config> >, std::__ndk1::shared_ptr<asio::basic_waitable_timer<std::__ndk1::chrono::steady_clock, asio::wait_traits<std::__ndk1::chrono::steady_clock> > >, std::__ndk1::function<void (std::__ndk1::error_code const&)>, std::__ndk1::error_code const&), websocketpp::transport::asio::endpoint<websocketpp::config::asio_client::transport_config>*, std::__ndk1::shared_ptr<websocketpp::transport::asio::connection<websocketpp::config::asio_client::transport_config> >&, std::__ndk1::shared_ptr<asio::basic_waitable_timer<std::__ndk1::chrono::steady_clock, asio::wait_traits<std::__ndk1::chrono::steady_clock> > >&, std::__ndk1::function<void (std::__ndk1::error_code const&)>&, std::__ndk1::placeholders::__ph<1> const&>, std::__ndk1::allocator<std::__ndk1::__bind<void (websocketpp::transport::asio::endpoint<websocketpp::config::asio_client::transport_config>::*)(std::__ndk1::shared_ptr<websocketpp::transport::asio::connection<websocketpp::config::asio_client::transport_config> >, std::__ndk1::shared_ptr<asio::basic_waitable_timer<std::__ndk1::chrono::steady_clock, asio::wait_traits<std::__ndk1::chrono::steady_clock> > >, std::__ndk1::function<void (std::__ndk1::error_code const&)>, std::__ndk1::error_code const&), websocketpp::transport::asio::endpoint<websocketpp::config::asio_client::transport_config>*, std::__ndk1::shared_ptr<websocketpp::transport::asio::connection<websocketpp::config::asio_client::transport_config> >&, std::__ndk1::shared_ptr<asio::basic_waitable_timer<std::__ndk1::chrono::steady_clock, asio::wait_traits<std::__ndk1::chrono::steady_clock> > >&, std::__ndk1::function<void (std::__ndk1::error_code const&)>&, std::__ndk1::placeholders::__ph<1> const&> >, void (std::__ndk1::error_code const&)>::destroy_deallocate()
PUBLIC e4ed8 0 std::__ndk1::__function::__func<std::__ndk1::__bind<void (websocketpp::transport::asio::endpoint<websocketpp::config::asio_client::transport_config>::*)(std::__ndk1::shared_ptr<websocketpp::transport::asio::connection<websocketpp::config::asio_client::transport_config> >, std::__ndk1::shared_ptr<asio::basic_waitable_timer<std::__ndk1::chrono::steady_clock, asio::wait_traits<std::__ndk1::chrono::steady_clock> > >, std::__ndk1::function<void (std::__ndk1::error_code const&)>, std::__ndk1::error_code const&), websocketpp::transport::asio::endpoint<websocketpp::config::asio_client::transport_config>*, std::__ndk1::shared_ptr<websocketpp::transport::asio::connection<websocketpp::config::asio_client::transport_config> >&, std::__ndk1::shared_ptr<asio::basic_waitable_timer<std::__ndk1::chrono::steady_clock, asio::wait_traits<std::__ndk1::chrono::steady_clock> > >&, std::__ndk1::function<void (std::__ndk1::error_code const&)>&, std::__ndk1::placeholders::__ph<1> const&>, std::__ndk1::allocator<std::__ndk1::__bind<void (websocketpp::transport::asio::endpoint<websocketpp::config::asio_client::transport_config>::*)(std::__ndk1::shared_ptr<websocketpp::transport::asio::connection<websocketpp::config::asio_client::transport_config> >, std::__ndk1::shared_ptr<asio::basic_waitable_timer<std::__ndk1::chrono::steady_clock, asio::wait_traits<std::__ndk1::chrono::steady_clock> > >, std::__ndk1::function<void (std::__ndk1::error_code const&)>, std::__ndk1::error_code const&), websocketpp::transport::asio::endpoint<websocketpp::config::asio_client::transport_config>*, std::__ndk1::shared_ptr<websocketpp::transport::asio::connection<websocketpp::config::asio_client::transport_config> >&, std::__ndk1::shared_ptr<asio::basic_waitable_timer<std::__ndk1::chrono::steady_clock, asio::wait_traits<std::__ndk1::chrono::steady_clock> > >&, std::__ndk1::function<void (std::__ndk1::error_code const&)>&, std::__ndk1::placeholders::__ph<1> const&> >, void (std::__ndk1::error_code const&)>::operator()(std::__ndk1::error_code const&)
PUBLIC e4ef8 0 std::__ndk1::__function::__func<std::__ndk1::__bind<void (websocketpp::transport::asio::endpoint<websocketpp::config::asio_client::transport_config>::*)(std::__ndk1::shared_ptr<websocketpp::transport::asio::connection<websocketpp::config::asio_client::transport_config> >, std::__ndk1::shared_ptr<asio::basic_waitable_timer<std::__ndk1::chrono::steady_clock, asio::wait_traits<std::__ndk1::chrono::steady_clock> > >, std::__ndk1::function<void (std::__ndk1::error_code const&)>, std::__ndk1::error_code const&), websocketpp::transport::asio::endpoint<websocketpp::config::asio_client::transport_config>*, std::__ndk1::shared_ptr<websocketpp::transport::asio::connection<websocketpp::config::asio_client::transport_config> >&, std::__ndk1::shared_ptr<asio::basic_waitable_timer<std::__ndk1::chrono::steady_clock, asio::wait_traits<std::__ndk1::chrono::steady_clock> > >&, std::__ndk1::function<void (std::__ndk1::error_code const&)>&, std::__ndk1::placeholders::__ph<1> const&>, std::__ndk1::allocator<std::__ndk1::__bind<void (websocketpp::transport::asio::endpoint<websocketpp::config::asio_client::transport_config>::*)(std::__ndk1::shared_ptr<websocketpp::transport::asio::connection<websocketpp::config::asio_client::transport_config> >, std::__ndk1::shared_ptr<asio::basic_waitable_timer<std::__ndk1::chrono::steady_clock, asio::wait_traits<std::__ndk1::chrono::steady_clock> > >, std::__ndk1::function<void (std::__ndk1::error_code const&)>, std::__ndk1::error_code const&), websocketpp::transport::asio::endpoint<websocketpp::config::asio_client::transport_config>*, std::__ndk1::shared_ptr<websocketpp::transport::asio::connection<websocketpp::config::asio_client::transport_config> >&, std::__ndk1::shared_ptr<asio::basic_waitable_timer<std::__ndk1::chrono::steady_clock, asio::wait_traits<std::__ndk1::chrono::steady_clock> > >&, std::__ndk1::function<void (std::__ndk1::error_code const&)>&, std::__ndk1::placeholders::__ph<1> const&> >, void (std::__ndk1::error_code const&)>::target(std::type_info const&) const
PUBLIC e4f14 0 std::__ndk1::__function::__func<std::__ndk1::__bind<void (websocketpp::transport::asio::endpoint<websocketpp::config::asio_client::transport_config>::*)(std::__ndk1::shared_ptr<websocketpp::transport::asio::connection<websocketpp::config::asio_client::transport_config> >, std::__ndk1::shared_ptr<asio::basic_waitable_timer<std::__ndk1::chrono::steady_clock, asio::wait_traits<std::__ndk1::chrono::steady_clock> > >, std::__ndk1::function<void (std::__ndk1::error_code const&)>, std::__ndk1::error_code const&), websocketpp::transport::asio::endpoint<websocketpp::config::asio_client::transport_config>*, std::__ndk1::shared_ptr<websocketpp::transport::asio::connection<websocketpp::config::asio_client::transport_config> >&, std::__ndk1::shared_ptr<asio::basic_waitable_timer<std::__ndk1::chrono::steady_clock, asio::wait_traits<std::__ndk1::chrono::steady_clock> > >&, std::__ndk1::function<void (std::__ndk1::error_code const&)>&, std::__ndk1::placeholders::__ph<1> const&>, std::__ndk1::allocator<std::__ndk1::__bind<void (websocketpp::transport::asio::endpoint<websocketpp::config::asio_client::transport_config>::*)(std::__ndk1::shared_ptr<websocketpp::transport::asio::connection<websocketpp::config::asio_client::transport_config> >, std::__ndk1::shared_ptr<asio::basic_waitable_timer<std::__ndk1::chrono::steady_clock, asio::wait_traits<std::__ndk1::chrono::steady_clock> > >, std::__ndk1::function<void (std::__ndk1::error_code const&)>, std::__ndk1::error_code const&), websocketpp::transport::asio::endpoint<websocketpp::config::asio_client::transport_config>*, std::__ndk1::shared_ptr<websocketpp::transport::asio::connection<websocketpp::config::asio_client::transport_config> >&, std::__ndk1::shared_ptr<asio::basic_waitable_timer<std::__ndk1::chrono::steady_clock, asio::wait_traits<std::__ndk1::chrono::steady_clock> > >&, std::__ndk1::function<void (std::__ndk1::error_code const&)>&, std::__ndk1::placeholders::__ph<1> const&> >, void (std::__ndk1::error_code const&)>::target_type() const
PUBLIC e4f20 0 std::__ndk1::tuple<websocketpp::transport::asio::endpoint<websocketpp::config::asio_client::transport_config>*, std::__ndk1::shared_ptr<websocketpp::transport::asio::connection<websocketpp::config::asio_client::transport_config> >, std::__ndk1::shared_ptr<asio::basic_waitable_timer<std::__ndk1::chrono::steady_clock, asio::wait_traits<std::__ndk1::chrono::steady_clock> > >, std::__ndk1::function<void (std::__ndk1::error_code const&)>, std::__ndk1::placeholders::__ph<1> >::tuple(std::__ndk1::tuple<websocketpp::transport::asio::endpoint<websocketpp::config::asio_client::transport_config>*, std::__ndk1::shared_ptr<websocketpp::transport::asio::connection<websocketpp::config::asio_client::transport_config> >, std::__ndk1::shared_ptr<asio::basic_waitable_timer<std::__ndk1::chrono::steady_clock, asio::wait_traits<std::__ndk1::chrono::steady_clock> > >, std::__ndk1::function<void (std::__ndk1::error_code const&)>, std::__ndk1::placeholders::__ph<1> > const&)
PUBLIC e502c 0 std::__ndk1::__invoke[abi:v170000]<void (websocketpp::transport::asio::endpoint<std::__ndk1::__invoke[abi:v170000]::config::asio_client::transport_config>&::*)(std::__ndk1::shared_ptr<websocketpp::transport::connection<std::__ndk1::__invoke[abi:v170000]::config::asio_client> >, websocketpp::transport::asio::endpoint<std::__ndk1::__invoke[abi:v170000]::config::asio_client::transport_config><asio::basic_waitable_timer<std::__ndk1::chrono::steady_clock, std::__ndk1::shared_ptr<websocketpp::transport::connection<std::__ndk1::__invoke[abi:v170000]::config::asio_client> >::wait_traits<std::__ndk1::chrono> > >, std::__ndk1::function<void (std::__ndk1::error_code const&)>, std::__ndk1::error_code const), std::__ndk1::__invoke[abi:v170000]::config::asio_client::transport_config*&, websocketpp::transport::connection<std::__ndk1::__invoke[abi:v170000]::config::asio_client>&, asio::basic_waitable_timer<std::__ndk1::chrono::steady_clock, std::__ndk1::shared_ptr<websocketpp::transport::connection<std::__ndk1::__invoke[abi:v170000]::config::asio_client> >::wait_traits<std::__ndk1::chrono> >&, void (&)(std::__ndk1::error_code const&), std::__ndk1::error_code const, void>(std::__ndk1::__invoke[abi:v170000]::config::asio_client::transport_config*&, void (&)(std::__ndk1::error_code const&), void (websocketpp::transport::asio::endpoint<std::__ndk1::__invoke[abi:v170000]::config::asio_client::transport_config>&::*)(std::__ndk1::shared_ptr<websocketpp::transport::connection<std::__ndk1::__invoke[abi:v170000]::config::asio_client> >, websocketpp::transport::asio::endpoint<std::__ndk1::__invoke[abi:v170000]::config::asio_client::transport_config><asio::basic_waitable_timer<std::__ndk1::chrono::steady_clock, std::__ndk1::shared_ptr<websocketpp::transport::connection<std::__ndk1::__invoke[abi:v170000]::config::asio_client> >::wait_traits<std::__ndk1::chrono> > >, std::__ndk1::function<void (std::__ndk1::error_code const&)>, std::__ndk1::error_code const))
PUBLIC e5224 0 asio::detail::iterator_connect_op<asio::ip::tcp, asio::ip::basic_resolver_iterator<asio::ip::tcp>, asio::detail::default_connect_condition, asio::detail::wrapped_handler<asio::io_context::strand, std::__ndk1::__bind<void (websocketpp::transport::asio::endpoint<websocketpp::config::asio_client::transport_config>::*)(std::__ndk1::shared_ptr<websocketpp::transport::asio::connection<websocketpp::config::asio_client::transport_config> >, std::__ndk1::shared_ptr<asio::basic_waitable_timer<std::__ndk1::chrono::steady_clock, asio::wait_traits<std::__ndk1::chrono::steady_clock> > >, std::__ndk1::function<void (std::__ndk1::error_code const&)>, std::__ndk1::error_code const&), websocketpp::transport::asio::endpoint<websocketpp::config::asio_client::transport_config>*, std::__ndk1::shared_ptr<websocketpp::transport::asio::connection<websocketpp::config::asio_client::transport_config> >&, std::__ndk1::shared_ptr<asio::basic_waitable_timer<std::__ndk1::chrono::steady_clock, asio::wait_traits<std::__ndk1::chrono::steady_clock> > >&, std::__ndk1::function<void (std::__ndk1::error_code const&)>&, std::__ndk1::placeholders::__ph<1> const&>, asio::detail::is_continuation_if_running> >::operator()(std::__ndk1::error_code, int)
PUBLIC e55f8 0 asio::detail::iterator_connect_op<asio::ip::tcp, asio::ip::basic_resolver_iterator<asio::ip::tcp>, asio::detail::default_connect_condition, asio::detail::wrapped_handler<asio::io_context::strand, std::__ndk1::__bind<void (websocketpp::transport::asio::endpoint<websocketpp::config::asio_client::transport_config>::*)(std::__ndk1::shared_ptr<websocketpp::transport::asio::connection<websocketpp::config::asio_client::transport_config> >, std::__ndk1::shared_ptr<asio::basic_waitable_timer<std::__ndk1::chrono::steady_clock, asio::wait_traits<std::__ndk1::chrono::steady_clock> > >, std::__ndk1::function<void (std::__ndk1::error_code const&)>, std::__ndk1::error_code const&), websocketpp::transport::asio::endpoint<websocketpp::config::asio_client::transport_config>*, std::__ndk1::shared_ptr<websocketpp::transport::asio::connection<websocketpp::config::asio_client::transport_config> >&, std::__ndk1::shared_ptr<asio::basic_waitable_timer<std::__ndk1::chrono::steady_clock, asio::wait_traits<std::__ndk1::chrono::steady_clock> > >&, std::__ndk1::function<void (std::__ndk1::error_code const&)>&, std::__ndk1::placeholders::__ph<1> const&>, asio::detail::is_continuation_if_running> >::~iterator_connect_op()
