MODULE Linux arm64 4772128E38950CCE7222DE9340E49CCD0 oatmealine.nlw_integration.android64.so
INFO CODE_ID 8E1272479538CE0C7222DE9340E49CCDB9CE84D9
INFO GENERATOR mozilla/dump_syms 2.2.2
PUBLIC 22190 0 __on_dlclose
PUBLIC 221a0 0 __emutls_unregister_key
PUBLIC 221a8 0 __on_dlclose_late
PUBLIC 221b0 0 __atexit_handler_wrapper
PUBLIC 221c4 0 atexit
PUBLIC 221e0 0 pthread_atfork
PUBLIC 221f0 0 __cxx_global_var_init
PUBLIC 22258 0 geode::modifier::ModifyBase<geode::modifier::ModifyDerive<NLWInfoLayer, LevelInfoLayer> >::~ModifyBase()
PUBLIC 22274 0 geode::modifier::ModifyBase<geode::modifier::ModifyDerive<NLWInfoLayer, LevelInfoLayer> >::ModifyBase()
PUBLIC 22700 0 geode::modifier::ModifyDerive<NLWInfoLayer, LevelInfoLayer>::apply()
PUBLIC 229dc 0 std::__ndk1::shared_ptr<geode::Hook>::~shared_ptr[abi:v170000]()
PUBLIC 22a2c 0 std::__ndk1::vector<std::__ndk1::basic_string<char, std::__ndk1::char_traits<char>, std::__ndk1::allocator<char> >, std::__ndk1::allocator<std::__ndk1::basic_string<char, std::__ndk1::char_traits<char>, std::__ndk1::allocator<char> > > >::~vector[abi:v170000]()
PUBLIC 22aa8 0 geode::modifier::ModifyBase<geode::modifier::ModifyDerive<NLWInfoLayer, LevelInfoLayer> >::apply()
PUBLIC 22aac 0 __clang_call_terminate
PUBLIC 22abc 0 std::__ndk1::basic_string<char, std::__ndk1::char_traits<char>, std::__ndk1::allocator<char> >::__throw_length_error[abi:v170000]() const
PUBLIC 22ad0 0 std::__ndk1::__throw_length_error[abi:v170000](char const*)
PUBLIC 22b20 0 std::length_error::length_error[abi:v170000](char const*)
PUBLIC 22b50 0 std::__throw_bad_array_new_length([abi:v170000], void)
PUBLIC 22b84 0 std::__ndk1::vector<std::__ndk1::basic_string<char, std::__ndk1::char_traits<char>, std::__ndk1::allocator<char> >, std::__ndk1::allocator<std::__ndk1::basic_string<char, std::__ndk1::char_traits<char>, std::__ndk1::allocator<char> > > >::__push_back_slow_path<std::__ndk1::basic_string<char, std::__ndk1::char_traits<char>, std::__ndk1::allocator<char> > const&>(std::__ndk1::basic_string<char, std::__ndk1::char_traits<char>, std::__ndk1::allocator<char> > const&)
PUBLIC 22e24 0 std::__ndk1::__split_buffer<std::__ndk1::basic_string<char, std::__ndk1::char_traits<char>, std::__ndk1::allocator<char> >, std::__ndk1::allocator<std::__ndk1::basic_string<char, std::__ndk1::char_traits<char>, std::__ndk1::allocator<char> > >&>::~__split_buffer()
PUBLIC 22e8c 0 std::__ndk1::vector<std::__ndk1::basic_string<char, std::__ndk1::char_traits<char>, std::__ndk1::allocator<char> >, std::__ndk1::allocator<std::__ndk1::basic_string<char, std::__ndk1::char_traits<char>, std::__ndk1::allocator<char> > > >::__throw_length_error[abi:v170000]() const
PUBLIC 22ea0 0 std::__ndk1::__tree<std::__ndk1::__value_type<std::__ndk1::basic_string<char, std::__ndk1::char_traits<char>, std::__ndk1::allocator<char> >, std::__ndk1::shared_ptr<geode::Hook> >, std::__ndk1::__map_value_compare<std::__ndk1::basic_string<char, std::__ndk1::char_traits<char>, std::__ndk1::allocator<char> >, std::__ndk1::__value_type<std::__ndk1::basic_string<char, std::__ndk1::char_traits<char>, std::__ndk1::allocator<char> >, std::__ndk1::shared_ptr<geode::Hook> >, std::__ndk1::less<std::__ndk1::basic_string<char, std::__ndk1::char_traits<char>, std::__ndk1::allocator<char> > >, true>, std::__ndk1::allocator<std::__ndk1::__value_type<std::__ndk1::basic_string<char, std::__ndk1::char_traits<char>, std::__ndk1::allocator<char> >, std::__ndk1::shared_ptr<geode::Hook> > > >::find<std::__ndk1::basic_string<char, std::__ndk1::char_traits<char>, std::__ndk1::allocator<char> > >(std::__ndk1::basic_string<char, std::__ndk1::char_traits<char>, std::__ndk1::allocator<char> > const&)
PUBLIC 22fac 0 std::__ndk1::__tree<std::__ndk1::__value_type<std::__ndk1::basic_string<char, std::__ndk1::char_traits<char>, std::__ndk1::allocator<char> >, std::__ndk1::shared_ptr<geode::Hook> >, std::__ndk1::__map_value_compare<std::__ndk1::basic_string<char, std::__ndk1::char_traits<char>, std::__ndk1::allocator<char> >, std::__ndk1::__value_type<std::__ndk1::basic_string<char, std::__ndk1::char_traits<char>, std::__ndk1::allocator<char> >, std::__ndk1::shared_ptr<geode::Hook> >, std::__ndk1::less<std::__ndk1::basic_string<char, std::__ndk1::char_traits<char>, std::__ndk1::allocator<char> > >, true>, std::__ndk1::allocator<std::__ndk1::__value_type<std::__ndk1::basic_string<char, std::__ndk1::char_traits<char>, std::__ndk1::allocator<char> >, std::__ndk1::shared_ptr<geode::Hook> > > >::erase(std::__ndk1::__tree_const_iterator<std::__ndk1::__value_type<std::__ndk1::basic_string<char, std::__ndk1::char_traits<char>, std::__ndk1::allocator<char> >, std::__ndk1::shared_ptr<geode::Hook> >, std::__ndk1::__tree_node<std::__ndk1::__value_type<std::__ndk1::basic_string<char, std::__ndk1::char_traits<char>, std::__ndk1::allocator<char> >, std::__ndk1::shared_ptr<geode::Hook> >, void*>*, long>)
PUBLIC 23080 0 std::__ndk1::__tree_remove[abi:v170000]<std::__ndk1::__tree_node_base<void*>*>(std::__ndk1::__tree_node_base<void*>*, std::__ndk1::__tree_node_base<void*>*)
PUBLIC 2344c 0 std::__ndk1::__tree<std::__ndk1::__value_type<std::__ndk1::basic_string<char, std::__ndk1::char_traits<char>, std::__ndk1::allocator<char> >, std::__ndk1::shared_ptr<geode::Hook> >, std::__ndk1::__map_value_compare<std::__ndk1::basic_string<char, std::__ndk1::char_traits<char>, std::__ndk1::allocator<char> >, std::__ndk1::__value_type<std::__ndk1::basic_string<char, std::__ndk1::char_traits<char>, std::__ndk1::allocator<char> >, std::__ndk1::shared_ptr<geode::Hook> >, std::__ndk1::less<std::__ndk1::basic_string<char, std::__ndk1::char_traits<char>, std::__ndk1::allocator<char> > >, true>, std::__ndk1::allocator<std::__ndk1::__value_type<std::__ndk1::basic_string<char, std::__ndk1::char_traits<char>, std::__ndk1::allocator<char> >, std::__ndk1::shared_ptr<geode::Hook> > > >::destroy(std::__ndk1::__tree_node<std::__ndk1::__value_type<std::__ndk1::basic_string<char, std::__ndk1::char_traits<char>, std::__ndk1::allocator<char> >, std::__ndk1::shared_ptr<geode::Hook> >, void*>*)
PUBLIC 234d8 0 geode::Hook::create<void (*)(NLWInfoLayer*)>(void*, void (*)(NLWInfoLayer*), std::__ndk1::basic_string<char, std::__ndk1::char_traits<char>, std::__ndk1::allocator<char> > const&, tulip::hook::TulipConvention, tulip::hook::HookMetadata const&)
PUBLIC 2360c 0 geode::modifier::AsStaticFunction_updateLabelValues<NLWInfoLayer, void (NLWInfoLayer::*)()>::Impl<void (NLWInfoLayer::*)()>::function(NLWInfoLayer*)
PUBLIC 2367c 0 std::__ndk1::shared_ptr<tulip::hook::CallingConvention>::~shared_ptr[abi:v170000]()
PUBLIC 236cc 0 tulip::hook::HandlerMetadata::~HandlerMetadata()
PUBLIC 23730 0 NLWInfoLayer::updateDifficultyFace()
PUBLIC 23cb8 0 NLWInfoLayer::openNLWInfoPane(cocos2d::CCObject*)
PUBLIC 23cf4 0 std::__ndk1::__optional_destruct_base<NLWRating, false>::~__optional_destruct_base[abi:v170000]()
PUBLIC 23d90 0 geode::modifier::FieldIntermediate<NLWInfoLayer, LevelInfoLayer>::operator NLWInfoLayer*()
PUBLIC 23fa4 0 geode::modifier::FieldContainer::getField(unsigned long)
PUBLIC 24208 0 geode::modifier::FieldContainer::setField(unsigned long, unsigned long, geode::utils::MiniFunction<void (void*)>)
PUBLIC 242b4 0 geode::modifier::FieldIntermediate<NLWInfoLayer, LevelInfoLayer>::fieldDestructor(void*)
PUBLIC 243ac 0 std::__ndk1::vector<void*, std::__ndk1::allocator<void*> >::__throw_length_error[abi:v170000]() const
PUBLIC 243c0 0 std::__ndk1::vector<geode::utils::MiniFunction<void (void*)>, std::__ndk1::allocator<geode::utils::MiniFunction<void (void*)> > >::__push_back_slow_path<geode::utils::MiniFunction<void (void*)> >(geode::utils::MiniFunction<void (void*)>&&)
PUBLIC 245f0 0 std::__ndk1::__split_buffer<geode::utils::MiniFunction<void (void*)>, std::__ndk1::allocator<geode::utils::MiniFunction<void (void*)> >&>::~__split_buffer()
PUBLIC 2464c 0 std::__ndk1::vector<geode::utils::MiniFunction<void (void*)>, std::__ndk1::allocator<geode::utils::MiniFunction<void (void*)> > >::__throw_length_error[abi:v170000]() const
PUBLIC 24660 0 std::__ndk1::vector<void*, std::__ndk1::allocator<void*> >::__throw_out_of_range[abi:v170000]() const
PUBLIC 24674 0 std::__ndk1::__throw_out_of_range[abi:v170000](char const*)
PUBLIC 246c4 0 std::out_of_range::out_of_range[abi:v170000](char const*)
PUBLIC 246f4 0 std::__ndk1::vector<geode::utils::MiniFunction<void (void*)>, std::__ndk1::allocator<geode::utils::MiniFunction<void (void*)> > >::__throw_out_of_range[abi:v170000]() const
PUBLIC 24708 0 NLWInfoLayer::~NLWInfoLayer()
PUBLIC 2487c 0 cocos2d::CCCopying::copyWithZone(cocos2d::CCZone*)
PUBLIC 24884 0 geode::Modify<NLWInfoLayer, LevelInfoLayer>::~Modify()
PUBLIC 2491c 0 geode::Modify<NLWInfoLayer, LevelInfoLayer>::~Modify()
PUBLIC 249b8 0 {virtual override thunk({offset(-320)}, geode::Modify<NLWInfoLayer, LevelInfoLayer>::~Modify())}
PUBLIC 24a54 0 {virtual override thunk({offset(-320)}, geode::Modify<NLWInfoLayer, LevelInfoLayer>::~Modify())}
PUBLIC 24af4 0 cocos2d::CCKeyboardDelegate::keyUp(cocos2d::enumKeyCodes)
PUBLIC 24af8 0 cocos2d::CCMouseDelegate::rightKeyDown()
PUBLIC 24afc 0 cocos2d::CCMouseDelegate::rightKeyUp()
PUBLIC 24b00 0 cocos2d::CCMouseDelegate::scrollWheel(float, float)
PUBLIC 24b04 0 {virtual override thunk({offset(-320)}, NLWInfoLayer::~NLWInfoLayer())}
PUBLIC 24b0c 0 NLWInfoLayer::~NLWInfoLayer()
PUBLIC 24b30 0 {virtual override thunk({offset(-320)}, NLWInfoLayer::~NLWInfoLayer())}
PUBLIC 24b58 0 geode::utils::MiniFunctionStateBase<void, void*>::~MiniFunctionStateBase()
PUBLIC 24b5c 0 geode::utils::MiniFunctionState<void (*)(void*), void, void*>::~MiniFunctionState()
PUBLIC 24b60 0 geode::utils::MiniFunctionState<void (*)(void*), void, void*>::call(void*) const
PUBLIC 24b6c 0 geode::utils::MiniFunctionState<void (*)(void*), void, void*>::clone() const
PUBLIC 24ba0 0 fmt::v10::detail::value<fmt::v10::basic_format_context<fmt::v10::appender, char> >::format_custom_arg<gd::string, fmt::v10::formatter<gd::string, char, void> >(void*, fmt::v10::basic_format_parse_context<char>&, fmt::v10::basic_format_context<fmt::v10::appender, char>&)
PUBLIC 24c54 0 fmt::v10::formatter<fmt::v10::basic_string_view<char>, char, void>::parse<fmt::v10::basic_format_parse_context<char> >(fmt::v10::basic_format_parse_context<char>&)
PUBLIC 24f40 0 fmt::v10::formatter<gd::string, char, void>::format<fmt::v10::basic_format_context<fmt::v10::appender, char> >(gd::string const&, fmt::v10::basic_format_context<fmt::v10::appender, char>&) const
PUBLIC 2509c 0 fmt::v10::detail::parse_dynamic_spec<char>(char const*, char const*, int&, fmt::v10::detail::arg_ref<char>&, fmt::v10::basic_format_parse_context<char>&)
PUBLIC 25254 0 fmt::v10::detail::do_parse_arg_id<char, fmt::v10::detail::dynamic_spec_id_handler<char>&>(char const*, char const*, fmt::v10::detail::dynamic_spec_id_handler<char>&)
PUBLIC 253e4 0 fmt::v10::detail::handle_dynamic_spec<fmt::v10::detail::width_checker, fmt::v10::basic_format_context<fmt::v10::appender, char> >(int&, fmt::v10::detail::arg_ref<fmt::v10::basic_format_context<fmt::v10::appender, char>::char_type>, fmt::v10::basic_format_context<fmt::v10::appender, char>&)
PUBLIC 254f4 0 fmt::v10::detail::handle_dynamic_spec<fmt::v10::detail::precision_checker, fmt::v10::basic_format_context<fmt::v10::appender, char> >(int&, fmt::v10::detail::arg_ref<fmt::v10::basic_format_context<fmt::v10::appender, char>::char_type>, fmt::v10::basic_format_context<fmt::v10::appender, char>&)
PUBLIC 25604 0 fmt::v10::detail::get_dynamic_spec<fmt::v10::detail::width_checker, fmt::v10::basic_format_arg<fmt::v10::basic_format_context<fmt::v10::appender, char> >, fmt::v10::detail::error_handler>(fmt::v10::basic_format_arg<fmt::v10::basic_format_context<fmt::v10::appender, char> >, fmt::v10::detail::error_handler)
PUBLIC 25694 0 fmt::v10::basic_format_args<fmt::v10::basic_format_context<fmt::v10::appender, char> >::get<char>(fmt::v10::basic_string_view<char>) const
PUBLIC 257f0 0 fmt::v10::detail::get_dynamic_spec<fmt::v10::detail::precision_checker, fmt::v10::basic_format_arg<fmt::v10::basic_format_context<fmt::v10::appender, char> >, fmt::v10::detail::error_handler>(fmt::v10::basic_format_arg<fmt::v10::basic_format_context<fmt::v10::appender, char> >, fmt::v10::detail::error_handler)
PUBLIC 25880 0 fmt::v10::detail::write<char, fmt::v10::appender>(fmt::v10::appender, fmt::v10::basic_string_view<char>, fmt::v10::format_specs<char> const&)
PUBLIC 25a58 0 fmt::v10::detail::write_escaped_string<char, fmt::v10::detail::counting_iterator>(fmt::v10::detail::counting_iterator, fmt::v10::basic_string_view<char>)
PUBLIC 25e70 0 fmt::v10::detail::write_padded<(fmt::v10::align::type)1, fmt::v10::appender, char, fmt::v10::detail::write<char, fmt::v10::appender>(fmt::v10::appender, fmt::v10::basic_string_view<char>, fmt::v10::format_specs<char> const&)::{lambda(fmt::v10::appender)#1}>(fmt::v10::appender, fmt::v10::format_specs<char> const&, unsigned long, unsigned long, fmt::v10::detail::write<char, fmt::v10::appender>(fmt::v10::appender, fmt::v10::basic_string_view<char>, fmt::v10::format_specs<char> const&)::{lambda(fmt::v10::appender&&)#1})
PUBLIC 26074 0 fmt::v10::detail::write_escaped_cp<fmt::v10::detail::counting_iterator, char>(fmt::v10::detail::counting_iterator, fmt::v10::detail::find_escape_result<char> const&)
PUBLIC 26218 0 fmt::v10::detail::for_each_codepoint<fmt::v10::detail::compute_width(fmt::v10::basic_string_view<char>)::count_code_points>(fmt::v10::basic_string_view<char>, fmt::v10::detail::compute_width(fmt::v10::basic_string_view<char>)::count_code_points)::{lambda(char const*, char const*)#1}::operator()(char const*, char const*) const
PUBLIC 263cc 0 fmt::v10::detail::fill<fmt::v10::appender, char>(fmt::v10::appender, unsigned long, fmt::v10::detail::fill_t<char> const&)
PUBLIC 265bc 0 fmt::v10::detail::write_escaped_string<char, fmt::v10::appender>(fmt::v10::appender, fmt::v10::basic_string_view<char>)
PUBLIC 26b68 0 fmt::v10::detail::write_escaped_cp<fmt::v10::appender, char>(fmt::v10::appender, fmt::v10::detail::find_escape_result<char> const&)
PUBLIC 26d64 0 fmt::v10::detail::write_codepoint<(unsigned long)2, char, fmt::v10::appender>(fmt::v10::appender, char, unsigned int)
PUBLIC 26ee4 0 fmt::v10::detail::write_codepoint<(unsigned long)4, char, fmt::v10::appender>(fmt::v10::appender, char, unsigned int)
PUBLIC 27064 0 fmt::v10::detail::write_codepoint<(unsigned long)8, char, fmt::v10::appender>(fmt::v10::appender, char, unsigned int)
PUBLIC 271e4 0 std::__ndk1::__throw_bad_optional_access[abi:v170000]()
PUBLIC 27218 0 std::__ndk1::__tree<std::__ndk1::__value_type<std::__ndk1::basic_string<char, std::__ndk1::char_traits<char>, std::__ndk1::allocator<char> >, std::__ndk1::shared_ptr<geode::Hook> >, std::__ndk1::__map_value_compare<std::__ndk1::basic_string<char, std::__ndk1::char_traits<char>, std::__ndk1::allocator<char> >, std::__ndk1::__value_type<std::__ndk1::basic_string<char, std::__ndk1::char_traits<char>, std::__ndk1::allocator<char> >, std::__ndk1::shared_ptr<geode::Hook> >, std::__ndk1::less<std::__ndk1::basic_string<char, std::__ndk1::char_traits<char>, std::__ndk1::allocator<char> > >, true>, std::__ndk1::allocator<std::__ndk1::__value_type<std::__ndk1::basic_string<char, std::__ndk1::char_traits<char>, std::__ndk1::allocator<char> >, std::__ndk1::shared_ptr<geode::Hook> > > >::__find_equal<std::__ndk1::basic_string<char, std::__ndk1::char_traits<char>, std::__ndk1::allocator<char> > >(std::__ndk1::__tree_end_node<std::__ndk1::__tree_node_base<void*>*>*&, std::__ndk1::basic_string<char, std::__ndk1::char_traits<char>, std::__ndk1::allocator<char> > const&)
PUBLIC 2731c 0 std::__ndk1::__tree_balance_after_insert[abi:v170000]<std::__ndk1::__tree_node_base<void*>*>(std::__ndk1::__tree_node_base<void*>*, std::__ndk1::__tree_node_base<void*>*)
PUBLIC 274d0 0 std::__ndk1::vector<NLWRating, std::__ndk1::allocator<NLWRating> >::~vector[abi:v170000]()
PUBLIC 27538 0 ListManager::parseResponse(matjson::Value)
PUBLIC 27720 0 std::__ndk1::vector<matjson::Value, std::__ndk1::allocator<matjson::Value> >::vector(std::__ndk1::vector<matjson::Value, std::__ndk1::allocator<matjson::Value> > const&)
PUBLIC 27848 0 NLWRating::~NLWRating()
PUBLIC 278dc 0 std::__ndk1::vector<matjson::Value, std::__ndk1::allocator<matjson::Value> >::~vector[abi:v170000]()
PUBLIC 27944 0 ListManager::init()
PUBLIC 27b00 0 geode::utils::web::AsyncWebResult<matjson::Value>::then(geode::utils::MiniFunction<void (matjson::Value)>)
PUBLIC 27c5c 0 ListManager::getRating(GJGameLevel*)
PUBLIC 2814c 0 NLWRating::NLWRating(NLWRating const&)
PUBLIC 284d4 0 ListManager::getTierColor(std::__ndk1::basic_string<char, std::__ndk1::char_traits<char>, std::__ndk1::allocator<char> >)
PUBLIC 287f4 0 std::__ndk1::operator==[abi:v170000]<char, std::__ndk1::char_traits<char>, std::__ndk1::allocator<char> >(std::__ndk1::basic_string<char, std::__ndk1::char_traits<char>, std::__ndk1::allocator<char> > const&, std::__ndk1::basic_string const*)
PUBLIC 28878 0 ListManager::getEnjoymentColor(float)
PUBLIC 28964 0 ListManager::getRatingLink(NLWRating)
PUBLIC 28ce0 0 std::__ndk1::__destroy_at[abi:v170000]<NLWRating, 0>(NLWRating*)
PUBLIC 28d74 0 std::__ndk1::__exception_guard<std::__ndk1::vector<matjson::Value, std::__ndk1::allocator<matjson::Value> >::__destroy_vector>::~__exception_guard[abi:v170000]()
PUBLIC 28dec 0 std::__ndk1::vector<matjson::Value, std::__ndk1::allocator<matjson::Value> >::__throw_length_error[abi:v170000]() const
PUBLIC 28e00 0 std::__ndk1::vector<NLWRating, std::__ndk1::allocator<NLWRating> >::__push_back_slow_path<NLWRating const&>(NLWRating const&)
PUBLIC 2907c 0 std::__ndk1::__split_buffer<NLWRating, std::__ndk1::allocator<NLWRating>&>::~__split_buffer()
PUBLIC 290d0 0 std::__ndk1::vector<NLWRating, std::__ndk1::allocator<NLWRating> >::__throw_length_error[abi:v170000]() const
PUBLIC 290e4 0 geode::utils::MiniFunctionState<geode::utils::web::AsyncWebResult<matjson::Value>::then(geode::utils::MiniFunction<void (matjson::Value)>)::{lambda(geode::utils::web::SentAsyncWebRequest&, std::__ndk1::vector<unsigned char, std::__ndk1::allocator<unsigned char> > const&)#1}, void, geode::utils::web::SentAsyncWebRequest&, std::__ndk1::vector<unsigned char, std::__ndk1::allocator<unsigned char> > const&>::~MiniFunctionState()
PUBLIC 290fc 0 geode::utils::MiniFunctionState<geode::utils::web::AsyncWebResult<matjson::Value>::then(geode::utils::MiniFunction<void (matjson::Value)>)::{lambda(geode::utils::web::SentAsyncWebRequest&, std::__ndk1::vector<unsigned char, std::__ndk1::allocator<unsigned char> > const&)#1}, void, geode::utils::web::SentAsyncWebRequest&, std::__ndk1::vector<unsigned char, std::__ndk1::allocator<unsigned char> > const&>::~MiniFunctionState()
PUBLIC 29130 0 geode::utils::MiniFunctionState<geode::utils::web::AsyncWebResult<matjson::Value>::then(geode::utils::MiniFunction<void (matjson::Value)>)::{lambda(geode::utils::web::SentAsyncWebRequest&, std::__ndk1::vector<unsigned char, std::__ndk1::allocator<unsigned char> > const&)#1}, void, geode::utils::web::SentAsyncWebRequest&, std::__ndk1::vector<unsigned char, std::__ndk1::allocator<unsigned char> > const&>::call(geode::utils::web::SentAsyncWebRequest&, std::__ndk1::vector<unsigned char, std::__ndk1::allocator<unsigned char> > const&) const
PUBLIC 29138 0 geode::utils::MiniFunctionState<geode::utils::web::AsyncWebResult<matjson::Value>::then(geode::utils::MiniFunction<void (matjson::Value)>)::{lambda(geode::utils::web::SentAsyncWebRequest&, std::__ndk1::vector<unsigned char, std::__ndk1::allocator<unsigned char> > const&)#1}, void, geode::utils::web::SentAsyncWebRequest&, std::__ndk1::vector<unsigned char, std::__ndk1::allocator<unsigned char> > const&>::clone() const
PUBLIC 291b4 0 geode::utils::web::AsyncWebResult<matjson::Value>::then(geode::utils::MiniFunction<void (matjson::Value)>)::{lambda(geode::utils::web::SentAsyncWebRequest&, std::__ndk1::vector<unsigned char, std::__ndk1::allocator<unsigned char> > const&)#1}::operator()(geode::utils::web::SentAsyncWebRequest&, std::__ndk1::vector<unsigned char, std::__ndk1::allocator<unsigned char> > const&) const
PUBLIC 29464 0 geode::Result<matjson::Value, std::__ndk1::basic_string<char, std::__ndk1::char_traits<char>, std::__ndk1::allocator<char> > >::unwrap() &
PUBLIC 29564 0 cpp::bitwizeshift::result<matjson::Value, std::__ndk1::basic_string<char, std::__ndk1::char_traits<char>, std::__ndk1::allocator<char> > >::~result()
PUBLIC 29584 0 cpp::bitwizeshift::bad_result_access<std::__ndk1::basic_string<char, std::__ndk1::char_traits<char>, std::__ndk1::allocator<char> > >::~bad_result_access()
PUBLIC 295c0 0 cpp::bitwizeshift::bad_result_access<std::__ndk1::basic_string<char, std::__ndk1::char_traits<char>, std::__ndk1::allocator<char> > >::~bad_result_access()
PUBLIC 29604 0 geode::utils::MiniFunctionState<ListManager::init()::$_0, void, matjson::Value>::~MiniFunctionState()
PUBLIC 29608 0 geode::utils::MiniFunctionState<ListManager::init()::$_0, void, matjson::Value>::call(matjson::Value) const
PUBLIC 296e4 0 geode::utils::MiniFunctionState<ListManager::init()::$_0, void, matjson::Value>::clone() const
PUBLIC 29708 0 geode::utils::MiniFunctionStateBase<void, matjson::Value>::~MiniFunctionStateBase()
PUBLIC 2970c 0 geode::utils::MiniFunctionStateBase<void, std::__ndk1::basic_string<char, std::__ndk1::char_traits<char>, std::__ndk1::allocator<char> > const&>::~MiniFunctionStateBase()
PUBLIC 29710 0 geode::utils::MiniFunctionState<ListManager::init()::$_1, void, std::__ndk1::basic_string<char, std::__ndk1::char_traits<char>, std::__ndk1::allocator<char> > const&>::~MiniFunctionState()
PUBLIC 29714 0 geode::utils::MiniFunctionState<ListManager::init()::$_1, void, std::__ndk1::basic_string<char, std::__ndk1::char_traits<char>, std::__ndk1::allocator<char> > const&>::call(std::__ndk1::basic_string<char, std::__ndk1::char_traits<char>, std::__ndk1::allocator<char> > const&) const
PUBLIC 29944 0 geode::utils::MiniFunctionState<ListManager::init()::$_1, void, std::__ndk1::basic_string<char, std::__ndk1::char_traits<char>, std::__ndk1::allocator<char> > const&>::clone() const
PUBLIC 29968 0 _GLOBAL__sub_I_ListManager.cpp
PUBLIC 299e8 0 NLWInfoPopupLayer::setup(GJGameLevel*, NLWRating*)
PUBLIC 2a2d8 0 NLWInfoPopupLayer::onOpen(cocos2d::CCObject*)
PUBLIC 2a424 0 NLWInfoPopupLayer::create(GJGameLevel*, NLWRating*)
PUBLIC 2a564 0 geode::Popup<GJGameLevel*, NLWRating*>::~Popup()
PUBLIC 2a5d0 0 NLWInfoPopupLayer::~NLWInfoPopupLayer()
PUBLIC 2a644 0 geode::Popup<GJGameLevel*, NLWRating*>::registerWithTouchDispatcher()
PUBLIC 2a670 0 geode::Popup<GJGameLevel*, NLWRating*>::keyDown(cocos2d::enumKeyCodes)
PUBLIC 2a698 0 cocos2d::CCLayerRGBA::setOpacityModifyRGB(bool)
PUBLIC 2a69c 0 cocos2d::CCLayerRGBA::isOpacityModifyRGB()
PUBLIC 2a6a4 0 geode::Popup<GJGameLevel*, NLWRating*>::onClose(cocos2d::CCObject*)
PUBLIC 2a6e0 0 {virtual override thunk({offset(-320)}, NLWInfoPopupLayer::~NLWInfoPopupLayer())}
PUBLIC 2a74c 0 {virtual override thunk({offset(-320)}, NLWInfoPopupLayer::~NLWInfoPopupLayer())}
PUBLIC 2a7c0 0 {virtual override thunk({offset(-344)}, geode::Popup<GJGameLevel*, NLWRating*>::keyDown(cocos2d::enumKeyCodes))}
PUBLIC 2a7ec 0 {virtual override thunk({offset(-408)}, cocos2d::CCLayerRGBA::setOpacityModifyRGB(bool))}
PUBLIC 2a7f0 0 {virtual override thunk({offset(-408)}, cocos2d::CCLayerRGBA::isOpacityModifyRGB())}
PUBLIC 2a7f8 0 geode::Popup<GJGameLevel*, NLWRating*>::~Popup()
PUBLIC 2a7fc 0 {virtual override thunk({offset(-320)}, geode::Popup<GJGameLevel*, NLWRating*>::~Popup())}
PUBLIC 2a868 0 {virtual override thunk({offset(-320)}, geode::Popup<GJGameLevel*, NLWRating*>::~Popup())}
PUBLIC 2a86c 0 geode::Popup<GJGameLevel*, NLWRating*>::initBase(float, float, GJGameLevel*, NLWRating*, char const*, cocos2d::CCRect, bool)
PUBLIC m 2ab74 0 NLWRating::NLWRating(matjson::Value)
PUBLIC 2b098 0 NLWRating::format()
PUBLIC 2b190 0 geode::utils::MiniFunction<geode::TextRenderer::Label(int)>::~MiniFunction()
PUBLIC 2b1a8 0 PlainTextArea::init(std::__ndk1::basic_string<char, std::__ndk1::char_traits<char>, std::__ndk1::allocator<char> > const&, cocos2d::CCSize const&)
PUBLIC 2b3c0 0 PlainTextArea::updateLabel()
PUBLIC m 2b538 0 PlainTextArea::~PlainTextArea()
PUBLIC 2b5b0 0 {virtual override thunk({offset(-320)}, PlainTextArea::~PlainTextArea())}
PUBLIC 2b62c 0 PlainTextArea::~PlainTextArea()
PUBLIC 2b6ac 0 {virtual override thunk({offset(-320)}, PlainTextArea::~PlainTextArea())}
PUBLIC 2b730 0 PlainTextArea::setString(char const*)
PUBLIC 2b76c 0 {virtual override thunk({offset(-408)}, PlainTextArea::setString(char const*))}
PUBLIC 2b7a8 0 PlainTextArea::getString()
PUBLIC 2b7c0 0 {virtual override thunk({offset(-408)}, PlainTextArea::getString())}
PUBLIC 2b7d8 0 PlainTextArea::create(std::__ndk1::basic_string<char, std::__ndk1::char_traits<char>, std::__ndk1::allocator<char> > const&, cocos2d::CCSize const&)
PUBLIC 2b8b4 0 std::__ndk1::basic_string<char, std::__ndk1::char_traits<char>, std::__ndk1::allocator<char> >::__assign_external(char const*, unsigned long)
PUBLIC 2b9f0 0 geode::utils::MiniFunctionState<$_0, geode::TextRenderer::Label, int>::~MiniFunctionState()
PUBLIC 2b9f4 0 geode::utils::MiniFunctionState<$_0, geode::TextRenderer::Label, int>::call(int) const
PUBLIC 2ba64 0 geode::utils::MiniFunctionState<$_0, geode::TextRenderer::Label, int>::clone() const
PUBLIC 2ba88 0 geode::utils::MiniFunctionStateBase<geode::TextRenderer::Label, int>::~MiniFunctionStateBase()
PUBLIC 2ba8c 0 _GLOBAL__sub_I_PlainTextArea.cpp
PUBLIC 2bad0 0 __cxx_global_var_init
PUBLIC 2c010 0 geode::modifier::ModifyBase<geode::modifier::ModifyDerive<hook7<(anonymous namespace)::hook7Parent>, MenuLayer> >::~ModifyBase()
PUBLIC 2c02c 0 geode::modifier::ModifyDerive<hook7<(anonymous namespace)::hook7Parent>, MenuLayer>::apply()
PUBLIC 2c384 0 geode::modifier::ModifyBase<geode::modifier::ModifyDerive<hook7<(anonymous namespace)::hook7Parent>, MenuLayer> >::apply()
PUBLIC 2c388 0 geode::modifier::AsStaticFunction_init<hook7<(anonymous namespace)::hook7Parent>, bool (hook7<(anonymous namespace)::hook7Parent>::*)()>::Impl<bool (hook7<(anonymous namespace)::hook7Parent>::*)()>::function(hook7<(anonymous namespace)::hook7Parent>*)
PUBLIC 2c3b4 0 geode::addresser::Addresser::addressOfVirtual<bool, MenuLayer, >(bool (MenuLayer::*)())
PUBLIC 2c510 0 geode::getMod()
PUBLIC 2c54c 0 _GLOBAL__sub_I_entry.cpp
PUBLIC 2c598 0 cocos2d::CCDestructor::lock(void*)
PUBLIC m 2c680 0 cocos2d::CCDestructor::~CCDestructor()
PUBLIC 2c780 0 wrapFunction(unsigned long, tulip::hook::WrapperMetadata const&)
PUBLIC 2c8bc 0 tulip::hook::Result<void*, std::__ndk1::basic_string<char, std::__ndk1::char_traits<char>, std::__ndk1::allocator<char> > >::unwrapErr() &
PUBLIC 2c978 0 tulip::hook::Result<void*, std::__ndk1::basic_string<char, std::__ndk1::char_traits<char>, std::__ndk1::allocator<char> > >::unwrap() &
PUBLIC 2ca78 0 tulip::hook::WrapperMetadata::~WrapperMetadata()
PUBLIC m 2cadc 0 cocos2d::CCNode::CCNode()
PUBLIC m 2cc68 0 cocos2d::CCObject::CCObject()
PUBLIC m 2cdd4 0 cocos2d::CCNode::~CCNode()
PUBLIC 2d060 0 cocos2d::CCNode::~CCNode()
PUBLIC m 2d084 0 cocos2d::CCLayer::CCLayer()
PUBLIC 2d214 0 {virtual override thunk({offset(-320)}, cocos2d::CCLayer::~CCLayer())}
PUBLIC 2d21c 0 cocos2d::CCLayer::~CCLayer()
PUBLIC 2d240 0 {virtual override thunk({offset(-320)}, cocos2d::CCLayer::~CCLayer())}
PUBLIC 2d268 0 cocos2d::CCObject::~CCObject()
PUBLIC m 2d28c 0 cocos2d::CCLayerColor::CCLayerColor()
PUBLIC m 2d42c 0 cocos2d::CCLayerRGBA::CCLayerRGBA()
PUBLIC m 2d5c4 0 cocos2d::CCLayerRGBA::~CCLayerRGBA()
PUBLIC m 2d8b0 0 cocos2d::CCLayerColor::~CCLayerColor()
PUBLIC 2db80 0 {virtual override thunk({offset(-320)}, cocos2d::CCLayerColor::~CCLayerColor())}
PUBLIC 2db88 0 cocos2d::CCLayerColor::~CCLayerColor()
PUBLIC 2dbac 0 {virtual override thunk({offset(-320)}, cocos2d::CCLayerColor::~CCLayerColor())}
PUBLIC 2dbd4 0 {virtual override thunk({offset(-320)}, cocos2d::CCLayerRGBA::~CCLayerRGBA())}
PUBLIC 2dbdc 0 cocos2d::CCLayerRGBA::~CCLayerRGBA()
PUBLIC 2dc00 0 {virtual override thunk({offset(-320)}, cocos2d::CCLayerRGBA::~CCLayerRGBA())}
PUBLIC m 2dc28 0 FLAlertLayer::~FLAlertLayer()
PUBLIC 2dc9c 0 {virtual override thunk({offset(-320)}, FLAlertLayer::~FLAlertLayer())}
PUBLIC 2dd10 0 FLAlertLayer::~FLAlertLayer()
PUBLIC 2dd8c 0 {virtual override thunk({offset(-320)}, FLAlertLayer::~FLAlertLayer())}
PUBLIC m 2de08 0 FLAlertLayer::FLAlertLayer()
PUBLIC 2dea4 0 FLAlertLayer::create(FLAlertLayerProtocol*, char const*, gd::string, char const*, char const*, float)
PUBLIC 2e04c 0 tulip::hook::AbstractFunction::from<FLAlertLayer*, FLAlertLayerProtocol*, char const*, gd::string, char const*, char const*, float>(FLAlertLayer* (*)(FLAlertLayerProtocol*, char const*, gd::string, char const*, char const*, float))
PUBLIC 2e4f4 0 FLAlertLayer::create(char const*, gd::string const&, char const*)
PUBLIC m 2e5a0 0 cocos2d::CCObject::~CCObject()
PUBLIC 2e7f4 0 ButtonSprite::create(char const*, char const*, char const*, float)
PUBLIC 2e810 0 CCMenuItemSpriteExtra::create(cocos2d::CCNode*, cocos2d::CCObject*, void (cocos2d::CCObject::*)(cocos2d::CCObject*))
PUBLIC m 2e828 0 cocos2d::CCLayer::~CCLayer()
PUBLIC 2eb04 0 cocos2d::CCObject::update(float)
PUBLIC 2eb08 0 tulip::hook::lib::bitwizeshift::bad_result_access<std::__ndk1::basic_string<char, std::__ndk1::char_traits<char>, std::__ndk1::allocator<char> > >::~bad_result_access()
PUBLIC 2eb44 0 tulip::hook::lib::bitwizeshift::bad_result_access<std::__ndk1::basic_string<char, std::__ndk1::char_traits<char>, std::__ndk1::allocator<char> > >::~bad_result_access()
PUBLIC 2eb88 0 std::__ndk1::__hash_table<std::__ndk1::__hash_value_type<void*, bool>, std::__ndk1::__unordered_map_hasher<void*, std::__ndk1::__hash_value_type<void*, bool>, std::__ndk1::hash<void*>, std::__ndk1::equal_to<void*>, true>, std::__ndk1::__unordered_map_equal<void*, std::__ndk1::__hash_value_type<void*, bool>, std::__ndk1::equal_to<void*>, std::__ndk1::hash<void*>, true>, std::__ndk1::allocator<std::__ndk1::__hash_value_type<void*, bool> > >::__emplace_unique_key_args<void*, std::__ndk1::piecewise_construct_t const&, std::__ndk1::tuple<void* const&>, std::__ndk1::tuple<> >(void* const&, std::__ndk1::piecewise_construct_t const&, std::__ndk1::tuple<void* const&>, std::__ndk1::tuple<>)
PUBLIC 2eee4 0 std::__ndk1::__hash_table<std::__ndk1::__hash_value_type<void*, bool>, std::__ndk1::__unordered_map_hasher<void*, std::__ndk1::__hash_value_type<void*, bool>, std::__ndk1::hash<void*>, std::__ndk1::equal_to<void*>, true>, std::__ndk1::__unordered_map_equal<void*, std::__ndk1::__hash_value_type<void*, bool>, std::__ndk1::equal_to<void*>, std::__ndk1::hash<void*>, true>, std::__ndk1::allocator<std::__ndk1::__hash_value_type<void*, bool> > >::__do_rehash<true>(unsigned long)
PUBLIC 2f0bc 0 std::__ndk1::__hash_table<std::__ndk1::__hash_value_type<void*, bool>, std::__ndk1::__unordered_map_hasher<void*, std::__ndk1::__hash_value_type<void*, bool>, std::__ndk1::hash<void*>, std::__ndk1::equal_to<void*>, true>, std::__ndk1::__unordered_map_equal<void*, std::__ndk1::__hash_value_type<void*, bool>, std::__ndk1::equal_to<void*>, std::__ndk1::hash<void*>, true>, std::__ndk1::allocator<std::__ndk1::__hash_value_type<void*, bool> > >::find<void*>(void* const&)
PUBLIC 2f1d0 0 std::__ndk1::__hash_table<std::__ndk1::__hash_value_type<void*, bool>, std::__ndk1::__unordered_map_hasher<void*, std::__ndk1::__hash_value_type<void*, bool>, std::__ndk1::hash<void*>, std::__ndk1::equal_to<void*>, true>, std::__ndk1::__unordered_map_equal<void*, std::__ndk1::__hash_value_type<void*, bool>, std::__ndk1::equal_to<void*>, std::__ndk1::hash<void*>, true>, std::__ndk1::allocator<std::__ndk1::__hash_value_type<void*, bool> > >::remove(std::__ndk1::__hash_const_iterator<std::__ndk1::__hash_node<std::__ndk1::__hash_value_type<void*, bool>, void*>*>)
PUBLIC 2f304 0 std::__ndk1::vector<tulip::hook::AbstractType, std::__ndk1::allocator<tulip::hook::AbstractType> >::__throw_length_error[abi:v170000]() const
PUBLIC 2f318 0 fmt::v10::detail::throw_format_error(char const*)
PUBLIC m 2f368 0 fmt::v10::format_error::runtime_error(char const*)
PUBLIC 2f398 0 fmt::v10::detail::write_loc(fmt::v10::appender, fmt::v10::loc_value, fmt::v10::format_specs<char> const&, fmt::v10::detail::locale_ref)
PUBLIC 2f524 0 fmt::v10::format_facet<std::__ndk1::locale>::format_facet(std::__ndk1::locale&)
PUBLIC 2f6bc 0 fmt::v10::format_facet<std::__ndk1::locale>::~format_facet()
PUBLIC 2f738 0 fmt::v10::format_facet<std::__ndk1::locale>::do_put(fmt::v10::appender, fmt::v10::loc_value, fmt::v10::format_specs<char> const&) const
PUBLIC 2fa40 0 fmt::v10::loc_value::visit<fmt::v10::detail::loc_writer<char> >(fmt::v10::detail::loc_writer<char>&&)
PUBLIC 2fac8 0 fmt::v10::detail::loc_writer<char>::~loc_writer()
PUBLIC 2fb2c 0 fmt::v10::vformat(fmt::v10::basic_string_view<char>, fmt::v10::basic_format_args<fmt::v10::basic_format_context<fmt::v10::appender, char> >)
PUBLIC 2fc50 0 fmt::v10::detail::vformat_to<char>(fmt::v10::detail::buffer<char>&, fmt::v10::basic_string_view<char>, fmt::v10::detail::vformat_args<char>::type, fmt::v10::detail::locale_ref)
PUBLIC 30350 0 fmt::v10::detail::is_printable(unsigned int)
PUBLIC 30574 0 fmt::v10::detail::dragonbox::to_decimal<float>(float)
PUBLIC 3087c 0 fmt::v10::detail::dragonbox::to_decimal<double>(double)
PUBLIC 30e28 0 fmt::v10::detail::thousands_sep_impl<char>(fmt::v10::detail::locale_ref)
PUBLIC m 30f40 0 fmt::v10::format_error::~format_error()
PUBLIC 30f64 0 fmt::v10::basic_memory_buffer<char, (unsigned long)500, std::__ndk1::allocator<char> >::grow(unsigned long)
PUBLIC 3109c 0 fmt::v10::format_facet<std::__ndk1::locale>::~format_facet()
PUBLIC 31128 0 fmt::v10::detail::write<char, fmt::v10::appender, int, 0>(fmt::v10::appender, int)
PUBLIC 31360 0 fmt::v10::detail::copy_str_noinline<char, char*, fmt::v10::appender>(char*, char*, fmt::v10::appender)
PUBLIC 314cc 0 fmt::v10::detail::write<char, fmt::v10::appender, unsigned int, 0>(fmt::v10::appender, unsigned int)
PUBLIC 31678 0 fmt::v10::detail::write<char, fmt::v10::appender, long long, 0>(fmt::v10::appender, long long)
PUBLIC 318d4 0 fmt::v10::detail::write<char, fmt::v10::appender, unsigned long long, 0>(fmt::v10::appender, unsigned long long)
PUBLIC 31aa8 0 fmt::v10::detail::write<char, fmt::v10::appender, __int128, 0>(fmt::v10::appender, __int128)
PUBLIC 31df4 0 fmt::v10::detail::write<char, fmt::v10::appender, unsigned __int128, 0>(fmt::v10::appender, unsigned __int128)
PUBLIC 320c8 0 fmt::v10::detail::write<char, fmt::v10::appender, bool, 0>(fmt::v10::appender, bool, fmt::v10::format_specs<char> const&, fmt::v10::detail::locale_ref)
PUBLIC 32204 0 fmt::v10::detail::write_bytes<(fmt::v10::align::type)1, char, fmt::v10::appender>(fmt::v10::appender, fmt::v10::basic_string_view<char>, fmt::v10::format_specs<char> const&)
PUBLIC 323ec 0 fmt::v10::detail::write_int_noinline<char, fmt::v10::appender, unsigned int>(fmt::v10::appender, fmt::v10::detail::write_int_arg<unsigned int>, fmt::v10::format_specs<char> const&, fmt::v10::detail::locale_ref)
PUBLIC 32edc 0 fmt::v10::detail::write_int<fmt::v10::appender, char, fmt::v10::detail::write_int<char, fmt::v10::appender, unsigned int>(fmt::v10::appender, fmt::v10::detail::write_int_arg<unsigned int>, fmt::v10::format_specs<char> const&, fmt::v10::detail::locale_ref)::{lambda(fmt::v10::appender)#1}>(fmt::v10::appender, int, unsigned int, fmt::v10::format_specs<char> const&, fmt::v10::detail::write_int<char, fmt::v10::appender, unsigned int>(fmt::v10::appender, fmt::v10::detail::write_int_arg<unsigned int>, fmt::v10::format_specs<char> const&, fmt::v10::detail::locale_ref)::{lambda(fmt::v10::appender)#1})::{lambda(fmt::v10::appender(fmt::v10::appender))#1}::operator() const
PUBLIC 3306c 0 fmt::v10::detail::write_int<fmt::v10::appender, char, fmt::v10::detail::write_int<char, fmt::v10::appender, unsigned int>(fmt::v10::appender, fmt::v10::detail::write_int_arg<unsigned int>, fmt::v10::format_specs<char> const&, fmt::v10::detail::locale_ref)::{lambda(fmt::v10::appender)#2}>(fmt::v10::appender, int, unsigned int, fmt::v10::format_specs<char> const&, fmt::v10::detail::write_int<char, fmt::v10::appender, unsigned int>(fmt::v10::appender, fmt::v10::detail::write_int_arg<unsigned int>, fmt::v10::format_specs<char> const&, fmt::v10::detail::locale_ref)::{lambda(fmt::v10::appender)#2})::{lambda(fmt::v10::appender(fmt::v10::appender))#1}::operator() const
PUBLIC 3322c 0 fmt::v10::detail::write_escaped_char<char, fmt::v10::appender>(fmt::v10::appender, char)
PUBLIC 333ac 0 fmt::v10::detail::write_padded<(fmt::v10::align::type)1, fmt::v10::appender, char, fmt::v10::detail::write_nonfinite<char, fmt::v10::appender>(fmt::v10::appender, bool, fmt::v10::format_specs<char>, fmt::v10::detail::float_specs const&)::{lambda(fmt::v10::appender&)#1}>(fmt::v10::appender, fmt::v10::format_specs<char> const&, unsigned long, unsigned long, fmt::v10::detail::write_nonfinite<char, fmt::v10::appender>(fmt::v10::appender, bool, fmt::v10::format_specs<char>, fmt::v10::detail::float_specs const&)::{lambda(fmt::v10::appender&)#1})
PUBLIC 335f0 0 fmt::v10::detail::do_write_float<fmt::v10::appender, fmt::v10::detail::dragonbox::decimal_fp<float>, char, fmt::v10::detail::digit_grouping<char> >(fmt::v10::appender, fmt::v10::detail::dragonbox::decimal_fp<float> const&, fmt::v10::format_specs<char> const&, fmt::v10::detail::float_specs, fmt::v10::detail::locale_ref)
PUBLIC 33c7c 0 fmt::v10::detail::do_write_float<fmt::v10::appender, fmt::v10::detail::dragonbox::decimal_fp<float>, char, fmt::v10::detail::digit_grouping<char> >(fmt::v10::appender, fmt::v10::detail::dragonbox::decimal_fp<float> const&, fmt::v10::format_specs<char> const&, fmt::v10::detail::float_specs, fmt::v10::detail::locale_ref)::{lambda(fmt::v10::appender(fmt::v10::appender))#1}::operator() const
PUBLIC 33dd0 0 fmt::v10::detail::digit_grouping<char>::digit_grouping(fmt::v10::detail::locale_ref, bool)
PUBLIC 33f90 0 fmt::v10::detail::digit_grouping<char>::~digit_grouping()
PUBLIC 33fd4 0 fmt::v10::detail::write_exponent<char, fmt::v10::appender>(int, fmt::v10::appender)
PUBLIC 341bc 0 fmt::v10::detail::write_significand<char, unsigned int, 0>(char*, unsigned int, int, int, char)
PUBLIC 34344 0 fmt::v10::detail::do_write_float<fmt::v10::appender, fmt::v10::detail::dragonbox::decimal_fp<float>, char, fmt::v10::detail::digit_grouping<char> >(fmt::v10::appender, fmt::v10::detail::dragonbox::decimal_fp<float> const&, fmt::v10::format_specs<char> const&, fmt::v10::detail::float_specs, fmt::v10::detail::locale_ref)::{lambda(fmt::v10::appender(fmt::v10::appender))#2}::operator() const
PUBLIC 34480 0 fmt::v10::detail::write_significand<char, fmt::v10::appender, unsigned int, fmt::v10::detail::digit_grouping<char> >(fmt::v10::appender, unsigned int, int, int, fmt::v10::detail::digit_grouping<char> const&)
PUBLIC 34744 0 fmt::v10::detail::digit_grouping<char>::apply<fmt::v10::appender, char>(fmt::v10::appender, fmt::v10::basic_string_view<char>) const
PUBLIC 34b20 0 fmt::v10::basic_memory_buffer<int, (unsigned long)500, std::__ndk1::allocator<int> >::grow(unsigned long)
PUBLIC 34c30 0 fmt::v10::detail::write_padded<(fmt::v10::align::type)2, fmt::v10::appender, char, fmt::v10::detail::do_write_float<fmt::v10::appender, fmt::v10::detail::dragonbox::decimal_fp<float>, char, fmt::v10::detail::digit_grouping<char> >(fmt::v10::appender, fmt::v10::detail::dragonbox::decimal_fp<float> const&, fmt::v10::format_specs<char> const&, fmt::v10::detail::float_specs, fmt::v10::detail::locale_ref)::{lambda(fmt::v10::appender&)#3}>(fmt::v10::appender, fmt::v10::format_specs<char> const&, unsigned long, unsigned long, fmt::v10::detail::do_write_float<fmt::v10::appender, fmt::v10::detail::dragonbox::decimal_fp<float>, char, fmt::v10::detail::digit_grouping<char> >(fmt::v10::appender, fmt::v10::detail::dragonbox::decimal_fp<float> const&, fmt::v10::format_specs<char> const&, fmt::v10::detail::float_specs, fmt::v10::detail::locale_ref)::{lambda(fmt::v10::appender&)#3})
PUBLIC 34d9c 0 fmt::v10::detail::write_significand<fmt::v10::appender, char, unsigned int, fmt::v10::detail::digit_grouping<char> >(fmt::v10::appender, unsigned int, int, int, char, fmt::v10::detail::digit_grouping<char> const&)
PUBLIC 34ee0 0 fmt::v10::detail::do_write_float<fmt::v10::appender, fmt::v10::detail::dragonbox::decimal_fp<float>, char, fmt::v10::detail::digit_grouping<char> >(fmt::v10::appender, fmt::v10::detail::dragonbox::decimal_fp<float> const&, fmt::v10::format_specs<char> const&, fmt::v10::detail::float_specs, fmt::v10::detail::locale_ref)::{lambda(fmt::v10::appender(fmt::v10::appender))#4}::operator() const
PUBLIC 35104 0 fmt::v10::detail::do_write_float<fmt::v10::appender, fmt::v10::detail::dragonbox::decimal_fp<double>, char, fmt::v10::detail::digit_grouping<char> >(fmt::v10::appender, fmt::v10::detail::dragonbox::decimal_fp<double> const&, fmt::v10::format_specs<char> const&, fmt::v10::detail::float_specs, fmt::v10::detail::locale_ref)
PUBLIC 3579c 0 fmt::v10::detail::do_write_float<fmt::v10::appender, fmt::v10::detail::dragonbox::decimal_fp<double>, char, fmt::v10::detail::digit_grouping<char> >(fmt::v10::appender, fmt::v10::detail::dragonbox::decimal_fp<double> const&, fmt::v10::format_specs<char> const&, fmt::v10::detail::float_specs, fmt::v10::detail::locale_ref)::{lambda(fmt::v10::appender(fmt::v10::appender))#1}::operator() const
PUBLIC 358f4 0 fmt::v10::detail::write_significand<char, unsigned long, 0>(char*, unsigned long, int, int, char)
PUBLIC 35aa0 0 fmt::v10::detail::do_write_float<fmt::v10::appender, fmt::v10::detail::dragonbox::decimal_fp<double>, char, fmt::v10::detail::digit_grouping<char> >(fmt::v10::appender, fmt::v10::detail::dragonbox::decimal_fp<double> const&, fmt::v10::format_specs<char> const&, fmt::v10::detail::float_specs, fmt::v10::detail::locale_ref)::{lambda(fmt::v10::appender(fmt::v10::appender))#2}::operator() const
PUBLIC 35bdc 0 fmt::v10::detail::write_significand<char, fmt::v10::appender, unsigned long, fmt::v10::detail::digit_grouping<char> >(fmt::v10::appender, unsigned long, int, int, fmt::v10::detail::digit_grouping<char> const&)
PUBLIC 35eb8 0 fmt::v10::detail::write_padded<(fmt::v10::align::type)2, fmt::v10::appender, char, fmt::v10::detail::do_write_float<fmt::v10::appender, fmt::v10::detail::dragonbox::decimal_fp<double>, char, fmt::v10::detail::digit_grouping<char> >(fmt::v10::appender, fmt::v10::detail::dragonbox::decimal_fp<double> const&, fmt::v10::format_specs<char> const&, fmt::v10::detail::float_specs, fmt::v10::detail::locale_ref)::{lambda(fmt::v10::appender&)#3}>(fmt::v10::appender, fmt::v10::format_specs<char> const&, unsigned long, unsigned long, fmt::v10::detail::do_write_float<fmt::v10::appender, fmt::v10::detail::dragonbox::decimal_fp<double>, char, fmt::v10::detail::digit_grouping<char> >(fmt::v10::appender, fmt::v10::detail::dragonbox::decimal_fp<double> const&, fmt::v10::format_specs<char> const&, fmt::v10::detail::float_specs, fmt::v10::detail::locale_ref)::{lambda(fmt::v10::appender&)#3})
PUBLIC 36024 0 fmt::v10::detail::write_significand<fmt::v10::appender, char, unsigned long, fmt::v10::detail::digit_grouping<char> >(fmt::v10::appender, unsigned long, int, int, char, fmt::v10::detail::digit_grouping<char> const&)
PUBLIC 36168 0 fmt::v10::detail::do_write_float<fmt::v10::appender, fmt::v10::detail::dragonbox::decimal_fp<double>, char, fmt::v10::detail::digit_grouping<char> >(fmt::v10::appender, fmt::v10::detail::dragonbox::decimal_fp<double> const&, fmt::v10::format_specs<char> const&, fmt::v10::detail::float_specs, fmt::v10::detail::locale_ref)::{lambda(fmt::v10::appender(fmt::v10::appender))#4}::operator() const
PUBLIC 36398 0 fmt::v10::detail::write_float<char, fmt::v10::appender, long double>(fmt::v10::appender, long double, fmt::v10::format_specs<char>, fmt::v10::detail::locale_ref)
PUBLIC 367d4 0 fmt::v10::detail::format_hexfloat<long double, 0>(long double, int, fmt::v10::detail::float_specs, fmt::v10::detail::buffer<char>&)
PUBLIC 36d84 0 fmt::v10::detail::write_bytes<(fmt::v10::align::type)2, char, fmt::v10::appender>(fmt::v10::appender, fmt::v10::basic_string_view<char>, fmt::v10::format_specs<char> const&)
PUBLIC 36f6c 0 fmt::v10::detail::format_float<long double>(long double, int, fmt::v10::detail::float_specs, fmt::v10::detail::buffer<char>&)
PUBLIC 37238 0 fmt::v10::detail::format_dragon(fmt::v10::detail::basic_fp<unsigned __int128>, unsigned int, int, fmt::v10::detail::buffer<char>&, int&)
PUBLIC 3868c 0 fmt::v10::detail::bigint::operator<<=(int)
PUBLIC 387bc 0 fmt::v10::detail::bigint::assign_pow10(int)
PUBLIC 3892c 0 fmt::v10::detail::bigint::divmod_assign(fmt::v10::detail::bigint const&)
PUBLIC 38ca0 0 fmt::v10::basic_memory_buffer<unsigned int, (unsigned long)32, std::__ndk1::allocator<unsigned int> >::grow(unsigned long)
PUBLIC 38db0 0 fmt::v10::detail::bigint::square()
PUBLIC 39360 0 fmt::v10::detail::do_write_float<fmt::v10::appender, fmt::v10::detail::big_decimal_fp, char, fmt::v10::detail::digit_grouping<char> >(fmt::v10::appender, fmt::v10::detail::big_decimal_fp const&, fmt::v10::format_specs<char> const&, fmt::v10::detail::float_specs, fmt::v10::detail::locale_ref)
PUBLIC 399d4 0 fmt::v10::detail::do_write_float<fmt::v10::appender, fmt::v10::detail::big_decimal_fp, char, fmt::v10::detail::digit_grouping<char> >(fmt::v10::appender, fmt::v10::detail::big_decimal_fp const&, fmt::v10::format_specs<char> const&, fmt::v10::detail::float_specs, fmt::v10::detail::locale_ref)::{lambda(fmt::v10::appender(fmt::v10::appender))#1}::operator() const
PUBLIC 39b50 0 fmt::v10::detail::copy_str_noinline<char, char const*, fmt::v10::appender>(char const*, char const*, fmt::v10::appender)
PUBLIC 39cbc 0 fmt::v10::detail::do_write_float<fmt::v10::appender, fmt::v10::detail::big_decimal_fp, char, fmt::v10::detail::digit_grouping<char> >(fmt::v10::appender, fmt::v10::detail::big_decimal_fp const&, fmt::v10::format_specs<char> const&, fmt::v10::detail::float_specs, fmt::v10::detail::locale_ref)::{lambda(fmt::v10::appender(fmt::v10::appender))#2}::operator() const
PUBLIC 39df8 0 fmt::v10::detail::write_significand<char, fmt::v10::appender, char const*, fmt::v10::detail::digit_grouping<char> >(fmt::v10::appender, char const*, int, int, fmt::v10::detail::digit_grouping<char> const&)
PUBLIC 3a21c 0 fmt::v10::detail::write_padded<(fmt::v10::align::type)2, fmt::v10::appender, char, fmt::v10::detail::do_write_float<fmt::v10::appender, fmt::v10::detail::big_decimal_fp, char, fmt::v10::detail::digit_grouping<char> >(fmt::v10::appender, fmt::v10::detail::big_decimal_fp const&, fmt::v10::format_specs<char> const&, fmt::v10::detail::float_specs, fmt::v10::detail::locale_ref)::{lambda(fmt::v10::appender&)#3}>(fmt::v10::appender, fmt::v10::format_specs<char> const&, unsigned long, unsigned long, fmt::v10::detail::do_write_float<fmt::v10::appender, fmt::v10::detail::big_decimal_fp, char, fmt::v10::detail::digit_grouping<char> >(fmt::v10::appender, fmt::v10::detail::big_decimal_fp const&, fmt::v10::format_specs<char> const&, fmt::v10::detail::float_specs, fmt::v10::detail::locale_ref)::{lambda(fmt::v10::appender&)#3})
PUBLIC 3a388 0 fmt::v10::detail::write_significand<fmt::v10::appender, char, char const*, fmt::v10::detail::digit_grouping<char> >(fmt::v10::appender, char const*, int, int, char, fmt::v10::detail::digit_grouping<char> const&)
PUBLIC 3a5b0 0 fmt::v10::detail::do_write_float<fmt::v10::appender, fmt::v10::detail::big_decimal_fp, char, fmt::v10::detail::digit_grouping<char> >(fmt::v10::appender, fmt::v10::detail::big_decimal_fp const&, fmt::v10::format_specs<char> const&, fmt::v10::detail::float_specs, fmt::v10::detail::locale_ref)::{lambda(fmt::v10::appender(fmt::v10::appender))#4}::operator() const
PUBLIC 3a854 0 fmt::v10::detail::write_padded<(fmt::v10::align::type)2, fmt::v10::appender, char, fmt::v10::detail::write_ptr<char, fmt::v10::appender, unsigned long>(fmt::v10::appender, unsigned long, fmt::v10::format_specs<char> const*)::{lambda(fmt::v10::appender&)#1}>(fmt::v10::appender, fmt::v10::format_specs<char> const&, unsigned long, unsigned long, fmt::v10::detail::write_ptr<char, fmt::v10::appender, unsigned long>(fmt::v10::appender, unsigned long, fmt::v10::format_specs<char> const*)::{lambda(fmt::v10::appender&)#1})
PUBLIC 3aa24 0 fmt::v10::detail::parse_replacement_field<char, fmt::v10::detail::vformat_to<char>(fmt::v10::detail::buffer<char>&, fmt::v10::basic_string_view<char>, fmt::v10::detail::vformat_args<char>::type, fmt::v10::detail::locale_ref)::format_handler&>(char const*, char const*, fmt::v10::detail::vformat_to<char>(fmt::v10::detail::buffer<char>&, fmt::v10::basic_string_view<char>, fmt::v10::detail::vformat_args<char>::type, fmt::v10::detail::locale_ref)::format_handler&)
PUBLIC 3b058 0 fmt::v10::detail::vformat_to<char>(fmt::v10::detail::buffer<char>&, fmt::v10::basic_string_view<char>, fmt::v10::detail::vformat_args<char>::type, fmt::v10::detail::locale_ref)::format_handler::on_format_specs(int, char const*, char const*)
PUBLIC 3bbd4 0 fmt::v10::detail::do_parse_arg_id<char, fmt::v10::detail::parse_replacement_field<char, fmt::v10::detail::vformat_to<char>(fmt::v10::detail::buffer<char>&, fmt::v10::basic_string_view<char>, fmt::v10::detail::vformat_args<char>::type, fmt::v10::detail::locale_ref)::format_handler&>(char const*, char const*, fmt::v10::detail::vformat_to<char>(fmt::v10::detail::buffer<char>&, fmt::v10::basic_string_view<char>, fmt::v10::detail::vformat_args<char>::type, fmt::v10::detail::locale_ref)::format_handler&)::id_adapter&>(char const*, char const*, fmt::v10::detail::parse_replacement_field<char, fmt::v10::detail::vformat_to<char>(fmt::v10::detail::buffer<char>&, fmt::v10::basic_string_view<char>, fmt::v10::detail::vformat_args<char>::type, fmt::v10::detail::locale_ref)::format_handler&>(char const*, char const*, fmt::v10::detail::vformat_to<char>(fmt::v10::detail::buffer<char>&, fmt::v10::basic_string_view<char>, fmt::v10::detail::vformat_args<char>::type, fmt::v10::detail::locale_ref)::format_handler&)::id_adapter&)
PUBLIC 3be30 0 fmt::v10::detail::write_int_noinline<char, fmt::v10::appender, unsigned long>(fmt::v10::appender, fmt::v10::detail::write_int_arg<unsigned long>, fmt::v10::format_specs<char> const&, fmt::v10::detail::locale_ref)
PUBLIC 3c930 0 fmt::v10::detail::write_int<fmt::v10::appender, char, fmt::v10::detail::write_int<char, fmt::v10::appender, unsigned long>(fmt::v10::appender, fmt::v10::detail::write_int_arg<unsigned long>, fmt::v10::format_specs<char> const&, fmt::v10::detail::locale_ref)::{lambda(fmt::v10::appender)#1}>(fmt::v10::appender, int, unsigned int, fmt::v10::format_specs<char> const&, fmt::v10::detail::write_int<char, fmt::v10::appender, unsigned long>(fmt::v10::appender, fmt::v10::detail::write_int_arg<unsigned long>, fmt::v10::format_specs<char> const&, fmt::v10::detail::locale_ref)::{lambda(fmt::v10::appender)#1})::{lambda(fmt::v10::appender(fmt::v10::appender))#1}::operator() const
PUBLIC 3cacc 0 fmt::v10::detail::write_int<fmt::v10::appender, char, fmt::v10::detail::write_int<char, fmt::v10::appender, unsigned long>(fmt::v10::appender, fmt::v10::detail::write_int_arg<unsigned long>, fmt::v10::format_specs<char> const&, fmt::v10::detail::locale_ref)::{lambda(fmt::v10::appender)#2}>(fmt::v10::appender, int, unsigned int, fmt::v10::format_specs<char> const&, fmt::v10::detail::write_int<char, fmt::v10::appender, unsigned long>(fmt::v10::appender, fmt::v10::detail::write_int_arg<unsigned long>, fmt::v10::format_specs<char> const&, fmt::v10::detail::locale_ref)::{lambda(fmt::v10::appender)#2})::{lambda(fmt::v10::appender(fmt::v10::appender))#1}::operator() const
PUBLIC 3cc90 0 fmt::v10::detail::write_int_noinline<char, fmt::v10::appender, unsigned __int128>(fmt::v10::appender, fmt::v10::detail::write_int_arg<unsigned __int128>, fmt::v10::format_specs<char> const&, fmt::v10::detail::locale_ref)
PUBLIC 3d954 0 fmt::v10::detail::write_int<fmt::v10::appender, char, fmt::v10::detail::write_int<char, fmt::v10::appender, unsigned __int128>(fmt::v10::appender, fmt::v10::detail::write_int_arg<unsigned __int128>, fmt::v10::format_specs<char> const&, fmt::v10::detail::locale_ref)::{lambda(fmt::v10::appender)#1}>(fmt::v10::appender, int, unsigned int, fmt::v10::format_specs<char> const&, fmt::v10::detail::write_int<char, fmt::v10::appender, unsigned __int128>(fmt::v10::appender, fmt::v10::detail::write_int_arg<unsigned __int128>, fmt::v10::format_specs<char> const&, fmt::v10::detail::locale_ref)::{lambda(fmt::v10::appender)#1})::{lambda(fmt::v10::appender(fmt::v10::appender))#1}::operator() const
PUBLIC 3db28 0 fmt::v10::detail::write_int<fmt::v10::appender, char, fmt::v10::detail::write_int<char, fmt::v10::appender, unsigned __int128>(fmt::v10::appender, fmt::v10::detail::write_int_arg<unsigned __int128>, fmt::v10::format_specs<char> const&, fmt::v10::detail::locale_ref)::{lambda(fmt::v10::appender)#2}>(fmt::v10::appender, int, unsigned int, fmt::v10::format_specs<char> const&, fmt::v10::detail::write_int<char, fmt::v10::appender, unsigned __int128>(fmt::v10::appender, fmt::v10::detail::write_int_arg<unsigned __int128>, fmt::v10::format_specs<char> const&, fmt::v10::detail::locale_ref)::{lambda(fmt::v10::appender)#2})::{lambda(fmt::v10::appender(fmt::v10::appender))#1}::operator() const
PUBLIC 3dd04 0 fmt::v10::detail::write<char, fmt::v10::appender>(fmt::v10::appender, char, fmt::v10::format_specs<char> const&, fmt::v10::detail::locale_ref)
PUBLIC 3def8 0 fmt::v10::detail::write_float<char, fmt::v10::appender, float>(fmt::v10::appender, float, fmt::v10::format_specs<char>, fmt::v10::detail::locale_ref)
PUBLIC 3e2e4 0 fmt::v10::detail::format_hexfloat<double, 0>(double, int, fmt::v10::detail::float_specs, fmt::v10::detail::buffer<char>&)
PUBLIC 3e84c 0 fmt::v10::detail::format_float<double>(double, int, fmt::v10::detail::float_specs, fmt::v10::detail::buffer<char>&)
PUBLIC 3f038 0 fmt::v10::detail::write<char, fmt::v10::appender, unsigned long, 0>(fmt::v10::appender, unsigned long)
PUBLIC 3f20c 0 fmt::v10::detail::write_float<char, fmt::v10::appender, double>(fmt::v10::appender, double, fmt::v10::format_specs<char>, fmt::v10::detail::locale_ref)
PUBLIC 3f5f4 0 fmt::v10::detail::loc_writer<char>::operator()<int, 0>(int)
PUBLIC 3f8d0 0 fmt::v10::detail::loc_writer<char>::operator()<unsigned int, 0>(unsigned int)
PUBLIC 3fb88 0 fmt::v10::detail::loc_writer<char>::operator()<long long, 0>(long long)
PUBLIC 3fe64 0 fmt::v10::detail::loc_writer<char>::operator()<unsigned long long, 0>(unsigned long long)
PUBLIC 4011c 0 fmt::v10::detail::loc_writer<char>::operator()<__int128, 0>(__int128)
PUBLIC 40404 0 fmt::v10::detail::loc_writer<char>::operator()<unsigned __int128, 0>(unsigned __int128)
PUBLIC 406c4 0 fmt::v10::detail::write_int<fmt::v10::appender, unsigned long, char>(fmt::v10::appender, unsigned long, unsigned int, fmt::v10::format_specs<char> const&, fmt::v10::detail::digit_grouping<char> const&)
PUBLIC 4090c 0 fmt::v10::detail::write_int<fmt::v10::appender, unsigned __int128, char>(fmt::v10::appender, unsigned __int128, unsigned int, fmt::v10::format_specs<char> const&, fmt::v10::detail::digit_grouping<char> const&)
PUBLIC m 40c24 0 __eqtf2
PUBLIC 40cc4 0 __unordtf2
PUBLIC 40cfc 0 __udivti3
PUBLIC 40d08 0 __udivmodti4
PUBLIC 40f40 0 __aarch64_ldadd8_relax
PUBLIC 40f70 0 init_have_lse_atomics
PUBLIC 41008 0 init_cpu_features_resolver
PUBLIC 41440 0 init_cpu_features
PUBLIC 414e0 0 __aarch64_ldadd8_acq_rel
PUBLIC 41510 0 <.plt ELF section in oatmealine.nlw_integration.android64.so>
STACK CFI INIT 22190 10 .cfa: sp 0 +
STACK CFI INIT 221a0 8 .cfa: sp 0 +
STACK CFI INIT 221a8 8 .cfa: sp 0 +
STACK CFI INIT 221b0 14 .cfa: sp 0 +
STACK CFI INIT 221c4 1c .cfa: sp 0 +
STACK CFI INIT 221e0 10 .cfa: sp 0 +
STACK CFI INIT 221f0 68 .cfa: sp 0 +
STACK CFI 221f4 .cfa: sp 32 +
STACK CFI 221fc .cfa: x29 32 + x19: .cfa -16 + ^ .ra: .cfa -24 + ^ x29: .cfa -32 + ^
STACK CFI 22240 .cfa: sp 32 +
STACK CFI 22248 .cfa: sp 0 +
STACK CFI 2224c .cfa: sp 32 +
STACK CFI 22254 .cfa: sp 0 +
STACK CFI INIT 22258 1c .cfa: sp 0 +
STACK CFI INIT 229dc 50 .cfa: sp 0 +
STACK CFI 229e0 .cfa: sp 32 +
STACK CFI 229e8 .cfa: x29 32 + x19: .cfa -16 + ^ .ra: .cfa -24 + ^ x29: .cfa -32 + ^
STACK CFI 22a00 .cfa: sp 32 +
STACK CFI 22a08 .cfa: sp 0 +
STACK CFI 22a0c .cfa: x29 32 +
STACK CFI 22a20 .cfa: sp 32 +
STACK CFI 22a28 .cfa: sp 0 +
STACK CFI INIT 22a2c 7c .cfa: sp 0 +
STACK CFI 22a30 .cfa: sp 48 +
STACK CFI 22a3c .cfa: x29 48 + x19: .cfa -8 + ^ x20: .cfa -16 + ^ x21: .cfa -32 + ^ .ra: .cfa -40 + ^ x29: .cfa -48 + ^
STACK CFI 22a80 .cfa: sp 48 +
STACK CFI 22a8c .cfa: sp 0 +
STACK CFI 22a90 .cfa: x29 48 +
STACK CFI 22a98 .cfa: sp 48 +
STACK CFI 22aa4 .cfa: sp 0 +
STACK CFI INIT 22aa8 4 .cfa: sp 0 +
STACK CFI INIT 22aac 10 .cfa: sp 0 +
STACK CFI 22ab0 .cfa: sp 16 +
STACK CFI 22ab4 .cfa: x29 16 + .ra: .cfa -8 + ^ x29: .cfa -16 + ^
STACK CFI INIT 22abc 14 .cfa: sp 0 +
STACK CFI 22ac0 .cfa: sp 16 +
STACK CFI 22ac4 .cfa: x29 16 + .ra: .cfa -8 + ^ x29: .cfa -16 + ^
STACK CFI INIT 22b20 30 .cfa: sp 0 +
STACK CFI 22b24 .cfa: sp 32 +
STACK CFI 22b2c .cfa: x29 32 + x19: .cfa -16 + ^ .ra: .cfa -24 + ^ x29: .cfa -32 + ^
STACK CFI 22b44 .cfa: sp 32 +
STACK CFI 22b4c .cfa: sp 0 +
STACK CFI INIT 22b50 34 .cfa: sp 0 +
STACK CFI 22b54 .cfa: sp 32 +
STACK CFI 22b5c .cfa: x29 32 + x19: .cfa -16 + ^ .ra: .cfa -24 + ^ x29: .cfa -32 + ^
STACK CFI INIT 22e24 68 .cfa: sp 0 +
STACK CFI 22e28 .cfa: sp 32 +
STACK CFI 22e30 .cfa: x29 32 + x19: .cfa -8 + ^ x20: .cfa -16 + ^ .ra: .cfa -24 + ^ x29: .cfa -32 + ^
STACK CFI 22e48 .cfa: sp 32 +
STACK CFI 22e50 .cfa: sp 0 +
STACK CFI 22e54 .cfa: x29 32 +
STACK CFI 22e80 .cfa: sp 32 +
STACK CFI 22e88 .cfa: sp 0 +
STACK CFI INIT 22e8c 14 .cfa: sp 0 +
STACK CFI 22e90 .cfa: sp 16 +
STACK CFI 22e94 .cfa: x29 16 + .ra: .cfa -8 + ^ x29: .cfa -16 + ^
STACK CFI INIT 22ea0 10c .cfa: sp 0 +
STACK CFI 22ea4 .cfa: sp 64 +
STACK CFI 22eb4 .cfa: x29 64 + x19: .cfa -8 + ^ x20: .cfa -16 + ^ x21: .cfa -24 + ^ x22: .cfa -32 + ^ x23: .cfa -40 + ^ x24: .cfa -48 + ^ .ra: .cfa -56 + ^ x29: .cfa -64 + ^
STACK CFI 22f98 .cfa: sp 64 +
STACK CFI 22fa8 .cfa: sp 0 +
STACK CFI INIT 22fac d4 .cfa: sp 0 +
STACK CFI 22fb0 .cfa: sp 48 +
STACK CFI 22fbc .cfa: x29 48 + x19: .cfa -8 + ^ x20: .cfa -16 + ^ x21: .cfa -32 + ^ .ra: .cfa -40 + ^ x29: .cfa -48 + ^
STACK CFI 2304c .cfa: sp 48 +
STACK CFI 23058 .cfa: sp 0 +
STACK CFI 2305c .cfa: x29 48 +
STACK CFI INIT 23080 3cc .cfa: sp 0 +
STACK CFI INIT 2344c 8c .cfa: sp 0 +
STACK CFI 23454 .cfa: sp 32 +
STACK CFI 2345c .cfa: x29 32 + x19: .cfa -8 + ^ x20: .cfa -16 + ^ .ra: .cfa -24 + ^ x29: .cfa -32 + ^
STACK CFI 234a4 .cfa: sp 32 +
STACK CFI 234ac .cfa: sp 0 +
STACK CFI 234b4 .cfa: x29 32 +
STACK CFI INIT 2360c 70 .cfa: sp 0 +
STACK CFI 23610 .cfa: sp 32 +
STACK CFI 23618 .cfa: x29 32 + x19: .cfa -16 + ^ .ra: .cfa -24 + ^ x29: .cfa -32 + ^
STACK CFI 23664 .cfa: sp 32 +
STACK CFI 2366c .cfa: sp 0 +
STACK CFI 23670 .cfa: sp 32 +
STACK CFI 23678 .cfa: sp 0 +
STACK CFI INIT 2367c 50 .cfa: sp 0 +
STACK CFI 23680 .cfa: sp 32 +
STACK CFI 23688 .cfa: x29 32 + x19: .cfa -16 + ^ .ra: .cfa -24 + ^ x29: .cfa -32 + ^
STACK CFI 236a0 .cfa: sp 32 +
STACK CFI 236a8 .cfa: sp 0 +
STACK CFI 236ac .cfa: x29 32 +
STACK CFI 236c0 .cfa: sp 32 +
STACK CFI 236c8 .cfa: sp 0 +
STACK CFI INIT 236cc 64 .cfa: sp 0 +
STACK CFI 236d0 .cfa: sp 32 +
STACK CFI 236d8 .cfa: x29 32 + x19: .cfa -16 + ^ .ra: .cfa -24 + ^ x29: .cfa -32 + ^
STACK CFI 23704 .cfa: sp 32 +
STACK CFI 2370c .cfa: sp 0 +
STACK CFI 23710 .cfa: x29 32 +
STACK CFI 23724 .cfa: sp 32 +
STACK CFI 2372c .cfa: sp 0 +
STACK CFI INIT 23cb8 3c .cfa: sp 0 +
STACK CFI 23cbc .cfa: sp 32 +
STACK CFI 23cc4 .cfa: x29 32 + x19: .cfa -16 + ^ .ra: .cfa -24 + ^ x29: .cfa -32 + ^
STACK CFI 23ce8 .cfa: sp 32 +
STACK CFI 23cf0 .cfa: sp 0 +
STACK CFI INIT 23cf4 9c .cfa: sp 0 +
STACK CFI 23cf8 .cfa: sp 32 +
STACK CFI 23d00 .cfa: x29 32 + x19: .cfa -16 + ^ .ra: .cfa -24 + ^ x29: .cfa -32 + ^
STACK CFI 23d34 .cfa: sp 32 +
STACK CFI 23d3c .cfa: sp 0 +
STACK CFI 23d40 .cfa: x29 32 +
STACK CFI 23d84 .cfa: sp 32 +
STACK CFI 23d8c .cfa: sp 0 +
STACK CFI INIT 24208 ac .cfa: sp 0 +
STACK CFI 2420c .cfa: sp 48 +
STACK CFI 24218 .cfa: x29 48 + x19: .cfa -8 + ^ x20: .cfa -16 + ^ x21: .cfa -24 + ^ x22: .cfa -32 + ^ .ra: .cfa -40 + ^ x29: .cfa -48 + ^
STACK CFI 24298 .cfa: sp 48 +
STACK CFI 242a4 .cfa: sp 0 +
STACK CFI 242a8 .cfa: x29 48 +
STACK CFI INIT 242b4 f8 .cfa: sp 0 +
STACK CFI 242b8 .cfa: sp 48 +
STACK CFI 242c4 .cfa: x29 48 + x19: .cfa -8 + ^ x20: .cfa -16 + ^ x21: .cfa -24 + ^ x28: .cfa -32 + ^ .ra: .cfa -40 + ^ x29: .cfa -48 + ^
STACK CFI 24398 .cfa: sp 48 +
STACK CFI 243a4 .cfa: sp 0 +
STACK CFI 243a8 .cfa: x29 48 +
STACK CFI INIT 243ac 14 .cfa: sp 0 +
STACK CFI 243b0 .cfa: sp 16 +
STACK CFI 243b4 .cfa: x29 16 + .ra: .cfa -8 + ^ x29: .cfa -16 + ^
STACK CFI INIT 245f0 5c .cfa: sp 0 +
STACK CFI 245f4 .cfa: sp 32 +
STACK CFI 245fc .cfa: x29 32 + x19: .cfa -8 + ^ x20: .cfa -16 + ^ .ra: .cfa -24 + ^ x29: .cfa -32 + ^
STACK CFI 24634 .cfa: sp 32 +
STACK CFI 2463c .cfa: sp 0 +
STACK CFI 24640 .cfa: sp 32 +
STACK CFI 24648 .cfa: sp 0 +
STACK CFI INIT 2464c 14 .cfa: sp 0 +
STACK CFI 24650 .cfa: sp 16 +
STACK CFI 24654 .cfa: x29 16 + .ra: .cfa -8 + ^ x29: .cfa -16 + ^
STACK CFI INIT 24660 14 .cfa: sp 0 +
STACK CFI 24664 .cfa: sp 16 +
STACK CFI 24668 .cfa: x29 16 + .ra: .cfa -8 + ^ x29: .cfa -16 + ^
STACK CFI INIT 246c4 30 .cfa: sp 0 +
STACK CFI 246c8 .cfa: sp 32 +
STACK CFI 246d0 .cfa: x29 32 + x19: .cfa -16 + ^ .ra: .cfa -24 + ^ x29: .cfa -32 + ^
STACK CFI 246e8 .cfa: sp 32 +
STACK CFI 246f0 .cfa: sp 0 +
STACK CFI INIT 246f4 14 .cfa: sp 0 +
STACK CFI 246f8 .cfa: sp 16 +
STACK CFI 246fc .cfa: x29 16 + .ra: .cfa -8 + ^ x29: .cfa -16 + ^
STACK CFI INIT 2487c 8 .cfa: sp 0 +
STACK CFI INIT 24af4 4 .cfa: sp 0 +
STACK CFI INIT 24af8 4 .cfa: sp 0 +
STACK CFI INIT 24afc 4 .cfa: sp 0 +
STACK CFI INIT 24b00 4 .cfa: sp 0 +
STACK CFI INIT 24b04 8 .cfa: sp 0 +
STACK CFI INIT 24b0c 24 .cfa: sp 0 +
STACK CFI 24b10 .cfa: sp 32 +
STACK CFI 24b18 .cfa: x29 32 + x19: .cfa -16 + ^ .ra: .cfa -24 + ^ x29: .cfa -32 + ^
STACK CFI 24b24 .cfa: sp 32 +
STACK CFI 24b2c .cfa: sp 0 +
STACK CFI INIT 24b30 28 .cfa: sp 0 +
STACK CFI 24b34 .cfa: sp 32 +
STACK CFI 24b3c .cfa: x29 32 + x19: .cfa -16 + ^ .ra: .cfa -24 + ^ x29: .cfa -32 + ^
STACK CFI 24b4c .cfa: sp 32 +
STACK CFI 24b54 .cfa: sp 0 +
STACK CFI INIT 24b58 4 .cfa: sp 0 +
STACK CFI INIT 24b5c 4 .cfa: sp 0 +
STACK CFI INIT 24b60 c .cfa: sp 0 +
STACK CFI INIT 24b6c 34 .cfa: sp 0 +
STACK CFI 24b70 .cfa: sp 32 +
STACK CFI 24b78 .cfa: x29 32 + x19: .cfa -16 + ^ .ra: .cfa -24 + ^ x29: .cfa -32 + ^
STACK CFI 24b94 .cfa: sp 32 +
STACK CFI 24b9c .cfa: sp 0 +
STACK CFI INIT 24ba0 b4 .cfa: sp 0 +
STACK CFI 24ba4 .cfa: sp 128 +
STACK CFI 24bb4 .cfa: x29 48 + x19: .cfa -8 + ^ x20: .cfa -16 + ^ x21: .cfa -24 + ^ x22: .cfa -32 + ^ .ra: .cfa -40 + ^ x29: .cfa -48 + ^
STACK CFI 24c3c .cfa: sp 128 +
STACK CFI 24c4c .cfa: sp 0 +
STACK CFI 24c50 .cfa: x29 48 +
STACK CFI INIT 24c54 2ec .cfa: sp 0 +
STACK CFI 24c58 .cfa: sp 80 +
STACK CFI 24c6c .cfa: x29 80 + x19: .cfa -8 + ^ x20: .cfa -16 + ^ x21: .cfa -24 + ^ x22: .cfa -32 + ^ x23: .cfa -40 + ^ x24: .cfa -48 + ^ x25: .cfa -56 + ^ x26: .cfa -64 + ^ .ra: .cfa -72 + ^ x29: .cfa -80 + ^
STACK CFI 24ea8 .cfa: sp 80 +
STACK CFI 24ebc .cfa: sp 0 +
STACK CFI 24ec0 .cfa: x29 80 +
STACK CFI 24ec4 .cfa: sp 80 +
STACK CFI 24ed8 .cfa: sp 0 +
STACK CFI 24edc .cfa: x29 80 +
STACK CFI 24ef0 .cfa: sp 80 +
STACK CFI 24f04 .cfa: sp 0 +
STACK CFI 24f08 .cfa: x29 80 +
STACK CFI INIT 2509c 1b8 .cfa: sp 0 +
STACK CFI 250a0 .cfa: sp 64 +
STACK CFI 250ac .cfa: x29 32 + x19: .cfa -8 + ^ x20: .cfa -16 + ^ .ra: .cfa -24 + ^ x29: .cfa -32 + ^
STACK CFI 251ec .cfa: sp 64 +
STACK CFI 251f8 .cfa: sp 0 +
STACK CFI 251fc .cfa: x29 32 +
STACK CFI INIT 25254 190 .cfa: sp 0 +
STACK CFI 25258 .cfa: sp 16 +
STACK CFI 2525c .cfa: x29 16 + .ra: .cfa -8 + ^ x29: .cfa -16 + ^
STACK CFI 252ec .cfa: sp 16 +
STACK CFI 252f0 .cfa: sp 0 +
STACK CFI 252f4 .cfa: x29 16 +
STACK CFI 253c4 .cfa: sp 16 +
STACK CFI 253c8 .cfa: sp 0 +
STACK CFI 253cc .cfa: x29 16 +
STACK CFI INIT 253e4 110 .cfa: sp 0 +
STACK CFI 253e8 .cfa: sp 128 +
STACK CFI 253f8 .cfa: x29 48 + x19: .cfa -8 + ^ x20: .cfa -16 + ^ x21: .cfa -32 + ^ .ra: .cfa -40 + ^ x29: .cfa -48 + ^
STACK CFI 254c0 .cfa: sp 128 +
STACK CFI 254d0 .cfa: sp 0 +
STACK CFI 254d4 .cfa: x29 48 +
STACK CFI INIT 254f4 110 .cfa: sp 0 +
STACK CFI 254f8 .cfa: sp 128 +
STACK CFI 25508 .cfa: x29 48 + x19: .cfa -8 + ^ x20: .cfa -16 + ^ x21: .cfa -32 + ^ .ra: .cfa -40 + ^ x29: .cfa -48 + ^
STACK CFI 255d0 .cfa: sp 128 +
STACK CFI 255e0 .cfa: sp 0 +
STACK CFI 255e4 .cfa: x29 48 +
STACK CFI INIT 25604 90 .cfa: sp 0 +
STACK CFI 25608 .cfa: sp 16 +
STACK CFI 2560c .cfa: x29 16 + .ra: .cfa -8 + ^ x29: .cfa -16 + ^
STACK CFI 25668 .cfa: sp 16 +
STACK CFI 2566c .cfa: sp 0 +
STACK CFI 25670 .cfa: x29 16 +
STACK CFI INIT 25694 15c .cfa: sp 0 +
STACK CFI 25698 .cfa: sp 112 +
STACK CFI 256b4 .cfa: x29 96 + x19: .cfa -8 + ^ x20: .cfa -16 + ^ x21: .cfa -24 + ^ x22: .cfa -32 + ^ x23: .cfa -40 + ^ x24: .cfa -48 + ^ x25: .cfa -56 + ^ x26: .cfa -64 + ^ x27: .cfa -72 + ^ x28: .cfa -80 + ^ .ra: .cfa -88 + ^ x29: .cfa -96 + ^
STACK CFI 257a0 .cfa: sp 112 +
STACK CFI 257a4 .cfa: x29 96 +
STACK CFI 257ac .cfa: sp 112 +
STACK CFI 257c8 .cfa: sp 0 +
STACK CFI 257cc .cfa: x29 96 +
STACK CFI 257ec .cfa: sp 112 +
STACK CFI INIT 257f0 90 .cfa: sp 0 +
STACK CFI 257f4 .cfa: sp 16 +
STACK CFI 257f8 .cfa: x29 16 + .ra: .cfa -8 + ^ x29: .cfa -16 + ^
STACK CFI 25854 .cfa: sp 16 +
STACK CFI 25858 .cfa: sp 0 +
STACK CFI 2585c .cfa: x29 16 +
STACK CFI INIT 25880 1d8 .cfa: sp 0 +
STACK CFI 25884 .cfa: sp 176 +
STACK CFI 258a0 .cfa: x29 96 + x19: .cfa -8 + ^ x20: .cfa -16 + ^ x21: .cfa -24 + ^ x22: .cfa -32 + ^ x23: .cfa -40 + ^ x24: .cfa -48 + ^ x25: .cfa -56 + ^ x26: .cfa -64 + ^ x27: .cfa -72 + ^ x28: .cfa -80 + ^ .ra: .cfa -88 + ^ x29: .cfa -96 + ^
STACK CFI 25a34 .cfa: sp 176 +
STACK CFI 25a50 .cfa: sp 0 +
STACK CFI 25a54 .cfa: x29 96 +
STACK CFI INIT 25a58 418 .cfa: sp 0 +
STACK CFI 25a5c .cfa: sp 144 +
STACK CFI 25a78 .cfa: x29 96 + x19: .cfa -8 + ^ x20: .cfa -16 + ^ x21: .cfa -24 + ^ x22: .cfa -32 + ^ x23: .cfa -40 + ^ x24: .cfa -48 + ^ x25: .cfa -56 + ^ x26: .cfa -64 + ^ x27: .cfa -72 + ^ x28: .cfa -80 + ^ .ra: .cfa -88 + ^ x29: .cfa -96 + ^
STACK CFI 25e4c .cfa: sp 144 +
STACK CFI 25e68 .cfa: sp 0 +
STACK CFI 25e6c .cfa: x29 96 +
STACK CFI INIT 25e70 204 .cfa: sp 0 +
STACK CFI 25e74 .cfa: sp 80 +
STACK CFI 25e88 .cfa: x29 80 + x19: .cfa -8 + ^ x20: .cfa -16 + ^ x21: .cfa -24 + ^ x22: .cfa -32 + ^ x23: .cfa -40 + ^ x24: .cfa -48 + ^ x25: .cfa -64 + ^ .ra: .cfa -72 + ^ x29: .cfa -80 + ^
STACK CFI 25ef4 .cfa: sp 80 +
STACK CFI 25f08 .cfa: sp 0 +
STACK CFI 25f0c .cfa: x29 80 +
STACK CFI 25f18 .cfa: sp 80 +
STACK CFI 25f2c .cfa: sp 0 +
STACK CFI 25f30 .cfa: x29 80 +
STACK CFI INIT 26074 1a4 .cfa: sp 0 +
STACK CFI 26078 .cfa: sp 32 +
STACK CFI 26080 .cfa: x29 16 + .ra: .cfa -8 + ^ x29: .cfa -16 + ^
STACK CFI 260c4 .cfa: sp 32 +
STACK CFI 260cc .cfa: sp 0 +
STACK CFI 260d0 .cfa: x29 16 +
STACK CFI INIT 26218 1b4 .cfa: sp 0 +
STACK CFI INIT 263cc 1f0 .cfa: sp 0 +
STACK CFI 263d0 .cfa: sp 80 +
STACK CFI 263e4 .cfa: x29 80 + x19: .cfa -8 + ^ x20: .cfa -16 + ^ x21: .cfa -24 + ^ x22: .cfa -32 + ^ x23: .cfa -40 + ^ x24: .cfa -48 + ^ x25: .cfa -64 + ^ .ra: .cfa -72 + ^ x29: .cfa -80 + ^
STACK CFI 265a4 .cfa: sp 80 +
STACK CFI 265b8 .cfa: sp 0 +
STACK CFI INIT 265bc 5ac .cfa: sp 0 +
STACK CFI 265c0 .cfa: sp 144 +
STACK CFI 265dc .cfa: x29 96 + x19: .cfa -8 + ^ x20: .cfa -16 + ^ x21: .cfa -24 + ^ x22: .cfa -32 + ^ x23: .cfa -40 + ^ x24: .cfa -48 + ^ x25: .cfa -56 + ^ x26: .cfa -64 + ^ x27: .cfa -72 + ^ x28: .cfa -80 + ^ .ra: .cfa -88 + ^ x29: .cfa -96 + ^
STACK CFI 26b44 .cfa: sp 144 +
STACK CFI 26b60 .cfa: sp 0 +
STACK CFI 26b64 .cfa: x29 96 +
STACK CFI INIT 26b68 1fc .cfa: sp 0 +
STACK CFI 26b6c .cfa: sp 48 +
STACK CFI 26b78 .cfa: x29 48 + x19: .cfa -8 + ^ x20: .cfa -16 + ^ x21: .cfa -32 + ^ .ra: .cfa -40 + ^ x29: .cfa -48 + ^
STACK CFI 26c24 .cfa: sp 48 +
STACK CFI 26c30 .cfa: sp 0 +
STACK CFI 26c34 .cfa: x29 48 +
STACK CFI 26ce0 .cfa: sp 48 +
STACK CFI 26cec .cfa: sp 0 +
STACK CFI 26cf0 .cfa: x29 48 +
STACK CFI 26d04 .cfa: sp 48 +
STACK CFI 26d10 .cfa: sp 0 +
STACK CFI 26d14 .cfa: x29 48 +
STACK CFI 26d28 .cfa: sp 48 +
STACK CFI 26d34 .cfa: sp 0 +
STACK CFI 26d38 .cfa: x29 48 +
STACK CFI INIT 26d64 180 .cfa: sp 0 +
STACK CFI 26d68 .cfa: sp 80 +
STACK CFI 26d7c .cfa: x29 64 + x19: .cfa -8 + ^ x20: .cfa -16 + ^ x21: .cfa -24 + ^ x22: .cfa -32 + ^ x23: .cfa -40 + ^ x24: .cfa -48 + ^ .ra: .cfa -56 + ^ x29: .cfa -64 + ^
STACK CFI 26ec8 .cfa: sp 80 +
STACK CFI 26edc .cfa: sp 0 +
STACK CFI 26ee0 .cfa: x29 64 +
STACK CFI INIT 26ee4 180 .cfa: sp 0 +
STACK CFI 26ee8 .cfa: sp 80 +
STACK CFI 26efc .cfa: x29 64 + x19: .cfa -8 + ^ x20: .cfa -16 + ^ x21: .cfa -24 + ^ x22: .cfa -32 + ^ x23: .cfa -40 + ^ x24: .cfa -48 + ^ .ra: .cfa -56 + ^ x29: .cfa -64 + ^
STACK CFI 27048 .cfa: sp 80 +
STACK CFI 2705c .cfa: sp 0 +
STACK CFI 27060 .cfa: x29 64 +
STACK CFI INIT 27064 180 .cfa: sp 0 +
STACK CFI 27068 .cfa: sp 80 +
STACK CFI 2707c .cfa: x29 64 + x19: .cfa -8 + ^ x20: .cfa -16 + ^ x21: .cfa -24 + ^ x22: .cfa -32 + ^ x23: .cfa -40 + ^ x24: .cfa -48 + ^ .ra: .cfa -56 + ^ x29: .cfa -64 + ^
STACK CFI 271c8 .cfa: sp 80 +
STACK CFI 271dc .cfa: sp 0 +
STACK CFI 271e0 .cfa: x29 64 +
STACK CFI INIT 271e4 34 .cfa: sp 0 +
STACK CFI 271e8 .cfa: sp 16 +
STACK CFI 271ec .cfa: x29 16 + .ra: .cfa -8 + ^ x29: .cfa -16 + ^
STACK CFI INIT 27218 104 .cfa: sp 0 +
STACK CFI 2721c .cfa: sp 80 +
STACK CFI 27230 .cfa: x29 80 + x19: .cfa -8 + ^ x20: .cfa -16 + ^ x21: .cfa -24 + ^ x22: .cfa -32 + ^ x23: .cfa -40 + ^ x24: .cfa -48 + ^ x25: .cfa -56 + ^ x26: .cfa -64 + ^ .ra: .cfa -72 + ^ x29: .cfa -80 + ^
STACK CFI 27304 .cfa: sp 80 +
STACK CFI 27318 .cfa: sp 0 +
STACK CFI INIT 2731c 1b4 .cfa: sp 0 +
STACK CFI INIT 274d0 68 .cfa: sp 0 +
STACK CFI 274d4 .cfa: sp 48 +
STACK CFI 274e0 .cfa: x29 48 + x19: .cfa -8 + ^ x20: .cfa -16 + ^ x21: .cfa -32 + ^ .ra: .cfa -40 + ^ x29: .cfa -48 + ^
STACK CFI 27518 .cfa: sp 48 +
STACK CFI 27524 .cfa: sp 0 +
STACK CFI 27528 .cfa: sp 48 +
STACK CFI 27534 .cfa: sp 0 +
STACK CFI INIT 27848 94 .cfa: sp 0 +
STACK CFI 2784c .cfa: sp 32 +
STACK CFI 27854 .cfa: x29 32 + x19: .cfa -16 + ^ .ra: .cfa -24 + ^ x29: .cfa -32 + ^
STACK CFI 27880 .cfa: sp 32 +
STACK CFI 27888 .cfa: sp 0 +
STACK CFI 2788c .cfa: x29 32 +
STACK CFI 278d0 .cfa: sp 32 +
STACK CFI 278d8 .cfa: sp 0 +
STACK CFI INIT 278dc 68 .cfa: sp 0 +
STACK CFI 278e0 .cfa: sp 48 +
STACK CFI 278ec .cfa: x29 48 + x19: .cfa -8 + ^ x20: .cfa -16 + ^ x21: .cfa -32 + ^ .ra: .cfa -40 + ^ x29: .cfa -48 + ^
STACK CFI 27924 .cfa: sp 48 +
STACK CFI 27930 .cfa: sp 0 +
STACK CFI 27934 .cfa: sp 48 +
STACK CFI 27940 .cfa: sp 0 +
STACK CFI INIT 284d4 320 .cfa: sp 0 +
STACK CFI 284d8 .cfa: sp 48 +
STACK CFI 284e4 .cfa: x29 48 + x19: .cfa -8 + ^ x20: .cfa -16 + ^ x21: .cfa -32 + ^ .ra: .cfa -40 + ^ x29: .cfa -48 + ^
STACK CFI 287e4 .cfa: sp 48 +
STACK CFI 287f0 .cfa: sp 0 +
STACK CFI INIT 287f4 84 .cfa: sp 0 +
STACK CFI 287f8 .cfa: sp 48 +
STACK CFI 28804 .cfa: x29 48 + x19: .cfa -8 + ^ x20: .cfa -16 + ^ x21: .cfa -32 + ^ .ra: .cfa -40 + ^ x29: .cfa -48 + ^
STACK CFI 28854 .cfa: sp 48 +
STACK CFI 28860 .cfa: sp 0 +
STACK CFI 28864 .cfa: x29 48 +
STACK CFI 28868 .cfa: sp 48 +
STACK CFI 28874 .cfa: sp 0 +
STACK CFI INIT 28878 ec .cfa: sp 0 +
STACK CFI INIT 28ce0 94 .cfa: sp 0 +
STACK CFI 28ce4 .cfa: sp 32 +
STACK CFI 28cec .cfa: x29 32 + x19: .cfa -16 + ^ .ra: .cfa -24 + ^ x29: .cfa -32 + ^
STACK CFI 28d18 .cfa: sp 32 +
STACK CFI 28d20 .cfa: sp 0 +
STACK CFI 28d24 .cfa: x29 32 +
STACK CFI 28d68 .cfa: sp 32 +
STACK CFI 28d70 .cfa: sp 0 +
STACK CFI INIT 28d74 78 .cfa: sp 0 +
STACK CFI 28d78 .cfa: sp 48 +
STACK CFI 28d84 .cfa: x29 48 + x19: .cfa -8 + ^ x20: .cfa -16 + ^ x21: .cfa -24 + ^ x22: .cfa -32 + ^ .ra: .cfa -40 + ^ x29: .cfa -48 + ^
STACK CFI 28d8c .cfa: sp 48 +
STACK CFI 28d98 .cfa: sp 0 +
STACK CFI 28d9c .cfa: x29 48 +
STACK CFI 28ddc .cfa: sp 48 +
STACK CFI 28de8 .cfa: sp 0 +
STACK CFI INIT 28dec 14 .cfa: sp 0 +
STACK CFI 28df0 .cfa: sp 16 +
STACK CFI 28df4 .cfa: x29 16 + .ra: .cfa -8 + ^ x29: .cfa -16 + ^
STACK CFI INIT 2907c 54 .cfa: sp 0 +
STACK CFI 29080 .cfa: sp 32 +
STACK CFI 29088 .cfa: x29 32 + x19: .cfa -8 + ^ x20: .cfa -16 + ^ .ra: .cfa -24 + ^ x29: .cfa -32 + ^
STACK CFI 290b8 .cfa: sp 32 +
STACK CFI 290c0 .cfa: sp 0 +
STACK CFI 290c4 .cfa: sp 32 +
STACK CFI 290cc .cfa: sp 0 +
STACK CFI INIT 290d0 14 .cfa: sp 0 +
STACK CFI 290d4 .cfa: sp 16 +
STACK CFI 290d8 .cfa: x29 16 + .ra: .cfa -8 + ^ x29: .cfa -16 + ^
STACK CFI INIT 290e4 18 .cfa: sp 0 +
STACK CFI INIT 290fc 34 .cfa: sp 0 +
STACK CFI 29100 .cfa: sp 32 +
STACK CFI 29108 .cfa: x29 32 + x19: .cfa -16 + ^ .ra: .cfa -24 + ^ x29: .cfa -32 + ^
STACK CFI 29124 .cfa: sp 32 +
STACK CFI 2912c .cfa: sp 0 +
STACK CFI INIT 29130 8 .cfa: sp 0 +
STACK CFI INIT 29564 20 .cfa: sp 0 +
STACK CFI INIT 29584 3c .cfa: sp 0 +
STACK CFI 29588 .cfa: sp 32 +
STACK CFI 29590 .cfa: x29 32 + x19: .cfa -16 + ^ .ra: .cfa -24 + ^ x29: .cfa -32 + ^
STACK CFI 295b4 .cfa: sp 32 +
STACK CFI 295bc .cfa: sp 0 +
STACK CFI INIT 295c0 44 .cfa: sp 0 +
STACK CFI 295c4 .cfa: sp 32 +
STACK CFI 295cc .cfa: x29 32 + x19: .cfa -16 + ^ .ra: .cfa -24 + ^ x29: .cfa -32 + ^
STACK CFI 295f8 .cfa: sp 32 +
STACK CFI 29600 .cfa: sp 0 +
STACK CFI INIT 29604 4 .cfa: sp 0 +
STACK CFI INIT 296e4 24 .cfa: sp 0 +
STACK CFI 296e8 .cfa: sp 16 +
STACK CFI 296ec .cfa: x29 16 + .ra: .cfa -8 + ^ x29: .cfa -16 + ^
STACK CFI 29700 .cfa: sp 16 +
STACK CFI 29704 .cfa: sp 0 +
STACK CFI INIT 29708 4 .cfa: sp 0 +
STACK CFI INIT 2970c 4 .cfa: sp 0 +
STACK CFI INIT 29710 4 .cfa: sp 0 +
STACK CFI INIT 29944 24 .cfa: sp 0 +
STACK CFI 29948 .cfa: sp 16 +
STACK CFI 2994c .cfa: x29 16 + .ra: .cfa -8 + ^ x29: .cfa -16 + ^
STACK CFI 29960 .cfa: sp 16 +
STACK CFI 29964 .cfa: sp 0 +
STACK CFI INIT 29968 80 .cfa: sp 0 +
STACK CFI 2996c .cfa: sp 32 +
STACK CFI 29974 .cfa: x29 32 + x19: .cfa -16 + ^ .ra: .cfa -24 + ^ x29: .cfa -32 + ^
STACK CFI 299dc .cfa: sp 32 +
STACK CFI 299e4 .cfa: sp 0 +
STACK CFI INIT 2a644 2c .cfa: sp 0 +
STACK CFI 2a648 .cfa: sp 32 +
STACK CFI 2a650 .cfa: x29 32 + x19: .cfa -16 + ^ .ra: .cfa -24 + ^ x29: .cfa -32 + ^
STACK CFI 2a664 .cfa: sp 32 +
STACK CFI 2a66c .cfa: sp 0 +
STACK CFI INIT 2a670 28 .cfa: sp 0 +
STACK CFI INIT 2a698 4 .cfa: sp 0 +
STACK CFI INIT 2a69c 8 .cfa: sp 0 +
STACK CFI INIT 2a6a4 3c .cfa: sp 0 +
STACK CFI 2a6a8 .cfa: sp 32 +
STACK CFI 2a6b0 .cfa: x29 32 + x19: .cfa -16 + ^ .ra: .cfa -24 + ^ x29: .cfa -32 + ^
STACK CFI 2a6d4 .cfa: sp 32 +
STACK CFI 2a6dc .cfa: sp 0 +
STACK CFI INIT 2a7c0 2c .cfa: sp 0 +
STACK CFI INIT 2a7ec 4 .cfa: sp 0 +
STACK CFI INIT 2a7f0 8 .cfa: sp 0 +
STACK CFI INIT 2a7f8 4 .cfa: sp 0 +
STACK CFI INIT 2a868 4 .cfa: sp 0 +
STACK CFI INIT 2a86c 308 .cfa: sp 0 +
STACK CFI 2a870 .cfa: sp 144 +
STACK CFI 2a88c .cfa: x29 80 + x19: .cfa -8 + ^ x20: .cfa -16 + ^ x21: .cfa -24 + ^ x22: .cfa -32 + ^ x23: .cfa -40 + ^ x24: .cfa -48 + ^ x25: .cfa -56 + ^ x26: .cfa -64 + ^ .ra: .cfa -72 + ^ x29: .cfa -80 + ^ v8: .cfa -88 + ^ v9: .cfa -96 + ^
STACK CFI 2ab50 .cfa: sp 144 +
STACK CFI 2ab6c .cfa: sp 0 +
STACK CFI 2ab70 .cfa: x29 80 +
STACK CFI INIT 2b098 f8 .cfa: sp 0 +
STACK CFI 2b09c .cfa: sp 48 +
STACK CFI 2b0a8 .cfa: x29 48 + x19: .cfa -8 + ^ x20: .cfa -16 + ^ x21: .cfa -24 + ^ x22: .cfa -32 + ^ .ra: .cfa -40 + ^ x29: .cfa -48 + ^
STACK CFI 2b0d4 .cfa: sp 48 +
STACK CFI 2b0e0 .cfa: sp 0 +
STACK CFI 2b0e4 .cfa: x29 48 +
STACK CFI 2b10c .cfa: sp 48 +
STACK CFI 2b118 .cfa: sp 0 +
STACK CFI 2b11c .cfa: x29 48 +
STACK CFI 2b138 .cfa: sp 48 +
STACK CFI 2b144 .cfa: sp 0 +
STACK CFI 2b148 .cfa: x29 48 +
STACK CFI 2b178 .cfa: sp 48 +
STACK CFI 2b184 .cfa: sp 0 +
STACK CFI 2b188 .cfa: x29 48 +
STACK CFI INIT 2b190 18 .cfa: sp 0 +
STACK CFI INIT 2b1a8 218 .cfa: sp 0 +
STACK CFI 2b1ac .cfa: sp 112 +
STACK CFI 2b1c4 .cfa: x29 56 + x19: .cfa -8 + ^ x20: .cfa -16 + ^ x21: .cfa -24 + ^ x22: .cfa -32 + ^ x23: .cfa -40 + ^ .ra: .cfa -48 + ^ x29: .cfa -56 + ^ v8: .cfa -64 + ^
STACK CFI 2b3a0 .cfa: sp 112 +
STACK CFI 2b3b8 .cfa: sp 0 +
STACK CFI 2b3bc .cfa: x29 56 +
STACK CFI INIT 2b3c0 178 .cfa: sp 0 +
STACK CFI 2b3c4 .cfa: sp 96 +
STACK CFI 2b3d4 .cfa: x29 48 + x19: .cfa -8 + ^ x20: .cfa -16 + ^ x21: .cfa -32 + ^ .ra: .cfa -40 + ^ x29: .cfa -48 + ^
STACK CFI 2b520 .cfa: sp 96 +
STACK CFI 2b530 .cfa: sp 0 +
STACK CFI 2b534 .cfa: x29 48 +
STACK CFI INIT 2b730 3c .cfa: sp 0 +
STACK CFI 2b734 .cfa: sp 32 +
STACK CFI 2b73c .cfa: x29 32 + x19: .cfa -8 + ^ x20: .cfa -16 + ^ .ra: .cfa -24 + ^ x29: .cfa -32 + ^
STACK CFI 2b760 .cfa: sp 32 +
STACK CFI 2b768 .cfa: sp 0 +
STACK CFI INIT 2b76c 3c .cfa: sp 0 +
STACK CFI 2b770 .cfa: sp 32 +
STACK CFI 2b778 .cfa: x29 32 + x19: .cfa -8 + ^ x20: .cfa -16 + ^ .ra: .cfa -24 + ^ x29: .cfa -32 + ^
STACK CFI 2b79c .cfa: sp 32 +
STACK CFI 2b7a4 .cfa: sp 0 +
STACK CFI INIT 2b7a8 18 .cfa: sp 0 +
STACK CFI INIT 2b7c0 18 .cfa: sp 0 +
STACK CFI INIT 2b8b4 13c .cfa: sp 0 +
STACK CFI 2b8b8 .cfa: sp 80 +
STACK CFI 2b8cc .cfa: x29 80 + x19: .cfa -8 + ^ x20: .cfa -16 + ^ x21: .cfa -24 + ^ x22: .cfa -32 + ^ x23: .cfa -40 + ^ x24: .cfa -48 + ^ x25: .cfa -56 + ^ x26: .cfa -64 + ^ .ra: .cfa -72 + ^ x29: .cfa -80 + ^
STACK CFI 2b9d0 .cfa: sp 80 +
STACK CFI 2b9e4 .cfa: sp 0 +
STACK CFI 2b9e8 .cfa: x29 80 +
STACK CFI INIT 2b9f0 4 .cfa: sp 0 +
STACK CFI INIT 2b9f4 70 .cfa: sp 0 +
STACK CFI 2b9f8 .cfa: sp 32 +
STACK CFI 2ba04 .cfa: x29 24 + x19: .cfa -8 + ^ .ra: .cfa -16 + ^ x29: .cfa -24 + ^ v8: .cfa -32 + ^
STACK CFI 2ba54 .cfa: sp 32 +
STACK CFI 2ba60 .cfa: sp 0 +
STACK CFI INIT 2ba64 24 .cfa: sp 0 +
STACK CFI 2ba68 .cfa: sp 16 +
STACK CFI 2ba6c .cfa: x29 16 + .ra: .cfa -8 + ^ x29: .cfa -16 + ^
STACK CFI 2ba80 .cfa: sp 16 +
STACK CFI 2ba84 .cfa: sp 0 +
STACK CFI INIT 2ba88 4 .cfa: sp 0 +
STACK CFI INIT 2ba8c 44 .cfa: sp 0 +
STACK CFI 2ba90 .cfa: sp 16 +
STACK CFI 2ba94 .cfa: x29 16 + .ra: .cfa -8 + ^ x29: .cfa -16 + ^
STACK CFI 2bac8 .cfa: sp 16 +
STACK CFI 2bacc .cfa: sp 0 +
STACK CFI INIT 2c010 1c .cfa: sp 0 +
STACK CFI INIT 2c384 4 .cfa: sp 0 +
STACK CFI INIT 2c388 2c .cfa: sp 0 +
STACK CFI 2c38c .cfa: sp 32 +
STACK CFI 2c394 .cfa: x29 32 + x19: .cfa -16 + ^ .ra: .cfa -24 + ^ x29: .cfa -32 + ^
STACK CFI 2c3a8 .cfa: sp 32 +
STACK CFI 2c3b0 .cfa: sp 0 +
STACK CFI INIT 2c510 3c .cfa: sp 0 +
STACK CFI 2c514 .cfa: sp 32 +
STACK CFI 2c51c .cfa: x29 32 + x19: .cfa -16 + ^ .ra: .cfa -24 + ^ x29: .cfa -32 + ^
STACK CFI 2c528 .cfa: sp 32 +
STACK CFI 2c530 .cfa: sp 0 +
STACK CFI 2c534 .cfa: x29 32 +
STACK CFI 2c540 .cfa: sp 32 +
STACK CFI 2c548 .cfa: sp 0 +
STACK CFI INIT 2c54c 4c .cfa: sp 0 +
STACK CFI 2c550 .cfa: sp 32 +
STACK CFI 2c558 .cfa: x29 32 + x19: .cfa -16 + ^ .ra: .cfa -24 + ^ x29: .cfa -32 + ^
STACK CFI 2c56c .cfa: sp 32 +
STACK CFI 2c574 .cfa: sp 0 +
STACK CFI 2c578 .cfa: x29 32 +
STACK CFI 2c58c .cfa: sp 32 +
STACK CFI 2c594 .cfa: sp 0 +
STACK CFI INIT 2c8bc bc .cfa: sp 0 +
STACK CFI 2c8c0 .cfa: sp 48 +
STACK CFI 2c8cc .cfa: x29 48 + x19: .cfa -8 + ^ x20: .cfa -16 + ^ x21: .cfa -24 + ^ x22: .cfa -32 + ^ .ra: .cfa -40 + ^ x29: .cfa -48 + ^
STACK CFI 2c8e0 .cfa: sp 48 +
STACK CFI 2c8ec .cfa: sp 0 +
STACK CFI 2c8f0 .cfa: x29 48 +
STACK CFI 2c908 .cfa: sp 48 +
STACK CFI 2c914 .cfa: sp 0 +
STACK CFI 2c918 .cfa: x29 48 +
STACK CFI 2c960 .cfa: sp 48 +
STACK CFI 2c96c .cfa: sp 0 +
STACK CFI 2c970 .cfa: x29 48 +
STACK CFI INIT 2ca78 64 .cfa: sp 0 +
STACK CFI 2ca7c .cfa: sp 32 +
STACK CFI 2ca84 .cfa: x29 32 + x19: .cfa -16 + ^ .ra: .cfa -24 + ^ x29: .cfa -32 + ^
STACK CFI 2cab0 .cfa: sp 32 +
STACK CFI 2cab8 .cfa: sp 0 +
STACK CFI 2cabc .cfa: x29 32 +
STACK CFI 2cad0 .cfa: sp 32 +
STACK CFI 2cad8 .cfa: sp 0 +
STACK CFI INIT 2d060 24 .cfa: sp 0 +
STACK CFI 2d064 .cfa: sp 32 +
STACK CFI 2d06c .cfa: x29 32 + x19: .cfa -16 + ^ .ra: .cfa -24 + ^ x29: .cfa -32 + ^
STACK CFI 2d078 .cfa: sp 32 +
STACK CFI 2d080 .cfa: sp 0 +
STACK CFI INIT 2d214 8 .cfa: sp 0 +
STACK CFI INIT 2d21c 24 .cfa: sp 0 +
STACK CFI 2d220 .cfa: sp 32 +
STACK CFI 2d228 .cfa: x29 32 + x19: .cfa -16 + ^ .ra: .cfa -24 + ^ x29: .cfa -32 + ^
STACK CFI 2d234 .cfa: sp 32 +
STACK CFI 2d23c .cfa: sp 0 +
STACK CFI INIT 2d240 28 .cfa: sp 0 +
STACK CFI 2d244 .cfa: sp 32 +
STACK CFI 2d24c .cfa: x29 32 + x19: .cfa -16 + ^ .ra: .cfa -24 + ^ x29: .cfa -32 + ^
STACK CFI 2d25c .cfa: sp 32 +
STACK CFI 2d264 .cfa: sp 0 +
STACK CFI INIT 2d268 24 .cfa: sp 0 +
STACK CFI 2d26c .cfa: sp 32 +
STACK CFI 2d274 .cfa: x29 32 + x19: .cfa -16 + ^ .ra: .cfa -24 + ^ x29: .cfa -32 + ^
STACK CFI 2d280 .cfa: sp 32 +
STACK CFI 2d288 .cfa: sp 0 +
STACK CFI INIT 2db80 8 .cfa: sp 0 +
STACK CFI INIT 2db88 24 .cfa: sp 0 +
STACK CFI 2db8c .cfa: sp 32 +
STACK CFI 2db94 .cfa: x29 32 + x19: .cfa -16 + ^ .ra: .cfa -24 + ^ x29: .cfa -32 + ^
STACK CFI 2dba0 .cfa: sp 32 +
STACK CFI 2dba8 .cfa: sp 0 +
STACK CFI INIT 2dbac 28 .cfa: sp 0 +
STACK CFI 2dbb0 .cfa: sp 32 +
STACK CFI 2dbb8 .cfa: x29 32 + x19: .cfa -16 + ^ .ra: .cfa -24 + ^ x29: .cfa -32 + ^
STACK CFI 2dbc8 .cfa: sp 32 +
STACK CFI 2dbd0 .cfa: sp 0 +
STACK CFI INIT 2dbd4 8 .cfa: sp 0 +
STACK CFI INIT 2dbdc 24 .cfa: sp 0 +
STACK CFI 2dbe0 .cfa: sp 32 +
STACK CFI 2dbe8 .cfa: x29 32 + x19: .cfa -16 + ^ .ra: .cfa -24 + ^ x29: .cfa -32 + ^
STACK CFI 2dbf4 .cfa: sp 32 +
STACK CFI 2dbfc .cfa: sp 0 +
STACK CFI INIT 2dc00 28 .cfa: sp 0 +
STACK CFI 2dc04 .cfa: sp 32 +
STACK CFI 2dc0c .cfa: x29 32 + x19: .cfa -16 + ^ .ra: .cfa -24 + ^ x29: .cfa -32 + ^
STACK CFI 2dc1c .cfa: sp 32 +
STACK CFI 2dc24 .cfa: sp 0 +
STACK CFI INIT 2de08 9c .cfa: sp 0 +
STACK CFI 2de0c .cfa: sp 32 +
STACK CFI 2de14 .cfa: x29 32 + x19: .cfa -16 + ^ .ra: .cfa -24 + ^ x29: .cfa -32 + ^
STACK CFI 2de98 .cfa: sp 32 +
STACK CFI 2dea0 .cfa: sp 0 +
STACK CFI INIT 2e7f4 1c .cfa: sp 0 +
STACK CFI INIT 2e810 18 .cfa: sp 0 +
STACK CFI INIT 2eb04 4 .cfa: sp 0 +
STACK CFI INIT 2eb08 3c .cfa: sp 0 +
STACK CFI 2eb0c .cfa: sp 32 +
STACK CFI 2eb14 .cfa: x29 32 + x19: .cfa -16 + ^ .ra: .cfa -24 + ^ x29: .cfa -32 + ^
STACK CFI 2eb38 .cfa: sp 32 +
STACK CFI 2eb40 .cfa: sp 0 +
STACK CFI INIT 2eb44 44 .cfa: sp 0 +
STACK CFI 2eb48 .cfa: sp 32 +
STACK CFI 2eb50 .cfa: x29 32 + x19: .cfa -16 + ^ .ra: .cfa -24 + ^ x29: .cfa -32 + ^
STACK CFI 2eb7c .cfa: sp 32 +
STACK CFI 2eb84 .cfa: sp 0 +
STACK CFI INIT 2eee4 1d8 .cfa: sp 0 +
STACK CFI 2eee8 .cfa: sp 32 +
STACK CFI 2eef0 .cfa: x29 32 + x19: .cfa -8 + ^ x20: .cfa -16 + ^ .ra: .cfa -24 + ^ x29: .cfa -32 + ^
STACK CFI 2ef7c .cfa: sp 32 +
STACK CFI 2ef84 .cfa: sp 0 +
STACK CFI 2ef88 .cfa: x29 32 +
STACK CFI 2ef9c .cfa: sp 32 +
STACK CFI 2efa4 .cfa: sp 0 +
STACK CFI 2efa8 .cfa: x29 32 +
STACK CFI INIT 2f0bc 114 .cfa: sp 0 +
STACK CFI INIT 2f1d0 134 .cfa: sp 0 +
STACK CFI INIT 2f304 14 .cfa: sp 0 +
STACK CFI 2f308 .cfa: sp 16 +
STACK CFI 2f30c .cfa: x29 16 + .ra: .cfa -8 + ^ x29: .cfa -16 + ^
STACK CFI INIT 2f368 30 .cfa: sp 0 +
STACK CFI 2f36c .cfa: sp 32 +
STACK CFI 2f374 .cfa: x29 32 + x19: .cfa -16 + ^ .ra: .cfa -24 + ^ x29: .cfa -32 + ^
STACK CFI 2f38c .cfa: sp 32 +
STACK CFI 2f394 .cfa: sp 0 +
STACK CFI INIT 2f6bc 7c .cfa: sp 0 +
STACK CFI 2f6c0 .cfa: sp 32 +
STACK CFI 2f6c8 .cfa: x29 32 + x19: .cfa -16 + ^ .ra: .cfa -24 + ^ x29: .cfa -32 + ^
STACK CFI 2f6f4 .cfa: sp 32 +
STACK CFI 2f6fc .cfa: sp 0 +
STACK CFI 2f700 .cfa: x29 32 +
STACK CFI 2f72c .cfa: sp 32 +
STACK CFI 2f734 .cfa: sp 0 +
STACK CFI INIT 2fa40 88 .cfa: sp 0 +
STACK CFI INIT 2fac8 64 .cfa: sp 0 +
STACK CFI 2facc .cfa: sp 32 +
STACK CFI 2fad4 .cfa: x29 32 + x19: .cfa -16 + ^ .ra: .cfa -24 + ^ x29: .cfa -32 + ^
STACK CFI 2faf0 .cfa: sp 32 +
STACK CFI 2faf8 .cfa: sp 0 +
STACK CFI 2fafc .cfa: x29 32 +
STACK CFI 2fb20 .cfa: sp 32 +
STACK CFI 2fb28 .cfa: sp 0 +
STACK CFI INIT 2fc50 700 .cfa: sp 0 +
STACK CFI 2fc54 .cfa: sp 192 +
STACK CFI 2fc68 .cfa: x29 64 + x19: .cfa -8 + ^ x20: .cfa -16 + ^ x21: .cfa -24 + ^ x22: .cfa -32 + ^ x23: .cfa -40 + ^ x24: .cfa -48 + ^ .ra: .cfa -56 + ^ x29: .cfa -64 + ^
STACK CFI 2fe98 .cfa: sp 192 +
STACK CFI 2feac .cfa: sp 0 +
STACK CFI 2feb0 .cfa: x29 64 +
STACK CFI 2ff14 .cfa: sp 192 +
STACK CFI 2ff28 .cfa: sp 0 +
STACK CFI 2ff2c .cfa: x29 64 +
STACK CFI 2ff48 .cfa: sp 192 +
STACK CFI 2ff5c .cfa: sp 0 +
STACK CFI 2ff60 .cfa: x29 64 +
STACK CFI 3001c .cfa: sp 192 +
STACK CFI 30030 .cfa: sp 0 +
STACK CFI 30034 .cfa: x29 64 +
STACK CFI 30070 .cfa: sp 192 +
STACK CFI 30084 .cfa: sp 0 +
STACK CFI 30088 .cfa: x29 64 +
STACK CFI 300a0 .cfa: sp 192 +
STACK CFI 300b4 .cfa: sp 0 +
STACK CFI 300b8 .cfa: x29 64 +
STACK CFI 300d0 .cfa: sp 192 +
STACK CFI 300e4 .cfa: sp 0 +
STACK CFI 300e8 .cfa: x29 64 +
STACK CFI 30104 .cfa: sp 192 +
STACK CFI 30118 .cfa: sp 0 +
STACK CFI 3011c .cfa: x29 64 +
STACK CFI 30244 .cfa: sp 192 +
STACK CFI 30258 .cfa: sp 0 +
STACK CFI 3025c .cfa: x29 64 +
STACK CFI INIT 30350 224 .cfa: sp 0 +
STACK CFI INIT 30574 308 .cfa: sp 0 +
STACK CFI INIT 3087c 5ac .cfa: sp 0 +
STACK CFI INIT 30f40 24 .cfa: sp 0 +
STACK CFI 30f44 .cfa: sp 32 +
STACK CFI 30f4c .cfa: x29 32 + x19: .cfa -16 + ^ .ra: .cfa -24 + ^ x29: .cfa -32 + ^
STACK CFI 30f58 .cfa: sp 32 +
STACK CFI 30f60 .cfa: sp 0 +
STACK CFI INIT 30f64 138 .cfa: sp 0 +
STACK CFI 30f68 .cfa: sp 48 +
STACK CFI 30f74 .cfa: x29 48 + x19: .cfa -8 + ^ x20: .cfa -16 + ^ x21: .cfa -32 + ^ .ra: .cfa -40 + ^ x29: .cfa -48 + ^
STACK CFI 3107c .cfa: sp 48 +
STACK CFI 31088 .cfa: sp 0 +
STACK CFI 3108c .cfa: sp 48 +
STACK CFI 31098 .cfa: sp 0 +
STACK CFI INIT 3109c 8c .cfa: sp 0 +
STACK CFI 310a0 .cfa: sp 32 +
STACK CFI 310a8 .cfa: x29 32 + x19: .cfa -16 + ^ .ra: .cfa -24 + ^ x29: .cfa -32 + ^
STACK CFI 310dc .cfa: sp 32 +
STACK CFI 310e4 .cfa: sp 0 +
STACK CFI 310e8 .cfa: x29 32 +
STACK CFI 3111c .cfa: sp 32 +
STACK CFI 31124 .cfa: sp 0 +
STACK CFI INIT 31128 238 .cfa: sp 0 +
STACK CFI 3112c .cfa: sp 80 +
STACK CFI 3113c .cfa: x29 48 + x19: .cfa -8 + ^ x20: .cfa -16 + ^ x21: .cfa -24 + ^ x22: .cfa -32 + ^ .ra: .cfa -40 + ^ x29: .cfa -48 + ^
STACK CFI 31308 .cfa: sp 80 +
STACK CFI 31318 .cfa: sp 0 +
STACK CFI 3131c .cfa: x29 48 +
STACK CFI INIT 31360 16c .cfa: sp 0 +
STACK CFI 31364 .cfa: sp 48 +
STACK CFI 31370 .cfa: x29 48 + x19: .cfa -8 + ^ x20: .cfa -16 + ^ x21: .cfa -24 + ^ x22: .cfa -32 + ^ .ra: .cfa -40 + ^ x29: .cfa -48 + ^
STACK CFI 314bc .cfa: sp 48 +
STACK CFI 314c8 .cfa: sp 0 +
STACK CFI INIT 314cc 1ac .cfa: sp 0 +
STACK CFI 314d0 .cfa: sp 64 +
STACK CFI 314dc .cfa: x29 32 + x19: .cfa -16 + ^ .ra: .cfa -24 + ^ x29: .cfa -32 + ^
STACK CFI 31640 .cfa: sp 64 +
STACK CFI 3164c .cfa: sp 0 +
STACK CFI 31650 .cfa: x29 32 +
STACK CFI INIT 31678 25c .cfa: sp 0 +
STACK CFI 3167c .cfa: sp 80 +
STACK CFI 3168c .cfa: x29 48 + x19: .cfa -8 + ^ x20: .cfa -16 + ^ x21: .cfa -24 + ^ x22: .cfa -32 + ^ .ra: .cfa -40 + ^ x29: .cfa -48 + ^
STACK CFI 3187c .cfa: sp 80 +
STACK CFI 3188c .cfa: sp 0 +
STACK CFI 31890 .cfa: x29 48 +
STACK CFI INIT 318d4 1d4 .cfa: sp 0 +
STACK CFI 318d8 .cfa: sp 64 +
STACK CFI 318e4 .cfa: x29 32 + x19: .cfa -16 + ^ .ra: .cfa -24 + ^ x29: .cfa -32 + ^
STACK CFI 31a70 .cfa: sp 64 +
STACK CFI 31a7c .cfa: sp 0 +
STACK CFI 31a80 .cfa: x29 32 +
STACK CFI INIT 31aa8 34c .cfa: sp 0 +
STACK CFI 31aac .cfa: sp 160 +
STACK CFI 31ac8 .cfa: x29 96 + x19: .cfa -8 + ^ x20: .cfa -16 + ^ x21: .cfa -24 + ^ x22: .cfa -32 + ^ x23: .cfa -40 + ^ x24: .cfa -48 + ^ x25: .cfa -56 + ^ x26: .cfa -64 + ^ x27: .cfa -72 + ^ x28: .cfa -80 + ^ .ra: .cfa -88 + ^ x29: .cfa -96 + ^
STACK CFI 31d80 .cfa: sp 160 +
STACK CFI 31d9c .cfa: sp 0 +
STACK CFI 31da0 .cfa: x29 96 +
STACK CFI INIT 31df4 2d4 .cfa: sp 0 +
STACK CFI 31df8 .cfa: sp 144 +
STACK CFI 31e14 .cfa: x29 96 + x19: .cfa -8 + ^ x20: .cfa -16 + ^ x21: .cfa -24 + ^ x22: .cfa -32 + ^ x23: .cfa -40 + ^ x24: .cfa -48 + ^ x25: .cfa -56 + ^ x26: .cfa -64 + ^ x27: .cfa -72 + ^ x28: .cfa -80 + ^ .ra: .cfa -88 + ^ x29: .cfa -96 + ^
STACK CFI 320a4 .cfa: sp 144 +
STACK CFI 320c0 .cfa: sp 0 +
STACK CFI 320c4 .cfa: x29 96 +
STACK CFI INIT 320c8 13c .cfa: sp 0 +
STACK CFI 320cc .cfa: sp 96 +
STACK CFI 320dc .cfa: x29 48 + x19: .cfa -8 + ^ x20: .cfa -16 + ^ x21: .cfa -24 + ^ x22: .cfa -32 + ^ .ra: .cfa -40 + ^ x29: .cfa -48 + ^
STACK CFI 32148 .cfa: sp 96 +
STACK CFI 32158 .cfa: sp 0 +
STACK CFI 3215c .cfa: x29 48 +
STACK CFI 321a0 .cfa: sp 96 +
STACK CFI 321b0 .cfa: sp 0 +
STACK CFI 321b4 .cfa: x29 48 +
STACK CFI 321ec .cfa: sp 96 +
STACK CFI 321fc .cfa: sp 0 +
STACK CFI 32200 .cfa: x29 48 +
STACK CFI INIT 32204 1e8 .cfa: sp 0 +
STACK CFI 32208 .cfa: sp 80 +
STACK CFI 3221c .cfa: x29 80 + x19: .cfa -8 + ^ x20: .cfa -16 + ^ x21: .cfa -24 + ^ x22: .cfa -32 + ^ x23: .cfa -40 + ^ x24: .cfa -48 + ^ x25: .cfa -64 + ^ .ra: .cfa -72 + ^ x29: .cfa -80 + ^
STACK CFI 323b0 .cfa: sp 80 +
STACK CFI 323c4 .cfa: sp 0 +
STACK CFI 323c8 .cfa: x29 80 +
STACK CFI 323d4 .cfa: sp 80 +
STACK CFI 323e8 .cfa: sp 0 +
STACK CFI INIT 323ec af0 .cfa: sp 0 +
STACK CFI 323f0 .cfa: sp 144 +
STACK CFI 3240c .cfa: x29 96 + x19: .cfa -8 + ^ x20: .cfa -16 + ^ x21: .cfa -24 + ^ x22: .cfa -32 + ^ x23: .cfa -40 + ^ x24: .cfa -48 + ^ x25: .cfa -56 + ^ x26: .cfa -64 + ^ x27: .cfa -72 + ^ x28: .cfa -80 + ^ .ra: .cfa -88 + ^ x29: .cfa -96 + ^
STACK CFI 326c0 .cfa: sp 144 +
STACK CFI 326dc .cfa: sp 0 +
STACK CFI 326e0 .cfa: x29 96 +
STACK CFI 32e9c .cfa: sp 144 +
STACK CFI 32eb8 .cfa: sp 0 +
STACK CFI 32ebc .cfa: x29 96 +
STACK CFI INIT 32edc 190 .cfa: sp 0 +
STACK CFI 32ee0 .cfa: sp 96 +
STACK CFI 32ef4 .cfa: x29 64 + x19: .cfa -8 + ^ x20: .cfa -16 + ^ x21: .cfa -24 + ^ x22: .cfa -32 + ^ x23: .cfa -48 + ^ .ra: .cfa -56 + ^ x29: .cfa -64 + ^
STACK CFI 33050 .cfa: sp 96 +
STACK CFI 33064 .cfa: sp 0 +
STACK CFI 33068 .cfa: x29 64 +
STACK CFI INIT 3306c 1c0 .cfa: sp 0 +
STACK CFI 33070 .cfa: sp 96 +
STACK CFI 33084 .cfa: x29 64 + x19: .cfa -8 + ^ x20: .cfa -16 + ^ x21: .cfa -24 + ^ x22: .cfa -32 + ^ x23: .cfa -48 + ^ .ra: .cfa -56 + ^ x29: .cfa -64 + ^
STACK CFI 33210 .cfa: sp 96 +
STACK CFI 33224 .cfa: sp 0 +
STACK CFI 33228 .cfa: x29 64 +
STACK CFI INIT 3322c 180 .cfa: sp 0 +
STACK CFI 33230 .cfa: sp 96 +
STACK CFI 33240 .cfa: x29 48 + x19: .cfa -8 + ^ x20: .cfa -16 + ^ x21: .cfa -32 + ^ .ra: .cfa -40 + ^ x29: .cfa -48 + ^
STACK CFI 3336c .cfa: sp 96 +
STACK CFI 3337c .cfa: sp 0 +
STACK CFI 33380 .cfa: x29 48 +
STACK CFI INIT 333ac 244 .cfa: sp 0 +
STACK CFI 333b0 .cfa: sp 96 +
STACK CFI 333c8 .cfa: x29 96 + x19: .cfa -8 + ^ x20: .cfa -16 + ^ x21: .cfa -24 + ^ x22: .cfa -32 + ^ x23: .cfa -40 + ^ x24: .cfa -48 + ^ x25: .cfa -56 + ^ x26: .cfa -64 + ^ x27: .cfa -72 + ^ x28: .cfa -80 + ^ .ra: .cfa -88 + ^ x29: .cfa -96 + ^
STACK CFI 335b0 .cfa: sp 96 +
STACK CFI 335c8 .cfa: sp 0 +
STACK CFI 335cc .cfa: x29 96 +
STACK CFI 335d4 .cfa: sp 96 +
STACK CFI 335ec .cfa: sp 0 +
STACK CFI INIT 33c7c 154 .cfa: sp 0 +
STACK CFI 33c80 .cfa: sp 80 +
STACK CFI 33c90 .cfa: x29 48 + x19: .cfa -8 + ^ x20: .cfa -16 + ^ x21: .cfa -24 + ^ x22: .cfa -32 + ^ .ra: .cfa -40 + ^ x29: .cfa -48 + ^
STACK CFI 33d74 .cfa: sp 80 +
STACK CFI 33d84 .cfa: sp 0 +
STACK CFI 33d88 .cfa: x29 48 +
STACK CFI INIT 33f90 44 .cfa: sp 0 +
STACK CFI 33f94 .cfa: sp 32 +
STACK CFI 33f9c .cfa: x29 32 + x19: .cfa -16 + ^ .ra: .cfa -24 + ^ x29: .cfa -32 + ^
STACK CFI 33fb8 .cfa: sp 32 +
STACK CFI 33fc0 .cfa: sp 0 +
STACK CFI 33fc4 .cfa: x29 32 +
STACK CFI 33fc8 .cfa: sp 32 +
STACK CFI 33fd0 .cfa: sp 0 +
STACK CFI INIT 33fd4 1e8 .cfa: sp 0 +
STACK CFI 33fd8 .cfa: sp 64 +
STACK CFI 33fe8 .cfa: x29 64 + x19: .cfa -8 + ^ x20: .cfa -16 + ^ x21: .cfa -24 + ^ x22: .cfa -32 + ^ x23: .cfa -40 + ^ x24: .cfa -48 + ^ .ra: .cfa -56 + ^ x29: .cfa -64 + ^
STACK CFI 340b4 .cfa: sp 64 +
STACK CFI 340c4 .cfa: sp 0 +
STACK CFI 340c8 .cfa: x29 64 +
STACK CFI INIT 341bc 188 .cfa: sp 0 +
STACK CFI INIT 34344 13c .cfa: sp 0 +
STACK CFI 34348 .cfa: sp 48 +
STACK CFI 34354 .cfa: x29 48 + x19: .cfa -8 + ^ x20: .cfa -16 + ^ x21: .cfa -32 + ^ .ra: .cfa -40 + ^ x29: .cfa -48 + ^
STACK CFI 34470 .cfa: sp 48 +
STACK CFI 3447c .cfa: sp 0 +
STACK CFI INIT 34b20 110 .cfa: sp 0 +
STACK CFI 34b24 .cfa: sp 48 +
STACK CFI 34b30 .cfa: x29 48 + x19: .cfa -8 + ^ x20: .cfa -16 + ^ x21: .cfa -32 + ^ .ra: .cfa -40 + ^ x29: .cfa -48 + ^
STACK CFI 34c0c .cfa: sp 48 +
STACK CFI 34c18 .cfa: sp 0 +
STACK CFI 34c1c .cfa: sp 48 +
STACK CFI 34c28 .cfa: sp 0 +
STACK CFI 34c2c .cfa: x29 48 +
STACK CFI INIT 34c30 16c .cfa: sp 0 +
STACK CFI 34c34 .cfa: sp 64 +
STACK CFI 34c44 .cfa: x29 64 + x19: .cfa -8 + ^ x20: .cfa -16 + ^ x21: .cfa -24 + ^ x22: .cfa -32 + ^ x23: .cfa -40 + ^ x24: .cfa -48 + ^ .ra: .cfa -56 + ^ x29: .cfa -64 + ^
STACK CFI 34d68 .cfa: sp 64 +
STACK CFI 34d78 .cfa: sp 0 +
STACK CFI 34d7c .cfa: x29 64 +
STACK CFI 34d88 .cfa: sp 64 +
STACK CFI 34d98 .cfa: sp 0 +
STACK CFI INIT 34ee0 224 .cfa: sp 0 +
STACK CFI 34ee4 .cfa: sp 96 +
STACK CFI 34ef8 .cfa: x29 64 + x19: .cfa -8 + ^ x20: .cfa -16 + ^ x21: .cfa -24 + ^ x22: .cfa -32 + ^ x23: .cfa -48 + ^ .ra: .cfa -56 + ^ x29: .cfa -64 + ^
STACK CFI 350e8 .cfa: sp 96 +
STACK CFI 350fc .cfa: sp 0 +
STACK CFI 35100 .cfa: x29 64 +
STACK CFI INIT 3579c 158 .cfa: sp 0 +
STACK CFI 357a0 .cfa: sp 80 +
STACK CFI 357b0 .cfa: x29 48 + x19: .cfa -8 + ^ x20: .cfa -16 + ^ x21: .cfa -24 + ^ x22: .cfa -32 + ^ .ra: .cfa -40 + ^ x29: .cfa -48 + ^
STACK CFI 35898 .cfa: sp 80 +
STACK CFI 358a8 .cfa: sp 0 +
STACK CFI 358ac .cfa: x29 48 +
STACK CFI INIT 358f4 1ac .cfa: sp 0 +
STACK CFI INIT 35aa0 13c .cfa: sp 0 +
STACK CFI 35aa4 .cfa: sp 48 +
STACK CFI 35ab0 .cfa: x29 48 + x19: .cfa -8 + ^ x20: .cfa -16 + ^ x21: .cfa -32 + ^ .ra: .cfa -40 + ^ x29: .cfa -48 + ^
STACK CFI 35bcc .cfa: sp 48 +
STACK CFI 35bd8 .cfa: sp 0 +
STACK CFI INIT 35eb8 16c .cfa: sp 0 +
STACK CFI 35ebc .cfa: sp 64 +
STACK CFI 35ecc .cfa: x29 64 + x19: .cfa -8 + ^ x20: .cfa -16 + ^ x21: .cfa -24 + ^ x22: .cfa -32 + ^ x23: .cfa -40 + ^ x24: .cfa -48 + ^ .ra: .cfa -56 + ^ x29: .cfa -64 + ^
STACK CFI 35ff0 .cfa: sp 64 +
STACK CFI 36000 .cfa: sp 0 +
STACK CFI 36004 .cfa: x29 64 +
STACK CFI 36010 .cfa: sp 64 +
STACK CFI 36020 .cfa: sp 0 +
STACK CFI INIT 36168 230 .cfa: sp 0 +
STACK CFI 3616c .cfa: sp 96 +
STACK CFI 36180 .cfa: x29 64 + x19: .cfa -8 + ^ x20: .cfa -16 + ^ x21: .cfa -24 + ^ x22: .cfa -32 + ^ x23: .cfa -48 + ^ .ra: .cfa -56 + ^ x29: .cfa -64 + ^
STACK CFI 3637c .cfa: sp 96 +
STACK CFI 36390 .cfa: sp 0 +
STACK CFI 36394 .cfa: x29 64 +
STACK CFI INIT 367d4 5b0 .cfa: sp 0 +
STACK CFI 367d8 .cfa: sp 176 +
STACK CFI 367f4 .cfa: x29 96 + x19: .cfa -8 + ^ x20: .cfa -16 + ^ x21: .cfa -24 + ^ x22: .cfa -32 + ^ x23: .cfa -40 + ^ x24: .cfa -48 + ^ x25: .cfa -56 + ^ x26: .cfa -64 + ^ x27: .cfa -72 + ^ x28: .cfa -80 + ^ .ra: .cfa -88 + ^ x29: .cfa -96 + ^
STACK CFI 36d60 .cfa: sp 176 +
STACK CFI 36d7c .cfa: sp 0 +
STACK CFI 36d80 .cfa: x29 96 +
STACK CFI INIT 36d84 1e8 .cfa: sp 0 +
STACK CFI 36d88 .cfa: sp 80 +
STACK CFI 36d9c .cfa: x29 80 + x19: .cfa -8 + ^ x20: .cfa -16 + ^ x21: .cfa -24 + ^ x22: .cfa -32 + ^ x23: .cfa -40 + ^ x24: .cfa -48 + ^ x25: .cfa -64 + ^ .ra: .cfa -72 + ^ x29: .cfa -80 + ^
STACK CFI 36f30 .cfa: sp 80 +
STACK CFI 36f44 .cfa: sp 0 +
STACK CFI 36f48 .cfa: x29 80 +
STACK CFI 36f54 .cfa: sp 80 +
STACK CFI 36f68 .cfa: sp 0 +
STACK CFI INIT 36f6c 2cc .cfa: sp 0 +
STACK CFI 36f70 .cfa: sp 160 +
STACK CFI 36f84 .cfa: x29 64 + x19: .cfa -8 + ^ x20: .cfa -16 + ^ x21: .cfa -24 + ^ x22: .cfa -32 + ^ x23: .cfa -40 + ^ x24: .cfa -48 + ^ .ra: .cfa -56 + ^ x29: .cfa -64 + ^
STACK CFI 371f8 .cfa: sp 160 +
STACK CFI 3720c .cfa: sp 0 +
STACK CFI 37210 .cfa: x29 64 +
STACK CFI INIT 3868c 130 .cfa: sp 0 +
STACK CFI 38690 .cfa: sp 32 +
STACK CFI 38698 .cfa: x29 32 + x19: .cfa -8 + ^ x20: .cfa -16 + ^ .ra: .cfa -24 + ^ x29: .cfa -32 + ^
STACK CFI 387b0 .cfa: sp 32 +
STACK CFI 387b8 .cfa: sp 0 +
STACK CFI INIT 387bc 170 .cfa: sp 0 +
STACK CFI 387c0 .cfa: sp 48 +
STACK CFI 387cc .cfa: x29 48 + x19: .cfa -8 + ^ x20: .cfa -16 + ^ x21: .cfa -24 + ^ x22: .cfa -32 + ^ .ra: .cfa -40 + ^ x29: .cfa -48 + ^
STACK CFI 38838 .cfa: sp 48 +
STACK CFI 38844 .cfa: sp 0 +
STACK CFI 38848 .cfa: x29 48 +
STACK CFI 38884 .cfa: sp 48 +
STACK CFI 38890 .cfa: sp 0 +
STACK CFI 38894 .cfa: x29 48 +
STACK CFI INIT 3892c 374 .cfa: sp 0 +
STACK CFI 38930 .cfa: sp 80 +
STACK CFI 38944 .cfa: x29 80 + x19: .cfa -8 + ^ x20: .cfa -16 + ^ x21: .cfa -24 + ^ x22: .cfa -32 + ^ x23: .cfa -40 + ^ x24: .cfa -48 + ^ x25: .cfa -64 + ^ .ra: .cfa -72 + ^ x29: .cfa -80 + ^
STACK CFI 38adc .cfa: sp 80 +
STACK CFI 38af0 .cfa: sp 0 +
STACK CFI 38af4 .cfa: x29 80 +
STACK CFI INIT 38ca0 110 .cfa: sp 0 +
STACK CFI 38ca4 .cfa: sp 48 +
STACK CFI 38cb0 .cfa: x29 48 + x19: .cfa -8 + ^ x20: .cfa -16 + ^ x21: .cfa -32 + ^ .ra: .cfa -40 + ^ x29: .cfa -48 + ^
STACK CFI 38d8c .cfa: sp 48 +
STACK CFI 38d98 .cfa: sp 0 +
STACK CFI 38d9c .cfa: sp 48 +
STACK CFI 38da8 .cfa: sp 0 +
STACK CFI 38dac .cfa: x29 48 +
STACK CFI INIT 399d4 17c .cfa: sp 0 +
STACK CFI 399d8 .cfa: sp 64 +
STACK CFI 399e8 .cfa: x29 64 + x19: .cfa -8 + ^ x20: .cfa -16 + ^ x21: .cfa -24 + ^ x22: .cfa -32 + ^ x23: .cfa -40 + ^ x24: .cfa -48 + ^ .ra: .cfa -56 + ^ x29: .cfa -64 + ^
STACK CFI 39af8 .cfa: sp 64 +
STACK CFI 39b08 .cfa: sp 0 +
STACK CFI 39b0c .cfa: x29 64 +
STACK CFI INIT 39b50 16c .cfa: sp 0 +
STACK CFI 39b54 .cfa: sp 48 +
STACK CFI 39b60 .cfa: x29 48 + x19: .cfa -8 + ^ x20: .cfa -16 + ^ x21: .cfa -24 + ^ x22: .cfa -32 + ^ .ra: .cfa -40 + ^ x29: .cfa -48 + ^
STACK CFI 39cac .cfa: sp 48 +
STACK CFI 39cb8 .cfa: sp 0 +
STACK CFI INIT 39cbc 13c .cfa: sp 0 +
STACK CFI 39cc0 .cfa: sp 48 +
STACK CFI 39ccc .cfa: x29 48 + x19: .cfa -8 + ^ x20: .cfa -16 + ^ x21: .cfa -32 + ^ .ra: .cfa -40 + ^ x29: .cfa -48 + ^
STACK CFI 39de8 .cfa: sp 48 +
STACK CFI 39df4 .cfa: sp 0 +
STACK CFI INIT 3a21c 16c .cfa: sp 0 +
STACK CFI 3a220 .cfa: sp 64 +
STACK CFI 3a230 .cfa: x29 64 + x19: .cfa -8 + ^ x20: .cfa -16 + ^ x21: .cfa -24 + ^ x22: .cfa -32 + ^ x23: .cfa -40 + ^ x24: .cfa -48 + ^ .ra: .cfa -56 + ^ x29: .cfa -64 + ^
STACK CFI 3a354 .cfa: sp 64 +
STACK CFI 3a364 .cfa: sp 0 +
STACK CFI 3a368 .cfa: x29 64 +
STACK CFI 3a374 .cfa: sp 64 +
STACK CFI 3a384 .cfa: sp 0 +
STACK CFI INIT 3a5b0 2a4 .cfa: sp 0 +
STACK CFI 3a5b4 .cfa: sp 48 +
STACK CFI 3a5c0 .cfa: x29 48 + x19: .cfa -8 + ^ x20: .cfa -16 + ^ x21: .cfa -24 + ^ x22: .cfa -32 + ^ .ra: .cfa -40 + ^ x29: .cfa -48 + ^
STACK CFI 3a844 .cfa: sp 48 +
STACK CFI 3a850 .cfa: sp 0 +
STACK CFI INIT 3a854 1d0 .cfa: sp 0 +
STACK CFI 3a858 .cfa: sp 96 +
STACK CFI 3a86c .cfa: x29 64 + x19: .cfa -8 + ^ x20: .cfa -16 + ^ x21: .cfa -24 + ^ x22: .cfa -32 + ^ x23: .cfa -40 + ^ x24: .cfa -48 + ^ .ra: .cfa -56 + ^ x29: .cfa -64 + ^
STACK CFI 3a9b8 .cfa: sp 96 +
STACK CFI 3a9cc .cfa: sp 0 +
STACK CFI 3a9d0 .cfa: x29 64 +
STACK CFI INIT 3aa24 634 .cfa: sp 0 +
STACK CFI 3aa28 .cfa: sp 192 +
STACK CFI 3aa3c .cfa: x29 64 + x19: .cfa -8 + ^ x20: .cfa -16 + ^ x21: .cfa -24 + ^ x22: .cfa -32 + ^ x23: .cfa -40 + ^ x24: .cfa -48 + ^ .ra: .cfa -56 + ^ x29: .cfa -64 + ^
STACK CFI 3afb0 .cfa: sp 192 +
STACK CFI 3afc4 .cfa: sp 0 +
STACK CFI 3afc8 .cfa: x29 64 +
STACK CFI INIT 3b058 b7c .cfa: sp 0 +
STACK CFI 3b05c .cfa: sp 384 +
STACK CFI 3b078 .cfa: x29 96 + x19: .cfa -8 + ^ x20: .cfa -16 + ^ x21: .cfa -24 + ^ x22: .cfa -32 + ^ x23: .cfa -40 + ^ x24: .cfa -48 + ^ x25: .cfa -56 + ^ x26: .cfa -64 + ^ x27: .cfa -72 + ^ x28: .cfa -80 + ^ .ra: .cfa -88 + ^ x29: .cfa -96 + ^
STACK CFI 3baf4 .cfa: sp 384 +
STACK CFI 3bb10 .cfa: sp 0 +
STACK CFI 3bb14 .cfa: x29 96 +
STACK CFI INIT 3bbd4 25c .cfa: sp 0 +
STACK CFI 3bbd8 .cfa: sp 112 +
STACK CFI 3bbf4 .cfa: x29 96 + x19: .cfa -8 + ^ x20: .cfa -16 + ^ x21: .cfa -24 + ^ x22: .cfa -32 + ^ x23: .cfa -40 + ^ x24: .cfa -48 + ^ x25: .cfa -56 + ^ x26: .cfa -64 + ^ x27: .cfa -72 + ^ x28: .cfa -80 + ^ .ra: .cfa -88 + ^ x29: .cfa -96 + ^
STACK CFI 3bdf8 .cfa: sp 112 +
STACK CFI 3be14 .cfa: sp 0 +
STACK CFI 3be18 .cfa: x29 96 +
STACK CFI INIT 3be30 b00 .cfa: sp 0 +
STACK CFI 3be34 .cfa: sp 176 +
STACK CFI 3be50 .cfa: x29 96 + x19: .cfa -8 + ^ x20: .cfa -16 + ^ x21: .cfa -24 + ^ x22: .cfa -32 + ^ x23: .cfa -40 + ^ x24: .cfa -48 + ^ x25: .cfa -56 + ^ x26: .cfa -64 + ^ x27: .cfa -72 + ^ x28: .cfa -80 + ^ .ra: .cfa -88 + ^ x29: .cfa -96 + ^
STACK CFI 3c140 .cfa: sp 176 +
STACK CFI 3c15c .cfa: sp 0 +
STACK CFI 3c160 .cfa: x29 96 +
STACK CFI 3c8f0 .cfa: sp 176 +
STACK CFI 3c90c .cfa: sp 0 +
STACK CFI 3c910 .cfa: x29 96 +
STACK CFI INIT 3c930 19c .cfa: sp 0 +
STACK CFI 3c934 .cfa: sp 96 +
STACK CFI 3c948 .cfa: x29 64 + x19: .cfa -8 + ^ x20: .cfa -16 + ^ x21: .cfa -24 + ^ x22: .cfa -32 + ^ x23: .cfa -48 + ^ .ra: .cfa -56 + ^ x29: .cfa -64 + ^
STACK CFI 3cab0 .cfa: sp 96 +
STACK CFI 3cac4 .cfa: sp 0 +
STACK CFI 3cac8 .cfa: x29 64 +
STACK CFI INIT 3cacc 1c4 .cfa: sp 0 +
STACK CFI 3cad0 .cfa: sp 96 +
STACK CFI 3cae4 .cfa: x29 64 + x19: .cfa -8 + ^ x20: .cfa -16 + ^ x21: .cfa -24 + ^ x22: .cfa -32 + ^ x23: .cfa -48 + ^ .ra: .cfa -56 + ^ x29: .cfa -64 + ^
STACK CFI 3cc74 .cfa: sp 96 +
STACK CFI 3cc88 .cfa: sp 0 +
STACK CFI 3cc8c .cfa: x29 64 +
STACK CFI INIT 3cc90 cc4 .cfa: sp 0 +
STACK CFI 3cc94 .cfa: sp 256 +
STACK CFI 3ccb0 .cfa: x29 96 + x19: .cfa -8 + ^ x20: .cfa -16 + ^ x21: .cfa -24 + ^ x22: .cfa -32 + ^ x23: .cfa -40 + ^ x24: .cfa -48 + ^ x25: .cfa -56 + ^ x26: .cfa -64 + ^ x27: .cfa -72 + ^ x28: .cfa -80 + ^ .ra: .cfa -88 + ^ x29: .cfa -96 + ^
STACK CFI 3cfc8 .cfa: sp 256 +
STACK CFI 3cfe4 .cfa: sp 0 +
STACK CFI 3cfe8 .cfa: x29 96 +
STACK CFI 3d8f4 .cfa: sp 256 +
STACK CFI 3d910 .cfa: sp 0 +
STACK CFI 3d914 .cfa: x29 96 +
STACK CFI INIT 3d954 1d4 .cfa: sp 0 +
STACK CFI 3d958 .cfa: sp 144 +
STACK CFI 3d974 .cfa: x29 96 + x19: .cfa -8 + ^ x20: .cfa -16 + ^ x21: .cfa -24 + ^ x22: .cfa -32 + ^ x23: .cfa -40 + ^ x24: .cfa -48 + ^ x25: .cfa -56 + ^ x26: .cfa -64 + ^ x27: .cfa -80 + ^ .ra: .cfa -88 + ^ x29: .cfa -96 + ^
STACK CFI 3db04 .cfa: sp 144 +
STACK CFI 3db20 .cfa: sp 0 +
STACK CFI 3db24 .cfa: x29 96 +
STACK CFI INIT 3db28 1dc .cfa: sp 0 +
STACK CFI 3db2c .cfa: sp 112 +
STACK CFI 3db40 .cfa: x29 64 + x19: .cfa -8 + ^ x20: .cfa -16 + ^ x21: .cfa -24 + ^ x22: .cfa -32 + ^ x23: .cfa -48 + ^ .ra: .cfa -56 + ^ x29: .cfa -64 + ^
STACK CFI 3dce8 .cfa: sp 112 +
STACK CFI 3dcfc .cfa: sp 0 +
STACK CFI 3dd00 .cfa: x29 64 +
STACK CFI INIT 3dd04 1f4 .cfa: sp 0 +
STACK CFI 3dd08 .cfa: sp 128 +
STACK CFI 3dd20 .cfa: x29 80 + x19: .cfa -8 + ^ x20: .cfa -16 + ^ x21: .cfa -24 + ^ x22: .cfa -32 + ^ x23: .cfa -40 + ^ x24: .cfa -48 + ^ x25: .cfa -64 + ^ .ra: .cfa -72 + ^ x29: .cfa -80 + ^
STACK CFI 3de2c .cfa: sp 128 +
STACK CFI 3de44 .cfa: sp 0 +
STACK CFI 3de48 .cfa: x29 80 +
STACK CFI 3debc .cfa: sp 128 +
STACK CFI 3ded4 .cfa: sp 0 +
STACK CFI 3ded8 .cfa: x29 80 +
STACK CFI INIT 3e2e4 568 .cfa: sp 0 +
STACK CFI 3e2e8 .cfa: sp 144 +
STACK CFI 3e304 .cfa: x29 96 + x19: .cfa -8 + ^ x20: .cfa -16 + ^ x21: .cfa -24 + ^ x22: .cfa -32 + ^ x23: .cfa -40 + ^ x24: .cfa -48 + ^ x25: .cfa -56 + ^ x26: .cfa -64 + ^ x27: .cfa -72 + ^ x28: .cfa -80 + ^ .ra: .cfa -88 + ^ x29: .cfa -96 + ^
STACK CFI 3e828 .cfa: sp 144 +
STACK CFI 3e844 .cfa: sp 0 +
STACK CFI 3e848 .cfa: x29 96 +
STACK CFI INIT 3f038 1d4 .cfa: sp 0 +
STACK CFI 3f03c .cfa: sp 64 +
STACK CFI 3f048 .cfa: x29 32 + x19: .cfa -16 + ^ .ra: .cfa -24 + ^ x29: .cfa -32 + ^
STACK CFI 3f1d4 .cfa: sp 64 +
STACK CFI 3f1e0 .cfa: sp 0 +
STACK CFI 3f1e4 .cfa: x29 32 +
STACK CFI INIT 406c4 248 .cfa: sp 0 +
STACK CFI 406c8 .cfa: sp 128 +
STACK CFI 406e0 .cfa: x29 80 + x19: .cfa -8 + ^ x20: .cfa -16 + ^ x21: .cfa -24 + ^ x22: .cfa -32 + ^ x23: .cfa -40 + ^ x24: .cfa -48 + ^ x25: .cfa -56 + ^ x26: .cfa -64 + ^ .ra: .cfa -72 + ^ x29: .cfa -80 + ^
STACK CFI 408ec .cfa: sp 128 +
STACK CFI 40904 .cfa: sp 0 +
STACK CFI 40908 .cfa: x29 80 +
STACK CFI INIT 4090c 318 .cfa: sp 0 +
STACK CFI 40910 .cfa: sp 176 +
STACK CFI 4092c .cfa: x29 96 + x19: .cfa -8 + ^ x20: .cfa -16 + ^ x21: .cfa -24 + ^ x22: .cfa -32 + ^ x23: .cfa -40 + ^ x24: .cfa -48 + ^ x25: .cfa -56 + ^ x26: .cfa -64 + ^ x27: .cfa -72 + ^ x28: .cfa -80 + ^ .ra: .cfa -88 + ^ x29: .cfa -96 + ^
STACK CFI 40c00 .cfa: sp 176 +
STACK CFI 40c1c .cfa: sp 0 +
STACK CFI 40c20 .cfa: x29 96 +
STACK CFI INIT 40c24 a0 .cfa: sp 0 +
STACK CFI 40c30 .cfa: sp 32 +
STACK CFI 40c88 .cfa: sp 0 +
STACK CFI 40c8c .cfa: sp 32 +
STACK CFI 40c94 .cfa: sp 0 +
STACK CFI 40c98 .cfa: sp 32 +
STACK CFI 40cac .cfa: sp 0 +
STACK CFI 40cb0 .cfa: sp 32 +
STACK CFI 40cc0 .cfa: sp 0 +
STACK CFI INIT 40cc4 38 .cfa: sp 0 +
STACK CFI 40cd0 .cfa: sp 32 +
STACK CFI 40cf8 .cfa: sp 0 +
STACK CFI INIT 40cfc c .cfa: sp 0 +
STACK CFI INIT 40d08 234 .cfa: sp 0 +
STACK CFI INIT 40f40 30 .cfa: sp 0 +
STACK CFI INIT 40f70 98 .cfa: sp 0 +
STACK CFI INIT 41008 438 .cfa: sp 0 +
STACK CFI 41010 .cfa: sp 48 +
STACK CFI 41018 x19: .cfa -8 + ^ x20: .cfa -16 + ^ x21: .cfa -24 + ^ x22: .cfa -32 + ^ x23: .cfa -40 + ^ x24: .cfa -48 + ^
STACK CFI 41030 .cfa: sp 0 +
STACK CFI 41034 .cfa: sp 48 +
STACK CFI 41420 .cfa: sp 0 +
STACK CFI 41424 .cfa: sp 48 +
STACK CFI 4143c .cfa: sp 0 +
STACK CFI INIT 41440 98 .cfa: sp 0 +
STACK CFI INIT 414e0 30 .cfa: sp 0 +
STACK CFI INIT 22274 48c .cfa: sp 0 +
STACK CFI 22278 .cfa: sp 256 +
STACK CFI 22294 .cfa: x29 96 + x19: .cfa -8 + ^ x20: .cfa -16 + ^ x21: .cfa -24 + ^ x22: .cfa -32 + ^ x23: .cfa -40 + ^ x24: .cfa -48 + ^ x25: .cfa -56 + ^ x26: .cfa -64 + ^ x27: .cfa -72 + ^ x28: .cfa -80 + ^ .ra: .cfa -88 + ^ x29: .cfa -96 + ^
STACK CFI 225fc .cfa: sp 256 +
STACK CFI 22618 .cfa: sp 0 +
STACK CFI 2261c .cfa: x29 96 +
STACK CFI INIT 22700 2dc .cfa: sp 0 +
STACK CFI 22704 .cfa: sp 176 +
STACK CFI 22718 .cfa: x29 64 + x19: .cfa -8 + ^ x20: .cfa -16 + ^ x21: .cfa -24 + ^ x22: .cfa -32 + ^ x23: .cfa -48 + ^ .ra: .cfa -56 + ^ x29: .cfa -64 + ^
STACK CFI 22904 .cfa: sp 176 +
STACK CFI 22918 .cfa: sp 0 +
STACK CFI 2291c .cfa: x29 64 +
STACK CFI INIT 22ad0 50 .cfa: sp 0 +
STACK CFI 22ad4 .cfa: sp 32 +
STACK CFI 22adc .cfa: x29 32 + x19: .cfa -8 + ^ x20: .cfa -16 + ^ .ra: .cfa -24 + ^ x29: .cfa -32 + ^
STACK CFI INIT 22b84 2a0 .cfa: sp 0 +
STACK CFI 22b88 .cfa: sp 144 +
STACK CFI 22ba4 .cfa: x29 96 + x19: .cfa -8 + ^ x20: .cfa -16 + ^ x21: .cfa -24 + ^ x22: .cfa -32 + ^ x23: .cfa -40 + ^ x24: .cfa -48 + ^ x25: .cfa -56 + ^ x26: .cfa -64 + ^ x27: .cfa -80 + ^ .ra: .cfa -88 + ^ x29: .cfa -96 + ^
STACK CFI 22d24 .cfa: sp 144 +
STACK CFI 22d40 .cfa: sp 0 +
STACK CFI 22d44 .cfa: x29 96 +
STACK CFI 22d98 .cfa: sp 144 +
STACK CFI 22db4 .cfa: sp 0 +
STACK CFI 22db8 .cfa: x29 96 +
STACK CFI INIT 234d8 134 .cfa: sp 0 +
STACK CFI 234dc .cfa: sp 128 +
STACK CFI 234f0 .cfa: x29 64 + x19: .cfa -8 + ^ x20: .cfa -16 + ^ x21: .cfa -24 + ^ x22: .cfa -32 + ^ x23: .cfa -40 + ^ x24: .cfa -48 + ^ .ra: .cfa -56 + ^ x29: .cfa -64 + ^
STACK CFI 235bc .cfa: sp 128 +
STACK CFI 235d0 .cfa: sp 0 +
STACK CFI 235d4 .cfa: x29 64 +
STACK CFI INIT 23730 588 .cfa: sp 0 +
STACK CFI 23734 .cfa: sp 336 +
STACK CFI 23754 .cfa: x29 96 + x19: .cfa -8 + ^ x20: .cfa -16 + ^ x21: .cfa -24 + ^ x22: .cfa -32 + ^ x23: .cfa -40 + ^ x24: .cfa -48 + ^ x25: .cfa -56 + ^ x26: .cfa -64 + ^ x27: .cfa -72 + ^ x28: .cfa -80 + ^ .ra: .cfa -88 + ^ x29: .cfa -96 + ^ v8: .cfa -112 + ^
STACK CFI 23788 .cfa: sp 336 +
STACK CFI 237a8 .cfa: sp 0 +
STACK CFI 237ac .cfa: x29 96 +
STACK CFI INIT 23d90 214 .cfa: sp 0 +
STACK CFI 23d94 .cfa: sp 64 +
STACK CFI 23da4 .cfa: x29 64 + x19: .cfa -8 + ^ x20: .cfa -16 + ^ x21: .cfa -24 + ^ x22: .cfa -32 + ^ x28: .cfa -48 + ^ .ra: .cfa -56 + ^ x29: .cfa -64 + ^
STACK CFI 23f0c .cfa: sp 64 +
STACK CFI 23f1c .cfa: sp 0 +
STACK CFI 23f20 .cfa: x29 64 +
STACK CFI INIT 23fa4 264 .cfa: sp 0 +
STACK CFI 23fa8 .cfa: sp 112 +
STACK CFI 23fc4 .cfa: x29 96 + x19: .cfa -8 + ^ x20: .cfa -16 + ^ x21: .cfa -24 + ^ x22: .cfa -32 + ^ x23: .cfa -40 + ^ x24: .cfa -48 + ^ x25: .cfa -56 + ^ x26: .cfa -64 + ^ x27: .cfa -72 + ^ x28: .cfa -80 + ^ .ra: .cfa -88 + ^ x29: .cfa -96 + ^
STACK CFI 23ffc .cfa: sp 112 +
STACK CFI 24018 .cfa: sp 0 +
STACK CFI 2401c .cfa: x29 96 +
STACK CFI INIT 243c0 230 .cfa: sp 0 +
STACK CFI 243c4 .cfa: sp 128 +
STACK CFI 243dc .cfa: x29 80 + x19: .cfa -8 + ^ x20: .cfa -16 + ^ x21: .cfa -24 + ^ x22: .cfa -32 + ^ x23: .cfa -40 + ^ x24: .cfa -48 + ^ x25: .cfa -64 + ^ .ra: .cfa -72 + ^ x29: .cfa -80 + ^
STACK CFI 244f0 .cfa: sp 128 +
STACK CFI 24508 .cfa: sp 0 +
STACK CFI 2450c .cfa: x29 80 +
STACK CFI 2453c .cfa: sp 128 +
STACK CFI 24554 .cfa: sp 0 +
STACK CFI 24558 .cfa: x29 80 +
STACK CFI INIT 24674 50 .cfa: sp 0 +
STACK CFI 24678 .cfa: sp 32 +
STACK CFI 24680 .cfa: x29 32 + x19: .cfa -8 + ^ x20: .cfa -16 + ^ .ra: .cfa -24 + ^ x29: .cfa -32 + ^
STACK CFI INIT 24708 174 .cfa: sp 0 +
STACK CFI 2470c .cfa: sp 32 +
STACK CFI 24714 .cfa: x29 32 + x19: .cfa -16 + ^ .ra: .cfa -24 + ^ x29: .cfa -32 + ^
STACK CFI 24828 .cfa: sp 32 +
STACK CFI 24830 .cfa: sp 0 +
STACK CFI 24834 .cfa: x29 32 +
STACK CFI INIT 24884 98 .cfa: sp 0 +
STACK CFI 24888 .cfa: sp 32 +
STACK CFI 24890 .cfa: x29 32 + x19: .cfa -16 + ^ .ra: .cfa -24 + ^ x29: .cfa -32 + ^
STACK CFI 2490c .cfa: sp 32 +
STACK CFI 24914 .cfa: sp 0 +
STACK CFI 24918 .cfa: x29 32 +
STACK CFI INIT 2491c 9c .cfa: sp 0 +
STACK CFI 24920 .cfa: sp 32 +
STACK CFI 24928 .cfa: x29 32 + x19: .cfa -16 + ^ .ra: .cfa -24 + ^ x29: .cfa -32 + ^
STACK CFI 249a8 .cfa: sp 32 +
STACK CFI 249b0 .cfa: sp 0 +
STACK CFI 249b4 .cfa: x29 32 +
STACK CFI INIT 249b8 9c .cfa: sp 0 +
STACK CFI 249bc .cfa: sp 32 +
STACK CFI 249c4 .cfa: x29 32 + x19: .cfa -16 + ^ .ra: .cfa -24 + ^ x29: .cfa -32 + ^
STACK CFI 24a44 .cfa: sp 32 +
STACK CFI 24a4c .cfa: sp 0 +
STACK CFI 24a50 .cfa: x29 32 +
STACK CFI INIT 24a54 a0 .cfa: sp 0 +
STACK CFI 24a58 .cfa: sp 32 +
STACK CFI 24a60 .cfa: x29 32 + x19: .cfa -16 + ^ .ra: .cfa -24 + ^ x29: .cfa -32 + ^
STACK CFI 24ae4 .cfa: sp 32 +
STACK CFI 24aec .cfa: sp 0 +
STACK CFI 24af0 .cfa: x29 32 +
STACK CFI INIT 24f40 15c .cfa: sp 0 +
STACK CFI 24f44 .cfa: sp 240 +
STACK CFI 24f58 .cfa: x29 64 + x19: .cfa -8 + ^ x20: .cfa -16 + ^ x21: .cfa -24 + ^ x22: .cfa -32 + ^ x23: .cfa -40 + ^ x24: .cfa -48 + ^ .ra: .cfa -56 + ^ x29: .cfa -64 + ^
STACK CFI 25054 .cfa: sp 240 +
STACK CFI 25068 .cfa: sp 0 +
STACK CFI 2506c .cfa: x29 64 +
STACK CFI INIT 27538 1e8 .cfa: sp 0 +
STACK CFI 2753c .cfa: sp 256 +
STACK CFI 27554 .cfa: x29 80 + x19: .cfa -8 + ^ x20: .cfa -16 + ^ x21: .cfa -24 + ^ x22: .cfa -32 + ^ x23: .cfa -40 + ^ x24: .cfa -48 + ^ x25: .cfa -64 + ^ .ra: .cfa -72 + ^ x29: .cfa -80 + ^
STACK CFI 276b0 .cfa: sp 256 +
STACK CFI 276c8 .cfa: sp 0 +
STACK CFI 276cc .cfa: x29 80 +
STACK CFI INIT 27720 128 .cfa: sp 0 +
STACK CFI 27724 .cfa: sp 96 +
STACK CFI 27738 .cfa: x29 64 + x19: .cfa -8 + ^ x20: .cfa -16 + ^ x21: .cfa -24 + ^ x22: .cfa -32 + ^ x23: .cfa -40 + ^ x24: .cfa -48 + ^ .ra: .cfa -56 + ^ x29: .cfa -64 + ^
STACK CFI 277cc .cfa: sp 96 +
STACK CFI 277e0 .cfa: sp 0 +
STACK CFI 277e4 .cfa: x29 64 +
STACK CFI INIT 27944 1bc .cfa: sp 0 +
STACK CFI 27948 .cfa: sp 96 +
STACK CFI 27954 .cfa: x29 32 + x19: .cfa -8 + ^ x20: .cfa -16 + ^ .ra: .cfa -24 + ^ x29: .cfa -32 + ^
STACK CFI 27a38 .cfa: sp 96 +
STACK CFI 27a44 .cfa: sp 0 +
STACK CFI 27a48 .cfa: x29 32 +
STACK CFI INIT 27b00 15c .cfa: sp 0 +
STACK CFI 27b04 .cfa: sp 80 +
STACK CFI 27b18 .cfa: x29 64 + x19: .cfa -8 + ^ x20: .cfa -16 + ^ x21: .cfa -24 + ^ x22: .cfa -32 + ^ x23: .cfa -48 + ^ .ra: .cfa -56 + ^ x29: .cfa -64 + ^
STACK CFI 27bd0 .cfa: sp 80 +
STACK CFI 27be4 .cfa: sp 0 +
STACK CFI 27be8 .cfa: x29 64 +
STACK CFI INIT 27c5c 4f0 .cfa: sp 0 +
STACK CFI 27c60 .cfa: sp 336 +
STACK CFI 27c7c .cfa: x29 96 + x19: .cfa -8 + ^ x20: .cfa -16 + ^ x21: .cfa -24 + ^ x22: .cfa -32 + ^ x23: .cfa -40 + ^ x24: .cfa -48 + ^ x25: .cfa -56 + ^ x26: .cfa -64 + ^ x27: .cfa -72 + ^ x28: .cfa -80 + ^ .ra: .cfa -88 + ^ x29: .cfa -96 + ^
STACK CFI 280b8 .cfa: sp 336 +
STACK CFI 280d4 .cfa: sp 0 +
STACK CFI 280d8 .cfa: x29 96 +
STACK CFI INIT 2814c 388 .cfa: sp 0 +
STACK CFI 28150 .cfa: sp 96 +
STACK CFI 28168 .cfa: x29 96 + x19: .cfa -8 + ^ x20: .cfa -16 + ^ x21: .cfa -24 + ^ x22: .cfa -32 + ^ x23: .cfa -40 + ^ x24: .cfa -48 + ^ x25: .cfa -56 + ^ x26: .cfa -64 + ^ x27: .cfa -80 + ^ .ra: .cfa -88 + ^ x29: .cfa -96 + ^
STACK CFI 28220 .cfa: sp 96 +
STACK CFI 28238 .cfa: sp 0 +
STACK CFI 2823c .cfa: x29 96 +
STACK CFI 283f8 .cfa: sp 96 +
STACK CFI 28410 .cfa: sp 0 +
STACK CFI 28414 .cfa: x29 96 +
STACK CFI INIT 28964 37c .cfa: sp 0 +
STACK CFI 28968 .cfa: sp 240 +
STACK CFI 28980 .cfa: x29 80 + x19: .cfa -8 + ^ x20: .cfa -16 + ^ x21: .cfa -24 + ^ x22: .cfa -32 + ^ x23: .cfa -40 + ^ x24: .cfa -48 + ^ x25: .cfa -64 + ^ .ra: .cfa -72 + ^ x29: .cfa -80 + ^
STACK CFI 28bd4 .cfa: sp 240 +
STACK CFI 28bec .cfa: sp 0 +
STACK CFI 28bf0 .cfa: x29 80 +
STACK CFI INIT 28e00 27c .cfa: sp 0 +
STACK CFI 28e04 .cfa: sp 112 +
STACK CFI 28e18 .cfa: x29 64 + x19: .cfa -8 + ^ x20: .cfa -16 + ^ x21: .cfa -24 + ^ x22: .cfa -32 + ^ x23: .cfa -40 + ^ x24: .cfa -48 + ^ .ra: .cfa -56 + ^ x29: .cfa -64 + ^
STACK CFI 28fb8 .cfa: sp 112 +
STACK CFI 28fcc .cfa: sp 0 +
STACK CFI 28fd0 .cfa: x29 64 +
STACK CFI 29010 .cfa: sp 112 +
STACK CFI 29024 .cfa: sp 0 +
STACK CFI 29028 .cfa: x29 64 +
STACK CFI INIT 29138 7c .cfa: sp 0 +
STACK CFI 2913c .cfa: sp 32 +
STACK CFI 29144 .cfa: x29 32 + x19: .cfa -8 + ^ x20: .cfa -16 + ^ .ra: .cfa -24 + ^ x29: .cfa -32 + ^
STACK CFI 29180 .cfa: sp 32 +
STACK CFI 29188 .cfa: sp 0 +
STACK CFI 2918c .cfa: x29 32 +
STACK CFI 29194 .cfa: sp 32 +
STACK CFI 2919c .cfa: sp 0 +
STACK CFI 291a0 .cfa: x29 32 +
STACK CFI INIT 291b4 2b0 .cfa: sp 0 +
STACK CFI 291b8 .cfa: sp 176 +
STACK CFI 291cc .cfa: x29 64 + x19: .cfa -8 + ^ x20: .cfa -16 + ^ x21: .cfa -24 + ^ x22: .cfa -32 + ^ x23: .cfa -48 + ^ .ra: .cfa -56 + ^ x29: .cfa -64 + ^
STACK CFI 29360 .cfa: sp 176 +
STACK CFI 29374 .cfa: sp 0 +
STACK CFI 29378 .cfa: x29 64 +
STACK CFI INIT 29464 100 .cfa: sp 0 +
STACK CFI 29468 .cfa: sp 48 +
STACK CFI 29474 .cfa: x29 48 + x19: .cfa -8 + ^ x20: .cfa -16 + ^ x21: .cfa -24 + ^ x22: .cfa -32 + ^ .ra: .cfa -40 + ^ x29: .cfa -48 + ^
STACK CFI 29484 .cfa: sp 48 +
STACK CFI 29490 .cfa: sp 0 +
STACK CFI 29494 .cfa: x29 48 +
STACK CFI INIT 29608 dc .cfa: sp 0 +
STACK CFI 2960c .cfa: sp 80 +
STACK CFI 29618 .cfa: x29 32 + x19: .cfa -8 + ^ x20: .cfa -16 + ^ .ra: .cfa -24 + ^ x29: .cfa -32 + ^
STACK CFI 296a8 .cfa: sp 80 +
STACK CFI 296b4 .cfa: sp 0 +
STACK CFI 296b8 .cfa: x29 32 +
STACK CFI INIT 29714 230 .cfa: sp 0 +
STACK CFI 29718 .cfa: sp 272 +
STACK CFI 29730 .cfa: x29 80 + x19: .cfa -8 + ^ x20: .cfa -16 + ^ x21: .cfa -24 + ^ x22: .cfa -32 + ^ x23: .cfa -40 + ^ x24: .cfa -48 + ^ x25: .cfa -56 + ^ x28: .cfa -64 + ^ .ra: .cfa -72 + ^ x29: .cfa -80 + ^
STACK CFI 298c0 .cfa: sp 272 +
STACK CFI 298d8 .cfa: sp 0 +
STACK CFI 298dc .cfa: x29 80 +
STACK CFI INIT 299e8 8f0 .cfa: sp 0 +
STACK CFI 299ec .cfa: sp 224 +
STACK CFI 29a0c .cfa: x29 80 + x19: .cfa -8 + ^ x20: .cfa -16 + ^ x21: .cfa -24 + ^ x22: .cfa -32 + ^ x23: .cfa -40 + ^ x24: .cfa -48 + ^ x25: .cfa -56 + ^ x26: .cfa -64 + ^ .ra: .cfa -72 + ^ x29: .cfa -80 + ^ v8: .cfa -88 + ^ v9: .cfa -96 + ^ v10: .cfa -112 + ^
STACK CFI 2a238 .cfa: sp 224 +
STACK CFI 2a258 .cfa: sp 0 +
STACK CFI 2a25c .cfa: x29 80 +
STACK CFI INIT 2a2d8 14c .cfa: sp 0 +
STACK CFI 2a2dc .cfa: sp 208 +
STACK CFI 2a2e8 .cfa: x29 32 + x19: .cfa -8 + ^ x20: .cfa -16 + ^ .ra: .cfa -24 + ^ x29: .cfa -32 + ^
STACK CFI 2a390 .cfa: sp 208 +
STACK CFI 2a39c .cfa: sp 0 +
STACK CFI 2a3a0 .cfa: x29 32 +
STACK CFI INIT 2a424 140 .cfa: sp 0 +
STACK CFI 2a428 .cfa: sp 80 +
STACK CFI 2a438 .cfa: x29 48 + x19: .cfa -8 + ^ x20: .cfa -16 + ^ x21: .cfa -24 + ^ x22: .cfa -32 + ^ .ra: .cfa -40 + ^ x29: .cfa -48 + ^
STACK CFI 2a528 .cfa: sp 80 +
STACK CFI 2a538 .cfa: sp 0 +
STACK CFI 2a53c .cfa: x29 48 +
STACK CFI INIT 2a564 6c .cfa: sp 0 +
STACK CFI 2a568 .cfa: sp 32 +
STACK CFI 2a570 .cfa: x29 32 + x19: .cfa -16 + ^ .ra: .cfa -24 + ^ x29: .cfa -32 + ^
STACK CFI 2a5c0 .cfa: sp 32 +
STACK CFI 2a5c8 .cfa: sp 0 +
STACK CFI 2a5cc .cfa: x29 32 +
STACK CFI INIT 2a5d0 74 .cfa: sp 0 +
STACK CFI 2a5d4 .cfa: sp 32 +
STACK CFI 2a5dc .cfa: x29 32 + x19: .cfa -16 + ^ .ra: .cfa -24 + ^ x29: .cfa -32 + ^
STACK CFI 2a634 .cfa: sp 32 +
STACK CFI 2a63c .cfa: sp 0 +
STACK CFI 2a640 .cfa: x29 32 +
STACK CFI INIT 2a6e0 6c .cfa: sp 0 +
STACK CFI 2a6e4 .cfa: sp 32 +
STACK CFI 2a6ec .cfa: x29 32 + x19: .cfa -16 + ^ .ra: .cfa -24 + ^ x29: .cfa -32 + ^
STACK CFI 2a73c .cfa: sp 32 +
STACK CFI 2a744 .cfa: sp 0 +
STACK CFI 2a748 .cfa: x29 32 +
STACK CFI INIT 2a74c 74 .cfa: sp 0 +
STACK CFI 2a750 .cfa: sp 32 +
STACK CFI 2a758 .cfa: x29 32 + x19: .cfa -16 + ^ .ra: .cfa -24 + ^ x29: .cfa -32 + ^
STACK CFI 2a7b0 .cfa: sp 32 +
STACK CFI 2a7b8 .cfa: sp 0 +
STACK CFI 2a7bc .cfa: x29 32 +
STACK CFI INIT 2a7fc 6c .cfa: sp 0 +
STACK CFI 2a800 .cfa: sp 32 +
STACK CFI 2a808 .cfa: x29 32 + x19: .cfa -16 + ^ .ra: .cfa -24 + ^ x29: .cfa -32 + ^
STACK CFI 2a858 .cfa: sp 32 +
STACK CFI 2a860 .cfa: sp 0 +
STACK CFI 2a864 .cfa: x29 32 +
STACK CFI INIT 2ab74 524 .cfa: sp 0 +
STACK CFI 2ab78 .cfa: sp 160 +
STACK CFI 2ab94 .cfa: x29 96 + x19: .cfa -8 + ^ x20: .cfa -16 + ^ x21: .cfa -24 + ^ x22: .cfa -32 + ^ x23: .cfa -40 + ^ x24: .cfa -48 + ^ x25: .cfa -56 + ^ x26: .cfa -64 + ^ x27: .cfa -72 + ^ x28: .cfa -80 + ^ .ra: .cfa -88 + ^ x29: .cfa -96 + ^
STACK CFI 2af3c .cfa: sp 160 +
STACK CFI 2af58 .cfa: sp 0 +
STACK CFI 2af5c .cfa: x29 96 +
STACK CFI INIT 2b538 78 .cfa: sp 0 +
STACK CFI 2b53c .cfa: sp 32 +
STACK CFI 2b544 .cfa: x29 32 + x19: .cfa -16 + ^ .ra: .cfa -24 + ^ x29: .cfa -32 + ^
STACK CFI 2b5a0 .cfa: sp 32 +
STACK CFI 2b5a8 .cfa: sp 0 +
STACK CFI 2b5ac .cfa: x29 32 +
STACK CFI INIT 2b5b0 7c .cfa: sp 0 +
STACK CFI 2b5b4 .cfa: sp 32 +
STACK CFI 2b5bc .cfa: x29 32 + x19: .cfa -8 + ^ x20: .cfa -16 + ^ .ra: .cfa -24 + ^ x29: .cfa -32 + ^
STACK CFI 2b61c .cfa: sp 32 +
STACK CFI 2b624 .cfa: sp 0 +
STACK CFI 2b628 .cfa: x29 32 +
STACK CFI INIT 2b62c 80 .cfa: sp 0 +
STACK CFI 2b630 .cfa: sp 32 +
STACK CFI 2b638 .cfa: x29 32 + x19: .cfa -16 + ^ .ra: .cfa -24 + ^ x29: .cfa -32 + ^
STACK CFI 2b69c .cfa: sp 32 +
STACK CFI 2b6a4 .cfa: sp 0 +
STACK CFI 2b6a8 .cfa: x29 32 +
STACK CFI INIT 2b6ac 84 .cfa: sp 0 +
STACK CFI 2b6b0 .cfa: sp 32 +
STACK CFI 2b6b8 .cfa: x29 32 + x19: .cfa -8 + ^ x20: .cfa -16 + ^ .ra: .cfa -24 + ^ x29: .cfa -32 + ^
STACK CFI 2b720 .cfa: sp 32 +
STACK CFI 2b728 .cfa: sp 0 +
STACK CFI 2b72c .cfa: x29 32 +
STACK CFI INIT 2b7d8 dc .cfa: sp 0 +
STACK CFI 2b7dc .cfa: sp 48 +
STACK CFI 2b7e8 .cfa: x29 48 + x19: .cfa -8 + ^ x20: .cfa -16 + ^ x21: .cfa -32 + ^ .ra: .cfa -40 + ^ x29: .cfa -48 + ^
STACK CFI 2b868 .cfa: sp 48 +
STACK CFI 2b874 .cfa: sp 0 +
STACK CFI 2b878 .cfa: x29 48 +
STACK CFI 2b890 .cfa: sp 48 +
STACK CFI 2b89c .cfa: sp 0 +
STACK CFI 2b8a0 .cfa: x29 48 +
STACK CFI INIT 2bad0 540 .cfa: sp 0 +
STACK CFI 2bad4 .cfa: sp 256 +
STACK CFI 2baf0 .cfa: x29 96 + x19: .cfa -8 + ^ x20: .cfa -16 + ^ x21: .cfa -24 + ^ x22: .cfa -32 + ^ x23: .cfa -40 + ^ x24: .cfa -48 + ^ x25: .cfa -56 + ^ x26: .cfa -64 + ^ x27: .cfa -72 + ^ x28: .cfa -80 + ^ .ra: .cfa -88 + ^ x29: .cfa -96 + ^
STACK CFI 2be9c .cfa: sp 256 +
STACK CFI 2beb8 .cfa: sp 0 +
STACK CFI 2bebc .cfa: x29 96 +
STACK CFI INIT 2c02c 358 .cfa: sp 0 +
STACK CFI 2c030 .cfa: sp 176 +
STACK CFI 2c044 .cfa: x29 64 + x19: .cfa -8 + ^ x20: .cfa -16 + ^ x21: .cfa -24 + ^ x22: .cfa -32 + ^ x23: .cfa -48 + ^ .ra: .cfa -56 + ^ x29: .cfa -64 + ^
STACK CFI 2c274 .cfa: sp 176 +
STACK CFI 2c288 .cfa: sp 0 +
STACK CFI 2c28c .cfa: x29 64 +
STACK CFI INIT 2c3b4 15c .cfa: sp 0 +
STACK CFI 2c3b8 .cfa: sp 48 +
STACK CFI 2c3c4 .cfa: x29 48 + x19: .cfa -8 + ^ x20: .cfa -16 + ^ x21: .cfa -24 + ^ x22: .cfa -32 + ^ .ra: .cfa -40 + ^ x29: .cfa -48 + ^
STACK CFI 2c410 .cfa: sp 48 +
STACK CFI 2c41c .cfa: sp 0 +
STACK CFI 2c420 .cfa: x29 48 +
STACK CFI 2c424 .cfa: sp 48 +
STACK CFI 2c430 .cfa: sp 0 +
STACK CFI 2c434 .cfa: x29 48 +
STACK CFI INIT 2c598 e8 .cfa: sp 0 +
STACK CFI 2c59c .cfa: sp 64 +
STACK CFI 2c5a8 .cfa: x29 32 + x19: .cfa -16 + ^ .ra: .cfa -24 + ^ x29: .cfa -32 + ^
STACK CFI 2c604 .cfa: sp 64 +
STACK CFI 2c610 .cfa: sp 0 +
STACK CFI 2c614 .cfa: x29 32 +
STACK CFI INIT 2c680 100 .cfa: sp 0 +
STACK CFI 2c684 .cfa: sp 96 +
STACK CFI 2c694 .cfa: x29 48 + x19: .cfa -8 + ^ x20: .cfa -16 + ^ x21: .cfa -32 + ^ .ra: .cfa -40 + ^ x29: .cfa -48 + ^
STACK CFI 2c70c .cfa: sp 96 +
STACK CFI 2c71c .cfa: sp 0 +
STACK CFI 2c720 .cfa: x29 48 +
STACK CFI INIT 2c780 13c .cfa: sp 0 +
STACK CFI 2c784 .cfa: sp 112 +
STACK CFI 2c794 .cfa: x29 48 + x19: .cfa -8 + ^ x20: .cfa -16 + ^ x21: .cfa -24 + ^ x22: .cfa -32 + ^ .ra: .cfa -40 + ^ x29: .cfa -48 + ^
STACK CFI 2c7e8 .cfa: sp 112 +
STACK CFI 2c7f8 .cfa: sp 0 +
STACK CFI 2c7fc .cfa: x29 48 +
STACK CFI INIT 2c978 100 .cfa: sp 0 +
STACK CFI 2c97c .cfa: sp 48 +
STACK CFI 2c988 .cfa: x29 48 + x19: .cfa -8 + ^ x20: .cfa -16 + ^ x21: .cfa -24 + ^ x22: .cfa -32 + ^ .ra: .cfa -40 + ^ x29: .cfa -48 + ^
STACK CFI 2c998 .cfa: sp 48 +
STACK CFI 2c9a4 .cfa: sp 0 +
STACK CFI 2c9a8 .cfa: x29 48 +
STACK CFI INIT 2cadc 18c .cfa: sp 0 +
STACK CFI 2cae0 .cfa: sp 112 +
STACK CFI 2caf0 .cfa: x29 48 + x19: .cfa -8 + ^ x20: .cfa -16 + ^ x21: .cfa -32 + ^ .ra: .cfa -40 + ^ x29: .cfa -48 + ^
STACK CFI 2cb5c .cfa: sp 112 +
STACK CFI 2cb6c .cfa: sp 0 +
STACK CFI 2cb70 .cfa: x29 48 +
STACK CFI INIT 2cc68 16c .cfa: sp 0 +
STACK CFI 2cc6c .cfa: sp 112 +
STACK CFI 2cc7c .cfa: x29 48 + x19: .cfa -8 + ^ x20: .cfa -16 + ^ x21: .cfa -32 + ^ .ra: .cfa -40 + ^ x29: .cfa -48 + ^
STACK CFI 2ccc8 .cfa: sp 112 +
STACK CFI 2ccd8 .cfa: sp 0 +
STACK CFI 2ccdc .cfa: x29 48 +
STACK CFI INIT 2cdd4 28c .cfa: sp 0 +
STACK CFI 2cdd8 .cfa: sp 144 +
STACK CFI 2cdec .cfa: x29 64 + x19: .cfa -8 + ^ x20: .cfa -16 + ^ x21: .cfa -24 + ^ x22: .cfa -32 + ^ x23: .cfa -40 + ^ x24: .cfa -48 + ^ .ra: .cfa -56 + ^ x29: .cfa -64 + ^
STACK CFI 2cf08 .cfa: sp 144 +
STACK CFI 2cf1c .cfa: sp 0 +
STACK CFI 2cf20 .cfa: x29 64 +
STACK CFI INIT 2d084 190 .cfa: sp 0 +
STACK CFI 2d088 .cfa: sp 112 +
STACK CFI 2d098 .cfa: x29 48 + x19: .cfa -8 + ^ x20: .cfa -16 + ^ x21: .cfa -32 + ^ .ra: .cfa -40 + ^ x29: .cfa -48 + ^
STACK CFI 2d108 .cfa: sp 112 +
STACK CFI 2d118 .cfa: sp 0 +
STACK CFI 2d11c .cfa: x29 48 +
STACK CFI INIT 2d28c 1a0 .cfa: sp 0 +
STACK CFI 2d290 .cfa: sp 112 +
STACK CFI 2d2a0 .cfa: x29 48 + x19: .cfa -8 + ^ x20: .cfa -16 + ^ x21: .cfa -32 + ^ .ra: .cfa -40 + ^ x29: .cfa -48 + ^
STACK CFI 2d320 .cfa: sp 112 +
STACK CFI 2d330 .cfa: sp 0 +
STACK CFI 2d334 .cfa: x29 48 +
STACK CFI INIT 2d42c 198 .cfa: sp 0 +
STACK CFI 2d430 .cfa: sp 112 +
STACK CFI 2d440 .cfa: x29 48 + x19: .cfa -8 + ^ x20: .cfa -16 + ^ x21: .cfa -32 + ^ .ra: .cfa -40 + ^ x29: .cfa -48 + ^
STACK CFI 2d4b8 .cfa: sp 112 +
STACK CFI 2d4c8 .cfa: sp 0 +
STACK CFI 2d4cc .cfa: x29 48 +
STACK CFI INIT 2d5c4 2ec .cfa: sp 0 +
STACK CFI 2d5c8 .cfa: sp 144 +
STACK CFI 2d5dc .cfa: x29 64 + x19: .cfa -8 + ^ x20: .cfa -16 + ^ x21: .cfa -24 + ^ x22: .cfa -32 + ^ x23: .cfa -40 + ^ x24: .cfa -48 + ^ .ra: .cfa -56 + ^ x29: .cfa -64 + ^
STACK CFI 2d758 .cfa: sp 144 +
STACK CFI 2d76c .cfa: sp 0 +
STACK CFI 2d770 .cfa: x29 64 +
STACK CFI INIT 2d8b0 2d0 .cfa: sp 0 +
STACK CFI 2d8b4 .cfa: sp 144 +
STACK CFI 2d8c8 .cfa: x29 64 + x19: .cfa -8 + ^ x20: .cfa -16 + ^ x21: .cfa -24 + ^ x22: .cfa -32 + ^ x23: .cfa -40 + ^ x24: .cfa -48 + ^ .ra: .cfa -56 + ^ x29: .cfa -64 + ^
STACK CFI 2da28 .cfa: sp 144 +
STACK CFI 2da3c .cfa: sp 0 +
STACK CFI 2da40 .cfa: x29 64 +
STACK CFI INIT 2dc28 74 .cfa: sp 0 +
STACK CFI 2dc2c .cfa: sp 32 +
STACK CFI 2dc34 .cfa: x29 32 + x19: .cfa -16 + ^ .ra: .cfa -24 + ^ x29: .cfa -32 + ^
STACK CFI 2dc8c .cfa: sp 32 +
STACK CFI 2dc94 .cfa: sp 0 +
STACK CFI 2dc98 .cfa: x29 32 +
STACK CFI INIT 2dc9c 74 .cfa: sp 0 +
STACK CFI 2dca0 .cfa: sp 32 +
STACK CFI 2dca8 .cfa: x29 32 + x19: .cfa -16 + ^ .ra: .cfa -24 + ^ x29: .cfa -32 + ^
STACK CFI 2dd00 .cfa: sp 32 +
STACK CFI 2dd08 .cfa: sp 0 +
STACK CFI 2dd0c .cfa: x29 32 +
STACK CFI INIT 2dd10 7c .cfa: sp 0 +
STACK CFI 2dd14 .cfa: sp 32 +
STACK CFI 2dd1c .cfa: x29 32 + x19: .cfa -16 + ^ .ra: .cfa -24 + ^ x29: .cfa -32 + ^
STACK CFI 2dd7c .cfa: sp 32 +
STACK CFI 2dd84 .cfa: sp 0 +
STACK CFI 2dd88 .cfa: x29 32 +
STACK CFI INIT 2dd8c 7c .cfa: sp 0 +
STACK CFI 2dd90 .cfa: sp 32 +
STACK CFI 2dd98 .cfa: x29 32 + x19: .cfa -16 + ^ .ra: .cfa -24 + ^ x29: .cfa -32 + ^
STACK CFI 2ddf8 .cfa: sp 32 +
STACK CFI 2de00 .cfa: sp 0 +
STACK CFI 2de04 .cfa: x29 32 +
STACK CFI INIT 2dea4 1a8 .cfa: sp 0 +
STACK CFI 2dea8 .cfa: sp 160 +
STACK CFI 2dec4 .cfa: x29 72 + x19: .cfa -8 + ^ x20: .cfa -16 + ^ x21: .cfa -24 + ^ x22: .cfa -32 + ^ x23: .cfa -40 + ^ x24: .cfa -48 + ^ x25: .cfa -56 + ^ .ra: .cfa -64 + ^ x29: .cfa -72 + ^ v8: .cfa -80 + ^
STACK CFI 2df48 .cfa: sp 160 +
STACK CFI 2df64 .cfa: sp 0 +
STACK CFI 2df68 .cfa: x29 72 +
STACK CFI INIT 2e04c 4a8 .cfa: sp 0 +
STACK CFI 2e050 .cfa: sp 96 +
STACK CFI 2e068 .cfa: x29 80 + x19: .cfa -8 + ^ x20: .cfa -16 + ^ x21: .cfa -24 + ^ x22: .cfa -32 + ^ x23: .cfa -40 + ^ x24: .cfa -48 + ^ x25: .cfa -64 + ^ .ra: .cfa -72 + ^ x29: .cfa -80 + ^
STACK CFI 2e368 .cfa: sp 96 +
STACK CFI 2e380 .cfa: sp 0 +
STACK CFI 2e384 .cfa: x29 80 +
STACK CFI 2e470 .cfa: sp 96 +
STACK CFI 2e488 .cfa: sp 0 +
STACK CFI 2e48c .cfa: x29 80 +
STACK CFI INIT 2e4f4 ac .cfa: sp 0 +
STACK CFI 2e4f8 .cfa: sp 64 +
STACK CFI 2e508 .cfa: x29 48 + x19: .cfa -8 + ^ x20: .cfa -16 + ^ x21: .cfa -32 + ^ .ra: .cfa -40 + ^ x29: .cfa -48 + ^
STACK CFI 2e564 .cfa: sp 64 +
STACK CFI 2e574 .cfa: sp 0 +
STACK CFI 2e578 .cfa: x29 48 +
STACK CFI INIT 2e5a0 254 .cfa: sp 0 +
STACK CFI 2e5a4 .cfa: sp 144 +
STACK CFI 2e5b8 .cfa: x29 64 + x19: .cfa -8 + ^ x20: .cfa -16 + ^ x21: .cfa -24 + ^ x22: .cfa -32 + ^ x23: .cfa -40 + ^ x24: .cfa -48 + ^ .ra: .cfa -56 + ^ x29: .cfa -64 + ^
STACK CFI 2e69c .cfa: sp 144 +
STACK CFI 2e6b0 .cfa: sp 0 +
STACK CFI 2e6b4 .cfa: x29 64 +
STACK CFI INIT 2e828 2dc .cfa: sp 0 +
STACK CFI 2e82c .cfa: sp 144 +
STACK CFI 2e840 .cfa: x29 64 + x19: .cfa -8 + ^ x20: .cfa -16 + ^ x21: .cfa -24 + ^ x22: .cfa -32 + ^ x23: .cfa -40 + ^ x24: .cfa -48 + ^ .ra: .cfa -56 + ^ x29: .cfa -64 + ^
STACK CFI 2e9ac .cfa: sp 144 +
STACK CFI 2e9c0 .cfa: sp 0 +
STACK CFI 2e9c4 .cfa: x29 64 +
STACK CFI INIT 2eb88 35c .cfa: sp 0 +
STACK CFI 2eb8c .cfa: sp 64 +
STACK CFI 2eb9c .cfa: x29 64 + x19: .cfa -8 + ^ x20: .cfa -16 + ^ x21: .cfa -24 + ^ x22: .cfa -32 + ^ x23: .cfa -40 + ^ x24: .cfa -48 + ^ .ra: .cfa -56 + ^ x29: .cfa -64 + ^
STACK CFI 2ec78 .cfa: sp 64 +
STACK CFI 2ec88 .cfa: sp 0 +
STACK CFI 2ec8c .cfa: x29 64 +
STACK CFI 2eebc .cfa: sp 64 +
STACK CFI 2eecc .cfa: sp 0 +
STACK CFI 2eed0 .cfa: x29 64 +
STACK CFI INIT 2f318 50 .cfa: sp 0 +
STACK CFI 2f31c .cfa: sp 32 +
STACK CFI 2f324 .cfa: x29 32 + x19: .cfa -8 + ^ x20: .cfa -16 + ^ .ra: .cfa -24 + ^ x29: .cfa -32 + ^
STACK CFI INIT 2f398 18c .cfa: sp 0 +
STACK CFI 2f39c .cfa: sp 208 +
STACK CFI 2f3ac .cfa: x29 48 + x19: .cfa -8 + ^ x20: .cfa -16 + ^ x21: .cfa -24 + ^ x22: .cfa -32 + ^ .ra: .cfa -40 + ^ x29: .cfa -48 + ^
STACK CFI 2f4ac .cfa: sp 208 +
STACK CFI 2f4bc .cfa: sp 0 +
STACK CFI 2f4c0 .cfa: x29 48 +
STACK CFI INIT 2f524 198 .cfa: sp 0 +
STACK CFI 2f528 .cfa: sp 96 +
STACK CFI 2f53c .cfa: x29 64 + x19: .cfa -8 + ^ x20: .cfa -16 + ^ x21: .cfa -24 + ^ x22: .cfa -32 + ^ x23: .cfa -48 + ^ .ra: .cfa -56 + ^ x29: .cfa -64 + ^
STACK CFI 2f61c .cfa: sp 96 +
STACK CFI 2f630 .cfa: sp 0 +
STACK CFI 2f634 .cfa: x29 64 +
STACK CFI INIT 2f738 308 .cfa: sp 0 +
STACK CFI 2f73c .cfa: sp 160 +
STACK CFI 2f750 .cfa: x29 64 + x19: .cfa -8 + ^ x20: .cfa -16 + ^ x21: .cfa -24 + ^ x22: .cfa -32 + ^ x23: .cfa -40 + ^ x24: .cfa -48 + ^ .ra: .cfa -56 + ^ x29: .cfa -64 + ^
STACK CFI 2f964 .cfa: sp 160 +
STACK CFI 2f978 .cfa: sp 0 +
STACK CFI 2f97c .cfa: x29 64 +
STACK CFI INIT 2fb2c 124 .cfa: sp 0 +
STACK CFI 2fb30 .cfa: sp 80 +
STACK CFI 2fb44 .cfa: x29 80 + x19: .cfa -8 + ^ x20: .cfa -16 + ^ x21: .cfa -24 + ^ x22: .cfa -32 + ^ x23: .cfa -40 + ^ x24: .cfa -48 + ^ x28: .cfa -64 + ^ .ra: .cfa -72 + ^ x29: .cfa -80 + ^
STACK CFI 2fc04 .cfa: sp 80 +
STACK CFI 2fc18 .cfa: sp 0 +
STACK CFI 2fc1c .cfa: x29 80 +
STACK CFI INIT 30e28 118 .cfa: sp 0 +
STACK CFI 30e2c .cfa: sp 80 +
STACK CFI 30e3c .cfa: x29 48 + x19: .cfa -8 + ^ x20: .cfa -16 + ^ x21: .cfa -32 + ^ .ra: .cfa -40 + ^ x29: .cfa -48 + ^
STACK CFI 30eec .cfa: sp 80 +
STACK CFI 30efc .cfa: sp 0 +
STACK CFI 30f00 .cfa: x29 48 +
STACK CFI INIT 335f0 68c .cfa: sp 0 +
STACK CFI 335f4 .cfa: sp 288 +
STACK CFI 33610 .cfa: x29 96 + x19: .cfa -8 + ^ x20: .cfa -16 + ^ x21: .cfa -24 + ^ x22: .cfa -32 + ^ x23: .cfa -40 + ^ x24: .cfa -48 + ^ x25: .cfa -56 + ^ x26: .cfa -64 + ^ x27: .cfa -72 + ^ x28: .cfa -80 + ^ .ra: .cfa -88 + ^ x29: .cfa -96 + ^
STACK CFI 33b78 .cfa: sp 288 +
STACK CFI 33b94 .cfa: sp 0 +
STACK CFI 33b98 .cfa: x29 96 +
STACK CFI INIT 33dd0 1c0 .cfa: sp 0 +
STACK CFI 33dd4 .cfa: sp 144 +
STACK CFI 33de8 .cfa: x29 64 + x19: .cfa -8 + ^ x20: .cfa -16 + ^ x21: .cfa -24 + ^ x22: .cfa -32 + ^ x23: .cfa -40 + ^ x24: .cfa -48 + ^ .ra: .cfa -56 + ^ x29: .cfa -64 + ^
STACK CFI 33edc .cfa: sp 144 +
STACK CFI 33ef0 .cfa: sp 0 +
STACK CFI 33ef4 .cfa: x29 64 +
STACK CFI INIT 34480 2c4 .cfa: sp 0 +
STACK CFI 34484 .cfa: sp 80 +
STACK CFI 34498 .cfa: x29 80 + x19: .cfa -8 + ^ x20: .cfa -16 + ^ x21: .cfa -24 + ^ x22: .cfa -32 + ^ x23: .cfa -40 + ^ x24: .cfa -48 + ^ x28: .cfa -64 + ^ .ra: .cfa -72 + ^ x29: .cfa -80 + ^
STACK CFI 346f8 .cfa: sp 80 +
STACK CFI 3470c .cfa: sp 0 +
STACK CFI 34710 .cfa: x29 80 +
STACK CFI INIT 34744 3dc .cfa: sp 0 +
STACK CFI 34748 .cfa: sp 96 +
STACK CFI 34760 .cfa: x29 96 + x19: .cfa -8 + ^ x20: .cfa -16 + ^ x21: .cfa -24 + ^ x22: .cfa -32 + ^ x23: .cfa -40 + ^ x24: .cfa -48 + ^ x25: .cfa -56 + ^ x26: .cfa -64 + ^ x27: .cfa -72 + ^ x28: .cfa -80 + ^ .ra: .cfa -88 + ^ x29: .cfa -96 + ^
STACK CFI 34ac0 .cfa: sp 96 +
STACK CFI 34ad8 .cfa: sp 0 +
STACK CFI 34adc .cfa: x29 96 +
STACK CFI INIT 34d9c 144 .cfa: sp 0 +
STACK CFI 34da0 .cfa: sp 64 +
STACK CFI 34db0 .cfa: x29 64 + x19: .cfa -8 + ^ x20: .cfa -16 + ^ x21: .cfa -24 + ^ x22: .cfa -32 + ^ x23: .cfa -40 + ^ x28: .cfa -48 + ^ .ra: .cfa -56 + ^ x29: .cfa -64 + ^
STACK CFI 34e98 .cfa: sp 64 +
STACK CFI 34ea8 .cfa: sp 0 +
STACK CFI 34eac .cfa: x29 64 +
STACK CFI INIT 35104 698 .cfa: sp 0 +
STACK CFI 35108 .cfa: sp 288 +
STACK CFI 35124 .cfa: x29 96 + x19: .cfa -8 + ^ x20: .cfa -16 + ^ x21: .cfa -24 + ^ x22: .cfa -32 + ^ x23: .cfa -40 + ^ x24: .cfa -48 + ^ x25: .cfa -56 + ^ x26: .cfa -64 + ^ x27: .cfa -72 + ^ x28: .cfa -80 + ^ .ra: .cfa -88 + ^ x29: .cfa -96 + ^
STACK CFI 35698 .cfa: sp 288 +
STACK CFI 356b4 .cfa: sp 0 +
STACK CFI 356b8 .cfa: x29 96 +
STACK CFI INIT 35bdc 2dc .cfa: sp 0 +
STACK CFI 35be0 .cfa: sp 80 +
STACK CFI 35bf4 .cfa: x29 80 + x19: .cfa -8 + ^ x20: .cfa -16 + ^ x21: .cfa -24 + ^ x22: .cfa -32 + ^ x23: .cfa -40 + ^ x24: .cfa -48 + ^ x28: .cfa -64 + ^ .ra: .cfa -72 + ^ x29: .cfa -80 + ^
STACK CFI 35e6c .cfa: sp 80 +
STACK CFI 35e80 .cfa: sp 0 +
STACK CFI 35e84 .cfa: x29 80 +
STACK CFI INIT 36024 144 .cfa: sp 0 +
STACK CFI 36028 .cfa: sp 64 +
STACK CFI 36038 .cfa: x29 64 + x19: .cfa -8 + ^ x20: .cfa -16 + ^ x21: .cfa -24 + ^ x22: .cfa -32 + ^ x23: .cfa -40 + ^ x28: .cfa -48 + ^ .ra: .cfa -56 + ^ x29: .cfa -64 + ^
STACK CFI 36120 .cfa: sp 64 +
STACK CFI 36130 .cfa: sp 0 +
STACK CFI 36134 .cfa: x29 64 +
STACK CFI INIT 36398 43c .cfa: sp 0 +
STACK CFI 3639c .cfa: sp 80 +
STACK CFI 363b0 .cfa: x29 80 + x19: .cfa -8 + ^ x20: .cfa -16 + ^ x21: .cfa -24 + ^ x22: .cfa -32 + ^ x23: .cfa -40 + ^ x24: .cfa -48 + ^ x25: .cfa -56 + ^ x28: .cfa -64 + ^ .ra: .cfa -72 + ^ x29: .cfa -80 + ^
STACK CFI 36748 .cfa: sp 80 +
STACK CFI 3675c .cfa: sp 0 +
STACK CFI 36760 .cfa: x29 80 +
STACK CFI INIT 37238 1454 .cfa: sp 0 +
STACK CFI 3723c .cfa: sp 96 +
STACK CFI 37254 .cfa: x29 96 + x19: .cfa -8 + ^ x20: .cfa -16 + ^ x21: .cfa -24 + ^ x22: .cfa -32 + ^ x23: .cfa -40 + ^ x24: .cfa -48 + ^ x25: .cfa -56 + ^ x26: .cfa -64 + ^ x27: .cfa -72 + ^ x28: .cfa -80 + ^ .ra: .cfa -88 + ^ x29: .cfa -96 + ^
STACK CFI 383bc .cfa: sp 96 +
STACK CFI 383d4 .cfa: sp 0 +
STACK CFI 383d8 .cfa: x29 96 +
STACK CFI INIT 38db0 5b0 .cfa: sp 0 +
STACK CFI 38db4 .cfa: sp 304 +
STACK CFI 38dd0 .cfa: x29 96 + x19: .cfa -8 + ^ x20: .cfa -16 + ^ x21: .cfa -24 + ^ x22: .cfa -32 + ^ x23: .cfa -40 + ^ x24: .cfa -48 + ^ x25: .cfa -56 + ^ x26: .cfa -64 + ^ x27: .cfa -72 + ^ x28: .cfa -80 + ^ .ra: .cfa -88 + ^ x29: .cfa -96 + ^
STACK CFI 392e4 .cfa: sp 304 +
STACK CFI 39300 .cfa: sp 0 +
STACK CFI 39304 .cfa: x29 96 +
STACK CFI INIT 39360 674 .cfa: sp 0 +
STACK CFI 39364 .cfa: sp 288 +
STACK CFI 39380 .cfa: x29 96 + x19: .cfa -8 + ^ x20: .cfa -16 + ^ x21: .cfa -24 + ^ x22: .cfa -32 + ^ x23: .cfa -40 + ^ x24: .cfa -48 + ^ x25: .cfa -56 + ^ x26: .cfa -64 + ^ x27: .cfa -72 + ^ x28: .cfa -80 + ^ .ra: .cfa -88 + ^ x29: .cfa -96 + ^
STACK CFI 398d0 .cfa: sp 288 +
STACK CFI 398ec .cfa: sp 0 +
STACK CFI 398f0 .cfa: x29 96 +
STACK CFI INIT 39df8 424 .cfa: sp 0 +
STACK CFI 39dfc .cfa: sp 96 +
STACK CFI 39e14 .cfa: x29 96 + x19: .cfa -8 + ^ x20: .cfa -16 + ^ x21: .cfa -24 + ^ x22: .cfa -32 + ^ x23: .cfa -40 + ^ x24: .cfa -48 + ^ x25: .cfa -56 + ^ x26: .cfa -64 + ^ x28: .cfa -80 + ^ .ra: .cfa -88 + ^ x29: .cfa -96 + ^
STACK CFI 3a1c8 .cfa: sp 96 +
STACK CFI 3a1e0 .cfa: sp 0 +
STACK CFI 3a1e4 .cfa: x29 96 +
STACK CFI INIT 3a388 228 .cfa: sp 0 +
STACK CFI 3a38c .cfa: sp 96 +
STACK CFI 3a3a4 .cfa: x29 96 + x19: .cfa -8 + ^ x20: .cfa -16 + ^ x21: .cfa -24 + ^ x22: .cfa -32 + ^ x23: .cfa -40 + ^ x24: .cfa -48 + ^ x25: .cfa -56 + ^ x26: .cfa -64 + ^ x27: .cfa -72 + ^ x28: .cfa -80 + ^ .ra: .cfa -88 + ^ x29: .cfa -96 + ^
STACK CFI 3a52c .cfa: sp 96 +
STACK CFI 3a544 .cfa: sp 0 +
STACK CFI 3a548 .cfa: x29 96 +
STACK CFI 3a560 .cfa: sp 96 +
STACK CFI 3a578 .cfa: sp 0 +
STACK CFI 3a57c .cfa: x29 96 +
STACK CFI INIT 3def8 3ec .cfa: sp 0 +
STACK CFI 3defc .cfa: sp 80 +
STACK CFI 3df14 .cfa: x29 72 + x19: .cfa -8 + ^ x20: .cfa -16 + ^ x21: .cfa -24 + ^ x22: .cfa -32 + ^ x23: .cfa -40 + ^ x24: .cfa -48 + ^ x28: .cfa -56 + ^ .ra: .cfa -64 + ^ x29: .cfa -72 + ^ v8: .cfa -80 + ^
STACK CFI 3e254 .cfa: sp 80 +
STACK CFI 3e26c .cfa: sp 0 +
STACK CFI 3e270 .cfa: x29 72 +
STACK CFI INIT 3e84c 7ec .cfa: sp 0 +
STACK CFI 3e850 .cfa: sp 144 +
STACK CFI 3e868 .cfa: x29 80 + x19: .cfa -8 + ^ x20: .cfa -16 + ^ x21: .cfa -24 + ^ x22: .cfa -32 + ^ x23: .cfa -40 + ^ x24: .cfa -48 + ^ x25: .cfa -64 + ^ .ra: .cfa -72 + ^ x29: .cfa -80 + ^
STACK CFI 3ef90 .cfa: sp 144 +
STACK CFI 3efa8 .cfa: sp 0 +
STACK CFI 3efac .cfa: x29 80 +
STACK CFI INIT 3f20c 3e8 .cfa: sp 0 +
STACK CFI 3f210 .cfa: sp 80 +
STACK CFI 3f228 .cfa: x29 72 + x19: .cfa -8 + ^ x20: .cfa -16 + ^ x21: .cfa -24 + ^ x22: .cfa -32 + ^ x23: .cfa -40 + ^ x24: .cfa -48 + ^ x28: .cfa -56 + ^ .ra: .cfa -64 + ^ x29: .cfa -72 + ^ v8: .cfa -80 + ^
STACK CFI 3f564 .cfa: sp 80 +
STACK CFI 3f57c .cfa: sp 0 +
STACK CFI 3f580 .cfa: x29 72 +
STACK CFI INIT 3f5f4 2dc .cfa: sp 0 +
STACK CFI 3f5f8 .cfa: sp 224 +
STACK CFI 3f614 .cfa: x29 96 + x19: .cfa -8 + ^ x20: .cfa -16 + ^ x21: .cfa -24 + ^ x22: .cfa -32 + ^ x23: .cfa -40 + ^ x24: .cfa -48 + ^ x25: .cfa -56 + ^ x26: .cfa -64 + ^ x27: .cfa -80 + ^ .ra: .cfa -88 + ^ x29: .cfa -96 + ^
STACK CFI 3f810 .cfa: sp 224 +
STACK CFI 3f82c .cfa: sp 0 +
STACK CFI 3f830 .cfa: x29 96 +
STACK CFI INIT 3f8d0 2b8 .cfa: sp 0 +
STACK CFI 3f8d4 .cfa: sp 224 +
STACK CFI 3f8f0 .cfa: x29 96 + x19: .cfa -8 + ^ x20: .cfa -16 + ^ x21: .cfa -24 + ^ x22: .cfa -32 + ^ x23: .cfa -40 + ^ x24: .cfa -48 + ^ x25: .cfa -56 + ^ x26: .cfa -64 + ^ x27: .cfa -80 + ^ .ra: .cfa -88 + ^ x29: .cfa -96 + ^
STACK CFI 3fac8 .cfa: sp 224 +
STACK CFI 3fae4 .cfa: sp 0 +
STACK CFI 3fae8 .cfa: x29 96 +
STACK CFI INIT 3fb88 2dc .cfa: sp 0 +
STACK CFI 3fb8c .cfa: sp 224 +
STACK CFI 3fba8 .cfa: x29 96 + x19: .cfa -8 + ^ x20: .cfa -16 + ^ x21: .cfa -24 + ^ x22: .cfa -32 + ^ x23: .cfa -40 + ^ x24: .cfa -48 + ^ x25: .cfa -56 + ^ x26: .cfa -64 + ^ x27: .cfa -80 + ^ .ra: .cfa -88 + ^ x29: .cfa -96 + ^
STACK CFI 3fda4 .cfa: sp 224 +
STACK CFI 3fdc0 .cfa: sp 0 +
STACK CFI 3fdc4 .cfa: x29 96 +
STACK CFI INIT 3fe64 2b8 .cfa: sp 0 +
STACK CFI 3fe68 .cfa: sp 224 +
STACK CFI 3fe84 .cfa: x29 96 + x19: .cfa -8 + ^ x20: .cfa -16 + ^ x21: .cfa -24 + ^ x22: .cfa -32 + ^ x23: .cfa -40 + ^ x24: .cfa -48 + ^ x25: .cfa -56 + ^ x26: .cfa -64 + ^ x27: .cfa -80 + ^ .ra: .cfa -88 + ^ x29: .cfa -96 + ^
STACK CFI 4005c .cfa: sp 224 +
STACK CFI 40078 .cfa: sp 0 +
STACK CFI 4007c .cfa: x29 96 +
STACK CFI INIT 4011c 2e8 .cfa: sp 0 +
STACK CFI 40120 .cfa: sp 224 +
STACK CFI 4013c .cfa: x29 96 + x19: .cfa -8 + ^ x20: .cfa -16 + ^ x21: .cfa -24 + ^ x22: .cfa -32 + ^ x23: .cfa -40 + ^ x24: .cfa -48 + ^ x25: .cfa -56 + ^ x26: .cfa -64 + ^ x27: .cfa -72 + ^ x28: .cfa -80 + ^ .ra: .cfa -88 + ^ x29: .cfa -96 + ^
STACK CFI 40344 .cfa: sp 224 +
STACK CFI 40360 .cfa: sp 0 +
STACK CFI 40364 .cfa: x29 96 +
STACK CFI INIT 40404 2c0 .cfa: sp 0 +
STACK CFI 40408 .cfa: sp 224 +
STACK CFI 40424 .cfa: x29 96 + x19: .cfa -8 + ^ x20: .cfa -16 + ^ x21: .cfa -24 + ^ x22: .cfa -32 + ^ x23: .cfa -40 + ^ x24: .cfa -48 + ^ x25: .cfa -56 + ^ x26: .cfa -64 + ^ x27: .cfa -72 + ^ x28: .cfa -80 + ^ .ra: .cfa -88 + ^ x29: .cfa -96 + ^
STACK CFI 40604 .cfa: sp 224 +
STACK CFI 40620 .cfa: sp 0 +
STACK CFI 40624 .cfa: x29 96 +
