MODULE Linux arm64 C1B55385D10E81739879CBAD124A5BF70 gdutilsdevs.gdutils.android64.so
INFO CODE_ID 8553B5C10ED173819879CBAD124A5BF758AFC90A
INFO GENERATOR mozilla/dump_syms 2.2.2
PUBLIC 84320 0 __on_dlclose
PUBLIC 84330 0 __emutls_unregister_key
PUBLIC 84338 0 __on_dlclose_late
PUBLIC 84340 0 __atexit_handler_wrapper
PUBLIC 84354 0 atexit
PUBLIC 84370 0 pthread_atfork
PUBLIC 84380 0 BadApple::create()
PUBLIC 84448 0 BadApple::init()
PUBLIC 84480 0 BadApple::keyBackClicked()
PUBLIC 844ac 0 {virtual override thunk({offset(-336)}, BadApple::keyBackClicked())}
PUBLIC 844dc 0 cocos2d::CCCopying::copyWithZone(cocos2d::CCZone*)
PUBLIC 844e4 0 BadApple::~BadApple()
PUBLIC 84508 0 {virtual override thunk({offset(-320)}, BadApple::~BadApple())}
PUBLIC 84510 0 {virtual override thunk({offset(-320)}, BadApple::~BadApple())}
PUBLIC 84538 0 cocos2d::CCKeyboardDelegate::keyUp(cocos2d::enumKeyCodes)
PUBLIC 8453c 0 cocos2d::CCMouseDelegate::rightKeyDown()
PUBLIC 84540 0 cocos2d::CCMouseDelegate::rightKeyUp()
PUBLIC 84544 0 cocos2d::CCMouseDelegate::scrollWheel(float, float)
PUBLIC 84548 0 BrownAlertDelegate::init(float, float, char const*, char const*)
PUBLIC 847e4 0 BrownAlertDelegate::keyDown(cocos2d::enumKeyCodes)
PUBLIC 8480c 0 {virtual override thunk({offset(-344)}, BrownAlertDelegate::keyDown(cocos2d::enumKeyCodes))}
PUBLIC 84838 0 BrownAlertDelegate::onClose(cocos2d::CCObject*)
PUBLIC 84874 0 cocos2d::CCLayerRGBA::setOpacityModifyRGB(bool)
PUBLIC 84878 0 cocos2d::CCLayerRGBA::isOpacityModifyRGB()
PUBLIC 84880 0 {virtual override thunk({offset(-408)}, cocos2d::CCLayerRGBA::setOpacityModifyRGB(bool))}
PUBLIC 84884 0 {virtual override thunk({offset(-408)}, cocos2d::CCLayerRGBA::isOpacityModifyRGB())}
PUBLIC 8488c 0 CreditsBetaMenu::create()
PUBLIC 84994 0 CreditsBetaMenu::setup()
PUBLIC 84cac 0 CreditsBetaMenu::nextPage(cocos2d::CCObject*)
PUBLIC 84d54 0 CreditsBetaMenu::prevPage(cocos2d::CCObject*)
PUBLIC 84df4 0 CreditsBetaMenu::goToURL(cocos2d::CCObject*)
PUBLIC 84ee4 0 CreditsBetaMenu::getPage(int)
PUBLIC 8792c 0 CreditsBetaMenu::~CreditsBetaMenu()
PUBLIC 87950 0 {virtual override thunk({offset(-320)}, CreditsBetaMenu::~CreditsBetaMenu())}
PUBLIC 87958 0 {virtual override thunk({offset(-320)}, CreditsBetaMenu::~CreditsBetaMenu())}
PUBLIC 87980 0 std::__ndk1::basic_string<char, std::__ndk1::char_traits<char>, std::__ndk1::allocator<char> >::__throw_length_error[abi:v170000]() const
PUBLIC 87994 0 std::__ndk1::__throw_length_error[abi:v170000](char const*)
PUBLIC 879e4 0 std::length_error::length_error[abi:v170000](char const*)
PUBLIC 87a14 0 CreditsMenu::onFireeBtn(cocos2d::CCObject*)
PUBLIC 87ac4 0 CreditsMenu::onJoucaBtn(cocos2d::CCObject*)
PUBLIC 87b7c 0 CreditsMenu::onMaverickBtn(cocos2d::CCObject*)
PUBLIC 87c3c 0 CreditsMenu::setup()
PUBLIC 88130 0 CreditsMenu::create()
PUBLIC 8822c 0 CreditsMenu::~CreditsMenu()
PUBLIC 88250 0 {virtual override thunk({offset(-320)}, CreditsMenu::~CreditsMenu())}
PUBLIC 88258 0 {virtual override thunk({offset(-320)}, CreditsMenu::~CreditsMenu())}
PUBLIC 88280 0 SettingSectionValue::createNode(float)
PUBLIC 88324 0 SettingTestValue::createNode(float)
PUBLIC 883c8 0 SettingAppValue::createNode(float)
PUBLIC 883cc 0 SettingAppNode::create(SettingAppValue*, float)
PUBLIC 88520 0 SettingPosValue::createNode(float)
PUBLIC 885c4 0 SettingCreditsValue::createNode(float)
PUBLIC 88668 0 SettingAppNode::onPickFile(cocos2d::CCObject*)
PUBLIC 88714 0 SettingTestNode::onTestBtn(cocos2d::CCObject*)
PUBLIC 8ea54 0 std::__ndk1::shared_ptr<sio::message>::~shared_ptr[abi:v170000]()
PUBLIC 8eaa4 0 SettingTestValue::~SettingTestValue()
PUBLIC 8eb2c 0 SettingTestValue::~SettingTestValue()
PUBLIC 8ebc0 0 SettingTestValue::load(matjson::Value const&)
PUBLIC 8ebc8 0 SettingTestValue::save(matjson::Value&) const
PUBLIC 8ebd0 0 SettingSectionValue::~SettingSectionValue()
PUBLIC 8ec58 0 SettingSectionValue::~SettingSectionValue()
PUBLIC 8ecec 0 SettingSectionValue::load(matjson::Value const&)
PUBLIC 8ecf4 0 SettingSectionValue::save(matjson::Value&) const
PUBLIC 8ecfc 0 geode::SettingValue::~SettingValue()
PUBLIC 8ed4c 0 SettingPosValue::~SettingPosValue()
PUBLIC 8edb0 0 SettingPosValue::load(matjson::Value const&)
PUBLIC 8edf8 0 SettingPosValue::save(matjson::Value&) const
PUBLIC 8ee88 0 SettingAppValue::~SettingAppValue()
PUBLIC 8ef10 0 SettingAppValue::~SettingAppValue()
PUBLIC 8efa4 0 SettingAppValue::load(matjson::Value const&)
PUBLIC 8f040 0 SettingAppValue::save(matjson::Value&) const
PUBLIC 8f188 0 SettingCreditsValue::~SettingCreditsValue()
PUBLIC 8f210 0 SettingCreditsValue::~SettingCreditsValue()
PUBLIC 8f2a4 0 SettingCreditsValue::load(matjson::Value const&)
PUBLIC 8f2ac 0 SettingCreditsValue::save(matjson::Value&) const
PUBLIC 8f2b4 0 __clang_call_terminate
PUBLIC 8f2c4 0 SettingSectionNode::init(SettingSectionValue*, float)
PUBLIC 8f80c 0 SettingSectionNode::~SettingSectionNode()
PUBLIC 8f830 0 SettingSectionNode::commit()
PUBLIC 8f834 0 SettingSectionNode::hasUncommittedChanges()
PUBLIC 8f83c 0 SettingSectionNode::hasNonDefaultValue()
PUBLIC 8f844 0 SettingSectionNode::resetToDefault()
PUBLIC 8f848 0 std::__ndk1::__optional_destruct_base<geode::CustomSetting, false>::~__optional_destruct_base[abi:v170000]()
PUBLIC 8f8a0 0 std::__ndk1::__optional_destruct_base<geode::Setting, false>::~__optional_destruct_base[abi:v170000]()
PUBLIC 8f93c 0 SettingSectionNode::onInfoBtn(cocos2d::CCObject*)
PUBLIC 8ff6c 0 std::__ndk1::__variant_detail::__visitation::__base::__dispatcher<(unsigned long)0>::__dispatch[abi:v170000]<std::__ndk1::__variant_detail::__dtor<std::__ndk1::__variant_detail::__traits<geode::BoolSetting, std::__ndk1::__variant_detail::__traits::IntSetting, std::__ndk1::__variant_detail::__traits::FloatSetting, std::__ndk1::__variant_detail::__traits::StringSetting, std::__ndk1::__variant_detail::__traits::FileSetting, std::__ndk1::__variant_detail::__traits::ColorSetting, std::__ndk1::__variant_detail::__traits::ColorAlphaSetting, std::__ndk1::__variant_detail::__traits::CustomSetting>, (std::__ndk1::__variant_detail::_Trait)1>::__destroy[abi:v170000]()::{lambda(auto:1&)#1}, std::__ndk1::__variant_detail::__base<(std::__ndk1::__variant_detail::__traits<geode::BoolSetting, std::__ndk1::__variant_detail::__traits::IntSetting, std::__ndk1::__variant_detail::__traits::FloatSetting, std::__ndk1::__variant_detail::__traits::StringSetting, std::__ndk1::__variant_detail::__traits::FileSetting, std::__ndk1::__variant_detail::__traits::ColorSetting, std::__ndk1::__variant_detail::__traits::ColorAlphaSetting, std::__ndk1::__variant_detail::__traits::CustomSetting>)1, geode, geode::BoolSetting, std::__ndk1::__variant_detail::__traits::IntSetting, std::__ndk1::__variant_detail::__traits::FloatSetting, std::__ndk1::__variant_detail::__traits::StringSetting, std::__ndk1::__variant_detail::__traits::FileSetting, std::__ndk1::__variant_detail::__traits::ColorSetting, std::__ndk1::__variant_detail::__traits::ColorAlphaSetting>&>(std::__ndk1::__variant_detail::__dtor<std::__ndk1::__variant_detail::__traits<geode::BoolSetting, std::__ndk1::__variant_detail::__traits::IntSetting, std::__ndk1::__variant_detail::__traits::FloatSetting, std::__ndk1::__variant_detail::__traits::StringSetting, std::__ndk1::__variant_detail::__traits::FileSetting, std::__ndk1::__variant_detail::__traits::ColorSetting, std::__ndk1::__variant_detail::__traits::ColorAlphaSetting, std::__ndk1::__variant_detail::__traits::CustomSetting>, (std::__ndk1::__variant_detail::_Trait)1>, std::__ndk1::__variant_detail::__base<(std::__ndk1::__variant_detail::__traits<geode::BoolSetting, std::__ndk1::__variant_detail::__traits::IntSetting, std::__ndk1::__variant_detail::__traits::FloatSetting, std::__ndk1::__variant_detail::__traits::StringSetting, std::__ndk1::__variant_detail::__traits::FileSetting, std::__ndk1::__variant_detail::__traits::ColorSetting, std::__ndk1::__variant_detail::__traits::ColorAlphaSetting, std::__ndk1::__variant_detail::__traits::CustomSetting>)1, geode, geode::BoolSetting, std::__ndk1::__variant_detail::__traits::IntSetting, std::__ndk1::__variant_detail::__traits::FloatSetting, std::__ndk1::__variant_detail::__traits::StringSetting, std::__ndk1::__variant_detail::__traits::FileSetting, std::__ndk1::__variant_detail::__traits::ColorSetting, std::__ndk1::__variant_detail::__traits::ColorAlphaSetting>&)
PUBLIC 8ffc0 0 std::__ndk1::__variant_detail::__visitation::__base::__dispatcher<(unsigned long)1>::__dispatch[abi:v170000]<std::__ndk1::__variant_detail::__dtor<std::__ndk1::__variant_detail::__traits<geode::BoolSetting, std::__ndk1::__variant_detail::__traits::IntSetting, std::__ndk1::__variant_detail::__traits::FloatSetting, std::__ndk1::__variant_detail::__traits::StringSetting, std::__ndk1::__variant_detail::__traits::FileSetting, std::__ndk1::__variant_detail::__traits::ColorSetting, std::__ndk1::__variant_detail::__traits::ColorAlphaSetting, std::__ndk1::__variant_detail::__traits::CustomSetting>, (std::__ndk1::__variant_detail::_Trait)1>::__destroy[abi:v170000]()::{lambda(auto:1&)#1}, std::__ndk1::__variant_detail::__base<(std::__ndk1::__variant_detail::__traits<geode::BoolSetting, std::__ndk1::__variant_detail::__traits::IntSetting, std::__ndk1::__variant_detail::__traits::FloatSetting, std::__ndk1::__variant_detail::__traits::StringSetting, std::__ndk1::__variant_detail::__traits::FileSetting, std::__ndk1::__variant_detail::__traits::ColorSetting, std::__ndk1::__variant_detail::__traits::ColorAlphaSetting, std::__ndk1::__variant_detail::__traits::CustomSetting>)1, geode, geode::BoolSetting, std::__ndk1::__variant_detail::__traits::IntSetting, std::__ndk1::__variant_detail::__traits::FloatSetting, std::__ndk1::__variant_detail::__traits::StringSetting, std::__ndk1::__variant_detail::__traits::FileSetting, std::__ndk1::__variant_detail::__traits::ColorSetting, std::__ndk1::__variant_detail::__traits::ColorAlphaSetting>&>(std::__ndk1::__variant_detail::__dtor<std::__ndk1::__variant_detail::__traits<geode::BoolSetting, std::__ndk1::__variant_detail::__traits::IntSetting, std::__ndk1::__variant_detail::__traits::FloatSetting, std::__ndk1::__variant_detail::__traits::StringSetting, std::__ndk1::__variant_detail::__traits::FileSetting, std::__ndk1::__variant_detail::__traits::ColorSetting, std::__ndk1::__variant_detail::__traits::ColorAlphaSetting, std::__ndk1::__variant_detail::__traits::CustomSetting>, (std::__ndk1::__variant_detail::_Trait)1>, std::__ndk1::__variant_detail::__base<(std::__ndk1::__variant_detail::__traits<geode::BoolSetting, std::__ndk1::__variant_detail::__traits::IntSetting, std::__ndk1::__variant_detail::__traits::FloatSetting, std::__ndk1::__variant_detail::__traits::StringSetting, std::__ndk1::__variant_detail::__traits::FileSetting, std::__ndk1::__variant_detail::__traits::ColorSetting, std::__ndk1::__variant_detail::__traits::ColorAlphaSetting, std::__ndk1::__variant_detail::__traits::CustomSetting>)1, geode, geode::BoolSetting, std::__ndk1::__variant_detail::__traits::IntSetting, std::__ndk1::__variant_detail::__traits::FloatSetting, std::__ndk1::__variant_detail::__traits::StringSetting, std::__ndk1::__variant_detail::__traits::FileSetting, std::__ndk1::__variant_detail::__traits::ColorSetting, std::__ndk1::__variant_detail::__traits::ColorAlphaSetting>&)
PUBLIC 90014 0 std::__ndk1::__variant_detail::__visitation::__base::__dispatcher<(unsigned long)2>::__dispatch[abi:v170000]<std::__ndk1::__variant_detail::__dtor<std::__ndk1::__variant_detail::__traits<geode::BoolSetting, std::__ndk1::__variant_detail::__traits::IntSetting, std::__ndk1::__variant_detail::__traits::FloatSetting, std::__ndk1::__variant_detail::__traits::StringSetting, std::__ndk1::__variant_detail::__traits::FileSetting, std::__ndk1::__variant_detail::__traits::ColorSetting, std::__ndk1::__variant_detail::__traits::ColorAlphaSetting, std::__ndk1::__variant_detail::__traits::CustomSetting>, (std::__ndk1::__variant_detail::_Trait)1>::__destroy[abi:v170000]()::{lambda(auto:1&)#1}, std::__ndk1::__variant_detail::__base<(std::__ndk1::__variant_detail::__traits<geode::BoolSetting, std::__ndk1::__variant_detail::__traits::IntSetting, std::__ndk1::__variant_detail::__traits::FloatSetting, std::__ndk1::__variant_detail::__traits::StringSetting, std::__ndk1::__variant_detail::__traits::FileSetting, std::__ndk1::__variant_detail::__traits::ColorSetting, std::__ndk1::__variant_detail::__traits::ColorAlphaSetting, std::__ndk1::__variant_detail::__traits::CustomSetting>)1, geode, geode::BoolSetting, std::__ndk1::__variant_detail::__traits::IntSetting, std::__ndk1::__variant_detail::__traits::FloatSetting, std::__ndk1::__variant_detail::__traits::StringSetting, std::__ndk1::__variant_detail::__traits::FileSetting, std::__ndk1::__variant_detail::__traits::ColorSetting, std::__ndk1::__variant_detail::__traits::ColorAlphaSetting>&>(std::__ndk1::__variant_detail::__dtor<std::__ndk1::__variant_detail::__traits<geode::BoolSetting, std::__ndk1::__variant_detail::__traits::IntSetting, std::__ndk1::__variant_detail::__traits::FloatSetting, std::__ndk1::__variant_detail::__traits::StringSetting, std::__ndk1::__variant_detail::__traits::FileSetting, std::__ndk1::__variant_detail::__traits::ColorSetting, std::__ndk1::__variant_detail::__traits::ColorAlphaSetting, std::__ndk1::__variant_detail::__traits::CustomSetting>, (std::__ndk1::__variant_detail::_Trait)1>, std::__ndk1::__variant_detail::__base<(std::__ndk1::__variant_detail::__traits<geode::BoolSetting, std::__ndk1::__variant_detail::__traits::IntSetting, std::__ndk1::__variant_detail::__traits::FloatSetting, std::__ndk1::__variant_detail::__traits::StringSetting, std::__ndk1::__variant_detail::__traits::FileSetting, std::__ndk1::__variant_detail::__traits::ColorSetting, std::__ndk1::__variant_detail::__traits::ColorAlphaSetting, std::__ndk1::__variant_detail::__traits::CustomSetting>)1, geode, geode::BoolSetting, std::__ndk1::__variant_detail::__traits::IntSetting, std::__ndk1::__variant_detail::__traits::FloatSetting, std::__ndk1::__variant_detail::__traits::StringSetting, std::__ndk1::__variant_detail::__traits::FileSetting, std::__ndk1::__variant_detail::__traits::ColorSetting, std::__ndk1::__variant_detail::__traits::ColorAlphaSetting>&)
PUBLIC 90068 0 std::__ndk1::__variant_detail::__visitation::__base::__dispatcher<(unsigned long)3>::__dispatch[abi:v170000]<std::__ndk1::__variant_detail::__dtor<std::__ndk1::__variant_detail::__traits<geode::BoolSetting, std::__ndk1::__variant_detail::__traits::IntSetting, std::__ndk1::__variant_detail::__traits::FloatSetting, std::__ndk1::__variant_detail::__traits::StringSetting, std::__ndk1::__variant_detail::__traits::FileSetting, std::__ndk1::__variant_detail::__traits::ColorSetting, std::__ndk1::__variant_detail::__traits::ColorAlphaSetting, std::__ndk1::__variant_detail::__traits::CustomSetting>, (std::__ndk1::__variant_detail::_Trait)1>::__destroy[abi:v170000]()::{lambda(auto:1&)#1}, std::__ndk1::__variant_detail::__base<(std::__ndk1::__variant_detail::__traits<geode::BoolSetting, std::__ndk1::__variant_detail::__traits::IntSetting, std::__ndk1::__variant_detail::__traits::FloatSetting, std::__ndk1::__variant_detail::__traits::StringSetting, std::__ndk1::__variant_detail::__traits::FileSetting, std::__ndk1::__variant_detail::__traits::ColorSetting, std::__ndk1::__variant_detail::__traits::ColorAlphaSetting, std::__ndk1::__variant_detail::__traits::CustomSetting>)1, geode, geode::BoolSetting, std::__ndk1::__variant_detail::__traits::IntSetting, std::__ndk1::__variant_detail::__traits::FloatSetting, std::__ndk1::__variant_detail::__traits::StringSetting, std::__ndk1::__variant_detail::__traits::FileSetting, std::__ndk1::__variant_detail::__traits::ColorSetting, std::__ndk1::__variant_detail::__traits::ColorAlphaSetting>&>(std::__ndk1::__variant_detail::__dtor<std::__ndk1::__variant_detail::__traits<geode::BoolSetting, std::__ndk1::__variant_detail::__traits::IntSetting, std::__ndk1::__variant_detail::__traits::FloatSetting, std::__ndk1::__variant_detail::__traits::StringSetting, std::__ndk1::__variant_detail::__traits::FileSetting, std::__ndk1::__variant_detail::__traits::ColorSetting, std::__ndk1::__variant_detail::__traits::ColorAlphaSetting, std::__ndk1::__variant_detail::__traits::CustomSetting>, (std::__ndk1::__variant_detail::_Trait)1>, std::__ndk1::__variant_detail::__base<(std::__ndk1::__variant_detail::__traits<geode::BoolSetting, std::__ndk1::__variant_detail::__traits::IntSetting, std::__ndk1::__variant_detail::__traits::FloatSetting, std::__ndk1::__variant_detail::__traits::StringSetting, std::__ndk1::__variant_detail::__traits::FileSetting, std::__ndk1::__variant_detail::__traits::ColorSetting, std::__ndk1::__variant_detail::__traits::ColorAlphaSetting, std::__ndk1::__variant_detail::__traits::CustomSetting>)1, geode, geode::BoolSetting, std::__ndk1::__variant_detail::__traits::IntSetting, std::__ndk1::__variant_detail::__traits::FloatSetting, std::__ndk1::__variant_detail::__traits::StringSetting, std::__ndk1::__variant_detail::__traits::FileSetting, std::__ndk1::__variant_detail::__traits::ColorSetting, std::__ndk1::__variant_detail::__traits::ColorAlphaSetting>&)
PUBLIC 90070 0 std::__ndk1::__variant_detail::__visitation::__base::__dispatcher<(unsigned long)4>::__dispatch[abi:v170000]<std::__ndk1::__variant_detail::__dtor<std::__ndk1::__variant_detail::__traits<geode::BoolSetting, std::__ndk1::__variant_detail::__traits::IntSetting, std::__ndk1::__variant_detail::__traits::FloatSetting, std::__ndk1::__variant_detail::__traits::StringSetting, std::__ndk1::__variant_detail::__traits::FileSetting, std::__ndk1::__variant_detail::__traits::ColorSetting, std::__ndk1::__variant_detail::__traits::ColorAlphaSetting, std::__ndk1::__variant_detail::__traits::CustomSetting>, (std::__ndk1::__variant_detail::_Trait)1>::__destroy[abi:v170000]()::{lambda(auto:1&)#1}, std::__ndk1::__variant_detail::__base<(std::__ndk1::__variant_detail::__traits<geode::BoolSetting, std::__ndk1::__variant_detail::__traits::IntSetting, std::__ndk1::__variant_detail::__traits::FloatSetting, std::__ndk1::__variant_detail::__traits::StringSetting, std::__ndk1::__variant_detail::__traits::FileSetting, std::__ndk1::__variant_detail::__traits::ColorSetting, std::__ndk1::__variant_detail::__traits::ColorAlphaSetting, std::__ndk1::__variant_detail::__traits::CustomSetting>)1, geode, geode::BoolSetting, std::__ndk1::__variant_detail::__traits::IntSetting, std::__ndk1::__variant_detail::__traits::FloatSetting, std::__ndk1::__variant_detail::__traits::StringSetting, std::__ndk1::__variant_detail::__traits::FileSetting, std::__ndk1::__variant_detail::__traits::ColorSetting, std::__ndk1::__variant_detail::__traits::ColorAlphaSetting>&>(std::__ndk1::__variant_detail::__dtor<std::__ndk1::__variant_detail::__traits<geode::BoolSetting, std::__ndk1::__variant_detail::__traits::IntSetting, std::__ndk1::__variant_detail::__traits::FloatSetting, std::__ndk1::__variant_detail::__traits::StringSetting, std::__ndk1::__variant_detail::__traits::FileSetting, std::__ndk1::__variant_detail::__traits::ColorSetting, std::__ndk1::__variant_detail::__traits::ColorAlphaSetting, std::__ndk1::__variant_detail::__traits::CustomSetting>, (std::__ndk1::__variant_detail::_Trait)1>, std::__ndk1::__variant_detail::__base<(std::__ndk1::__variant_detail::__traits<geode::BoolSetting, std::__ndk1::__variant_detail::__traits::IntSetting, std::__ndk1::__variant_detail::__traits::FloatSetting, std::__ndk1::__variant_detail::__traits::StringSetting, std::__ndk1::__variant_detail::__traits::FileSetting, std::__ndk1::__variant_detail::__traits::ColorSetting, std::__ndk1::__variant_detail::__traits::ColorAlphaSetting, std::__ndk1::__variant_detail::__traits::CustomSetting>)1, geode, geode::BoolSetting, std::__ndk1::__variant_detail::__traits::IntSetting, std::__ndk1::__variant_detail::__traits::FloatSetting, std::__ndk1::__variant_detail::__traits::StringSetting, std::__ndk1::__variant_detail::__traits::FileSetting, std::__ndk1::__variant_detail::__traits::ColorSetting, std::__ndk1::__variant_detail::__traits::ColorAlphaSetting>&)
PUBLIC 90100 0 std::__ndk1::__variant_detail::__visitation::__base::__dispatcher<(unsigned long)5>::__dispatch[abi:v170000]<std::__ndk1::__variant_detail::__dtor<std::__ndk1::__variant_detail::__traits<geode::BoolSetting, std::__ndk1::__variant_detail::__traits::IntSetting, std::__ndk1::__variant_detail::__traits::FloatSetting, std::__ndk1::__variant_detail::__traits::StringSetting, std::__ndk1::__variant_detail::__traits::FileSetting, std::__ndk1::__variant_detail::__traits::ColorSetting, std::__ndk1::__variant_detail::__traits::ColorAlphaSetting, std::__ndk1::__variant_detail::__traits::CustomSetting>, (std::__ndk1::__variant_detail::_Trait)1>::__destroy[abi:v170000]()::{lambda(auto:1&)#1}, std::__ndk1::__variant_detail::__base<(std::__ndk1::__variant_detail::__traits<geode::BoolSetting, std::__ndk1::__variant_detail::__traits::IntSetting, std::__ndk1::__variant_detail::__traits::FloatSetting, std::__ndk1::__variant_detail::__traits::StringSetting, std::__ndk1::__variant_detail::__traits::FileSetting, std::__ndk1::__variant_detail::__traits::ColorSetting, std::__ndk1::__variant_detail::__traits::ColorAlphaSetting, std::__ndk1::__variant_detail::__traits::CustomSetting>)1, geode, geode::BoolSetting, std::__ndk1::__variant_detail::__traits::IntSetting, std::__ndk1::__variant_detail::__traits::FloatSetting, std::__ndk1::__variant_detail::__traits::StringSetting, std::__ndk1::__variant_detail::__traits::FileSetting, std::__ndk1::__variant_detail::__traits::ColorSetting, std::__ndk1::__variant_detail::__traits::ColorAlphaSetting>&>(std::__ndk1::__variant_detail::__dtor<std::__ndk1::__variant_detail::__traits<geode::BoolSetting, std::__ndk1::__variant_detail::__traits::IntSetting, std::__ndk1::__variant_detail::__traits::FloatSetting, std::__ndk1::__variant_detail::__traits::StringSetting, std::__ndk1::__variant_detail::__traits::FileSetting, std::__ndk1::__variant_detail::__traits::ColorSetting, std::__ndk1::__variant_detail::__traits::ColorAlphaSetting, std::__ndk1::__variant_detail::__traits::CustomSetting>, (std::__ndk1::__variant_detail::_Trait)1>, std::__ndk1::__variant_detail::__base<(std::__ndk1::__variant_detail::__traits<geode::BoolSetting, std::__ndk1::__variant_detail::__traits::IntSetting, std::__ndk1::__variant_detail::__traits::FloatSetting, std::__ndk1::__variant_detail::__traits::StringSetting, std::__ndk1::__variant_detail::__traits::FileSetting, std::__ndk1::__variant_detail::__traits::ColorSetting, std::__ndk1::__variant_detail::__traits::ColorAlphaSetting, std::__ndk1::__variant_detail::__traits::CustomSetting>)1, geode, geode::BoolSetting, std::__ndk1::__variant_detail::__traits::IntSetting, std::__ndk1::__variant_detail::__traits::FloatSetting, std::__ndk1::__variant_detail::__traits::StringSetting, std::__ndk1::__variant_detail::__traits::FileSetting, std::__ndk1::__variant_detail::__traits::ColorSetting, std::__ndk1::__variant_detail::__traits::ColorAlphaSetting>&)
PUBLIC 90154 0 std::__ndk1::__variant_detail::__visitation::__base::__dispatcher<(unsigned long)6>::__dispatch[abi:v170000]<std::__ndk1::__variant_detail::__dtor<std::__ndk1::__variant_detail::__traits<geode::BoolSetting, std::__ndk1::__variant_detail::__traits::IntSetting, std::__ndk1::__variant_detail::__traits::FloatSetting, std::__ndk1::__variant_detail::__traits::StringSetting, std::__ndk1::__variant_detail::__traits::FileSetting, std::__ndk1::__variant_detail::__traits::ColorSetting, std::__ndk1::__variant_detail::__traits::ColorAlphaSetting, std::__ndk1::__variant_detail::__traits::CustomSetting>, (std::__ndk1::__variant_detail::_Trait)1>::__destroy[abi:v170000]()::{lambda(auto:1&)#1}, std::__ndk1::__variant_detail::__base<(std::__ndk1::__variant_detail::__traits<geode::BoolSetting, std::__ndk1::__variant_detail::__traits::IntSetting, std::__ndk1::__variant_detail::__traits::FloatSetting, std::__ndk1::__variant_detail::__traits::StringSetting, std::__ndk1::__variant_detail::__traits::FileSetting, std::__ndk1::__variant_detail::__traits::ColorSetting, std::__ndk1::__variant_detail::__traits::ColorAlphaSetting, std::__ndk1::__variant_detail::__traits::CustomSetting>)1, geode, geode::BoolSetting, std::__ndk1::__variant_detail::__traits::IntSetting, std::__ndk1::__variant_detail::__traits::FloatSetting, std::__ndk1::__variant_detail::__traits::StringSetting, std::__ndk1::__variant_detail::__traits::FileSetting, std::__ndk1::__variant_detail::__traits::ColorSetting, std::__ndk1::__variant_detail::__traits::ColorAlphaSetting>&>(std::__ndk1::__variant_detail::__dtor<std::__ndk1::__variant_detail::__traits<geode::BoolSetting, std::__ndk1::__variant_detail::__traits::IntSetting, std::__ndk1::__variant_detail::__traits::FloatSetting, std::__ndk1::__variant_detail::__traits::StringSetting, std::__ndk1::__variant_detail::__traits::FileSetting, std::__ndk1::__variant_detail::__traits::ColorSetting, std::__ndk1::__variant_detail::__traits::ColorAlphaSetting, std::__ndk1::__variant_detail::__traits::CustomSetting>, (std::__ndk1::__variant_detail::_Trait)1>, std::__ndk1::__variant_detail::__base<(std::__ndk1::__variant_detail::__traits<geode::BoolSetting, std::__ndk1::__variant_detail::__traits::IntSetting, std::__ndk1::__variant_detail::__traits::FloatSetting, std::__ndk1::__variant_detail::__traits::StringSetting, std::__ndk1::__variant_detail::__traits::FileSetting, std::__ndk1::__variant_detail::__traits::ColorSetting, std::__ndk1::__variant_detail::__traits::ColorAlphaSetting, std::__ndk1::__variant_detail::__traits::CustomSetting>)1, geode, geode::BoolSetting, std::__ndk1::__variant_detail::__traits::IntSetting, std::__ndk1::__variant_detail::__traits::FloatSetting, std::__ndk1::__variant_detail::__traits::StringSetting, std::__ndk1::__variant_detail::__traits::FileSetting, std::__ndk1::__variant_detail::__traits::ColorSetting, std::__ndk1::__variant_detail::__traits::ColorAlphaSetting>&)
PUBLIC 901a8 0 std::__ndk1::__variant_detail::__visitation::__base::__dispatcher<(unsigned long)7>::__dispatch[abi:v170000]<std::__ndk1::__variant_detail::__dtor<std::__ndk1::__variant_detail::__traits<geode::BoolSetting, std::__ndk1::__variant_detail::__traits::IntSetting, std::__ndk1::__variant_detail::__traits::FloatSetting, std::__ndk1::__variant_detail::__traits::StringSetting, std::__ndk1::__variant_detail::__traits::FileSetting, std::__ndk1::__variant_detail::__traits::ColorSetting, std::__ndk1::__variant_detail::__traits::ColorAlphaSetting, std::__ndk1::__variant_detail::__traits::CustomSetting>, (std::__ndk1::__variant_detail::_Trait)1>::__destroy[abi:v170000]()::{lambda(auto:1&)#1}, std::__ndk1::__variant_detail::__base<(std::__ndk1::__variant_detail::__traits<geode::BoolSetting, std::__ndk1::__variant_detail::__traits::IntSetting, std::__ndk1::__variant_detail::__traits::FloatSetting, std::__ndk1::__variant_detail::__traits::StringSetting, std::__ndk1::__variant_detail::__traits::FileSetting, std::__ndk1::__variant_detail::__traits::ColorSetting, std::__ndk1::__variant_detail::__traits::ColorAlphaSetting, std::__ndk1::__variant_detail::__traits::CustomSetting>)1, geode, geode::BoolSetting, std::__ndk1::__variant_detail::__traits::IntSetting, std::__ndk1::__variant_detail::__traits::FloatSetting, std::__ndk1::__variant_detail::__traits::StringSetting, std::__ndk1::__variant_detail::__traits::FileSetting, std::__ndk1::__variant_detail::__traits::ColorSetting, std::__ndk1::__variant_detail::__traits::ColorAlphaSetting>&>(std::__ndk1::__variant_detail::__dtor<std::__ndk1::__variant_detail::__traits<geode::BoolSetting, std::__ndk1::__variant_detail::__traits::IntSetting, std::__ndk1::__variant_detail::__traits::FloatSetting, std::__ndk1::__variant_detail::__traits::StringSetting, std::__ndk1::__variant_detail::__traits::FileSetting, std::__ndk1::__variant_detail::__traits::ColorSetting, std::__ndk1::__variant_detail::__traits::ColorAlphaSetting, std::__ndk1::__variant_detail::__traits::CustomSetting>, (std::__ndk1::__variant_detail::_Trait)1>, std::__ndk1::__variant_detail::__base<(std::__ndk1::__variant_detail::__traits<geode::BoolSetting, std::__ndk1::__variant_detail::__traits::IntSetting, std::__ndk1::__variant_detail::__traits::FloatSetting, std::__ndk1::__variant_detail::__traits::StringSetting, std::__ndk1::__variant_detail::__traits::FileSetting, std::__ndk1::__variant_detail::__traits::ColorSetting, std::__ndk1::__variant_detail::__traits::ColorAlphaSetting, std::__ndk1::__variant_detail::__traits::CustomSetting>)1, geode, geode::BoolSetting, std::__ndk1::__variant_detail::__traits::IntSetting, std::__ndk1::__variant_detail::__traits::FloatSetting, std::__ndk1::__variant_detail::__traits::StringSetting, std::__ndk1::__variant_detail::__traits::FileSetting, std::__ndk1::__variant_detail::__traits::ColorSetting, std::__ndk1::__variant_detail::__traits::ColorAlphaSetting>&)
PUBLIC 901f8 0 geode::StringSetting::~StringSetting()
PUBLIC 9028c 0 std::__ndk1::vector<geode::utils::file::FilePickOptions::Filter, std::__ndk1::allocator<geode::utils::file::FilePickOptions::Filter> >::__destroy_vector::operator()[abi:v170000]()
PUBLIC 90370 0 SettingTestNode::init(SettingTestValue*, float)
PUBLIC 90500 0 SettingTestNode::~SettingTestNode()
PUBLIC 90524 0 SettingTestNode::commit()
PUBLIC 90528 0 SettingTestNode::hasUncommittedChanges()
PUBLIC 90530 0 SettingTestNode::hasNonDefaultValue()
PUBLIC 90538 0 SettingTestNode::resetToDefault()
PUBLIC 9053c 0 SettingAppNode::init(SettingAppValue*, float)
PUBLIC 90864 0 SettingAppNode::~SettingAppNode()
PUBLIC 908a0 0 SettingAppNode::~SettingAppNode()
PUBLIC 908e4 0 SettingAppNode::commit()
PUBLIC 90a10 0 SettingAppNode::hasUncommittedChanges()
PUBLIC 90bbc 0 SettingAppNode::hasNonDefaultValue()
PUBLIC 90c84 0 SettingAppNode::resetToDefault()
PUBLIC 90dc8 0 SettingAppNode::onInfoBtn(cocos2d::CCObject*)
PUBLIC 91230 0 SettingPosNode::init(SettingPosValue*, float)
PUBLIC 915a4 0 SettingPosNode::~SettingPosNode()
PUBLIC 915c8 0 SettingPosNode::commit()
PUBLIC 915d8 0 SettingPosNode::hasUncommittedChanges()
PUBLIC 915f0 0 SettingPosNode::hasNonDefaultValue()
PUBLIC 91600 0 SettingPosNode::resetToDefault()
PUBLIC 91654 0 SettingPosNode::onCornerClick(cocos2d::CCObject*)
PUBLIC 916d0 0 SettingCreditsNode::init(SettingCreditsValue*, float)
PUBLIC 91894 0 SettingCreditsNode::~SettingCreditsNode()
PUBLIC 918b8 0 SettingCreditsNode::commit()
PUBLIC 918bc 0 SettingCreditsNode::hasUncommittedChanges()
PUBLIC 918c4 0 SettingCreditsNode::hasNonDefaultValue()
PUBLIC 918cc 0 SettingCreditsNode::resetToDefault()
PUBLIC 918d0 0 SettingCreditsNode::onCreditsBtn(cocos2d::CCObject*)
PUBLIC 918ec 0 SettingCreditsNode::onBetaBtn(cocos2d::CCObject*)
PUBLIC 91908 0 sio::object_message::~object_message()
PUBLIC 91924 0 sio::object_message::~object_message()
PUBLIC 9195c 0 sio::message::get_bool() const
PUBLIC 91964 0 sio::message::get_int() const
PUBLIC 9196c 0 sio::message::get_double() const
PUBLIC 91974 0 sio::message::get_string() const
PUBLIC 91a0c 0 sio::message::get_binary() const
PUBLIC 91ac8 0 sio::message::get_vector() const
PUBLIC 91b88 0 sio::message::get_vector()
PUBLIC 91c48 0 sio::object_message::get_map() const
PUBLIC 91c50 0 sio::object_message::get_map()
PUBLIC 91c58 0 sio::message::~message()
PUBLIC 91c5c 0 sio::message::get_map() const
PUBLIC 91cf4 0 sio::message::get_map()
PUBLIC 91d8c 0 std::__ndk1::map<std::__ndk1::basic_string<char, std::__ndk1::char_traits<char>, std::__ndk1::allocator<char> >, std::__ndk1::shared_ptr<sio::message>, std::__ndk1::less<std::__ndk1::basic_string<char, std::__ndk1::char_traits<char>, std::__ndk1::allocator<char> > >, std::__ndk1::allocator<std::__ndk1::pair<std::__ndk1::basic_string<char, std::__ndk1::char_traits<char>, std::__ndk1::allocator<char> > const, std::__ndk1::shared_ptr<sio::message> > > >::~map[abi:v170000]()
PUBLIC 91d94 0 std::__ndk1::__tree<std::__ndk1::__value_type<std::__ndk1::basic_string<char, std::__ndk1::char_traits<char>, std::__ndk1::allocator<char> >, std::__ndk1::shared_ptr<sio::message> >, std::__ndk1::__map_value_compare<std::__ndk1::basic_string<char, std::__ndk1::char_traits<char>, std::__ndk1::allocator<char> >, std::__ndk1::__value_type<std::__ndk1::basic_string<char, std::__ndk1::char_traits<char>, std::__ndk1::allocator<char> >, std::__ndk1::shared_ptr<sio::message> >, std::__ndk1::less<std::__ndk1::basic_string<char, std::__ndk1::char_traits<char>, std::__ndk1::allocator<char> > >, true>, std::__ndk1::allocator<std::__ndk1::__value_type<std::__ndk1::basic_string<char, std::__ndk1::char_traits<char>, std::__ndk1::allocator<char> >, std::__ndk1::shared_ptr<sio::message> > > >::destroy(std::__ndk1::__tree_node<std::__ndk1::__value_type<std::__ndk1::basic_string<char, std::__ndk1::char_traits<char>, std::__ndk1::allocator<char> >, std::__ndk1::shared_ptr<sio::message> >, void*>*)
PUBLIC 91e20 0 std::__ndk1::shared_ptr<std::__ndk1::basic_string<char, std::__ndk1::char_traits<char>, std::__ndk1::allocator<char> > const>::~shared_ptr[abi:v170000]()
PUBLIC 91e70 0 std::__ndk1::vector<std::__ndk1::shared_ptr<sio::message>, std::__ndk1::allocator<std::__ndk1::shared_ptr<sio::message> > >::~vector[abi:v170000]()
PUBLIC 91f18 0 std::__ndk1::__shared_ptr_pointer<sio::object_message*, std::__ndk1::shared_ptr<sio::message>::__shared_ptr_default_delete<sio::message, sio::object_message>, std::__ndk1::allocator<sio::object_message> >::~__shared_ptr_pointer()
PUBLIC 91f3c 0 std::__ndk1::__shared_ptr_pointer<sio::object_message*, std::__ndk1::shared_ptr<sio::message>::__shared_ptr_default_delete<sio::message, sio::object_message>, std::__ndk1::allocator<sio::object_message> >::__on_zero_shared()
PUBLIC 91f54 0 std::__ndk1::__shared_ptr_pointer<sio::object_message*, std::__ndk1::shared_ptr<sio::message>::__shared_ptr_default_delete<sio::message, sio::object_message>, std::__ndk1::allocator<sio::object_message> >::__get_deleter(std::type_info const&) const
PUBLIC 91f70 0 std::__ndk1::__shared_ptr_pointer<sio::object_message*, std::__ndk1::shared_ptr<sio::message>::__shared_ptr_default_delete<sio::message, sio::object_message>, std::__ndk1::allocator<sio::object_message> >::__on_zero_shared_weak()
PUBLIC 91f74 0 sio::int_message::~int_message()
PUBLIC 91f78 0 sio::int_message::get_int() const
PUBLIC 91f80 0 sio::int_message::get_double() const
PUBLIC 91f8c 0 std::__ndk1::__shared_ptr_pointer<sio::int_message*, std::__ndk1::shared_ptr<sio::message>::__shared_ptr_default_delete<sio::message, sio::int_message>, std::__ndk1::allocator<sio::int_message> >::~__shared_ptr_pointer()
PUBLIC 91fb0 0 std::__ndk1::__shared_ptr_pointer<sio::int_message*, std::__ndk1::shared_ptr<sio::message>::__shared_ptr_default_delete<sio::message, sio::int_message>, std::__ndk1::allocator<sio::int_message> >::__on_zero_shared()
PUBLIC 91fc8 0 std::__ndk1::__shared_ptr_pointer<sio::int_message*, std::__ndk1::shared_ptr<sio::message>::__shared_ptr_default_delete<sio::message, sio::int_message>, std::__ndk1::allocator<sio::int_message> >::__get_deleter(std::type_info const&) const
PUBLIC 91fe4 0 std::__ndk1::__shared_ptr_pointer<sio::int_message*, std::__ndk1::shared_ptr<sio::message>::__shared_ptr_default_delete<sio::message, sio::int_message>, std::__ndk1::allocator<sio::int_message> >::__on_zero_shared_weak()
PUBLIC 91fe8 0 sio::string_message::~string_message()
PUBLIC 92008 0 sio::string_message::~string_message()
PUBLIC 92044 0 sio::string_message::get_string() const
PUBLIC 9204c 0 std::__ndk1::__shared_ptr_pointer<sio::string_message*, std::__ndk1::shared_ptr<sio::message>::__shared_ptr_default_delete<sio::message, sio::string_message>, std::__ndk1::allocator<sio::string_message> >::~__shared_ptr_pointer()
PUBLIC 92070 0 std::__ndk1::__shared_ptr_pointer<sio::string_message*, std::__ndk1::shared_ptr<sio::message>::__shared_ptr_default_delete<sio::message, sio::string_message>, std::__ndk1::allocator<sio::string_message> >::__on_zero_shared()
PUBLIC 92088 0 std::__ndk1::__shared_ptr_pointer<sio::string_message*, std::__ndk1::shared_ptr<sio::message>::__shared_ptr_default_delete<sio::message, sio::string_message>, std::__ndk1::allocator<sio::string_message> >::__get_deleter(std::type_info const&) const
PUBLIC 920a4 0 std::__ndk1::__shared_ptr_pointer<sio::string_message*, std::__ndk1::shared_ptr<sio::message>::__shared_ptr_default_delete<sio::message, sio::string_message>, std::__ndk1::allocator<sio::string_message> >::__on_zero_shared_weak()
PUBLIC 920a8 0 geode::SettingValue::~SettingValue()
PUBLIC 920ac 0 std::__ndk1::__tree<std::__ndk1::__value_type<std::__ndk1::basic_string<char, std::__ndk1::char_traits<char>, std::__ndk1::allocator<char> >, std::__ndk1::shared_ptr<sio::message> >, std::__ndk1::__map_value_compare<std::__ndk1::basic_string<char, std::__ndk1::char_traits<char>, std::__ndk1::allocator<char> >, std::__ndk1::__value_type<std::__ndk1::basic_string<char, std::__ndk1::char_traits<char>, std::__ndk1::allocator<char> >, std::__ndk1::shared_ptr<sio::message> >, std::__ndk1::less<std::__ndk1::basic_string<char, std::__ndk1::char_traits<char>, std::__ndk1::allocator<char> > >, true>, std::__ndk1::allocator<std::__ndk1::__value_type<std::__ndk1::basic_string<char, std::__ndk1::char_traits<char>, std::__ndk1::allocator<char> >, std::__ndk1::shared_ptr<sio::message> > > >::__find_equal<std::__ndk1::basic_string<char, std::__ndk1::char_traits<char>, std::__ndk1::allocator<char> > >(std::__ndk1::__tree_end_node<std::__ndk1::__tree_node_base<void*>*>*&, std::__ndk1::basic_string<char, std::__ndk1::char_traits<char>, std::__ndk1::allocator<char> > const&)
PUBLIC 921b0 0 std::__ndk1::__tree_balance_after_insert[abi:v170000]<std::__ndk1::__tree_node_base<void*>*>(std::__ndk1::__tree_node_base<void*>*, std::__ndk1::__tree_node_base<void*>*)
PUBLIC 92364 0 _GLOBAL__sub_I_CustomSettings.cpp
PUBLIC 923a8 0 ProgressBar::init()
PUBLIC 924b0 0 ProgressBar::setProgress(float)
PUBLIC 9251c 0 ProgressBar::create()
PUBLIC 9260c 0 DownloadManager::setup()
PUBLIC 92a78 0 geode::utils::web::AsyncWebResult<std::__ndk1::monostate>::then(geode::utils::MiniFunction<void (std::__ndk1::monostate)>)
PUBLIC 92bd4 0 DownloadManager::create(char const*, char const*, void (cocos2d::CCObject::*)(cocos2d::CCObject*))
PUBLIC 92d10 0 ProgressBar::~ProgressBar()
PUBLIC 92d34 0 DownloadManager::~DownloadManager()
PUBLIC 92d58 0 {virtual override thunk({offset(-320)}, DownloadManager::~DownloadManager())}
PUBLIC 92d60 0 {virtual override thunk({offset(-320)}, DownloadManager::~DownloadManager())}
PUBLIC 92d88 0 geode::utils::MiniFunctionState<geode::utils::web::AsyncWebResult<std::__ndk1::monostate>::then(geode::utils::MiniFunction<void (std::__ndk1::monostate)>)::{lambda(geode::utils::web::SentAsyncWebRequest&, std::__ndk1::vector<unsigned char, std::__ndk1::allocator<unsigned char> > const&)#1}, void, geode::utils::web::SentAsyncWebRequest&, std::__ndk1::vector<unsigned char, std::__ndk1::allocator<unsigned char> > const&>::~MiniFunctionState()
PUBLIC 92da0 0 geode::utils::MiniFunctionState<geode::utils::web::AsyncWebResult<std::__ndk1::monostate>::then(geode::utils::MiniFunction<void (std::__ndk1::monostate)>)::{lambda(geode::utils::web::SentAsyncWebRequest&, std::__ndk1::vector<unsigned char, std::__ndk1::allocator<unsigned char> > const&)#1}, void, geode::utils::web::SentAsyncWebRequest&, std::__ndk1::vector<unsigned char, std::__ndk1::allocator<unsigned char> > const&>::~MiniFunctionState()
PUBLIC 92dd4 0 geode::utils::MiniFunctionState<geode::utils::web::AsyncWebResult<std::__ndk1::monostate>::then(geode::utils::MiniFunction<void (std::__ndk1::monostate)>)::{lambda(geode::utils::web::SentAsyncWebRequest&, std::__ndk1::vector<unsigned char, std::__ndk1::allocator<unsigned char> > const&)#1}, void, geode::utils::web::SentAsyncWebRequest&, std::__ndk1::vector<unsigned char, std::__ndk1::allocator<unsigned char> > const&>::call(geode::utils::web::SentAsyncWebRequest&, std::__ndk1::vector<unsigned char, std::__ndk1::allocator<unsigned char> > const&) const
PUBLIC 92ddc 0 geode::utils::MiniFunctionState<geode::utils::web::AsyncWebResult<std::__ndk1::monostate>::then(geode::utils::MiniFunction<void (std::__ndk1::monostate)>)::{lambda(geode::utils::web::SentAsyncWebRequest&, std::__ndk1::vector<unsigned char, std::__ndk1::allocator<unsigned char> > const&)#1}, void, geode::utils::web::SentAsyncWebRequest&, std::__ndk1::vector<unsigned char, std::__ndk1::allocator<unsigned char> > const&>::clone() const
PUBLIC 92e58 0 geode::utils::web::AsyncWebResult<std::__ndk1::monostate>::then(geode::utils::MiniFunction<void (std::__ndk1::monostate)>)::{lambda(geode::utils::web::SentAsyncWebRequest&, std::__ndk1::vector<unsigned char, std::__ndk1::allocator<unsigned char> > const&)#1}::operator()(geode::utils::web::SentAsyncWebRequest&, std::__ndk1::vector<unsigned char, std::__ndk1::allocator<unsigned char> > const&) const
PUBLIC 93070 0 geode::Result<std::__ndk1::monostate, std::__ndk1::basic_string<char, std::__ndk1::char_traits<char>, std::__ndk1::allocator<char> > >::unwrap() &
PUBLIC 93170 0 cpp::bitwizeshift::bad_result_access<std::__ndk1::basic_string<char, std::__ndk1::char_traits<char>, std::__ndk1::allocator<char> > >::~bad_result_access()
PUBLIC 931ac 0 cpp::bitwizeshift::bad_result_access<std::__ndk1::basic_string<char, std::__ndk1::char_traits<char>, std::__ndk1::allocator<char> > >::~bad_result_access()
PUBLIC 931f0 0 geode::utils::MiniFunctionStateBase<void, std::__ndk1::monostate>::~MiniFunctionStateBase()
PUBLIC 931f4 0 geode::utils::MiniFunctionState<DownloadManager::setup()::$_0, void, std::__ndk1::monostate>::~MiniFunctionState()
PUBLIC 931f8 0 geode::utils::MiniFunctionState<DownloadManager::setup()::$_0, void, std::__ndk1::monostate>::call(std::__ndk1::monostate) const
PUBLIC 93288 0 geode::utils::MiniFunctionState<DownloadManager::setup()::$_0, void, std::__ndk1::monostate>::clone() const
PUBLIC 932bc 0 geode::utils::MiniFunctionStateBase<void, std::__ndk1::basic_string<char, std::__ndk1::char_traits<char>, std::__ndk1::allocator<char> > const&>::~MiniFunctionStateBase()
PUBLIC 932c0 0 geode::utils::MiniFunctionState<DownloadManager::setup()::$_1, void, std::__ndk1::basic_string<char, std::__ndk1::char_traits<char>, std::__ndk1::allocator<char> > const&>::~MiniFunctionState()
PUBLIC 932c4 0 geode::utils::MiniFunctionState<DownloadManager::setup()::$_1, void, std::__ndk1::basic_string<char, std::__ndk1::char_traits<char>, std::__ndk1::allocator<char> > const&>::call(std::__ndk1::basic_string<char, std::__ndk1::char_traits<char>, std::__ndk1::allocator<char> > const&) const
PUBLIC 933b8 0 geode::utils::MiniFunctionState<DownloadManager::setup()::$_1, void, std::__ndk1::basic_string<char, std::__ndk1::char_traits<char>, std::__ndk1::allocator<char> > const&>::clone() const
PUBLIC 933dc 0 geode::utils::MiniFunctionStateBase<void, geode::utils::web::SentAsyncWebRequest&, double, double>::~MiniFunctionStateBase()
PUBLIC 933e0 0 geode::utils::MiniFunctionState<DownloadManager::setup()::$_2, void, geode::utils::web::SentAsyncWebRequest&, double, double>::~MiniFunctionState()
PUBLIC 933e4 0 geode::utils::MiniFunctionState<DownloadManager::setup()::$_2, void, geode::utils::web::SentAsyncWebRequest&, double, double>::call(geode::utils::web::SentAsyncWebRequest&, double, double) const
PUBLIC 9347c 0 geode::utils::MiniFunctionState<DownloadManager::setup()::$_2, void, geode::utils::web::SentAsyncWebRequest&, double, double>::clone() const
PUBLIC 934a0 0 std::__ndk1::basic_string<char, std::__ndk1::char_traits<char>, std::__ndk1::allocator<char> >::basic_string[abi:v170000]<std::nullptr_t>()
PUBLIC 93528 0 std::__ndk1::queue<std::__ndk1::shared_ptr<sio::message>, std::__ndk1::deque<std::__ndk1::shared_ptr<sio::message>, std::__ndk1::allocator<std::__ndk1::shared_ptr<sio::message> > > >::~queue()
PUBLIC 9352c 0 EventsPush::create(std::__ndk1::shared_ptr<sio::message> const&)
PUBLIC 9363c 0 EventsPush::destroySelf()
PUBLIC 93694 0 getDifficulty(int)
PUBLIC 936e4 0 std::__ndk1::basic_stringstream<char, std::__ndk1::char_traits<char>, std::__ndk1::allocator<char> >::basic_stringstream[abi:v170000](std::__ndk1::basic_string<char, std::__ndk1::char_traits<char>, std::__ndk1::allocator<char> > const&, unsigned int)
PUBLIC 93804 0 std::__ndk1::getline[abi:v170000]<char, std::__ndk1::char_traits<char>, std::__ndk1::allocator<char> >(std::__ndk1::basic_istream<char, std::__ndk1::char_traits<char> >, std::__ndk1::basic_string<std::__ndk1::basic_istream, char, std::__ndk1::allocator<char> >&, std::__ndk1::basic_istream)
PUBLIC 939bc 0 std::__ndk1::vector<std::__ndk1::basic_string<char, std::__ndk1::char_traits<char>, std::__ndk1::allocator<char> >, std::__ndk1::allocator<std::__ndk1::basic_string<char, std::__ndk1::char_traits<char>, std::__ndk1::allocator<char> > > >::~vector[abi:v170000]()
PUBLIC 93a38 0 std::__ndk1::basic_stringstream<char, std::__ndk1::char_traits<char>, std::__ndk1::allocator<char> >::~basic_stringstream()
PUBLIC 93ac4 0 EventsPush::onClickBtn(cocos2d::CCObject*)
PUBLIC 93f38 0 std::__ndk1::operator+[abi:v170000]<char, std::__ndk1::char_traits<char>, std::__ndk1::allocator<char> >(std::__ndk1::basic_string const*, std::__ndk1::allocator<char>&&)
PUBLIC 93f94 0 geode::utils::web::AsyncWebResult<std::__ndk1::basic_string<char, std::__ndk1::char_traits<char>, std::__ndk1::allocator<char> > >::then(geode::utils::MiniFunction<void (std::__ndk1::basic_string<char, std::__ndk1::char_traits<char>, std::__ndk1::allocator<char> >)>)
PUBLIC 940f0 0 EventsPush::init(std::__ndk1::shared_ptr<sio::message> const&)
PUBLIC 966d4 0 geode::Mod::get<void>()
PUBLIC 96710 0 std::__ndk1::operator+[abi:v170000]<char, std::__ndk1::char_traits<char>, std::__ndk1::allocator<char> >(std::__ndk1::allocator<char>&&, std::__ndk1::basic_string const*)
PUBLIC 9676c 0 cocos2d::CCSequence::create(cocos2d::CCFiniteTimeAction*, ...)
PUBLIC 96804 0 EventsPush::stopNow(cocos2d::CCScene*)
PUBLIC 96810 0 EventsPush::pushRateLevel(cocos2d::CCScene*, std::__ndk1::shared_ptr<sio::message> const&)
PUBLIC 9692c 0 EventsPush::processNextEvent(cocos2d::CCScene*)
PUBLIC 96ad0 0 EventsPush::~EventsPush()
PUBLIC 96af4 0 {virtual override thunk({offset(-320)}, EventsPush::~EventsPush())}
PUBLIC 96afc 0 {virtual override thunk({offset(-320)}, EventsPush::~EventsPush())}
PUBLIC 96b24 0 std::__throw_bad_array_new_length([abi:v170000], void)
PUBLIC 96b58 0 std::__ndk1::deque<std::__ndk1::shared_ptr<sio::message>, std::__ndk1::allocator<std::__ndk1::shared_ptr<sio::message> > >::~deque[abi:v170000]()
PUBLIC 96d0c 0 std::__ndk1::vector<std::__ndk1::basic_string<char, std::__ndk1::char_traits<char>, std::__ndk1::allocator<char> >, std::__ndk1::allocator<std::__ndk1::basic_string<char, std::__ndk1::char_traits<char>, std::__ndk1::allocator<char> > > >::__push_back_slow_path<std::__ndk1::basic_string<char, std::__ndk1::char_traits<char>, std::__ndk1::allocator<char> > const&>(std::__ndk1::basic_string<char, std::__ndk1::char_traits<char>, std::__ndk1::allocator<char> > const&)
PUBLIC 96fac 0 std::__ndk1::__split_buffer<std::__ndk1::basic_string<char, std::__ndk1::char_traits<char>, std::__ndk1::allocator<char> >, std::__ndk1::allocator<std::__ndk1::basic_string<char, std::__ndk1::char_traits<char>, std::__ndk1::allocator<char> > >&>::~__split_buffer()
PUBLIC 97014 0 std::__ndk1::vector<std::__ndk1::basic_string<char, std::__ndk1::char_traits<char>, std::__ndk1::allocator<char> >, std::__ndk1::allocator<std::__ndk1::basic_string<char, std::__ndk1::char_traits<char>, std::__ndk1::allocator<char> > > >::__throw_length_error[abi:v170000]() const
PUBLIC 97028 0 {virtual override thunk({offset(-16)}, std::__ndk1::basic_stringstream<char, std::__ndk1::char_traits<char>, std::__ndk1::allocator<char> >::~basic_stringstream())}
PUBLIC 970b4 0 {virtual override thunk({virtual offset(0, -24)}, std::__ndk1::basic_stringstream<char, std::__ndk1::char_traits<char>, std::__ndk1::allocator<char> >::~basic_stringstream())}
PUBLIC 97148 0 std::__ndk1::basic_stringstream<char, std::__ndk1::char_traits<char>, std::__ndk1::allocator<char> >::~basic_stringstream()
PUBLIC 971dc 0 {virtual override thunk({offset(-16)}, std::__ndk1::basic_stringstream<char, std::__ndk1::char_traits<char>, std::__ndk1::allocator<char> >::~basic_stringstream())}
PUBLIC 97270 0 {virtual override thunk({virtual offset(0, -24)}, std::__ndk1::basic_stringstream<char, std::__ndk1::char_traits<char>, std::__ndk1::allocator<char> >::~basic_stringstream())}
PUBLIC 9730c 0 std::__ndk1::basic_stringbuf<char, std::__ndk1::char_traits<char>, std::__ndk1::allocator<char> >::~basic_stringbuf()
PUBLIC 9734c 0 std::__ndk1::basic_stringbuf<char, std::__ndk1::char_traits<char>, std::__ndk1::allocator<char> >::~basic_stringbuf()
PUBLIC 97394 0 std::__ndk1::basic_stringbuf<char, std::__ndk1::char_traits<char>, std::__ndk1::allocator<char> >::seekoff(long long, std::__ndk1::ios_base::seekdir, unsigned int)
PUBLIC 974b8 0 std::__ndk1::basic_stringbuf<char, std::__ndk1::char_traits<char>, std::__ndk1::allocator<char> >::seekpos(std::__ndk1::fpos<mbstate_t>, unsigned int)
PUBLIC 974cc 0 std::__ndk1::basic_stringbuf<char, std::__ndk1::char_traits<char>, std::__ndk1::allocator<char> >::underflow()
PUBLIC 9751c 0 std::__ndk1::basic_stringbuf<char, std::__ndk1::char_traits<char>, std::__ndk1::allocator<char> >::pbackfail(int)
PUBLIC 9758c 0 std::__ndk1::basic_stringbuf<char, std::__ndk1::char_traits<char>, std::__ndk1::allocator<char> >::overflow(int)
PUBLIC 97770 0 std::__ndk1::__tree<std::__ndk1::__value_type<std::__ndk1::basic_string<char, std::__ndk1::char_traits<char>, std::__ndk1::allocator<char> >, std::__ndk1::shared_ptr<sio::message> >, std::__ndk1::__map_value_compare<std::__ndk1::basic_string<char, std::__ndk1::char_traits<char>, std::__ndk1::allocator<char> >, std::__ndk1::__value_type<std::__ndk1::basic_string<char, std::__ndk1::char_traits<char>, std::__ndk1::allocator<char> >, std::__ndk1::shared_ptr<sio::message> >, std::__ndk1::less<std::__ndk1::basic_string<char, std::__ndk1::char_traits<char>, std::__ndk1::allocator<char> > >, true>, std::__ndk1::allocator<std::__ndk1::__value_type<std::__ndk1::basic_string<char, std::__ndk1::char_traits<char>, std::__ndk1::allocator<char> >, std::__ndk1::shared_ptr<sio::message> > > >::find<std::__ndk1::basic_string<char, std::__ndk1::char_traits<char>, std::__ndk1::allocator<char> > >(std::__ndk1::basic_string<char, std::__ndk1::char_traits<char>, std::__ndk1::allocator<char> > const&)
PUBLIC 9787c 0 std::__ndk1::basic_stringbuf<char, std::__ndk1::char_traits<char>, std::__ndk1::allocator<char> >::str(std::__ndk1::basic_string<char, std::__ndk1::char_traits<char>, std::__ndk1::allocator<char> > const&)
PUBLIC 979e8 0 geode::utils::MiniFunctionState<geode::utils::web::AsyncWebResult<std::__ndk1::basic_string<char, std::__ndk1::char_traits<char>, std::__ndk1::allocator<char> > >::then(geode::utils::MiniFunction<void (std::__ndk1::basic_string<char, std::__ndk1::char_traits<char>, std::__ndk1::allocator<char> >)>)::{lambda(geode::utils::web::SentAsyncWebRequest&, std::__ndk1::vector<unsigned char, std::__ndk1::allocator<unsigned char> > const&)#1}, void, geode::utils::web::SentAsyncWebRequest&, std::__ndk1::vector<unsigned char, std::__ndk1::allocator<unsigned char> > const&>::~MiniFunctionState()
PUBLIC 97a00 0 geode::utils::MiniFunctionState<geode::utils::web::AsyncWebResult<std::__ndk1::basic_string<char, std::__ndk1::char_traits<char>, std::__ndk1::allocator<char> > >::then(geode::utils::MiniFunction<void (std::__ndk1::basic_string<char, std::__ndk1::char_traits<char>, std::__ndk1::allocator<char> >)>)::{lambda(geode::utils::web::SentAsyncWebRequest&, std::__ndk1::vector<unsigned char, std::__ndk1::allocator<unsigned char> > const&)#1}, void, geode::utils::web::SentAsyncWebRequest&, std::__ndk1::vector<unsigned char, std::__ndk1::allocator<unsigned char> > const&>::~MiniFunctionState()
PUBLIC 97a34 0 geode::utils::MiniFunctionState<geode::utils::web::AsyncWebResult<std::__ndk1::basic_string<char, std::__ndk1::char_traits<char>, std::__ndk1::allocator<char> > >::then(geode::utils::MiniFunction<void (std::__ndk1::basic_string<char, std::__ndk1::char_traits<char>, std::__ndk1::allocator<char> >)>)::{lambda(geode::utils::web::SentAsyncWebRequest&, std::__ndk1::vector<unsigned char, std::__ndk1::allocator<unsigned char> > const&)#1}, void, geode::utils::web::SentAsyncWebRequest&, std::__ndk1::vector<unsigned char, std::__ndk1::allocator<unsigned char> > const&>::call(geode::utils::web::SentAsyncWebRequest&, std::__ndk1::vector<unsigned char, std::__ndk1::allocator<unsigned char> > const&) const
PUBLIC 97a3c 0 geode::utils::MiniFunctionState<geode::utils::web::AsyncWebResult<std::__ndk1::basic_string<char, std::__ndk1::char_traits<char>, std::__ndk1::allocator<char> > >::then(geode::utils::MiniFunction<void (std::__ndk1::basic_string<char, std::__ndk1::char_traits<char>, std::__ndk1::allocator<char> >)>)::{lambda(geode::utils::web::SentAsyncWebRequest&, std::__ndk1::vector<unsigned char, std::__ndk1::allocator<unsigned char> > const&)#1}, void, geode::utils::web::SentAsyncWebRequest&, std::__ndk1::vector<unsigned char, std::__ndk1::allocator<unsigned char> > const&>::clone() const
PUBLIC 97ab8 0 geode::utils::web::AsyncWebResult<std::__ndk1::basic_string<char, std::__ndk1::char_traits<char>, std::__ndk1::allocator<char> > >::then(geode::utils::MiniFunction<void (std::__ndk1::basic_string<char, std::__ndk1::char_traits<char>, std::__ndk1::allocator<char> >)>)::{lambda(geode::utils::web::SentAsyncWebRequest&, std::__ndk1::vector<unsigned char, std::__ndk1::allocator<unsigned char> > const&)#1}::operator()(geode::utils::web::SentAsyncWebRequest&, std::__ndk1::vector<unsigned char, std::__ndk1::allocator<unsigned char> > const&) const
PUBLIC 97d3c 0 geode::utils::MiniFunction<void (std::__ndk1::basic_string<char, std::__ndk1::char_traits<char>, std::__ndk1::allocator<char> >)>::operator()(std::__ndk1::basic_string<char, std::__ndk1::char_traits<char>, std::__ndk1::allocator<char> >) const
PUBLIC 97e64 0 geode::Result<std::__ndk1::basic_string<char, std::__ndk1::char_traits<char>, std::__ndk1::allocator<char> >, std::__ndk1::basic_string<char, std::__ndk1::char_traits<char>, std::__ndk1::allocator<char> > >::unwrap() &
PUBLIC 97f64 0 geode::utils::MiniFunctionStateBase<void, std::__ndk1::basic_string<char, std::__ndk1::char_traits<char>, std::__ndk1::allocator<char> > >::~MiniFunctionStateBase()
PUBLIC 97f68 0 geode::utils::MiniFunctionState<EventsPush::onClickBtn(cocos2d::CCObject*)::$_0, void, std::__ndk1::basic_string<char, std::__ndk1::char_traits<char>, std::__ndk1::allocator<char> > >::~MiniFunctionState()
PUBLIC 97f6c 0 geode::utils::MiniFunctionState<EventsPush::onClickBtn(cocos2d::CCObject*)::$_0, void, std::__ndk1::basic_string<char, std::__ndk1::char_traits<char>, std::__ndk1::allocator<char> > >::call(std::__ndk1::basic_string<char, std::__ndk1::char_traits<char>, std::__ndk1::allocator<char> >) const
PUBLIC 98078 0 geode::utils::MiniFunctionState<EventsPush::onClickBtn(cocos2d::CCObject*)::$_0, void, std::__ndk1::basic_string<char, std::__ndk1::char_traits<char>, std::__ndk1::allocator<char> > >::clone() const
PUBLIC 9809c 0 geode::utils::MiniFunctionState<EventsPush::onClickBtn(cocos2d::CCObject*)::$_1, void, std::__ndk1::basic_string<char, std::__ndk1::char_traits<char>, std::__ndk1::allocator<char> > const&>::~MiniFunctionState()
PUBLIC 980a0 0 geode::utils::MiniFunctionState<EventsPush::onClickBtn(cocos2d::CCObject*)::$_1, void, std::__ndk1::basic_string<char, std::__ndk1::char_traits<char>, std::__ndk1::allocator<char> > const&>::call(std::__ndk1::basic_string<char, std::__ndk1::char_traits<char>, std::__ndk1::allocator<char> > const&) const
PUBLIC 98124 0 geode::utils::MiniFunctionState<EventsPush::onClickBtn(cocos2d::CCObject*)::$_1, void, std::__ndk1::basic_string<char, std::__ndk1::char_traits<char>, std::__ndk1::allocator<char> > const&>::clone() const
PUBLIC 98148 0 std::__ndk1::map<std::__ndk1::basic_string<char, std::__ndk1::char_traits<char>, std::__ndk1::allocator<char> >, std::__ndk1::shared_ptr<sio::message>, std::__ndk1::less<std::__ndk1::basic_string<char, std::__ndk1::char_traits<char>, std::__ndk1::allocator<char> > >, std::__ndk1::allocator<std::__ndk1::pair<std::__ndk1::basic_string<char, std::__ndk1::char_traits<char>, std::__ndk1::allocator<char> > const, std::__ndk1::shared_ptr<sio::message> > > >::insert[abi:v170000]<std::__ndk1::__map_const_iterator<std::__ndk1::__tree_const_iterator<std::__ndk1::__value_type<std::__ndk1::basic_string<char, std::__ndk1::char_traits<char>, std::__ndk1::allocator<char> >, std::__ndk1::shared_ptr<sio::message> >, std::__ndk1::__tree_node<std::__ndk1::__value_type, void*>*, long> > >(std::__ndk1::__map_const_iterator<std::__ndk1::__tree_const_iterator<std::__ndk1::__value_type<std::__ndk1::basic_string<char, std::__ndk1::char_traits<char>, std::__ndk1::allocator<char> >, std::__ndk1::shared_ptr<sio::message> >, std::__ndk1::__tree_node<std::__ndk1::__value_type, void*>*, long> >, std::__ndk1::__map_const_iterator<std::__ndk1::__tree_const_iterator<std::__ndk1::__value_type<std::__ndk1::basic_string<char, std::__ndk1::char_traits<char>, std::__ndk1::allocator<char> >, std::__ndk1::shared_ptr<sio::message> >, std::__ndk1::__tree_node<std::__ndk1::__value_type, void*>*, long> >)
PUBLIC 98274 0 std::__ndk1::__tree<std::__ndk1::__value_type<std::__ndk1::basic_string<char, std::__ndk1::char_traits<char>, std::__ndk1::allocator<char> >, std::__ndk1::shared_ptr<sio::message> >, std::__ndk1::__map_value_compare<std::__ndk1::basic_string<char, std::__ndk1::char_traits<char>, std::__ndk1::allocator<char> >, std::__ndk1::__value_type<std::__ndk1::basic_string<char, std::__ndk1::char_traits<char>, std::__ndk1::allocator<char> >, std::__ndk1::shared_ptr<sio::message> >, std::__ndk1::less<std::__ndk1::basic_string<char, std::__ndk1::char_traits<char>, std::__ndk1::allocator<char> > >, true>, std::__ndk1::allocator<std::__ndk1::__value_type<std::__ndk1::basic_string<char, std::__ndk1::char_traits<char>, std::__ndk1::allocator<char> >, std::__ndk1::shared_ptr<sio::message> > > >::__find_equal<std::__ndk1::basic_string<char, std::__ndk1::char_traits<char>, std::__ndk1::allocator<char> > >(std::__ndk1::__tree_const_iterator<std::__ndk1::__value_type<std::__ndk1::basic_string<char, std::__ndk1::char_traits<char>, std::__ndk1::allocator<char> >, std::__ndk1::shared_ptr<sio::message> >, std::__ndk1::__tree_node<std::__ndk1::__value_type<std::__ndk1::basic_string<char, std::__ndk1::char_traits<char>, std::__ndk1::allocator<char> >, std::__ndk1::shared_ptr<sio::message> >, void*>*, long>, std::__ndk1::__tree_end_node<std::__ndk1::__tree_node_base<void*>*>*&, std::__ndk1::__tree_node_base<void*>*&, std::__ndk1::basic_string<char, std::__ndk1::char_traits<char>, std::__ndk1::allocator<char> > const&)
PUBLIC 98518 0 std::__ndk1::__tree<std::__ndk1::__value_type<std::__ndk1::basic_string<char, std::__ndk1::char_traits<char>, std::__ndk1::allocator<char> >, std::__ndk1::shared_ptr<sio::message> >, std::__ndk1::__map_value_compare<std::__ndk1::basic_string<char, std::__ndk1::char_traits<char>, std::__ndk1::allocator<char> >, std::__ndk1::__value_type<std::__ndk1::basic_string<char, std::__ndk1::char_traits<char>, std::__ndk1::allocator<char> >, std::__ndk1::shared_ptr<sio::message> >, std::__ndk1::less<std::__ndk1::basic_string<char, std::__ndk1::char_traits<char>, std::__ndk1::allocator<char> > >, true>, std::__ndk1::allocator<std::__ndk1::__value_type<std::__ndk1::basic_string<char, std::__ndk1::char_traits<char>, std::__ndk1::allocator<char> >, std::__ndk1::shared_ptr<sio::message> > > >::__construct_node<std::__ndk1::pair<std::__ndk1::basic_string<char, std::__ndk1::char_traits<char>, std::__ndk1::allocator<char> > const, std::__ndk1::shared_ptr<sio::message> > const&>(std::__ndk1::pair<std::__ndk1::basic_string<char, std::__ndk1::char_traits<char>, std::__ndk1::allocator<char> > const, std::__ndk1::shared_ptr<sio::message> > const&)
PUBLIC 98610 0 std::__ndk1::unique_ptr<std::__ndk1::__tree_node<std::__ndk1::__value_type<std::__ndk1::basic_string<char, std::__ndk1::char_traits<char>, std::__ndk1::allocator<char> >, std::__ndk1::shared_ptr<sio::message> >, void*>, std::__ndk1::__tree_node_destructor<std::__ndk1::allocator<std::__ndk1::__tree_node<std::__ndk1::__value_type<std::__ndk1::basic_string<char, std::__ndk1::char_traits<char>, std::__ndk1::allocator<char> >, std::__ndk1::shared_ptr<sio::message> >, void*> > > >::~unique_ptr[abi:v170000]()
PUBLIC 98698 0 std::__ndk1::deque<std::__ndk1::shared_ptr<sio::message>, std::__ndk1::allocator<std::__ndk1::shared_ptr<sio::message> > >::__add_back_capacity()
PUBLIC 98c98 0 std::__ndk1::__split_buffer<std::__ndk1::shared_ptr<sio::message>*, std::__ndk1::allocator<std::__ndk1::shared_ptr<sio::message>*> >::push_back(std::__ndk1::shared_ptr<sio::message>*&&)
PUBLIC 98e1c 0 std::__ndk1::__split_buffer<std::__ndk1::shared_ptr<sio::message>*, std::__ndk1::allocator<std::__ndk1::shared_ptr<sio::message>*> >::push_front(std::__ndk1::shared_ptr<sio::message>*&&)
PUBLIC 98fac 0 _GLOBAL__sub_I_EventsPush.cpp
PUBLIC 9902c 0 InfoNewLayer::onCopyLevelURL(cocos2d::CCObject*)
PUBLIC 99300 0 MoreLeaderboards::getWords(std::__ndk1::basic_string<char, std::__ndk1::char_traits<char>, std::__ndk1::allocator<char> >, std::__ndk1::basic_string<char, std::__ndk1::char_traits<char>, std::__ndk1::allocator<char> >)
PUBLIC 99778 0 MoreLeaderboards::responseToDict(std::__ndk1::basic_string<char, std::__ndk1::char_traits<char>, std::__ndk1::allocator<char> > const&)
PUBLIC 99bc8 0 MoreLeaderboards::onMoreLeaderboards(cocos2d::CCObject*)
PUBLIC 99ca8 0 MoreLeaderboards::create(std::__ndk1::basic_string<char, std::__ndk1::char_traits<char>, std::__ndk1::allocator<char> >)
PUBLIC 99e68 0 MoreLeaderboards::onModsList(cocos2d::CCObject*)
PUBLIC 99f48 0 MoreLeaderboards::init(std::__ndk1::basic_string<char, std::__ndk1::char_traits<char>, std::__ndk1::allocator<char> >)
PUBLIC 9a6b0 0 MoreLeaderboards::backButton(cocos2d::CCObject*)
PUBLIC 9a6cc 0 MoreLeaderboards::onTab(cocos2d::CCObject*)
PUBLIC 9ab70 0 MoreLeaderboards::startLoadingMods()
PUBLIC 9ad28 0 MoreLeaderboards::loadPageMods()
PUBLIC 9ae5c 0 MoreLeaderboards::keyBackClicked()
PUBLIC 9ae7c 0 {virtual override thunk({offset(-336)}, MoreLeaderboards::keyBackClicked())}
PUBLIC 9ae9c 0 MoreLeaderboards::handle_request_mods(std::__ndk1::basic_string<char, std::__ndk1::char_traits<char>, std::__ndk1::allocator<char> > const&)
PUBLIC 9b2b8 0 MoreLeaderboards::startLoadingMore()
PUBLIC 9b96c 0 MoreLeaderboards::handle_request_more(std::__ndk1::basic_string<char, std::__ndk1::char_traits<char>, std::__ndk1::allocator<char> > const&)
PUBLIC 9bcfc 0 MoreLeaderboards::loadPageMore()
PUBLIC 9be50 0 MoreLeaderboards::~MoreLeaderboards()
PUBLIC 9be74 0 {virtual override thunk({offset(-320)}, MoreLeaderboards::~MoreLeaderboards())}
PUBLIC 9be7c 0 {virtual override thunk({offset(-320)}, MoreLeaderboards::~MoreLeaderboards())}
PUBLIC 9bea4 0 std::__ndk1::basic_string<char, std::__ndk1::char_traits<char>, std::__ndk1::allocator<char> >::__assign_external(char const*, unsigned long)
PUBLIC 9bfe0 0 geode::utils::MiniFunctionState<MoreLeaderboards::startLoadingMods()::$_0, void, std::__ndk1::basic_string<char, std::__ndk1::char_traits<char>, std::__ndk1::allocator<char> > >::~MiniFunctionState()
PUBLIC 9bfe4 0 geode::utils::MiniFunctionState<MoreLeaderboards::startLoadingMods()::$_0, void, std::__ndk1::basic_string<char, std::__ndk1::char_traits<char>, std::__ndk1::allocator<char> > >::call(std::__ndk1::basic_string<char, std::__ndk1::char_traits<char>, std::__ndk1::allocator<char> >) const
PUBLIC 9c018 0 geode::utils::MiniFunctionState<MoreLeaderboards::startLoadingMods()::$_0, void, std::__ndk1::basic_string<char, std::__ndk1::char_traits<char>, std::__ndk1::allocator<char> > >::clone() const
PUBLIC 9c04c 0 geode::utils::MiniFunctionState<MoreLeaderboards::startLoadingMods()::$_1, void, std::__ndk1::basic_string<char, std::__ndk1::char_traits<char>, std::__ndk1::allocator<char> > const&>::~MiniFunctionState()
PUBLIC 9c050 0 geode::utils::MiniFunctionState<MoreLeaderboards::startLoadingMods()::$_1, void, std::__ndk1::basic_string<char, std::__ndk1::char_traits<char>, std::__ndk1::allocator<char> > const&>::call(std::__ndk1::basic_string<char, std::__ndk1::char_traits<char>, std::__ndk1::allocator<char> > const&) const
PUBLIC 9c064 0 geode::utils::MiniFunctionState<MoreLeaderboards::startLoadingMods()::$_1, void, std::__ndk1::basic_string<char, std::__ndk1::char_traits<char>, std::__ndk1::allocator<char> > const&>::clone() const
PUBLIC 9c098 0 geode::utils::MiniFunctionState<MoreLeaderboards::startLoadingMore()::$_0, void, std::__ndk1::basic_string<char, std::__ndk1::char_traits<char>, std::__ndk1::allocator<char> > >::~MiniFunctionState()
PUBLIC 9c0ac 0 geode::utils::MiniFunctionState<MoreLeaderboards::startLoadingMore()::$_0, void, std::__ndk1::basic_string<char, std::__ndk1::char_traits<char>, std::__ndk1::allocator<char> > >::~MiniFunctionState()
PUBLIC 9c0dc 0 geode::utils::MiniFunctionState<MoreLeaderboards::startLoadingMore()::$_0, void, std::__ndk1::basic_string<char, std::__ndk1::char_traits<char>, std::__ndk1::allocator<char> > >::call(std::__ndk1::basic_string<char, std::__ndk1::char_traits<char>, std::__ndk1::allocator<char> >) const
PUBLIC 9c3d0 0 geode::utils::MiniFunctionState<MoreLeaderboards::startLoadingMore()::$_0, void, std::__ndk1::basic_string<char, std::__ndk1::char_traits<char>, std::__ndk1::allocator<char> > >::clone() const
PUBLIC 9c4ac 0 misc::getNodeName(cocos2d::CCObject*)
PUBLIC 9c590 0 geode::utils::MiniFunctionState<MoreLeaderboards::startLoadingMore()::$_0::operator()(std::__ndk1::basic_string<char, std::__ndk1::char_traits<char>, std::__ndk1::allocator<char> > const&) const::{lambda(auto:1, bool)#1}, void, FLAlertLayer*, bool>::~MiniFunctionState()
PUBLIC 9c594 0 geode::utils::MiniFunctionState<MoreLeaderboards::startLoadingMore()::$_0::operator()(std::__ndk1::basic_string<char, std::__ndk1::char_traits<char>, std::__ndk1::allocator<char> > const&) const::{lambda(auto:1, bool)#1}, void, FLAlertLayer*, bool>::call(FLAlertLayer*, bool) const
PUBLIC 9c5b4 0 geode::utils::MiniFunctionState<MoreLeaderboards::startLoadingMore()::$_0::operator()(std::__ndk1::basic_string<char, std::__ndk1::char_traits<char>, std::__ndk1::allocator<char> > const&) const::{lambda(auto:1, bool)#1}, void, FLAlertLayer*, bool>::clone() const
PUBLIC 9c5e8 0 geode::utils::MiniFunctionState<MoreLeaderboards::startLoadingMore()::$_1, void, std::__ndk1::basic_string<char, std::__ndk1::char_traits<char>, std::__ndk1::allocator<char> > const&>::~MiniFunctionState()
PUBLIC 9c5fc 0 geode::utils::MiniFunctionState<MoreLeaderboards::startLoadingMore()::$_1, void, std::__ndk1::basic_string<char, std::__ndk1::char_traits<char>, std::__ndk1::allocator<char> > const&>::~MiniFunctionState()
PUBLIC 9c62c 0 geode::utils::MiniFunctionState<MoreLeaderboards::startLoadingMore()::$_1, void, std::__ndk1::basic_string<char, std::__ndk1::char_traits<char>, std::__ndk1::allocator<char> > const&>::call(std::__ndk1::basic_string<char, std::__ndk1::char_traits<char>, std::__ndk1::allocator<char> > const&) const
PUBLIC 9c8c8 0 geode::utils::MiniFunctionState<MoreLeaderboards::startLoadingMore()::$_1, void, std::__ndk1::basic_string<char, std::__ndk1::char_traits<char>, std::__ndk1::allocator<char> > const&>::clone() const
PUBLIC 9c9a4 0 geode::utils::MiniFunctionStateBase<void, FLAlertLayer*, bool>::~MiniFunctionStateBase()
PUBLIC 9c9a8 0 geode::utils::MiniFunctionState<MoreLeaderboards::startLoadingMore()::$_1::operator()(std::__ndk1::basic_string<char, std::__ndk1::char_traits<char>, std::__ndk1::allocator<char> > const&) const::{lambda(auto:1, bool)#1}, void, FLAlertLayer*, bool>::~MiniFunctionState()
PUBLIC 9c9ac 0 geode::utils::MiniFunctionState<MoreLeaderboards::startLoadingMore()::$_1::operator()(std::__ndk1::basic_string<char, std::__ndk1::char_traits<char>, std::__ndk1::allocator<char> > const&) const::{lambda(auto:1, bool)#1}, void, FLAlertLayer*, bool>::call(FLAlertLayer*, bool) const
PUBLIC 9c9cc 0 geode::utils::MiniFunctionState<MoreLeaderboards::startLoadingMore()::$_1::operator()(std::__ndk1::basic_string<char, std::__ndk1::char_traits<char>, std::__ndk1::allocator<char> > const&) const::{lambda(auto:1, bool)#1}, void, FLAlertLayer*, bool>::clone() const
PUBLIC 9ca00 0 MoreLeaderboardsCell::loadFromDict(cocos2d::CCDictionary*)
PUBLIC 9d7e8 0 MoreLeaderboardsCell::callback_link(cocos2d::CCObject*)
PUBLIC 9d908 0 MoreLeaderboardsCell::callback_user(cocos2d::CCObject*)
PUBLIC 9dc98 0 MoreLeaderboardsCell::draw()
PUBLIC m 9dc9c 0 MoreLeaderboardsCell::MoreLeaderboardsCell(char const*, cocos2d::CCSize)
PUBLIC 9dd1c 0 MoreLeaderboardsCell::~MoreLeaderboardsCell()
PUBLIC 9dd40 0 {virtual override thunk({offset(-320)}, MoreLeaderboardsCell::~MoreLeaderboardsCell())}
PUBLIC 9dd48 0 {virtual override thunk({offset(-320)}, MoreLeaderboardsCell::~MoreLeaderboardsCell())}
PUBLIC 9dd70 0 std::__ndk1::__exception_guard<std::__ndk1::vector<std::__ndk1::basic_string<char, std::__ndk1::char_traits<char>, std::__ndk1::allocator<char> >, std::__ndk1::allocator<std::__ndk1::basic_string<char, std::__ndk1::char_traits<char>, std::__ndk1::allocator<char> > > >::__destroy_vector>::~__exception_guard[abi:v170000]()
PUBLIC 9ddfc 0 std::__ndk1::__uninitialized_allocator_copy[abi:v170000]<std::__ndk1::allocator<std::__ndk1::basic_string<char, std::__ndk1::char_traits<char>, std::__ndk1::__uninitialized_allocator_copy[abi:v170000]<char> > >, std::__ndk1::__uninitialized_allocator_copy[abi:v170000]<char>*, std::__ndk1::allocator<std::__ndk1::basic_string<char, std::__ndk1::char_traits<char>, std::__ndk1::__uninitialized_allocator_copy[abi:v170000]<char> > >, std::__ndk1::allocator<std::__ndk1::basic_string<char, std::__ndk1::char_traits<char>, std::__ndk1::__uninitialized_allocator_copy[abi:v170000]<char> > > >(std::__ndk1::allocator<std::__ndk1::basic_string<char, std::__ndk1::char_traits<char>, std::__ndk1::__uninitialized_allocator_copy[abi:v170000]<char> > >&, std::__ndk1::__uninitialized_allocator_copy[abi:v170000]<char>*, std::__ndk1::allocator<std::__ndk1::basic_string<char, std::__ndk1::char_traits<char>, std::__ndk1::__uninitialized_allocator_copy[abi:v170000]<char> > >, std::__ndk1::__uninitialized_allocator_copy[abi:v170000]<char>*)
PUBLIC 9df54 0 std::__ndk1::__exception_guard<std::__ndk1::_AllocatorDestroyRangeReverse<std::__ndk1::allocator<std::__ndk1::basic_string<char, std::__ndk1::char_traits<char>, std::__ndk1::allocator<char> > >, std::__ndk1::basic_string<char, std::__ndk1::char_traits<char>, std::__ndk1::allocator<char> >*> >::~__exception_guard[abi:v170000]()
PUBLIC 9dfb0 0 MoreLeaderboardsListView::create(cocos2d::CCArray*, float, float)
PUBLIC 9e0cc 0 MoreLeaderboardsListView::setupList(float)
PUBLIC 9e1bc 0 MoreLeaderboardsListView::calculateNodeCoverage(cocos2d::CCArray*)
PUBLIC 9e520 0 MoreLeaderboardsListView::loadCell(TableViewCell*, int)
PUBLIC 9e560 0 MoreLeaderboardsListView::getListCell(char const*)
PUBLIC 9e600 0 MoreLeaderboardsListView::~MoreLeaderboardsListView()
PUBLIC 9e624 0 {virtual override thunk({offset(-320)}, MoreLeaderboardsListView::~MoreLeaderboardsListView())}
PUBLIC 9e62c 0 {virtual override thunk({offset(-320)}, MoreLeaderboardsListView::~MoreLeaderboardsListView())}
PUBLIC 9e654 0 NewProfilePage::onBadgePressed(cocos2d::CCObject*)
PUBLIC 9e810 0 NewProfilePage::onGDUtilsBadgePressed(cocos2d::CCObject*)
PUBLIC 9e8c4 0 ProcessLambdas::callMenuHandler(cocos2d::CCLayer*, void (cocos2d::CCObject::*)(cocos2d::CCObject*))
PUBLIC 9e8e8 0 ProcessLambdas::processMenuHandler()
PUBLIC 9e938 0 ProcessLambdas::shouldProcessMenuHandler()
PUBLIC 9e944 0 std::__ndk1::unique_lock<std::__ndk1::mutex>::~unique_lock[abi:v170000]()
PUBLIC 9e958 0 std::__ndk1::shared_ptr<sio::socket>::~shared_ptr[abi:v170000]()
PUBLIC 9e9a8 0 ConnectionHandler::onSuccess()
PUBLIC 9ea2c 0 ConnectionHandler::onClose(sio::client::close_reason const&)
PUBLIC 9eb04 0 ConnectionHandler::onFail()
PUBLIC 9eb70 0 ConnectionHandler::onError(std::__ndk1::shared_ptr<sio::message> const&)
PUBLIC 9ec04 0 setSocket(std::__ndk1::shared_ptr<sio::socket>)
PUBLIC 9f010 0 sio::message::list::~list()
PUBLIC 9f0b8 0 start_socket_func()
PUBLIC 9f680 0 geode::log::error<std::__ndk1::basic_string<char, std::__ndk1::char_traits<char>, std::__ndk1::allocator<char> > >(fmt::v10::basic_format_string<char, fmt::v10::type_identity<decltype ((wrapCocosObj<std::__ndk1::basic_string<char, std::__ndk1::char_traits<char>, std::__ndk1::allocator<char> > >)((std::declval<std::__ndk1::basic_string<char, std::__ndk1::char_traits<char>, std::__ndk1::allocator<char> > >)()))>::type>, std::__ndk1::basic_string<char, std::__ndk1::char_traits<char>, std::__ndk1::allocator<char> >&&)
PUBLIC 9f710 0 processEvent(cocos2d::CCScene*)
PUBLIC 9f8bc 0 SearchUserLayer::onValidate(cocos2d::CCObject*)
PUBLIC 9f97c 0 FriendPage::searchUser(char const*)
PUBLIC 9fea0 0 std::__ndk1::unordered_map<int, int, std::__ndk1::hash<int>, std::__ndk1::equal_to<int>, std::__ndk1::allocator<std::__ndk1::pair<int const, int> > >::~unordered_map[abi:v170000]()
PUBLIC 9feec 0 url_encode(std::__ndk1::basic_string<char, std::__ndk1::char_traits<char>, std::__ndk1::allocator<char> > const&)
PUBLIC 9ffd8 0 geodeExecFunction1153<(anonymous namespace)::ExecFuncUnique1153>(geode::ModStateEvent*)
PUBLIC a0280 0 __cxx_global_var_init.26
PUBLIC a07f4 0 __cxx_global_var_init.28
PUBLIC a0d68 0 __cxx_global_var_init.30
PUBLIC a12dc 0 __cxx_global_var_init.31
PUBLIC a1850 0 __cxx_global_var_init.32
PUBLIC a1dc4 0 _GLOBAL__sub_I_main.cpp
PUBLIC a2028 0 geode::modifier::ModifyBase<geode::modifier::ModifyDerive<hook138<(anonymous namespace)::hook138Parent>, cocos2d::CCScheduler> >::~ModifyBase()
PUBLIC a2044 0 __cxx_global_var_init.27
PUBLIC a20ac 0 geode::modifier::ModifyBase<geode::modifier::ModifyDerive<FriendPage, FriendsProfilePage> >::~ModifyBase()
PUBLIC a20c8 0 geode::modifier::ModifyBase<geode::modifier::ModifyDerive<hook785<(anonymous namespace)::hook785Parent>, LeaderboardsLayer> >::~ModifyBase()
PUBLIC a20e4 0 __cxx_global_var_init.29
PUBLIC a214c 0 geode::modifier::ModifyBase<geode::modifier::ModifyDerive<SecretVault, SecretLayer2> >::~ModifyBase()
PUBLIC a2168 0 geode::modifier::ModifyBase<geode::modifier::ModifyDerive<hook912<(anonymous namespace)::hook912Parent>, LevelInfoLayer> >::~ModifyBase()
PUBLIC a2184 0 geode::modifier::ModifyBase<geode::modifier::ModifyDerive<hook1035<(anonymous namespace)::hook1035Parent>, InfoLayer> >::~ModifyBase()
PUBLIC a21a0 0 geode::modifier::ModifyBase<geode::modifier::ModifyDerive<hook1062<(anonymous namespace)::hook1062Parent>, ProfilePage> >::~ModifyBase()
PUBLIC a21bc 0 FriendPage::getCustomList(cocos2d::CCArray*)
PUBLIC a2524 0 misc::findNode(std::__ndk1::basic_string<char, std::__ndk1::char_traits<char>, std::__ndk1::allocator<char> >)
PUBLIC a27c0 0 std::__ndk1::__put_character_sequence[abi:v170000]<char, std::__ndk1::char_traits<char> >(std::__ndk1::basic_ostream<char, std::__ndk1::char_traits<char> >, std::__ndk1::basic_ostream const*, unsigned long)
PUBLIC a2964 0 std::__ndk1::__pad_and_output[abi:v170000]<char, std::__ndk1::char_traits<char> >(std::__ndk1::char_traits<char>, std::__ndk1::ostreambuf_iterator const*, std::__ndk1::ostreambuf_iterator const, std::__ndk1::ostreambuf_iterator const, std::__ndk1::ios_base&, std::__ndk1::ostreambuf_iterator)
PUBLIC a2b40 0 std::__ndk1::basic_string<char, std::__ndk1::char_traits<char>, std::__ndk1::allocator<char> >::__shrink_or_extend[abi:v170000](unsigned long)
PUBLIC a2c44 0 std::__ndk1::__function::__func<setSocket(std::__ndk1::shared_ptr<sio::socket>)::$_0, std::__ndk1::allocator<setSocket(std::__ndk1::shared_ptr<sio::socket>)::$_0>, void (std::__ndk1::basic_string<char, std::__ndk1::char_traits<char>, std::__ndk1::allocator<char> > const&, std::__ndk1::shared_ptr<sio::message> const&, bool, sio::message&::list)>::~__func()
PUBLIC a2c48 0 std::__ndk1::__function::__func<setSocket(std::__ndk1::shared_ptr<sio::socket>)::$_0, std::__ndk1::allocator<setSocket(std::__ndk1::shared_ptr<sio::socket>)::$_0>, void (std::__ndk1::basic_string<char, std::__ndk1::char_traits<char>, std::__ndk1::allocator<char> > const&, std::__ndk1::shared_ptr<sio::message> const&, bool, sio::message&::list)>::__clone() const
PUBLIC a2c6c 0 std::__ndk1::__function::__func<setSocket(std::__ndk1::shared_ptr<sio::socket>)::$_0, std::__ndk1::allocator<setSocket(std::__ndk1::shared_ptr<sio::socket>)::$_0>, void (std::__ndk1::basic_string<char, std::__ndk1::char_traits<char>, std::__ndk1::allocator<char> > const&, std::__ndk1::shared_ptr<sio::message> const&, bool, sio::message&::list)>::__clone(std::__ndk1::__function::__base<void (std::__ndk1::basic_string<char, std::__ndk1::char_traits<char>, std::__ndk1::allocator<char> > const&, std::__ndk1::shared_ptr<sio::message> const&, bool, sio::message&::list)>*) const
PUBLIC a2c7c 0 std::__ndk1::__function::__func<setSocket(std::__ndk1::shared_ptr<sio::socket>)::$_0, std::__ndk1::allocator<setSocket(std::__ndk1::shared_ptr<sio::socket>)::$_0>, void (std::__ndk1::basic_string<char, std::__ndk1::char_traits<char>, std::__ndk1::allocator<char> > const&, std::__ndk1::shared_ptr<sio::message> const&, bool, sio::message&::list)>::destroy()
PUBLIC a2c80 0 std::__ndk1::__function::__func<setSocket(std::__ndk1::shared_ptr<sio::socket>)::$_0, std::__ndk1::allocator<setSocket(std::__ndk1::shared_ptr<sio::socket>)::$_0>, void (std::__ndk1::basic_string<char, std::__ndk1::char_traits<char>, std::__ndk1::allocator<char> > const&, std::__ndk1::shared_ptr<sio::message> const&, bool, sio::message&::list)>::destroy_deallocate()
PUBLIC a2c84 0 std::__ndk1::__function::__func<setSocket(std::__ndk1::shared_ptr<sio::socket>)::$_0, std::__ndk1::allocator<setSocket(std::__ndk1::shared_ptr<sio::socket>)::$_0>, void (std::__ndk1::basic_string<char, std::__ndk1::char_traits<char>, std::__ndk1::allocator<char> > const&, std::__ndk1::shared_ptr<sio::message> const&, bool, sio::message&::list)>::operator()(std::__ndk1::basic_string<char, std::__ndk1::char_traits<char>, std::__ndk1::allocator<char> > const&, std::__ndk1::shared_ptr<sio::message> const&, bool&&, sio::message&::list)
PUBLIC a2d58 0 std::__ndk1::__function::__func<setSocket(std::__ndk1::shared_ptr<sio::socket>)::$_0, std::__ndk1::allocator<setSocket(std::__ndk1::shared_ptr<sio::socket>)::$_0>, void (std::__ndk1::basic_string<char, std::__ndk1::char_traits<char>, std::__ndk1::allocator<char> > const&, std::__ndk1::shared_ptr<sio::message> const&, bool, sio::message&::list)>::target(std::type_info const&) const
PUBLIC a2d74 0 std::__ndk1::__function::__func<setSocket(std::__ndk1::shared_ptr<sio::socket>)::$_0, std::__ndk1::allocator<setSocket(std::__ndk1::shared_ptr<sio::socket>)::$_0>, void (std::__ndk1::basic_string<char, std::__ndk1::char_traits<char>, std::__ndk1::allocator<char> > const&, std::__ndk1::shared_ptr<sio::message> const&, bool, sio::message&::list)>::target_type() const
PUBLIC a2d80 0 std::__ndk1::__function::__base<void (std::__ndk1::basic_string<char, std::__ndk1::char_traits<char>, std::__ndk1::allocator<char> > const&, std::__ndk1::shared_ptr<sio::message> const&, bool, sio::message&::list)>::~__base()
PUBLIC a2d84 0 std::__ndk1::__function::__func<setSocket(std::__ndk1::shared_ptr<sio::socket>)::$_1, std::__ndk1::allocator<setSocket(std::__ndk1::shared_ptr<sio::socket>)::$_1>, void (std::__ndk1::basic_string<char, std::__ndk1::char_traits<char>, std::__ndk1::allocator<char> > const&, std::__ndk1::shared_ptr<sio::message> const&, bool, sio::message&::list)>::~__func()
PUBLIC a2d88 0 std::__ndk1::__function::__func<setSocket(std::__ndk1::shared_ptr<sio::socket>)::$_1, std::__ndk1::allocator<setSocket(std::__ndk1::shared_ptr<sio::socket>)::$_1>, void (std::__ndk1::basic_string<char, std::__ndk1::char_traits<char>, std::__ndk1::allocator<char> > const&, std::__ndk1::shared_ptr<sio::message> const&, bool, sio::message&::list)>::__clone() const
PUBLIC a2dac 0 std::__ndk1::__function::__func<setSocket(std::__ndk1::shared_ptr<sio::socket>)::$_1, std::__ndk1::allocator<setSocket(std::__ndk1::shared_ptr<sio::socket>)::$_1>, void (std::__ndk1::basic_string<char, std::__ndk1::char_traits<char>, std::__ndk1::allocator<char> > const&, std::__ndk1::shared_ptr<sio::message> const&, bool, sio::message&::list)>::__clone(std::__ndk1::__function::__base<void (std::__ndk1::basic_string<char, std::__ndk1::char_traits<char>, std::__ndk1::allocator<char> > const&, std::__ndk1::shared_ptr<sio::message> const&, bool, sio::message&::list)>*) const
PUBLIC a2dbc 0 std::__ndk1::__function::__func<setSocket(std::__ndk1::shared_ptr<sio::socket>)::$_1, std::__ndk1::allocator<setSocket(std::__ndk1::shared_ptr<sio::socket>)::$_1>, void (std::__ndk1::basic_string<char, std::__ndk1::char_traits<char>, std::__ndk1::allocator<char> > const&, std::__ndk1::shared_ptr<sio::message> const&, bool, sio::message&::list)>::destroy()
PUBLIC a2dc0 0 std::__ndk1::__function::__func<setSocket(std::__ndk1::shared_ptr<sio::socket>)::$_1, std::__ndk1::allocator<setSocket(std::__ndk1::shared_ptr<sio::socket>)::$_1>, void (std::__ndk1::basic_string<char, std::__ndk1::char_traits<char>, std::__ndk1::allocator<char> > const&, std::__ndk1::shared_ptr<sio::message> const&, bool, sio::message&::list)>::destroy_deallocate()
PUBLIC a2dc4 0 std::__ndk1::__function::__func<setSocket(std::__ndk1::shared_ptr<sio::socket>)::$_1, std::__ndk1::allocator<setSocket(std::__ndk1::shared_ptr<sio::socket>)::$_1>, void (std::__ndk1::basic_string<char, std::__ndk1::char_traits<char>, std::__ndk1::allocator<char> > const&, std::__ndk1::shared_ptr<sio::message> const&, bool, sio::message&::list)>::operator()(std::__ndk1::basic_string<char, std::__ndk1::char_traits<char>, std::__ndk1::allocator<char> > const&, std::__ndk1::shared_ptr<sio::message> const&, bool&&, sio::message&::list)
PUBLIC a2e28 0 std::__ndk1::__function::__func<setSocket(std::__ndk1::shared_ptr<sio::socket>)::$_1, std::__ndk1::allocator<setSocket(std::__ndk1::shared_ptr<sio::socket>)::$_1>, void (std::__ndk1::basic_string<char, std::__ndk1::char_traits<char>, std::__ndk1::allocator<char> > const&, std::__ndk1::shared_ptr<sio::message> const&, bool, sio::message&::list)>::target(std::type_info const&) const
PUBLIC a2e44 0 std::__ndk1::__function::__func<setSocket(std::__ndk1::shared_ptr<sio::socket>)::$_1, std::__ndk1::allocator<setSocket(std::__ndk1::shared_ptr<sio::socket>)::$_1>, void (std::__ndk1::basic_string<char, std::__ndk1::char_traits<char>, std::__ndk1::allocator<char> > const&, std::__ndk1::shared_ptr<sio::message> const&, bool, sio::message&::list)>::target_type() const
PUBLIC a2e50 0 std::__ndk1::__function::__base<void ()>::~__base()
PUBLIC a2e54 0 std::__ndk1::__function::__func<void (*)(), std::__ndk1::allocator<void (*)()>, void ()>::~__func()
PUBLIC a2e58 0 std::__ndk1::__function::__func<void (*)(), std::__ndk1::allocator<void (*)()>, void ()>::__clone() const
PUBLIC a2e8c 0 std::__ndk1::__function::__func<void (*)(), std::__ndk1::allocator<void (*)()>, void ()>::__clone(std::__ndk1::__function::__base<void ()>*) const
PUBLIC a2ea0 0 std::__ndk1::__function::__func<void (*)(), std::__ndk1::allocator<void (*)()>, void ()>::destroy()
PUBLIC a2ea4 0 std::__ndk1::__function::__func<void (*)(), std::__ndk1::allocator<void (*)()>, void ()>::destroy_deallocate()
PUBLIC a2ea8 0 std::__ndk1::__function::__func<void (*)(), std::__ndk1::allocator<void (*)()>, void ()>::operator()()
PUBLIC a2eb0 0 std::__ndk1::__function::__func<void (*)(), std::__ndk1::allocator<void (*)()>, void ()>::target(std::type_info const&) const
PUBLIC a2ecc 0 std::__ndk1::__function::__func<void (*)(), std::__ndk1::allocator<void (*)()>, void ()>::target_type() const
PUBLIC a2ed8 0 std::__ndk1::__function::__func<void (*)(sio::client::close_reason const&), std::__ndk1::allocator<void (*)(sio::client::close_reason const&)>, void (sio::client::close_reason const&)>::~__func()
PUBLIC a2edc 0 std::__ndk1::__function::__func<void (*)(sio::client::close_reason const&), std::__ndk1::allocator<void (*)(sio::client::close_reason const&)>, void (sio::client::close_reason const&)>::__clone() const
PUBLIC a2f10 0 std::__ndk1::__function::__func<void (*)(sio::client::close_reason const&), std::__ndk1::allocator<void (*)(sio::client::close_reason const&)>, void (sio::client::close_reason const&)>::__clone(std::__ndk1::__function::__base<void (sio::client::close_reason const&)>*) const
PUBLIC a2f24 0 std::__ndk1::__function::__func<void (*)(sio::client::close_reason const&), std::__ndk1::allocator<void (*)(sio::client::close_reason const&)>, void (sio::client::close_reason const&)>::destroy()
PUBLIC a2f28 0 std::__ndk1::__function::__func<void (*)(sio::client::close_reason const&), std::__ndk1::allocator<void (*)(sio::client::close_reason const&)>, void (sio::client::close_reason const&)>::destroy_deallocate()
PUBLIC a2f2c 0 std::__ndk1::__function::__func<void (*)(sio::client::close_reason const&), std::__ndk1::allocator<void (*)(sio::client::close_reason const&)>, void (sio::client::close_reason const&)>::operator()(sio::client::close_reason const&)
PUBLIC a2f38 0 std::__ndk1::__function::__func<void (*)(sio::client::close_reason const&), std::__ndk1::allocator<void (*)(sio::client::close_reason const&)>, void (sio::client::close_reason const&)>::target(std::type_info const&) const
PUBLIC a2f54 0 std::__ndk1::__function::__func<void (*)(sio::client::close_reason const&), std::__ndk1::allocator<void (*)(sio::client::close_reason const&)>, void (sio::client::close_reason const&)>::target_type() const
PUBLIC a2f60 0 std::__ndk1::__function::__base<void (sio::client::close_reason const&)>::~__base()
PUBLIC a2f64 0 std::__ndk1::__function::__base<void (std::__ndk1::shared_ptr<sio::message> const&)>::~__base()
PUBLIC a2f68 0 std::__ndk1::__function::__func<void (*)(std::__ndk1::shared_ptr<sio::message> const&), std::__ndk1::allocator<void (*)(std::__ndk1::shared_ptr<sio::message> const&)>, void (std::__ndk1::shared_ptr<sio::message> const&)>::~__func()
PUBLIC a2f6c 0 std::__ndk1::__function::__func<void (*)(std::__ndk1::shared_ptr<sio::message> const&), std::__ndk1::allocator<void (*)(std::__ndk1::shared_ptr<sio::message> const&)>, void (std::__ndk1::shared_ptr<sio::message> const&)>::__clone() const
PUBLIC a2fa0 0 std::__ndk1::__function::__func<void (*)(std::__ndk1::shared_ptr<sio::message> const&), std::__ndk1::allocator<void (*)(std::__ndk1::shared_ptr<sio::message> const&)>, void (std::__ndk1::shared_ptr<sio::message> const&)>::__clone(std::__ndk1::__function::__base<void (std::__ndk1::shared_ptr<sio::message> const&)>*) const
PUBLIC a2fb4 0 std::__ndk1::__function::__func<void (*)(std::__ndk1::shared_ptr<sio::message> const&), std::__ndk1::allocator<void (*)(std::__ndk1::shared_ptr<sio::message> const&)>, void (std::__ndk1::shared_ptr<sio::message> const&)>::destroy()
PUBLIC a2fb8 0 std::__ndk1::__function::__func<void (*)(std::__ndk1::shared_ptr<sio::message> const&), std::__ndk1::allocator<void (*)(std::__ndk1::shared_ptr<sio::message> const&)>, void (std::__ndk1::shared_ptr<sio::message> const&)>::destroy_deallocate()
PUBLIC a2fbc 0 std::__ndk1::__function::__func<void (*)(std::__ndk1::shared_ptr<sio::message> const&), std::__ndk1::allocator<void (*)(std::__ndk1::shared_ptr<sio::message> const&)>, void (std::__ndk1::shared_ptr<sio::message> const&)>::operator()(std::__ndk1::shared_ptr<sio::message> const&)
PUBLIC a2fc8 0 std::__ndk1::__function::__func<void (*)(std::__ndk1::shared_ptr<sio::message> const&), std::__ndk1::allocator<void (*)(std::__ndk1::shared_ptr<sio::message> const&)>, void (std::__ndk1::shared_ptr<sio::message> const&)>::target(std::type_info const&) const
PUBLIC a2fe4 0 std::__ndk1::__function::__func<void (*)(std::__ndk1::shared_ptr<sio::message> const&), std::__ndk1::allocator<void (*)(std::__ndk1::shared_ptr<sio::message> const&)>, void (std::__ndk1::shared_ptr<sio::message> const&)>::target_type() const
PUBLIC a2ff0 0 geode::modifier::ModifyDerive<hook138<(anonymous namespace)::hook138Parent>, cocos2d::CCScheduler>::apply()
PUBLIC a33c0 0 std::__ndk1::shared_ptr<geode::Hook>::~shared_ptr[abi:v170000]()
PUBLIC a3410 0 geode::modifier::ModifyBase<geode::modifier::ModifyDerive<hook138<(anonymous namespace)::hook138Parent>, cocos2d::CCScheduler> >::apply()
PUBLIC a3414 0 std::__ndk1::__tree<std::__ndk1::__value_type<std::__ndk1::basic_string<char, std::__ndk1::char_traits<char>, std::__ndk1::allocator<char> >, std::__ndk1::shared_ptr<geode::Hook> >, std::__ndk1::__map_value_compare<std::__ndk1::basic_string<char, std::__ndk1::char_traits<char>, std::__ndk1::allocator<char> >, std::__ndk1::__value_type<std::__ndk1::basic_string<char, std::__ndk1::char_traits<char>, std::__ndk1::allocator<char> >, std::__ndk1::shared_ptr<geode::Hook> >, std::__ndk1::less<std::__ndk1::basic_string<char, std::__ndk1::char_traits<char>, std::__ndk1::allocator<char> > >, true>, std::__ndk1::allocator<std::__ndk1::__value_type<std::__ndk1::basic_string<char, std::__ndk1::char_traits<char>, std::__ndk1::allocator<char> >, std::__ndk1::shared_ptr<geode::Hook> > > >::find<std::__ndk1::basic_string<char, std::__ndk1::char_traits<char>, std::__ndk1::allocator<char> > >(std::__ndk1::basic_string<char, std::__ndk1::char_traits<char>, std::__ndk1::allocator<char> > const&)
PUBLIC a3520 0 std::__ndk1::__tree<std::__ndk1::__value_type<std::__ndk1::basic_string<char, std::__ndk1::char_traits<char>, std::__ndk1::allocator<char> >, std::__ndk1::shared_ptr<geode::Hook> >, std::__ndk1::__map_value_compare<std::__ndk1::basic_string<char, std::__ndk1::char_traits<char>, std::__ndk1::allocator<char> >, std::__ndk1::__value_type<std::__ndk1::basic_string<char, std::__ndk1::char_traits<char>, std::__ndk1::allocator<char> >, std::__ndk1::shared_ptr<geode::Hook> >, std::__ndk1::less<std::__ndk1::basic_string<char, std::__ndk1::char_traits<char>, std::__ndk1::allocator<char> > >, true>, std::__ndk1::allocator<std::__ndk1::__value_type<std::__ndk1::basic_string<char, std::__ndk1::char_traits<char>, std::__ndk1::allocator<char> >, std::__ndk1::shared_ptr<geode::Hook> > > >::erase(std::__ndk1::__tree_const_iterator<std::__ndk1::__value_type<std::__ndk1::basic_string<char, std::__ndk1::char_traits<char>, std::__ndk1::allocator<char> >, std::__ndk1::shared_ptr<geode::Hook> >, std::__ndk1::__tree_node<std::__ndk1::__value_type<std::__ndk1::basic_string<char, std::__ndk1::char_traits<char>, std::__ndk1::allocator<char> >, std::__ndk1::shared_ptr<geode::Hook> >, void*>*, long>)
PUBLIC a35f4 0 std::__ndk1::__tree_remove[abi:v170000]<std::__ndk1::__tree_node_base<void*>*>(std::__ndk1::__tree_node_base<void*>*, std::__ndk1::__tree_node_base<void*>*)
PUBLIC a39c0 0 std::__ndk1::__tree<std::__ndk1::__value_type<std::__ndk1::basic_string<char, std::__ndk1::char_traits<char>, std::__ndk1::allocator<char> >, std::__ndk1::shared_ptr<geode::Hook> >, std::__ndk1::__map_value_compare<std::__ndk1::basic_string<char, std::__ndk1::char_traits<char>, std::__ndk1::allocator<char> >, std::__ndk1::__value_type<std::__ndk1::basic_string<char, std::__ndk1::char_traits<char>, std::__ndk1::allocator<char> >, std::__ndk1::shared_ptr<geode::Hook> >, std::__ndk1::less<std::__ndk1::basic_string<char, std::__ndk1::char_traits<char>, std::__ndk1::allocator<char> > >, true>, std::__ndk1::allocator<std::__ndk1::__value_type<std::__ndk1::basic_string<char, std::__ndk1::char_traits<char>, std::__ndk1::allocator<char> >, std::__ndk1::shared_ptr<geode::Hook> > > >::destroy(std::__ndk1::__tree_node<std::__ndk1::__value_type<std::__ndk1::basic_string<char, std::__ndk1::char_traits<char>, std::__ndk1::allocator<char> >, std::__ndk1::shared_ptr<geode::Hook> >, void*>*)
PUBLIC a3a4c 0 geode::modifier::AsStaticFunction_update<hook138<(anonymous namespace)::hook138Parent>, void (hook138<(anonymous namespace)::hook138Parent>::*)(float)>::Impl<void (hook138<(anonymous namespace)::hook138Parent>::*)(float)>::function(hook138<(anonymous namespace)::hook138Parent>*, float)
PUBLIC a3fcc 0 geode::addresser::Addresser::addressOfVirtual<void, cocos2d::CCScheduler, float>(void (cocos2d::CCScheduler::*)(float))
PUBLIC a40c4 0 std::__ndk1::shared_ptr<tulip::hook::CallingConvention>::~shared_ptr[abi:v170000]()
PUBLIC a4114 0 tulip::hook::HandlerMetadata::~HandlerMetadata()
PUBLIC a4178 0 std::__ndk1::__tree<std::__ndk1::__value_type<std::__ndk1::basic_string<char, std::__ndk1::char_traits<char>, std::__ndk1::allocator<char> >, std::__ndk1::shared_ptr<geode::Hook> >, std::__ndk1::__map_value_compare<std::__ndk1::basic_string<char, std::__ndk1::char_traits<char>, std::__ndk1::allocator<char> >, std::__ndk1::__value_type<std::__ndk1::basic_string<char, std::__ndk1::char_traits<char>, std::__ndk1::allocator<char> >, std::__ndk1::shared_ptr<geode::Hook> >, std::__ndk1::less<std::__ndk1::basic_string<char, std::__ndk1::char_traits<char>, std::__ndk1::allocator<char> > >, true>, std::__ndk1::allocator<std::__ndk1::__value_type<std::__ndk1::basic_string<char, std::__ndk1::char_traits<char>, std::__ndk1::allocator<char> >, std::__ndk1::shared_ptr<geode::Hook> > > >::__find_equal<std::__ndk1::basic_string<char, std::__ndk1::char_traits<char>, std::__ndk1::allocator<char> > >(std::__ndk1::__tree_end_node<std::__ndk1::__tree_node_base<void*>*>*&, std::__ndk1::basic_string<char, std::__ndk1::char_traits<char>, std::__ndk1::allocator<char> > const&)
PUBLIC a427c 0 geode::modifier::ModifyBase<geode::modifier::ModifyDerive<FriendPage, FriendsProfilePage> >::ModifyBase()
PUBLIC a4718 0 geode::modifier::ModifyDerive<FriendPage, FriendsProfilePage>::apply()
PUBLIC a49f4 0 geode::modifier::ModifyBase<geode::modifier::ModifyDerive<FriendPage, FriendsProfilePage> >::apply()
PUBLIC a49f8 0 geode::Hook::create<bool (*)(FriendPage*, UserListType)>(void*, bool (*)(FriendPage*, UserListType), std::__ndk1::basic_string<char, std::__ndk1::char_traits<char>, std::__ndk1::allocator<char> > const&, tulip::hook::TulipConvention, tulip::hook::HookMetadata const&)
PUBLIC a4b78 0 geode::modifier::AsStaticFunction_init<FriendPage, bool (FriendPage::*)(UserListType)>::Impl<bool (FriendPage::*)(UserListType)>::function(FriendPage*, UserListType)
PUBLIC a4b7c 0 FriendPage::init(UserListType)
PUBLIC a4ce8 0 FriendPage::onDown(cocos2d::CCObject*)
PUBLIC a4d18 0 FriendPage::onUp(cocos2d::CCObject*)
PUBLIC a4d48 0 FriendPage::onSearch(cocos2d::CCObject*)
PUBLIC a4d64 0 SearchUserLayer::create()
PUBLIC a4efc 0 SearchUserLayer::~SearchUserLayer()
PUBLIC a4f20 0 SearchUserLayer::setup()
PUBLIC a5040 0 SearchUserLayer::onClose(cocos2d::CCObject*)
PUBLIC a5044 0 {virtual override thunk({offset(-320)}, SearchUserLayer::~SearchUserLayer())}
PUBLIC a504c 0 {virtual override thunk({offset(-320)}, SearchUserLayer::~SearchUserLayer())}
PUBLIC a5074 0 geode::modifier::ModifyDerive<hook785<(anonymous namespace)::hook785Parent>, LeaderboardsLayer>::apply()
PUBLIC a543c 0 geode::modifier::ModifyBase<geode::modifier::ModifyDerive<hook785<(anonymous namespace)::hook785Parent>, LeaderboardsLayer> >::apply()
PUBLIC a5440 0 geode::modifier::AsStaticFunction_init<hook785<(anonymous namespace)::hook785Parent>, bool (hook785<(anonymous namespace)::hook785Parent>::*)(LeaderboardState)>::Impl<bool (hook785<(anonymous namespace)::hook785Parent>::*)(LeaderboardState)>::function(hook785<(anonymous namespace)::hook785Parent>*, LeaderboardState)
PUBLIC a5570 0 geode::modifier::ModifyBase<geode::modifier::ModifyDerive<SecretVault, SecretLayer2> >::ModifyBase()
PUBLIC a5a0c 0 geode::modifier::ModifyDerive<SecretVault, SecretLayer2>::apply()
PUBLIC a6134 0 geode::modifier::ModifyBase<geode::modifier::ModifyDerive<SecretVault, SecretLayer2> >::apply()
PUBLIC a6138 0 geode::Hook::create<void (*)(SecretVault*, cocos2d::CCObject*)>(void*, void (*)(SecretVault*, cocos2d::CCObject*), std::__ndk1::basic_string<char, std::__ndk1::char_traits<char>, std::__ndk1::allocator<char> > const&, tulip::hook::TulipConvention, tulip::hook::HookMetadata const&)
PUBLIC a62b8 0 geode::modifier::AsStaticFunction_onSubmit<SecretVault, void (SecretVault::*)(cocos2d::CCObject*)>::Impl<void (SecretVault::*)(cocos2d::CCObject*)>::function(SecretVault*, cocos2d::CCObject*)
PUBLIC a62bc 0 geode::Hook::create<void (*)(SecretVault*, char const*)>(void*, void (*)(SecretVault*, char const*), std::__ndk1::basic_string<char, std::__ndk1::char_traits<char>, std::__ndk1::allocator<char> > const&, tulip::hook::TulipConvention, tulip::hook::HookMetadata const&)
PUBLIC a643c 0 geode::modifier::AsStaticFunction_updateSearchLabel<SecretVault, void (SecretVault::*)(char const*)>::Impl<void (SecretVault::*)(char const*)>::function(SecretVault*, char const*)
PUBLIC a6488 0 geode::Hook::create<bool (*)(SecretVault*)>(void*, bool (*)(SecretVault*), std::__ndk1::basic_string<char, std::__ndk1::char_traits<char>, std::__ndk1::allocator<char> > const&, tulip::hook::TulipConvention, tulip::hook::HookMetadata const&)
PUBLIC a65bc 0 geode::modifier::AsStaticFunction_init<SecretVault, bool (SecretVault::*)()>::Impl<bool (SecretVault::*)()>::function(SecretVault*)
PUBLIC a65e0 0 SecretVault::onSubmit(cocos2d::CCObject*)
PUBLIC a6884 0 SecretVault::onLaunchBadApple(cocos2d::CCObject*)
PUBLIC a69dc 0 SecretVault::launchBadApple(cocos2d::CCObject*)
PUBLIC a6a1c 0 geode::addresser::Addresser::addressOfVirtual<bool, SecretLayer2, >(bool (SecretLayer2::*)())
PUBLIC a6b80 0 geode::modifier::ModifyDerive<hook912<(anonymous namespace)::hook912Parent>, LevelInfoLayer>::apply()
PUBLIC a6f80 0 geode::modifier::ModifyBase<geode::modifier::ModifyDerive<hook912<(anonymous namespace)::hook912Parent>, LevelInfoLayer> >::apply()
PUBLIC a6f84 0 geode::modifier::AsStaticFunction_init<hook912<(anonymous namespace)::hook912Parent>, bool (hook912<(anonymous namespace)::hook912Parent>::*)(GJGameLevel*, bool)>::Impl<bool (hook912<(anonymous namespace)::hook912Parent>::*)(GJGameLevel*, bool)>::function(hook912<(anonymous namespace)::hook912Parent>*, GJGameLevel*, bool)
PUBLIC a77bc 0 geode::utils::web::AsyncWebResult<matjson::Value>::then(geode::utils::MiniFunction<void (matjson::Value)>)
PUBLIC a7918 0 geode::utils::MiniFunctionState<geode::utils::web::AsyncWebResult<matjson::Value>::then(geode::utils::MiniFunction<void (matjson::Value)>)::{lambda(geode::utils::web::SentAsyncWebRequest&, std::__ndk1::vector<unsigned char, std::__ndk1::allocator<unsigned char> > const&)#1}, void, geode::utils::web::SentAsyncWebRequest&, std::__ndk1::vector<unsigned char, std::__ndk1::allocator<unsigned char> > const&>::~MiniFunctionState()
PUBLIC a7930 0 geode::utils::MiniFunctionState<geode::utils::web::AsyncWebResult<matjson::Value>::then(geode::utils::MiniFunction<void (matjson::Value)>)::{lambda(geode::utils::web::SentAsyncWebRequest&, std::__ndk1::vector<unsigned char, std::__ndk1::allocator<unsigned char> > const&)#1}, void, geode::utils::web::SentAsyncWebRequest&, std::__ndk1::vector<unsigned char, std::__ndk1::allocator<unsigned char> > const&>::~MiniFunctionState()
PUBLIC a7964 0 geode::utils::MiniFunctionState<geode::utils::web::AsyncWebResult<matjson::Value>::then(geode::utils::MiniFunction<void (matjson::Value)>)::{lambda(geode::utils::web::SentAsyncWebRequest&, std::__ndk1::vector<unsigned char, std::__ndk1::allocator<unsigned char> > const&)#1}, void, geode::utils::web::SentAsyncWebRequest&, std::__ndk1::vector<unsigned char, std::__ndk1::allocator<unsigned char> > const&>::call(geode::utils::web::SentAsyncWebRequest&, std::__ndk1::vector<unsigned char, std::__ndk1::allocator<unsigned char> > const&) const
PUBLIC a796c 0 geode::utils::MiniFunctionState<geode::utils::web::AsyncWebResult<matjson::Value>::then(geode::utils::MiniFunction<void (matjson::Value)>)::{lambda(geode::utils::web::SentAsyncWebRequest&, std::__ndk1::vector<unsigned char, std::__ndk1::allocator<unsigned char> > const&)#1}, void, geode::utils::web::SentAsyncWebRequest&, std::__ndk1::vector<unsigned char, std::__ndk1::allocator<unsigned char> > const&>::clone() const
PUBLIC a79e8 0 geode::utils::web::AsyncWebResult<matjson::Value>::then(geode::utils::MiniFunction<void (matjson::Value)>)::{lambda(geode::utils::web::SentAsyncWebRequest&, std::__ndk1::vector<unsigned char, std::__ndk1::allocator<unsigned char> > const&)#1}::operator()(geode::utils::web::SentAsyncWebRequest&, std::__ndk1::vector<unsigned char, std::__ndk1::allocator<unsigned char> > const&) const
PUBLIC a7c98 0 geode::Result<matjson::Value, std::__ndk1::basic_string<char, std::__ndk1::char_traits<char>, std::__ndk1::allocator<char> > >::unwrap() &
PUBLIC a7d98 0 cpp::bitwizeshift::result<matjson::Value, std::__ndk1::basic_string<char, std::__ndk1::char_traits<char>, std::__ndk1::allocator<char> > >::~result()
PUBLIC a7db8 0 geode::utils::MiniFunctionState<hook912<(anonymous namespace)::hook912Parent>::init(GJGameLevel*, bool)::{lambda(matjson::Value const&)#1}, void, matjson::Value>::~MiniFunctionState()
PUBLIC a7dbc 0 geode::utils::MiniFunctionState<hook912<(anonymous namespace)::hook912Parent>::init(GJGameLevel*, bool)::{lambda(matjson::Value const&)#1}, void, matjson::Value>::call(matjson::Value) const
PUBLIC a80c4 0 geode::utils::MiniFunctionState<hook912<(anonymous namespace)::hook912Parent>::init(GJGameLevel*, bool)::{lambda(matjson::Value const&)#1}, void, matjson::Value>::clone() const
PUBLIC a8114 0 geode::utils::MiniFunctionStateBase<void, matjson::Value>::~MiniFunctionStateBase()
PUBLIC a8118 0 std::__ndk1::__hash_table<std::__ndk1::__hash_value_type<int, int>, std::__ndk1::__unordered_map_hasher<int, std::__ndk1::__hash_value_type<int, int>, std::__ndk1::hash<int>, std::__ndk1::equal_to<int>, true>, std::__ndk1::__unordered_map_equal<int, std::__ndk1::__hash_value_type<int, int>, std::__ndk1::equal_to<int>, std::__ndk1::hash<int>, true>, std::__ndk1::allocator<std::__ndk1::__hash_value_type<int, int> > >::__emplace_unique_key_args<int, std::__ndk1::piecewise_construct_t const&, std::__ndk1::tuple<int const&>, std::__ndk1::tuple<> >(int const&, std::__ndk1::piecewise_construct_t const&, std::__ndk1::tuple<int const&>, std::__ndk1::tuple<>)
PUBLIC a8438 0 std::__ndk1::__hash_table<std::__ndk1::__hash_value_type<int, int>, std::__ndk1::__unordered_map_hasher<int, std::__ndk1::__hash_value_type<int, int>, std::__ndk1::hash<int>, std::__ndk1::equal_to<int>, true>, std::__ndk1::__unordered_map_equal<int, std::__ndk1::__hash_value_type<int, int>, std::__ndk1::equal_to<int>, std::__ndk1::hash<int>, true>, std::__ndk1::allocator<std::__ndk1::__hash_value_type<int, int> > >::__do_rehash<true>(unsigned long)
PUBLIC a8610 0 geode::utils::MiniFunctionState<hook912<(anonymous namespace)::hook912Parent>::init(GJGameLevel*, bool)::{lambda(std::__ndk1::basic_string<char, std::__ndk1::char_traits<char>, std::__ndk1::allocator<char> > const&)#1}, void, std::__ndk1::basic_string<char, std::__ndk1::char_traits<char>, std::__ndk1::allocator<char> > const&>::~MiniFunctionState()
PUBLIC a8614 0 geode::utils::MiniFunctionState<hook912<(anonymous namespace)::hook912Parent>::init(GJGameLevel*, bool)::{lambda(std::__ndk1::basic_string<char, std::__ndk1::char_traits<char>, std::__ndk1::allocator<char> > const&)#1}, void, std::__ndk1::basic_string<char, std::__ndk1::char_traits<char>, std::__ndk1::allocator<char> > const&>::call(std::__ndk1::basic_string<char, std::__ndk1::char_traits<char>, std::__ndk1::allocator<char> > const&) const
PUBLIC a872c 0 geode::utils::MiniFunctionState<hook912<(anonymous namespace)::hook912Parent>::init(GJGameLevel*, bool)::{lambda(std::__ndk1::basic_string<char, std::__ndk1::char_traits<char>, std::__ndk1::allocator<char> > const&)#1}, void, std::__ndk1::basic_string<char, std::__ndk1::char_traits<char>, std::__ndk1::allocator<char> > const&>::clone() const
PUBLIC a8764 0 geode::modifier::ModifyDerive<hook1035<(anonymous namespace)::hook1035Parent>, InfoLayer>::apply()
PUBLIC a8b60 0 geode::modifier::ModifyBase<geode::modifier::ModifyDerive<hook1035<(anonymous namespace)::hook1035Parent>, InfoLayer> >::apply()
PUBLIC a8b64 0 geode::modifier::AsStaticFunction_init<hook1035<(anonymous namespace)::hook1035Parent>, bool (hook1035<(anonymous namespace)::hook1035Parent>::*)(GJGameLevel*, GJUserScore*, GJLevelList*)>::Impl<bool (hook1035<(anonymous namespace)::hook1035Parent>::*)(GJGameLevel*, GJUserScore*, GJLevelList*)>::function(hook1035<(anonymous namespace)::hook1035Parent>*, GJGameLevel*, GJUserScore*, GJLevelList*)
PUBLIC a8d14 0 geode::modifier::ModifyDerive<hook1062<(anonymous namespace)::hook1062Parent>, ProfilePage>::apply()
PUBLIC a90dc 0 geode::modifier::ModifyBase<geode::modifier::ModifyDerive<hook1062<(anonymous namespace)::hook1062Parent>, ProfilePage> >::apply()
PUBLIC a90e0 0 geode::modifier::AsStaticFunction_loadPageFromUserInfo<hook1062<(anonymous namespace)::hook1062Parent>, void (hook1062<(anonymous namespace)::hook1062Parent>::*)(GJUserScore*)>::Impl<void (hook1062<(anonymous namespace)::hook1062Parent>::*)(GJUserScore*)>::function(hook1062<(anonymous namespace)::hook1062Parent>*, GJUserScore*)
PUBLIC a994c 0 std::__ndk1::thread::thread<void (&)(), , void>(&&)
PUBLIC a9a3c 0 geode::Mod::addCustomSetting<SettingTestValue, char [5]>(std::__ndk1::basic_string_view<char, std::__ndk1::char_traits<char> >, char const (&) [5])
PUBLIC a9c74 0 geode::Mod::addCustomSetting<SettingPosValue, int>(std::__ndk1::basic_string_view<char, std::__ndk1::char_traits<char> >, int const&)
PUBLIC a9ea0 0 geode::Mod::addCustomSetting<SettingSectionValue, char [5]>(std::__ndk1::basic_string_view<char, std::__ndk1::char_traits<char> >, char const (&) [5])
PUBLIC aa0d8 0 geode::Mod::addCustomSetting<SettingAppValue, char [12]>(std::__ndk1::basic_string_view<char, std::__ndk1::char_traits<char> >, char const (&) [12])
PUBLIC aa310 0 geode::Mod::addCustomSetting<SettingCreditsValue, char [5]>(std::__ndk1::basic_string_view<char, std::__ndk1::char_traits<char> >, char const (&) [5])
PUBLIC aa548 0 std::__ndk1::__thread_proxy[abi:v170000]<std::__ndk1::tuple<std::__ndk1::unique_ptr<std::__ndk1::__thread_struct, std::__ndk1::default_delete<std::__ndk1::unique_ptr> >, void (*)()> >(std::__ndk1::tuple<std::__ndk1::unique_ptr<std::__ndk1::__thread_struct, std::__ndk1::default_delete<std::__ndk1::unique_ptr> >, void (*)()>)
PUBLIC aa600 0 std::__ndk1::unique_ptr<std::__ndk1::tuple<std::__ndk1::unique_ptr<std::__ndk1::__thread_struct, std::__ndk1::default_delete<std::__ndk1::__thread_struct> >, void (*)()>, std::__ndk1::default_delete<std::__ndk1::tuple<std::__ndk1::unique_ptr<std::__ndk1::__thread_struct, std::__ndk1::default_delete<std::__ndk1::__thread_struct> >, void (*)()> > >::~unique_ptr[abi:v170000]()
PUBLIC aa650 0 std::__ndk1::unique_ptr<std::__ndk1::__thread_struct, std::__ndk1::default_delete<std::__ndk1::__thread_struct> >::~unique_ptr[abi:v170000]()
PUBLIC aa68c 0 std::__ndk1::make_unique[abi:v170000]<SettingTestValue, std::__ndk1::basic_string<char, std::__ndk1::char_traits<char>, std::__ndk1::allocator<char> >, std::__ndk1::allocator<char>, char const (&) [5]>(std::__ndk1::basic_string<char, std::__ndk1::char_traits<char>, std::__ndk1::allocator<char> >&&, std::__ndk1::allocator<char>, char const (&) [5])
PUBLIC aa880 0 std::__ndk1::make_unique[abi:v170000]<SettingSectionValue, std::__ndk1::basic_string<char, std::__ndk1::char_traits<char>, std::__ndk1::allocator<char> >, std::__ndk1::allocator<char>, char const (&) [5]>(std::__ndk1::basic_string<char, std::__ndk1::char_traits<char>, std::__ndk1::allocator<char> >&&, std::__ndk1::allocator<char>, char const (&) [5])
PUBLIC aaa74 0 std::__ndk1::make_unique[abi:v170000]<SettingAppValue, std::__ndk1::basic_string<char, std::__ndk1::char_traits<char>, std::__ndk1::allocator<char> >, std::__ndk1::allocator<char>, char const (&) [12]>(std::__ndk1::basic_string<char, std::__ndk1::char_traits<char>, std::__ndk1::allocator<char> >&&, std::__ndk1::allocator<char>, char const (&) [12])
PUBLIC aac68 0 std::__ndk1::make_unique[abi:v170000]<SettingCreditsValue, std::__ndk1::basic_string<char, std::__ndk1::char_traits<char>, std::__ndk1::allocator<char> >, std::__ndk1::allocator<char>, char const (&) [5]>(std::__ndk1::basic_string<char, std::__ndk1::char_traits<char>, std::__ndk1::allocator<char> >&&, std::__ndk1::allocator<char>, char const (&) [5])
PUBLIC aae5c 0 geode::EventListener<geode::ModStateFilter>::getPool() const
PUBLIC aae60 0 geode::EventListener<geode::ModStateFilter>::handle(geode::Event*)
PUBLIC aaf68 0 geode::EventListener<geode::ModStateFilter>::~EventListener()
PUBLIC aafa8 0 geode::EventListener<geode::ModStateFilter>::~EventListener()
PUBLIC aaff0 0 geode::utils::MiniFunctionState<void (*)(geode::ModStateEvent*), void, geode::ModStateEvent*>::~MiniFunctionState()
PUBLIC aaff4 0 geode::utils::MiniFunctionState<void (*)(geode::ModStateEvent*), void, geode::ModStateEvent*>::call(geode::ModStateEvent*) const
PUBLIC ab000 0 geode::utils::MiniFunctionState<void (*)(geode::ModStateEvent*), void, geode::ModStateEvent*>::clone() const
PUBLIC ab034 0 geode::utils::MiniFunctionStateBase<void, geode::ModStateEvent*>::~MiniFunctionStateBase()
PUBLIC ab038 0 geode::cast::traverseTypeinfoFor(void*, geode::cast::ClassTypeinfoType const*, char const*)
PUBLIC ab138 0 geode::getMod()
PUBLIC ab174 0 _GLOBAL__sub_I_entry.cpp
PUBLIC ab1c0 0 std::__ndk1::vector<int, std::__ndk1::allocator<int> >::~vector[abi:v170000]()
PUBLIC m ab1d8 0 sio::client::client()
PUBLIC m ab264 0 sio::client::~client()
PUBLIC ab29c 0 sio::client::set_open_listener(std::__ndk1::function<void ()> const&)
PUBLIC ab370 0 sio::client::set_fail_listener(std::__ndk1::function<void ()> const&)
PUBLIC ab444 0 sio::client::set_close_listener(std::__ndk1::function<void (sio::client::close_reason const&)> const&)
PUBLIC ab518 0 sio::client::connect(std::__ndk1::basic_string<char, std::__ndk1::char_traits<char>, std::__ndk1::allocator<char> > const&)
PUBLIC ab614 0 sio::client::socket(std::__ndk1::basic_string<char, std::__ndk1::char_traits<char>, std::__ndk1::allocator<char> > const&)
PUBLIC ab61c 0 sio::client::set_reconnect_attempts(int)
PUBLIC ab628 0 sio::client::set_reconnect_delay(unsigned int)
PUBLIC ab644 0 sio::client::set_reconnect_delay_max(unsigned int)
PUBLIC ab660 0 __cxx_global_var_init.7
PUBLIC m ab6c0 0 asio::detail::posix_tss_ptr<asio::detail::call_stack<asio::detail::thread_context, asio::detail::thread_info_base>::context>::~posix_tss_ptr()
PUBLIC ab6dc 0 __cxx_global_var_init.8
PUBLIC ab6f8 0 __cxx_global_var_init.9
PUBLIC ab714 0 __cxx_global_var_init.10
PUBLIC m ab74c 0 asio::detail::posix_global_impl<asio::system_context>::~posix_global_impl()
PUBLIC ab78c 0 __cxx_global_var_init.11
PUBLIC m ab7ec 0 asio::detail::posix_tss_ptr<asio::detail::call_stack<asio::detail::strand_service::strand_impl, unsigned char>::context>::~posix_tss_ptr()
PUBLIC ab808 0 __cxx_global_var_init.12
PUBLIC ab824 0 __cxx_global_var_init.13
PUBLIC ab840 0 __cxx_global_var_init.14
PUBLIC ab85c 0 __cxx_global_var_init.15
PUBLIC ab878 0 __cxx_global_var_init.16
PUBLIC m ab8d8 0 asio::detail::posix_tss_ptr<asio::detail::call_stack<asio::detail::strand_executor_service::strand_impl, unsigned char>::context>::~posix_tss_ptr()
PUBLIC ab8f4 0 __cxx_global_var_init.17
PUBLIC m ab910 0 asio::detail::system_category::~system_category()
PUBLIC m ab934 0 asio::detail::system_category::name() const
PUBLIC m ab940 0 asio::detail::system_category::message(int) const
PUBLIC m aba68 0 asio::error::detail::netdb_category::~netdb_category()
PUBLIC m aba8c 0 asio::error::detail::netdb_category::name() const
PUBLIC m aba98 0 asio::error::detail::netdb_category::message(int) const
PUBLIC m abc24 0 asio::error::detail::addrinfo_category::~addrinfo_category()
PUBLIC m abc48 0 asio::error::detail::addrinfo_category::name() const
PUBLIC m abc54 0 asio::error::detail::addrinfo_category::message(int) const
PUBLIC m abd14 0 asio::error::detail::misc_category::~misc_category()
PUBLIC m abd38 0 asio::error::detail::misc_category::name() const
PUBLIC m abd44 0 asio::error::detail::misc_category::message(int) const
PUBLIC abe84 0 std::__ndk1::__function::__value_func<void ()>::swap[abi:v170000](std::__ndk1::__function::__value_func<void ()>&)
PUBLIC ac01c 0 std::__ndk1::__function::__value_func<void (sio::client::close_reason const&)>::swap[abi:v170000](std::__ndk1::__function::__value_func<void (sio::client::close_reason const&)>&)
PUBLIC m ac1b4 0 asio::detail::posix_tss_ptr_create(int&)
PUBLIC m ac300 0 asio::system_context::~system_context()
PUBLIC m ac43c 0 asio::detail::scheduler::stop()
PUBLIC ac54c 0 asio::detail::thread_group::~thread_group()
PUBLIC m ac5d8 0 asio::detail::conditionally_enabled_mutex::scoped_lock::~scoped_lock()
PUBLIC ac600 0 std::__ndk1::__tree<std::__ndk1::__value_type<std::__ndk1::basic_string<char, std::__ndk1::char_traits<char>, std::__ndk1::allocator<char> >, std::__ndk1::basic_string<char, std::__ndk1::char_traits<char>, std::__ndk1::allocator<char> > >, std::__ndk1::__map_value_compare<std::__ndk1::basic_string<char, std::__ndk1::char_traits<char>, std::__ndk1::allocator<char> >, std::__ndk1::__value_type<std::__ndk1::basic_string<char, std::__ndk1::char_traits<char>, std::__ndk1::allocator<char> >, std::__ndk1::basic_string<char, std::__ndk1::char_traits<char>, std::__ndk1::allocator<char> > >, std::__ndk1::less<std::__ndk1::basic_string<char, std::__ndk1::char_traits<char>, std::__ndk1::allocator<char> > >, true>, std::__ndk1::allocator<std::__ndk1::__value_type<std::__ndk1::basic_string<char, std::__ndk1::char_traits<char>, std::__ndk1::allocator<char> >, std::__ndk1::basic_string<char, std::__ndk1::char_traits<char>, std::__ndk1::allocator<char> > > > >::destroy(std::__ndk1::__tree_node<std::__ndk1::__value_type<std::__ndk1::basic_string<char, std::__ndk1::char_traits<char>, std::__ndk1::allocator<char> >, std::__ndk1::basic_string<char, std::__ndk1::char_traits<char>, std::__ndk1::allocator<char> > >, void*>*)
PUBLIC ac678 0 _GLOBAL__sub_I_sio_client.cpp
PUBLIC ac880 0 sio::socket::impl::on(std::__ndk1::basic_string<char, std::__ndk1::char_traits<char>, std::__ndk1::allocator<char> > const&, std::__ndk1::function<void (std::__ndk1::basic_string<char, std::__ndk1::char_traits<char>, std::__ndk1::allocator<char> > const&, std::__ndk1::shared_ptr<sio::message> const&, bool, sio::message&::list)> const&)
PUBLIC acaa0 0 sio::socket::impl::on(std::__ndk1::basic_string<char, std::__ndk1::char_traits<char>, std::__ndk1::allocator<char> > const&, std::__ndk1::function<void (sio::event&)> const&)
PUBLIC m acbd8 0 sio::socket::impl::impl(sio::client_impl*, std::__ndk1::basic_string<char, std::__ndk1::char_traits<char>, std::__ndk1::allocator<char> > const&, std::__ndk1::shared_ptr<sio::message> const&)
PUBLIC acd78 0 sio::socket::impl::send_connect()
PUBLIC acfd8 0 std::__ndk1::unique_ptr<asio::basic_waitable_timer<std::__ndk1::chrono::steady_clock, asio::wait_traits<std::__ndk1::chrono::steady_clock> >, std::__ndk1::default_delete<asio::basic_waitable_timer<std::__ndk1::chrono::steady_clock, asio::wait_traits<std::__ndk1::chrono::steady_clock> > > >::~unique_ptr[abi:v170000]()
PUBLIC m ad014 0 sio::socket::impl::~impl()
PUBLIC ad100 0 sio::socket::impl::emit(std::__ndk1::basic_string<char, std::__ndk1::char_traits<char>, std::__ndk1::allocator<char> > const&, sio::message::list const&, std::__ndk1::function<void (sio::message::list const&)> const&)
PUBLIC ad418 0 sio::message::list::to_array_message(std::__ndk1::basic_string<char, std::__ndk1::char_traits<char>, std::__ndk1::allocator<char> > const&) const
PUBLIC ad618 0 sio::socket::impl::send_packet(sio::packet&)
PUBLIC ad9c0 0 sio::packet::~packet()
PUBLIC adaa0 0 sio::socket::impl::timeout_connection(std::__ndk1::error_code const&)
PUBLIC adaf8 0 sio::socket::impl::close()
PUBLIC add98 0 sio::socket::impl::on_close()
PUBLIC adf08 0 sio::socket::impl::on_connected()
PUBLIC ae224 0 sio::socket::impl::on_disconnect()
PUBLIC ae320 0 sio::socket::impl::on_message_packet(sio::packet const&)
PUBLIC ae858 0 sio::socket::impl::on_socketio_event(std::__ndk1::basic_string<char, std::__ndk1::char_traits<char>, std::__ndk1::allocator<char> > const&, int, std::__ndk1::basic_string<char, std::__ndk1::char_traits<char>, std::__ndk1::allocator<char> > const&, sio::message::list&&)
PUBLIC aeaa4 0 sio::message::list::list<std::__ndk1::vector<std::__ndk1::shared_ptr<sio::message>, std::__ndk1::allocator<std::__ndk1::shared_ptr<sio::message> > >&>(std::__ndk1::enable_if<std::is_same<std::__ndk1::vector<std::__ndk1::shared_ptr<sio::message>, std::__ndk1::allocator<std::__ndk1::shared_ptr<sio::message> > >, std::__ndk1::remove_reference<std::__ndk1::vector<std::__ndk1::shared_ptr<sio::message>, std::__ndk1::allocator<std::__ndk1::shared_ptr<sio::message> > >&>::type>::value, void>::type*)
PUBLIC aebbc 0 sio::socket::impl::on_socketio_ack(int, sio::message::list const&)
PUBLIC aee48 0 sio::socket::impl::ack(int, std::__ndk1::basic_string<char, std::__ndk1::char_traits<char>, std::__ndk1::allocator<char> > const&, sio::message::list const&)
PUBLIC af050 0 sio::event::~event()
PUBLIC m af170 0 sio::socket::socket(sio::client_impl*, std::__ndk1::basic_string<char, std::__ndk1::char_traits<char>, std::__ndk1::allocator<char> > const&, std::__ndk1::shared_ptr<sio::message> const&)
PUBLIC m af1dc 0 sio::socket::~socket()
PUBLIC af214 0 sio::socket::on(std::__ndk1::basic_string<char, std::__ndk1::char_traits<char>, std::__ndk1::allocator<char> > const&, std::__ndk1::function<void (std::__ndk1::basic_string<char, std::__ndk1::char_traits<char>, std::__ndk1::allocator<char> > const&, std::__ndk1::shared_ptr<sio::message> const&, bool, sio::message&::list)> const&)
PUBLIC af21c 0 sio::socket::close()
PUBLIC af224 0 sio::socket::on_error(std::__ndk1::function<void (std::__ndk1::shared_ptr<sio::message> const&)> const&)
PUBLIC af2f8 0 sio::socket::emit(std::__ndk1::basic_string<char, std::__ndk1::char_traits<char>, std::__ndk1::allocator<char> > const&, sio::message::list const&, std::__ndk1::function<void (sio::message::list const&)> const&)
PUBLIC af300 0 sio::socket::on_close()
PUBLIC af308 0 sio::socket::on_open()
PUBLIC af310 0 sio::socket::on_message_packet(sio::packet const&)
PUBLIC af318 0 sio::socket::on_disconnect()
PUBLIC af320 0 __cxx_global_var_init.18
PUBLIC af33c 0 std::__ndk1::vector<std::__ndk1::shared_ptr<sio::message>, std::__ndk1::allocator<std::__ndk1::shared_ptr<sio::message> > >::__throw_length_error[abi:v170000]() const
PUBLIC af350 0 sio::event_adapter::adapt_func(std::__ndk1::function<void (std::__ndk1::basic_string<char, std::__ndk1::char_traits<char>, std::__ndk1::allocator<char> > const&, std::__ndk1::shared_ptr<sio::message> const&, bool, sio::message&::list)> const&, sio::event&)
PUBLIC af464 0 std::__ndk1::__throw_bad_function_call[abi:v170000]()
PUBLIC m af498 0 std::__ndk1::bad_function_call::~bad_function_call()
PUBLIC af4bc 0 std::__ndk1::__function::__func<std::__ndk1::__bind<void (*)(std::__ndk1::function<void (std::__ndk1::basic_string<char, std::__ndk1::char_traits<char>, std::__ndk1::allocator<char> > const&, std::__ndk1::shared_ptr<sio::message> const&, bool, sio::message&::list)> const&, sio::event&), std::__ndk1::function<void (std::__ndk1::basic_string<char, std::__ndk1::char_traits<char>, std::__ndk1::allocator<char> > const&, std::__ndk1::shared_ptr<sio::message> const&, bool, sio::message&::list)> const&, std::__ndk1::placeholders::__ph<1> const&>, std::__ndk1::allocator<std::__ndk1::__bind<void (*)(std::__ndk1::function<void (std::__ndk1::basic_string<char, std::__ndk1::char_traits<char>, std::__ndk1::allocator<char> > const&, std::__ndk1::shared_ptr<sio::message> const&, bool, sio::message&::list)> const&, sio::event&), std::__ndk1::function<void (std::__ndk1::basic_string<char, std::__ndk1::char_traits<char>, std::__ndk1::allocator<char> > const&, std::__ndk1::shared_ptr<sio::message> const&, bool, sio::message&::list)> const&, std::__ndk1::placeholders::__ph<1> const&> >, void (sio::event&)>::~__func()
PUBLIC af500 0 std::__ndk1::__function::__func<std::__ndk1::__bind<void (*)(std::__ndk1::function<void (std::__ndk1::basic_string<char, std::__ndk1::char_traits<char>, std::__ndk1::allocator<char> > const&, std::__ndk1::shared_ptr<sio::message> const&, bool, sio::message&::list)> const&, sio::event&), std::__ndk1::function<void (std::__ndk1::basic_string<char, std::__ndk1::char_traits<char>, std::__ndk1::allocator<char> > const&, std::__ndk1::shared_ptr<sio::message> const&, bool, sio::message&::list)> const&, std::__ndk1::placeholders::__ph<1> const&>, std::__ndk1::allocator<std::__ndk1::__bind<void (*)(std::__ndk1::function<void (std::__ndk1::basic_string<char, std::__ndk1::char_traits<char>, std::__ndk1::allocator<char> > const&, std::__ndk1::shared_ptr<sio::message> const&, bool, sio::message&::list)> const&, sio::event&), std::__ndk1::function<void (std::__ndk1::basic_string<char, std::__ndk1::char_traits<char>, std::__ndk1::allocator<char> > const&, std::__ndk1::shared_ptr<sio::message> const&, bool, sio::message&::list)> const&, std::__ndk1::placeholders::__ph<1> const&> >, void (sio::event&)>::~__func()
PUBLIC af560 0 std::__ndk1::__function::__func<std::__ndk1::__bind<void (*)(std::__ndk1::function<void (std::__ndk1::basic_string<char, std::__ndk1::char_traits<char>, std::__ndk1::allocator<char> > const&, std::__ndk1::shared_ptr<sio::message> const&, bool, sio::message&::list)> const&, sio::event&), std::__ndk1::function<void (std::__ndk1::basic_string<char, std::__ndk1::char_traits<char>, std::__ndk1::allocator<char> > const&, std::__ndk1::shared_ptr<sio::message> const&, bool, sio::message&::list)> const&, std::__ndk1::placeholders::__ph<1> const&>, std::__ndk1::allocator<std::__ndk1::__bind<void (*)(std::__ndk1::function<void (std::__ndk1::basic_string<char, std::__ndk1::char_traits<char>, std::__ndk1::allocator<char> > const&, std::__ndk1::shared_ptr<sio::message> const&, bool, sio::message&::list)> const&, sio::event&), std::__ndk1::function<void (std::__ndk1::basic_string<char, std::__ndk1::char_traits<char>, std::__ndk1::allocator<char> > const&, std::__ndk1::shared_ptr<sio::message> const&, bool, sio::message&::list)> const&, std::__ndk1::placeholders::__ph<1> const&> >, void (sio::event&)>::__clone() const
PUBLIC af5f0 0 std::__ndk1::__function::__func<std::__ndk1::__bind<void (*)(std::__ndk1::function<void (std::__ndk1::basic_string<char, std::__ndk1::char_traits<char>, std::__ndk1::allocator<char> > const&, std::__ndk1::shared_ptr<sio::message> const&, bool, sio::message&::list)> const&, sio::event&), std::__ndk1::function<void (std::__ndk1::basic_string<char, std::__ndk1::char_traits<char>, std::__ndk1::allocator<char> > const&, std::__ndk1::shared_ptr<sio::message> const&, bool, sio::message&::list)> const&, std::__ndk1::placeholders::__ph<1> const&>, std::__ndk1::allocator<std::__ndk1::__bind<void (*)(std::__ndk1::function<void (std::__ndk1::basic_string<char, std::__ndk1::char_traits<char>, std::__ndk1::allocator<char> > const&, std::__ndk1::shared_ptr<sio::message> const&, bool, sio::message&::list)> const&, sio::event&), std::__ndk1::function<void (std::__ndk1::basic_string<char, std::__ndk1::char_traits<char>, std::__ndk1::allocator<char> > const&, std::__ndk1::shared_ptr<sio::message> const&, bool, sio::message&::list)> const&, std::__ndk1::placeholders::__ph<1> const&> >, void (sio::event&)>::__clone(std::__ndk1::__function::__base<void (sio::event&)>*) const
PUBLIC af678 0 std::__ndk1::__function::__func<std::__ndk1::__bind<void (*)(std::__ndk1::function<void (std::__ndk1::basic_string<char, std::__ndk1::char_traits<char>, std::__ndk1::allocator<char> > const&, std::__ndk1::shared_ptr<sio::message> const&, bool, sio::message&::list)> const&, sio::event&), std::__ndk1::function<void (std::__ndk1::basic_string<char, std::__ndk1::char_traits<char>, std::__ndk1::allocator<char> > const&, std::__ndk1::shared_ptr<sio::message> const&, bool, sio::message&::list)> const&, std::__ndk1::placeholders::__ph<1> const&>, std::__ndk1::allocator<std::__ndk1::__bind<void (*)(std::__ndk1::function<void (std::__ndk1::basic_string<char, std::__ndk1::char_traits<char>, std::__ndk1::allocator<char> > const&, std::__ndk1::shared_ptr<sio::message> const&, bool, sio::message&::list)> const&, sio::event&), std::__ndk1::function<void (std::__ndk1::basic_string<char, std::__ndk1::char_traits<char>, std::__ndk1::allocator<char> > const&, std::__ndk1::shared_ptr<sio::message> const&, bool, sio::message&::list)> const&, std::__ndk1::placeholders::__ph<1> const&> >, void (sio::event&)>::destroy()
PUBLIC af6b0 0 std::__ndk1::__function::__func<std::__ndk1::__bind<void (*)(std::__ndk1::function<void (std::__ndk1::basic_string<char, std::__ndk1::char_traits<char>, std::__ndk1::allocator<char> > const&, std::__ndk1::shared_ptr<sio::message> const&, bool, sio::message&::list)> const&, sio::event&), std::__ndk1::function<void (std::__ndk1::basic_string<char, std::__ndk1::char_traits<char>, std::__ndk1::allocator<char> > const&, std::__ndk1::shared_ptr<sio::message> const&, bool, sio::message&::list)> const&, std::__ndk1::placeholders::__ph<1> const&>, std::__ndk1::allocator<std::__ndk1::__bind<void (*)(std::__ndk1::function<void (std::__ndk1::basic_string<char, std::__ndk1::char_traits<char>, std::__ndk1::allocator<char> > const&, std::__ndk1::shared_ptr<sio::message> const&, bool, sio::message&::list)> const&, sio::event&), std::__ndk1::function<void (std::__ndk1::basic_string<char, std::__ndk1::char_traits<char>, std::__ndk1::allocator<char> > const&, std::__ndk1::shared_ptr<sio::message> const&, bool, sio::message&::list)> const&, std::__ndk1::placeholders::__ph<1> const&> >, void (sio::event&)>::destroy_deallocate()
PUBLIC af704 0 std::__ndk1::__function::__func<std::__ndk1::__bind<void (*)(std::__ndk1::function<void (std::__ndk1::basic_string<char, std::__ndk1::char_traits<char>, std::__ndk1::allocator<char> > const&, std::__ndk1::shared_ptr<sio::message> const&, bool, sio::message&::list)> const&, sio::event&), std::__ndk1::function<void (std::__ndk1::basic_string<char, std::__ndk1::char_traits<char>, std::__ndk1::allocator<char> > const&, std::__ndk1::shared_ptr<sio::message> const&, bool, sio::message&::list)> const&, std::__ndk1::placeholders::__ph<1> const&>, std::__ndk1::allocator<std::__ndk1::__bind<void (*)(std::__ndk1::function<void (std::__ndk1::basic_string<char, std::__ndk1::char_traits<char>, std::__ndk1::allocator<char> > const&, std::__ndk1::shared_ptr<sio::message> const&, bool, sio::message&::list)> const&, sio::event&), std::__ndk1::function<void (std::__ndk1::basic_string<char, std::__ndk1::char_traits<char>, std::__ndk1::allocator<char> > const&, std::__ndk1::shared_ptr<sio::message> const&, bool, sio::message&::list)> const&, std::__ndk1::placeholders::__ph<1> const&> >, void (sio::event&)>::operator()(sio::event&)
PUBLIC af714 0 std::__ndk1::__function::__func<std::__ndk1::__bind<void (*)(std::__ndk1::function<void (std::__ndk1::basic_string<char, std::__ndk1::char_traits<char>, std::__ndk1::allocator<char> > const&, std::__ndk1::shared_ptr<sio::message> const&, bool, sio::message&::list)> const&, sio::event&), std::__ndk1::function<void (std::__ndk1::basic_string<char, std::__ndk1::char_traits<char>, std::__ndk1::allocator<char> > const&, std::__ndk1::shared_ptr<sio::message> const&, bool, sio::message&::list)> const&, std::__ndk1::placeholders::__ph<1> const&>, std::__ndk1::allocator<std::__ndk1::__bind<void (*)(std::__ndk1::function<void (std::__ndk1::basic_string<char, std::__ndk1::char_traits<char>, std::__ndk1::allocator<char> > const&, std::__ndk1::shared_ptr<sio::message> const&, bool, sio::message&::list)> const&, sio::event&), std::__ndk1::function<void (std::__ndk1::basic_string<char, std::__ndk1::char_traits<char>, std::__ndk1::allocator<char> > const&, std::__ndk1::shared_ptr<sio::message> const&, bool, sio::message&::list)> const&, std::__ndk1::placeholders::__ph<1> const&> >, void (sio::event&)>::target(std::type_info const&) const
PUBLIC af730 0 std::__ndk1::__function::__func<std::__ndk1::__bind<void (*)(std::__ndk1::function<void (std::__ndk1::basic_string<char, std::__ndk1::char_traits<char>, std::__ndk1::allocator<char> > const&, std::__ndk1::shared_ptr<sio::message> const&, bool, sio::message&::list)> const&, sio::event&), std::__ndk1::function<void (std::__ndk1::basic_string<char, std::__ndk1::char_traits<char>, std::__ndk1::allocator<char> > const&, std::__ndk1::shared_ptr<sio::message> const&, bool, sio::message&::list)> const&, std::__ndk1::placeholders::__ph<1> const&>, std::__ndk1::allocator<std::__ndk1::__bind<void (*)(std::__ndk1::function<void (std::__ndk1::basic_string<char, std::__ndk1::char_traits<char>, std::__ndk1::allocator<char> > const&, std::__ndk1::shared_ptr<sio::message> const&, bool, sio::message&::list)> const&, sio::event&), std::__ndk1::function<void (std::__ndk1::basic_string<char, std::__ndk1::char_traits<char>, std::__ndk1::allocator<char> > const&, std::__ndk1::shared_ptr<sio::message> const&, bool, sio::message&::list)> const&, std::__ndk1::placeholders::__ph<1> const&> >, void (sio::event&)>::target_type() const
PUBLIC af73c 0 std::__ndk1::deque<sio::packet, std::__ndk1::allocator<sio::packet> >::~deque[abi:v170000]()
PUBLIC af8dc 0 std::__ndk1::allocator<sio::packet>::destroy[abi:v170000](sio::packet*)
PUBLIC af9bc 0 std::__ndk1::vector<std::__ndk1::shared_ptr<sio::message>, std::__ndk1::allocator<std::__ndk1::shared_ptr<sio::message> > >::insert<std::__ndk1::__wrap_iter<std::__ndk1::shared_ptr<sio::message> const*>, 0>(std::__ndk1::__wrap_iter<std::__ndk1::shared_ptr<sio::message> const*>, std::__ndk1::__wrap_iter<std::__ndk1::shared_ptr<sio::message> const*>, std::__ndk1::__wrap_iter<std::__ndk1::shared_ptr<sio::message> const*>)
PUBLIC afd4c 0 sio::array_message::~array_message()
PUBLIC afe00 0 sio::array_message::~array_message()
PUBLIC afe9c 0 sio::array_message::get_vector() const
PUBLIC afea4 0 sio::array_message::get_vector()
PUBLIC afeac 0 std::__ndk1::__shared_ptr_pointer<sio::array_message*, std::__ndk1::shared_ptr<sio::message>::__shared_ptr_default_delete<sio::message, sio::array_message>, std::__ndk1::allocator<sio::array_message> >::~__shared_ptr_pointer()
PUBLIC afed0 0 std::__ndk1::__shared_ptr_pointer<sio::array_message*, std::__ndk1::shared_ptr<sio::message>::__shared_ptr_default_delete<sio::message, sio::array_message>, std::__ndk1::allocator<sio::array_message> >::__on_zero_shared()
PUBLIC afee8 0 std::__ndk1::__shared_ptr_pointer<sio::array_message*, std::__ndk1::shared_ptr<sio::message>::__shared_ptr_default_delete<sio::message, sio::array_message>, std::__ndk1::allocator<sio::array_message> >::__get_deleter(std::type_info const&) const
PUBLIC aff04 0 std::__ndk1::__shared_ptr_pointer<sio::array_message*, std::__ndk1::shared_ptr<sio::message>::__shared_ptr_default_delete<sio::message, sio::array_message>, std::__ndk1::allocator<sio::array_message> >::__on_zero_shared_weak()
PUBLIC aff08 0 std::__ndk1::vector<std::__ndk1::shared_ptr<sio::message>, std::__ndk1::allocator<std::__ndk1::shared_ptr<sio::message> > >::__push_back_slow_path<std::__ndk1::shared_ptr<sio::message> >(std::__ndk1::shared_ptr<sio::message>&&)
PUBLIC b0044 0 std::__ndk1::vector<std::__ndk1::shared_ptr<sio::message>, std::__ndk1::allocator<std::__ndk1::shared_ptr<sio::message> > >::__push_back_slow_path<std::__ndk1::shared_ptr<sio::message> const&>(std::__ndk1::shared_ptr<sio::message> const&)
PUBLIC b01a8 0 sio::message::list::list(sio::message::list const&)
PUBLIC b02c0 0 std::__ndk1::__function::__value_func<void (std::__ndk1::shared_ptr<sio::message> const&)>::swap[abi:v170000](std::__ndk1::__function::__value_func<void (std::__ndk1::shared_ptr<sio::message> const&)>&)
PUBLIC b0458 0 std::__ndk1::__tree<std::__ndk1::__value_type<std::__ndk1::basic_string<char, std::__ndk1::char_traits<char>, std::__ndk1::allocator<char> >, std::__ndk1::function<void (sio::event&)> >, std::__ndk1::__map_value_compare<std::__ndk1::basic_string<char, std::__ndk1::char_traits<char>, std::__ndk1::allocator<char> >, std::__ndk1::__value_type<std::__ndk1::basic_string<char, std::__ndk1::char_traits<char>, std::__ndk1::allocator<char> >, std::__ndk1::function<void (sio::event&)> >, std::__ndk1::less<std::__ndk1::basic_string<char, std::__ndk1::char_traits<char>, std::__ndk1::allocator<char> > >, true>, std::__ndk1::allocator<std::__ndk1::__value_type<std::__ndk1::basic_string<char, std::__ndk1::char_traits<char>, std::__ndk1::allocator<char> >, std::__ndk1::function<void (sio::event&)> > > >::__emplace_unique_key_args<std::__ndk1::basic_string<char, std::__ndk1::char_traits<char>, std::__ndk1::allocator<char> >, std::__ndk1::piecewise_construct_t const&, std::__ndk1::tuple<std::__ndk1::basic_string<char, std::__ndk1::char_traits<char>, std::__ndk1::allocator<char> > const&>, std::__ndk1::tuple<> >(std::__ndk1::basic_string<char, std::__ndk1::char_traits<char>, std::__ndk1::allocator<char> > const&, std::__ndk1::piecewise_construct_t const&, std::__ndk1::tuple<std::__ndk1::basic_string<char, std::__ndk1::char_traits<char>, std::__ndk1::allocator<char> > const&>, std::__ndk1::tuple<>)
PUBLIC b0564 0 std::__ndk1::__tree<std::__ndk1::__value_type<std::__ndk1::basic_string<char, std::__ndk1::char_traits<char>, std::__ndk1::allocator<char> >, std::__ndk1::function<void (sio::event&)> >, std::__ndk1::__map_value_compare<std::__ndk1::basic_string<char, std::__ndk1::char_traits<char>, std::__ndk1::allocator<char> >, std::__ndk1::__value_type<std::__ndk1::basic_string<char, std::__ndk1::char_traits<char>, std::__ndk1::allocator<char> >, std::__ndk1::function<void (sio::event&)> >, std::__ndk1::less<std::__ndk1::basic_string<char, std::__ndk1::char_traits<char>, std::__ndk1::allocator<char> > >, true>, std::__ndk1::allocator<std::__ndk1::__value_type<std::__ndk1::basic_string<char, std::__ndk1::char_traits<char>, std::__ndk1::allocator<char> >, std::__ndk1::function<void (sio::event&)> > > >::__find_equal<std::__ndk1::basic_string<char, std::__ndk1::char_traits<char>, std::__ndk1::allocator<char> > >(std::__ndk1::__tree_end_node<std::__ndk1::__tree_node_base<void*>*>*&, std::__ndk1::basic_string<char, std::__ndk1::char_traits<char>, std::__ndk1::allocator<char> > const&)
PUBLIC b0670 0 std::__ndk1::__function::__value_func<void (sio::event&)>::swap[abi:v170000](std::__ndk1::__function::__value_func<void (sio::event&)>&)
PUBLIC b0808 0 std::__ndk1::__tree<std::__ndk1::__value_type<std::__ndk1::basic_string<char, std::__ndk1::char_traits<char>, std::__ndk1::allocator<char> >, std::__ndk1::function<void (sio::event&)> >, std::__ndk1::__map_value_compare<std::__ndk1::basic_string<char, std::__ndk1::char_traits<char>, std::__ndk1::allocator<char> >, std::__ndk1::__value_type<std::__ndk1::basic_string<char, std::__ndk1::char_traits<char>, std::__ndk1::allocator<char> >, std::__ndk1::function<void (sio::event&)> >, std::__ndk1::less<std::__ndk1::basic_string<char, std::__ndk1::char_traits<char>, std::__ndk1::allocator<char> > >, true>, std::__ndk1::allocator<std::__ndk1::__value_type<std::__ndk1::basic_string<char, std::__ndk1::char_traits<char>, std::__ndk1::allocator<char> >, std::__ndk1::function<void (sio::event&)> > > >::find<std::__ndk1::basic_string<char, std::__ndk1::char_traits<char>, std::__ndk1::allocator<char> > >(std::__ndk1::basic_string<char, std::__ndk1::char_traits<char>, std::__ndk1::allocator<char> > const&)
PUBLIC b0948 0 std::__ndk1::__tree<std::__ndk1::__value_type<std::__ndk1::basic_string<char, std::__ndk1::char_traits<char>, std::__ndk1::allocator<char> >, std::__ndk1::function<void (sio::event&)> >, std::__ndk1::__map_value_compare<std::__ndk1::basic_string<char, std::__ndk1::char_traits<char>, std::__ndk1::allocator<char> >, std::__ndk1::__value_type<std::__ndk1::basic_string<char, std::__ndk1::char_traits<char>, std::__ndk1::allocator<char> >, std::__ndk1::function<void (sio::event&)> >, std::__ndk1::less<std::__ndk1::basic_string<char, std::__ndk1::char_traits<char>, std::__ndk1::allocator<char> > >, true>, std::__ndk1::allocator<std::__ndk1::__value_type<std::__ndk1::basic_string<char, std::__ndk1::char_traits<char>, std::__ndk1::allocator<char> >, std::__ndk1::function<void (sio::event&)> > > >::destroy(std::__ndk1::__tree_node<std::__ndk1::__value_type<std::__ndk1::basic_string<char, std::__ndk1::char_traits<char>, std::__ndk1::allocator<char> >, std::__ndk1::function<void (sio::event&)> >, void*>*)
PUBLIC b09cc 0 std::__ndk1::__tree<std::__ndk1::__value_type<unsigned int, std::__ndk1::function<void (sio::message::list const&)> >, std::__ndk1::__map_value_compare<unsigned int, std::__ndk1::__value_type<unsigned int, std::__ndk1::function<void (sio::message::list const&)> >, std::__ndk1::less<unsigned int>, true>, std::__ndk1::allocator<std::__ndk1::__value_type<unsigned int, std::__ndk1::function<void (sio::message::list const&)> > > >::destroy(std::__ndk1::__tree_node<std::__ndk1::__value_type<unsigned int, std::__ndk1::function<void (sio::message::list const&)> >, void*>*)
PUBLIC b0a40 0 std::__ndk1::__function::__value_func<void (sio::message::list const&)>::swap[abi:v170000](std::__ndk1::__function::__value_func<void (sio::message::list const&)>&)
PUBLIC m b0bd8 0 asio::basic_io_object<asio::detail::deadline_timer_service<asio::detail::chrono_time_traits<std::__ndk1::chrono::steady_clock, asio::wait_traits<std::__ndk1::chrono::steady_clock> > >, true>::~basic_io_object()
PUBLIC m b0ca0 0 asio::detail::epoll_reactor::cancel_timer<asio::detail::chrono_time_traits<std::__ndk1::chrono::steady_clock, asio::wait_traits<std::__ndk1::chrono::steady_clock> > >(asio::detail::timer_queue<asio::detail::chrono_time_traits<std::__ndk1::chrono::steady_clock, asio::wait_traits<std::__ndk1::chrono::steady_clock> > >&, asio::detail::timer_queue<asio::detail::chrono_time_traits<std::__ndk1::chrono::steady_clock, asio::wait_traits<std::__ndk1::chrono::steady_clock> > >&::per_timer_data, unsigned long)
PUBLIC m b0de4 0 asio::detail::timer_queue<asio::detail::chrono_time_traits<std::__ndk1::chrono::steady_clock, asio::wait_traits<std::__ndk1::chrono::steady_clock> > >::cancel_timer(asio::detail::timer_queue<asio::detail::chrono_time_traits<std::__ndk1::chrono::steady_clock, asio::wait_traits<std::__ndk1::chrono::steady_clock> > >::per_timer_data&, asio::detail::op_queue<asio::detail::scheduler_operation>&, unsigned long)
PUBLIC m b0f70 0 asio::detail::scheduler::post_deferred_completions(asio::detail::op_queue<asio::detail::scheduler_operation>&)
PUBLIC m b1178 0 asio::detail::op_queue<asio::detail::scheduler_operation>::~op_queue()
PUBLIC m b1210 0 asio::detail::timer_queue<asio::detail::chrono_time_traits<std::__ndk1::chrono::steady_clock, asio::wait_traits<std::__ndk1::chrono::steady_clock> > >::remove_timer(asio::detail::timer_queue<asio::detail::chrono_time_traits<std::__ndk1::chrono::steady_clock, asio::wait_traits<std::__ndk1::chrono::steady_clock> > >::per_timer_data&)
PUBLIC m b143c 0 asio::detail::service_registry::create<asio::detail::deadline_timer_service<asio::detail::chrono_time_traits<std::__ndk1::chrono::steady_clock, asio::wait_traits<std::__ndk1::chrono::steady_clock> > >, asio::io_context>(void*)
PUBLIC m b1484 0 asio::detail::service_registry::do_use_service(asio::execution_context::service::key const&, asio::execution_context::service* (*)(void*), void*)
PUBLIC m b16c8 0 asio::detail::deadline_timer_service<asio::detail::chrono_time_traits<std::__ndk1::chrono::steady_clock, asio::wait_traits<std::__ndk1::chrono::steady_clock> > >::deadline_timer_service(asio::io_context&)
PUBLIC m b180c 0 asio::detail::timer_queue<asio::detail::chrono_time_traits<std::__ndk1::chrono::steady_clock, asio::wait_traits<std::__ndk1::chrono::steady_clock> > >::~timer_queue()
PUBLIC m b1834 0 asio::detail::deadline_timer_service<asio::detail::chrono_time_traits<std::__ndk1::chrono::steady_clock, asio::wait_traits<std::__ndk1::chrono::steady_clock> > >::~deadline_timer_service()
PUBLIC m b18f8 0 asio::detail::deadline_timer_service<asio::detail::chrono_time_traits<std::__ndk1::chrono::steady_clock, asio::wait_traits<std::__ndk1::chrono::steady_clock> > >::~deadline_timer_service()
PUBLIC m b191c 0 asio::detail::deadline_timer_service<asio::detail::chrono_time_traits<std::__ndk1::chrono::steady_clock, asio::wait_traits<std::__ndk1::chrono::steady_clock> > >::shutdown()
PUBLIC m b1920 0 asio::io_context::service::notify_fork(asio::execution_context::fork_event)
PUBLIC m b192c 0 asio::io_context::service::shutdown_service()
PUBLIC m b1930 0 asio::io_context::service::fork_service(asio::execution_context::fork_event)
PUBLIC m b1934 0 asio::execution_context::service::notify_fork(asio::execution_context::fork_event)
PUBLIC m b1938 0 asio::detail::timer_queue<asio::detail::chrono_time_traits<std::__ndk1::chrono::steady_clock, asio::wait_traits<std::__ndk1::chrono::steady_clock> > >::~timer_queue()
PUBLIC m b1978 0 asio::detail::timer_queue<asio::detail::chrono_time_traits<std::__ndk1::chrono::steady_clock, asio::wait_traits<std::__ndk1::chrono::steady_clock> > >::empty() const
PUBLIC m b1988 0 asio::detail::timer_queue<asio::detail::chrono_time_traits<std::__ndk1::chrono::steady_clock, asio::wait_traits<std::__ndk1::chrono::steady_clock> > >::wait_duration_msec(long) const
PUBLIC m b1a98 0 asio::detail::timer_queue<asio::detail::chrono_time_traits<std::__ndk1::chrono::steady_clock, asio::wait_traits<std::__ndk1::chrono::steady_clock> > >::wait_duration_usec(long) const
PUBLIC m b1ba8 0 asio::detail::timer_queue<asio::detail::chrono_time_traits<std::__ndk1::chrono::steady_clock, asio::wait_traits<std::__ndk1::chrono::steady_clock> > >::get_ready_timers(asio::detail::op_queue<asio::detail::scheduler_operation>&)
PUBLIC m b1c40 0 asio::detail::timer_queue<asio::detail::chrono_time_traits<std::__ndk1::chrono::steady_clock, asio::wait_traits<std::__ndk1::chrono::steady_clock> > >::get_all_timers(asio::detail::op_queue<asio::detail::scheduler_operation>&)
PUBLIC m b1ca0 0 asio::detail::service_registry::create<asio::detail::epoll_reactor, asio::io_context>(void*)
PUBLIC m b1ce8 0 asio::detail::epoll_reactor::epoll_reactor(asio::execution_context&)
PUBLIC m b1eac 0 asio::detail::epoll_reactor::do_epoll_create()
PUBLIC m b2038 0 asio::detail::object_pool<asio::detail::epoll_reactor::descriptor_state>::~object_pool()
PUBLIC m b20a4 0 asio::detail::eventfd_select_interrupter::~eventfd_select_interrupter()
PUBLIC m b20ec 0 asio::detail::epoll_reactor::~epoll_reactor()
PUBLIC m b21d4 0 asio::detail::epoll_reactor::~epoll_reactor()
PUBLIC m b21f8 0 asio::detail::epoll_reactor::shutdown()
PUBLIC m b2480 0 asio::detail::epoll_reactor::notify_fork(asio::execution_context::fork_event)
PUBLIC m b2784 0 asio::detail::service_registry::create<asio::detail::scheduler, asio::execution_context>(void*)
PUBLIC m b2838 0 asio::detail::scheduler::~scheduler()
PUBLIC m b28f8 0 asio::detail::scheduler::~scheduler()
PUBLIC m b29c0 0 asio::detail::scheduler::shutdown()
PUBLIC m b2b1c 0 asio::detail::posix_event::posix_event()
PUBLIC m b2c80 0 asio::detail::posix_mutex::posix_mutex()
PUBLIC m b2dcc 0 asio::detail::eventfd_select_interrupter::open_descriptors()
PUBLIC m b2fd4 0 asio::detail::epoll_reactor::descriptor_state::~descriptor_state()
PUBLIC m b310c 0 asio::detail::scheduler::init_task()
PUBLIC m b32a8 0 asio::detail::service_registry::create<asio::detail::epoll_reactor, asio::execution_context>(void*)
PUBLIC m b32f0 0 asio::detail::scoped_lock<asio::detail::posix_mutex>::~scoped_lock()
PUBLIC b3314 0 asio::detail::deadline_timer_service<asio::detail::chrono_time_traits<std::__ndk1::chrono::steady_clock, asio::wait_traits<std::__ndk1::chrono::steady_clock> > >::async_wait<std::__ndk1::__bind<void (sio::socket::impl::*)(std::__ndk1::error_code const&), sio::socket::impl*, std::__ndk1::placeholders::__ph<1> const&> >(asio::detail::deadline_timer_service<asio::detail::chrono_time_traits<std::__ndk1::chrono::steady_clock, asio::wait_traits<std::__ndk1::chrono::steady_clock> > >::implementation_type&, std::__ndk1::__bind<void (sio::socket::impl::*)(std::__ndk1::error_code const&), sio::socket::impl*, std::__ndk1::placeholders::__ph<1> const&>&)
PUBLIC m b343c 0 asio::detail::epoll_reactor::schedule_timer<asio::detail::chrono_time_traits<std::__ndk1::chrono::steady_clock, asio::wait_traits<std::__ndk1::chrono::steady_clock> > >(asio::detail::timer_queue<asio::detail::chrono_time_traits<std::__ndk1::chrono::steady_clock, asio::wait_traits<std::__ndk1::chrono::steady_clock> > >&, asio::detail::chrono_time_traits<std::__ndk1::chrono::steady_clock, asio::wait_traits<std::__ndk1::chrono::steady_clock> > const::time_type&, asio::detail::timer_queue<asio::detail::chrono_time_traits<std::__ndk1::chrono::steady_clock, asio::wait_traits<std::__ndk1::chrono::steady_clock> > >&::per_timer_data, asio::detail::wait_op*)
PUBLIC b3578 0 asio::detail::wait_handler<std::__ndk1::__bind<void (sio::socket::impl::*)(std::__ndk1::error_code const&), sio::socket::impl*, std::__ndk1::placeholders::__ph<1> const&> >::ptr::~ptr()
PUBLIC b35ec 0 asio::detail::wait_handler<std::__ndk1::__bind<void (sio::socket::impl::*)(std::__ndk1::error_code const&), sio::socket::impl*, std::__ndk1::placeholders::__ph<1> const&> >::do_complete(void*, asio::detail::scheduler_operation*, std::__ndk1::error_code const&, unsigned long)
PUBLIC m b3700 0 asio::detail::scheduler::post_immediate_completion(asio::detail::scheduler_operation*, bool)
PUBLIC m b38d4 0 asio::detail::timer_queue<asio::detail::chrono_time_traits<std::__ndk1::chrono::steady_clock, asio::wait_traits<std::__ndk1::chrono::steady_clock> > >::enqueue_timer(std::__ndk1::chrono::time_point<std::__ndk1::chrono::steady_clock, std::__ndk1::chrono::duration<long long, std::__ndk1::ratio<(long)1, (long)1000000000> > > const&, asio::detail::timer_queue<asio::detail::chrono_time_traits<std::__ndk1::chrono::steady_clock, asio::wait_traits<std::__ndk1::chrono::steady_clock> > >::per_timer_data&, asio::detail::wait_op*)
PUBLIC b3b18 0 std::__ndk1::vector<asio::detail::timer_queue<asio::detail::chrono_time_traits<std::__ndk1::chrono::steady_clock, asio::wait_traits<std::__ndk1::chrono::steady_clock> > >::heap_entry, std::__ndk1::allocator<asio::detail::timer_queue<asio::detail::chrono_time_traits<std::__ndk1::chrono::steady_clock, asio::wait_traits<std::__ndk1::chrono::steady_clock> > >::heap_entry> >::__throw_length_error[abi:v170000]() const
PUBLIC b3b2c 0 asio::detail::deadline_timer_service<asio::detail::chrono_time_traits<std::__ndk1::chrono::steady_clock, asio::wait_traits<std::__ndk1::chrono::steady_clock> > >::async_wait<std::__ndk1::__bind<void (sio::socket::impl::*)(), sio::socket::impl*> >(asio::detail::deadline_timer_service<asio::detail::chrono_time_traits<std::__ndk1::chrono::steady_clock, asio::wait_traits<std::__ndk1::chrono::steady_clock> > >::implementation_type&, std::__ndk1::__bind<void (sio::socket::impl::*)(), sio::socket::impl*>&)
PUBLIC b3c54 0 asio::detail::wait_handler<std::__ndk1::__bind<void (sio::socket::impl::*)(), sio::socket::impl*> >::ptr::~ptr()
PUBLIC b3cc8 0 asio::detail::wait_handler<std::__ndk1::__bind<void (sio::socket::impl::*)(), sio::socket::impl*> >::do_complete(void*, asio::detail::scheduler_operation*, std::__ndk1::error_code const&, unsigned long)
PUBLIC b3dd8 0 std::__ndk1::deque<sio::packet, std::__ndk1::allocator<sio::packet> >::__add_back_capacity()
PUBLIC b43d8 0 std::__ndk1::__split_buffer<sio::packet*, std::__ndk1::allocator<sio::packet*> >::push_back(sio::packet*&&)
PUBLIC b455c 0 std::__ndk1::__split_buffer<sio::packet*, std::__ndk1::allocator<sio::packet*> >::push_front(sio::packet*&&)
PUBLIC b46ec 0 sio::packet::packet(sio::packet const&)
PUBLIC b4864 0 std::__ndk1::__exception_guard<std::__ndk1::vector<std::__ndk1::shared_ptr<std::__ndk1::basic_string<char, std::__ndk1::char_traits<char>, std::__ndk1::allocator<char> > const>, std::__ndk1::allocator<std::__ndk1::shared_ptr<std::__ndk1::basic_string<char, std::__ndk1::char_traits<char>, std::__ndk1::allocator<char> > const> > >::__destroy_vector>::~__exception_guard[abi:v170000]()
PUBLIC b492c 0 std::__ndk1::vector<std::__ndk1::shared_ptr<std::__ndk1::basic_string<char, std::__ndk1::char_traits<char>, std::__ndk1::allocator<char> > const>, std::__ndk1::allocator<std::__ndk1::shared_ptr<std::__ndk1::basic_string<char, std::__ndk1::char_traits<char>, std::__ndk1::allocator<char> > const> > >::__throw_length_error[abi:v170000]() const
PUBLIC b4940 0 _GLOBAL__sub_I_sio_socket.cpp
PUBLIC m b4b48 0 asio::error::get_system_category()
PUBLIC m b4bb8 0 sio::client_impl::client_impl(sio::client_options const&)
PUBLIC b533c 0 websocketpp::transport::asio::endpoint<websocketpp::config::asio_client::transport_config>::init_asio(asio::io_context*)
PUBLIC b5410 0 websocketpp::endpoint<websocketpp::connection<websocketpp::config::asio_client>, websocketpp::config::asio_client>::set_open_handler(std::__ndk1::function<void (std::__ndk1::weak_ptr<void>)>)
PUBLIC b552c 0 sio::client_impl::on_open(std::__ndk1::weak_ptr<void>)
PUBLIC b5750 0 websocketpp::endpoint<websocketpp::connection<websocketpp::config::asio_client>, websocketpp::config::asio_client>::set_close_handler(std::__ndk1::function<void (std::__ndk1::weak_ptr<void>)>)
PUBLIC b586c 0 sio::client_impl::on_close(std::__ndk1::weak_ptr<void>)
PUBLIC b5e60 0 websocketpp::endpoint<websocketpp::connection<websocketpp::config::asio_client>, websocketpp::config::asio_client>::set_fail_handler(std::__ndk1::function<void (std::__ndk1::weak_ptr<void>)>)
PUBLIC b5f7c 0 sio::client_impl::on_fail(std::__ndk1::weak_ptr<void>)
PUBLIC b62dc 0 websocketpp::endpoint<websocketpp::connection<websocketpp::config::asio_client>, websocketpp::config::asio_client>::set_message_handler(std::__ndk1::function<void (std::__ndk1::weak_ptr<void>, std::__ndk1::shared_ptr<websocketpp::message_buffer::message<websocketpp::message_buffer::alloc::con_msg_manager> >)>)
PUBLIC b63f8 0 sio::client_impl::on_message(std::__ndk1::weak_ptr<void>, std::__ndk1::shared_ptr<websocketpp::message_buffer::message<websocketpp::message_buffer::alloc::con_msg_manager> >)
PUBLIC b6408 0 sio::client_impl::on_decode(sio::packet const&)
PUBLIC b6630 0 sio::client_impl::on_encode(bool, std::__ndk1::shared_ptr<std::__ndk1::basic_string<char, std::__ndk1::char_traits<char>, std::__ndk1::allocator<char> > const> const&)
PUBLIC b6714 0 sio::packet_manager::~packet_manager()
PUBLIC b67bc 0 std::__ndk1::unique_ptr<std::__ndk1::thread, std::__ndk1::default_delete<std::__ndk1::thread> >::~unique_ptr[abi:v170000]()
PUBLIC b67f8 0 websocketpp::endpoint<websocketpp::connection<websocketpp::config::asio_client>, websocketpp::config::asio_client>::~endpoint()
PUBLIC m b6ac8 0 sio::client_impl::~client_impl()
PUBLIC b6f90 0 sio::client_impl::sync_close()
PUBLIC b7170 0 sio::client_impl::connect(std::__ndk1::basic_string<char, std::__ndk1::char_traits<char>, std::__ndk1::allocator<char> > const&, std::__ndk1::map<std::__ndk1::basic_string<char, std::__ndk1::char_traits<char>, std::__ndk1::allocator<char> >, std::__ndk1::basic_string<char, std::__ndk1::char_traits<char>, std::__ndk1::allocator<char> >, std::__ndk1::less<std::__ndk1::basic_string<char, std::__ndk1::char_traits<char>, std::__ndk1::allocator<char> > >, std::__ndk1::allocator<std::__ndk1::pair<std::__ndk1::basic_string<char, std::__ndk1::char_traits<char>, std::__ndk1::allocator<char> > const, std::__ndk1::basic_string<char, std::__ndk1::char_traits<char>, std::__ndk1::allocator<char> > > > > const&, std::__ndk1::map<std::__ndk1::basic_string<char, std::__ndk1::char_traits<char>, std::__ndk1::allocator<char> >, std::__ndk1::basic_string<char, std::__ndk1::char_traits<char>, std::__ndk1::allocator<char> >, std::__ndk1::less<std::__ndk1::basic_string<char, std::__ndk1::char_traits<char>, std::__ndk1::allocator<char> > >, std::__ndk1::allocator<std::__ndk1::pair<std::__ndk1::basic_string<char, std::__ndk1::char_traits<char>, std::__ndk1::allocator<char> > const, std::__ndk1::basic_string<char, std::__ndk1::char_traits<char>, std::__ndk1::allocator<char> > > > > const&, std::__ndk1::shared_ptr<sio::message> const&)
PUBLIC b7590 0 sio::client_impl::encode_query_string(std::__ndk1::basic_string<char, std::__ndk1::char_traits<char>, std::__ndk1::allocator<char> > const&)
PUBLIC b784c 0 asio::io_context::dispatch<std::__ndk1::__bind<void (sio::client_impl::*)(std::__ndk1::basic_string<char, std::__ndk1::char_traits<char>, std::__ndk1::allocator<char> > const&, std::__ndk1::basic_string<char, std::__ndk1::char_traits<char>, std::__ndk1::allocator<char> > const&), sio::client_impl*, std::__ndk1::basic_string<char, std::__ndk1::char_traits<char>, std::__ndk1::allocator<char> > const&, std::__ndk1::basic_string<char, std::__ndk1::char_traits<char>, std::__ndk1::allocator<char> >&> >(std::__ndk1::__bind<void (sio::client_impl::*)(std::__ndk1::basic_string<char, std::__ndk1::char_traits<char>, std::__ndk1::allocator<char> > const&, std::__ndk1::basic_string<char, std::__ndk1::char_traits<char>, std::__ndk1::allocator<char> > const&), sio::client_impl*, std::__ndk1::basic_string<char, std::__ndk1::char_traits<char>, std::__ndk1::allocator<char> > const&, std::__ndk1::basic_string<char, std::__ndk1::char_traits<char>, std::__ndk1::allocator<char> >&>&&)
PUBLIC b79ec 0 sio::client_impl::connect_impl(std::__ndk1::basic_string<char, std::__ndk1::char_traits<char>, std::__ndk1::allocator<char> > const&, std::__ndk1::basic_string<char, std::__ndk1::char_traits<char>, std::__ndk1::allocator<char> > const&)
PUBLIC b8210 0 std::__ndk1::__bind<void (sio::client_impl::*)(std::__ndk1::basic_string<char, std::__ndk1::char_traits<char>, std::__ndk1::allocator<char> > const&, std::__ndk1::basic_string<char, std::__ndk1::char_traits<char>, std::__ndk1::allocator<char> > const&), sio::client_impl*, std::__ndk1::basic_string<char, std::__ndk1::char_traits<char>, std::__ndk1::allocator<char> > const&, std::__ndk1::basic_string<char, std::__ndk1::char_traits<char>, std::__ndk1::allocator<char> >&>::~__bind()
PUBLIC b8254 0 sio::client_impl::run_loop()
PUBLIC b82c4 0 std::__ndk1::thread::thread<std::__ndk1::__bind<void (sio::client_impl::*)(), sio::client_impl*>, , void>(&&)
PUBLIC b83c4 0 sio::client_impl::socket(std::__ndk1::basic_string<char, std::__ndk1::char_traits<char>, std::__ndk1::allocator<char> > const&)
PUBLIC b861c 0 std::__ndk1::pair<std::__ndk1::basic_string<char, std::__ndk1::char_traits<char>, std::__ndk1::allocator<char> > const, std::__ndk1::shared_ptr<sio::socket> >::~pair()
PUBLIC b8688 0 sio::client_impl::close()
PUBLIC b8840 0 asio::io_context::dispatch<std::__ndk1::__bind<void (sio::client_impl::*)(unsigned short const&, std::__ndk1::basic_string<char, std::__ndk1::char_traits<char>, std::__ndk1::allocator<char> > const&), sio::client_impl*, unsigned short const&, char const (&) [12]> >(std::__ndk1::__bind<void (sio::client_impl::*)(unsigned short const&, std::__ndk1::basic_string<char, std::__ndk1::char_traits<char>, std::__ndk1::allocator<char> > const&), sio::client_impl*, unsigned short const&, char const (&) [12]>&&)
PUBLIC b89a0 0 sio::client_impl::close_impl(unsigned short const&, std::__ndk1::basic_string<char, std::__ndk1::char_traits<char>, std::__ndk1::allocator<char> > const&)
PUBLIC b8b58 0 sio::client_impl::send(sio::packet&)
PUBLIC b8c30 0 sio::client_impl::remove_socket(std::__ndk1::basic_string<char, std::__ndk1::char_traits<char>, std::__ndk1::allocator<char> > const&)
PUBLIC b8ca4 0 sio::client_impl::get_io_service()
PUBLIC b8cac 0 sio::client_impl::on_socket_closed(std::__ndk1::basic_string<char, std::__ndk1::char_traits<char>, std::__ndk1::allocator<char> > const&)
PUBLIC b8cc4 0 sio::client_impl::on_socket_opened(std::__ndk1::basic_string<char, std::__ndk1::char_traits<char>, std::__ndk1::allocator<char> > const&)
PUBLIC b8cdc 0 websocketpp::transport::asio::endpoint<websocketpp::config::asio_client::transport_config>::run()
PUBLIC b8dd0 0 websocketpp::log::basic<websocketpp::concurrency::basic, websocketpp::log::alevel>::write(unsigned int, char const*)
PUBLIC b907c 0 websocketpp::uri::uri(std::__ndk1::basic_string<char, std::__ndk1::char_traits<char>, std::__ndk1::allocator<char> > const&)
PUBLIC b95d4 0 std::__ndk1::operator<<[abi:v170000]<char, std::__ndk1::char_traits<char>, std::__ndk1::allocator<char> >(std::__ndk1::basic_ostream<char, std::__ndk1::char_traits<char> >, std::__ndk1::basic_string<std::__ndk1::basic_ostream, char, std::__ndk1::allocator<char> > const&)
PUBLIC b95f0 0 websocketpp::client<websocketpp::config::asio_client>::get_connection(std::__ndk1::basic_string<char, std::__ndk1::char_traits<char>, std::__ndk1::allocator<char> > const&, std::__ndk1::error_code&)
PUBLIC b97c4 0 websocketpp::log::basic<websocketpp::concurrency::basic, websocketpp::log::alevel>::write(unsigned int, std::__ndk1::basic_string<char, std::__ndk1::char_traits<char>, std::__ndk1::allocator<char> > const&)
PUBLIC b9a70 0 websocketpp::connection<websocketpp::config::asio_client>::replace_header(std::__ndk1::basic_string<char, std::__ndk1::char_traits<char>, std::__ndk1::allocator<char> > const&, std::__ndk1::basic_string<char, std::__ndk1::char_traits<char>, std::__ndk1::allocator<char> > const&)
PUBLIC b9c48 0 websocketpp::transport::asio::connection<websocketpp::config::asio_client::transport_config>::set_proxy(std::__ndk1::basic_string<char, std::__ndk1::char_traits<char>, std::__ndk1::allocator<char> > const&, std::__ndk1::error_code&)
PUBLIC b9d04 0 websocketpp::transport::asio::connection<websocketpp::config::asio_client::transport_config>::set_proxy_basic_auth(std::__ndk1::basic_string<char, std::__ndk1::char_traits<char>, std::__ndk1::allocator<char> > const&, std::__ndk1::basic_string<char, std::__ndk1::char_traits<char>, std::__ndk1::allocator<char> > const&, std::__ndk1::error_code&)
PUBLIC ba0c0 0 websocketpp::client<websocketpp::config::asio_client>::connect(std::__ndk1::shared_ptr<websocketpp::connection<websocketpp::config::asio_client> >)
PUBLIC ba2d4 0 std::__ndk1::shared_ptr<websocketpp::connection<websocketpp::config::asio_client> >::~shared_ptr[abi:v170000]()
PUBLIC ba324 0 std::__ndk1::basic_ostringstream<char, std::__ndk1::char_traits<char>, std::__ndk1::allocator<char> >::~basic_ostringstream()
PUBLIC ba3a8 0 websocketpp::uri::~uri()
PUBLIC ba40c 0 websocketpp::endpoint<websocketpp::connection<websocketpp::config::asio_client>, websocketpp::config::asio_client>::close(std::__ndk1::weak_ptr<void>, unsigned short, std::__ndk1::basic_string<char, std::__ndk1::char_traits<char>, std::__ndk1::allocator<char> > const&, std::__ndk1::error_code&)
PUBLIC ba52c 0 sio::client_impl::send_impl(std::__ndk1::shared_ptr<std::__ndk1::basic_string<char, std::__ndk1::char_traits<char>, std::__ndk1::allocator<char> > const> const&, websocketpp::frame::opcode::value)
PUBLIC ba6e8 0 websocketpp::endpoint<websocketpp::connection<websocketpp::config::asio_client>, websocketpp::config::asio_client>::send(std::__ndk1::weak_ptr<void>, std::__ndk1::basic_string<char, std::__ndk1::char_traits<char>, std::__ndk1::allocator<char> > const&, websocketpp::frame::opcode::value, std::__ndk1::error_code&)
PUBLIC ba808 0 sio::client_impl::timeout_ping(std::__ndk1::error_code const&)
PUBLIC ba880 0 asio::io_context::dispatch<std::__ndk1::__bind<void (sio::client_impl::*)(unsigned short const&, std::__ndk1::basic_string<char, std::__ndk1::char_traits<char>, std::__ndk1::allocator<char> > const&), sio::client_impl*, unsigned short const&, char const (&) [13]> >(std::__ndk1::__bind<void (sio::client_impl::*)(unsigned short const&, std::__ndk1::basic_string<char, std::__ndk1::char_traits<char>, std::__ndk1::allocator<char> > const&), sio::client_impl*, unsigned short const&, char const (&) [13]>&&)
PUBLIC ba9e0 0 sio::client_impl::timeout_reconnect(std::__ndk1::error_code const&)
PUBLIC bab74 0 asio::io_context::dispatch<std::__ndk1::__bind<void (sio::client_impl::*)(std::__ndk1::basic_string<char, std::__ndk1::char_traits<char>, std::__ndk1::allocator<char> > const&, std::__ndk1::basic_string<char, std::__ndk1::char_traits<char>, std::__ndk1::allocator<char> > const&), sio::client_impl*, std::__ndk1::basic_string<char, std::__ndk1::char_traits<char>, std::__ndk1::allocator<char> >&, std::__ndk1::basic_string<char, std::__ndk1::char_traits<char>, std::__ndk1::allocator<char> >&> >(std::__ndk1::__bind<void (sio::client_impl::*)(std::__ndk1::basic_string<char, std::__ndk1::char_traits<char>, std::__ndk1::allocator<char> > const&, std::__ndk1::basic_string<char, std::__ndk1::char_traits<char>, std::__ndk1::allocator<char> > const&), sio::client_impl*, std::__ndk1::basic_string<char, std::__ndk1::char_traits<char>, std::__ndk1::allocator<char> >&, std::__ndk1::basic_string<char, std::__ndk1::char_traits<char>, std::__ndk1::allocator<char> >&>&&)
PUBLIC bad14 0 std::__ndk1::__bind<void (sio::client_impl::*)(std::__ndk1::basic_string<char, std::__ndk1::char_traits<char>, std::__ndk1::allocator<char> > const&, std::__ndk1::basic_string<char, std::__ndk1::char_traits<char>, std::__ndk1::allocator<char> > const&), sio::client_impl*, std::__ndk1::basic_string<char, std::__ndk1::char_traits<char>, std::__ndk1::allocator<char> >&, std::__ndk1::basic_string<char, std::__ndk1::char_traits<char>, std::__ndk1::allocator<char> >&>::~__bind()
PUBLIC bad58 0 websocketpp::endpoint<websocketpp::connection<websocketpp::config::asio_client>, websocketpp::config::asio_client>::get_con_from_hdl(std::__ndk1::weak_ptr<void>, std::__ndk1::error_code&)
PUBLIC bae78 0 sio::client_impl::on_handshake(std::__ndk1::shared_ptr<sio::message> const&)
PUBLIC bb1b0 0 std::__ndk1::shared_ptr<sio::string_message>::~shared_ptr[abi:v170000]()
PUBLIC bb200 0 std::__ndk1::shared_ptr<sio::int_message>::~shared_ptr[abi:v170000]()
PUBLIC bb250 0 sio::client_impl::update_ping_timeout_timer()
PUBLIC bb3d0 0 asio::io_context::dispatch<std::__ndk1::__bind<void (sio::client_impl::*)(unsigned short const&, std::__ndk1::basic_string<char, std::__ndk1::char_traits<char>, std::__ndk1::allocator<char> > const&), sio::client_impl*, unsigned short const&, char const (&) [16]> >(std::__ndk1::__bind<void (sio::client_impl::*)(unsigned short const&, std::__ndk1::basic_string<char, std::__ndk1::char_traits<char>, std::__ndk1::allocator<char> > const&), sio::client_impl*, unsigned short const&, char const (&) [16]>&&)
PUBLIC bb530 0 sio::client_impl::on_ping()
PUBLIC bb6f8 0 asio::io_context::dispatch<std::__ndk1::__bind<void (sio::client_impl::*)(std::__ndk1::shared_ptr<std::__ndk1::basic_string<char, std::__ndk1::char_traits<char>, std::__ndk1::allocator<char> > const> const&, websocketpp::frame::opcode::value), sio::client_impl*, std::__ndk1::shared_ptr<std::__ndk1::basic_string<char, std::__ndk1::char_traits<char>, std::__ndk1::allocator<char> > const> const&, websocketpp::frame::opcode::value> >(std::__ndk1::__bind<void (sio::client_impl::*)(std::__ndk1::shared_ptr<std::__ndk1::basic_string<char, std::__ndk1::char_traits<char>, std::__ndk1::allocator<char> > const> const&, websocketpp::frame::opcode::value), sio::client_impl*, std::__ndk1::shared_ptr<std::__ndk1::basic_string<char, std::__ndk1::char_traits<char>, std::__ndk1::allocator<char> > const> const&, websocketpp::frame::opcode::value>&&)
PUBLIC bb878 0 std::__ndk1::__bind<void (sio::client_impl::*)(std::__ndk1::shared_ptr<std::__ndk1::basic_string<char, std::__ndk1::char_traits<char>, std::__ndk1::allocator<char> > const> const&, websocketpp::frame::opcode::value), sio::client_impl*, std::__ndk1::shared_ptr<std::__ndk1::basic_string<char, std::__ndk1::char_traits<char>, std::__ndk1::allocator<char> > const> const&, websocketpp::frame::opcode::value>::~__bind()
PUBLIC bb8c8 0 __cxx_global_var_init.44
PUBLIC bb8e4 0 std::__ndk1::default_delete<sio::packet>::operator()[abi:v170000](sio::packet*) const
PUBLIC bb9c8 0 std::__ndk1::shared_ptr<websocketpp::log::basic<websocketpp::concurrency::basic, websocketpp::log::elevel> >::~shared_ptr[abi:v170000]()
PUBLIC bba18 0 std::__ndk1::shared_ptr<websocketpp::log::basic<websocketpp::concurrency::basic, websocketpp::log::alevel> >::~shared_ptr[abi:v170000]()
PUBLIC bba68 0 websocketpp::transport::asio::endpoint<websocketpp::config::asio_client::transport_config>::~endpoint()
PUBLIC m bbdac 0 asio::execution_context::~execution_context()
PUBLIC bbe48 0 std::__ndk1::basic_string<char, std::__ndk1::char_traits<char>, std::__ndk1::allocator<char> >::append[abi:v170000]<std::__ndk1::__wrap_iter<char const*> >(std::__ndk1::enable_if, std::__ndk1::enable_if)
PUBLIC bc120 0 websocketpp::uri::get_port_from_string(std::__ndk1::basic_string<char, std::__ndk1::char_traits<char>, std::__ndk1::allocator<char> > const&, std::__ndk1::error_code&) const
PUBLIC bc240 0 websocketpp::error::make_error_code(websocketpp::error::value)
PUBLIC bc2e4 0 websocketpp::error::category::~category()
PUBLIC bc308 0 websocketpp::error::category::name() const
PUBLIC bc314 0 websocketpp::error::category::message(int) const
PUBLIC bc888 0 {virtual override thunk({virtual offset(0, -24)}, std::__ndk1::basic_ostringstream<char, std::__ndk1::char_traits<char>, std::__ndk1::allocator<char> >::~basic_ostringstream())}
PUBLIC bc914 0 std::__ndk1::basic_ostringstream<char, std::__ndk1::char_traits<char>, std::__ndk1::allocator<char> >::~basic_ostringstream()
PUBLIC bc9a0 0 {virtual override thunk({virtual offset(0, -24)}, std::__ndk1::basic_ostringstream<char, std::__ndk1::char_traits<char>, std::__ndk1::allocator<char> >::~basic_ostringstream())}
PUBLIC bca34 0 std::__ndk1::basic_stringbuf<char, std::__ndk1::char_traits<char>, std::__ndk1::allocator<char> >::str() const
PUBLIC bcc48 0 std::__ndk1::__tree<std::__ndk1::__value_type<std::__ndk1::basic_string<char, std::__ndk1::char_traits<char>, std::__ndk1::allocator<char> >, std::__ndk1::shared_ptr<sio::message> >, std::__ndk1::__map_value_compare<std::__ndk1::basic_string<char, std::__ndk1::char_traits<char>, std::__ndk1::allocator<char> >, std::__ndk1::__value_type<std::__ndk1::basic_string<char, std::__ndk1::char_traits<char>, std::__ndk1::allocator<char> >, std::__ndk1::shared_ptr<sio::message> >, std::__ndk1::less<std::__ndk1::basic_string<char, std::__ndk1::char_traits<char>, std::__ndk1::allocator<char> > >, true>, std::__ndk1::allocator<std::__ndk1::__value_type<std::__ndk1::basic_string<char, std::__ndk1::char_traits<char>, std::__ndk1::allocator<char> >, std::__ndk1::shared_ptr<sio::message> > > >::find<std::__ndk1::basic_string<char, std::__ndk1::char_traits<char>, std::__ndk1::allocator<char> > >(std::__ndk1::basic_string<char, std::__ndk1::char_traits<char>, std::__ndk1::allocator<char> > const&) const
PUBLIC bcd88 0 websocketpp::endpoint<websocketpp::connection<websocketpp::config::asio_client>, websocketpp::config::asio_client>::endpoint(bool)
PUBLIC bd350 0 std::__ndk1::unique_ptr<websocketpp::log::basic<websocketpp::concurrency::basic, websocketpp::log::alevel>, std::__ndk1::default_delete<websocketpp::log::basic<websocketpp::concurrency::basic, websocketpp::log::alevel> > >::~unique_ptr[abi:v170000]()
PUBLIC bd38c 0 std::__ndk1::__shared_ptr_pointer<websocketpp::log::basic<websocketpp::concurrency::basic, websocketpp::log::alevel>*, std::__ndk1::shared_ptr<websocketpp::log::basic<websocketpp::concurrency::basic, websocketpp::log::alevel> >::__shared_ptr_default_delete<websocketpp::log::basic<websocketpp::concurrency::basic, websocketpp::log::alevel>, websocketpp::log::basic<websocketpp::concurrency::basic, websocketpp::log::alevel> >, std::__ndk1::allocator<websocketpp::log::basic<websocketpp::concurrency::basic, websocketpp::log::alevel> > >::~__shared_ptr_pointer()
PUBLIC bd3b0 0 std::__ndk1::__shared_ptr_pointer<websocketpp::log::basic<websocketpp::concurrency::basic, websocketpp::log::alevel>*, std::__ndk1::shared_ptr<websocketpp::log::basic<websocketpp::concurrency::basic, websocketpp::log::alevel> >::__shared_ptr_default_delete<websocketpp::log::basic<websocketpp::concurrency::basic, websocketpp::log::alevel>, websocketpp::log::basic<websocketpp::concurrency::basic, websocketpp::log::alevel> >, std::__ndk1::allocator<websocketpp::log::basic<websocketpp::concurrency::basic, websocketpp::log::alevel> > >::__on_zero_shared()
PUBLIC bd3e8 0 std::__ndk1::__shared_ptr_pointer<websocketpp::log::basic<websocketpp::concurrency::basic, websocketpp::log::alevel>*, std::__ndk1::shared_ptr<websocketpp::log::basic<websocketpp::concurrency::basic, websocketpp::log::alevel> >::__shared_ptr_default_delete<websocketpp::log::basic<websocketpp::concurrency::basic, websocketpp::log::alevel>, websocketpp::log::basic<websocketpp::concurrency::basic, websocketpp::log::alevel> >, std::__ndk1::allocator<websocketpp::log::basic<websocketpp::concurrency::basic, websocketpp::log::alevel> > >::__get_deleter(std::type_info const&) const
PUBLIC bd404 0 std::__ndk1::__shared_ptr_pointer<websocketpp::log::basic<websocketpp::concurrency::basic, websocketpp::log::alevel>*, std::__ndk1::shared_ptr<websocketpp::log::basic<websocketpp::concurrency::basic, websocketpp::log::alevel> >::__shared_ptr_default_delete<websocketpp::log::basic<websocketpp::concurrency::basic, websocketpp::log::alevel>, websocketpp::log::basic<websocketpp::concurrency::basic, websocketpp::log::alevel> >, std::__ndk1::allocator<websocketpp::log::basic<websocketpp::concurrency::basic, websocketpp::log::alevel> > >::__on_zero_shared_weak()
PUBLIC bd408 0 std::__ndk1::unique_ptr<websocketpp::log::basic<websocketpp::concurrency::basic, websocketpp::log::elevel>, std::__ndk1::default_delete<websocketpp::log::basic<websocketpp::concurrency::basic, websocketpp::log::elevel> > >::~unique_ptr[abi:v170000]()
PUBLIC bd444 0 std::__ndk1::__shared_ptr_pointer<websocketpp::log::basic<websocketpp::concurrency::basic, websocketpp::log::elevel>*, std::__ndk1::shared_ptr<websocketpp::log::basic<websocketpp::concurrency::basic, websocketpp::log::elevel> >::__shared_ptr_default_delete<websocketpp::log::basic<websocketpp::concurrency::basic, websocketpp::log::elevel>, websocketpp::log::basic<websocketpp::concurrency::basic, websocketpp::log::elevel> >, std::__ndk1::allocator<websocketpp::log::basic<websocketpp::concurrency::basic, websocketpp::log::elevel> > >::~__shared_ptr_pointer()
PUBLIC bd468 0 std::__ndk1::__shared_ptr_pointer<websocketpp::log::basic<websocketpp::concurrency::basic, websocketpp::log::elevel>*, std::__ndk1::shared_ptr<websocketpp::log::basic<websocketpp::concurrency::basic, websocketpp::log::elevel> >::__shared_ptr_default_delete<websocketpp::log::basic<websocketpp::concurrency::basic, websocketpp::log::elevel>, websocketpp::log::basic<websocketpp::concurrency::basic, websocketpp::log::elevel> >, std::__ndk1::allocator<websocketpp::log::basic<websocketpp::concurrency::basic, websocketpp::log::elevel> > >::__on_zero_shared()
PUBLIC bd4a0 0 std::__ndk1::__shared_ptr_pointer<websocketpp::log::basic<websocketpp::concurrency::basic, websocketpp::log::elevel>*, std::__ndk1::shared_ptr<websocketpp::log::basic<websocketpp::concurrency::basic, websocketpp::log::elevel> >::__shared_ptr_default_delete<websocketpp::log::basic<websocketpp::concurrency::basic, websocketpp::log::elevel>, websocketpp::log::basic<websocketpp::concurrency::basic, websocketpp::log::elevel> >, std::__ndk1::allocator<websocketpp::log::basic<websocketpp::concurrency::basic, websocketpp::log::elevel> > >::__get_deleter(std::type_info const&) const
PUBLIC bd4bc 0 std::__ndk1::__shared_ptr_pointer<websocketpp::log::basic<websocketpp::concurrency::basic, websocketpp::log::elevel>*, std::__ndk1::shared_ptr<websocketpp::log::basic<websocketpp::concurrency::basic, websocketpp::log::elevel> >::__shared_ptr_default_delete<websocketpp::log::basic<websocketpp::concurrency::basic, websocketpp::log::elevel>, websocketpp::log::basic<websocketpp::concurrency::basic, websocketpp::log::elevel> >, std::__ndk1::allocator<websocketpp::log::basic<websocketpp::concurrency::basic, websocketpp::log::elevel> > >::__on_zero_shared_weak()
PUBLIC bd4c0 0 std::__ndk1::__tree<std::__ndk1::__value_type<std::__ndk1::basic_string<char, std::__ndk1::char_traits<char>, std::__ndk1::allocator<char> > const, std::__ndk1::shared_ptr<sio::socket> >, std::__ndk1::__map_value_compare<std::__ndk1::basic_string<char, std::__ndk1::char_traits<char>, std::__ndk1::allocator<char> > const, std::__ndk1::__value_type<std::__ndk1::basic_string<char, std::__ndk1::char_traits<char>, std::__ndk1::allocator<char> > const, std::__ndk1::shared_ptr<sio::socket> >, std::__ndk1::less<std::__ndk1::basic_string<char, std::__ndk1::char_traits<char>, std::__ndk1::allocator<char> > const>, true>, std::__ndk1::allocator<std::__ndk1::__value_type<std::__ndk1::basic_string<char, std::__ndk1::char_traits<char>, std::__ndk1::allocator<char> > const, std::__ndk1::shared_ptr<sio::socket> > > >::destroy(std::__ndk1::__tree_node<std::__ndk1::__value_type<std::__ndk1::basic_string<char, std::__ndk1::char_traits<char>, std::__ndk1::allocator<char> > const, std::__ndk1::shared_ptr<sio::socket> >, void*>*)
PUBLIC bd54c 0 websocketpp::transport::asio::endpoint<websocketpp::config::asio_client::transport_config>::init_asio(asio::io_context*, std::__ndk1::error_code&)
PUBLIC bd748 0 websocketpp::exception::exception(std::__ndk1::error_code)
PUBLIC bd7e0 0 websocketpp::exception::~exception()
PUBLIC bd81c 0 websocketpp::log::basic<websocketpp::concurrency::basic, websocketpp::log::elevel>::write(unsigned int, char const*)
PUBLIC bda18 0 std::__ndk1::__shared_ptr_pointer<asio::basic_socket_acceptor<asio::ip::tcp>*, std::__ndk1::shared_ptr<asio::basic_socket_acceptor<asio::ip::tcp> >::__shared_ptr_default_delete<asio::basic_socket_acceptor<asio::ip::tcp>, asio::basic_socket_acceptor<asio::ip::tcp> >, std::__ndk1::allocator<asio::basic_socket_acceptor<asio::ip::tcp> > >::~__shared_ptr_pointer()
PUBLIC bda3c 0 std::__ndk1::__shared_ptr_pointer<asio::basic_socket_acceptor<asio::ip::tcp>*, std::__ndk1::shared_ptr<asio::basic_socket_acceptor<asio::ip::tcp> >::__shared_ptr_default_delete<asio::basic_socket_acceptor<asio::ip::tcp>, asio::basic_socket_acceptor<asio::ip::tcp> >, std::__ndk1::allocator<asio::basic_socket_acceptor<asio::ip::tcp> > >::__on_zero_shared()
PUBLIC bda80 0 std::__ndk1::__shared_ptr_pointer<asio::basic_socket_acceptor<asio::ip::tcp>*, std::__ndk1::shared_ptr<asio::basic_socket_acceptor<asio::ip::tcp> >::__shared_ptr_default_delete<asio::basic_socket_acceptor<asio::ip::tcp>, asio::basic_socket_acceptor<asio::ip::tcp> >, std::__ndk1::allocator<asio::basic_socket_acceptor<asio::ip::tcp> > >::__get_deleter(std::type_info const&) const
PUBLIC bda9c 0 std::__ndk1::__shared_ptr_pointer<asio::basic_socket_acceptor<asio::ip::tcp>*, std::__ndk1::shared_ptr<asio::basic_socket_acceptor<asio::ip::tcp> >::__shared_ptr_default_delete<asio::basic_socket_acceptor<asio::ip::tcp>, asio::basic_socket_acceptor<asio::ip::tcp> >, std::__ndk1::allocator<asio::basic_socket_acceptor<asio::ip::tcp> > >::__on_zero_shared_weak()
PUBLIC m bdaa0 0 asio::detail::reactive_socket_service_base::destroy(asio::detail::reactive_socket_service_base::base_implementation_type&)
PUBLIC m bdbb8 0 asio::detail::epoll_reactor::deregister_descriptor(int, asio::detail::epoll_reactor::descriptor_state*&, bool)
PUBLIC m be010 0 asio::detail::socket_ops::close(int, unsigned char&, bool, std::__ndk1::error_code&)
PUBLIC be2d8 0 std::__ndk1::error_code::operator=[abi:v170000]<asio::error::basic_errors>(std::__ndk1::enable_if)
PUBLIC m be36c 0 asio::detail::socket_ops::setsockopt(int, unsigned char&, int, int, void const*, unsigned long, std::__ndk1::error_code&)
PUBLIC m be5a0 0 asio::detail::service_registry::create<asio::detail::reactive_socket_service<asio::ip::tcp>, asio::io_context>(void*)
PUBLIC m be678 0 asio::detail::reactive_socket_service<asio::ip::tcp>::~reactive_socket_service()
PUBLIC m be67c 0 asio::detail::reactive_socket_service<asio::ip::tcp>::shutdown()
PUBLIC m be680 0 asio::detail::service_base<asio::detail::reactive_socket_service<asio::ip::tcp> >::~service_base()
PUBLIC m be684 0 asio::io_context::service::shutdown()
PUBLIC be690 0 websocketpp::exception::~exception()
PUBLIC be6d4 0 websocketpp::exception::what() const
PUBLIC m be6ec 0 asio::io_context::io_context()
PUBLIC m be858 0 asio::detail::service_registry::do_add_service(asio::execution_context::service::key const&, asio::execution_context::service*)
PUBLIC m bea8c 0 asio::invalid_service_owner::~invalid_service_owner()
PUBLIC m beab0 0 asio::service_already_exists::~service_already_exists()
PUBLIC bead4 0 std::__ndk1::default_delete<asio::io_context>::operator()[abi:v170000](asio::io_context*) const
PUBLIC beb7c 0 std::__ndk1::__function::__value_func<void (std::__ndk1::weak_ptr<void>)>::swap[abi:v170000](std::__ndk1::__function::__value_func<void (std::__ndk1::weak_ptr<void>)>&)
PUBLIC bed14 0 std::__ndk1::__function::__base<void (std::__ndk1::weak_ptr<void>)>::~__base()
PUBLIC bed18 0 std::__ndk1::__function::__func<std::__ndk1::__bind<void (sio::client_impl::*)(std::__ndk1::weak_ptr<void>), sio::client_impl*, std::__ndk1::placeholders::__ph<1> const&>, std::__ndk1::allocator<std::__ndk1::__bind<void (sio::client_impl::*)(std::__ndk1::weak_ptr<void>), sio::client_impl*, std::__ndk1::placeholders::__ph<1> const&> >, void (std::__ndk1::weak_ptr<void>)>::~__func()
PUBLIC bed1c 0 std::__ndk1::__function::__func<std::__ndk1::__bind<void (sio::client_impl::*)(std::__ndk1::weak_ptr<void>), sio::client_impl*, std::__ndk1::placeholders::__ph<1> const&>, std::__ndk1::allocator<std::__ndk1::__bind<void (sio::client_impl::*)(std::__ndk1::weak_ptr<void>), sio::client_impl*, std::__ndk1::placeholders::__ph<1> const&> >, void (std::__ndk1::weak_ptr<void>)>::__clone() const
PUBLIC bed5c 0 std::__ndk1::__function::__func<std::__ndk1::__bind<void (sio::client_impl::*)(std::__ndk1::weak_ptr<void>), sio::client_impl*, std::__ndk1::placeholders::__ph<1> const&>, std::__ndk1::allocator<std::__ndk1::__bind<void (sio::client_impl::*)(std::__ndk1::weak_ptr<void>), sio::client_impl*, std::__ndk1::placeholders::__ph<1> const&> >, void (std::__ndk1::weak_ptr<void>)>::__clone(std::__ndk1::__function::__base<void (std::__ndk1::weak_ptr<void>)>*) const
PUBLIC bed7c 0 std::__ndk1::__function::__func<std::__ndk1::__bind<void (sio::client_impl::*)(std::__ndk1::weak_ptr<void>), sio::client_impl*, std::__ndk1::placeholders::__ph<1> const&>, std::__ndk1::allocator<std::__ndk1::__bind<void (sio::client_impl::*)(std::__ndk1::weak_ptr<void>), sio::client_impl*, std::__ndk1::placeholders::__ph<1> const&> >, void (std::__ndk1::weak_ptr<void>)>::destroy()
PUBLIC bed80 0 std::__ndk1::__function::__func<std::__ndk1::__bind<void (sio::client_impl::*)(std::__ndk1::weak_ptr<void>), sio::client_impl*, std::__ndk1::placeholders::__ph<1> const&>, std::__ndk1::allocator<std::__ndk1::__bind<void (sio::client_impl::*)(std::__ndk1::weak_ptr<void>), sio::client_impl*, std::__ndk1::placeholders::__ph<1> const&> >, void (std::__ndk1::weak_ptr<void>)>::destroy_deallocate()
PUBLIC bed84 0 std::__ndk1::__function::__func<std::__ndk1::__bind<void (sio::client_impl::*)(std::__ndk1::weak_ptr<void>), sio::client_impl*, std::__ndk1::placeholders::__ph<1> const&>, std::__ndk1::allocator<std::__ndk1::__bind<void (sio::client_impl::*)(std::__ndk1::weak_ptr<void>), sio::client_impl*, std::__ndk1::placeholders::__ph<1> const&> >, void (std::__ndk1::weak_ptr<void>)>::operator()(std::__ndk1::weak_ptr<void>&&)
PUBLIC bee28 0 std::__ndk1::__function::__func<std::__ndk1::__bind<void (sio::client_impl::*)(std::__ndk1::weak_ptr<void>), sio::client_impl*, std::__ndk1::placeholders::__ph<1> const&>, std::__ndk1::allocator<std::__ndk1::__bind<void (sio::client_impl::*)(std::__ndk1::weak_ptr<void>), sio::client_impl*, std::__ndk1::placeholders::__ph<1> const&> >, void (std::__ndk1::weak_ptr<void>)>::target(std::type_info const&) const
PUBLIC bee44 0 std::__ndk1::__function::__func<std::__ndk1::__bind<void (sio::client_impl::*)(std::__ndk1::weak_ptr<void>), sio::client_impl*, std::__ndk1::placeholders::__ph<1> const&>, std::__ndk1::allocator<std::__ndk1::__bind<void (sio::client_impl::*)(std::__ndk1::weak_ptr<void>), sio::client_impl*, std::__ndk1::placeholders::__ph<1> const&> >, void (std::__ndk1::weak_ptr<void>)>::target_type() const
PUBLIC bee50 0 std::__ndk1::__function::__value_func<void (std::__ndk1::weak_ptr<void>, std::__ndk1::shared_ptr<websocketpp::message_buffer::message<websocketpp::message_buffer::alloc::con_msg_manager> >)>::swap[abi:v170000](std::__ndk1::__function::__value_func<void (std::__ndk1::weak_ptr<void>, std::__ndk1::shared_ptr<websocketpp::message_buffer::message<websocketpp::message_buffer::alloc::con_msg_manager> >)>&)
PUBLIC befe8 0 std::__ndk1::__function::__base<void (std::__ndk1::weak_ptr<void>, std::__ndk1::shared_ptr<websocketpp::message_buffer::message<websocketpp::message_buffer::alloc::con_msg_manager> >)>::~__base()
PUBLIC befec 0 std::__ndk1::__function::__func<std::__ndk1::__bind<void (sio::client_impl::*)(std::__ndk1::weak_ptr<void>, std::__ndk1::shared_ptr<websocketpp::message_buffer::message<websocketpp::message_buffer::alloc::con_msg_manager> >), sio::client_impl*, std::__ndk1::placeholders::__ph<1> const&, std::__ndk1::placeholders::__ph<2> const&>, std::__ndk1::allocator<std::__ndk1::__bind<void (sio::client_impl::*)(std::__ndk1::weak_ptr<void>, std::__ndk1::shared_ptr<websocketpp::message_buffer::message<websocketpp::message_buffer::alloc::con_msg_manager> >), sio::client_impl*, std::__ndk1::placeholders::__ph<1> const&, std::__ndk1::placeholders::__ph<2> const&> >, void (std::__ndk1::weak_ptr<void>, std::__ndk1::shared_ptr<websocketpp::message_buffer::message<websocketpp::message_buffer::alloc::con_msg_manager> >)>::~__func()
PUBLIC beff0 0 std::__ndk1::__function::__func<std::__ndk1::__bind<void (sio::client_impl::*)(std::__ndk1::weak_ptr<void>, std::__ndk1::shared_ptr<websocketpp::message_buffer::message<websocketpp::message_buffer::alloc::con_msg_manager> >), sio::client_impl*, std::__ndk1::placeholders::__ph<1> const&, std::__ndk1::placeholders::__ph<2> const&>, std::__ndk1::allocator<std::__ndk1::__bind<void (sio::client_impl::*)(std::__ndk1::weak_ptr<void>, std::__ndk1::shared_ptr<websocketpp::message_buffer::message<websocketpp::message_buffer::alloc::con_msg_manager> >), sio::client_impl*, std::__ndk1::placeholders::__ph<1> const&, std::__ndk1::placeholders::__ph<2> const&> >, void (std::__ndk1::weak_ptr<void>, std::__ndk1::shared_ptr<websocketpp::message_buffer::message<websocketpp::message_buffer::alloc::con_msg_manager> >)>::__clone() const
PUBLIC bf030 0 std::__ndk1::__function::__func<std::__ndk1::__bind<void (sio::client_impl::*)(std::__ndk1::weak_ptr<void>, std::__ndk1::shared_ptr<websocketpp::message_buffer::message<websocketpp::message_buffer::alloc::con_msg_manager> >), sio::client_impl*, std::__ndk1::placeholders::__ph<1> const&, std::__ndk1::placeholders::__ph<2> const&>, std::__ndk1::allocator<std::__ndk1::__bind<void (sio::client_impl::*)(std::__ndk1::weak_ptr<void>, std::__ndk1::shared_ptr<websocketpp::message_buffer::message<websocketpp::message_buffer::alloc::con_msg_manager> >), sio::client_impl*, std::__ndk1::placeholders::__ph<1> const&, std::__ndk1::placeholders::__ph<2> const&> >, void (std::__ndk1::weak_ptr<void>, std::__ndk1::shared_ptr<websocketpp::message_buffer::message<websocketpp::message_buffer::alloc::con_msg_manager> >)>::__clone(std::__ndk1::__function::__base<void (std::__ndk1::weak_ptr<void>, std::__ndk1::shared_ptr<websocketpp::message_buffer::message<websocketpp::message_buffer::alloc::con_msg_manager> >)>*) const
PUBLIC bf050 0 std::__ndk1::__function::__func<std::__ndk1::__bind<void (sio::client_impl::*)(std::__ndk1::weak_ptr<void>, std::__ndk1::shared_ptr<websocketpp::message_buffer::message<websocketpp::message_buffer::alloc::con_msg_manager> >), sio::client_impl*, std::__ndk1::placeholders::__ph<1> const&, std::__ndk1::placeholders::__ph<2> const&>, std::__ndk1::allocator<std::__ndk1::__bind<void (sio::client_impl::*)(std::__ndk1::weak_ptr<void>, std::__ndk1::shared_ptr<websocketpp::message_buffer::message<websocketpp::message_buffer::alloc::con_msg_manager> >), sio::client_impl*, std::__ndk1::placeholders::__ph<1> const&, std::__ndk1::placeholders::__ph<2> const&> >, void (std::__ndk1::weak_ptr<void>, std::__ndk1::shared_ptr<websocketpp::message_buffer::message<websocketpp::message_buffer::alloc::con_msg_manager> >)>::destroy()
PUBLIC bf054 0 std::__ndk1::__function::__func<std::__ndk1::__bind<void (sio::client_impl::*)(std::__ndk1::weak_ptr<void>, std::__ndk1::shared_ptr<websocketpp::message_buffer::message<websocketpp::message_buffer::alloc::con_msg_manager> >), sio::client_impl*, std::__ndk1::placeholders::__ph<1> const&, std::__ndk1::placeholders::__ph<2> const&>, std::__ndk1::allocator<std::__ndk1::__bind<void (sio::client_impl::*)(std::__ndk1::weak_ptr<void>, std::__ndk1::shared_ptr<websocketpp::message_buffer::message<websocketpp::message_buffer::alloc::con_msg_manager> >), sio::client_impl*, std::__ndk1::placeholders::__ph<1> const&, std::__ndk1::placeholders::__ph<2> const&> >, void (std::__ndk1::weak_ptr<void>, std::__ndk1::shared_ptr<websocketpp::message_buffer::message<websocketpp::message_buffer::alloc::con_msg_manager> >)>::destroy_deallocate()
PUBLIC bf058 0 std::__ndk1::__function::__func<std::__ndk1::__bind<void (sio::client_impl::*)(std::__ndk1::weak_ptr<void>, std::__ndk1::shared_ptr<websocketpp::message_buffer::message<websocketpp::message_buffer::alloc::con_msg_manager> >), sio::client_impl*, std::__ndk1::placeholders::__ph<1> const&, std::__ndk1::placeholders::__ph<2> const&>, std::__ndk1::allocator<std::__ndk1::__bind<void (sio::client_impl::*)(std::__ndk1::weak_ptr<void>, std::__ndk1::shared_ptr<websocketpp::message_buffer::message<websocketpp::message_buffer::alloc::con_msg_manager> >), sio::client_impl*, std::__ndk1::placeholders::__ph<1> const&, std::__ndk1::placeholders::__ph<2> const&> >, void (std::__ndk1::weak_ptr<void>, std::__ndk1::shared_ptr<websocketpp::message_buffer::message<websocketpp::message_buffer::alloc::con_msg_manager> >)>::operator()(std::__ndk1::weak_ptr<void>&&, std::__ndk1::shared_ptr<websocketpp::message_buffer::message<websocketpp::message_buffer::alloc::con_msg_manager> >&&)
PUBLIC bf0b4 0 std::__ndk1::__function::__func<std::__ndk1::__bind<void (sio::client_impl::*)(std::__ndk1::weak_ptr<void>, std::__ndk1::shared_ptr<websocketpp::message_buffer::message<websocketpp::message_buffer::alloc::con_msg_manager> >), sio::client_impl*, std::__ndk1::placeholders::__ph<1> const&, std::__ndk1::placeholders::__ph<2> const&>, std::__ndk1::allocator<std::__ndk1::__bind<void (sio::client_impl::*)(std::__ndk1::weak_ptr<void>, std::__ndk1::shared_ptr<websocketpp::message_buffer::message<websocketpp::message_buffer::alloc::con_msg_manager> >), sio::client_impl*, std::__ndk1::placeholders::__ph<1> const&, std::__ndk1::placeholders::__ph<2> const&> >, void (std::__ndk1::weak_ptr<void>, std::__ndk1::shared_ptr<websocketpp::message_buffer::message<websocketpp::message_buffer::alloc::con_msg_manager> >)>::target(std::type_info const&) const
PUBLIC bf0d0 0 std::__ndk1::__function::__func<std::__ndk1::__bind<void (sio::client_impl::*)(std::__ndk1::weak_ptr<void>, std::__ndk1::shared_ptr<websocketpp::message_buffer::message<websocketpp::message_buffer::alloc::con_msg_manager> >), sio::client_impl*, std::__ndk1::placeholders::__ph<1> const&, std::__ndk1::placeholders::__ph<2> const&>, std::__ndk1::allocator<std::__ndk1::__bind<void (sio::client_impl::*)(std::__ndk1::weak_ptr<void>, std::__ndk1::shared_ptr<websocketpp::message_buffer::message<websocketpp::message_buffer::alloc::con_msg_manager> >), sio::client_impl*, std::__ndk1::placeholders::__ph<1> const&, std::__ndk1::placeholders::__ph<2> const&> >, void (std::__ndk1::weak_ptr<void>, std::__ndk1::shared_ptr<websocketpp::message_buffer::message<websocketpp::message_buffer::alloc::con_msg_manager> >)>::target_type() const
PUBLIC bf0dc 0 std::__ndk1::__apply_functor[abi:v170000]<void (sio::client_impl::*)(std::__ndk1::weak_ptr<void>, std::__ndk1::shared_ptr<websocketpp::message_buffer::message<websocketpp::alloc::con_msg_manager> >), std::__ndk1::tuple<sio*, std::__ndk1::placeholders::__ph<1>, std::__ndk1::placeholders<2> >, (unsigned long)0, (unsigned long)1, (unsigned long)2, void (sio::client_impl::*)(std::__ndk1::weak_ptr<void>, std::__ndk1::shared_ptr<websocketpp::message_buffer::message<websocketpp::alloc::con_msg_manager> >)<std::__ndk1::weak_ptr&&, websocketpp::message_buffer::message<websocketpp::alloc::con_msg_manager>&&> >(std::__ndk1::__bind_return&, void (sio::client_impl&::*)(std::__ndk1::weak_ptr<void>, std::__ndk1::shared_ptr<websocketpp::message_buffer::message<websocketpp::alloc::con_msg_manager> >), std::__ndk1::__tuple_indices<((unsigned long)0, (unsigned long)1, (unsigned long)2)...>, std::__ndk1::tuple<sio*, std::__ndk1::placeholders::__ph<1>, std::__ndk1::placeholders<2> >&&)
PUBLIC bf1f8 0 std::__ndk1::shared_ptr<websocketpp::message_buffer::message<websocketpp::message_buffer::alloc::con_msg_manager> >::~shared_ptr[abi:v170000]()
PUBLIC bf248 0 std::__ndk1::__function::__func<std::__ndk1::__bind<void (sio::client_impl::*)(sio::packet const&), sio::client_impl*, std::__ndk1::placeholders::__ph<1> const&>, std::__ndk1::allocator<std::__ndk1::__bind<void (sio::client_impl::*)(sio::packet const&), sio::client_impl*, std::__ndk1::placeholders::__ph<1> const&> >, void (sio::packet const&)>::~__func()
PUBLIC bf24c 0 std::__ndk1::__function::__func<std::__ndk1::__bind<void (sio::client_impl::*)(sio::packet const&), sio::client_impl*, std::__ndk1::placeholders::__ph<1> const&>, std::__ndk1::allocator<std::__ndk1::__bind<void (sio::client_impl::*)(sio::packet const&), sio::client_impl*, std::__ndk1::placeholders::__ph<1> const&> >, void (sio::packet const&)>::__clone() const
PUBLIC bf28c 0 std::__ndk1::__function::__func<std::__ndk1::__bind<void (sio::client_impl::*)(sio::packet const&), sio::client_impl*, std::__ndk1::placeholders::__ph<1> const&>, std::__ndk1::allocator<std::__ndk1::__bind<void (sio::client_impl::*)(sio::packet const&), sio::client_impl*, std::__ndk1::placeholders::__ph<1> const&> >, void (sio::packet const&)>::__clone(std::__ndk1::__function::__base<void (sio::packet const&)>*) const
PUBLIC bf2ac 0 std::__ndk1::__function::__func<std::__ndk1::__bind<void (sio::client_impl::*)(sio::packet const&), sio::client_impl*, std::__ndk1::placeholders::__ph<1> const&>, std::__ndk1::allocator<std::__ndk1::__bind<void (sio::client_impl::*)(sio::packet const&), sio::client_impl*, std::__ndk1::placeholders::__ph<1> const&> >, void (sio::packet const&)>::destroy()
PUBLIC bf2b0 0 std::__ndk1::__function::__func<std::__ndk1::__bind<void (sio::client_impl::*)(sio::packet const&), sio::client_impl*, std::__ndk1::placeholders::__ph<1> const&>, std::__ndk1::allocator<std::__ndk1::__bind<void (sio::client_impl::*)(sio::packet const&), sio::client_impl*, std::__ndk1::placeholders::__ph<1> const&> >, void (sio::packet const&)>::destroy_deallocate()
PUBLIC bf2b4 0 std::__ndk1::__function::__func<std::__ndk1::__bind<void (sio::client_impl::*)(sio::packet const&), sio::client_impl*, std::__ndk1::placeholders::__ph<1> const&>, std::__ndk1::allocator<std::__ndk1::__bind<void (sio::client_impl::*)(sio::packet const&), sio::client_impl*, std::__ndk1::placeholders::__ph<1> const&> >, void (sio::packet const&)>::operator()(sio::packet const&)
PUBLIC bf2d0 0 std::__ndk1::__function::__func<std::__ndk1::__bind<void (sio::client_impl::*)(sio::packet const&), sio::client_impl*, std::__ndk1::placeholders::__ph<1> const&>, std::__ndk1::allocator<std::__ndk1::__bind<void (sio::client_impl::*)(sio::packet const&), sio::client_impl*, std::__ndk1::placeholders::__ph<1> const&> >, void (sio::packet const&)>::target(std::type_info const&) const
PUBLIC bf2ec 0 std::__ndk1::__function::__func<std::__ndk1::__bind<void (sio::client_impl::*)(sio::packet const&), sio::client_impl*, std::__ndk1::placeholders::__ph<1> const&>, std::__ndk1::allocator<std::__ndk1::__bind<void (sio::client_impl::*)(sio::packet const&), sio::client_impl*, std::__ndk1::placeholders::__ph<1> const&> >, void (sio::packet const&)>::target_type() const
PUBLIC bf2f8 0 std::__ndk1::__function::__base<void (sio::packet const&)>::~__base()
PUBLIC bf2fc 0 std::__ndk1::__function::__base<void (bool, std::__ndk1::shared_ptr<std::__ndk1::basic_string<char, std::__ndk1::char_traits<char>, std::__ndk1::allocator<char> > const> const&)>::~__base()
PUBLIC bf300 0 std::__ndk1::__function::__func<std::__ndk1::__bind<void (sio::client_impl::*)(bool, std::__ndk1::shared_ptr<std::__ndk1::basic_string<char, std::__ndk1::char_traits<char>, std::__ndk1::allocator<char> > const> const&), sio::client_impl*, std::__ndk1::placeholders::__ph<1> const&, std::__ndk1::placeholders::__ph<2> const&>, std::__ndk1::allocator<std::__ndk1::__bind<void (sio::client_impl::*)(bool, std::__ndk1::shared_ptr<std::__ndk1::basic_string<char, std::__ndk1::char_traits<char>, std::__ndk1::allocator<char> > const> const&), sio::client_impl*, std::__ndk1::placeholders::__ph<1> const&, std::__ndk1::placeholders::__ph<2> const&> >, void (bool, std::__ndk1::shared_ptr<std::__ndk1::basic_string<char, std::__ndk1::char_traits<char>, std::__ndk1::allocator<char> > const> const&)>::~__func()
PUBLIC bf304 0 std::__ndk1::__function::__func<std::__ndk1::__bind<void (sio::client_impl::*)(bool, std::__ndk1::shared_ptr<std::__ndk1::basic_string<char, std::__ndk1::char_traits<char>, std::__ndk1::allocator<char> > const> const&), sio::client_impl*, std::__ndk1::placeholders::__ph<1> const&, std::__ndk1::placeholders::__ph<2> const&>, std::__ndk1::allocator<std::__ndk1::__bind<void (sio::client_impl::*)(bool, std::__ndk1::shared_ptr<std::__ndk1::basic_string<char, std::__ndk1::char_traits<char>, std::__ndk1::allocator<char> > const> const&), sio::client_impl*, std::__ndk1::placeholders::__ph<1> const&, std::__ndk1::placeholders::__ph<2> const&> >, void (bool, std::__ndk1::shared_ptr<std::__ndk1::basic_string<char, std::__ndk1::char_traits<char>, std::__ndk1::allocator<char> > const> const&)>::__clone() const
PUBLIC bf344 0 std::__ndk1::__function::__func<std::__ndk1::__bind<void (sio::client_impl::*)(bool, std::__ndk1::shared_ptr<std::__ndk1::basic_string<char, std::__ndk1::char_traits<char>, std::__ndk1::allocator<char> > const> const&), sio::client_impl*, std::__ndk1::placeholders::__ph<1> const&, std::__ndk1::placeholders::__ph<2> const&>, std::__ndk1::allocator<std::__ndk1::__bind<void (sio::client_impl::*)(bool, std::__ndk1::shared_ptr<std::__ndk1::basic_string<char, std::__ndk1::char_traits<char>, std::__ndk1::allocator<char> > const> const&), sio::client_impl*, std::__ndk1::placeholders::__ph<1> const&, std::__ndk1::placeholders::__ph<2> const&> >, void (bool, std::__ndk1::shared_ptr<std::__ndk1::basic_string<char, std::__ndk1::char_traits<char>, std::__ndk1::allocator<char> > const> const&)>::__clone(std::__ndk1::__function::__base<void (bool, std::__ndk1::shared_ptr<std::__ndk1::basic_string<char, std::__ndk1::char_traits<char>, std::__ndk1::allocator<char> > const> const&)>*) const
PUBLIC bf364 0 std::__ndk1::__function::__func<std::__ndk1::__bind<void (sio::client_impl::*)(bool, std::__ndk1::shared_ptr<std::__ndk1::basic_string<char, std::__ndk1::char_traits<char>, std::__ndk1::allocator<char> > const> const&), sio::client_impl*, std::__ndk1::placeholders::__ph<1> const&, std::__ndk1::placeholders::__ph<2> const&>, std::__ndk1::allocator<std::__ndk1::__bind<void (sio::client_impl::*)(bool, std::__ndk1::shared_ptr<std::__ndk1::basic_string<char, std::__ndk1::char_traits<char>, std::__ndk1::allocator<char> > const> const&), sio::client_impl*, std::__ndk1::placeholders::__ph<1> const&, std::__ndk1::placeholders::__ph<2> const&> >, void (bool, std::__ndk1::shared_ptr<std::__ndk1::basic_string<char, std::__ndk1::char_traits<char>, std::__ndk1::allocator<char> > const> const&)>::destroy()
PUBLIC bf368 0 std::__ndk1::__function::__func<std::__ndk1::__bind<void (sio::client_impl::*)(bool, std::__ndk1::shared_ptr<std::__ndk1::basic_string<char, std::__ndk1::char_traits<char>, std::__ndk1::allocator<char> > const> const&), sio::client_impl*, std::__ndk1::placeholders::__ph<1> const&, std::__ndk1::placeholders::__ph<2> const&>, std::__ndk1::allocator<std::__ndk1::__bind<void (sio::client_impl::*)(bool, std::__ndk1::shared_ptr<std::__ndk1::basic_string<char, std::__ndk1::char_traits<char>, std::__ndk1::allocator<char> > const> const&), sio::client_impl*, std::__ndk1::placeholders::__ph<1> const&, std::__ndk1::placeholders::__ph<2> const&> >, void (bool, std::__ndk1::shared_ptr<std::__ndk1::basic_string<char, std::__ndk1::char_traits<char>, std::__ndk1::allocator<char> > const> const&)>::destroy_deallocate()
PUBLIC bf36c 0 std::__ndk1::__function::__func<std::__ndk1::__bind<void (sio::client_impl::*)(bool, std::__ndk1::shared_ptr<std::__ndk1::basic_string<char, std::__ndk1::char_traits<char>, std::__ndk1::allocator<char> > const> const&), sio::client_impl*, std::__ndk1::placeholders::__ph<1> const&, std::__ndk1::placeholders::__ph<2> const&>, std::__ndk1::allocator<std::__ndk1::__bind<void (sio::client_impl::*)(bool, std::__ndk1::shared_ptr<std::__ndk1::basic_string<char, std::__ndk1::char_traits<char>, std::__ndk1::allocator<char> > const> const&), sio::client_impl*, std::__ndk1::placeholders::__ph<1> const&, std::__ndk1::placeholders::__ph<2> const&> >, void (bool, std::__ndk1::shared_ptr<std::__ndk1::basic_string<char, std::__ndk1::char_traits<char>, std::__ndk1::allocator<char> > const> const&)>::operator()(bool&&, std::__ndk1::shared_ptr<std::__ndk1::basic_string<char, std::__ndk1::char_traits<char>, std::__ndk1::allocator<char> > const> const&)
PUBLIC bf38c 0 std::__ndk1::__function::__func<std::__ndk1::__bind<void (sio::client_impl::*)(bool, std::__ndk1::shared_ptr<std::__ndk1::basic_string<char, std::__ndk1::char_traits<char>, std::__ndk1::allocator<char> > const> const&), sio::client_impl*, std::__ndk1::placeholders::__ph<1> const&, std::__ndk1::placeholders::__ph<2> const&>, std::__ndk1::allocator<std::__ndk1::__bind<void (sio::client_impl::*)(bool, std::__ndk1::shared_ptr<std::__ndk1::basic_string<char, std::__ndk1::char_traits<char>, std::__ndk1::allocator<char> > const> const&), sio::client_impl*, std::__ndk1::placeholders::__ph<1> const&, std::__ndk1::placeholders::__ph<2> const&> >, void (bool, std::__ndk1::shared_ptr<std::__ndk1::basic_string<char, std::__ndk1::char_traits<char>, std::__ndk1::allocator<char> > const> const&)>::target(std::type_info const&) const
PUBLIC bf3a8 0 std::__ndk1::__function::__func<std::__ndk1::__bind<void (sio::client_impl::*)(bool, std::__ndk1::shared_ptr<std::__ndk1::basic_string<char, std::__ndk1::char_traits<char>, std::__ndk1::allocator<char> > const> const&), sio::client_impl*, std::__ndk1::placeholders::__ph<1> const&, std::__ndk1::placeholders::__ph<2> const&>, std::__ndk1::allocator<std::__ndk1::__bind<void (sio::client_impl::*)(bool, std::__ndk1::shared_ptr<std::__ndk1::basic_string<char, std::__ndk1::char_traits<char>, std::__ndk1::allocator<char> > const> const&), sio::client_impl*, std::__ndk1::placeholders::__ph<1> const&, std::__ndk1::placeholders::__ph<2> const&> >, void (bool, std::__ndk1::shared_ptr<std::__ndk1::basic_string<char, std::__ndk1::char_traits<char>, std::__ndk1::allocator<char> > const> const&)>::target_type() const
PUBLIC bf3b4 0 std::__ndk1::__tree<std::__ndk1::__value_type<std::__ndk1::basic_string<char, std::__ndk1::char_traits<char>, std::__ndk1::allocator<char> >, std::__ndk1::basic_string<char, std::__ndk1::char_traits<char>, std::__ndk1::allocator<char> > >, std::__ndk1::__map_value_compare<std::__ndk1::basic_string<char, std::__ndk1::char_traits<char>, std::__ndk1::allocator<char> >, std::__ndk1::__value_type<std::__ndk1::basic_string<char, std::__ndk1::char_traits<char>, std::__ndk1::allocator<char> >, std::__ndk1::basic_string<char, std::__ndk1::char_traits<char>, std::__ndk1::allocator<char> > >, std::__ndk1::less<std::__ndk1::basic_string<char, std::__ndk1::char_traits<char>, std::__ndk1::allocator<char> > >, true>, std::__ndk1::allocator<std::__ndk1::__value_type<std::__ndk1::basic_string<char, std::__ndk1::char_traits<char>, std::__ndk1::allocator<char> >, std::__ndk1::basic_string<char, std::__ndk1::char_traits<char>, std::__ndk1::allocator<char> > > > >::__assign_multi<std::__ndk1::__tree_const_iterator<std::__ndk1::__value_type<std::__ndk1::basic_string<char, std::__ndk1::char_traits<char>, std::__ndk1::allocator<char> >, std::__ndk1::basic_string<char, std::__ndk1::char_traits<char>, std::__ndk1::allocator<char> > >, std::__ndk1::__tree_node<std::__ndk1::__value_type<std::__ndk1::basic_string<char, std::__ndk1::char_traits<char>, std::__ndk1::allocator<char> >, std::__ndk1::basic_string<char, std::__ndk1::char_traits<char>, std::__ndk1::allocator<char> > >, void*>*, long> >(std::__ndk1::__tree_const_iterator<std::__ndk1::__value_type<std::__ndk1::basic_string<char, std::__ndk1::char_traits<char>, std::__ndk1::allocator<char> >, std::__ndk1::basic_string<char, std::__ndk1::char_traits<char>, std::__ndk1::allocator<char> > >, std::__ndk1::__tree_node<std::__ndk1::__value_type<std::__ndk1::basic_string<char, std::__ndk1::char_traits<char>, std::__ndk1::allocator<char> >, std::__ndk1::basic_string<char, std::__ndk1::char_traits<char>, std::__ndk1::allocator<char> > >, void*>*, long>, std::__ndk1::__tree_const_iterator<std::__ndk1::__value_type<std::__ndk1::basic_string<char, std::__ndk1::char_traits<char>, std::__ndk1::allocator<char> >, std::__ndk1::basic_string<char, std::__ndk1::char_traits<char>, std::__ndk1::allocator<char> > >, std::__ndk1::__tree_node<std::__ndk1::__value_type<std::__ndk1::basic_string<char, std::__ndk1::char_traits<char>, std::__ndk1::allocator<char> >, std::__ndk1::basic_string<char, std::__ndk1::char_traits<char>, std::__ndk1::allocator<char> > >, void*>*, long>)
PUBLIC bf64c 0 std::__ndk1::__tree<std::__ndk1::__value_type<std::__ndk1::basic_string<char, std::__ndk1::char_traits<char>, std::__ndk1::allocator<char> >, std::__ndk1::basic_string<char, std::__ndk1::char_traits<char>, std::__ndk1::allocator<char> > >, std::__ndk1::__map_value_compare<std::__ndk1::basic_string<char, std::__ndk1::char_traits<char>, std::__ndk1::allocator<char> >, std::__ndk1::__value_type<std::__ndk1::basic_string<char, std::__ndk1::char_traits<char>, std::__ndk1::allocator<char> >, std::__ndk1::basic_string<char, std::__ndk1::char_traits<char>, std::__ndk1::allocator<char> > >, std::__ndk1::less<std::__ndk1::basic_string<char, std::__ndk1::char_traits<char>, std::__ndk1::allocator<char> > >, true>, std::__ndk1::allocator<std::__ndk1::__value_type<std::__ndk1::basic_string<char, std::__ndk1::char_traits<char>, std::__ndk1::allocator<char> >, std::__ndk1::basic_string<char, std::__ndk1::char_traits<char>, std::__ndk1::allocator<char> > > > >::__node_insert_multi(std::__ndk1::__tree_node<std::__ndk1::__value_type<std::__ndk1::basic_string<char, std::__ndk1::char_traits<char>, std::__ndk1::allocator<char> >, std::__ndk1::basic_string<char, std::__ndk1::char_traits<char>, std::__ndk1::allocator<char> > >, void*>*)
PUBLIC bf758 0 std::__ndk1::__tree<std::__ndk1::__value_type<std::__ndk1::basic_string<char, std::__ndk1::char_traits<char>, std::__ndk1::allocator<char> >, std::__ndk1::basic_string<char, std::__ndk1::char_traits<char>, std::__ndk1::allocator<char> > >, std::__ndk1::__map_value_compare<std::__ndk1::basic_string<char, std::__ndk1::char_traits<char>, std::__ndk1::allocator<char> >, std::__ndk1::__value_type<std::__ndk1::basic_string<char, std::__ndk1::char_traits<char>, std::__ndk1::allocator<char> >, std::__ndk1::basic_string<char, std::__ndk1::char_traits<char>, std::__ndk1::allocator<char> > >, std::__ndk1::less<std::__ndk1::basic_string<char, std::__ndk1::char_traits<char>, std::__ndk1::allocator<char> > >, true>, std::__ndk1::allocator<std::__ndk1::__value_type<std::__ndk1::basic_string<char, std::__ndk1::char_traits<char>, std::__ndk1::allocator<char> >, std::__ndk1::basic_string<char, std::__ndk1::char_traits<char>, std::__ndk1::allocator<char> > > > >::_DetachedTreeCache::~_DetachedTreeCache[abi:v170000]()
PUBLIC bf7b0 0 std::__ndk1::__tree<std::__ndk1::__value_type<std::__ndk1::basic_string<char, std::__ndk1::char_traits<char>, std::__ndk1::allocator<char> >, std::__ndk1::basic_string<char, std::__ndk1::char_traits<char>, std::__ndk1::allocator<char> > >, std::__ndk1::__map_value_compare<std::__ndk1::basic_string<char, std::__ndk1::char_traits<char>, std::__ndk1::allocator<char> >, std::__ndk1::__value_type<std::__ndk1::basic_string<char, std::__ndk1::char_traits<char>, std::__ndk1::allocator<char> >, std::__ndk1::basic_string<char, std::__ndk1::char_traits<char>, std::__ndk1::allocator<char> > >, std::__ndk1::less<std::__ndk1::basic_string<char, std::__ndk1::char_traits<char>, std::__ndk1::allocator<char> > >, true>, std::__ndk1::allocator<std::__ndk1::__value_type<std::__ndk1::basic_string<char, std::__ndk1::char_traits<char>, std::__ndk1::allocator<char> >, std::__ndk1::basic_string<char, std::__ndk1::char_traits<char>, std::__ndk1::allocator<char> > > > >::__emplace_multi<std::__ndk1::pair<std::__ndk1::basic_string<char, std::__ndk1::char_traits<char>, std::__ndk1::allocator<char> > const, std::__ndk1::basic_string<char, std::__ndk1::char_traits<char>, std::__ndk1::allocator<char> > > const&>(std::__ndk1::pair<std::__ndk1::basic_string<char, std::__ndk1::char_traits<char>, std::__ndk1::allocator<char> > const, std::__ndk1::basic_string<char, std::__ndk1::char_traits<char>, std::__ndk1::allocator<char> > > const&)
PUBLIC bf96c 0 std::__ndk1::unique_ptr<std::__ndk1::__tree_node<std::__ndk1::__value_type<std::__ndk1::basic_string<char, std::__ndk1::char_traits<char>, std::__ndk1::allocator<char> >, std::__ndk1::basic_string<char, std::__ndk1::char_traits<char>, std::__ndk1::allocator<char> > >, void*>, std::__ndk1::__tree_node_destructor<std::__ndk1::allocator<std::__ndk1::__tree_node<std::__ndk1::__value_type<std::__ndk1::basic_string<char, std::__ndk1::char_traits<char>, std::__ndk1::allocator<char> >, std::__ndk1::basic_string<char, std::__ndk1::char_traits<char>, std::__ndk1::allocator<char> > >, void*> > > >::~unique_ptr[abi:v170000]()
PUBLIC m bf9c8 0 asio::detail::scheduler::do_dispatch(asio::detail::scheduler_operation*)
PUBLIC bfb30 0 asio::detail::completion_handler<std::__ndk1::__bind<void (sio::client_impl::*)(std::__ndk1::basic_string<char, std::__ndk1::char_traits<char>, std::__ndk1::allocator<char> > const&, std::__ndk1::basic_string<char, std::__ndk1::char_traits<char>, std::__ndk1::allocator<char> > const&), sio::client_impl*, std::__ndk1::basic_string<char, std::__ndk1::char_traits<char>, std::__ndk1::allocator<char> > const&, std::__ndk1::basic_string<char, std::__ndk1::char_traits<char>, std::__ndk1::allocator<char> >&> >::do_complete(void*, asio::detail::scheduler_operation*, std::__ndk1::error_code const&, unsigned long)
PUBLIC bfcb4 0 asio::detail::completion_handler<std::__ndk1::__bind<void (sio::client_impl::*)(std::__ndk1::basic_string<char, std::__ndk1::char_traits<char>, std::__ndk1::allocator<char> > const&, std::__ndk1::basic_string<char, std::__ndk1::char_traits<char>, std::__ndk1::allocator<char> > const&), sio::client_impl*, std::__ndk1::basic_string<char, std::__ndk1::char_traits<char>, std::__ndk1::allocator<char> > const&, std::__ndk1::basic_string<char, std::__ndk1::char_traits<char>, std::__ndk1::allocator<char> >&> >::ptr::reset()
PUBLIC bfd44 0 std::__ndk1::__thread_proxy[abi:v170000]<std::__ndk1::tuple<std::__ndk1::unique_ptr<std::__ndk1::__thread_struct, std::__ndk1::default_delete<std::__ndk1::unique_ptr> >, std::__ndk1::__bind<void (sio::client_impl::*)(), sio*> > >(std::__ndk1::tuple<std::__ndk1::unique_ptr<std::__ndk1::__thread_struct, std::__ndk1::default_delete<std::__ndk1::unique_ptr> >, std::__ndk1::__bind<void (sio::client_impl::*)(), sio*> >)
PUBLIC bfe10 0 std::__ndk1::unique_ptr<std::__ndk1::tuple<std::__ndk1::unique_ptr<std::__ndk1::__thread_struct, std::__ndk1::default_delete<std::__ndk1::__thread_struct> >, std::__ndk1::__bind<void (sio::client_impl::*)(), sio::client_impl*> >, std::__ndk1::default_delete<std::__ndk1::tuple<std::__ndk1::unique_ptr<std::__ndk1::__thread_struct, std::__ndk1::default_delete<std::__ndk1::__thread_struct> >, std::__ndk1::__bind<void (sio::client_impl::*)(), sio::client_impl*> > > >::~unique_ptr[abi:v170000]()
PUBLIC bfe60 0 std::__ndk1::__tree<std::__ndk1::__value_type<std::__ndk1::basic_string<char, std::__ndk1::char_traits<char>, std::__ndk1::allocator<char> > const, std::__ndk1::shared_ptr<sio::socket> >, std::__ndk1::__map_value_compare<std::__ndk1::basic_string<char, std::__ndk1::char_traits<char>, std::__ndk1::allocator<char> > const, std::__ndk1::__value_type<std::__ndk1::basic_string<char, std::__ndk1::char_traits<char>, std::__ndk1::allocator<char> > const, std::__ndk1::shared_ptr<sio::socket> >, std::__ndk1::less<std::__ndk1::basic_string<char, std::__ndk1::char_traits<char>, std::__ndk1::allocator<char> > const>, true>, std::__ndk1::allocator<std::__ndk1::__value_type<std::__ndk1::basic_string<char, std::__ndk1::char_traits<char>, std::__ndk1::allocator<char> > const, std::__ndk1::shared_ptr<sio::socket> > > >::find<std::__ndk1::basic_string<char, std::__ndk1::char_traits<char>, std::__ndk1::allocator<char> > >(std::__ndk1::basic_string<char, std::__ndk1::char_traits<char>, std::__ndk1::allocator<char> > const&)
PUBLIC bffa0 0 std::__ndk1::unique_ptr<sio::socket, std::__ndk1::default_delete<sio::socket> >::~unique_ptr[abi:v170000]()
PUBLIC bffdc 0 std::__ndk1::__shared_ptr_pointer<sio::socket*, std::__ndk1::shared_ptr<sio::socket>::__shared_ptr_default_delete<sio::socket, sio::socket>, std::__ndk1::allocator<sio::socket> >::~__shared_ptr_pointer()
PUBLIC c0000 0 std::__ndk1::__shared_ptr_pointer<sio::socket*, std::__ndk1::shared_ptr<sio::socket>::__shared_ptr_default_delete<sio::socket, sio::socket>, std::__ndk1::allocator<sio::socket> >::__on_zero_shared()
PUBLIC c0038 0 std::__ndk1::__shared_ptr_pointer<sio::socket*, std::__ndk1::shared_ptr<sio::socket>::__shared_ptr_default_delete<sio::socket, sio::socket>, std::__ndk1::allocator<sio::socket> >::__get_deleter(std::type_info const&) const
PUBLIC c0054 0 std::__ndk1::__shared_ptr_pointer<sio::socket*, std::__ndk1::shared_ptr<sio::socket>::__shared_ptr_default_delete<sio::socket, sio::socket>, std::__ndk1::allocator<sio::socket> >::__on_zero_shared_weak()
PUBLIC c0058 0 std::__ndk1::__tree<std::__ndk1::__value_type<std::__ndk1::basic_string<char, std::__ndk1::char_traits<char>, std::__ndk1::allocator<char> > const, std::__ndk1::shared_ptr<sio::socket> >, std::__ndk1::__map_value_compare<std::__ndk1::basic_string<char, std::__ndk1::char_traits<char>, std::__ndk1::allocator<char> > const, std::__ndk1::__value_type<std::__ndk1::basic_string<char, std::__ndk1::char_traits<char>, std::__ndk1::allocator<char> > const, std::__ndk1::shared_ptr<sio::socket> >, std::__ndk1::less<std::__ndk1::basic_string<char, std::__ndk1::char_traits<char>, std::__ndk1::allocator<char> > const>, true>, std::__ndk1::allocator<std::__ndk1::__value_type<std::__ndk1::basic_string<char, std::__ndk1::char_traits<char>, std::__ndk1::allocator<char> > const, std::__ndk1::shared_ptr<sio::socket> > > >::__emplace_unique_key_args<std::__ndk1::basic_string<char, std::__ndk1::char_traits<char>, std::__ndk1::allocator<char> >, std::__ndk1::pair<std::__ndk1::basic_string<char, std::__ndk1::char_traits<char>, std::__ndk1::allocator<char> > const, std::__ndk1::shared_ptr<sio::socket> > const&>(std::__ndk1::basic_string<char, std::__ndk1::char_traits<char>, std::__ndk1::allocator<char> > const&, std::__ndk1::pair<std::__ndk1::basic_string<char, std::__ndk1::char_traits<char>, std::__ndk1::allocator<char> > const, std::__ndk1::shared_ptr<sio::socket> > const&)
PUBLIC c0178 0 std::__ndk1::__tree<std::__ndk1::__value_type<std::__ndk1::basic_string<char, std::__ndk1::char_traits<char>, std::__ndk1::allocator<char> > const, std::__ndk1::shared_ptr<sio::socket> >, std::__ndk1::__map_value_compare<std::__ndk1::basic_string<char, std::__ndk1::char_traits<char>, std::__ndk1::allocator<char> > const, std::__ndk1::__value_type<std::__ndk1::basic_string<char, std::__ndk1::char_traits<char>, std::__ndk1::allocator<char> > const, std::__ndk1::shared_ptr<sio::socket> >, std::__ndk1::less<std::__ndk1::basic_string<char, std::__ndk1::char_traits<char>, std::__ndk1::allocator<char> > const>, true>, std::__ndk1::allocator<std::__ndk1::__value_type<std::__ndk1::basic_string<char, std::__ndk1::char_traits<char>, std::__ndk1::allocator<char> > const, std::__ndk1::shared_ptr<sio::socket> > > >::__find_equal<std::__ndk1::basic_string<char, std::__ndk1::char_traits<char>, std::__ndk1::allocator<char> > >(std::__ndk1::__tree_end_node<std::__ndk1::__tree_node_base<void*>*>*&, std::__ndk1::basic_string<char, std::__ndk1::char_traits<char>, std::__ndk1::allocator<char> > const&)
PUBLIC c0284 0 asio::detail::completion_handler<std::__ndk1::__bind<void (sio::client_impl::*)(unsigned short const&, std::__ndk1::basic_string<char, std::__ndk1::char_traits<char>, std::__ndk1::allocator<char> > const&), sio::client_impl*, unsigned short const&, char const (&) [12]> >::ptr::~ptr()
PUBLIC c02f8 0 std::__ndk1::__invoke[abi:v170000]<void (sio::client_impl&::*)(unsigned short const&, std::__ndk1::basic_string<char, std::__ndk1::char_traits<char>, std::__ndk1::allocator<char> > const&), sio*&, unsigned short&, char const*&, void>(sio*&, char const*&, void (sio::client_impl&::*)(unsigned short const&, std::__ndk1::basic_string<char, std::__ndk1::char_traits<char>, std::__ndk1::allocator<char> > const&))
PUBLIC c0434 0 asio::detail::completion_handler<std::__ndk1::__bind<void (sio::client_impl::*)(unsigned short const&, std::__ndk1::basic_string<char, std::__ndk1::char_traits<char>, std::__ndk1::allocator<char> > const&), sio::client_impl*, unsigned short const&, char const (&) [12]> >::do_complete(void*, asio::detail::scheduler_operation*, std::__ndk1::error_code const&, unsigned long)
PUBLIC c053c 0 std::__ndk1::__tree<std::__ndk1::__value_type<std::__ndk1::basic_string<char, std::__ndk1::char_traits<char>, std::__ndk1::allocator<char> > const, std::__ndk1::shared_ptr<sio::socket> >, std::__ndk1::__map_value_compare<std::__ndk1::basic_string<char, std::__ndk1::char_traits<char>, std::__ndk1::allocator<char> > const, std::__ndk1::__value_type<std::__ndk1::basic_string<char, std::__ndk1::char_traits<char>, std::__ndk1::allocator<char> > const, std::__ndk1::shared_ptr<sio::socket> >, std::__ndk1::less<std::__ndk1::basic_string<char, std::__ndk1::char_traits<char>, std::__ndk1::allocator<char> > const>, true>, std::__ndk1::allocator<std::__ndk1::__value_type<std::__ndk1::basic_string<char, std::__ndk1::char_traits<char>, std::__ndk1::allocator<char> > const, std::__ndk1::shared_ptr<sio::socket> > > >::erase(std::__ndk1::__tree_const_iterator<std::__ndk1::__value_type<std::__ndk1::basic_string<char, std::__ndk1::char_traits<char>, std::__ndk1::allocator<char> > const, std::__ndk1::shared_ptr<sio::socket> >, std::__ndk1::__tree_node<std::__ndk1::__value_type<std::__ndk1::basic_string<char, std::__ndk1::char_traits<char>, std::__ndk1::allocator<char> > const, std::__ndk1::shared_ptr<sio::socket> >, void*>*, long>)
PUBLIC m c0610 0 asio::detail::scheduler::run(std::__ndk1::error_code&)
PUBLIC m c0800 0 asio::detail::scheduler::do_run_one(asio::detail::conditionally_enabled_mutex::scoped_lock&, asio::detail::scheduler_thread_info&, std::__ndk1::error_code const&)
PUBLIC m c0c2c 0 asio::detail::call_stack<asio::detail::thread_context, asio::detail::thread_info_base>::context::~context()
PUBLIC m c0c54 0 asio::detail::scheduler_thread_info::~scheduler_thread_info()
PUBLIC m c0cf8 0 asio::detail::epoll_reactor::run(long, asio::detail::op_queue<asio::detail::scheduler_operation>&)
PUBLIC m c0f3c 0 asio::detail::scheduler::task_cleanup::~task_cleanup()
PUBLIC m c1004 0 asio::detail::scheduler::work_cleanup::~work_cleanup()
PUBLIC c10e4 0 websocketpp::client<websocketpp::config::asio_client>::get_connection(std::__ndk1::shared_ptr<websocketpp::uri>, std::__ndk1::error_code&)
PUBLIC c12cc 0 std::__ndk1::shared_ptr<websocketpp::uri>::~shared_ptr[abi:v170000]()
PUBLIC c131c 0 std::__ndk1::__shared_ptr_emplace<websocketpp::uri, std::__ndk1::allocator<websocketpp::uri> >::~__shared_ptr_emplace()
PUBLIC c132c 0 std::__ndk1::__shared_ptr_emplace<websocketpp::uri, std::__ndk1::allocator<websocketpp::uri> >::~__shared_ptr_emplace()
PUBLIC c135c 0 std::__ndk1::__shared_ptr_emplace<websocketpp::uri, std::__ndk1::allocator<websocketpp::uri> >::__on_zero_shared()
PUBLIC c13c0 0 std::__ndk1::__shared_ptr_emplace<websocketpp::uri, std::__ndk1::allocator<websocketpp::uri> >::__on_zero_shared_weak()
PUBLIC c13c4 0 websocketpp::endpoint<websocketpp::connection<websocketpp::config::asio_client>, websocketpp::config::asio_client>::create_connection()
PUBLIC c2314 0 websocketpp::connection<websocketpp::config::asio_client>::set_handle(std::__ndk1::weak_ptr<void>)
PUBLIC c23e8 0 websocketpp::transport::asio::endpoint<websocketpp::config::asio_client::transport_config>::init(std::__ndk1::shared_ptr<websocketpp::transport::asio::connection<websocketpp::config::asio_client::transport_config> >)
PUBLIC c2784 0 std::__ndk1::shared_ptr<websocketpp::transport::asio::connection<websocketpp::config::asio_client::transport_config> >::~shared_ptr[abi:v170000]()
PUBLIC c27d4 0 websocketpp::log::basic<websocketpp::concurrency::basic, websocketpp::log::elevel>::write(unsigned int, std::__ndk1::basic_string<char, std::__ndk1::char_traits<char>, std::__ndk1::allocator<char> > const&)
PUBLIC c29d0 0 std::__ndk1::allocate_shared[abi:v170000]<websocketpp::connection<std::__ndk1::allocate_shared[abi:v170000]::config::asio_client>, std::__ndk1::allocator<std::__ndk1::allocate_shared[abi:v170000]::config::asio_client>, bool const&, std::__ndk1::basic_string<char, std::__ndk1::char_traits<char>, websocketpp::connection<std::__ndk1::allocate_shared[abi:v170000]::config::asio_client><char> >&, std::__ndk1::shared_ptr<std::__ndk1::allocate_shared[abi:v170000]::log::basic<std::__ndk1::allocate_shared[abi:v170000]::concurrency::basic, std::__ndk1::shared_ptr::alevel> >&, std::__ndk1::basic_string<char, std::__ndk1::char_traits<char>, websocketpp::connection<std::__ndk1::allocate_shared[abi:v170000]::config::asio_client><char> ><std::__ndk1::allocate_shared[abi:v170000]::log<std::__ndk1::allocate_shared[abi:v170000]::concurrency, std::__ndk1::shared_ptr::elevel> >&, std::__ndk1::reference_wrapper<std::__ndk1::allocate_shared[abi:v170000]::random::random_device::int_generator<unsigned int, std::__ndk1::allocate_shared[abi:v170000]::concurrency> >, void>(std::__ndk1::allocator<std::__ndk1::allocate_shared[abi:v170000]::config::asio_client> const&, bool const&, std::__ndk1::basic_string<char, std::__ndk1::char_traits<char>, websocketpp::connection<std::__ndk1::allocate_shared[abi:v170000]::config::asio_client><char> >&, std::__ndk1::shared_ptr<std::__ndk1::allocate_shared[abi:v170000]::log::basic<std::__ndk1::allocate_shared[abi:v170000]::concurrency::basic, std::__ndk1::shared_ptr::alevel> >&, std::__ndk1::basic_string<char, std::__ndk1::char_traits<char>, websocketpp::connection<std::__ndk1::allocate_shared[abi:v170000]::config::asio_client><char> ><std::__ndk1::allocate_shared[abi:v170000]::log<std::__ndk1::allocate_shared[abi:v170000]::concurrency, std::__ndk1::shared_ptr::elevel> >&, std::__ndk1::reference_wrapper<std::__ndk1::allocate_shared[abi:v170000]::random::random_device::int_generator<unsigned int, std::__ndk1::allocate_shared[abi:v170000]::concurrency> >)
PUBLIC c2b24 0 websocketpp::connection<websocketpp::config::asio_client>::connection(bool, std::__ndk1::basic_string<char, std::__ndk1::char_traits<char>, std::__ndk1::allocator<char> > const&, std::__ndk1::shared_ptr<websocketpp::log::basic<websocketpp::concurrency::basic, websocketpp::log::alevel> > const&, std::__ndk1::shared_ptr<websocketpp::log::basic<websocketpp::concurrency::basic, websocketpp::log::elevel> > const&, websocketpp::random::random_device::int_generator<unsigned int, websocketpp::concurrency::basic>&)
PUBLIC c32bc 0 std::__ndk1::__shared_ptr_emplace<websocketpp::connection<websocketpp::config::asio_client>, std::__ndk1::allocator<websocketpp::connection<websocketpp::config::asio_client> > >::~__shared_ptr_emplace()
PUBLIC c32cc 0 std::__ndk1::__shared_ptr_emplace<websocketpp::connection<websocketpp::config::asio_client>, std::__ndk1::allocator<websocketpp::connection<websocketpp::config::asio_client> > >::~__shared_ptr_emplace()
PUBLIC c32fc 0 std::__ndk1::__shared_ptr_emplace<websocketpp::connection<websocketpp::config::asio_client>, std::__ndk1::allocator<websocketpp::connection<websocketpp::config::asio_client> > >::__on_zero_shared()
PUBLIC c3304 0 std::__ndk1::__shared_ptr_emplace<websocketpp::connection<websocketpp::config::asio_client>, std::__ndk1::allocator<websocketpp::connection<websocketpp::config::asio_client> > >::__on_zero_shared_weak()
PUBLIC c3308 0 websocketpp::transport::asio::connection<websocketpp::config::asio_client::transport_config>::connection(bool, std::__ndk1::shared_ptr<websocketpp::log::basic<websocketpp::concurrency::basic, websocketpp::log::alevel> > const&, std::__ndk1::shared_ptr<websocketpp::log::basic<websocketpp::concurrency::basic, websocketpp::log::elevel> > const&)
PUBLIC c34ec 0 websocketpp::connection<websocketpp::config::asio_client>::handle_read_frame(std::__ndk1::error_code const&, unsigned long)
PUBLIC c4394 0 websocketpp::connection<websocketpp::config::asio_client>::handle_write_frame(std::__ndk1::error_code const&)
PUBLIC c4694 0 std::__ndk1::shared_ptr<websocketpp::message_buffer::alloc::con_msg_manager<websocketpp::message_buffer::message<websocketpp::message_buffer::alloc::con_msg_manager> > >::shared_ptr<websocketpp::message_buffer::alloc::con_msg_manager<websocketpp::message_buffer::message<websocketpp::message_buffer::alloc::con_msg_manager> >, void>()
PUBLIC c4820 0 websocketpp::http::parser::response::~response()
PUBLIC c48d4 0 websocketpp::http::parser::request::~request()
PUBLIC c49a4 0 std::__ndk1::vector<std::__ndk1::shared_ptr<websocketpp::message_buffer::message<websocketpp::message_buffer::alloc::con_msg_manager> >, std::__ndk1::allocator<std::__ndk1::shared_ptr<websocketpp::message_buffer::message<websocketpp::message_buffer::alloc::con_msg_manager> > > >::~vector[abi:v170000]()
PUBLIC c4a4c 0 std::__ndk1::shared_ptr<websocketpp::processor::processor<websocketpp::config::asio_client> >::~shared_ptr[abi:v170000]()
PUBLIC c4a9c 0 std::__ndk1::shared_ptr<asio::basic_waitable_timer<std::__ndk1::chrono::steady_clock, asio::wait_traits<std::__ndk1::chrono::steady_clock> > >::~shared_ptr[abi:v170000]()
PUBLIC c4aec 0 std::__ndk1::shared_ptr<websocketpp::message_buffer::alloc::con_msg_manager<websocketpp::message_buffer::message<websocketpp::message_buffer::alloc::con_msg_manager> > >::~shared_ptr[abi:v170000]()
PUBLIC c4b3c 0 websocketpp::transport::asio::connection<websocketpp::config::asio_client::transport_config>::~connection()
PUBLIC c4d50 0 std::__ndk1::shared_ptr<asio::io_context::strand>::~shared_ptr[abi:v170000]()
PUBLIC c4da0 0 std::__ndk1::shared_ptr<websocketpp::transport::asio::connection<websocketpp::config::asio_client::transport_config>::proxy_data>::~shared_ptr[abi:v170000]()
PUBLIC c4df0 0 websocketpp::transport::asio::basic_socket::connection::~connection()
PUBLIC c4e98 0 websocketpp::connection<websocketpp::config::asio_client>::terminate(std::__ndk1::error_code const&)
PUBLIC c522c 0 websocketpp::connection<websocketpp::config::asio_client>::log_err<std::__ndk1::error_code>(unsigned int, char const*, std::__ndk1::error_code const&)
PUBLIC c54f4 0 std::__ndk1::basic_stringstream<char, std::__ndk1::char_traits<char>, std::__ndk1::allocator<char> >::basic_stringstream[abi:v170000]()
PUBLIC c55d8 0 websocketpp::utility::to_hex(unsigned char const*, unsigned long)
PUBLIC c5730 0 websocketpp::connection<websocketpp::config::asio_client>::close(unsigned short, std::__ndk1::basic_string<char, std::__ndk1::char_traits<char>, std::__ndk1::allocator<char> > const&, std::__ndk1::error_code&)
PUBLIC c591c 0 websocketpp::connection<websocketpp::config::asio_client>::process_control_frame(std::__ndk1::shared_ptr<websocketpp::message_buffer::message<websocketpp::message_buffer::alloc::con_msg_manager> >)
PUBLIC c6074 0 websocketpp::transport::error::category::~category()
PUBLIC c6098 0 websocketpp::transport::error::category::name() const
PUBLIC c60a4 0 websocketpp::transport::error::category::message(int) const
PUBLIC c6340 0 websocketpp::connection<websocketpp::config::asio_client>::log_fail_result()
PUBLIC c6958 0 websocketpp::transport::asio::connection<websocketpp::config::asio_client::transport_config>::async_shutdown(std::__ndk1::function<void (std::__ndk1::error_code const&)>)
PUBLIC c6f84 0 websocketpp::connection<websocketpp::config::asio_client>::handle_terminate(websocketpp::connection<websocketpp::config::asio_client>::terminate_status, std::__ndk1::error_code const&)
PUBLIC c73c4 0 std::__ndk1::__bind<void (websocketpp::connection<websocketpp::config::asio_client>::*)(websocketpp::connection<websocketpp::config::asio_client>::terminate_status, std::__ndk1::error_code const&), std::__ndk1::shared_ptr<websocketpp::connection<websocketpp::config::asio_client> >, websocketpp::connection<websocketpp::config::asio_client>&::terminate_status, std::__ndk1::placeholders::__ph<1> const&>::~__bind()
PUBLIC c7414 0 websocketpp::processor::get_websocket_version<websocketpp::http::parser::request>(websocketpp::http::parser::request&)
PUBLIC c7654 0 websocketpp::transport::asio::connection<websocketpp::config::asio_client::transport_config>::get_remote_endpoint() const
PUBLIC c774c 0 websocketpp::utility::string_replace_all(std::__ndk1::basic_string<char, std::__ndk1::char_traits<char>, std::__ndk1::allocator<char> >, std::__ndk1::basic_string<char, std::__ndk1::char_traits<char>, std::__ndk1::allocator<char> > const&, std::__ndk1::basic_string<char, std::__ndk1::char_traits<char>, std::__ndk1::allocator<char> > const&)
PUBLIC c78c8 0 std::__ndk1::operator<<[abi:v170000]<char, std::__ndk1::char_traits<char> >(std::__ndk1::basic_ostream<char, std::__ndk1::char_traits<char> >, std::__ndk1::error_code const&)
PUBLIC c795c 0 std::__ndk1::basic_istringstream<char, std::__ndk1::char_traits<char>, std::__ndk1::allocator<char> >::basic_istringstream[abi:v170000](std::__ndk1::basic_string<char, std::__ndk1::char_traits<char>, std::__ndk1::allocator<char> > const&, unsigned int)
PUBLIC c7a68 0 std::__ndk1::basic_istringstream<char, std::__ndk1::char_traits<char>, std::__ndk1::allocator<char> >::~basic_istringstream()
PUBLIC c7aec 0 std::__ndk1::basic_istringstream<char, std::__ndk1::char_traits<char>, std::__ndk1::allocator<char> >::~basic_istringstream()
PUBLIC c7b78 0 {virtual override thunk({virtual offset(0, -24)}, std::__ndk1::basic_istringstream<char, std::__ndk1::char_traits<char>, std::__ndk1::allocator<char> >::~basic_istringstream())}
PUBLIC c7c04 0 {virtual override thunk({virtual offset(0, -24)}, std::__ndk1::basic_istringstream<char, std::__ndk1::char_traits<char>, std::__ndk1::allocator<char> >::~basic_istringstream())}
PUBLIC c7c98 0 websocketpp::transport::asio::basic_socket::connection::get_remote_endpoint(std::__ndk1::error_code&) const
PUBLIC c801c 0 websocketpp::transport::asio::error::make_error_code(websocketpp::transport::asio::error::value)
PUBLIC m c80b4 0 asio::ip::operator<< <char, std::__ndk1::char_traits<char>, asio::ip::tcp>(std::__ndk1::basic_ostream<char, std::__ndk1::char_traits<char> >&, asio::ip::basic_endpoint<asio::ip::tcp> const&)
PUBLIC m c81d4 0 asio::detail::socket_ops::getpeername(int, sockaddr*, unsigned long*, bool, std::__ndk1::error_code&)
PUBLIC m c8358 0 asio::ip::detail::endpoint::resize(unsigned long)
PUBLIC c8484 0 websocketpp::transport::asio::error::category::~category()
PUBLIC c84a8 0 websocketpp::transport::asio::error::category::name() const
PUBLIC c84b4 0 websocketpp::transport::asio::error::category::message(int) const
PUBLIC m c866c 0 asio::ip::detail::endpoint::endpoint(asio::ip::address const&, unsigned short)
PUBLIC m c87e8 0 asio::ip::detail::endpoint::to_string() const
PUBLIC m c8ad4 0 asio::ip::bad_address_cast::~bad_address_cast()
PUBLIC m c8af8 0 asio::ip::bad_address_cast::what() const
PUBLIC m c8b04 0 asio::ip::operator<< <char, std::__ndk1::char_traits<char> >(std::__ndk1::basic_ostream<char, std::__ndk1::char_traits<char> >&, asio::ip::address const&)
PUBLIC m c8bec 0 asio::ip::address_v6::to_string() const
PUBLIC m c8d64 0 asio::ip::address_v4::to_string() const
PUBLIC m c8edc 0 asio::detail::socket_ops::inet_ntop(int, void const*, char*, unsigned long, unsigned long, std::__ndk1::error_code&)
PUBLIC c90d0 0 sprintf(char*, char const* pass_object_size1, ...)
PUBLIC c9174 0 std::__ndk1::__tree<std::__ndk1::__value_type<std::__ndk1::basic_string<char, std::__ndk1::char_traits<char>, std::__ndk1::allocator<char> >, std::__ndk1::basic_string<char, std::__ndk1::char_traits<char>, std::__ndk1::allocator<char> > >, std::__ndk1::__map_value_compare<std::__ndk1::basic_string<char, std::__ndk1::char_traits<char>, std::__ndk1::allocator<char> >, std::__ndk1::__value_type<std::__ndk1::basic_string<char, std::__ndk1::char_traits<char>, std::__ndk1::allocator<char> >, std::__ndk1::basic_string<char, std::__ndk1::char_traits<char>, std::__ndk1::allocator<char> > >, websocketpp::utility::ci_less, true>, std::__ndk1::allocator<std::__ndk1::__value_type<std::__ndk1::basic_string<char, std::__ndk1::char_traits<char>, std::__ndk1::allocator<char> >, std::__ndk1::basic_string<char, std::__ndk1::char_traits<char>, std::__ndk1::allocator<char> > > > >::find<std::__ndk1::basic_string<char, std::__ndk1::char_traits<char>, std::__ndk1::allocator<char> > >(std::__ndk1::basic_string<char, std::__ndk1::char_traits<char>, std::__ndk1::allocator<char> > const&) const
PUBLIC c92d4 0 websocketpp::transport::asio::connection<websocketpp::config::asio_client::transport_config>::set_timer(long, std::__ndk1::function<void (std::__ndk1::error_code const&)>)
PUBLIC c9688 0 websocketpp::transport::asio::connection<websocketpp::config::asio_client::transport_config>::handle_async_shutdown_timeout(std::__ndk1::shared_ptr<asio::basic_waitable_timer<std::__ndk1::chrono::steady_clock, asio::wait_traits<std::__ndk1::chrono::steady_clock> > >, std::__ndk1::function<void (std::__ndk1::error_code const&)>, std::__ndk1::error_code const&)
PUBLIC c9874 0 std::__ndk1::__bind<void (websocketpp::transport::asio::connection<websocketpp::config::asio_client::transport_config>::*)(std::__ndk1::shared_ptr<asio::basic_waitable_timer<std::__ndk1::chrono::steady_clock, asio::wait_traits<std::__ndk1::chrono::steady_clock> > >, std::__ndk1::function<void (std::__ndk1::error_code const&)>, std::__ndk1::error_code const&), std::__ndk1::shared_ptr<websocketpp::transport::asio::connection<websocketpp::config::asio_client::transport_config> >, std::__ndk1::shared_ptr<asio::basic_waitable_timer<std::__ndk1::chrono::steady_clock, asio::wait_traits<std::__ndk1::chrono::steady_clock> > >&, std::__ndk1::function<void (std::__ndk1::error_code const&)>&, std::__ndk1::placeholders::__ph<1> const&>::~__bind()
PUBLIC c9934 0 websocketpp::transport::asio::connection<websocketpp::config::asio_client::transport_config>::handle_async_shutdown(std::__ndk1::shared_ptr<asio::basic_waitable_timer<std::__ndk1::chrono::steady_clock, asio::wait_traits<std::__ndk1::chrono::steady_clock> > >, std::__ndk1::function<void (std::__ndk1::error_code const&)>, std::__ndk1::error_code const&)
PUBLIC m c9b98 0 asio::basic_waitable_timer<std::__ndk1::chrono::steady_clock, asio::wait_traits<std::__ndk1::chrono::steady_clock> >::basic_waitable_timer(asio::io_context&, std::__ndk1::chrono::duration<long long, std::__ndk1::ratio<(long)1, (long)1000000000> > const&)
PUBLIC c9ccc 0 websocketpp::transport::asio::connection<websocketpp::config::asio_client::transport_config>::handle_timer(std::__ndk1::shared_ptr<asio::basic_waitable_timer<std::__ndk1::chrono::steady_clock, asio::wait_traits<std::__ndk1::chrono::steady_clock> > >, std::__ndk1::function<void (std::__ndk1::error_code const&)>, std::__ndk1::error_code const&)
PUBLIC c9ec8 0 asio::detail::wrapped_handler<asio::io_context::strand, std::__ndk1::__bind<void (websocketpp::transport::asio::connection<websocketpp::config::asio_client::transport_config>::*)(std::__ndk1::shared_ptr<asio::basic_waitable_timer<std::__ndk1::chrono::steady_clock, asio::wait_traits<std::__ndk1::chrono::steady_clock> > >, std::__ndk1::function<void (std::__ndk1::error_code const&)>, std::__ndk1::error_code const&), std::__ndk1::shared_ptr<websocketpp::transport::asio::connection<websocketpp::config::asio_client::transport_config> >, std::__ndk1::shared_ptr<asio::basic_waitable_timer<std::__ndk1::chrono::steady_clock, asio::wait_traits<std::__ndk1::chrono::steady_clock> > >&, std::__ndk1::function<void (std::__ndk1::error_code const&)>&, std::__ndk1::placeholders::__ph<1> const&>, asio::detail::is_continuation_if_running>::~wrapped_handler()
PUBLIC m c9f88 0 asio::detail::noncopyable::~noncopyable()
PUBLIC c9f8c 0 std::__ndk1::__shared_ptr_pointer<asio::basic_waitable_timer<std::__ndk1::chrono::steady_clock, asio::wait_traits<std::__ndk1::chrono::steady_clock> >*, std::__ndk1::shared_ptr<asio::basic_waitable_timer<std::__ndk1::chrono::steady_clock, asio::wait_traits<std::__ndk1::chrono::steady_clock> > >::__shared_ptr_default_delete<asio::basic_waitable_timer<std::__ndk1::chrono::steady_clock, asio::wait_traits<std::__ndk1::chrono::steady_clock> >, asio::basic_waitable_timer<std::__ndk1::chrono::steady_clock, asio::wait_traits<std::__ndk1::chrono::steady_clock> > >, std::__ndk1::allocator<asio::basic_waitable_timer<std::__ndk1::chrono::steady_clock, asio::wait_traits<std::__ndk1::chrono::steady_clock> > > >::~__shared_ptr_pointer()
PUBLIC c9fb0 0 std::__ndk1::__shared_ptr_pointer<asio::basic_waitable_timer<std::__ndk1::chrono::steady_clock, asio::wait_traits<std::__ndk1::chrono::steady_clock> >*, std::__ndk1::shared_ptr<asio::basic_waitable_timer<std::__ndk1::chrono::steady_clock, asio::wait_traits<std::__ndk1::chrono::steady_clock> > >::__shared_ptr_default_delete<asio::basic_waitable_timer<std::__ndk1::chrono::steady_clock, asio::wait_traits<std::__ndk1::chrono::steady_clock> >, asio::basic_waitable_timer<std::__ndk1::chrono::steady_clock, asio::wait_traits<std::__ndk1::chrono::steady_clock> > >, std::__ndk1::allocator<asio::basic_waitable_timer<std::__ndk1::chrono::steady_clock, asio::wait_traits<std::__ndk1::chrono::steady_clock> > > >::__on_zero_shared()
PUBLIC c9fe8 0 std::__ndk1::__shared_ptr_pointer<asio::basic_waitable_timer<std::__ndk1::chrono::steady_clock, asio::wait_traits<std::__ndk1::chrono::steady_clock> >*, std::__ndk1::shared_ptr<asio::basic_waitable_timer<std::__ndk1::chrono::steady_clock, asio::wait_traits<std::__ndk1::chrono::steady_clock> > >::__shared_ptr_default_delete<asio::basic_waitable_timer<std::__ndk1::chrono::steady_clock, asio::wait_traits<std::__ndk1::chrono::steady_clock> >, asio::basic_waitable_timer<std::__ndk1::chrono::steady_clock, asio::wait_traits<std::__ndk1::chrono::steady_clock> > >, std::__ndk1::allocator<asio::basic_waitable_timer<std::__ndk1::chrono::steady_clock, asio::wait_traits<std::__ndk1::chrono::steady_clock> > > >::__get_deleter(std::type_info const&) const
PUBLIC ca004 0 std::__ndk1::__shared_ptr_pointer<asio::basic_waitable_timer<std::__ndk1::chrono::steady_clock, asio::wait_traits<std::__ndk1::chrono::steady_clock> >*, std::__ndk1::shared_ptr<asio::basic_waitable_timer<std::__ndk1::chrono::steady_clock, asio::wait_traits<std::__ndk1::chrono::steady_clock> > >::__shared_ptr_default_delete<asio::basic_waitable_timer<std::__ndk1::chrono::steady_clock, asio::wait_traits<std::__ndk1::chrono::steady_clock> >, asio::basic_waitable_timer<std::__ndk1::chrono::steady_clock, asio::wait_traits<std::__ndk1::chrono::steady_clock> > >, std::__ndk1::allocator<asio::basic_waitable_timer<std::__ndk1::chrono::steady_clock, asio::wait_traits<std::__ndk1::chrono::steady_clock> > > >::__on_zero_shared_weak()
PUBLIC ca008 0 asio::detail::deadline_timer_service<asio::detail::chrono_time_traits<std::__ndk1::chrono::steady_clock, asio::wait_traits<std::__ndk1::chrono::steady_clock> > >::async_wait<asio::detail::wrapped_handler<asio::io_context::strand, std::__ndk1::__bind<void (websocketpp::transport::asio::connection<websocketpp::config::asio_client::transport_config>::*)(std::__ndk1::shared_ptr<asio::basic_waitable_timer<std::__ndk1::chrono::steady_clock, asio::wait_traits<std::__ndk1::chrono::steady_clock> > >, std::__ndk1::function<void (std::__ndk1::error_code const&)>, std::__ndk1::error_code const&), std::__ndk1::shared_ptr<websocketpp::transport::asio::connection<websocketpp::config::asio_client::transport_config> >, std::__ndk1::shared_ptr<asio::basic_waitable_timer<std::__ndk1::chrono::steady_clock, asio::wait_traits<std::__ndk1::chrono::steady_clock> > >&, std::__ndk1::function<void (std::__ndk1::error_code const&)>&, std::__ndk1::placeholders::__ph<1> const&>, asio::detail::is_continuation_if_running> >(asio::detail::deadline_timer_service<asio::detail::chrono_time_traits<std::__ndk1::chrono::steady_clock, asio::wait_traits<std::__ndk1::chrono::steady_clock> > >::implementation_type&, asio::detail::wrapped_handler<asio::io_context::strand, std::__ndk1::__bind<void (websocketpp::transport::asio::connection<websocketpp::config::asio_client::transport_config>::*)(std::__ndk1::shared_ptr<asio::basic_waitable_timer<std::__ndk1::chrono::steady_clock, asio::wait_traits<std::__ndk1::chrono::steady_clock> > >, std::__ndk1::function<void (std::__ndk1::error_code const&)>, std::__ndk1::error_code const&), std::__ndk1::shared_ptr<websocketpp::transport::asio::connection<websocketpp::config::asio_client::transport_config> >, std::__ndk1::shared_ptr<asio::basic_waitable_timer<std::__ndk1::chrono::steady_clock, asio::wait_traits<std::__ndk1::chrono::steady_clock> > >&, std::__ndk1::function<void (std::__ndk1::error_code const&)>&, std::__ndk1::placeholders::__ph<1> const&>, asio::detail::is_continuation_if_running>&)
PUBLIC ca1ac 0 asio::detail::wait_handler<asio::detail::wrapped_handler<asio::io_context::strand, std::__ndk1::__bind<void (websocketpp::transport::asio::connection<websocketpp::config::asio_client::transport_config>::*)(std::__ndk1::shared_ptr<asio::basic_waitable_timer<std::__ndk1::chrono::steady_clock, asio::wait_traits<std::__ndk1::chrono::steady_clock> > >, std::__ndk1::function<void (std::__ndk1::error_code const&)>, std::__ndk1::error_code const&), std::__ndk1::shared_ptr<websocketpp::transport::asio::connection<websocketpp::config::asio_client::transport_config> >, std::__ndk1::shared_ptr<asio::basic_waitable_timer<std::__ndk1::chrono::steady_clock, asio::wait_traits<std::__ndk1::chrono::steady_clock> > >&, std::__ndk1::function<void (std::__ndk1::error_code const&)>&, std::__ndk1::placeholders::__ph<1> const&>, asio::detail::is_continuation_if_running> >::do_complete(void*, asio::detail::scheduler_operation*, std::__ndk1::error_code const&, unsigned long)
PUBLIC ca370 0 asio::detail::wait_handler<asio::detail::wrapped_handler<asio::io_context::strand, std::__ndk1::__bind<void (websocketpp::transport::asio::connection<websocketpp::config::asio_client::transport_config>::*)(std::__ndk1::shared_ptr<asio::basic_waitable_timer<std::__ndk1::chrono::steady_clock, asio::wait_traits<std::__ndk1::chrono::steady_clock> > >, std::__ndk1::function<void (std::__ndk1::error_code const&)>, std::__ndk1::error_code const&), std::__ndk1::shared_ptr<websocketpp::transport::asio::connection<websocketpp::config::asio_client::transport_config> >, std::__ndk1::shared_ptr<asio::basic_waitable_timer<std::__ndk1::chrono::steady_clock, asio::wait_traits<std::__ndk1::chrono::steady_clock> > >&, std::__ndk1::function<void (std::__ndk1::error_code const&)>&, std::__ndk1::placeholders::__ph<1> const&>, asio::detail::is_continuation_if_running> >::ptr::reset()
PUBLIC ca488 0 asio::detail::binder1<asio::detail::wrapped_handler<asio::io_context::strand, std::__ndk1::__bind<void (websocketpp::transport::asio::connection<websocketpp::config::asio_client::transport_config>::*)(std::__ndk1::shared_ptr<asio::basic_waitable_timer<std::__ndk1::chrono::steady_clock, asio::wait_traits<std::__ndk1::chrono::steady_clock> > >, std::__ndk1::function<void (std::__ndk1::error_code const&)>, std::__ndk1::error_code const&), std::__ndk1::shared_ptr<websocketpp::transport::asio::connection<websocketpp::config::asio_client::transport_config> >, std::__ndk1::shared_ptr<asio::basic_waitable_timer<std::__ndk1::chrono::steady_clock, asio::wait_traits<std::__ndk1::chrono::steady_clock> > >&, std::__ndk1::function<void (std::__ndk1::error_code const&)>&, std::__ndk1::placeholders::__ph<1> const&>, asio::detail::is_continuation_if_running>, std::__ndk1::error_code>::~binder1()
PUBLIC ca548 0 asio::detail::asio_handler_invoke<asio::detail::binder1<asio::detail::wrapped_handler<asio::io_context::strand, std::__ndk1::__bind<void (websocketpp::transport::asio::connection<websocketpp::config::asio_client::transport_config>::*)(std::__ndk1::shared_ptr<asio::basic_waitable_timer<std::__ndk1::chrono::steady_clock, asio::wait_traits<std::__ndk1::chrono::steady_clock> > >, std::__ndk1::function<void (std::__ndk1::error_code const&)>, std::__ndk1::error_code const&), std::__ndk1::shared_ptr<websocketpp::transport::asio::connection<websocketpp::config::asio_client::transport_config> >, std::__ndk1::shared_ptr<asio::basic_waitable_timer<std::__ndk1::chrono::steady_clock, asio::wait_traits<std::__ndk1::chrono::steady_clock> > >&, std::__ndk1::function<void (std::__ndk1::error_code const&)>&, std::__ndk1::placeholders::__ph<1> const&>, asio::detail::is_continuation_if_running>, std::__ndk1::error_code>, asio::io_context::strand, std::__ndk1::__bind<void (websocketpp::transport::asio::connection<websocketpp::config::asio_client::transport_config>::*)(std::__ndk1::shared_ptr<asio::basic_waitable_timer<std::__ndk1::chrono::steady_clock, asio::wait_traits<std::__ndk1::chrono::steady_clock> > >, std::__ndk1::function<void (std::__ndk1::error_code const&)>, std::__ndk1::error_code const&), std::__ndk1::shared_ptr<websocketpp::transport::asio::connection<websocketpp::config::asio_client::transport_config> >, std::__ndk1::shared_ptr<asio::basic_waitable_timer<std::__ndk1::chrono::steady_clock, asio::wait_traits<std::__ndk1::chrono::steady_clock> > >&, std::__ndk1::function<void (std::__ndk1::error_code const&)>&, std::__ndk1::placeholders::__ph<1> const&>, asio::detail::is_continuation_if_running>(asio::detail::binder1<asio::detail::wrapped_handler<asio::io_context::strand, std::__ndk1::__bind<void (websocketpp::transport::asio::connection<websocketpp::config::asio_client::transport_config>::*)(std::__ndk1::shared_ptr<asio::basic_waitable_timer<std::__ndk1::chrono::steady_clock, asio::wait_traits<std::__ndk1::chrono::steady_clock> > >, std::__ndk1::function<void (std::__ndk1::error_code const&)>, std::__ndk1::error_code const&), std::__ndk1::shared_ptr<websocketpp::transport::asio::connection<websocketpp::config::asio_client::transport_config> >, std::__ndk1::shared_ptr<asio::basic_waitable_timer<std::__ndk1::chrono::steady_clock, asio::wait_traits<std::__ndk1::chrono::steady_clock> > >&, std::__ndk1::function<void (std::__ndk1::error_code const&)>&, std::__ndk1::placeholders::__ph<1> const&>, asio::detail::is_continuation_if_running>, std::__ndk1::error_code>&, asio::detail::wrapped_handler<asio::io_context::strand, std::__ndk1::__bind<void (websocketpp::transport::asio::connection<websocketpp::config::asio_client::transport_config>::*)(std::__ndk1::shared_ptr<asio::basic_waitable_timer<std::__ndk1::chrono::steady_clock, asio::wait_traits<std::__ndk1::chrono::steady_clock> > >, std::__ndk1::function<void (std::__ndk1::error_code const&)>, std::__ndk1::error_code const&), std::__ndk1::shared_ptr<websocketpp::transport::asio::connection<websocketpp::config::asio_client::transport_config> >, std::__ndk1::shared_ptr<asio::basic_waitable_timer<std::__ndk1::chrono::steady_clock, asio::wait_traits<std::__ndk1::chrono::steady_clock> > >&, std::__ndk1::function<void (std::__ndk1::error_code const&)>&, std::__ndk1::placeholders::__ph<1> const&>, asio::detail::is_continuation_if_running>*)
PUBLIC ca658 0 asio::detail::rewrapped_handler<asio::detail::binder1<asio::detail::wrapped_handler<asio::io_context::strand, std::__ndk1::__bind<void (websocketpp::transport::asio::connection<websocketpp::config::asio_client::transport_config>::*)(std::__ndk1::shared_ptr<asio::basic_waitable_timer<std::__ndk1::chrono::steady_clock, asio::wait_traits<std::__ndk1::chrono::steady_clock> > >, std::__ndk1::function<void (std::__ndk1::error_code const&)>, std::__ndk1::error_code const&), std::__ndk1::shared_ptr<websocketpp::transport::asio::connection<websocketpp::config::asio_client::transport_config> >, std::__ndk1::shared_ptr<asio::basic_waitable_timer<std::__ndk1::chrono::steady_clock, asio::wait_traits<std::__ndk1::chrono::steady_clock> > >&, std::__ndk1::function<void (std::__ndk1::error_code const&)>&, std::__ndk1::placeholders::__ph<1> const&>, asio::detail::is_continuation_if_running>, std::__ndk1::error_code>, std::__ndk1::__bind<void (websocketpp::transport::asio::connection<websocketpp::config::asio_client::transport_config>::*)(std::__ndk1::shared_ptr<asio::basic_waitable_timer<std::__ndk1::chrono::steady_clock, asio::wait_traits<std::__ndk1::chrono::steady_clock> > >, std::__ndk1::function<void (std::__ndk1::error_code const&)>, std::__ndk1::error_code const&), std::__ndk1::shared_ptr<websocketpp::transport::asio::connection<websocketpp::config::asio_client::transport_config> >, std::__ndk1::shared_ptr<asio::basic_waitable_timer<std::__ndk1::chrono::steady_clock, asio::wait_traits<std::__ndk1::chrono::steady_clock> > >&, std::__ndk1::function<void (std::__ndk1::error_code const&)>&, std::__ndk1::placeholders::__ph<1> const&> >::~rewrapped_handler()
PUBLIC ca7b8 0 asio::detail::strand_service::dispatch<asio::detail::rewrapped_handler<asio::detail::binder1<asio::detail::wrapped_handler<asio::io_context::strand, std::__ndk1::__bind<void (websocketpp::transport::asio::connection<websocketpp::config::asio_client::transport_config>::*)(std::__ndk1::shared_ptr<asio::basic_waitable_timer<std::__ndk1::chrono::steady_clock, asio::wait_traits<std::__ndk1::chrono::steady_clock> > >, std::__ndk1::function<void (std::__ndk1::error_code const&)>, std::__ndk1::error_code const&), std::__ndk1::shared_ptr<websocketpp::transport::asio::connection<websocketpp::config::asio_client::transport_config> >, std::__ndk1::shared_ptr<asio::basic_waitable_timer<std::__ndk1::chrono::steady_clock, asio::wait_traits<std::__ndk1::chrono::steady_clock> > >&, std::__ndk1::function<void (std::__ndk1::error_code const&)>&, std::__ndk1::placeholders::__ph<1> const&>, asio::detail::is_continuation_if_running>, std::__ndk1::error_code>, std::__ndk1::__bind<void (websocketpp::transport::asio::connection<websocketpp::config::asio_client::transport_config>::*)(std::__ndk1::shared_ptr<asio::basic_waitable_timer<std::__ndk1::chrono::steady_clock, asio::wait_traits<std::__ndk1::chrono::steady_clock> > >, std::__ndk1::function<void (std::__ndk1::error_code const&)>, std::__ndk1::error_code const&), std::__ndk1::shared_ptr<websocketpp::transport::asio::connection<websocketpp::config::asio_client::transport_config> >, std::__ndk1::shared_ptr<asio::basic_waitable_timer<std::__ndk1::chrono::steady_clock, asio::wait_traits<std::__ndk1::chrono::steady_clock> > >&, std::__ndk1::function<void (std::__ndk1::error_code const&)>&, std::__ndk1::placeholders::__ph<1> const&> > >(asio::detail::strand_service::strand_impl*&, asio::detail::rewrapped_handler<asio::detail::binder1<asio::detail::wrapped_handler<asio::io_context::strand, std::__ndk1::__bind<void (websocketpp::transport::asio::connection<websocketpp::config::asio_client::transport_config>::*)(std::__ndk1::shared_ptr<asio::basic_waitable_timer<std::__ndk1::chrono::steady_clock, asio::wait_traits<std::__ndk1::chrono::steady_clock> > >, std::__ndk1::function<void (std::__ndk1::error_code const&)>, std::__ndk1::error_code const&), std::__ndk1::shared_ptr<websocketpp::transport::asio::connection<websocketpp::config::asio_client::transport_config> >, std::__ndk1::shared_ptr<asio::basic_waitable_timer<std::__ndk1::chrono::steady_clock, asio::wait_traits<std::__ndk1::chrono::steady_clock> > >&, std::__ndk1::function<void (std::__ndk1::error_code const&)>&, std::__ndk1::placeholders::__ph<1> const&>, asio::detail::is_continuation_if_running>, std::__ndk1::error_code>, std::__ndk1::__bind<void (websocketpp::transport::asio::connection<websocketpp::config::asio_client::transport_config>::*)(std::__ndk1::shared_ptr<asio::basic_waitable_timer<std::__ndk1::chrono::steady_clock, asio::wait_traits<std::__ndk1::chrono::steady_clock> > >, std::__ndk1::function<void (std::__ndk1::error_code const&)>, std::__ndk1::error_code const&), std::__ndk1::shared_ptr<websocketpp::transport::asio::connection<websocketpp::config::asio_client::transport_config> >, std::__ndk1::shared_ptr<asio::basic_waitable_timer<std::__ndk1::chrono::steady_clock, asio::wait_traits<std::__ndk1::chrono::steady_clock> > >&, std::__ndk1::function<void (std::__ndk1::error_code const&)>&, std::__ndk1::placeholders::__ph<1> const&> >&)
PUBLIC m caa34 0 asio::detail::strand_service::do_dispatch(asio::detail::strand_service::strand_impl*&, asio::detail::scheduler_operation*)
PUBLIC cab70 0 asio::detail::completion_handler<asio::detail::rewrapped_handler<asio::detail::binder1<asio::detail::wrapped_handler<asio::io_context::strand, std::__ndk1::__bind<void (websocketpp::transport::asio::connection<websocketpp::config::asio_client::transport_config>::*)(std::__ndk1::shared_ptr<asio::basic_waitable_timer<std::__ndk1::chrono::steady_clock, asio::wait_traits<std::__ndk1::chrono::steady_clock> > >, std::__ndk1::function<void (std::__ndk1::error_code const&)>, std::__ndk1::error_code const&), std::__ndk1::shared_ptr<websocketpp::transport::asio::connection<websocketpp::config::asio_client::transport_config> >, std::__ndk1::shared_ptr<asio::basic_waitable_timer<std::__ndk1::chrono::steady_clock, asio::wait_traits<std::__ndk1::chrono::steady_clock> > >&, std::__ndk1::function<void (std::__ndk1::error_code const&)>&, std::__ndk1::placeholders::__ph<1> const&>, asio::detail::is_continuation_if_running>, std::__ndk1::error_code>, std::__ndk1::__bind<void (websocketpp::transport::asio::connection<websocketpp::config::asio_client::transport_config>::*)(std::__ndk1::shared_ptr<asio::basic_waitable_timer<std::__ndk1::chrono::steady_clock, asio::wait_traits<std::__ndk1::chrono::steady_clock> > >, std::__ndk1::function<void (std::__ndk1::error_code const&)>, std::__ndk1::error_code const&), std::__ndk1::shared_ptr<websocketpp::transport::asio::connection<websocketpp::config::asio_client::transport_config> >, std::__ndk1::shared_ptr<asio::basic_waitable_timer<std::__ndk1::chrono::steady_clock, asio::wait_traits<std::__ndk1::chrono::steady_clock> > >&, std::__ndk1::function<void (std::__ndk1::error_code const&)>&, std::__ndk1::placeholders::__ph<1> const&> > >::do_complete(void*, asio::detail::scheduler_operation*, std::__ndk1::error_code const&, unsigned long)
PUBLIC m cac74 0 asio::detail::strand_service::on_dispatch_exit::~on_dispatch_exit()
PUBLIC m cacfc 0 asio::detail::call_stack<asio::detail::strand_service::strand_impl, unsigned char>::context::~context()
PUBLIC cad24 0 asio::detail::completion_handler<asio::detail::rewrapped_handler<asio::detail::binder1<asio::detail::wrapped_handler<asio::io_context::strand, std::__ndk1::__bind<void (websocketpp::transport::asio::connection<websocketpp::config::asio_client::transport_config>::*)(std::__ndk1::shared_ptr<asio::basic_waitable_timer<std::__ndk1::chrono::steady_clock, asio::wait_traits<std::__ndk1::chrono::steady_clock> > >, std::__ndk1::function<void (std::__ndk1::error_code const&)>, std::__ndk1::error_code const&), std::__ndk1::shared_ptr<websocketpp::transport::asio::connection<websocketpp::config::asio_client::transport_config> >, std::__ndk1::shared_ptr<asio::basic_waitable_timer<std::__ndk1::chrono::steady_clock, asio::wait_traits<std::__ndk1::chrono::steady_clock> > >&, std::__ndk1::function<void (std::__ndk1::error_code const&)>&, std::__ndk1::placeholders::__ph<1> const&>, asio::detail::is_continuation_if_running>, std::__ndk1::error_code>, std::__ndk1::__bind<void (websocketpp::transport::asio::connection<websocketpp::config::asio_client::transport_config>::*)(std::__ndk1::shared_ptr<asio::basic_waitable_timer<std::__ndk1::chrono::steady_clock, asio::wait_traits<std::__ndk1::chrono::steady_clock> > >, std::__ndk1::function<void (std::__ndk1::error_code const&)>, std::__ndk1::error_code const&), std::__ndk1::shared_ptr<websocketpp::transport::asio::connection<websocketpp::config::asio_client::transport_config> >, std::__ndk1::shared_ptr<asio::basic_waitable_timer<std::__ndk1::chrono::steady_clock, asio::wait_traits<std::__ndk1::chrono::steady_clock> > >&, std::__ndk1::function<void (std::__ndk1::error_code const&)>&, std::__ndk1::placeholders::__ph<1> const&> > >::ptr::~ptr()
PUBLIC cad7c 0 asio::detail::wrapped_handler<asio::io_context::strand, std::__ndk1::__bind<void (websocketpp::transport::asio::connection<websocketpp::config::asio_client::transport_config>::*)(std::__ndk1::shared_ptr<asio::basic_waitable_timer<std::__ndk1::chrono::steady_clock, asio::wait_traits<std::__ndk1::chrono::steady_clock> > >, std::__ndk1::function<void (std::__ndk1::error_code const&)>, std::__ndk1::error_code const&), std::__ndk1::shared_ptr<websocketpp::transport::asio::connection<websocketpp::config::asio_client::transport_config> >, std::__ndk1::shared_ptr<asio::basic_waitable_timer<std::__ndk1::chrono::steady_clock, asio::wait_traits<std::__ndk1::chrono::steady_clock> > >&, std::__ndk1::function<void (std::__ndk1::error_code const&)>&, std::__ndk1::placeholders::__ph<1> const&>, asio::detail::is_continuation_if_running>::operator()<std::__ndk1::error_code>(std::__ndk1::error_code const&)
PUBLIC caeb4 0 asio::detail::binder1<std::__ndk1::__bind<void (websocketpp::transport::asio::connection<websocketpp::config::asio_client::transport_config>::*)(std::__ndk1::shared_ptr<asio::basic_waitable_timer<std::__ndk1::chrono::steady_clock, asio::wait_traits<std::__ndk1::chrono::steady_clock> > >, std::__ndk1::function<void (std::__ndk1::error_code const&)>, std::__ndk1::error_code const&), std::__ndk1::shared_ptr<websocketpp::transport::asio::connection<websocketpp::config::asio_client::transport_config> >, std::__ndk1::shared_ptr<asio::basic_waitable_timer<std::__ndk1::chrono::steady_clock, asio::wait_traits<std::__ndk1::chrono::steady_clock> > >&, std::__ndk1::function<void (std::__ndk1::error_code const&)>&, std::__ndk1::placeholders::__ph<1> const&>, std::__ndk1::error_code>::~binder1()
PUBLIC caf74 0 asio::detail::strand_service::dispatch<asio::detail::binder1<std::__ndk1::__bind<void (websocketpp::transport::asio::connection<websocketpp::config::asio_client::transport_config>::*)(std::__ndk1::shared_ptr<asio::basic_waitable_timer<std::__ndk1::chrono::steady_clock, asio::wait_traits<std::__ndk1::chrono::steady_clock> > >, std::__ndk1::function<void (std::__ndk1::error_code const&)>, std::__ndk1::error_code const&), std::__ndk1::shared_ptr<websocketpp::transport::asio::connection<websocketpp::config::asio_client::transport_config> >, std::__ndk1::shared_ptr<asio::basic_waitable_timer<std::__ndk1::chrono::steady_clock, asio::wait_traits<std::__ndk1::chrono::steady_clock> > >&, std::__ndk1::function<void (std::__ndk1::error_code const&)>&, std::__ndk1::placeholders::__ph<1> const&>, std::__ndk1::error_code> >(asio::detail::strand_service::strand_impl*&, asio::detail::binder1<std::__ndk1::__bind<void (websocketpp::transport::asio::connection<websocketpp::config::asio_client::transport_config>::*)(std::__ndk1::shared_ptr<asio::basic_waitable_timer<std::__ndk1::chrono::steady_clock, asio::wait_traits<std::__ndk1::chrono::steady_clock> > >, std::__ndk1::function<void (std::__ndk1::error_code const&)>, std::__ndk1::error_code const&), std::__ndk1::shared_ptr<websocketpp::transport::asio::connection<websocketpp::config::asio_client::transport_config> >, std::__ndk1::shared_ptr<asio::basic_waitable_timer<std::__ndk1::chrono::steady_clock, asio::wait_traits<std::__ndk1::chrono::steady_clock> > >&, std::__ndk1::function<void (std::__ndk1::error_code const&)>&, std::__ndk1::placeholders::__ph<1> const&>, std::__ndk1::error_code>&)
PUBLIC cb250 0 asio::detail::completion_handler<asio::detail::binder1<std::__ndk1::__bind<void (websocketpp::transport::asio::connection<websocketpp::config::asio_client::transport_config>::*)(std::__ndk1::shared_ptr<asio::basic_waitable_timer<std::__ndk1::chrono::steady_clock, asio::wait_traits<std::__ndk1::chrono::steady_clock> > >, std::__ndk1::function<void (std::__ndk1::error_code const&)>, std::__ndk1::error_code const&), std::__ndk1::shared_ptr<websocketpp::transport::asio::connection<websocketpp::config::asio_client::transport_config> >, std::__ndk1::shared_ptr<asio::basic_waitable_timer<std::__ndk1::chrono::steady_clock, asio::wait_traits<std::__ndk1::chrono::steady_clock> > >&, std::__ndk1::function<void (std::__ndk1::error_code const&)>&, std::__ndk1::placeholders::__ph<1> const&>, std::__ndk1::error_code> >::do_complete(void*, asio::detail::scheduler_operation*, std::__ndk1::error_code const&, unsigned long)
PUBLIC cb424 0 std::__ndk1::__invoke[abi:v170000]<void (websocketpp::transport::asio::connection<std::__ndk1::__invoke[abi:v170000]::config::asio_client::transport_config>&::*)(std::__ndk1::shared_ptr<asio::basic_waitable_timer<std::__ndk1::chrono::steady_clock, std::__ndk1::shared_ptr::wait_traits<std::__ndk1::chrono> > >, std::__ndk1::function<void (std::__ndk1::error_code const&)>, std::__ndk1::error_code const), websocketpp::transport::asio::connection<std::__ndk1::__invoke[abi:v170000]::config::asio_client::transport_config>&<std::__ndk1::__invoke[abi:v170000]::config::asio_client::transport_config>, asio::basic_waitable_timer<std::__ndk1::chrono::steady_clock, std::__ndk1::shared_ptr::wait_traits<std::__ndk1::chrono> >&, void (&)(std::__ndk1::error_code const&), std::__ndk1::error_code const, void>(websocketpp::transport::asio::connection<std::__ndk1::__invoke[abi:v170000]::config::asio_client::transport_config>&<std::__ndk1::__invoke[abi:v170000]::config::asio_client::transport_config>, void (&)(std::__ndk1::error_code const&), void (websocketpp::transport::asio::connection<std::__ndk1::__invoke[abi:v170000]::config::asio_client::transport_config>&::*)(std::__ndk1::shared_ptr<asio::basic_waitable_timer<std::__ndk1::chrono::steady_clock, std::__ndk1::shared_ptr::wait_traits<std::__ndk1::chrono> > >, std::__ndk1::function<void (std::__ndk1::error_code const&)>, std::__ndk1::error_code const))
PUBLIC cb5c4 0 std::__ndk1::function<void (std::__ndk1::error_code const&)>::function(std::__ndk1::function<void (std::__ndk1::error_code const&)> const&)
PUBLIC cb634 0 asio::detail::completion_handler<asio::detail::binder1<std::__ndk1::__bind<void (websocketpp::transport::asio::connection<websocketpp::config::asio_client::transport_config>::*)(std::__ndk1::shared_ptr<asio::basic_waitable_timer<std::__ndk1::chrono::steady_clock, asio::wait_traits<std::__ndk1::chrono::steady_clock> > >, std::__ndk1::function<void (std::__ndk1::error_code const&)>, std::__ndk1::error_code const&), std::__ndk1::shared_ptr<websocketpp::transport::asio::connection<websocketpp::config::asio_client::transport_config> >, std::__ndk1::shared_ptr<asio::basic_waitable_timer<std::__ndk1::chrono::steady_clock, asio::wait_traits<std::__ndk1::chrono::steady_clock> > >&, std::__ndk1::function<void (std::__ndk1::error_code const&)>&, std::__ndk1::placeholders::__ph<1> const&>, std::__ndk1::error_code> >::ptr::reset()
PUBLIC cb74c 0 std::__ndk1::tuple<std::__ndk1::shared_ptr<websocketpp::transport::asio::connection<websocketpp::config::asio_client::transport_config> >, std::__ndk1::shared_ptr<asio::basic_waitable_timer<std::__ndk1::chrono::steady_clock, asio::wait_traits<std::__ndk1::chrono::steady_clock> > >, std::__ndk1::function<void (std::__ndk1::error_code const&)>, std::__ndk1::placeholders::__ph<1> >::tuple(std::__ndk1::tuple<std::__ndk1::shared_ptr<websocketpp::transport::asio::connection<websocketpp::config::asio_client::transport_config> >, std::__ndk1::shared_ptr<asio::basic_waitable_timer<std::__ndk1::chrono::steady_clock, asio::wait_traits<std::__ndk1::chrono::steady_clock> > >, std::__ndk1::function<void (std::__ndk1::error_code const&)>, std::__ndk1::placeholders::__ph<1> > const&)
PUBLIC cb850 0 asio::detail::rewrapped_handler<asio::detail::binder1<asio::detail::wrapped_handler<asio::io_context::strand, std::__ndk1::__bind<void (websocketpp::transport::asio::connection<websocketpp::config::asio_client::transport_config>::*)(std::__ndk1::shared_ptr<asio::basic_waitable_timer<std::__ndk1::chrono::steady_clock, asio::wait_traits<std::__ndk1::chrono::steady_clock> > >, std::__ndk1::function<void (std::__ndk1::error_code const&)>, std::__ndk1::error_code const&), std::__ndk1::shared_ptr<websocketpp::transport::asio::connection<websocketpp::config::asio_client::transport_config> >, std::__ndk1::shared_ptr<asio::basic_waitable_timer<std::__ndk1::chrono::steady_clock, asio::wait_traits<std::__ndk1::chrono::steady_clock> > >&, std::__ndk1::function<void (std::__ndk1::error_code const&)>&, std::__ndk1::placeholders::__ph<1> const&>, asio::detail::is_continuation_if_running>, std::__ndk1::error_code>, std::__ndk1::__bind<void (websocketpp::transport::asio::connection<websocketpp::config::asio_client::transport_config>::*)(std::__ndk1::shared_ptr<asio::basic_waitable_timer<std::__ndk1::chrono::steady_clock, asio::wait_traits<std::__ndk1::chrono::steady_clock> > >, std::__ndk1::function<void (std::__ndk1::error_code const&)>, std::__ndk1::error_code const&), std::__ndk1::shared_ptr<websocketpp::transport::asio::connection<websocketpp::config::asio_client::transport_config> >, std::__ndk1::shared_ptr<asio::basic_waitable_timer<std::__ndk1::chrono::steady_clock, asio::wait_traits<std::__ndk1::chrono::steady_clock> > >&, std::__ndk1::function<void (std::__ndk1::error_code const&)>&, std::__ndk1::placeholders::__ph<1> const&> >::rewrapped_handler(asio::detail::rewrapped_handler<asio::detail::binder1<asio::detail::wrapped_handler<asio::io_context::strand, std::__ndk1::__bind<void (websocketpp::transport::asio::connection<websocketpp::config::asio_client::transport_config>::*)(std::__ndk1::shared_ptr<asio::basic_waitable_timer<std::__ndk1::chrono::steady_clock, asio::wait_traits<std::__ndk1::chrono::steady_clock> > >, std::__ndk1::function<void (std::__ndk1::error_code const&)>, std::__ndk1::error_code const&), std::__ndk1::shared_ptr<websocketpp::transport::asio::connection<websocketpp::config::asio_client::transport_config> >, std::__ndk1::shared_ptr<asio::basic_waitable_timer<std::__ndk1::chrono::steady_clock, asio::wait_traits<std::__ndk1::chrono::steady_clock> > >&, std::__ndk1::function<void (std::__ndk1::error_code const&)>&, std::__ndk1::placeholders::__ph<1> const&>, asio::detail::is_continuation_if_running>, std::__ndk1::error_code>, std::__ndk1::__bind<void (websocketpp::transport::asio::connection<websocketpp::config::asio_client::transport_config>::*)(std::__ndk1::shared_ptr<asio::basic_waitable_timer<std::__ndk1::chrono::steady_clock, asio::wait_traits<std::__ndk1::chrono::steady_clock> > >, std::__ndk1::function<void (std::__ndk1::error_code const&)>, std::__ndk1::error_code const&), std::__ndk1::shared_ptr<websocketpp::transport::asio::connection<websocketpp::config::asio_client::transport_config> >, std::__ndk1::shared_ptr<asio::basic_waitable_timer<std::__ndk1::chrono::steady_clock, asio::wait_traits<std::__ndk1::chrono::steady_clock> > >&, std::__ndk1::function<void (std::__ndk1::error_code const&)>&, std::__ndk1::placeholders::__ph<1> const&> >&&)
PUBLIC cb948 0 websocketpp::transport::asio::connection<websocketpp::config::asio_client::transport_config>::log_err<std::__ndk1::error_code>(unsigned int, char const*, std::__ndk1::error_code const&)
PUBLIC cbc10 0 std::__ndk1::tuple<std::__ndk1::shared_ptr<websocketpp::transport::asio::connection<websocketpp::config::asio_client::transport_config> >, std::__ndk1::shared_ptr<asio::basic_waitable_timer<std::__ndk1::chrono::steady_clock, asio::wait_traits<std::__ndk1::chrono::steady_clock> > >, std::__ndk1::function<void (std::__ndk1::error_code const&)>, std::__ndk1::placeholders::__ph<1> >::tuple[abi:v170000]<std::__ndk1::shared_ptr<websocketpp::transport::asio::connection<websocketpp::config::asio_client::transport_config> >, std::__ndk1::shared_ptr<asio::basic_waitable_timer<std::__ndk1::chrono::steady_clock, asio::wait_traits<std::__ndk1::chrono::steady_clock> > >&, std::__ndk1::function<void (std::__ndk1::error_code const&)>&, std::__ndk1::placeholders::__ph<1> const&, 0>()
PUBLIC cbd04 0 websocketpp::transport::asio::connection<websocketpp::config::asio_client::transport_config>::cancel_socket_checked()
PUBLIC cbe08 0 websocketpp::transport::asio::basic_socket::connection::cancel_socket()
PUBLIC m cbec8 0 asio::detail::epoll_reactor::cancel_ops(int, asio::detail::epoll_reactor::descriptor_state*&)
PUBLIC cc2bc 0 std::__ndk1::shared_ptr<websocketpp::transport::asio::basic_socket::connection>::~shared_ptr[abi:v170000]()
PUBLIC cc30c 0 std::__ndk1::__throw_bad_weak_ptr[abi:v170000]()
PUBLIC cc340 0 std::__ndk1::__function::__func<std::__ndk1::__bind<void (websocketpp::transport::asio::connection<websocketpp::config::asio_client::transport_config>::*)(std::__ndk1::shared_ptr<asio::basic_waitable_timer<std::__ndk1::chrono::steady_clock, asio::wait_traits<std::__ndk1::chrono::steady_clock> > >, std::__ndk1::function<void (std::__ndk1::error_code const&)>, std::__ndk1::error_code const&), std::__ndk1::shared_ptr<websocketpp::transport::asio::connection<websocketpp::config::asio_client::transport_config> >, std::__ndk1::shared_ptr<asio::basic_waitable_timer<std::__ndk1::chrono::steady_clock, asio::wait_traits<std::__ndk1::chrono::steady_clock> > >&, std::__ndk1::function<void (std::__ndk1::error_code const&)>&, std::__ndk1::placeholders::__ph<1> const&>, std::__ndk1::allocator<std::__ndk1::__bind<void (websocketpp::transport::asio::connection<websocketpp::config::asio_client::transport_config>::*)(std::__ndk1::shared_ptr<asio::basic_waitable_timer<std::__ndk1::chrono::steady_clock, asio::wait_traits<std::__ndk1::chrono::steady_clock> > >, std::__ndk1::function<void (std::__ndk1::error_code const&)>, std::__ndk1::error_code const&), std::__ndk1::shared_ptr<websocketpp::transport::asio::connection<websocketpp::config::asio_client::transport_config> >, std::__ndk1::shared_ptr<asio::basic_waitable_timer<std::__ndk1::chrono::steady_clock, asio::wait_traits<std::__ndk1::chrono::steady_clock> > >&, std::__ndk1::function<void (std::__ndk1::error_code const&)>&, std::__ndk1::placeholders::__ph<1> const&> >, void (std::__ndk1::error_code const&)>::~__func()
PUBLIC cc40c 0 std::__ndk1::__function::__func<std::__ndk1::__bind<void (websocketpp::transport::asio::connection<websocketpp::config::asio_client::transport_config>::*)(std::__ndk1::shared_ptr<asio::basic_waitable_timer<std::__ndk1::chrono::steady_clock, asio::wait_traits<std::__ndk1::chrono::steady_clock> > >, std::__ndk1::function<void (std::__ndk1::error_code const&)>, std::__ndk1::error_code const&), std::__ndk1::shared_ptr<websocketpp::transport::asio::connection<websocketpp::config::asio_client::transport_config> >, std::__ndk1::shared_ptr<asio::basic_waitable_timer<std::__ndk1::chrono::steady_clock, asio::wait_traits<std::__ndk1::chrono::steady_clock> > >&, std::__ndk1::function<void (std::__ndk1::error_code const&)>&, std::__ndk1::placeholders::__ph<1> const&>, std::__ndk1::allocator<std::__ndk1::__bind<void (websocketpp::transport::asio::connection<websocketpp::config::asio_client::transport_config>::*)(std::__ndk1::shared_ptr<asio::basic_waitable_timer<std::__ndk1::chrono::steady_clock, asio::wait_traits<std::__ndk1::chrono::steady_clock> > >, std::__ndk1::function<void (std::__ndk1::error_code const&)>, std::__ndk1::error_code const&), std::__ndk1::shared_ptr<websocketpp::transport::asio::connection<websocketpp::config::asio_client::transport_config> >, std::__ndk1::shared_ptr<asio::basic_waitable_timer<std::__ndk1::chrono::steady_clock, asio::wait_traits<std::__ndk1::chrono::steady_clock> > >&, std::__ndk1::function<void (std::__ndk1::error_code const&)>&, std::__ndk1::placeholders::__ph<1> const&> >, void (std::__ndk1::error_code const&)>::~__func()
PUBLIC cc4e8 0 std::__ndk1::__function::__func<std::__ndk1::__bind<void (websocketpp::transport::asio::connection<websocketpp::config::asio_client::transport_config>::*)(std::__ndk1::shared_ptr<asio::basic_waitable_timer<std::__ndk1::chrono::steady_clock, asio::wait_traits<std::__ndk1::chrono::steady_clock> > >, std::__ndk1::function<void (std::__ndk1::error_code const&)>, std::__ndk1::error_code const&), std::__ndk1::shared_ptr<websocketpp::transport::asio::connection<websocketpp::config::asio_client::transport_config> >, std::__ndk1::shared_ptr<asio::basic_waitable_timer<std::__ndk1::chrono::steady_clock, asio::wait_traits<std::__ndk1::chrono::steady_clock> > >&, std::__ndk1::function<void (std::__ndk1::error_code const&)>&, std::__ndk1::placeholders::__ph<1> const&>, std::__ndk1::allocator<std::__ndk1::__bind<void (websocketpp::transport::asio::connection<websocketpp::config::asio_client::transport_config>::*)(std::__ndk1::shared_ptr<asio::basic_waitable_timer<std::__ndk1::chrono::steady_clock, asio::wait_traits<std::__ndk1::chrono::steady_clock> > >, std::__ndk1::function<void (std::__ndk1::error_code const&)>, std::__ndk1::error_code const&), std::__ndk1::shared_ptr<websocketpp::transport::asio::connection<websocketpp::config::asio_client::transport_config> >, std::__ndk1::shared_ptr<asio::basic_waitable_timer<std::__ndk1::chrono::steady_clock, asio::wait_traits<std::__ndk1::chrono::steady_clock> > >&, std::__ndk1::function<void (std::__ndk1::error_code const&)>&, std::__ndk1::placeholders::__ph<1> const&> >, void (std::__ndk1::error_code const&)>::__clone() const
PUBLIC cc548 0 std::__ndk1::__function::__func<std::__ndk1::__bind<void (websocketpp::transport::asio::connection<websocketpp::config::asio_client::transport_config>::*)(std::__ndk1::shared_ptr<asio::basic_waitable_timer<std::__ndk1::chrono::steady_clock, asio::wait_traits<std::__ndk1::chrono::steady_clock> > >, std::__ndk1::function<void (std::__ndk1::error_code const&)>, std::__ndk1::error_code const&), std::__ndk1::shared_ptr<websocketpp::transport::asio::connection<websocketpp::config::asio_client::transport_config> >, std::__ndk1::shared_ptr<asio::basic_waitable_timer<std::__ndk1::chrono::steady_clock, asio::wait_traits<std::__ndk1::chrono::steady_clock> > >&, std::__ndk1::function<void (std::__ndk1::error_code const&)>&, std::__ndk1::placeholders::__ph<1> const&>, std::__ndk1::allocator<std::__ndk1::__bind<void (websocketpp::transport::asio::connection<websocketpp::config::asio_client::transport_config>::*)(std::__ndk1::shared_ptr<asio::basic_waitable_timer<std::__ndk1::chrono::steady_clock, asio::wait_traits<std::__ndk1::chrono::steady_clock> > >, std::__ndk1::function<void (std::__ndk1::error_code const&)>, std::__ndk1::error_code const&), std::__ndk1::shared_ptr<websocketpp::transport::asio::connection<websocketpp::config::asio_client::transport_config> >, std::__ndk1::shared_ptr<asio::basic_waitable_timer<std::__ndk1::chrono::steady_clock, asio::wait_traits<std::__ndk1::chrono::steady_clock> > >&, std::__ndk1::function<void (std::__ndk1::error_code const&)>&, std::__ndk1::placeholders::__ph<1> const&> >, void (std::__ndk1::error_code const&)>::__clone(std::__ndk1::__function::__base<void (std::__ndk1::error_code const&)>*) const
PUBLIC cc570 0 std::__ndk1::__function::__func<std::__ndk1::__bind<void (websocketpp::transport::asio::connection<websocketpp::config::asio_client::transport_config>::*)(std::__ndk1::shared_ptr<asio::basic_waitable_timer<std::__ndk1::chrono::steady_clock, asio::wait_traits<std::__ndk1::chrono::steady_clock> > >, std::__ndk1::function<void (std::__ndk1::error_code const&)>, std::__ndk1::error_code const&), std::__ndk1::shared_ptr<websocketpp::transport::asio::connection<websocketpp::config::asio_client::transport_config> >, std::__ndk1::shared_ptr<asio::basic_waitable_timer<std::__ndk1::chrono::steady_clock, asio::wait_traits<std::__ndk1::chrono::steady_clock> > >&, std::__ndk1::function<void (std::__ndk1::error_code const&)>&, std::__ndk1::placeholders::__ph<1> const&>, std::__ndk1::allocator<std::__ndk1::__bind<void (websocketpp::transport::asio::connection<websocketpp::config::asio_client::transport_config>::*)(std::__ndk1::shared_ptr<asio::basic_waitable_timer<std::__ndk1::chrono::steady_clock, asio::wait_traits<std::__ndk1::chrono::steady_clock> > >, std::__ndk1::function<void (std::__ndk1::error_code const&)>, std::__ndk1::error_code const&), std::__ndk1::shared_ptr<websocketpp::transport::asio::connection<websocketpp::config::asio_client::transport_config> >, std::__ndk1::shared_ptr<asio::basic_waitable_timer<std::__ndk1::chrono::steady_clock, asio::wait_traits<std::__ndk1::chrono::steady_clock> > >&, std::__ndk1::function<void (std::__ndk1::error_code const&)>&, std::__ndk1::placeholders::__ph<1> const&> >, void (std::__ndk1::error_code const&)>::destroy()
PUBLIC cc630 0 std::__ndk1::__function::__func<std::__ndk1::__bind<void (websocketpp::transport::asio::connection<websocketpp::config::asio_client::transport_config>::*)(std::__ndk1::shared_ptr<asio::basic_waitable_timer<std::__ndk1::chrono::steady_clock, asio::wait_traits<std::__ndk1::chrono::steady_clock> > >, std::__ndk1::function<void (std::__ndk1::error_code const&)>, std::__ndk1::error_code const&), std::__ndk1::shared_ptr<websocketpp::transport::asio::connection<websocketpp::config::asio_client::transport_config> >, std::__ndk1::shared_ptr<asio::basic_waitable_timer<std::__ndk1::chrono::steady_clock, asio::wait_traits<std::__ndk1::chrono::steady_clock> > >&, std::__ndk1::function<void (std::__ndk1::error_code const&)>&, std::__ndk1::placeholders::__ph<1> const&>, std::__ndk1::allocator<std::__ndk1::__bind<void (websocketpp::transport::asio::connection<websocketpp::config::asio_client::transport_config>::*)(std::__ndk1::shared_ptr<asio::basic_waitable_timer<std::__ndk1::chrono::steady_clock, asio::wait_traits<std::__ndk1::chrono::steady_clock> > >, std::__ndk1::function<void (std::__ndk1::error_code const&)>, std::__ndk1::error_code const&), std::__ndk1::shared_ptr<websocketpp::transport::asio::connection<websocketpp::config::asio_client::transport_config> >, std::__ndk1::shared_ptr<asio::basic_waitable_timer<std::__ndk1::chrono::steady_clock, asio::wait_traits<std::__ndk1::chrono::steady_clock> > >&, std::__ndk1::function<void (std::__ndk1::error_code const&)>&, std::__ndk1::placeholders::__ph<1> const&> >, void (std::__ndk1::error_code const&)>::destroy_deallocate()
PUBLIC cc700 0 std::__ndk1::__function::__func<std::__ndk1::__bind<void (websocketpp::transport::asio::connection<websocketpp::config::asio_client::transport_config>::*)(std::__ndk1::shared_ptr<asio::basic_waitable_timer<std::__ndk1::chrono::steady_clock, asio::wait_traits<std::__ndk1::chrono::steady_clock> > >, std::__ndk1::function<void (std::__ndk1::error_code const&)>, std::__ndk1::error_code const&), std::__ndk1::shared_ptr<websocketpp::transport::asio::connection<websocketpp::config::asio_client::transport_config> >, std::__ndk1::shared_ptr<asio::basic_waitable_timer<std::__ndk1::chrono::steady_clock, asio::wait_traits<std::__ndk1::chrono::steady_clock> > >&, std::__ndk1::function<void (std::__ndk1::error_code const&)>&, std::__ndk1::placeholders::__ph<1> const&>, std::__ndk1::allocator<std::__ndk1::__bind<void (websocketpp::transport::asio::connection<websocketpp::config::asio_client::transport_config>::*)(std::__ndk1::shared_ptr<asio::basic_waitable_timer<std::__ndk1::chrono::steady_clock, asio::wait_traits<std::__ndk1::chrono::steady_clock> > >, std::__ndk1::function<void (std::__ndk1::error_code const&)>, std::__ndk1::error_code const&), std::__ndk1::shared_ptr<websocketpp::transport::asio::connection<websocketpp::config::asio_client::transport_config> >, std::__ndk1::shared_ptr<asio::basic_waitable_timer<std::__ndk1::chrono::steady_clock, asio::wait_traits<std::__ndk1::chrono::steady_clock> > >&, std::__ndk1::function<void (std::__ndk1::error_code const&)>&, std::__ndk1::placeholders::__ph<1> const&> >, void (std::__ndk1::error_code const&)>::operator()(std::__ndk1::error_code const&)
PUBLIC cc71c 0 std::__ndk1::__function::__func<std::__ndk1::__bind<void (websocketpp::transport::asio::connection<websocketpp::config::asio_client::transport_config>::*)(std::__ndk1::shared_ptr<asio::basic_waitable_timer<std::__ndk1::chrono::steady_clock, asio::wait_traits<std::__ndk1::chrono::steady_clock> > >, std::__ndk1::function<void (std::__ndk1::error_code const&)>, std::__ndk1::error_code const&), std::__ndk1::shared_ptr<websocketpp::transport::asio::connection<websocketpp::config::asio_client::transport_config> >, std::__ndk1::shared_ptr<asio::basic_waitable_timer<std::__ndk1::chrono::steady_clock, asio::wait_traits<std::__ndk1::chrono::steady_clock> > >&, std::__ndk1::function<void (std::__ndk1::error_code const&)>&, std::__ndk1::placeholders::__ph<1> const&>, std::__ndk1::allocator<std::__ndk1::__bind<void (websocketpp::transport::asio::connection<websocketpp::config::asio_client::transport_config>::*)(std::__ndk1::shared_ptr<asio::basic_waitable_timer<std::__ndk1::chrono::steady_clock, asio::wait_traits<std::__ndk1::chrono::steady_clock> > >, std::__ndk1::function<void (std::__ndk1::error_code const&)>, std::__ndk1::error_code const&), std::__ndk1::shared_ptr<websocketpp::transport::asio::connection<websocketpp::config::asio_client::transport_config> >, std::__ndk1::shared_ptr<asio::basic_waitable_timer<std::__ndk1::chrono::steady_clock, asio::wait_traits<std::__ndk1::chrono::steady_clock> > >&, std::__ndk1::function<void (std::__ndk1::error_code const&)>&, std::__ndk1::placeholders::__ph<1> const&> >, void (std::__ndk1::error_code const&)>::target(std::type_info const&) const
PUBLIC cc738 0 std::__ndk1::__function::__func<std::__ndk1::__bind<void (websocketpp::transport::asio::connection<websocketpp::config::asio_client::transport_config>::*)(std::__ndk1::shared_ptr<asio::basic_waitable_timer<std::__ndk1::chrono::steady_clock, asio::wait_traits<std::__ndk1::chrono::steady_clock> > >, std::__ndk1::function<void (std::__ndk1::error_code const&)>, std::__ndk1::error_code const&), std::__ndk1::shared_ptr<websocketpp::transport::asio::connection<websocketpp::config::asio_client::transport_config> >, std::__ndk1::shared_ptr<asio::basic_waitable_timer<std::__ndk1::chrono::steady_clock, asio::wait_traits<std::__ndk1::chrono::steady_clock> > >&, std::__ndk1::function<void (std::__ndk1::error_code const&)>&, std::__ndk1::placeholders::__ph<1> const&>, std::__ndk1::allocator<std::__ndk1::__bind<void (websocketpp::transport::asio::connection<websocketpp::config::asio_client::transport_config>::*)(std::__ndk1::shared_ptr<asio::basic_waitable_timer<std::__ndk1::chrono::steady_clock, asio::wait_traits<std::__ndk1::chrono::steady_clock> > >, std::__ndk1::function<void (std::__ndk1::error_code const&)>, std::__ndk1::error_code const&), std::__ndk1::shared_ptr<websocketpp::transport::asio::connection<websocketpp::config::asio_client::transport_config> >, std::__ndk1::shared_ptr<asio::basic_waitable_timer<std::__ndk1::chrono::steady_clock, asio::wait_traits<std::__ndk1::chrono::steady_clock> > >&, std::__ndk1::function<void (std::__ndk1::error_code const&)>&, std::__ndk1::placeholders::__ph<1> const&> >, void (std::__ndk1::error_code const&)>::target_type() const
PUBLIC m cc744 0 asio::detail::socket_ops::shutdown(int, int, std::__ndk1::error_code&)
PUBLIC cc89c 0 websocketpp::connection<websocketpp::config::asio_client>::log_close_result()
PUBLIC ccbe4 0 std::__ndk1::__function::__func<std::__ndk1::__bind<void (websocketpp::connection<websocketpp::config::asio_client>::*)(websocketpp::connection<websocketpp::config::asio_client>::terminate_status, std::__ndk1::error_code const&), std::__ndk1::shared_ptr<websocketpp::connection<websocketpp::config::asio_client> >, websocketpp::connection<websocketpp::config::asio_client>&::terminate_status, std::__ndk1::placeholders::__ph<1> const&>, std::__ndk1::allocator<std::__ndk1::__bind<void (websocketpp::connection<websocketpp::config::asio_client>::*)(websocketpp::connection<websocketpp::config::asio_client>::terminate_status, std::__ndk1::error_code const&), std::__ndk1::shared_ptr<websocketpp::connection<websocketpp::config::asio_client> >, websocketpp::connection<websocketpp::config::asio_client>&::terminate_status, std::__ndk1::placeholders::__ph<1> const&> >, void (std::__ndk1::error_code const&)>::~__func()
PUBLIC ccc40 0 std::__ndk1::__function::__func<std::__ndk1::__bind<void (websocketpp::connection<websocketpp::config::asio_client>::*)(websocketpp::connection<websocketpp::config::asio_client>::terminate_status, std::__ndk1::error_code const&), std::__ndk1::shared_ptr<websocketpp::connection<websocketpp::config::asio_client> >, websocketpp::connection<websocketpp::config::asio_client>&::terminate_status, std::__ndk1::placeholders::__ph<1> const&>, std::__ndk1::allocator<std::__ndk1::__bind<void (websocketpp::connection<websocketpp::config::asio_client>::*)(websocketpp::connection<websocketpp::config::asio_client>::terminate_status, std::__ndk1::error_code const&), std::__ndk1::shared_ptr<websocketpp::connection<websocketpp::config::asio_client> >, websocketpp::connection<websocketpp::config::asio_client>&::terminate_status, std::__ndk1::placeholders::__ph<1> const&> >, void (std::__ndk1::error_code const&)>::~__func()
PUBLIC cccac 0 std::__ndk1::__function::__func<std::__ndk1::__bind<void (websocketpp::connection<websocketpp::config::asio_client>::*)(websocketpp::connection<websocketpp::config::asio_client>::terminate_status, std::__ndk1::error_code const&), std::__ndk1::shared_ptr<websocketpp::connection<websocketpp::config::asio_client> >, websocketpp::connection<websocketpp::config::asio_client>&::terminate_status, std::__ndk1::placeholders::__ph<1> const&>, std::__ndk1::allocator<std::__ndk1::__bind<void (websocketpp::connection<websocketpp::config::asio_client>::*)(websocketpp::connection<websocketpp::config::asio_client>::terminate_status, std::__ndk1::error_code const&), std::__ndk1::shared_ptr<websocketpp::connection<websocketpp::config::asio_client> >, websocketpp::connection<websocketpp::config::asio_client>&::terminate_status, std::__ndk1::placeholders::__ph<1> const&> >, void (std::__ndk1::error_code const&)>::__clone() const
PUBLIC ccd0c 0 std::__ndk1::__function::__func<std::__ndk1::__bind<void (websocketpp::connection<websocketpp::config::asio_client>::*)(websocketpp::connection<websocketpp::config::asio_client>::terminate_status, std::__ndk1::error_code const&), std::__ndk1::shared_ptr<websocketpp::connection<websocketpp::config::asio_client> >, websocketpp::connection<websocketpp::config::asio_client>&::terminate_status, std::__ndk1::placeholders::__ph<1> const&>, std::__ndk1::allocator<std::__ndk1::__bind<void (websocketpp::connection<websocketpp::config::asio_client>::*)(websocketpp::connection<websocketpp::config::asio_client>::terminate_status, std::__ndk1::error_code const&), std::__ndk1::shared_ptr<websocketpp::connection<websocketpp::config::asio_client> >, websocketpp::connection<websocketpp::config::asio_client>&::terminate_status, std::__ndk1::placeholders::__ph<1> const&> >, void (std::__ndk1::error_code const&)>::__clone(std::__ndk1::__function::__base<void (std::__ndk1::error_code const&)>*) const
PUBLIC ccd64 0 std::__ndk1::__function::__func<std::__ndk1::__bind<void (websocketpp::connection<websocketpp::config::asio_client>::*)(websocketpp::connection<websocketpp::config::asio_client>::terminate_status, std::__ndk1::error_code const&), std::__ndk1::shared_ptr<websocketpp::connection<websocketpp::config::asio_client> >, websocketpp::connection<websocketpp::config::asio_client>&::terminate_status, std::__ndk1::placeholders::__ph<1> const&>, std::__ndk1::allocator<std::__ndk1::__bind<void (websocketpp::connection<websocketpp::config::asio_client>::*)(websocketpp::connection<websocketpp::config::asio_client>::terminate_status, std::__ndk1::error_code const&), std::__ndk1::shared_ptr<websocketpp::connection<websocketpp::config::asio_client> >, websocketpp::connection<websocketpp::config::asio_client>&::terminate_status, std::__ndk1::placeholders::__ph<1> const&> >, void (std::__ndk1::error_code const&)>::destroy()
PUBLIC ccdb4 0 std::__ndk1::__function::__func<std::__ndk1::__bind<void (websocketpp::connection<websocketpp::config::asio_client>::*)(websocketpp::connection<websocketpp::config::asio_client>::terminate_status, std::__ndk1::error_code const&), std::__ndk1::shared_ptr<websocketpp::connection<websocketpp::config::asio_client> >, websocketpp::connection<websocketpp::config::asio_client>&::terminate_status, std::__ndk1::placeholders::__ph<1> const&>, std::__ndk1::allocator<std::__ndk1::__bind<void (websocketpp::connection<websocketpp::config::asio_client>::*)(websocketpp::connection<websocketpp::config::asio_client>::terminate_status, std::__ndk1::error_code const&), std::__ndk1::shared_ptr<websocketpp::connection<websocketpp::config::asio_client> >, websocketpp::connection<websocketpp::config::asio_client>&::terminate_status, std::__ndk1::placeholders::__ph<1> const&> >, void (std::__ndk1::error_code const&)>::destroy_deallocate()
PUBLIC cce14 0 std::__ndk1::__function::__func<std::__ndk1::__bind<void (websocketpp::connection<websocketpp::config::asio_client>::*)(websocketpp::connection<websocketpp::config::asio_client>::terminate_status, std::__ndk1::error_code const&), std::__ndk1::shared_ptr<websocketpp::connection<websocketpp::config::asio_client> >, websocketpp::connection<websocketpp::config::asio_client>&::terminate_status, std::__ndk1::placeholders::__ph<1> const&>, std::__ndk1::allocator<std::__ndk1::__bind<void (websocketpp::connection<websocketpp::config::asio_client>::*)(websocketpp::connection<websocketpp::config::asio_client>::terminate_status, std::__ndk1::error_code const&), std::__ndk1::shared_ptr<websocketpp::connection<websocketpp::config::asio_client> >, websocketpp::connection<websocketpp::config::asio_client>&::terminate_status, std::__ndk1::placeholders::__ph<1> const&> >, void (std::__ndk1::error_code const&)>::operator()(std::__ndk1::error_code const&)
PUBLIC cce3c 0 std::__ndk1::__function::__func<std::__ndk1::__bind<void (websocketpp::connection<websocketpp::config::asio_client>::*)(websocketpp::connection<websocketpp::config::asio_client>::terminate_status, std::__ndk1::error_code const&), std::__ndk1::shared_ptr<websocketpp::connection<websocketpp::config::asio_client> >, websocketpp::connection<websocketpp::config::asio_client>&::terminate_status, std::__ndk1::placeholders::__ph<1> const&>, std::__ndk1::allocator<std::__ndk1::__bind<void (websocketpp::connection<websocketpp::config::asio_client>::*)(websocketpp::connection<websocketpp::config::asio_client>::terminate_status, std::__ndk1::error_code const&), std::__ndk1::shared_ptr<websocketpp::connection<websocketpp::config::asio_client> >, websocketpp::connection<websocketpp::config::asio_client>&::terminate_status, std::__ndk1::placeholders::__ph<1> const&> >, void (std::__ndk1::error_code const&)>::target(std::type_info const&) const
PUBLIC cce58 0 std::__ndk1::__function::__func<std::__ndk1::__bind<void (websocketpp::connection<websocketpp::config::asio_client>::*)(websocketpp::connection<websocketpp::config::asio_client>::terminate_status, std::__ndk1::error_code const&), std::__ndk1::shared_ptr<websocketpp::connection<websocketpp::config::asio_client> >, websocketpp::connection<websocketpp::config::asio_client>&::terminate_status, std::__ndk1::placeholders::__ph<1> const&>, std::__ndk1::allocator<std::__ndk1::__bind<void (websocketpp::connection<websocketpp::config::asio_client>::*)(websocketpp::connection<websocketpp::config::asio_client>::terminate_status, std::__ndk1::error_code const&), std::__ndk1::shared_ptr<websocketpp::connection<websocketpp::config::asio_client> >, websocketpp::connection<websocketpp::config::asio_client>&::terminate_status, std::__ndk1::placeholders::__ph<1> const&> >, void (std::__ndk1::error_code const&)>::target_type() const
PUBLIC cce64 0 websocketpp::connection<websocketpp::config::asio_client>::send_close_frame(unsigned short, std::__ndk1::basic_string<char, std::__ndk1::char_traits<char>, std::__ndk1::allocator<char> > const&, bool, bool)
PUBLIC cd850 0 websocketpp::message_buffer::alloc::con_msg_manager<websocketpp::message_buffer::message<websocketpp::message_buffer::alloc::con_msg_manager> >::get_message()
PUBLIC cd9e0 0 websocketpp::connection<websocketpp::config::asio_client>::handle_close_handshake_timeout(std::__ndk1::error_code const&)
PUBLIC cdc68 0 std::__ndk1::__bind<void (websocketpp::connection<websocketpp::config::asio_client>::*)(std::__ndk1::error_code const&), std::__ndk1::shared_ptr<websocketpp::connection<websocketpp::config::asio_client> >, std::__ndk1::placeholders::__ph<1> const&>::~__bind()
PUBLIC cdcb8 0 websocketpp::connection<websocketpp::config::asio_client>::write_push(std::__ndk1::shared_ptr<websocketpp::message_buffer::message<websocketpp::message_buffer::alloc::con_msg_manager> >)
PUBLIC cdf84 0 websocketpp::transport::asio::connection<websocketpp::config::asio_client::transport_config>::dispatch(std::__ndk1::function<void ()>)
PUBLIC ce1a0 0 websocketpp::connection<websocketpp::config::asio_client>::write_frame()
PUBLIC cee50 0 std::__ndk1::__bind<void (websocketpp::connection<websocketpp::config::asio_client>::*)(), std::__ndk1::shared_ptr<websocketpp::connection<websocketpp::config::asio_client> > >::~__bind()
PUBLIC ceea0 0 std::__ndk1::__shared_ptr_emplace<websocketpp::message_buffer::message<websocketpp::message_buffer::alloc::con_msg_manager>, std::__ndk1::allocator<websocketpp::message_buffer::message<websocketpp::message_buffer::alloc::con_msg_manager> > >::~__shared_ptr_emplace()
PUBLIC ceeb0 0 std::__ndk1::__shared_ptr_emplace<websocketpp::message_buffer::message<websocketpp::message_buffer::alloc::con_msg_manager>, std::__ndk1::allocator<websocketpp::message_buffer::message<websocketpp::message_buffer::alloc::con_msg_manager> > >::~__shared_ptr_emplace()
PUBLIC ceee0 0 std::__ndk1::__shared_ptr_emplace<websocketpp::message_buffer::message<websocketpp::message_buffer::alloc::con_msg_manager>, std::__ndk1::allocator<websocketpp::message_buffer::message<websocketpp::message_buffer::alloc::con_msg_manager> > >::__on_zero_shared()
PUBLIC cef58 0 std::__ndk1::__shared_ptr_emplace<websocketpp::message_buffer::message<websocketpp::message_buffer::alloc::con_msg_manager>, std::__ndk1::allocator<websocketpp::message_buffer::message<websocketpp::message_buffer::alloc::con_msg_manager> > >::__on_zero_shared_weak()
PUBLIC cef5c 0 std::__ndk1::__function::__func<std::__ndk1::__bind<void (websocketpp::connection<websocketpp::config::asio_client>::*)(std::__ndk1::error_code const&), std::__ndk1::shared_ptr<websocketpp::connection<websocketpp::config::asio_client> >, std::__ndk1::placeholders::__ph<1> const&>, std::__ndk1::allocator<std::__ndk1::__bind<void (websocketpp::connection<websocketpp::config::asio_client>::*)(std::__ndk1::error_code const&), std::__ndk1::shared_ptr<websocketpp::connection<websocketpp::config::asio_client> >, std::__ndk1::placeholders::__ph<1> const&> >, void (std::__ndk1::error_code const&)>::~__func()
PUBLIC cefb8 0 std::__ndk1::__function::__func<std::__ndk1::__bind<void (websocketpp::connection<websocketpp::config::asio_client>::*)(std::__ndk1::error_code const&), std::__ndk1::shared_ptr<websocketpp::connection<websocketpp::config::asio_client> >, std::__ndk1::placeholders::__ph<1> const&>, std::__ndk1::allocator<std::__ndk1::__bind<void (websocketpp::connection<websocketpp::config::asio_client>::*)(std::__ndk1::error_code const&), std::__ndk1::shared_ptr<websocketpp::connection<websocketpp::config::asio_client> >, std::__ndk1::placeholders::__ph<1> const&> >, void (std::__ndk1::error_code const&)>::~__func()
PUBLIC cf024 0 std::__ndk1::__function::__func<std::__ndk1::__bind<void (websocketpp::connection<websocketpp::config::asio_client>::*)(std::__ndk1::error_code const&), std::__ndk1::shared_ptr<websocketpp::connection<websocketpp::config::asio_client> >, std::__ndk1::placeholders::__ph<1> const&>, std::__ndk1::allocator<std::__ndk1::__bind<void (websocketpp::connection<websocketpp::config::asio_client>::*)(std::__ndk1::error_code const&), std::__ndk1::shared_ptr<websocketpp::connection<websocketpp::config::asio_client> >, std::__ndk1::placeholders::__ph<1> const&> >, void (std::__ndk1::error_code const&)>::__clone() const
PUBLIC cf07c 0 std::__ndk1::__function::__func<std::__ndk1::__bind<void (websocketpp::connection<websocketpp::config::asio_client>::*)(std::__ndk1::error_code const&), std::__ndk1::shared_ptr<websocketpp::connection<websocketpp::config::asio_client> >, std::__ndk1::placeholders::__ph<1> const&>, std::__ndk1::allocator<std::__ndk1::__bind<void (websocketpp::connection<websocketpp::config::asio_client>::*)(std::__ndk1::error_code const&), std::__ndk1::shared_ptr<websocketpp::connection<websocketpp::config::asio_client> >, std::__ndk1::placeholders::__ph<1> const&> >, void (std::__ndk1::error_code const&)>::__clone(std::__ndk1::__function::__base<void (std::__ndk1::error_code const&)>*) const
PUBLIC cf0bc 0 std::__ndk1::__function::__func<std::__ndk1::__bind<void (websocketpp::connection<websocketpp::config::asio_client>::*)(std::__ndk1::error_code const&), std::__ndk1::shared_ptr<websocketpp::connection<websocketpp::config::asio_client> >, std::__ndk1::placeholders::__ph<1> const&>, std::__ndk1::allocator<std::__ndk1::__bind<void (websocketpp::connection<websocketpp::config::asio_client>::*)(std::__ndk1::error_code const&), std::__ndk1::shared_ptr<websocketpp::connection<websocketpp::config::asio_client> >, std::__ndk1::placeholders::__ph<1> const&> >, void (std::__ndk1::error_code const&)>::destroy()
PUBLIC cf10c 0 std::__ndk1::__function::__func<std::__ndk1::__bind<void (websocketpp::connection<websocketpp::config::asio_client>::*)(std::__ndk1::error_code const&), std::__ndk1::shared_ptr<websocketpp::connection<websocketpp::config::asio_client> >, std::__ndk1::placeholders::__ph<1> const&>, std::__ndk1::allocator<std::__ndk1::__bind<void (websocketpp::connection<websocketpp::config::asio_client>::*)(std::__ndk1::error_code const&), std::__ndk1::shared_ptr<websocketpp::connection<websocketpp::config::asio_client> >, std::__ndk1::placeholders::__ph<1> const&> >, void (std::__ndk1::error_code const&)>::destroy_deallocate()
PUBLIC cf16c 0 std::__ndk1::__function::__func<std::__ndk1::__bind<void (websocketpp::connection<websocketpp::config::asio_client>::*)(std::__ndk1::error_code const&), std::__ndk1::shared_ptr<websocketpp::connection<websocketpp::config::asio_client> >, std::__ndk1::placeholders::__ph<1> const&>, std::__ndk1::allocator<std::__ndk1::__bind<void (websocketpp::connection<websocketpp::config::asio_client>::*)(std::__ndk1::error_code const&), std::__ndk1::shared_ptr<websocketpp::connection<websocketpp::config::asio_client> >, std::__ndk1::placeholders::__ph<1> const&> >, void (std::__ndk1::error_code const&)>::operator()(std::__ndk1::error_code const&)
PUBLIC cf188 0 std::__ndk1::__function::__func<std::__ndk1::__bind<void (websocketpp::connection<websocketpp::config::asio_client>::*)(std::__ndk1::error_code const&), std::__ndk1::shared_ptr<websocketpp::connection<websocketpp::config::asio_client> >, std::__ndk1::placeholders::__ph<1> const&>, std::__ndk1::allocator<std::__ndk1::__bind<void (websocketpp::connection<websocketpp::config::asio_client>::*)(std::__ndk1::error_code const&), std::__ndk1::shared_ptr<websocketpp::connection<websocketpp::config::asio_client> >, std::__ndk1::placeholders::__ph<1> const&> >, void (std::__ndk1::error_code const&)>::target(std::type_info const&) const
PUBLIC cf1a4 0 std::__ndk1::__function::__func<std::__ndk1::__bind<void (websocketpp::connection<websocketpp::config::asio_client>::*)(std::__ndk1::error_code const&), std::__ndk1::shared_ptr<websocketpp::connection<websocketpp::config::asio_client> >, std::__ndk1::placeholders::__ph<1> const&>, std::__ndk1::allocator<std::__ndk1::__bind<void (websocketpp::connection<websocketpp::config::asio_client>::*)(std::__ndk1::error_code const&), std::__ndk1::shared_ptr<websocketpp::connection<websocketpp::config::asio_client> >, std::__ndk1::placeholders::__ph<1> const&> >, void (std::__ndk1::error_code const&)>::target_type() const
PUBLIC cf1b0 0 std::__ndk1::deque<std::__ndk1::shared_ptr<websocketpp::message_buffer::message<websocketpp::message_buffer::alloc::con_msg_manager> >, std::__ndk1::allocator<std::__ndk1::shared_ptr<websocketpp::message_buffer::message<websocketpp::message_buffer::alloc::con_msg_manager> > > >::__add_back_capacity()
PUBLIC cf7b0 0 std::__ndk1::__split_buffer<std::__ndk1::shared_ptr<websocketpp::message_buffer::message<websocketpp::message_buffer::alloc::con_msg_manager> >*, std::__ndk1::allocator<std::__ndk1::shared_ptr<websocketpp::message_buffer::message<websocketpp::message_buffer::alloc::con_msg_manager> >*> >::push_back(std::__ndk1::shared_ptr<websocketpp::message_buffer::message<websocketpp::message_buffer::alloc::con_msg_manager> >*&&)
PUBLIC cf934 0 std::__ndk1::__split_buffer<std::__ndk1::shared_ptr<websocketpp::message_buffer::message<websocketpp::message_buffer::alloc::con_msg_manager> >*, std::__ndk1::allocator<std::__ndk1::shared_ptr<websocketpp::message_buffer::message<websocketpp::message_buffer::alloc::con_msg_manager> >*> >::push_front(std::__ndk1::shared_ptr<websocketpp::message_buffer::message<websocketpp::message_buffer::alloc::con_msg_manager> >*&&)
PUBLIC m cfac4 0 asio::io_context::post<asio::detail::wrapped_handler<asio::io_context::strand, std::__ndk1::function<void ()>, asio::detail::is_continuation_if_running> >(asio::detail::wrapped_handler<asio::io_context::strand, std::__ndk1::function<void ()>, asio::detail::is_continuation_if_running>&&)
PUBLIC m cfc68 0 asio::detail::completion_handler<asio::detail::wrapped_handler<asio::io_context::strand, std::__ndk1::function<void ()>, asio::detail::is_continuation_if_running> >::ptr::~ptr()
PUBLIC m cfd10 0 asio::detail::completion_handler<asio::detail::wrapped_handler<asio::io_context::strand, std::__ndk1::function<void ()>, asio::detail::is_continuation_if_running> >::do_complete(void*, asio::detail::scheduler_operation*, std::__ndk1::error_code const&, unsigned long)
PUBLIC m cfeec 0 asio::detail::asio_handler_invoke<asio::detail::wrapped_handler<asio::io_context::strand, std::__ndk1::function<void ()>, asio::detail::is_continuation_if_running>, asio::io_context::strand, std::__ndk1::function<void ()>, asio::detail::is_continuation_if_running>(asio::detail::wrapped_handler<asio::io_context::strand, std::__ndk1::function<void ()>, asio::detail::is_continuation_if_running>&, asio::detail::wrapped_handler<asio::io_context::strand, std::__ndk1::function<void ()>, asio::detail::is_continuation_if_running>*)
PUBLIC m d007c 0 asio::detail::rewrapped_handler<asio::detail::wrapped_handler<asio::io_context::strand, std::__ndk1::function<void ()>, asio::detail::is_continuation_if_running>, std::__ndk1::function<void ()> >::~rewrapped_handler()
PUBLIC m d0114 0 asio::detail::strand_service::dispatch<asio::detail::rewrapped_handler<asio::detail::wrapped_handler<asio::io_context::strand, std::__ndk1::function<void ()>, asio::detail::is_continuation_if_running>, std::__ndk1::function<void ()> > >(asio::detail::strand_service::strand_impl*&, asio::detail::rewrapped_handler<asio::detail::wrapped_handler<asio::io_context::strand, std::__ndk1::function<void ()>, asio::detail::is_continuation_if_running>, std::__ndk1::function<void ()> >&)
PUBLIC m d0400 0 asio::detail::completion_handler<asio::detail::rewrapped_handler<asio::detail::wrapped_handler<asio::io_context::strand, std::__ndk1::function<void ()>, asio::detail::is_continuation_if_running>, std::__ndk1::function<void ()> > >::do_complete(void*, asio::detail::scheduler_operation*, std::__ndk1::error_code const&, unsigned long)
PUBLIC m d0688 0 asio::detail::completion_handler<asio::detail::rewrapped_handler<asio::detail::wrapped_handler<asio::io_context::strand, std::__ndk1::function<void ()>, asio::detail::is_continuation_if_running>, std::__ndk1::function<void ()> > >::ptr::~ptr()
PUBLIC m d076c 0 asio::detail::strand_service::dispatch<std::__ndk1::function<void ()> >(asio::detail::strand_service::strand_impl*&, std::__ndk1::function<void ()>&)
PUBLIC m d0ab8 0 asio::detail::completion_handler<std::__ndk1::function<void ()> >::do_complete(void*, asio::detail::scheduler_operation*, std::__ndk1::error_code const&, unsigned long)
PUBLIC m d0cb8 0 asio::detail::completion_handler<std::__ndk1::function<void ()> >::ptr::~ptr()
PUBLIC d0d60 0 websocketpp::connection<websocketpp::config::asio_client>::write_pop()
PUBLIC d10b4 0 websocketpp::utility::to_hex(std::__ndk1::basic_string<char, std::__ndk1::char_traits<char>, std::__ndk1::allocator<char> > const&)
PUBLIC d1264 0 websocketpp::transport::asio::connection<websocketpp::config::asio_client::transport_config>::async_write(std::__ndk1::vector<websocketpp::transport::buffer, std::__ndk1::allocator<websocketpp::transport::buffer> > const&, std::__ndk1::function<void (std::__ndk1::error_code const&)>)
PUBLIC d1778 0 std::__ndk1::vector<std::__ndk1::shared_ptr<websocketpp::message_buffer::message<websocketpp::message_buffer::alloc::con_msg_manager> >, std::__ndk1::allocator<std::__ndk1::shared_ptr<websocketpp::message_buffer::message<websocketpp::message_buffer::alloc::con_msg_manager> > > >::__push_back_slow_path<std::__ndk1::shared_ptr<websocketpp::message_buffer::message<websocketpp::message_buffer::alloc::con_msg_manager> > const&>(std::__ndk1::shared_ptr<websocketpp::message_buffer::message<websocketpp::message_buffer::alloc::con_msg_manager> > const&)
PUBLIC d18dc 0 std::__ndk1::vector<std::__ndk1::shared_ptr<websocketpp::message_buffer::message<websocketpp::message_buffer::alloc::con_msg_manager> >, std::__ndk1::allocator<std::__ndk1::shared_ptr<websocketpp::message_buffer::message<websocketpp::message_buffer::alloc::con_msg_manager> > > >::__throw_length_error[abi:v170000]() const
PUBLIC d18f0 0 std::__ndk1::vector<websocketpp::transport::buffer, std::__ndk1::allocator<websocketpp::transport::buffer> >::__throw_length_error[abi:v170000]() const
PUBLIC d1904 0 websocketpp::transport::asio::make_custom_alloc_handler<std::__ndk1::__bind<void (websocketpp::transport::asio::connection<websocketpp::config::asio_client::transport_config>::*)(std::__ndk1::function<void (std::__ndk1::error_code const&)>, std::__ndk1::error_code const&, unsigned long), std::__ndk1::shared_ptr<websocketpp::transport::asio::connection<websocketpp::config::asio_client::transport_config> >, std::__ndk1::function<void (std::__ndk1::error_code const&)>&, std::__ndk1::placeholders::__ph<1> const&, std::__ndk1::placeholders::__ph<2> const&> >(websocketpp::transport::asio::handler_allocator&, std::__ndk1::__bind<void (websocketpp::transport::asio::connection<websocketpp::config::asio_client::transport_config>::*)(std::__ndk1::function<void (std::__ndk1::error_code const&)>, std::__ndk1::error_code const&, unsigned long), std::__ndk1::shared_ptr<websocketpp::transport::asio::connection<websocketpp::config::asio_client::transport_config> >, std::__ndk1::function<void (std::__ndk1::error_code const&)>&, std::__ndk1::placeholders::__ph<1> const&, std::__ndk1::placeholders::__ph<2> const&>)
PUBLIC d1b38 0 websocketpp::transport::asio::connection<websocketpp::config::asio_client::transport_config>::handle_async_write(std::__ndk1::function<void (std::__ndk1::error_code const&)>, std::__ndk1::error_code const&, unsigned long)
PUBLIC d1c7c 0 asio::detail::wrapped_handler<asio::io_context::strand, websocketpp::transport::asio::custom_alloc_handler<std::__ndk1::__bind<void (websocketpp::transport::asio::connection<websocketpp::config::asio_client::transport_config>::*)(std::__ndk1::function<void (std::__ndk1::error_code const&)>, std::__ndk1::error_code const&, unsigned long), std::__ndk1::shared_ptr<websocketpp::transport::asio::connection<websocketpp::config::asio_client::transport_config> >, std::__ndk1::function<void (std::__ndk1::error_code const&)>&, std::__ndk1::placeholders::__ph<1> const&, std::__ndk1::placeholders::__ph<2> const&> >, asio::detail::is_continuation_if_running>::~wrapped_handler()
PUBLIC d1d04 0 websocketpp::transport::asio::custom_alloc_handler<std::__ndk1::__bind<void (websocketpp::transport::asio::connection<websocketpp::config::asio_client::transport_config>::*)(std::__ndk1::function<void (std::__ndk1::error_code const&)>, std::__ndk1::error_code const&, unsigned long), std::__ndk1::shared_ptr<websocketpp::transport::asio::connection<websocketpp::config::asio_client::transport_config> >, std::__ndk1::function<void (std::__ndk1::error_code const&)>&, std::__ndk1::placeholders::__ph<1> const&, std::__ndk1::placeholders::__ph<2> const&> >::~custom_alloc_handler()
PUBLIC d1d8c 0 std::__ndk1::__bind<void (websocketpp::transport::asio::connection<websocketpp::config::asio_client::transport_config>::*)(std::__ndk1::function<void (std::__ndk1::error_code const&)>, std::__ndk1::error_code const&, unsigned long), std::__ndk1::shared_ptr<websocketpp::transport::asio::connection<websocketpp::config::asio_client::transport_config> >, std::__ndk1::function<void (std::__ndk1::error_code const&)>&, std::__ndk1::placeholders::__ph<1> const&, std::__ndk1::placeholders::__ph<2> const&>::~__bind()
PUBLIC d1e14 0 std::__ndk1::vector<asio::const_buffer, std::__ndk1::allocator<asio::const_buffer> >::__throw_length_error[abi:v170000]() const
PUBLIC d1e28 0 asio::detail::start_write_buffer_sequence_op<asio::basic_stream_socket<asio::ip::tcp>, std::__ndk1::vector<asio::const_buffer, std::__ndk1::allocator<asio::const_buffer> >, std::__ndk1::__wrap_iter<asio::const_buffer const*>, asio::detail::transfer_all_t, asio::detail::wrapped_handler<asio::io_context::strand, websocketpp::transport::asio::custom_alloc_handler<std::__ndk1::__bind<void (websocketpp::transport::asio::connection<websocketpp::config::asio_client::transport_config>::*)(std::__ndk1::function<void (std::__ndk1::error_code const&)>, std::__ndk1::error_code const&, unsigned long), std::__ndk1::shared_ptr<websocketpp::transport::asio::connection<websocketpp::config::asio_client::transport_config> >, std::__ndk1::function<void (std::__ndk1::error_code const&)>&, std::__ndk1::placeholders::__ph<1> const&, std::__ndk1::placeholders::__ph<2> const&> >, asio::detail::is_continuation_if_running> >(asio::basic_stream_socket<asio::ip::tcp>&, std::__ndk1::vector<asio::const_buffer, std::__ndk1::allocator<asio::const_buffer> > const&, std::__ndk1::__wrap_iter<asio::const_buffer const*> const&, asio::detail::transfer_all_t, asio::detail::wrapped_handler<asio::io_context::strand, websocketpp::transport::asio::custom_alloc_handler<std::__ndk1::__bind<void (websocketpp::transport::asio::connection<websocketpp::config::asio_client::transport_config>::*)(std::__ndk1::function<void (std::__ndk1::error_code const&)>, std::__ndk1::error_code const&, unsigned long), std::__ndk1::shared_ptr<websocketpp::transport::asio::connection<websocketpp::config::asio_client::transport_config> >, std::__ndk1::function<void (std::__ndk1::error_code const&)>&, std::__ndk1::placeholders::__ph<1> const&, std::__ndk1::placeholders::__ph<2> const&> >, asio::detail::is_continuation_if_running>&)
PUBLIC d1f34 0 asio::detail::write_op<asio::basic_stream_socket<asio::ip::tcp>, std::__ndk1::vector<asio::const_buffer, std::__ndk1::allocator<asio::const_buffer> >, std::__ndk1::__wrap_iter<asio::const_buffer const*>, asio::detail::transfer_all_t, asio::detail::wrapped_handler<asio::io_context::strand, websocketpp::transport::asio::custom_alloc_handler<std::__ndk1::__bind<void (websocketpp::transport::asio::connection<websocketpp::config::asio_client::transport_config>::*)(std::__ndk1::function<void (std::__ndk1::error_code const&)>, std::__ndk1::error_code const&, unsigned long), std::__ndk1::shared_ptr<websocketpp::transport::asio::connection<websocketpp::config::asio_client::transport_config> >, std::__ndk1::function<void (std::__ndk1::error_code const&)>&, std::__ndk1::placeholders::__ph<1> const&, std::__ndk1::placeholders::__ph<2> const&> >, asio::detail::is_continuation_if_running> >::write_op(asio::basic_stream_socket<asio::ip::tcp>&, std::__ndk1::vector<asio::const_buffer, std::__ndk1::allocator<asio::const_buffer> > const&, asio::detail::transfer_all_t, asio::detail::wrapped_handler<asio::io_context::strand, websocketpp::transport::asio::custom_alloc_handler<std::__ndk1::__bind<void (websocketpp::transport::asio::connection<websocketpp::config::asio_client::transport_config>::*)(std::__ndk1::function<void (std::__ndk1::error_code const&)>, std::__ndk1::error_code const&, unsigned long), std::__ndk1::shared_ptr<websocketpp::transport::asio::connection<websocketpp::config::asio_client::transport_config> >, std::__ndk1::function<void (std::__ndk1::error_code const&)>&, std::__ndk1::placeholders::__ph<1> const&, std::__ndk1::placeholders::__ph<2> const&> >, asio::detail::is_continuation_if_running>&)
PUBLIC d2118 0 asio::detail::write_op<asio::basic_stream_socket<asio::ip::tcp>, std::__ndk1::vector<asio::const_buffer, std::__ndk1::allocator<asio::const_buffer> >, std::__ndk1::__wrap_iter<asio::const_buffer const*>, asio::detail::transfer_all_t, asio::detail::wrapped_handler<asio::io_context::strand, websocketpp::transport::asio::custom_alloc_handler<std::__ndk1::__bind<void (websocketpp::transport::asio::connection<websocketpp::config::asio_client::transport_config>::*)(std::__ndk1::function<void (std::__ndk1::error_code const&)>, std::__ndk1::error_code const&, unsigned long), std::__ndk1::shared_ptr<websocketpp::transport::asio::connection<websocketpp::config::asio_client::transport_config> >, std::__ndk1::function<void (std::__ndk1::error_code const&)>&, std::__ndk1::placeholders::__ph<1> const&, std::__ndk1::placeholders::__ph<2> const&> >, asio::detail::is_continuation_if_running> >::operator()(std::__ndk1::error_code const&, unsigned long, int)
PUBLIC d2364 0 asio::detail::write_op<asio::basic_stream_socket<asio::ip::tcp>, std::__ndk1::vector<asio::const_buffer, std::__ndk1::allocator<asio::const_buffer> >, std::__ndk1::__wrap_iter<asio::const_buffer const*>, asio::detail::transfer_all_t, asio::detail::wrapped_handler<asio::io_context::strand, websocketpp::transport::asio::custom_alloc_handler<std::__ndk1::__bind<void (websocketpp::transport::asio::connection<websocketpp::config::asio_client::transport_config>::*)(std::__ndk1::function<void (std::__ndk1::error_code const&)>, std::__ndk1::error_code const&, unsigned long), std::__ndk1::shared_ptr<websocketpp::transport::asio::connection<websocketpp::config::asio_client::transport_config> >, std::__ndk1::function<void (std::__ndk1::error_code const&)>&, std::__ndk1::placeholders::__ph<1> const&, std::__ndk1::placeholders::__ph<2> const&> >, asio::detail::is_continuation_if_running> >::~write_op()
PUBLIC d2404 0 asio::detail::wrapped_handler<asio::io_context::strand, websocketpp::transport::asio::custom_alloc_handler<std::__ndk1::__bind<void (websocketpp::transport::asio::connection<websocketpp::config::asio_client::transport_config>::*)(std::__ndk1::function<void (std::__ndk1::error_code const&)>, std::__ndk1::error_code const&, unsigned long), std::__ndk1::shared_ptr<websocketpp::transport::asio::connection<websocketpp::config::asio_client::transport_config> >, std::__ndk1::function<void (std::__ndk1::error_code const&)>&, std::__ndk1::placeholders::__ph<1> const&, std::__ndk1::placeholders::__ph<2> const&> >, asio::detail::is_continuation_if_running>::operator()<std::__ndk1::error_code, unsigned long>(std::__ndk1::error_code const&, unsigned long const&)
PUBLIC d25ac 0 asio::detail::reactive_socket_service_base::async_send<asio::detail::prepared_buffers<asio::const_buffer>, asio::detail::write_op<asio::basic_stream_socket<asio::ip::tcp>, std::__ndk1::vector<asio::const_buffer, std::__ndk1::allocator<asio::const_buffer> >, std::__ndk1::__wrap_iter<asio::const_buffer const*>, asio::detail::transfer_all_t, asio::detail::wrapped_handler<asio::io_context::strand, websocketpp::transport::asio::custom_alloc_handler<std::__ndk1::__bind<void (websocketpp::transport::asio::connection<websocketpp::config::asio_client::transport_config>::*)(std::__ndk1::function<void (std::__ndk1::error_code const&)>, std::__ndk1::error_code const&, unsigned long), std::__ndk1::shared_ptr<websocketpp::transport::asio::connection<websocketpp::config::asio_client::transport_config> >, std::__ndk1::function<void (std::__ndk1::error_code const&)>&, std::__ndk1::placeholders::__ph<1> const&, std::__ndk1::placeholders::__ph<2> const&> >, asio::detail::is_continuation_if_running> > >(asio::detail::reactive_socket_service_base::base_implementation_type&, asio::detail::prepared_buffers<asio::const_buffer> const&, int, asio::detail::write_op<asio::basic_stream_socket<asio::ip::tcp>, std::__ndk1::vector<asio::const_buffer, std::__ndk1::allocator<asio::const_buffer> >, std::__ndk1::__wrap_iter<asio::const_buffer const*>, asio::detail::transfer_all_t, asio::detail::wrapped_handler<asio::io_context::strand, websocketpp::transport::asio::custom_alloc_handler<std::__ndk1::__bind<void (websocketpp::transport::asio::connection<websocketpp::config::asio_client::transport_config>::*)(std::__ndk1::function<void (std::__ndk1::error_code const&)>, std::__ndk1::error_code const&, unsigned long), std::__ndk1::shared_ptr<websocketpp::transport::asio::connection<websocketpp::config::asio_client::transport_config> >, std::__ndk1::function<void (std::__ndk1::error_code const&)>&, std::__ndk1::placeholders::__ph<1> const&, std::__ndk1::placeholders::__ph<2> const&> >, asio::detail::is_continuation_if_running> >&)
PUBLIC d2818 0 asio::detail::reactive_socket_send_op<asio::detail::prepared_buffers<asio::const_buffer>, asio::detail::write_op<asio::basic_stream_socket<asio::ip::tcp>, std::__ndk1::vector<asio::const_buffer, std::__ndk1::allocator<asio::const_buffer> >, std::__ndk1::__wrap_iter<asio::const_buffer const*>, asio::detail::transfer_all_t, asio::detail::wrapped_handler<asio::io_context::strand, websocketpp::transport::asio::custom_alloc_handler<std::__ndk1::__bind<void (websocketpp::transport::asio::connection<websocketpp::config::asio_client::transport_config>::*)(std::__ndk1::function<void (std::__ndk1::error_code const&)>, std::__ndk1::error_code const&, unsigned long), std::__ndk1::shared_ptr<websocketpp::transport::asio::connection<websocketpp::config::asio_client::transport_config> >, std::__ndk1::function<void (std::__ndk1::error_code const&)>&, std::__ndk1::placeholders::__ph<1> const&, std::__ndk1::placeholders::__ph<2> const&> >, asio::detail::is_continuation_if_running> > >::do_complete(void*, asio::detail::scheduler_operation*, std::__ndk1::error_code const&, unsigned long)
PUBLIC d2ab4 0 asio::detail::write_op<asio::basic_stream_socket<asio::ip::tcp>, std::__ndk1::vector<asio::const_buffer, std::__ndk1::allocator<asio::const_buffer> >, std::__ndk1::__wrap_iter<asio::const_buffer const*>, asio::detail::transfer_all_t, asio::detail::wrapped_handler<asio::io_context::strand, websocketpp::transport::asio::custom_alloc_handler<std::__ndk1::__bind<void (websocketpp::transport::asio::connection<websocketpp::config::asio_client::transport_config>::*)(std::__ndk1::function<void (std::__ndk1::error_code const&)>, std::__ndk1::error_code const&, unsigned long), std::__ndk1::shared_ptr<websocketpp::transport::asio::connection<websocketpp::config::asio_client::transport_config> >, std::__ndk1::function<void (std::__ndk1::error_code const&)>&, std::__ndk1::placeholders::__ph<1> const&, std::__ndk1::placeholders::__ph<2> const&> >, asio::detail::is_continuation_if_running> >::write_op(asio::detail::write_op<asio::basic_stream_socket<asio::ip::tcp>, std::__ndk1::vector<asio::const_buffer, std::__ndk1::allocator<asio::const_buffer> >, std::__ndk1::__wrap_iter<asio::const_buffer const*>, asio::detail::transfer_all_t, asio::detail::wrapped_handler<asio::io_context::strand, websocketpp::transport::asio::custom_alloc_handler<std::__ndk1::__bind<void (websocketpp::transport::asio::connection<websocketpp::config::asio_client::transport_config>::*)(std::__ndk1::function<void (std::__ndk1::error_code const&)>, std::__ndk1::error_code const&, unsigned long), std::__ndk1::shared_ptr<websocketpp::transport::asio::connection<websocketpp::config::asio_client::transport_config> >, std::__ndk1::function<void (std::__ndk1::error_code const&)>&, std::__ndk1::placeholders::__ph<1> const&, std::__ndk1::placeholders::__ph<2> const&> >, asio::detail::is_continuation_if_running> >&&)
PUBLIC d2be0 0 asio::detail::reactive_socket_send_op<asio::detail::prepared_buffers<asio::const_buffer>, asio::detail::write_op<asio::basic_stream_socket<asio::ip::tcp>, std::__ndk1::vector<asio::const_buffer, std::__ndk1::allocator<asio::const_buffer> >, std::__ndk1::__wrap_iter<asio::const_buffer const*>, asio::detail::transfer_all_t, asio::detail::wrapped_handler<asio::io_context::strand, websocketpp::transport::asio::custom_alloc_handler<std::__ndk1::__bind<void (websocketpp::transport::asio::connection<websocketpp::config::asio_client::transport_config>::*)(std::__ndk1::function<void (std::__ndk1::error_code const&)>, std::__ndk1::error_code const&, unsigned long), std::__ndk1::shared_ptr<websocketpp::transport::asio::connection<websocketpp::config::asio_client::transport_config> >, std::__ndk1::function<void (std::__ndk1::error_code const&)>&, std::__ndk1::placeholders::__ph<1> const&, std::__ndk1::placeholders::__ph<2> const&> >, asio::detail::is_continuation_if_running> > >::ptr::reset()
PUBLIC d2cac 0 asio::detail::binder2<asio::detail::write_op<asio::basic_stream_socket<asio::ip::tcp>, std::__ndk1::vector<asio::const_buffer, std::__ndk1::allocator<asio::const_buffer> >, std::__ndk1::__wrap_iter<asio::const_buffer const*>, asio::detail::transfer_all_t, asio::detail::wrapped_handler<asio::io_context::strand, websocketpp::transport::asio::custom_alloc_handler<std::__ndk1::__bind<void (websocketpp::transport::asio::connection<websocketpp::config::asio_client::transport_config>::*)(std::__ndk1::function<void (std::__ndk1::error_code const&)>, std::__ndk1::error_code const&, unsigned long), std::__ndk1::shared_ptr<websocketpp::transport::asio::connection<websocketpp::config::asio_client::transport_config> >, std::__ndk1::function<void (std::__ndk1::error_code const&)>&, std::__ndk1::placeholders::__ph<1> const&, std::__ndk1::placeholders::__ph<2> const&> >, asio::detail::is_continuation_if_running> >, std::__ndk1::error_code, unsigned long>::~binder2()
PUBLIC d2d4c 0 asio::detail::asio_handler_invoke<asio::detail::binder2<asio::detail::write_op<asio::basic_stream_socket<asio::ip::tcp>, std::__ndk1::vector<asio::const_buffer, std::__ndk1::allocator<asio::const_buffer> >, std::__ndk1::__wrap_iter<asio::const_buffer const*>, asio::detail::transfer_all_t, asio::detail::wrapped_handler<asio::io_context::strand, websocketpp::transport::asio::custom_alloc_handler<std::__ndk1::__bind<void (websocketpp::transport::asio::connection<websocketpp::config::asio_client::transport_config>::*)(std::__ndk1::function<void (std::__ndk1::error_code const&)>, std::__ndk1::error_code const&, unsigned long), std::__ndk1::shared_ptr<websocketpp::transport::asio::connection<websocketpp::config::asio_client::transport_config> >, std::__ndk1::function<void (std::__ndk1::error_code const&)>&, std::__ndk1::placeholders::__ph<1> const&, std::__ndk1::placeholders::__ph<2> const&> >, asio::detail::is_continuation_if_running> >, std::__ndk1::error_code, unsigned long>, asio::io_context::strand, websocketpp::transport::asio::custom_alloc_handler<std::__ndk1::__bind<void (websocketpp::transport::asio::connection<websocketpp::config::asio_client::transport_config>::*)(std::__ndk1::function<void (std::__ndk1::error_code const&)>, std::__ndk1::error_code const&, unsigned long), std::__ndk1::shared_ptr<websocketpp::transport::asio::connection<websocketpp::config::asio_client::transport_config> >, std::__ndk1::function<void (std::__ndk1::error_code const&)>&, std::__ndk1::placeholders::__ph<1> const&, std::__ndk1::placeholders::__ph<2> const&> >, asio::detail::is_continuation_if_running>(asio::detail::binder2<asio::detail::write_op<asio::basic_stream_socket<asio::ip::tcp>, std::__ndk1::vector<asio::const_buffer, std::__ndk1::allocator<asio::const_buffer> >, std::__ndk1::__wrap_iter<asio::const_buffer const*>, asio::detail::transfer_all_t, asio::detail::wrapped_handler<asio::io_context::strand, websocketpp::transport::asio::custom_alloc_handler<std::__ndk1::__bind<void (websocketpp::transport::asio::connection<websocketpp::config::asio_client::transport_config>::*)(std::__ndk1::function<void (std::__ndk1::error_code const&)>, std::__ndk1::error_code const&, unsigned long), std::__ndk1::shared_ptr<websocketpp::transport::asio::connection<websocketpp::config::asio_client::transport_config> >, std::__ndk1::function<void (std::__ndk1::error_code const&)>&, std::__ndk1::placeholders::__ph<1> const&, std::__ndk1::placeholders::__ph<2> const&> >, asio::detail::is_continuation_if_running> >, std::__ndk1::error_code, unsigned long>&, asio::detail::wrapped_handler<asio::io_context::strand, websocketpp::transport::asio::custom_alloc_handler<std::__ndk1::__bind<void (websocketpp::transport::asio::connection<websocketpp::config::asio_client::transport_config>::*)(std::__ndk1::function<void (std::__ndk1::error_code const&)>, std::__ndk1::error_code const&, unsigned long), std::__ndk1::shared_ptr<websocketpp::transport::asio::connection<websocketpp::config::asio_client::transport_config> >, std::__ndk1::function<void (std::__ndk1::error_code const&)>&, std::__ndk1::placeholders::__ph<1> const&, std::__ndk1::placeholders::__ph<2> const&> >, asio::detail::is_continuation_if_running>*)
PUBLIC d2ebc 0 asio::detail::rewrapped_handler<asio::detail::binder2<asio::detail::write_op<asio::basic_stream_socket<asio::ip::tcp>, std::__ndk1::vector<asio::const_buffer, std::__ndk1::allocator<asio::const_buffer> >, std::__ndk1::__wrap_iter<asio::const_buffer const*>, asio::detail::transfer_all_t, asio::detail::wrapped_handler<asio::io_context::strand, websocketpp::transport::asio::custom_alloc_handler<std::__ndk1::__bind<void (websocketpp::transport::asio::connection<websocketpp::config::asio_client::transport_config>::*)(std::__ndk1::function<void (std::__ndk1::error_code const&)>, std::__ndk1::error_code const&, unsigned long), std::__ndk1::shared_ptr<websocketpp::transport::asio::connection<websocketpp::config::asio_client::transport_config> >, std::__ndk1::function<void (std::__ndk1::error_code const&)>&, std::__ndk1::placeholders::__ph<1> const&, std::__ndk1::placeholders::__ph<2> const&> >, asio::detail::is_continuation_if_running> >, std::__ndk1::error_code, unsigned long>, websocketpp::transport::asio::custom_alloc_handler<std::__ndk1::__bind<void (websocketpp::transport::asio::connection<websocketpp::config::asio_client::transport_config>::*)(std::__ndk1::function<void (std::__ndk1::error_code const&)>, std::__ndk1::error_code const&, unsigned long), std::__ndk1::shared_ptr<websocketpp::transport::asio::connection<websocketpp::config::asio_client::transport_config> >, std::__ndk1::function<void (std::__ndk1::error_code const&)>&, std::__ndk1::placeholders::__ph<1> const&, std::__ndk1::placeholders::__ph<2> const&> > >::rewrapped_handler(asio::detail::binder2<asio::detail::write_op<asio::basic_stream_socket<asio::ip::tcp>, std::__ndk1::vector<asio::const_buffer, std::__ndk1::allocator<asio::const_buffer> >, std::__ndk1::__wrap_iter<asio::const_buffer const*>, asio::detail::transfer_all_t, asio::detail::wrapped_handler<asio::io_context::strand, websocketpp::transport::asio::custom_alloc_handler<std::__ndk1::__bind<void (websocketpp::transport::asio::connection<websocketpp::config::asio_client::transport_config>::*)(std::__ndk1::function<void (std::__ndk1::error_code const&)>, std::__ndk1::error_code const&, unsigned long), std::__ndk1::shared_ptr<websocketpp::transport::asio::connection<websocketpp::config::asio_client::transport_config> >, std::__ndk1::function<void (std::__ndk1::error_code const&)>&, std::__ndk1::placeholders::__ph<1> const&, std::__ndk1::placeholders::__ph<2> const&> >, asio::detail::is_continuation_if_running> >, std::__ndk1::error_code, unsigned long>&, websocketpp::transport::asio::custom_alloc_handler<std::__ndk1::__bind<void (websocketpp::transport::asio::connection<websocketpp::config::asio_client::transport_config>::*)(std::__ndk1::function<void (std::__ndk1::error_code const&)>, std::__ndk1::error_code const&, unsigned long), std::__ndk1::shared_ptr<websocketpp::transport::asio::connection<websocketpp::config::asio_client::transport_config> >, std::__ndk1::function<void (std::__ndk1::error_code const&)>&, std::__ndk1::placeholders::__ph<1> const&, std::__ndk1::placeholders::__ph<2> const&> > const&)
PUBLIC d2fbc 0 asio::detail::rewrapped_handler<asio::detail::binder2<asio::detail::write_op<asio::basic_stream_socket<asio::ip::tcp>, std::__ndk1::vector<asio::const_buffer, std::__ndk1::allocator<asio::const_buffer> >, std::__ndk1::__wrap_iter<asio::const_buffer const*>, asio::detail::transfer_all_t, asio::detail::wrapped_handler<asio::io_context::strand, websocketpp::transport::asio::custom_alloc_handler<std::__ndk1::__bind<void (websocketpp::transport::asio::connection<websocketpp::config::asio_client::transport_config>::*)(std::__ndk1::function<void (std::__ndk1::error_code const&)>, std::__ndk1::error_code const&, unsigned long), std::__ndk1::shared_ptr<websocketpp::transport::asio::connection<websocketpp::config::asio_client::transport_config> >, std::__ndk1::function<void (std::__ndk1::error_code const&)>&, std::__ndk1::placeholders::__ph<1> const&, std::__ndk1::placeholders::__ph<2> const&> >, asio::detail::is_continuation_if_running> >, std::__ndk1::error_code, unsigned long>, websocketpp::transport::asio::custom_alloc_handler<std::__ndk1::__bind<void (websocketpp::transport::asio::connection<websocketpp::config::asio_client::transport_config>::*)(std::__ndk1::function<void (std::__ndk1::error_code const&)>, std::__ndk1::error_code const&, unsigned long), std::__ndk1::shared_ptr<websocketpp::transport::asio::connection<websocketpp::config::asio_client::transport_config> >, std::__ndk1::function<void (std::__ndk1::error_code const&)>&, std::__ndk1::placeholders::__ph<1> const&, std::__ndk1::placeholders::__ph<2> const&> > >::~rewrapped_handler()
PUBLIC d30c4 0 asio::detail::strand_service::dispatch<asio::detail::rewrapped_handler<asio::detail::binder2<asio::detail::write_op<asio::basic_stream_socket<asio::ip::tcp>, std::__ndk1::vector<asio::const_buffer, std::__ndk1::allocator<asio::const_buffer> >, std::__ndk1::__wrap_iter<asio::const_buffer const*>, asio::detail::transfer_all_t, asio::detail::wrapped_handler<asio::io_context::strand, websocketpp::transport::asio::custom_alloc_handler<std::__ndk1::__bind<void (websocketpp::transport::asio::connection<websocketpp::config::asio_client::transport_config>::*)(std::__ndk1::function<void (std::__ndk1::error_code const&)>, std::__ndk1::error_code const&, unsigned long), std::__ndk1::shared_ptr<websocketpp::transport::asio::connection<websocketpp::config::asio_client::transport_config> >, std::__ndk1::function<void (std::__ndk1::error_code const&)>&, std::__ndk1::placeholders::__ph<1> const&, std::__ndk1::placeholders::__ph<2> const&> >, asio::detail::is_continuation_if_running> >, std::__ndk1::error_code, unsigned long>, websocketpp::transport::asio::custom_alloc_handler<std::__ndk1::__bind<void (websocketpp::transport::asio::connection<websocketpp::config::asio_client::transport_config>::*)(std::__ndk1::function<void (std::__ndk1::error_code const&)>, std::__ndk1::error_code const&, unsigned long), std::__ndk1::shared_ptr<websocketpp::transport::asio::connection<websocketpp::config::asio_client::transport_config> >, std::__ndk1::function<void (std::__ndk1::error_code const&)>&, std::__ndk1::placeholders::__ph<1> const&, std::__ndk1::placeholders::__ph<2> const&> > > >(asio::detail::strand_service::strand_impl*&, asio::detail::rewrapped_handler<asio::detail::binder2<asio::detail::write_op<asio::basic_stream_socket<asio::ip::tcp>, std::__ndk1::vector<asio::const_buffer, std::__ndk1::allocator<asio::const_buffer> >, std::__ndk1::__wrap_iter<asio::const_buffer const*>, asio::detail::transfer_all_t, asio::detail::wrapped_handler<asio::io_context::strand, websocketpp::transport::asio::custom_alloc_handler<std::__ndk1::__bind<void (websocketpp::transport::asio::connection<websocketpp::config::asio_client::transport_config>::*)(std::__ndk1::function<void (std::__ndk1::error_code const&)>, std::__ndk1::error_code const&, unsigned long), std::__ndk1::shared_ptr<websocketpp::transport::asio::connection<websocketpp::config::asio_client::transport_config> >, std::__ndk1::function<void (std::__ndk1::error_code const&)>&, std::__ndk1::placeholders::__ph<1> const&, std::__ndk1::placeholders::__ph<2> const&> >, asio::detail::is_continuation_if_running> >, std::__ndk1::error_code, unsigned long>, websocketpp::transport::asio::custom_alloc_handler<std::__ndk1::__bind<void (websocketpp::transport::asio::connection<websocketpp::config::asio_client::transport_config>::*)(std::__ndk1::function<void (std::__ndk1::error_code const&)>, std::__ndk1::error_code const&, unsigned long), std::__ndk1::shared_ptr<websocketpp::transport::asio::connection<websocketpp::config::asio_client::transport_config> >, std::__ndk1::function<void (std::__ndk1::error_code const&)>&, std::__ndk1::placeholders::__ph<1> const&, std::__ndk1::placeholders::__ph<2> const&> > >&)
PUBLIC d33a4 0 asio::detail::completion_handler<asio::detail::rewrapped_handler<asio::detail::binder2<asio::detail::write_op<asio::basic_stream_socket<asio::ip::tcp>, std::__ndk1::vector<asio::const_buffer, std::__ndk1::allocator<asio::const_buffer> >, std::__ndk1::__wrap_iter<asio::const_buffer const*>, asio::detail::transfer_all_t, asio::detail::wrapped_handler<asio::io_context::strand, websocketpp::transport::asio::custom_alloc_handler<std::__ndk1::__bind<void (websocketpp::transport::asio::connection<websocketpp::config::asio_client::transport_config>::*)(std::__ndk1::function<void (std::__ndk1::error_code const&)>, std::__ndk1::error_code const&, unsigned long), std::__ndk1::shared_ptr<websocketpp::transport::asio::connection<websocketpp::config::asio_client::transport_config> >, std::__ndk1::function<void (std::__ndk1::error_code const&)>&, std::__ndk1::placeholders::__ph<1> const&, std::__ndk1::placeholders::__ph<2> const&> >, asio::detail::is_continuation_if_running> >, std::__ndk1::error_code, unsigned long>, websocketpp::transport::asio::custom_alloc_handler<std::__ndk1::__bind<void (websocketpp::transport::asio::connection<websocketpp::config::asio_client::transport_config>::*)(std::__ndk1::function<void (std::__ndk1::error_code const&)>, std::__ndk1::error_code const&, unsigned long), std::__ndk1::shared_ptr<websocketpp::transport::asio::connection<websocketpp::config::asio_client::transport_config> >, std::__ndk1::function<void (std::__ndk1::error_code const&)>&, std::__ndk1::placeholders::__ph<1> const&, std::__ndk1::placeholders::__ph<2> const&> > > >::do_complete(void*, asio::detail::scheduler_operation*, std::__ndk1::error_code const&, unsigned long)
PUBLIC d35ec 0 asio::detail::completion_handler<asio::detail::rewrapped_handler<asio::detail::binder2<asio::detail::write_op<asio::basic_stream_socket<asio::ip::tcp>, std::__ndk1::vector<asio::const_buffer, std::__ndk1::allocator<asio::const_buffer> >, std::__ndk1::__wrap_iter<asio::const_buffer const*>, asio::detail::transfer_all_t, asio::detail::wrapped_handler<asio::io_context::strand, websocketpp::transport::asio::custom_alloc_handler<std::__ndk1::__bind<void (websocketpp::transport::asio::connection<websocketpp::config::asio_client::transport_config>::*)(std::__ndk1::function<void (std::__ndk1::error_code const&)>, std::__ndk1::error_code const&, unsigned long), std::__ndk1::shared_ptr<websocketpp::transport::asio::connection<websocketpp::config::asio_client::transport_config> >, std::__ndk1::function<void (std::__ndk1::error_code const&)>&, std::__ndk1::placeholders::__ph<1> const&, std::__ndk1::placeholders::__ph<2> const&> >, asio::detail::is_continuation_if_running> >, std::__ndk1::error_code, unsigned long>, websocketpp::transport::asio::custom_alloc_handler<std::__ndk1::__bind<void (websocketpp::transport::asio::connection<websocketpp::config::asio_client::transport_config>::*)(std::__ndk1::function<void (std::__ndk1::error_code const&)>, std::__ndk1::error_code const&, unsigned long), std::__ndk1::shared_ptr<websocketpp::transport::asio::connection<websocketpp::config::asio_client::transport_config> >, std::__ndk1::function<void (std::__ndk1::error_code const&)>&, std::__ndk1::placeholders::__ph<1> const&, std::__ndk1::placeholders::__ph<2> const&> > > >::ptr::reset()
PUBLIC m d371c 0 asio::detail::reactive_socket_send_op_base<asio::detail::prepared_buffers<asio::const_buffer> >::do_perform(asio::detail::reactor_op*)
PUBLIC m d389c 0 asio::detail::socket_ops::non_blocking_send(int, iovec const*, unsigned long, int, std::__ndk1::error_code&, unsigned long&)
PUBLIC m d3afc 0 asio::detail::socket_ops::set_internal_non_blocking(int, unsigned char&, bool, std::__ndk1::error_code&)
PUBLIC m d3cfc 0 asio::detail::epoll_reactor::start_op(int, int, asio::detail::epoll_reactor::descriptor_state*&, asio::detail::reactor_op*, bool, bool)
PUBLIC d40d0 0 asio::detail::binder2<websocketpp::transport::asio::custom_alloc_handler<std::__ndk1::__bind<void (websocketpp::transport::asio::connection<websocketpp::config::asio_client::transport_config>::*)(std::__ndk1::function<void (std::__ndk1::error_code const&)>, std::__ndk1::error_code const&, unsigned long), std::__ndk1::shared_ptr<websocketpp::transport::asio::connection<websocketpp::config::asio_client::transport_config> >, std::__ndk1::function<void (std::__ndk1::error_code const&)>&, std::__ndk1::placeholders::__ph<1> const&, std::__ndk1::placeholders::__ph<2> const&> >, std::__ndk1::error_code, unsigned long>::~binder2()
PUBLIC d4158 0 asio::detail::strand_service::dispatch<asio::detail::binder2<websocketpp::transport::asio::custom_alloc_handler<std::__ndk1::__bind<void (websocketpp::transport::asio::connection<websocketpp::config::asio_client::transport_config>::*)(std::__ndk1::function<void (std::__ndk1::error_code const&)>, std::__ndk1::error_code const&, unsigned long), std::__ndk1::shared_ptr<websocketpp::transport::asio::connection<websocketpp::config::asio_client::transport_config> >, std::__ndk1::function<void (std::__ndk1::error_code const&)>&, std::__ndk1::placeholders::__ph<1> const&, std::__ndk1::placeholders::__ph<2> const&> >, std::__ndk1::error_code, unsigned long> >(asio::detail::strand_service::strand_impl*&, asio::detail::binder2<websocketpp::transport::asio::custom_alloc_handler<std::__ndk1::__bind<void (websocketpp::transport::asio::connection<websocketpp::config::asio_client::transport_config>::*)(std::__ndk1::function<void (std::__ndk1::error_code const&)>, std::__ndk1::error_code const&, unsigned long), std::__ndk1::shared_ptr<websocketpp::transport::asio::connection<websocketpp::config::asio_client::transport_config> >, std::__ndk1::function<void (std::__ndk1::error_code const&)>&, std::__ndk1::placeholders::__ph<1> const&, std::__ndk1::placeholders::__ph<2> const&> >, std::__ndk1::error_code, unsigned long>&)
PUBLIC d44a0 0 asio::detail::completion_handler<asio::detail::binder2<websocketpp::transport::asio::custom_alloc_handler<std::__ndk1::__bind<void (websocketpp::transport::asio::connection<websocketpp::config::asio_client::transport_config>::*)(std::__ndk1::function<void (std::__ndk1::error_code const&)>, std::__ndk1::error_code const&, unsigned long), std::__ndk1::shared_ptr<websocketpp::transport::asio::connection<websocketpp::config::asio_client::transport_config> >, std::__ndk1::function<void (std::__ndk1::error_code const&)>&, std::__ndk1::placeholders::__ph<1> const&, std::__ndk1::placeholders::__ph<2> const&> >, std::__ndk1::error_code, unsigned long> >::do_complete(void*, asio::detail::scheduler_operation*, std::__ndk1::error_code const&, unsigned long)
PUBLIC d473c 0 asio::detail::completion_handler<asio::detail::binder2<websocketpp::transport::asio::custom_alloc_handler<std::__ndk1::__bind<void (websocketpp::transport::asio::connection<websocketpp::config::asio_client::transport_config>::*)(std::__ndk1::function<void (std::__ndk1::error_code const&)>, std::__ndk1::error_code const&, unsigned long), std::__ndk1::shared_ptr<websocketpp::transport::asio::connection<websocketpp::config::asio_client::transport_config> >, std::__ndk1::function<void (std::__ndk1::error_code const&)>&, std::__ndk1::placeholders::__ph<1> const&, std::__ndk1::placeholders::__ph<2> const&> >, std::__ndk1::error_code, unsigned long> >::ptr::~ptr()
PUBLIC d47f8 0 asio::detail::binder2<websocketpp::transport::asio::custom_alloc_handler<std::__ndk1::__bind<void (websocketpp::transport::asio::connection<websocketpp::config::asio_client::transport_config>::*)(std::__ndk1::function<void (std::__ndk1::error_code const&)>, std::__ndk1::error_code const&, unsigned long), std::__ndk1::shared_ptr<websocketpp::transport::asio::connection<websocketpp::config::asio_client::transport_config> >, std::__ndk1::function<void (std::__ndk1::error_code const&)>&, std::__ndk1::placeholders::__ph<1> const&, std::__ndk1::placeholders::__ph<2> const&> >, std::__ndk1::error_code, unsigned long>::operator()()
PUBLIC d4948 0 std::__ndk1::__function::__func<std::__ndk1::__bind<void (websocketpp::connection<websocketpp::config::asio_client>::*)(), std::__ndk1::shared_ptr<websocketpp::connection<websocketpp::config::asio_client> > >, std::__ndk1::allocator<std::__ndk1::__bind<void (websocketpp::connection<websocketpp::config::asio_client>::*)(), std::__ndk1::shared_ptr<websocketpp::connection<websocketpp::config::asio_client> > > >, void ()>::~__func()
PUBLIC d49a4 0 std::__ndk1::__function::__func<std::__ndk1::__bind<void (websocketpp::connection<websocketpp::config::asio_client>::*)(), std::__ndk1::shared_ptr<websocketpp::connection<websocketpp::config::asio_client> > >, std::__ndk1::allocator<std::__ndk1::__bind<void (websocketpp::connection<websocketpp::config::asio_client>::*)(), std::__ndk1::shared_ptr<websocketpp::connection<websocketpp::config::asio_client> > > >, void ()>::~__func()
PUBLIC d4a10 0 std::__ndk1::__function::__func<std::__ndk1::__bind<void (websocketpp::connection<websocketpp::config::asio_client>::*)(), std::__ndk1::shared_ptr<websocketpp::connection<websocketpp::config::asio_client> > >, std::__ndk1::allocator<std::__ndk1::__bind<void (websocketpp::connection<websocketpp::config::asio_client>::*)(), std::__ndk1::shared_ptr<websocketpp::connection<websocketpp::config::asio_client> > > >, void ()>::__clone() const
PUBLIC d4a68 0 std::__ndk1::__function::__func<std::__ndk1::__bind<void (websocketpp::connection<websocketpp::config::asio_client>::*)(), std::__ndk1::shared_ptr<websocketpp::connection<websocketpp::config::asio_client> > >, std::__ndk1::allocator<std::__ndk1::__bind<void (websocketpp::connection<websocketpp::config::asio_client>::*)(), std::__ndk1::shared_ptr<websocketpp::connection<websocketpp::config::asio_client> > > >, void ()>::__clone(std::__ndk1::__function::__base<void ()>*) const
PUBLIC d4aa8 0 std::__ndk1::__function::__func<std::__ndk1::__bind<void (websocketpp::connection<websocketpp::config::asio_client>::*)(), std::__ndk1::shared_ptr<websocketpp::connection<websocketpp::config::asio_client> > >, std::__ndk1::allocator<std::__ndk1::__bind<void (websocketpp::connection<websocketpp::config::asio_client>::*)(), std::__ndk1::shared_ptr<websocketpp::connection<websocketpp::config::asio_client> > > >, void ()>::destroy()
PUBLIC d4af8 0 std::__ndk1::__function::__func<std::__ndk1::__bind<void (websocketpp::connection<websocketpp::config::asio_client>::*)(), std::__ndk1::shared_ptr<websocketpp::connection<websocketpp::config::asio_client> > >, std::__ndk1::allocator<std::__ndk1::__bind<void (websocketpp::connection<websocketpp::config::asio_client>::*)(), std::__ndk1::shared_ptr<websocketpp::connection<websocketpp::config::asio_client> > > >, void ()>::destroy_deallocate()
PUBLIC d4b58 0 std::__ndk1::__function::__func<std::__ndk1::__bind<void (websocketpp::connection<websocketpp::config::asio_client>::*)(), std::__ndk1::shared_ptr<websocketpp::connection<websocketpp::config::asio_client> > >, std::__ndk1::allocator<std::__ndk1::__bind<void (websocketpp::connection<websocketpp::config::asio_client>::*)(), std::__ndk1::shared_ptr<websocketpp::connection<websocketpp::config::asio_client> > > >, void ()>::operator()()
PUBLIC d4b74 0 std::__ndk1::__function::__func<std::__ndk1::__bind<void (websocketpp::connection<websocketpp::config::asio_client>::*)(), std::__ndk1::shared_ptr<websocketpp::connection<websocketpp::config::asio_client> > >, std::__ndk1::allocator<std::__ndk1::__bind<void (websocketpp::connection<websocketpp::config::asio_client>::*)(), std::__ndk1::shared_ptr<websocketpp::connection<websocketpp::config::asio_client> > > >, void ()>::target(std::type_info const&) const
PUBLIC d4b90 0 std::__ndk1::__function::__func<std::__ndk1::__bind<void (websocketpp::connection<websocketpp::config::asio_client>::*)(), std::__ndk1::shared_ptr<websocketpp::connection<websocketpp::config::asio_client> > >, std::__ndk1::allocator<std::__ndk1::__bind<void (websocketpp::connection<websocketpp::config::asio_client>::*)(), std::__ndk1::shared_ptr<websocketpp::connection<websocketpp::config::asio_client> > > >, void ()>::target_type() const
PUBLIC d4b9c 0 websocketpp::processor::error::processor_category::~processor_category()
PUBLIC d4bc0 0 websocketpp::processor::error::processor_category::name() const
PUBLIC d4bcc 0 websocketpp::processor::error::processor_category::message(int) const
PUBLIC d51e0 0 websocketpp::connection<websocketpp::config::asio_client>::pong(std::__ndk1::basic_string<char, std::__ndk1::char_traits<char>, std::__ndk1::allocator<char> > const&, std::__ndk1::error_code&)
PUBLIC d580c 0 websocketpp::close::extract_code(std::__ndk1::basic_string<char, std::__ndk1::char_traits<char>, std::__ndk1::allocator<char> > const&, std::__ndk1::error_code&)
PUBLIC d5a6c 0 websocketpp::close::extract_reason(std::__ndk1::basic_string<char, std::__ndk1::char_traits<char>, std::__ndk1::allocator<char> > const&, std::__ndk1::error_code&)
PUBLIC d5bfc 0 websocketpp::transport::asio::connection<websocketpp::config::asio_client::transport_config>::async_read_at_least(unsigned long, char*, unsigned long, std::__ndk1::function<void (std::__ndk1::error_code const&, unsigned long)>)
PUBLIC d617c 0 websocketpp::transport::asio::make_custom_alloc_handler<std::__ndk1::__bind<void (websocketpp::transport::asio::connection<websocketpp::config::asio_client::transport_config>::*)(std::__ndk1::function<void (std::__ndk1::error_code const&, unsigned long)>, std::__ndk1::error_code const&, unsigned long), std::__ndk1::shared_ptr<websocketpp::transport::asio::connection<websocketpp::config::asio_client::transport_config> >, std::__ndk1::function<void (std::__ndk1::error_code const&, unsigned long)>&, std::__ndk1::placeholders::__ph<1> const&, std::__ndk1::placeholders::__ph<2> const&> >(websocketpp::transport::asio::handler_allocator&, std::__ndk1::__bind<void (websocketpp::transport::asio::connection<websocketpp::config::asio_client::transport_config>::*)(std::__ndk1::function<void (std::__ndk1::error_code const&, unsigned long)>, std::__ndk1::error_code const&, unsigned long), std::__ndk1::shared_ptr<websocketpp::transport::asio::connection<websocketpp::config::asio_client::transport_config> >, std::__ndk1::function<void (std::__ndk1::error_code const&, unsigned long)>&, std::__ndk1::placeholders::__ph<1> const&, std::__ndk1::placeholders::__ph<2> const&>)
PUBLIC d63b0 0 websocketpp::transport::asio::connection<websocketpp::config::asio_client::transport_config>::handle_async_read(std::__ndk1::function<void (std::__ndk1::error_code const&, unsigned long)>, std::__ndk1::error_code const&, unsigned long)
PUBLIC d669c 0 asio::detail::wrapped_handler<asio::io_context::strand, websocketpp::transport::asio::custom_alloc_handler<std::__ndk1::__bind<void (websocketpp::transport::asio::connection<websocketpp::config::asio_client::transport_config>::*)(std::__ndk1::function<void (std::__ndk1::error_code const&, unsigned long)>, std::__ndk1::error_code const&, unsigned long), std::__ndk1::shared_ptr<websocketpp::transport::asio::connection<websocketpp::config::asio_client::transport_config> >, std::__ndk1::function<void (std::__ndk1::error_code const&, unsigned long)>&, std::__ndk1::placeholders::__ph<1> const&, std::__ndk1::placeholders::__ph<2> const&> >, asio::detail::is_continuation_if_running>::~wrapped_handler()
PUBLIC d6724 0 websocketpp::transport::asio::custom_alloc_handler<std::__ndk1::__bind<void (websocketpp::transport::asio::connection<websocketpp::config::asio_client::transport_config>::*)(std::__ndk1::function<void (std::__ndk1::error_code const&, unsigned long)>, std::__ndk1::error_code const&, unsigned long), std::__ndk1::shared_ptr<websocketpp::transport::asio::connection<websocketpp::config::asio_client::transport_config> >, std::__ndk1::function<void (std::__ndk1::error_code const&, unsigned long)>&, std::__ndk1::placeholders::__ph<1> const&, std::__ndk1::placeholders::__ph<2> const&> >::~custom_alloc_handler()
PUBLIC d67ac 0 std::__ndk1::__bind<void (websocketpp::transport::asio::connection<websocketpp::config::asio_client::transport_config>::*)(std::__ndk1::function<void (std::__ndk1::error_code const&, unsigned long)>, std::__ndk1::error_code const&, unsigned long), std::__ndk1::shared_ptr<websocketpp::transport::asio::connection<websocketpp::config::asio_client::transport_config> >, std::__ndk1::function<void (std::__ndk1::error_code const&, unsigned long)>&, std::__ndk1::placeholders::__ph<1> const&, std::__ndk1::placeholders::__ph<2> const&>::~__bind()
PUBLIC d6834 0 asio::detail::start_read_buffer_sequence_op<asio::basic_stream_socket<asio::ip::tcp>, asio::mutable_buffers_1, asio::mutable_buffer const*, asio::detail::transfer_at_least_t, asio::detail::wrapped_handler<asio::io_context::strand, websocketpp::transport::asio::custom_alloc_handler<std::__ndk1::__bind<void (websocketpp::transport::asio::connection<websocketpp::config::asio_client::transport_config>::*)(std::__ndk1::function<void (std::__ndk1::error_code const&, unsigned long)>, std::__ndk1::error_code const&, unsigned long), std::__ndk1::shared_ptr<websocketpp::transport::asio::connection<websocketpp::config::asio_client::transport_config> >, std::__ndk1::function<void (std::__ndk1::error_code const&, unsigned long)>&, std::__ndk1::placeholders::__ph<1> const&, std::__ndk1::placeholders::__ph<2> const&> >, asio::detail::is_continuation_if_running> >(asio::basic_stream_socket<asio::ip::tcp>&, asio::mutable_buffers_1 const&, asio::mutable_buffer const* const&, asio::detail::transfer_at_least_t, asio::detail::wrapped_handler<asio::io_context::strand, websocketpp::transport::asio::custom_alloc_handler<std::__ndk1::__bind<void (websocketpp::transport::asio::connection<websocketpp::config::asio_client::transport_config>::*)(std::__ndk1::function<void (std::__ndk1::error_code const&, unsigned long)>, std::__ndk1::error_code const&, unsigned long), std::__ndk1::shared_ptr<websocketpp::transport::asio::connection<websocketpp::config::asio_client::transport_config> >, std::__ndk1::function<void (std::__ndk1::error_code const&, unsigned long)>&, std::__ndk1::placeholders::__ph<1> const&, std::__ndk1::placeholders::__ph<2> const&> >, asio::detail::is_continuation_if_running>&)
PUBLIC d69d0 0 asio::detail::read_op<asio::basic_stream_socket<asio::ip::tcp>, asio::mutable_buffers_1, asio::mutable_buffer const*, asio::detail::transfer_at_least_t, asio::detail::wrapped_handler<asio::io_context::strand, websocketpp::transport::asio::custom_alloc_handler<std::__ndk1::__bind<void (websocketpp::transport::asio::connection<websocketpp::config::asio_client::transport_config>::*)(std::__ndk1::function<void (std::__ndk1::error_code const&, unsigned long)>, std::__ndk1::error_code const&, unsigned long), std::__ndk1::shared_ptr<websocketpp::transport::asio::connection<websocketpp::config::asio_client::transport_config> >, std::__ndk1::function<void (std::__ndk1::error_code const&, unsigned long)>&, std::__ndk1::placeholders::__ph<1> const&, std::__ndk1::placeholders::__ph<2> const&> >, asio::detail::is_continuation_if_running> >::~read_op()
PUBLIC d6a58 0 asio::detail::wrapped_handler<asio::io_context::strand, websocketpp::transport::asio::custom_alloc_handler<std::__ndk1::__bind<void (websocketpp::transport::asio::connection<websocketpp::config::asio_client::transport_config>::*)(std::__ndk1::function<void (std::__ndk1::error_code const&, unsigned long)>, std::__ndk1::error_code const&, unsigned long), std::__ndk1::shared_ptr<websocketpp::transport::asio::connection<websocketpp::config::asio_client::transport_config> >, std::__ndk1::function<void (std::__ndk1::error_code const&, unsigned long)>&, std::__ndk1::placeholders::__ph<1> const&, std::__ndk1::placeholders::__ph<2> const&> >, asio::detail::is_continuation_if_running>::operator()<std::__ndk1::error_code, unsigned long>(std::__ndk1::error_code const&, unsigned long const&)
PUBLIC d6c00 0 asio::detail::reactive_socket_service_base::async_receive<asio::mutable_buffers_1, asio::detail::read_op<asio::basic_stream_socket<asio::ip::tcp>, asio::mutable_buffers_1, asio::mutable_buffer const*, asio::detail::transfer_at_least_t, asio::detail::wrapped_handler<asio::io_context::strand, websocketpp::transport::asio::custom_alloc_handler<std::__ndk1::__bind<void (websocketpp::transport::asio::connection<websocketpp::config::asio_client::transport_config>::*)(std::__ndk1::function<void (std::__ndk1::error_code const&, unsigned long)>, std::__ndk1::error_code const&, unsigned long), std::__ndk1::shared_ptr<websocketpp::transport::asio::connection<websocketpp::config::asio_client::transport_config> >, std::__ndk1::function<void (std::__ndk1::error_code const&, unsigned long)>&, std::__ndk1::placeholders::__ph<1> const&, std::__ndk1::placeholders::__ph<2> const&> >, asio::detail::is_continuation_if_running> > >(asio::detail::reactive_socket_service_base::base_implementation_type&, asio::mutable_buffers_1 const&, int, asio::detail::read_op<asio::basic_stream_socket<asio::ip::tcp>, asio::mutable_buffers_1, asio::mutable_buffer const*, asio::detail::transfer_at_least_t, asio::detail::wrapped_handler<asio::io_context::strand, websocketpp::transport::asio::custom_alloc_handler<std::__ndk1::__bind<void (websocketpp::transport::asio::connection<websocketpp::config::asio_client::transport_config>::*)(std::__ndk1::function<void (std::__ndk1::error_code const&, unsigned long)>, std::__ndk1::error_code const&, unsigned long), std::__ndk1::shared_ptr<websocketpp::transport::asio::connection<websocketpp::config::asio_client::transport_config> >, std::__ndk1::function<void (std::__ndk1::error_code const&, unsigned long)>&, std::__ndk1::placeholders::__ph<1> const&, std::__ndk1::placeholders::__ph<2> const&> >, asio::detail::is_continuation_if_running> >&)
PUBLIC d6e9c 0 asio::detail::reactive_socket_recv_op<asio::mutable_buffers_1, asio::detail::read_op<asio::basic_stream_socket<asio::ip::tcp>, asio::mutable_buffers_1, asio::mutable_buffer const*, asio::detail::transfer_at_least_t, asio::detail::wrapped_handler<asio::io_context::strand, websocketpp::transport::asio::custom_alloc_handler<std::__ndk1::__bind<void (websocketpp::transport::asio::connection<websocketpp::config::asio_client::transport_config>::*)(std::__ndk1::function<void (std::__ndk1::error_code const&, unsigned long)>, std::__ndk1::error_code const&, unsigned long), std::__ndk1::shared_ptr<websocketpp::transport::asio::connection<websocketpp::config::asio_client::transport_config> >, std::__ndk1::function<void (std::__ndk1::error_code const&, unsigned long)>&, std::__ndk1::placeholders::__ph<1> const&, std::__ndk1::placeholders::__ph<2> const&> >, asio::detail::is_continuation_if_running> > >::ptr::~ptr()
PUBLIC d6f58 0 asio::detail::reactive_socket_recv_op<asio::mutable_buffers_1, asio::detail::read_op<asio::basic_stream_socket<asio::ip::tcp>, asio::mutable_buffers_1, asio::mutable_buffer const*, asio::detail::transfer_at_least_t, asio::detail::wrapped_handler<asio::io_context::strand, websocketpp::transport::asio::custom_alloc_handler<std::__ndk1::__bind<void (websocketpp::transport::asio::connection<websocketpp::config::asio_client::transport_config>::*)(std::__ndk1::function<void (std::__ndk1::error_code const&, unsigned long)>, std::__ndk1::error_code const&, unsigned long), std::__ndk1::shared_ptr<websocketpp::transport::asio::connection<websocketpp::config::asio_client::transport_config> >, std::__ndk1::function<void (std::__ndk1::error_code const&, unsigned long)>&, std::__ndk1::placeholders::__ph<1> const&, std::__ndk1::placeholders::__ph<2> const&> >, asio::detail::is_continuation_if_running> > >::do_complete(void*, asio::detail::scheduler_operation*, std::__ndk1::error_code const&, unsigned long)
PUBLIC d7240 0 asio::detail::binder2<asio::detail::read_op<asio::basic_stream_socket<asio::ip::tcp>, asio::mutable_buffers_1, asio::mutable_buffer const*, asio::detail::transfer_at_least_t, asio::detail::wrapped_handler<asio::io_context::strand, websocketpp::transport::asio::custom_alloc_handler<std::__ndk1::__bind<void (websocketpp::transport::asio::connection<websocketpp::config::asio_client::transport_config>::*)(std::__ndk1::function<void (std::__ndk1::error_code const&, unsigned long)>, std::__ndk1::error_code const&, unsigned long), std::__ndk1::shared_ptr<websocketpp::transport::asio::connection<websocketpp::config::asio_client::transport_config> >, std::__ndk1::function<void (std::__ndk1::error_code const&, unsigned long)>&, std::__ndk1::placeholders::__ph<1> const&, std::__ndk1::placeholders::__ph<2> const&> >, asio::detail::is_continuation_if_running> >, std::__ndk1::error_code, unsigned long>::~binder2()
PUBLIC d72c8 0 asio::detail::asio_handler_invoke<asio::detail::binder2<asio::detail::read_op<asio::basic_stream_socket<asio::ip::tcp>, asio::mutable_buffers_1, asio::mutable_buffer const*, asio::detail::transfer_at_least_t, asio::detail::wrapped_handler<asio::io_context::strand, websocketpp::transport::asio::custom_alloc_handler<std::__ndk1::__bind<void (websocketpp::transport::asio::connection<websocketpp::config::asio_client::transport_config>::*)(std::__ndk1::function<void (std::__ndk1::error_code const&, unsigned long)>, std::__ndk1::error_code const&, unsigned long), std::__ndk1::shared_ptr<websocketpp::transport::asio::connection<websocketpp::config::asio_client::transport_config> >, std::__ndk1::function<void (std::__ndk1::error_code const&, unsigned long)>&, std::__ndk1::placeholders::__ph<1> const&, std::__ndk1::placeholders::__ph<2> const&> >, asio::detail::is_continuation_if_running> >, std::__ndk1::error_code, unsigned long>, asio::io_context::strand, websocketpp::transport::asio::custom_alloc_handler<std::__ndk1::__bind<void (websocketpp::transport::asio::connection<websocketpp::config::asio_client::transport_config>::*)(std::__ndk1::function<void (std::__ndk1::error_code const&, unsigned long)>, std::__ndk1::error_code const&, unsigned long), std::__ndk1::shared_ptr<websocketpp::transport::asio::connection<websocketpp::config::asio_client::transport_config> >, std::__ndk1::function<void (std::__ndk1::error_code const&, unsigned long)>&, std::__ndk1::placeholders::__ph<1> const&, std::__ndk1::placeholders::__ph<2> const&> >, asio::detail::is_continuation_if_running>(asio::detail::binder2<asio::detail::read_op<asio::basic_stream_socket<asio::ip::tcp>, asio::mutable_buffers_1, asio::mutable_buffer const*, asio::detail::transfer_at_least_t, asio::detail::wrapped_handler<asio::io_context::strand, websocketpp::transport::asio::custom_alloc_handler<std::__ndk1::__bind<void (websocketpp::transport::asio::connection<websocketpp::config::asio_client::transport_config>::*)(std::__ndk1::function<void (std::__ndk1::error_code const&, unsigned long)>, std::__ndk1::error_code const&, unsigned long), std::__ndk1::shared_ptr<websocketpp::transport::asio::connection<websocketpp::config::asio_client::transport_config> >, std::__ndk1::function<void (std::__ndk1::error_code const&, unsigned long)>&, std::__ndk1::placeholders::__ph<1> const&, std::__ndk1::placeholders::__ph<2> const&> >, asio::detail::is_continuation_if_running> >, std::__ndk1::error_code, unsigned long>&, asio::detail::wrapped_handler<asio::io_context::strand, websocketpp::transport::asio::custom_alloc_handler<std::__ndk1::__bind<void (websocketpp::transport::asio::connection<websocketpp::config::asio_client::transport_config>::*)(std::__ndk1::function<void (std::__ndk1::error_code const&, unsigned long)>, std::__ndk1::error_code const&, unsigned long), std::__ndk1::shared_ptr<websocketpp::transport::asio::connection<websocketpp::config::asio_client::transport_config> >, std::__ndk1::function<void (std::__ndk1::error_code const&, unsigned long)>&, std::__ndk1::placeholders::__ph<1> const&, std::__ndk1::placeholders::__ph<2> const&> >, asio::detail::is_continuation_if_running>*)
PUBLIC d743c 0 asio::detail::rewrapped_handler<asio::detail::binder2<asio::detail::read_op<asio::basic_stream_socket<asio::ip::tcp>, asio::mutable_buffers_1, asio::mutable_buffer const*, asio::detail::transfer_at_least_t, asio::detail::wrapped_handler<asio::io_context::strand, websocketpp::transport::asio::custom_alloc_handler<std::__ndk1::__bind<void (websocketpp::transport::asio::connection<websocketpp::config::asio_client::transport_config>::*)(std::__ndk1::function<void (std::__ndk1::error_code const&, unsigned long)>, std::__ndk1::error_code const&, unsigned long), std::__ndk1::shared_ptr<websocketpp::transport::asio::connection<websocketpp::config::asio_client::transport_config> >, std::__ndk1::function<void (std::__ndk1::error_code const&, unsigned long)>&, std::__ndk1::placeholders::__ph<1> const&, std::__ndk1::placeholders::__ph<2> const&> >, asio::detail::is_continuation_if_running> >, std::__ndk1::error_code, unsigned long>, websocketpp::transport::asio::custom_alloc_handler<std::__ndk1::__bind<void (websocketpp::transport::asio::connection<websocketpp::config::asio_client::transport_config>::*)(std::__ndk1::function<void (std::__ndk1::error_code const&, unsigned long)>, std::__ndk1::error_code const&, unsigned long), std::__ndk1::shared_ptr<websocketpp::transport::asio::connection<websocketpp::config::asio_client::transport_config> >, std::__ndk1::function<void (std::__ndk1::error_code const&, unsigned long)>&, std::__ndk1::placeholders::__ph<1> const&, std::__ndk1::placeholders::__ph<2> const&> > >::rewrapped_handler(asio::detail::binder2<asio::detail::read_op<asio::basic_stream_socket<asio::ip::tcp>, asio::mutable_buffers_1, asio::mutable_buffer const*, asio::detail::transfer_at_least_t, asio::detail::wrapped_handler<asio::io_context::strand, websocketpp::transport::asio::custom_alloc_handler<std::__ndk1::__bind<void (websocketpp::transport::asio::connection<websocketpp::config::asio_client::transport_config>::*)(std::__ndk1::function<void (std::__ndk1::error_code const&, unsigned long)>, std::__ndk1::error_code const&, unsigned long), std::__ndk1::shared_ptr<websocketpp::transport::asio::connection<websocketpp::config::asio_client::transport_config> >, std::__ndk1::function<void (std::__ndk1::error_code const&, unsigned long)>&, std::__ndk1::placeholders::__ph<1> const&, std::__ndk1::placeholders::__ph<2> const&> >, asio::detail::is_continuation_if_running> >, std::__ndk1::error_code, unsigned long>&, websocketpp::transport::asio::custom_alloc_handler<std::__ndk1::__bind<void (websocketpp::transport::asio::connection<websocketpp::config::asio_client::transport_config>::*)(std::__ndk1::function<void (std::__ndk1::error_code const&, unsigned long)>, std::__ndk1::error_code const&, unsigned long), std::__ndk1::shared_ptr<websocketpp::transport::asio::connection<websocketpp::config::asio_client::transport_config> >, std::__ndk1::function<void (std::__ndk1::error_code const&, unsigned long)>&, std::__ndk1::placeholders::__ph<1> const&, std::__ndk1::placeholders::__ph<2> const&> > const&)
PUBLIC d75ac 0 asio::detail::rewrapped_handler<asio::detail::binder2<asio::detail::read_op<asio::basic_stream_socket<asio::ip::tcp>, asio::mutable_buffers_1, asio::mutable_buffer const*, asio::detail::transfer_at_least_t, asio::detail::wrapped_handler<asio::io_context::strand, websocketpp::transport::asio::custom_alloc_handler<std::__ndk1::__bind<void (websocketpp::transport::asio::connection<websocketpp::config::asio_client::transport_config>::*)(std::__ndk1::function<void (std::__ndk1::error_code const&, unsigned long)>, std::__ndk1::error_code const&, unsigned long), std::__ndk1::shared_ptr<websocketpp::transport::asio::connection<websocketpp::config::asio_client::transport_config> >, std::__ndk1::function<void (std::__ndk1::error_code const&, unsigned long)>&, std::__ndk1::placeholders::__ph<1> const&, std::__ndk1::placeholders::__ph<2> const&> >, asio::detail::is_continuation_if_running> >, std::__ndk1::error_code, unsigned long>, websocketpp::transport::asio::custom_alloc_handler<std::__ndk1::__bind<void (websocketpp::transport::asio::connection<websocketpp::config::asio_client::transport_config>::*)(std::__ndk1::function<void (std::__ndk1::error_code const&, unsigned long)>, std::__ndk1::error_code const&, unsigned long), std::__ndk1::shared_ptr<websocketpp::transport::asio::connection<websocketpp::config::asio_client::transport_config> >, std::__ndk1::function<void (std::__ndk1::error_code const&, unsigned long)>&, std::__ndk1::placeholders::__ph<1> const&, std::__ndk1::placeholders::__ph<2> const&> > >::~rewrapped_handler()
PUBLIC d76a8 0 asio::detail::strand_service::dispatch<asio::detail::rewrapped_handler<asio::detail::binder2<asio::detail::read_op<asio::basic_stream_socket<asio::ip::tcp>, asio::mutable_buffers_1, asio::mutable_buffer const*, asio::detail::transfer_at_least_t, asio::detail::wrapped_handler<asio::io_context::strand, websocketpp::transport::asio::custom_alloc_handler<std::__ndk1::__bind<void (websocketpp::transport::asio::connection<websocketpp::config::asio_client::transport_config>::*)(std::__ndk1::function<void (std::__ndk1::error_code const&, unsigned long)>, std::__ndk1::error_code const&, unsigned long), std::__ndk1::shared_ptr<websocketpp::transport::asio::connection<websocketpp::config::asio_client::transport_config> >, std::__ndk1::function<void (std::__ndk1::error_code const&, unsigned long)>&, std::__ndk1::placeholders::__ph<1> const&, std::__ndk1::placeholders::__ph<2> const&> >, asio::detail::is_continuation_if_running> >, std::__ndk1::error_code, unsigned long>, websocketpp::transport::asio::custom_alloc_handler<std::__ndk1::__bind<void (websocketpp::transport::asio::connection<websocketpp::config::asio_client::transport_config>::*)(std::__ndk1::function<void (std::__ndk1::error_code const&, unsigned long)>, std::__ndk1::error_code const&, unsigned long), std::__ndk1::shared_ptr<websocketpp::transport::asio::connection<websocketpp::config::asio_client::transport_config> >, std::__ndk1::function<void (std::__ndk1::error_code const&, unsigned long)>&, std::__ndk1::placeholders::__ph<1> const&, std::__ndk1::placeholders::__ph<2> const&> > > >(asio::detail::strand_service::strand_impl*&, asio::detail::rewrapped_handler<asio::detail::binder2<asio::detail::read_op<asio::basic_stream_socket<asio::ip::tcp>, asio::mutable_buffers_1, asio::mutable_buffer const*, asio::detail::transfer_at_least_t, asio::detail::wrapped_handler<asio::io_context::strand, websocketpp::transport::asio::custom_alloc_handler<std::__ndk1::__bind<void (websocketpp::transport::asio::connection<websocketpp::config::asio_client::transport_config>::*)(std::__ndk1::function<void (std::__ndk1::error_code const&, unsigned long)>, std::__ndk1::error_code const&, unsigned long), std::__ndk1::shared_ptr<websocketpp::transport::asio::connection<websocketpp::config::asio_client::transport_config> >, std::__ndk1::function<void (std::__ndk1::error_code const&, unsigned long)>&, std::__ndk1::placeholders::__ph<1> const&, std::__ndk1::placeholders::__ph<2> const&> >, asio::detail::is_continuation_if_running> >, std::__ndk1::error_code, unsigned long>, websocketpp::transport::asio::custom_alloc_handler<std::__ndk1::__bind<void (websocketpp::transport::asio::connection<websocketpp::config::asio_client::transport_config>::*)(std::__ndk1::function<void (std::__ndk1::error_code const&, unsigned long)>, std::__ndk1::error_code const&, unsigned long), std::__ndk1::shared_ptr<websocketpp::transport::asio::connection<websocketpp::config::asio_client::transport_config> >, std::__ndk1::function<void (std::__ndk1::error_code const&, unsigned long)>&, std::__ndk1::placeholders::__ph<1> const&, std::__ndk1::placeholders::__ph<2> const&> > >&)
PUBLIC d7980 0 asio::detail::completion_handler<asio::detail::rewrapped_handler<asio::detail::binder2<asio::detail::read_op<asio::basic_stream_socket<asio::ip::tcp>, asio::mutable_buffers_1, asio::mutable_buffer const*, asio::detail::transfer_at_least_t, asio::detail::wrapped_handler<asio::io_context::strand, websocketpp::transport::asio::custom_alloc_handler<std::__ndk1::__bind<void (websocketpp::transport::asio::connection<websocketpp::config::asio_client::transport_config>::*)(std::__ndk1::function<void (std::__ndk1::error_code const&, unsigned long)>, std::__ndk1::error_code const&, unsigned long), std::__ndk1::shared_ptr<websocketpp::transport::asio::connection<websocketpp::config::asio_client::transport_config> >, std::__ndk1::function<void (std::__ndk1::error_code const&, unsigned long)>&, std::__ndk1::placeholders::__ph<1> const&, std::__ndk1::placeholders::__ph<2> const&> >, asio::detail::is_continuation_if_running> >, std::__ndk1::error_code, unsigned long>, websocketpp::transport::asio::custom_alloc_handler<std::__ndk1::__bind<void (websocketpp::transport::asio::connection<websocketpp::config::asio_client::transport_config>::*)(std::__ndk1::function<void (std::__ndk1::error_code const&, unsigned long)>, std::__ndk1::error_code const&, unsigned long), std::__ndk1::shared_ptr<websocketpp::transport::asio::connection<websocketpp::config::asio_client::transport_config> >, std::__ndk1::function<void (std::__ndk1::error_code const&, unsigned long)>&, std::__ndk1::placeholders::__ph<1> const&, std::__ndk1::placeholders::__ph<2> const&> > > >::do_complete(void*, asio::detail::scheduler_operation*, std::__ndk1::error_code const&, unsigned long)
PUBLIC d7bc8 0 asio::detail::rewrapped_handler<asio::detail::binder2<asio::detail::read_op<asio::basic_stream_socket<asio::ip::tcp>, asio::mutable_buffers_1, asio::mutable_buffer const*, asio::detail::transfer_at_least_t, asio::detail::wrapped_handler<asio::io_context::strand, websocketpp::transport::asio::custom_alloc_handler<std::__ndk1::__bind<void (websocketpp::transport::asio::connection<websocketpp::config::asio_client::transport_config>::*)(std::__ndk1::function<void (std::__ndk1::error_code const&, unsigned long)>, std::__ndk1::error_code const&, unsigned long), std::__ndk1::shared_ptr<websocketpp::transport::asio::connection<websocketpp::config::asio_client::transport_config> >, std::__ndk1::function<void (std::__ndk1::error_code const&, unsigned long)>&, std::__ndk1::placeholders::__ph<1> const&, std::__ndk1::placeholders::__ph<2> const&> >, asio::detail::is_continuation_if_running> >, std::__ndk1::error_code, unsigned long>, websocketpp::transport::asio::custom_alloc_handler<std::__ndk1::__bind<void (websocketpp::transport::asio::connection<websocketpp::config::asio_client::transport_config>::*)(std::__ndk1::function<void (std::__ndk1::error_code const&, unsigned long)>, std::__ndk1::error_code const&, unsigned long), std::__ndk1::shared_ptr<websocketpp::transport::asio::connection<websocketpp::config::asio_client::transport_config> >, std::__ndk1::function<void (std::__ndk1::error_code const&, unsigned long)>&, std::__ndk1::placeholders::__ph<1> const&, std::__ndk1::placeholders::__ph<2> const&> > >::rewrapped_handler(asio::detail::rewrapped_handler<asio::detail::binder2<asio::detail::read_op<asio::basic_stream_socket<asio::ip::tcp>, asio::mutable_buffers_1, asio::mutable_buffer const*, asio::detail::transfer_at_least_t, asio::detail::wrapped_handler<asio::io_context::strand, websocketpp::transport::asio::custom_alloc_handler<std::__ndk1::__bind<void (websocketpp::transport::asio::connection<websocketpp::config::asio_client::transport_config>::*)(std::__ndk1::function<void (std::__ndk1::error_code const&, unsigned long)>, std::__ndk1::error_code const&, unsigned long), std::__ndk1::shared_ptr<websocketpp::transport::asio::connection<websocketpp::config::asio_client::transport_config> >, std::__ndk1::function<void (std::__ndk1::error_code const&, unsigned long)>&, std::__ndk1::placeholders::__ph<1> const&, std::__ndk1::placeholders::__ph<2> const&> >, asio::detail::is_continuation_if_running> >, std::__ndk1::error_code, unsigned long>, websocketpp::transport::asio::custom_alloc_handler<std::__ndk1::__bind<void (websocketpp::transport::asio::connection<websocketpp::config::asio_client::transport_config>::*)(std::__ndk1::function<void (std::__ndk1::error_code const&, unsigned long)>, std::__ndk1::error_code const&, unsigned long), std::__ndk1::shared_ptr<websocketpp::transport::asio::connection<websocketpp::config::asio_client::transport_config> >, std::__ndk1::function<void (std::__ndk1::error_code const&, unsigned long)>&, std::__ndk1::placeholders::__ph<1> const&, std::__ndk1::placeholders::__ph<2> const&> > >&&)
PUBLIC d7cf0 0 asio::detail::completion_handler<asio::detail::rewrapped_handler<asio::detail::binder2<asio::detail::read_op<asio::basic_stream_socket<asio::ip::tcp>, asio::mutable_buffers_1, asio::mutable_buffer const*, asio::detail::transfer_at_least_t, asio::detail::wrapped_handler<asio::io_context::strand, websocketpp::transport::asio::custom_alloc_handler<std::__ndk1::__bind<void (websocketpp::transport::asio::connection<websocketpp::config::asio_client::transport_config>::*)(std::__ndk1::function<void (std::__ndk1::error_code const&, unsigned long)>, std::__ndk1::error_code const&, unsigned long), std::__ndk1::shared_ptr<websocketpp::transport::asio::connection<websocketpp::config::asio_client::transport_config> >, std::__ndk1::function<void (std::__ndk1::error_code const&, unsigned long)>&, std::__ndk1::placeholders::__ph<1> const&, std::__ndk1::placeholders::__ph<2> const&> >, asio::detail::is_continuation_if_running> >, std::__ndk1::error_code, unsigned long>, websocketpp::transport::asio::custom_alloc_handler<std::__ndk1::__bind<void (websocketpp::transport::asio::connection<websocketpp::config::asio_client::transport_config>::*)(std::__ndk1::function<void (std::__ndk1::error_code const&, unsigned long)>, std::__ndk1::error_code const&, unsigned long), std::__ndk1::shared_ptr<websocketpp::transport::asio::connection<websocketpp::config::asio_client::transport_config> >, std::__ndk1::function<void (std::__ndk1::error_code const&, unsigned long)>&, std::__ndk1::placeholders::__ph<1> const&, std::__ndk1::placeholders::__ph<2> const&> > > >::ptr::reset()
PUBLIC m d7e20 0 asio::detail::reactive_socket_recv_op_base<asio::mutable_buffers_1>::do_perform(asio::detail::reactor_op*)
PUBLIC m d7ef4 0 asio::detail::socket_ops::non_blocking_recv(int, iovec*, unsigned long, int, bool, std::__ndk1::error_code&, unsigned long&)
PUBLIC d81d8 0 asio::detail::binder2<websocketpp::transport::asio::custom_alloc_handler<std::__ndk1::__bind<void (websocketpp::transport::asio::connection<websocketpp::config::asio_client::transport_config>::*)(std::__ndk1::function<void (std::__ndk1::error_code const&, unsigned long)>, std::__ndk1::error_code const&, unsigned long), std::__ndk1::shared_ptr<websocketpp::transport::asio::connection<websocketpp::config::asio_client::transport_config> >, std::__ndk1::function<void (std::__ndk1::error_code const&, unsigned long)>&, std::__ndk1::placeholders::__ph<1> const&, std::__ndk1::placeholders::__ph<2> const&> >, std::__ndk1::error_code, unsigned long>::~binder2()
PUBLIC d8260 0 asio::detail::strand_service::dispatch<asio::detail::binder2<websocketpp::transport::asio::custom_alloc_handler<std::__ndk1::__bind<void (websocketpp::transport::asio::connection<websocketpp::config::asio_client::transport_config>::*)(std::__ndk1::function<void (std::__ndk1::error_code const&, unsigned long)>, std::__ndk1::error_code const&, unsigned long), std::__ndk1::shared_ptr<websocketpp::transport::asio::connection<websocketpp::config::asio_client::transport_config> >, std::__ndk1::function<void (std::__ndk1::error_code const&, unsigned long)>&, std::__ndk1::placeholders::__ph<1> const&, std::__ndk1::placeholders::__ph<2> const&> >, std::__ndk1::error_code, unsigned long> >(asio::detail::strand_service::strand_impl*&, asio::detail::binder2<websocketpp::transport::asio::custom_alloc_handler<std::__ndk1::__bind<void (websocketpp::transport::asio::connection<websocketpp::config::asio_client::transport_config>::*)(std::__ndk1::function<void (std::__ndk1::error_code const&, unsigned long)>, std::__ndk1::error_code const&, unsigned long), std::__ndk1::shared_ptr<websocketpp::transport::asio::connection<websocketpp::config::asio_client::transport_config> >, std::__ndk1::function<void (std::__ndk1::error_code const&, unsigned long)>&, std::__ndk1::placeholders::__ph<1> const&, std::__ndk1::placeholders::__ph<2> const&> >, std::__ndk1::error_code, unsigned long>&)
PUBLIC d85a8 0 asio::detail::completion_handler<asio::detail::binder2<websocketpp::transport::asio::custom_alloc_handler<std::__ndk1::__bind<void (websocketpp::transport::asio::connection<websocketpp::config::asio_client::transport_config>::*)(std::__ndk1::function<void (std::__ndk1::error_code const&, unsigned long)>, std::__ndk1::error_code const&, unsigned long), std::__ndk1::shared_ptr<websocketpp::transport::asio::connection<websocketpp::config::asio_client::transport_config> >, std::__ndk1::function<void (std::__ndk1::error_code const&, unsigned long)>&, std::__ndk1::placeholders::__ph<1> const&, std::__ndk1::placeholders::__ph<2> const&> >, std::__ndk1::error_code, unsigned long> >::do_complete(void*, asio::detail::scheduler_operation*, std::__ndk1::error_code const&, unsigned long)
PUBLIC d8844 0 asio::detail::completion_handler<asio::detail::binder2<websocketpp::transport::asio::custom_alloc_handler<std::__ndk1::__bind<void (websocketpp::transport::asio::connection<websocketpp::config::asio_client::transport_config>::*)(std::__ndk1::function<void (std::__ndk1::error_code const&, unsigned long)>, std::__ndk1::error_code const&, unsigned long), std::__ndk1::shared_ptr<websocketpp::transport::asio::connection<websocketpp::config::asio_client::transport_config> >, std::__ndk1::function<void (std::__ndk1::error_code const&, unsigned long)>&, std::__ndk1::placeholders::__ph<1> const&, std::__ndk1::placeholders::__ph<2> const&> >, std::__ndk1::error_code, unsigned long> >::ptr::~ptr()
PUBLIC d8900 0 asio::detail::binder2<websocketpp::transport::asio::custom_alloc_handler<std::__ndk1::__bind<void (websocketpp::transport::asio::connection<websocketpp::config::asio_client::transport_config>::*)(std::__ndk1::function<void (std::__ndk1::error_code const&, unsigned long)>, std::__ndk1::error_code const&, unsigned long), std::__ndk1::shared_ptr<websocketpp::transport::asio::connection<websocketpp::config::asio_client::transport_config> >, std::__ndk1::function<void (std::__ndk1::error_code const&, unsigned long)>&, std::__ndk1::placeholders::__ph<1> const&, std::__ndk1::placeholders::__ph<2> const&> >, std::__ndk1::error_code, unsigned long>::operator()()
PUBLIC d8a50 0 std::__ndk1::__function::__base<void (std::__ndk1::error_code const&, unsigned long)>::~__base()
PUBLIC d8a54 0 std::__ndk1::__function::__func<std::__ndk1::__bind<void (websocketpp::connection<websocketpp::config::asio_client>::*)(std::__ndk1::error_code const&, unsigned long), websocketpp::connection<websocketpp::config::asio_client>*, std::__ndk1::placeholders::__ph<1> const&, std::__ndk1::placeholders::__ph<2> const&>, std::__ndk1::allocator<std::__ndk1::__bind<void (websocketpp::connection<websocketpp::config::asio_client>::*)(std::__ndk1::error_code const&, unsigned long), websocketpp::connection<websocketpp::config::asio_client>*, std::__ndk1::placeholders::__ph<1> const&, std::__ndk1::placeholders::__ph<2> const&> >, void (std::__ndk1::error_code const&, unsigned long)>::~__func()
PUBLIC d8a58 0 std::__ndk1::__function::__func<std::__ndk1::__bind<void (websocketpp::connection<websocketpp::config::asio_client>::*)(std::__ndk1::error_code const&, unsigned long), websocketpp::connection<websocketpp::config::asio_client>*, std::__ndk1::placeholders::__ph<1> const&, std::__ndk1::placeholders::__ph<2> const&>, std::__ndk1::allocator<std::__ndk1::__bind<void (websocketpp::connection<websocketpp::config::asio_client>::*)(std::__ndk1::error_code const&, unsigned long), websocketpp::connection<websocketpp::config::asio_client>*, std::__ndk1::placeholders::__ph<1> const&, std::__ndk1::placeholders::__ph<2> const&> >, void (std::__ndk1::error_code const&, unsigned long)>::__clone() const
PUBLIC d8a98 0 std::__ndk1::__function::__func<std::__ndk1::__bind<void (websocketpp::connection<websocketpp::config::asio_client>::*)(std::__ndk1::error_code const&, unsigned long), websocketpp::connection<websocketpp::config::asio_client>*, std::__ndk1::placeholders::__ph<1> const&, std::__ndk1::placeholders::__ph<2> const&>, std::__ndk1::allocator<std::__ndk1::__bind<void (websocketpp::connection<websocketpp::config::asio_client>::*)(std::__ndk1::error_code const&, unsigned long), websocketpp::connection<websocketpp::config::asio_client>*, std::__ndk1::placeholders::__ph<1> const&, std::__ndk1::placeholders::__ph<2> const&> >, void (std::__ndk1::error_code const&, unsigned long)>::__clone(std::__ndk1::__function::__base<void (std::__ndk1::error_code const&, unsigned long)>*) const
PUBLIC d8ab8 0 std::__ndk1::__function::__func<std::__ndk1::__bind<void (websocketpp::connection<websocketpp::config::asio_client>::*)(std::__ndk1::error_code const&, unsigned long), websocketpp::connection<websocketpp::config::asio_client>*, std::__ndk1::placeholders::__ph<1> const&, std::__ndk1::placeholders::__ph<2> const&>, std::__ndk1::allocator<std::__ndk1::__bind<void (websocketpp::connection<websocketpp::config::asio_client>::*)(std::__ndk1::error_code const&, unsigned long), websocketpp::connection<websocketpp::config::asio_client>*, std::__ndk1::placeholders::__ph<1> const&, std::__ndk1::placeholders::__ph<2> const&> >, void (std::__ndk1::error_code const&, unsigned long)>::destroy()
PUBLIC d8abc 0 std::__ndk1::__function::__func<std::__ndk1::__bind<void (websocketpp::connection<websocketpp::config::asio_client>::*)(std::__ndk1::error_code const&, unsigned long), websocketpp::connection<websocketpp::config::asio_client>*, std::__ndk1::placeholders::__ph<1> const&, std::__ndk1::placeholders::__ph<2> const&>, std::__ndk1::allocator<std::__ndk1::__bind<void (websocketpp::connection<websocketpp::config::asio_client>::*)(std::__ndk1::error_code const&, unsigned long), websocketpp::connection<websocketpp::config::asio_client>*, std::__ndk1::placeholders::__ph<1> const&, std::__ndk1::placeholders::__ph<2> const&> >, void (std::__ndk1::error_code const&, unsigned long)>::destroy_deallocate()
PUBLIC d8ac0 0 std::__ndk1::__function::__func<std::__ndk1::__bind<void (websocketpp::connection<websocketpp::config::asio_client>::*)(std::__ndk1::error_code const&, unsigned long), websocketpp::connection<websocketpp::config::asio_client>*, std::__ndk1::placeholders::__ph<1> const&, std::__ndk1::placeholders::__ph<2> const&>, std::__ndk1::allocator<std::__ndk1::__bind<void (websocketpp::connection<websocketpp::config::asio_client>::*)(std::__ndk1::error_code const&, unsigned long), websocketpp::connection<websocketpp::config::asio_client>*, std::__ndk1::placeholders::__ph<1> const&, std::__ndk1::placeholders::__ph<2> const&> >, void (std::__ndk1::error_code const&, unsigned long)>::operator()(std::__ndk1::error_code const&, unsigned long&&)
PUBLIC d8ae0 0 std::__ndk1::__function::__func<std::__ndk1::__bind<void (websocketpp::connection<websocketpp::config::asio_client>::*)(std::__ndk1::error_code const&, unsigned long), websocketpp::connection<websocketpp::config::asio_client>*, std::__ndk1::placeholders::__ph<1> const&, std::__ndk1::placeholders::__ph<2> const&>, std::__ndk1::allocator<std::__ndk1::__bind<void (websocketpp::connection<websocketpp::config::asio_client>::*)(std::__ndk1::error_code const&, unsigned long), websocketpp::connection<websocketpp::config::asio_client>*, std::__ndk1::placeholders::__ph<1> const&, std::__ndk1::placeholders::__ph<2> const&> >, void (std::__ndk1::error_code const&, unsigned long)>::target(std::type_info const&) const
PUBLIC d8afc 0 std::__ndk1::__function::__func<std::__ndk1::__bind<void (websocketpp::connection<websocketpp::config::asio_client>::*)(std::__ndk1::error_code const&, unsigned long), websocketpp::connection<websocketpp::config::asio_client>*, std::__ndk1::placeholders::__ph<1> const&, std::__ndk1::placeholders::__ph<2> const&>, std::__ndk1::allocator<std::__ndk1::__bind<void (websocketpp::connection<websocketpp::config::asio_client>::*)(std::__ndk1::error_code const&, unsigned long), websocketpp::connection<websocketpp::config::asio_client>*, std::__ndk1::placeholders::__ph<1> const&, std::__ndk1::placeholders::__ph<2> const&> >, void (std::__ndk1::error_code const&, unsigned long)>::target_type() const
PUBLIC d8b08 0 std::__ndk1::__function::__base<void (std::__ndk1::error_code const&)>::~__base()
PUBLIC d8b0c 0 std::__ndk1::__function::__func<std::__ndk1::__bind<void (websocketpp::connection<websocketpp::config::asio_client>::*)(std::__ndk1::error_code const&), websocketpp::connection<websocketpp::config::asio_client>*, std::__ndk1::placeholders::__ph<1> const&>, std::__ndk1::allocator<std::__ndk1::__bind<void (websocketpp::connection<websocketpp::config::asio_client>::*)(std::__ndk1::error_code const&), websocketpp::connection<websocketpp::config::asio_client>*, std::__ndk1::placeholders::__ph<1> const&> >, void (std::__ndk1::error_code const&)>::~__func()
PUBLIC d8b10 0 std::__ndk1::__function::__func<std::__ndk1::__bind<void (websocketpp::connection<websocketpp::config::asio_client>::*)(std::__ndk1::error_code const&), websocketpp::connection<websocketpp::config::asio_client>*, std::__ndk1::placeholders::__ph<1> const&>, std::__ndk1::allocator<std::__ndk1::__bind<void (websocketpp::connection<websocketpp::config::asio_client>::*)(std::__ndk1::error_code const&), websocketpp::connection<websocketpp::config::asio_client>*, std::__ndk1::placeholders::__ph<1> const&> >, void (std::__ndk1::error_code const&)>::__clone() const
PUBLIC d8b50 0 std::__ndk1::__function::__func<std::__ndk1::__bind<void (websocketpp::connection<websocketpp::config::asio_client>::*)(std::__ndk1::error_code const&), websocketpp::connection<websocketpp::config::asio_client>*, std::__ndk1::placeholders::__ph<1> const&>, std::__ndk1::allocator<std::__ndk1::__bind<void (websocketpp::connection<websocketpp::config::asio_client>::*)(std::__ndk1::error_code const&), websocketpp::connection<websocketpp::config::asio_client>*, std::__ndk1::placeholders::__ph<1> const&> >, void (std::__ndk1::error_code const&)>::__clone(std::__ndk1::__function::__base<void (std::__ndk1::error_code const&)>*) const
PUBLIC d8b70 0 std::__ndk1::__function::__func<std::__ndk1::__bind<void (websocketpp::connection<websocketpp::config::asio_client>::*)(std::__ndk1::error_code const&), websocketpp::connection<websocketpp::config::asio_client>*, std::__ndk1::placeholders::__ph<1> const&>, std::__ndk1::allocator<std::__ndk1::__bind<void (websocketpp::connection<websocketpp::config::asio_client>::*)(std::__ndk1::error_code const&), websocketpp::connection<websocketpp::config::asio_client>*, std::__ndk1::placeholders::__ph<1> const&> >, void (std::__ndk1::error_code const&)>::destroy()
PUBLIC d8b74 0 std::__ndk1::__function::__func<std::__ndk1::__bind<void (websocketpp::connection<websocketpp::config::asio_client>::*)(std::__ndk1::error_code const&), websocketpp::connection<websocketpp::config::asio_client>*, std::__ndk1::placeholders::__ph<1> const&>, std::__ndk1::allocator<std::__ndk1::__bind<void (websocketpp::connection<websocketpp::config::asio_client>::*)(std::__ndk1::error_code const&), websocketpp::connection<websocketpp::config::asio_client>*, std::__ndk1::placeholders::__ph<1> const&> >, void (std::__ndk1::error_code const&)>::destroy_deallocate()
PUBLIC d8b78 0 std::__ndk1::__function::__func<std::__ndk1::__bind<void (websocketpp::connection<websocketpp::config::asio_client>::*)(std::__ndk1::error_code const&), websocketpp::connection<websocketpp::config::asio_client>*, std::__ndk1::placeholders::__ph<1> const&>, std::__ndk1::allocator<std::__ndk1::__bind<void (websocketpp::connection<websocketpp::config::asio_client>::*)(std::__ndk1::error_code const&), websocketpp::connection<websocketpp::config::asio_client>*, std::__ndk1::placeholders::__ph<1> const&> >, void (std::__ndk1::error_code const&)>::operator()(std::__ndk1::error_code const&)
PUBLIC d8b94 0 std::__ndk1::__function::__func<std::__ndk1::__bind<void (websocketpp::connection<websocketpp::config::asio_client>::*)(std::__ndk1::error_code const&), websocketpp::connection<websocketpp::config::asio_client>*, std::__ndk1::placeholders::__ph<1> const&>, std::__ndk1::allocator<std::__ndk1::__bind<void (websocketpp::connection<websocketpp::config::asio_client>::*)(std::__ndk1::error_code const&), websocketpp::connection<websocketpp::config::asio_client>*, std::__ndk1::placeholders::__ph<1> const&> >, void (std::__ndk1::error_code const&)>::target(std::type_info const&) const
PUBLIC d8bb0 0 std::__ndk1::__function::__func<std::__ndk1::__bind<void (websocketpp::connection<websocketpp::config::asio_client>::*)(std::__ndk1::error_code const&), websocketpp::connection<websocketpp::config::asio_client>*, std::__ndk1::placeholders::__ph<1> const&>, std::__ndk1::allocator<std::__ndk1::__bind<void (websocketpp::connection<websocketpp::config::asio_client>::*)(std::__ndk1::error_code const&), websocketpp::connection<websocketpp::config::asio_client>*, std::__ndk1::placeholders::__ph<1> const&> >, void (std::__ndk1::error_code const&)>::target_type() const
PUBLIC d8bbc 0 std::__ndk1::unique_ptr<websocketpp::message_buffer::alloc::con_msg_manager<websocketpp::message_buffer::message<websocketpp::message_buffer::alloc::con_msg_manager> >, std::__ndk1::default_delete<websocketpp::message_buffer::alloc::con_msg_manager<websocketpp::message_buffer::message<websocketpp::message_buffer::alloc::con_msg_manager> > > >::~unique_ptr[abi:v170000]()
PUBLIC d8bfc 0 std::__ndk1::__shared_ptr_pointer<websocketpp::message_buffer::alloc::con_msg_manager<websocketpp::message_buffer::message<websocketpp::message_buffer::alloc::con_msg_manager> >*, std::__ndk1::shared_ptr<websocketpp::message_buffer::alloc::con_msg_manager<websocketpp::message_buffer::message<websocketpp::message_buffer::alloc::con_msg_manager> > >::__shared_ptr_default_delete<websocketpp::message_buffer::alloc::con_msg_manager<websocketpp::message_buffer::message<websocketpp::message_buffer::alloc::con_msg_manager> >, websocketpp::message_buffer::alloc::con_msg_manager<websocketpp::message_buffer::message<websocketpp::message_buffer::alloc::con_msg_manager> > >, std::__ndk1::allocator<websocketpp::message_buffer::alloc::con_msg_manager<websocketpp::message_buffer::message<websocketpp::message_buffer::alloc::con_msg_manager> > > >::~__shared_ptr_pointer()
PUBLIC d8c20 0 std::__ndk1::__shared_ptr_pointer<websocketpp::message_buffer::alloc::con_msg_manager<websocketpp::message_buffer::message<websocketpp::message_buffer::alloc::con_msg_manager> >*, std::__ndk1::shared_ptr<websocketpp::message_buffer::alloc::con_msg_manager<websocketpp::message_buffer::message<websocketpp::message_buffer::alloc::con_msg_manager> > >::__shared_ptr_default_delete<websocketpp::message_buffer::alloc::con_msg_manager<websocketpp::message_buffer::message<websocketpp::message_buffer::alloc::con_msg_manager> >, websocketpp::message_buffer::alloc::con_msg_manager<websocketpp::message_buffer::message<websocketpp::message_buffer::alloc::con_msg_manager> > >, std::__ndk1::allocator<websocketpp::message_buffer::alloc::con_msg_manager<websocketpp::message_buffer::message<websocketpp::message_buffer::alloc::con_msg_manager> > > >::__on_zero_shared()
PUBLIC d8c5c 0 std::__ndk1::__shared_ptr_pointer<websocketpp::message_buffer::alloc::con_msg_manager<websocketpp::message_buffer::message<websocketpp::message_buffer::alloc::con_msg_manager> >*, std::__ndk1::shared_ptr<websocketpp::message_buffer::alloc::con_msg_manager<websocketpp::message_buffer::message<websocketpp::message_buffer::alloc::con_msg_manager> > >::__shared_ptr_default_delete<websocketpp::message_buffer::alloc::con_msg_manager<websocketpp::message_buffer::message<websocketpp::message_buffer::alloc::con_msg_manager> >, websocketpp::message_buffer::alloc::con_msg_manager<websocketpp::message_buffer::message<websocketpp::message_buffer::alloc::con_msg_manager> > >, std::__ndk1::allocator<websocketpp::message_buffer::alloc::con_msg_manager<websocketpp::message_buffer::message<websocketpp::message_buffer::alloc::con_msg_manager> > > >::__get_deleter(std::type_info const&) const
PUBLIC d8c78 0 std::__ndk1::__shared_ptr_pointer<websocketpp::message_buffer::alloc::con_msg_manager<websocketpp::message_buffer::message<websocketpp::message_buffer::alloc::con_msg_manager> >*, std::__ndk1::shared_ptr<websocketpp::message_buffer::alloc::con_msg_manager<websocketpp::message_buffer::message<websocketpp::message_buffer::alloc::con_msg_manager> > >::__shared_ptr_default_delete<websocketpp::message_buffer::alloc::con_msg_manager<websocketpp::message_buffer::message<websocketpp::message_buffer::alloc::con_msg_manager> >, websocketpp::message_buffer::alloc::con_msg_manager<websocketpp::message_buffer::message<websocketpp::message_buffer::alloc::con_msg_manager> > >, std::__ndk1::allocator<websocketpp::message_buffer::alloc::con_msg_manager<websocketpp::message_buffer::message<websocketpp::message_buffer::alloc::con_msg_manager> > > >::__on_zero_shared_weak()
PUBLIC d8c7c 0 websocketpp::http::parser::parser::~parser()
PUBLIC d8ccc 0 std::__ndk1::__shared_ptr_emplace<std::__ndk1::basic_string<char, std::__ndk1::char_traits<char>, std::__ndk1::allocator<char> >, std::__ndk1::allocator<std::__ndk1::basic_string<char, std::__ndk1::char_traits<char>, std::__ndk1::allocator<char> > > >::~__shared_ptr_emplace()
PUBLIC d8cdc 0 std::__ndk1::__shared_ptr_emplace<std::__ndk1::basic_string<char, std::__ndk1::char_traits<char>, std::__ndk1::allocator<char> >, std::__ndk1::allocator<std::__ndk1::basic_string<char, std::__ndk1::char_traits<char>, std::__ndk1::allocator<char> > > >::~__shared_ptr_emplace()
PUBLIC d8d0c 0 std::__ndk1::__shared_ptr_emplace<std::__ndk1::basic_string<char, std::__ndk1::char_traits<char>, std::__ndk1::allocator<char> >, std::__ndk1::allocator<std::__ndk1::basic_string<char, std::__ndk1::char_traits<char>, std::__ndk1::allocator<char> > > >::__on_zero_shared()
PUBLIC d8d20 0 std::__ndk1::__shared_ptr_emplace<std::__ndk1::basic_string<char, std::__ndk1::char_traits<char>, std::__ndk1::allocator<char> >, std::__ndk1::allocator<std::__ndk1::basic_string<char, std::__ndk1::char_traits<char>, std::__ndk1::allocator<char> > > >::__on_zero_shared_weak()
PUBLIC d8d24 0 std::__ndk1::__tree<std::__ndk1::__value_type<std::__ndk1::basic_string<char, std::__ndk1::char_traits<char>, std::__ndk1::allocator<char> >, std::__ndk1::basic_string<char, std::__ndk1::char_traits<char>, std::__ndk1::allocator<char> > >, std::__ndk1::__map_value_compare<std::__ndk1::basic_string<char, std::__ndk1::char_traits<char>, std::__ndk1::allocator<char> >, std::__ndk1::__value_type<std::__ndk1::basic_string<char, std::__ndk1::char_traits<char>, std::__ndk1::allocator<char> >, std::__ndk1::basic_string<char, std::__ndk1::char_traits<char>, std::__ndk1::allocator<char> > >, websocketpp::utility::ci_less, true>, std::__ndk1::allocator<std::__ndk1::__value_type<std::__ndk1::basic_string<char, std::__ndk1::char_traits<char>, std::__ndk1::allocator<char> >, std::__ndk1::basic_string<char, std::__ndk1::char_traits<char>, std::__ndk1::allocator<char> > > > >::destroy(std::__ndk1::__tree_node<std::__ndk1::__value_type<std::__ndk1::basic_string<char, std::__ndk1::char_traits<char>, std::__ndk1::allocator<char> >, std::__ndk1::basic_string<char, std::__ndk1::char_traits<char>, std::__ndk1::allocator<char> > >, void*>*)
PUBLIC d8d9c 0 std::__ndk1::deque<std::__ndk1::shared_ptr<websocketpp::message_buffer::message<websocketpp::message_buffer::alloc::con_msg_manager> >, std::__ndk1::allocator<std::__ndk1::shared_ptr<websocketpp::message_buffer::message<websocketpp::message_buffer::alloc::con_msg_manager> > > >::~deque[abi:v170000]()
PUBLIC d8f50 0 websocketpp::connection<websocketpp::config::asio_client>::~connection()
PUBLIC d95a8 0 std::__ndk1::__function::__value_func<bool (std::__ndk1::weak_ptr<void>, std::__ndk1::basic_string<char, std::__ndk1::char_traits<char>, std::__ndk1::allocator<char> >)>::swap[abi:v170000](std::__ndk1::__function::__value_func<bool (std::__ndk1::weak_ptr<void>, std::__ndk1::basic_string<char, std::__ndk1::char_traits<char>, std::__ndk1::allocator<char> >)>&)
PUBLIC d9740 0 std::__ndk1::__function::__value_func<void (std::__ndk1::weak_ptr<void>, std::__ndk1::basic_string<char, std::__ndk1::char_traits<char>, std::__ndk1::allocator<char> >)>::swap[abi:v170000](std::__ndk1::__function::__value_func<void (std::__ndk1::weak_ptr<void>, std::__ndk1::basic_string<char, std::__ndk1::char_traits<char>, std::__ndk1::allocator<char> >)>&)
PUBLIC d98d8 0 std::__ndk1::__function::__value_func<bool (std::__ndk1::weak_ptr<void>)>::swap[abi:v170000](std::__ndk1::__function::__value_func<bool (std::__ndk1::weak_ptr<void>)>&)
PUBLIC d9a70 0 websocketpp::transport::asio::basic_socket::endpoint::init(std::__ndk1::shared_ptr<websocketpp::transport::asio::basic_socket::connection>)
PUBLIC d9c24 0 websocketpp::transport::asio::connection<websocketpp::config::asio_client::transport_config>::init_asio(asio::io_context*)
PUBLIC d9db4 0 std::__ndk1::__function::__value_func<void (std::__ndk1::weak_ptr<void>, asio::basic_stream_socket<asio::ip::tcp>&)>::swap[abi:v170000](std::__ndk1::__function::__value_func<void (std::__ndk1::weak_ptr<void>, asio::basic_stream_socket<asio::ip::tcp>&)>&)
PUBLIC d9f4c 0 websocketpp::transport::asio::basic_socket::connection::init_asio(asio::io_context*, std::__ndk1::shared_ptr<asio::io_context::strand>, bool)
PUBLIC da1a0 0 std::__ndk1::__shared_ptr_pointer<asio::io_context::strand*, std::__ndk1::shared_ptr<asio::io_context::strand>::__shared_ptr_default_delete<asio::io_context::strand, asio::io_context::strand>, std::__ndk1::allocator<asio::io_context::strand> >::~__shared_ptr_pointer()
PUBLIC da1c4 0 std::__ndk1::__shared_ptr_pointer<asio::io_context::strand*, std::__ndk1::shared_ptr<asio::io_context::strand>::__shared_ptr_default_delete<asio::io_context::strand, asio::io_context::strand>, std::__ndk1::allocator<asio::io_context::strand> >::__on_zero_shared()
PUBLIC da1d4 0 std::__ndk1::__shared_ptr_pointer<asio::io_context::strand*, std::__ndk1::shared_ptr<asio::io_context::strand>::__shared_ptr_default_delete<asio::io_context::strand, asio::io_context::strand>, std::__ndk1::allocator<asio::io_context::strand> >::__get_deleter(std::type_info const&) const
PUBLIC da1f0 0 std::__ndk1::__shared_ptr_pointer<asio::io_context::strand*, std::__ndk1::shared_ptr<asio::io_context::strand>::__shared_ptr_default_delete<asio::io_context::strand, asio::io_context::strand>, std::__ndk1::allocator<asio::io_context::strand> >::__on_zero_shared_weak()
PUBLIC m da1f4 0 asio::detail::strand_service::construct(asio::detail::strand_service::strand_impl*&)
PUBLIC m da34c 0 asio::detail::service_registry::create<asio::detail::strand_service, asio::io_context>(void*)
PUBLIC m da3c4 0 asio::detail::strand_service::~strand_service()
PUBLIC m da434 0 asio::detail::strand_service::~strand_service()
PUBLIC m da4a8 0 asio::detail::strand_service::shutdown()
PUBLIC m da5dc 0 asio::detail::strand_service::strand_impl::~strand_impl()
PUBLIC m da6cc 0 asio::detail::strand_service::do_complete(void*, asio::detail::scheduler_operation*, std::__ndk1::error_code const&, unsigned long)
PUBLIC m da838 0 asio::detail::strand_service::on_do_complete_exit::~on_do_complete_exit()
PUBLIC da8c0 0 websocketpp::transport::asio::socket::socket_category::~socket_category()
PUBLIC da8e4 0 websocketpp::transport::asio::socket::socket_category::name() const
PUBLIC da8f0 0 websocketpp::transport::asio::socket::socket_category::message(int) const
PUBLIC dab58 0 std::__ndk1::__shared_ptr_pointer<asio::basic_stream_socket<asio::ip::tcp>*, std::__ndk1::shared_ptr<asio::basic_stream_socket<asio::ip::tcp> >::__shared_ptr_default_delete<asio::basic_stream_socket<asio::ip::tcp>, asio::basic_stream_socket<asio::ip::tcp> >, std::__ndk1::allocator<asio::basic_stream_socket<asio::ip::tcp> > >::~__shared_ptr_pointer()
PUBLIC dab7c 0 std::__ndk1::__shared_ptr_pointer<asio::basic_stream_socket<asio::ip::tcp>*, std::__ndk1::shared_ptr<asio::basic_stream_socket<asio::ip::tcp> >::__shared_ptr_default_delete<asio::basic_stream_socket<asio::ip::tcp>, asio::basic_stream_socket<asio::ip::tcp> >, std::__ndk1::allocator<asio::basic_stream_socket<asio::ip::tcp> > >::__on_zero_shared()
PUBLIC dabc0 0 std::__ndk1::__shared_ptr_pointer<asio::basic_stream_socket<asio::ip::tcp>*, std::__ndk1::shared_ptr<asio::basic_stream_socket<asio::ip::tcp> >::__shared_ptr_default_delete<asio::basic_stream_socket<asio::ip::tcp>, asio::basic_stream_socket<asio::ip::tcp> >, std::__ndk1::allocator<asio::basic_stream_socket<asio::ip::tcp> > >::__get_deleter(std::type_info const&) const
PUBLIC dabdc 0 std::__ndk1::__shared_ptr_pointer<asio::basic_stream_socket<asio::ip::tcp>*, std::__ndk1::shared_ptr<asio::basic_stream_socket<asio::ip::tcp> >::__shared_ptr_default_delete<asio::basic_stream_socket<asio::ip::tcp>, asio::basic_stream_socket<asio::ip::tcp> >, std::__ndk1::allocator<asio::basic_stream_socket<asio::ip::tcp> > >::__on_zero_shared_weak()
PUBLIC dabe0 0 websocketpp::http::parser::parser::replace_header(std::__ndk1::basic_string<char, std::__ndk1::char_traits<char>, std::__ndk1::allocator<char> > const&, std::__ndk1::basic_string<char, std::__ndk1::char_traits<char>, std::__ndk1::allocator<char> > const&)
PUBLIC dac4c 0 websocketpp::exception::exception(std::__ndk1::basic_string<char, std::__ndk1::char_traits<char>, std::__ndk1::allocator<char> > const&, std::__ndk1::error_code)
PUBLIC dad08 0 std::__ndk1::__tree<std::__ndk1::__value_type<std::__ndk1::basic_string<char, std::__ndk1::char_traits<char>, std::__ndk1::allocator<char> >, std::__ndk1::basic_string<char, std::__ndk1::char_traits<char>, std::__ndk1::allocator<char> > >, std::__ndk1::__map_value_compare<std::__ndk1::basic_string<char, std::__ndk1::char_traits<char>, std::__ndk1::allocator<char> >, std::__ndk1::__value_type<std::__ndk1::basic_string<char, std::__ndk1::char_traits<char>, std::__ndk1::allocator<char> >, std::__ndk1::basic_string<char, std::__ndk1::char_traits<char>, std::__ndk1::allocator<char> > >, websocketpp::utility::ci_less, true>, std::__ndk1::allocator<std::__ndk1::__value_type<std::__ndk1::basic_string<char, std::__ndk1::char_traits<char>, std::__ndk1::allocator<char> >, std::__ndk1::basic_string<char, std::__ndk1::char_traits<char>, std::__ndk1::allocator<char> > > > >::__emplace_unique_key_args<std::__ndk1::basic_string<char, std::__ndk1::char_traits<char>, std::__ndk1::allocator<char> >, std::__ndk1::piecewise_construct_t const&, std::__ndk1::tuple<std::__ndk1::basic_string<char, std::__ndk1::char_traits<char>, std::__ndk1::allocator<char> > const&>, std::__ndk1::tuple<> >(std::__ndk1::basic_string<char, std::__ndk1::char_traits<char>, std::__ndk1::allocator<char> > const&, std::__ndk1::piecewise_construct_t const&, std::__ndk1::tuple<std::__ndk1::basic_string<char, std::__ndk1::char_traits<char>, std::__ndk1::allocator<char> > const&>, std::__ndk1::tuple<>)
PUBLIC dae18 0 std::__ndk1::__tree<std::__ndk1::__value_type<std::__ndk1::basic_string<char, std::__ndk1::char_traits<char>, std::__ndk1::allocator<char> >, std::__ndk1::basic_string<char, std::__ndk1::char_traits<char>, std::__ndk1::allocator<char> > >, std::__ndk1::__map_value_compare<std::__ndk1::basic_string<char, std::__ndk1::char_traits<char>, std::__ndk1::allocator<char> >, std::__ndk1::__value_type<std::__ndk1::basic_string<char, std::__ndk1::char_traits<char>, std::__ndk1::allocator<char> >, std::__ndk1::basic_string<char, std::__ndk1::char_traits<char>, std::__ndk1::allocator<char> > >, websocketpp::utility::ci_less, true>, std::__ndk1::allocator<std::__ndk1::__value_type<std::__ndk1::basic_string<char, std::__ndk1::char_traits<char>, std::__ndk1::allocator<char> >, std::__ndk1::basic_string<char, std::__ndk1::char_traits<char>, std::__ndk1::allocator<char> > > > >::__find_equal<std::__ndk1::basic_string<char, std::__ndk1::char_traits<char>, std::__ndk1::allocator<char> > >(std::__ndk1::__tree_end_node<std::__ndk1::__tree_node_base<void*>*>*&, std::__ndk1::basic_string<char, std::__ndk1::char_traits<char>, std::__ndk1::allocator<char> > const&)
PUBLIC dafa8 0 websocketpp::transport::asio::connection<websocketpp::config::asio_client::transport_config>::proxy_data::proxy_data()
PUBLIC db15c 0 std::__ndk1::__shared_ptr_emplace<websocketpp::transport::asio::connection<websocketpp::config::asio_client::transport_config>::proxy_data, std::__ndk1::allocator<websocketpp::transport::asio::connection<websocketpp::config::asio_client::transport_config>::proxy_data> >::~__shared_ptr_emplace()
PUBLIC db16c 0 std::__ndk1::__shared_ptr_emplace<websocketpp::transport::asio::connection<websocketpp::config::asio_client::transport_config>::proxy_data, std::__ndk1::allocator<websocketpp::transport::asio::connection<websocketpp::config::asio_client::transport_config>::proxy_data> >::~__shared_ptr_emplace()
PUBLIC db19c 0 std::__ndk1::__shared_ptr_emplace<websocketpp::transport::asio::connection<websocketpp::config::asio_client::transport_config>::proxy_data, std::__ndk1::allocator<websocketpp::transport::asio::connection<websocketpp::config::asio_client::transport_config>::proxy_data> >::__on_zero_shared()
PUBLIC db1a4 0 std::__ndk1::__shared_ptr_emplace<websocketpp::transport::asio::connection<websocketpp::config::asio_client::transport_config>::proxy_data, std::__ndk1::allocator<websocketpp::transport::asio::connection<websocketpp::config::asio_client::transport_config>::proxy_data> >::__on_zero_shared_weak()
PUBLIC m db1a8 0 asio::basic_streambuf<std::__ndk1::allocator<char> >::~basic_streambuf()
PUBLIC m db1e8 0 asio::basic_streambuf<std::__ndk1::allocator<char> >::~basic_streambuf()
PUBLIC m db230 0 asio::basic_streambuf<std::__ndk1::allocator<char> >::underflow()
PUBLIC m db25c 0 asio::basic_streambuf<std::__ndk1::allocator<char> >::overflow(int)
PUBLIC db2e4 0 std::__ndk1::vector<char, std::__ndk1::allocator<char> >::__throw_length_error[abi:v170000]() const
PUBLIC m db2f8 0 asio::basic_streambuf<std::__ndk1::allocator<char> >::reserve(unsigned long)
PUBLIC db624 0 websocketpp::transport::asio::connection<websocketpp::config::asio_client::transport_config>::proxy_data::~proxy_data()
PUBLIC db750 0 websocketpp::base64_encode(unsigned char const*, unsigned long)
PUBLIC dba24 0 websocketpp::transport::asio::endpoint<websocketpp::config::asio_client::transport_config>::async_connect(std::__ndk1::shared_ptr<websocketpp::transport::asio::connection<websocketpp::config::asio_client::transport_config> >, std::__ndk1::shared_ptr<websocketpp::uri>, std::__ndk1::function<void (std::__ndk1::error_code const&)>)
PUBLIC dc6a8 0 websocketpp::client<websocketpp::config::asio_client>::handle_connect(std::__ndk1::shared_ptr<websocketpp::connection<websocketpp::config::asio_client> >, std::__ndk1::error_code const&)
PUBLIC dc838 0 std::__ndk1::__bind<void (websocketpp::client<websocketpp::config::asio_client>::*)(std::__ndk1::shared_ptr<websocketpp::connection<websocketpp::config::asio_client> >, std::__ndk1::error_code const&), websocketpp::client<websocketpp::config::asio_client>*, std::__ndk1::shared_ptr<websocketpp::connection<websocketpp::config::asio_client> >&, std::__ndk1::placeholders::__ph<1> const&>::~__bind()
PUBLIC dc888 0 std::__ndk1::shared_ptr<asio::ip::basic_resolver<asio::ip::tcp> >::reset[abi:v170000]<asio::ip::basic_resolver<asio::ip::tcp>, void>(asio::ip::basic_resolver<asio::ip::tcp>*)
PUBLIC dc984 0 websocketpp::uri::get_port_str() const
PUBLIC dcb30 0 websocketpp::transport::asio::connection<websocketpp::config::asio_client::transport_config>::proxy_init(std::__ndk1::basic_string<char, std::__ndk1::char_traits<char>, std::__ndk1::allocator<char> > const&)
PUBLIC dcd40 0 websocketpp::uri::get_authority() const
PUBLIC dcf1c 0 websocketpp::transport::asio::endpoint<websocketpp::config::asio_client::transport_config>::handle_resolve_timeout(std::__ndk1::shared_ptr<asio::basic_waitable_timer<std::__ndk1::chrono::steady_clock, asio::wait_traits<std::__ndk1::chrono::steady_clock> > >, std::__ndk1::function<void (std::__ndk1::error_code const&)>, std::__ndk1::error_code const&)
PUBLIC dd110 0 std::__ndk1::__bind<void (websocketpp::transport::asio::endpoint<websocketpp::config::asio_client::transport_config>::*)(std::__ndk1::shared_ptr<asio::basic_waitable_timer<std::__ndk1::chrono::steady_clock, asio::wait_traits<std::__ndk1::chrono::steady_clock> > >, std::__ndk1::function<void (std::__ndk1::error_code const&)>, std::__ndk1::error_code const&), websocketpp::transport::asio::endpoint<websocketpp::config::asio_client::transport_config>*, std::__ndk1::shared_ptr<asio::basic_waitable_timer<std::__ndk1::chrono::steady_clock, asio::wait_traits<std::__ndk1::chrono::steady_clock> > >&, std::__ndk1::function<void (std::__ndk1::error_code const&)>&, std::__ndk1::placeholders::__ph<1> const&>::~__bind()
PUBLIC dd198 0 websocketpp::transport::asio::endpoint<websocketpp::config::asio_client::transport_config>::handle_resolve(std::__ndk1::shared_ptr<websocketpp::transport::asio::connection<websocketpp::config::asio_client::transport_config> >, std::__ndk1::shared_ptr<asio::basic_waitable_timer<std::__ndk1::chrono::steady_clock, asio::wait_traits<std::__ndk1::chrono::steady_clock> > >, std::__ndk1::function<void (std::__ndk1::error_code const&)>, std::__ndk1::error_code const&, asio::ip::basic_resolver_iterator<asio::ip::tcp>)
PUBLIC ddc90 0 asio::detail::wrapped_handler<asio::io_context::strand, std::__ndk1::__bind<void (websocketpp::transport::asio::endpoint<websocketpp::config::asio_client::transport_config>::*)(std::__ndk1::shared_ptr<websocketpp::transport::asio::connection<websocketpp::config::asio_client::transport_config> >, std::__ndk1::shared_ptr<asio::basic_waitable_timer<std::__ndk1::chrono::steady_clock, asio::wait_traits<std::__ndk1::chrono::steady_clock> > >, std::__ndk1::function<void (std::__ndk1::error_code const&)>, std::__ndk1::error_code const&, asio::ip::basic_resolver_iterator<asio::ip::tcp>), websocketpp::transport::asio::endpoint<websocketpp::config::asio_client::transport_config>*, std::__ndk1::shared_ptr<websocketpp::transport::asio::connection<websocketpp::config::asio_client::transport_config> >&, std::__ndk1::shared_ptr<asio::basic_waitable_timer<std::__ndk1::chrono::steady_clock, asio::wait_traits<std::__ndk1::chrono::steady_clock> > >&, std::__ndk1::function<void (std::__ndk1::error_code const&)>&, std::__ndk1::placeholders::__ph<1> const&, std::__ndk1::placeholders::__ph<2> const&>, asio::detail::is_continuation_if_running>::~wrapped_handler()
PUBLIC ddd50 0 std::__ndk1::__bind<void (websocketpp::transport::asio::endpoint<websocketpp::config::asio_client::transport_config>::*)(std::__ndk1::shared_ptr<websocketpp::transport::asio::connection<websocketpp::config::asio_client::transport_config> >, std::__ndk1::shared_ptr<asio::basic_waitable_timer<std::__ndk1::chrono::steady_clock, asio::wait_traits<std::__ndk1::chrono::steady_clock> > >, std::__ndk1::function<void (std::__ndk1::error_code const&)>, std::__ndk1::error_code const&, asio::ip::basic_resolver_iterator<asio::ip::tcp>), websocketpp::transport::asio::endpoint<websocketpp::config::asio_client::transport_config>*, std::__ndk1::shared_ptr<websocketpp::transport::asio::connection<websocketpp::config::asio_client::transport_config> >&, std::__ndk1::shared_ptr<asio::basic_waitable_timer<std::__ndk1::chrono::steady_clock, asio::wait_traits<std::__ndk1::chrono::steady_clock> > >&, std::__ndk1::function<void (std::__ndk1::error_code const&)>&, std::__ndk1::placeholders::__ph<1> const&, std::__ndk1::placeholders::__ph<2> const&>::~__bind()
PUBLIC m dde10 0 asio::ip::basic_resolver_query<asio::ip::tcp>::~basic_resolver_query()
PUBLIC dde54 0 std::__ndk1::__shared_ptr_pointer<asio::ip::basic_resolver<asio::ip::tcp>*, std::__ndk1::shared_ptr<asio::ip::basic_resolver<asio::ip::tcp> >::__shared_ptr_default_delete<asio::ip::basic_resolver<asio::ip::tcp>, asio::ip::basic_resolver<asio::ip::tcp> >, std::__ndk1::allocator<asio::ip::basic_resolver<asio::ip::tcp> > >::~__shared_ptr_pointer()
PUBLIC dde78 0 std::__ndk1::__shared_ptr_pointer<asio::ip::basic_resolver<asio::ip::tcp>*, std::__ndk1::shared_ptr<asio::ip::basic_resolver<asio::ip::tcp> >::__shared_ptr_default_delete<asio::ip::basic_resolver<asio::ip::tcp>, asio::ip::basic_resolver<asio::ip::tcp> >, std::__ndk1::allocator<asio::ip::basic_resolver<asio::ip::tcp> > >::__on_zero_shared()
PUBLIC ddf1c 0 std::__ndk1::__shared_ptr_pointer<asio::ip::basic_resolver<asio::ip::tcp>*, std::__ndk1::shared_ptr<asio::ip::basic_resolver<asio::ip::tcp> >::__shared_ptr_default_delete<asio::ip::basic_resolver<asio::ip::tcp>, asio::ip::basic_resolver<asio::ip::tcp> >, std::__ndk1::allocator<asio::ip::basic_resolver<asio::ip::tcp> > >::__get_deleter(std::type_info const&) const
PUBLIC ddf38 0 std::__ndk1::__shared_ptr_pointer<asio::ip::basic_resolver<asio::ip::tcp>*, std::__ndk1::shared_ptr<asio::ip::basic_resolver<asio::ip::tcp> >::__shared_ptr_default_delete<asio::ip::basic_resolver<asio::ip::tcp>, asio::ip::basic_resolver<asio::ip::tcp> >, std::__ndk1::allocator<asio::ip::basic_resolver<asio::ip::tcp> > >::__on_zero_shared_weak()
PUBLIC m ddf3c 0 asio::detail::service_registry::create<asio::detail::resolver_service<asio::ip::tcp>, asio::io_context>(void*)
PUBLIC m ddf84 0 asio::detail::resolver_service<asio::ip::tcp>::resolver_service(asio::io_context&)
PUBLIC m de044 0 asio::detail::resolver_service<asio::ip::tcp>::~resolver_service()
PUBLIC m de04c 0 asio::detail::resolver_service<asio::ip::tcp>::~resolver_service()
PUBLIC m de074 0 asio::detail::resolver_service<asio::ip::tcp>::shutdown()
PUBLIC m de07c 0 asio::detail::resolver_service<asio::ip::tcp>::notify_fork(asio::execution_context::fork_event)
PUBLIC m de084 0 asio::detail::service_base<asio::detail::resolver_service<asio::ip::tcp> >::~service_base()
PUBLIC m de088 0 asio::io_context::io_context(int)
PUBLIC m de22c 0 asio::detail::scoped_ptr<asio::io_context>::~scoped_ptr()
PUBLIC m de2d4 0 asio::detail::resolver_service_base::~resolver_service_base()
PUBLIC m de360 0 asio::detail::resolver_service_base::base_shutdown()
PUBLIC m de430 0 asio::detail::scoped_ptr<asio::io_context>::reset(asio::io_context*)
PUBLIC m de4e0 0 asio::detail::resolver_service_base::base_notify_fork(asio::execution_context::fork_event)
PUBLIC m de600 0 asio::detail::posix_thread::start_thread(asio::detail::posix_thread::func_base*)
PUBLIC m de758 0 asio_detail_posix_thread_function
PUBLIC m de7b0 0 asio::detail::posix_thread::func<asio::detail::resolver_service_base::work_io_context_runner>::~func()
PUBLIC m de7b4 0 asio::detail::posix_thread::func<asio::detail::resolver_service_base::work_io_context_runner>::run()
PUBLIC m de7bc 0 asio::detail::posix_thread::func_base::~func_base()
PUBLIC m de7c0 0 asio::detail::resolver_service_base::work_io_context_runner::operator()()
PUBLIC de8b4 0 std::__ndk1::shared_ptr<void>::reset[abi:v170000]<void, asio::detail::socket_ops::noop_deleter, void>(void*, asio::detail::socket_ops::noop_deleter)
PUBLIC de950 0 std::__ndk1::__shared_ptr_pointer<void*, asio::detail::socket_ops::noop_deleter, std::__ndk1::allocator<void> >::~__shared_ptr_pointer()
PUBLIC de974 0 std::__ndk1::__shared_ptr_pointer<void*, asio::detail::socket_ops::noop_deleter, std::__ndk1::allocator<void> >::__on_zero_shared()
PUBLIC de978 0 std::__ndk1::__shared_ptr_pointer<void*, asio::detail::socket_ops::noop_deleter, std::__ndk1::allocator<void> >::__get_deleter(std::type_info const&) const
PUBLIC de994 0 std::__ndk1::__shared_ptr_pointer<void*, asio::detail::socket_ops::noop_deleter, std::__ndk1::allocator<void> >::__on_zero_shared_weak()
PUBLIC de998 0 websocketpp::http::parser::request::set_method(std::__ndk1::basic_string<char, std::__ndk1::char_traits<char>, std::__ndk1::allocator<char> > const&)
PUBLIC deb34 0 websocketpp::http::exception::exception(std::__ndk1::basic_string<char, std::__ndk1::char_traits<char>, std::__ndk1::allocator<char> > const&, websocketpp::http::status_code::value, std::__ndk1::basic_string<char, std::__ndk1::char_traits<char>, std::__ndk1::allocator<char> > const&, std::__ndk1::basic_string<char, std::__ndk1::char_traits<char>, std::__ndk1::allocator<char> > const&)
PUBLIC dec14 0 websocketpp::http::exception::~exception()
PUBLIC dec90 0 websocketpp::http::exception::~exception()
PUBLIC ded1c 0 websocketpp::http::exception::what() const
PUBLIC ded34 0 websocketpp::transport::asio::endpoint<websocketpp::config::asio_client::transport_config>::log_err<std::__ndk1::error_code>(unsigned int, char const*, std::__ndk1::error_code const&)
PUBLIC deffc 0 std::__ndk1::__function::__func<std::__ndk1::__bind<void (websocketpp::transport::asio::endpoint<websocketpp::config::asio_client::transport_config>::*)(std::__ndk1::shared_ptr<asio::basic_waitable_timer<std::__ndk1::chrono::steady_clock, asio::wait_traits<std::__ndk1::chrono::steady_clock> > >, std::__ndk1::function<void (std::__ndk1::error_code const&)>, std::__ndk1::error_code const&), websocketpp::transport::asio::endpoint<websocketpp::config::asio_client::transport_config>*, std::__ndk1::shared_ptr<asio::basic_waitable_timer<std::__ndk1::chrono::steady_clock, asio::wait_traits<std::__ndk1::chrono::steady_clock> > >&, std::__ndk1::function<void (std::__ndk1::error_code const&)>&, std::__ndk1::placeholders::__ph<1> const&>, std::__ndk1::allocator<std::__ndk1::__bind<void (websocketpp::transport::asio::endpoint<websocketpp::config::asio_client::transport_config>::*)(std::__ndk1::shared_ptr<asio::basic_waitable_timer<std::__ndk1::chrono::steady_clock, asio::wait_traits<std::__ndk1::chrono::steady_clock> > >, std::__ndk1::function<void (std::__ndk1::error_code const&)>, std::__ndk1::error_code const&), websocketpp::transport::asio::endpoint<websocketpp::config::asio_client::transport_config>*, std::__ndk1::shared_ptr<asio::basic_waitable_timer<std::__ndk1::chrono::steady_clock, asio::wait_traits<std::__ndk1::chrono::steady_clock> > >&, std::__ndk1::function<void (std::__ndk1::error_code const&)>&, std::__ndk1::placeholders::__ph<1> const&> >, void (std::__ndk1::error_code const&)>::~__func()
PUBLIC df090 0 std::__ndk1::__function::__func<std::__ndk1::__bind<void (websocketpp::transport::asio::endpoint<websocketpp::config::asio_client::transport_config>::*)(std::__ndk1::shared_ptr<asio::basic_waitable_timer<std::__ndk1::chrono::steady_clock, asio::wait_traits<std::__ndk1::chrono::steady_clock> > >, std::__ndk1::function<void (std::__ndk1::error_code const&)>, std::__ndk1::error_code const&), websocketpp::transport::asio::endpoint<websocketpp::config::asio_client::transport_config>*, std::__ndk1::shared_ptr<asio::basic_waitable_timer<std::__ndk1::chrono::steady_clock, asio::wait_traits<std::__ndk1::chrono::steady_clock> > >&, std::__ndk1::function<void (std::__ndk1::error_code const&)>&, std::__ndk1::placeholders::__ph<1> const&>, std::__ndk1::allocator<std::__ndk1::__bind<void (websocketpp::transport::asio::endpoint<websocketpp::config::asio_client::transport_config>::*)(std::__ndk1::shared_ptr<asio::basic_waitable_timer<std::__ndk1::chrono::steady_clock, asio::wait_traits<std::__ndk1::chrono::steady_clock> > >, std::__ndk1::function<void (std::__ndk1::error_code const&)>, std::__ndk1::error_code const&), websocketpp::transport::asio::endpoint<websocketpp::config::asio_client::transport_config>*, std::__ndk1::shared_ptr<asio::basic_waitable_timer<std::__ndk1::chrono::steady_clock, asio::wait_traits<std::__ndk1::chrono::steady_clock> > >&, std::__ndk1::function<void (std::__ndk1::error_code const&)>&, std::__ndk1::placeholders::__ph<1> const&> >, void (std::__ndk1::error_code const&)>::~__func()
PUBLIC df130 0 std::__ndk1::__function::__func<std::__ndk1::__bind<void (websocketpp::transport::asio::endpoint<websocketpp::config::asio_client::transport_config>::*)(std::__ndk1::shared_ptr<asio::basic_waitable_timer<std::__ndk1::chrono::steady_clock, asio::wait_traits<std::__ndk1::chrono::steady_clock> > >, std::__ndk1::function<void (std::__ndk1::error_code const&)>, std::__ndk1::error_code const&), websocketpp::transport::asio::endpoint<websocketpp::config::asio_client::transport_config>*, std::__ndk1::shared_ptr<asio::basic_waitable_timer<std::__ndk1::chrono::steady_clock, asio::wait_traits<std::__ndk1::chrono::steady_clock> > >&, std::__ndk1::function<void (std::__ndk1::error_code const&)>&, std::__ndk1::placeholders::__ph<1> const&>, std::__ndk1::allocator<std::__ndk1::__bind<void (websocketpp::transport::asio::endpoint<websocketpp::config::asio_client::transport_config>::*)(std::__ndk1::shared_ptr<asio::basic_waitable_timer<std::__ndk1::chrono::steady_clock, asio::wait_traits<std::__ndk1::chrono::steady_clock> > >, std::__ndk1::function<void (std::__ndk1::error_code const&)>, std::__ndk1::error_code const&), websocketpp::transport::asio::endpoint<websocketpp::config::asio_client::transport_config>*, std::__ndk1::shared_ptr<asio::basic_waitable_timer<std::__ndk1::chrono::steady_clock, asio::wait_traits<std::__ndk1::chrono::steady_clock> > >&, std::__ndk1::function<void (std::__ndk1::error_code const&)>&, std::__ndk1::placeholders::__ph<1> const&> >, void (std::__ndk1::error_code const&)>::__clone() const
PUBLIC df218 0 std::__ndk1::__function::__func<std::__ndk1::__bind<void (websocketpp::transport::asio::endpoint<websocketpp::config::asio_client::transport_config>::*)(std::__ndk1::shared_ptr<asio::basic_waitable_timer<std::__ndk1::chrono::steady_clock, asio::wait_traits<std::__ndk1::chrono::steady_clock> > >, std::__ndk1::function<void (std::__ndk1::error_code const&)>, std::__ndk1::error_code const&), websocketpp::transport::asio::endpoint<websocketpp::config::asio_client::transport_config>*, std::__ndk1::shared_ptr<asio::basic_waitable_timer<std::__ndk1::chrono::steady_clock, asio::wait_traits<std::__ndk1::chrono::steady_clock> > >&, std::__ndk1::function<void (std::__ndk1::error_code const&)>&, std::__ndk1::placeholders::__ph<1> const&>, std::__ndk1::allocator<std::__ndk1::__bind<void (websocketpp::transport::asio::endpoint<websocketpp::config::asio_client::transport_config>::*)(std::__ndk1::shared_ptr<asio::basic_waitable_timer<std::__ndk1::chrono::steady_clock, asio::wait_traits<std::__ndk1::chrono::steady_clock> > >, std::__ndk1::function<void (std::__ndk1::error_code const&)>, std::__ndk1::error_code const&), websocketpp::transport::asio::endpoint<websocketpp::config::asio_client::transport_config>*, std::__ndk1::shared_ptr<asio::basic_waitable_timer<std::__ndk1::chrono::steady_clock, asio::wait_traits<std::__ndk1::chrono::steady_clock> > >&, std::__ndk1::function<void (std::__ndk1::error_code const&)>&, std::__ndk1::placeholders::__ph<1> const&> >, void (std::__ndk1::error_code const&)>::__clone(std::__ndk1::__function::__base<void (std::__ndk1::error_code const&)>*) const
PUBLIC df2ec 0 std::__ndk1::__function::__func<std::__ndk1::__bind<void (websocketpp::transport::asio::endpoint<websocketpp::config::asio_client::transport_config>::*)(std::__ndk1::shared_ptr<asio::basic_waitable_timer<std::__ndk1::chrono::steady_clock, asio::wait_traits<std::__ndk1::chrono::steady_clock> > >, std::__ndk1::function<void (std::__ndk1::error_code const&)>, std::__ndk1::error_code const&), websocketpp::transport::asio::endpoint<websocketpp::config::asio_client::transport_config>*, std::__ndk1::shared_ptr<asio::basic_waitable_timer<std::__ndk1::chrono::steady_clock, asio::wait_traits<std::__ndk1::chrono::steady_clock> > >&, std::__ndk1::function<void (std::__ndk1::error_code const&)>&, std::__ndk1::placeholders::__ph<1> const&>, std::__ndk1::allocator<std::__ndk1::__bind<void (websocketpp::transport::asio::endpoint<websocketpp::config::asio_client::transport_config>::*)(std::__ndk1::shared_ptr<asio::basic_waitable_timer<std::__ndk1::chrono::steady_clock, asio::wait_traits<std::__ndk1::chrono::steady_clock> > >, std::__ndk1::function<void (std::__ndk1::error_code const&)>, std::__ndk1::error_code const&), websocketpp::transport::asio::endpoint<websocketpp::config::asio_client::transport_config>*, std::__ndk1::shared_ptr<asio::basic_waitable_timer<std::__ndk1::chrono::steady_clock, asio::wait_traits<std::__ndk1::chrono::steady_clock> > >&, std::__ndk1::function<void (std::__ndk1::error_code const&)>&, std::__ndk1::placeholders::__ph<1> const&> >, void (std::__ndk1::error_code const&)>::destroy()
PUBLIC df374 0 std::__ndk1::__function::__func<std::__ndk1::__bind<void (websocketpp::transport::asio::endpoint<websocketpp::config::asio_client::transport_config>::*)(std::__ndk1::shared_ptr<asio::basic_waitable_timer<std::__ndk1::chrono::steady_clock, asio::wait_traits<std::__ndk1::chrono::steady_clock> > >, std::__ndk1::function<void (std::__ndk1::error_code const&)>, std::__ndk1::error_code const&), websocketpp::transport::asio::endpoint<websocketpp::config::asio_client::transport_config>*, std::__ndk1::shared_ptr<asio::basic_waitable_timer<std::__ndk1::chrono::steady_clock, asio::wait_traits<std::__ndk1::chrono::steady_clock> > >&, std::__ndk1::function<void (std::__ndk1::error_code const&)>&, std::__ndk1::placeholders::__ph<1> const&>, std::__ndk1::allocator<std::__ndk1::__bind<void (websocketpp::transport::asio::endpoint<websocketpp::config::asio_client::transport_config>::*)(std::__ndk1::shared_ptr<asio::basic_waitable_timer<std::__ndk1::chrono::steady_clock, asio::wait_traits<std::__ndk1::chrono::steady_clock> > >, std::__ndk1::function<void (std::__ndk1::error_code const&)>, std::__ndk1::error_code const&), websocketpp::transport::asio::endpoint<websocketpp::config::asio_client::transport_config>*, std::__ndk1::shared_ptr<asio::basic_waitable_timer<std::__ndk1::chrono::steady_clock, asio::wait_traits<std::__ndk1::chrono::steady_clock> > >&, std::__ndk1::function<void (std::__ndk1::error_code const&)>&, std::__ndk1::placeholders::__ph<1> const&> >, void (std::__ndk1::error_code const&)>::destroy_deallocate()
PUBLIC df408 0 std::__ndk1::__function::__func<std::__ndk1::__bind<void (websocketpp::transport::asio::endpoint<websocketpp::config::asio_client::transport_config>::*)(std::__ndk1::shared_ptr<asio::basic_waitable_timer<std::__ndk1::chrono::steady_clock, asio::wait_traits<std::__ndk1::chrono::steady_clock> > >, std::__ndk1::function<void (std::__ndk1::error_code const&)>, std::__ndk1::error_code const&), websocketpp::transport::asio::endpoint<websocketpp::config::asio_client::transport_config>*, std::__ndk1::shared_ptr<asio::basic_waitable_timer<std::__ndk1::chrono::steady_clock, asio::wait_traits<std::__ndk1::chrono::steady_clock> > >&, std::__ndk1::function<void (std::__ndk1::error_code const&)>&, std::__ndk1::placeholders::__ph<1> const&>, std::__ndk1::allocator<std::__ndk1::__bind<void (websocketpp::transport::asio::endpoint<websocketpp::config::asio_client::transport_config>::*)(std::__ndk1::shared_ptr<asio::basic_waitable_timer<std::__ndk1::chrono::steady_clock, asio::wait_traits<std::__ndk1::chrono::steady_clock> > >, std::__ndk1::function<void (std::__ndk1::error_code const&)>, std::__ndk1::error_code const&), websocketpp::transport::asio::endpoint<websocketpp::config::asio_client::transport_config>*, std::__ndk1::shared_ptr<asio::basic_waitable_timer<std::__ndk1::chrono::steady_clock, asio::wait_traits<std::__ndk1::chrono::steady_clock> > >&, std::__ndk1::function<void (std::__ndk1::error_code const&)>&, std::__ndk1::placeholders::__ph<1> const&> >, void (std::__ndk1::error_code const&)>::operator()(std::__ndk1::error_code const&)
PUBLIC df424 0 std::__ndk1::__function::__func<std::__ndk1::__bind<void (websocketpp::transport::asio::endpoint<websocketpp::config::asio_client::transport_config>::*)(std::__ndk1::shared_ptr<asio::basic_waitable_timer<std::__ndk1::chrono::steady_clock, asio::wait_traits<std::__ndk1::chrono::steady_clock> > >, std::__ndk1::function<void (std::__ndk1::error_code const&)>, std::__ndk1::error_code const&), websocketpp::transport::asio::endpoint<websocketpp::config::asio_client::transport_config>*, std::__ndk1::shared_ptr<asio::basic_waitable_timer<std::__ndk1::chrono::steady_clock, asio::wait_traits<std::__ndk1::chrono::steady_clock> > >&, std::__ndk1::function<void (std::__ndk1::error_code const&)>&, std::__ndk1::placeholders::__ph<1> const&>, std::__ndk1::allocator<std::__ndk1::__bind<void (websocketpp::transport::asio::endpoint<websocketpp::config::asio_client::transport_config>::*)(std::__ndk1::shared_ptr<asio::basic_waitable_timer<std::__ndk1::chrono::steady_clock, asio::wait_traits<std::__ndk1::chrono::steady_clock> > >, std::__ndk1::function<void (std::__ndk1::error_code const&)>, std::__ndk1::error_code const&), websocketpp::transport::asio::endpoint<websocketpp::config::asio_client::transport_config>*, std::__ndk1::shared_ptr<asio::basic_waitable_timer<std::__ndk1::chrono::steady_clock, asio::wait_traits<std::__ndk1::chrono::steady_clock> > >&, std::__ndk1::function<void (std::__ndk1::error_code const&)>&, std::__ndk1::placeholders::__ph<1> const&> >, void (std::__ndk1::error_code const&)>::target(std::type_info const&) const
PUBLIC df440 0 std::__ndk1::__function::__func<std::__ndk1::__bind<void (websocketpp::transport::asio::endpoint<websocketpp::config::asio_client::transport_config>::*)(std::__ndk1::shared_ptr<asio::basic_waitable_timer<std::__ndk1::chrono::steady_clock, asio::wait_traits<std::__ndk1::chrono::steady_clock> > >, std::__ndk1::function<void (std::__ndk1::error_code const&)>, std::__ndk1::error_code const&), websocketpp::transport::asio::endpoint<websocketpp::config::asio_client::transport_config>*, std::__ndk1::shared_ptr<asio::basic_waitable_timer<std::__ndk1::chrono::steady_clock, asio::wait_traits<std::__ndk1::chrono::steady_clock> > >&, std::__ndk1::function<void (std::__ndk1::error_code const&)>&, std::__ndk1::placeholders::__ph<1> const&>, std::__ndk1::allocator<std::__ndk1::__bind<void (websocketpp::transport::asio::endpoint<websocketpp::config::asio_client::transport_config>::*)(std::__ndk1::shared_ptr<asio::basic_waitable_timer<std::__ndk1::chrono::steady_clock, asio::wait_traits<std::__ndk1::chrono::steady_clock> > >, std::__ndk1::function<void (std::__ndk1::error_code const&)>, std::__ndk1::error_code const&), websocketpp::transport::asio::endpoint<websocketpp::config::asio_client::transport_config>*, std::__ndk1::shared_ptr<asio::basic_waitable_timer<std::__ndk1::chrono::steady_clock, asio::wait_traits<std::__ndk1::chrono::steady_clock> > >&, std::__ndk1::function<void (std::__ndk1::error_code const&)>&, std::__ndk1::placeholders::__ph<1> const&> >, void (std::__ndk1::error_code const&)>::target_type() const
PUBLIC df44c 0 std::__ndk1::__invoke[abi:v170000]<void (websocketpp::transport::asio::endpoint<std::__ndk1::__invoke[abi:v170000]::config::asio_client::transport_config>&::*)(std::__ndk1::shared_ptr<asio::basic_waitable_timer<std::__ndk1::chrono::steady_clock, std::__ndk1::shared_ptr::wait_traits<std::__ndk1::chrono> > >, std::__ndk1::function<void (std::__ndk1::error_code const&)>, std::__ndk1::error_code const), std::__ndk1::__invoke[abi:v170000]::config::asio_client::transport_config*&, asio::basic_waitable_timer<std::__ndk1::chrono::steady_clock, std::__ndk1::shared_ptr::wait_traits<std::__ndk1::chrono> >&, void (&)(std::__ndk1::error_code const&), std::__ndk1::error_code const, void>(std::__ndk1::__invoke[abi:v170000]::config::asio_client::transport_config*&, void (&)(std::__ndk1::error_code const&), void (websocketpp::transport::asio::endpoint<std::__ndk1::__invoke[abi:v170000]::config::asio_client::transport_config>&::*)(std::__ndk1::shared_ptr<asio::basic_waitable_timer<std::__ndk1::chrono::steady_clock, std::__ndk1::shared_ptr::wait_traits<std::__ndk1::chrono> > >, std::__ndk1::function<void (std::__ndk1::error_code const&)>, std::__ndk1::error_code const))
PUBLIC df5ec 0 asio::detail::resolver_service<asio::ip::tcp>::async_resolve<asio::detail::wrapped_handler<asio::io_context::strand, std::__ndk1::__bind<void (websocketpp::transport::asio::endpoint<websocketpp::config::asio_client::transport_config>::*)(std::__ndk1::shared_ptr<websocketpp::transport::asio::connection<websocketpp::config::asio_client::transport_config> >, std::__ndk1::shared_ptr<asio::basic_waitable_timer<std::__ndk1::chrono::steady_clock, asio::wait_traits<std::__ndk1::chrono::steady_clock> > >, std::__ndk1::function<void (std::__ndk1::error_code const&)>, std::__ndk1::error_code const&, asio::ip::basic_resolver_iterator<asio::ip::tcp>), websocketpp::transport::asio::endpoint<websocketpp::config::asio_client::transport_config>*, std::__ndk1::shared_ptr<websocketpp::transport::asio::connection<websocketpp::config::asio_client::transport_config> >&, std::__ndk1::shared_ptr<asio::basic_waitable_timer<std::__ndk1::chrono::steady_clock, asio::wait_traits<std::__ndk1::chrono::steady_clock> > >&, std::__ndk1::function<void (std::__ndk1::error_code const&)>&, std::__ndk1::placeholders::__ph<1> const&, std::__ndk1::placeholders::__ph<2> const&>, asio::detail::is_continuation_if_running> >(std::__ndk1::shared_ptr<void>&, asio::ip::basic_resolver_query<asio::ip::tcp> const&, asio::detail::wrapped_handler<asio::io_context::strand, std::__ndk1::__bind<void (websocketpp::transport::asio::endpoint<websocketpp::config::asio_client::transport_config>::*)(std::__ndk1::shared_ptr<websocketpp::transport::asio::connection<websocketpp::config::asio_client::transport_config> >, std::__ndk1::shared_ptr<asio::basic_waitable_timer<std::__ndk1::chrono::steady_clock, asio::wait_traits<std::__ndk1::chrono::steady_clock> > >, std::__ndk1::function<void (std::__ndk1::error_code const&)>, std::__ndk1::error_code const&, asio::ip::basic_resolver_iterator<asio::ip::tcp>), websocketpp::transport::asio::endpoint<websocketpp::config::asio_client::transport_config>*, std::__ndk1::shared_ptr<websocketpp::transport::asio::connection<websocketpp::config::asio_client::transport_config> >&, std::__ndk1::shared_ptr<asio::basic_waitable_timer<std::__ndk1::chrono::steady_clock, asio::wait_traits<std::__ndk1::chrono::steady_clock> > >&, std::__ndk1::function<void (std::__ndk1::error_code const&)>&, std::__ndk1::placeholders::__ph<1> const&, std::__ndk1::placeholders::__ph<2> const&>, asio::detail::is_continuation_if_running>&)
PUBLIC df7b4 0 asio::detail::resolve_query_op<asio::ip::tcp, asio::detail::wrapped_handler<asio::io_context::strand, std::__ndk1::__bind<void (websocketpp::transport::asio::endpoint<websocketpp::config::asio_client::transport_config>::*)(std::__ndk1::shared_ptr<websocketpp::transport::asio::connection<websocketpp::config::asio_client::transport_config> >, std::__ndk1::shared_ptr<asio::basic_waitable_timer<std::__ndk1::chrono::steady_clock, asio::wait_traits<std::__ndk1::chrono::steady_clock> > >, std::__ndk1::function<void (std::__ndk1::error_code const&)>, std::__ndk1::error_code const&, asio::ip::basic_resolver_iterator<asio::ip::tcp>), websocketpp::transport::asio::endpoint<websocketpp::config::asio_client::transport_config>*, std::__ndk1::shared_ptr<websocketpp::transport::asio::connection<websocketpp::config::asio_client::transport_config> >&, std::__ndk1::shared_ptr<asio::basic_waitable_timer<std::__ndk1::chrono::steady_clock, asio::wait_traits<std::__ndk1::chrono::steady_clock> > >&, std::__ndk1::function<void (std::__ndk1::error_code const&)>&, std::__ndk1::placeholders::__ph<1> const&, std::__ndk1::placeholders::__ph<2> const&>, asio::detail::is_continuation_if_running> >::resolve_query_op(std::__ndk1::weak_ptr<void>, asio::ip::basic_resolver_query<asio::ip::tcp> const&, asio::detail::scheduler&, asio::detail::wrapped_handler<asio::io_context::strand, std::__ndk1::__bind<void (websocketpp::transport::asio::endpoint<websocketpp::config::asio_client::transport_config>::*)(std::__ndk1::shared_ptr<websocketpp::transport::asio::connection<websocketpp::config::asio_client::transport_config> >, std::__ndk1::shared_ptr<asio::basic_waitable_timer<std::__ndk1::chrono::steady_clock, asio::wait_traits<std::__ndk1::chrono::steady_clock> > >, std::__ndk1::function<void (std::__ndk1::error_code const&)>, std::__ndk1::error_code const&, asio::ip::basic_resolver_iterator<asio::ip::tcp>), websocketpp::transport::asio::endpoint<websocketpp::config::asio_client::transport_config>*, std::__ndk1::shared_ptr<websocketpp::transport::asio::connection<websocketpp::config::asio_client::transport_config> >&, std::__ndk1::shared_ptr<asio::basic_waitable_timer<std::__ndk1::chrono::steady_clock, asio::wait_traits<std::__ndk1::chrono::steady_clock> > >&, std::__ndk1::function<void (std::__ndk1::error_code const&)>&, std::__ndk1::placeholders::__ph<1> const&, std::__ndk1::placeholders::__ph<2> const&>, asio::detail::is_continuation_if_running>&)
PUBLIC df920 0 asio::detail::resolve_query_op<asio::ip::tcp, asio::detail::wrapped_handler<asio::io_context::strand, std::__ndk1::__bind<void (websocketpp::transport::asio::endpoint<websocketpp::config::asio_client::transport_config>::*)(std::__ndk1::shared_ptr<websocketpp::transport::asio::connection<websocketpp::config::asio_client::transport_config> >, std::__ndk1::shared_ptr<asio::basic_waitable_timer<std::__ndk1::chrono::steady_clock, asio::wait_traits<std::__ndk1::chrono::steady_clock> > >, std::__ndk1::function<void (std::__ndk1::error_code const&)>, std::__ndk1::error_code const&, asio::ip::basic_resolver_iterator<asio::ip::tcp>), websocketpp::transport::asio::endpoint<websocketpp::config::asio_client::transport_config>*, std::__ndk1::shared_ptr<websocketpp::transport::asio::connection<websocketpp::config::asio_client::transport_config> >&, std::__ndk1::shared_ptr<asio::basic_waitable_timer<std::__ndk1::chrono::steady_clock, asio::wait_traits<std::__ndk1::chrono::steady_clock> > >&, std::__ndk1::function<void (std::__ndk1::error_code const&)>&, std::__ndk1::placeholders::__ph<1> const&, std::__ndk1::placeholders::__ph<2> const&>, asio::detail::is_continuation_if_running> >::ptr::~ptr()
PUBLIC df974 0 asio::detail::resolve_query_op<asio::ip::tcp, asio::detail::wrapped_handler<asio::io_context::strand, std::__ndk1::__bind<void (websocketpp::transport::asio::endpoint<websocketpp::config::asio_client::transport_config>::*)(std::__ndk1::shared_ptr<websocketpp::transport::asio::connection<websocketpp::config::asio_client::transport_config> >, std::__ndk1::shared_ptr<asio::basic_waitable_timer<std::__ndk1::chrono::steady_clock, asio::wait_traits<std::__ndk1::chrono::steady_clock> > >, std::__ndk1::function<void (std::__ndk1::error_code const&)>, std::__ndk1::error_code const&, asio::ip::basic_resolver_iterator<asio::ip::tcp>), websocketpp::transport::asio::endpoint<websocketpp::config::asio_client::transport_config>*, std::__ndk1::shared_ptr<websocketpp::transport::asio::connection<websocketpp::config::asio_client::transport_config> >&, std::__ndk1::shared_ptr<asio::basic_waitable_timer<std::__ndk1::chrono::steady_clock, asio::wait_traits<std::__ndk1::chrono::steady_clock> > >&, std::__ndk1::function<void (std::__ndk1::error_code const&)>&, std::__ndk1::placeholders::__ph<1> const&, std::__ndk1::placeholders::__ph<2> const&>, asio::detail::is_continuation_if_running> >::do_complete(void*, asio::detail::scheduler_operation*, std::__ndk1::error_code const&, unsigned long)
PUBLIC m dff40 0 asio::detail::scheduler::post_deferred_completion(asio::detail::scheduler_operation*)
PUBLIC m e00f8 0 asio::ip::basic_resolver_iterator<asio::ip::tcp>::~basic_resolver_iterator()
PUBLIC m e0148 0 asio::ip::basic_resolver_results<asio::ip::tcp>::create(addrinfo*, std::__ndk1::basic_string<char, std::__ndk1::char_traits<char>, std::__ndk1::allocator<char> > const&, std::__ndk1::basic_string<char, std::__ndk1::char_traits<char>, std::__ndk1::allocator<char> > const&)
PUBLIC e03b4 0 asio::detail::binder2<asio::detail::wrapped_handler<asio::io_context::strand, std::__ndk1::__bind<void (websocketpp::transport::asio::endpoint<websocketpp::config::asio_client::transport_config>::*)(std::__ndk1::shared_ptr<websocketpp::transport::asio::connection<websocketpp::config::asio_client::transport_config> >, std::__ndk1::shared_ptr<asio::basic_waitable_timer<std::__ndk1::chrono::steady_clock, asio::wait_traits<std::__ndk1::chrono::steady_clock> > >, std::__ndk1::function<void (std::__ndk1::error_code const&)>, std::__ndk1::error_code const&, asio::ip::basic_resolver_iterator<asio::ip::tcp>), websocketpp::transport::asio::endpoint<websocketpp::config::asio_client::transport_config>*, std::__ndk1::shared_ptr<websocketpp::transport::asio::connection<websocketpp::config::asio_client::transport_config> >&, std::__ndk1::shared_ptr<asio::basic_waitable_timer<std::__ndk1::chrono::steady_clock, asio::wait_traits<std::__ndk1::chrono::steady_clock> > >&, std::__ndk1::function<void (std::__ndk1::error_code const&)>&, std::__ndk1::placeholders::__ph<1> const&, std::__ndk1::placeholders::__ph<2> const&>, asio::detail::is_continuation_if_running>, std::__ndk1::error_code, asio::ip::basic_resolver_results<asio::ip::tcp> >::~binder2()
PUBLIC m e04b4 0 asio::detail::socket_ops::translate_addrinfo_error(int)
PUBLIC e097c 0 std::__ndk1::shared_ptr<std::__ndk1::vector<asio::ip::basic_resolver_entry<asio::ip::tcp>, std::__ndk1::allocator<asio::ip::basic_resolver_entry<asio::ip::tcp> > > >::reset[abi:v170000]<std::__ndk1::vector<asio::ip::basic_resolver_entry<asio::ip::tcp>, std::__ndk1::allocator<asio::ip::basic_resolver_entry<asio::ip::tcp> > >, void>(std::__ndk1::vector<asio::ip::basic_resolver_entry<asio::ip::tcp>, std::__ndk1::allocator<asio::ip::basic_resolver_entry<asio::ip::tcp> > >*)
PUBLIC m e0a8c 0 asio::ip::basic_resolver_entry<asio::ip::tcp>::~basic_resolver_entry()
PUBLIC e0ad0 0 std::__ndk1::__shared_ptr_pointer<std::__ndk1::vector<asio::ip::basic_resolver_entry<asio::ip::tcp>, std::__ndk1::allocator<asio::ip::basic_resolver_entry<asio::ip::tcp> > >*, std::__ndk1::shared_ptr<std::__ndk1::vector<asio::ip::basic_resolver_entry<asio::ip::tcp>, std::__ndk1::allocator<asio::ip::basic_resolver_entry<asio::ip::tcp> > > >::__shared_ptr_default_delete<std::__ndk1::vector<asio::ip::basic_resolver_entry<asio::ip::tcp>, std::__ndk1::allocator<asio::ip::basic_resolver_entry<asio::ip::tcp> > >, std::__ndk1::vector<asio::ip::basic_resolver_entry<asio::ip::tcp>, std::__ndk1::allocator<asio::ip::basic_resolver_entry<asio::ip::tcp> > > >, std::__ndk1::allocator<std::__ndk1::vector<asio::ip::basic_resolver_entry<asio::ip::tcp>, std::__ndk1::allocator<asio::ip::basic_resolver_entry<asio::ip::tcp> > > > >::~__shared_ptr_pointer()
PUBLIC e0af4 0 std::__ndk1::__shared_ptr_pointer<std::__ndk1::vector<asio::ip::basic_resolver_entry<asio::ip::tcp>, std::__ndk1::allocator<asio::ip::basic_resolver_entry<asio::ip::tcp> > >*, std::__ndk1::shared_ptr<std::__ndk1::vector<asio::ip::basic_resolver_entry<asio::ip::tcp>, std::__ndk1::allocator<asio::ip::basic_resolver_entry<asio::ip::tcp> > > >::__shared_ptr_default_delete<std::__ndk1::vector<asio::ip::basic_resolver_entry<asio::ip::tcp>, std::__ndk1::allocator<asio::ip::basic_resolver_entry<asio::ip::tcp> > >, std::__ndk1::vector<asio::ip::basic_resolver_entry<asio::ip::tcp>, std::__ndk1::allocator<asio::ip::basic_resolver_entry<asio::ip::tcp> > > >, std::__ndk1::allocator<std::__ndk1::vector<asio::ip::basic_resolver_entry<asio::ip::tcp>, std::__ndk1::allocator<asio::ip::basic_resolver_entry<asio::ip::tcp> > > > >::__on_zero_shared()
PUBLIC e0b9c 0 std::__ndk1::__shared_ptr_pointer<std::__ndk1::vector<asio::ip::basic_resolver_entry<asio::ip::tcp>, std::__ndk1::allocator<asio::ip::basic_resolver_entry<asio::ip::tcp> > >*, std::__ndk1::shared_ptr<std::__ndk1::vector<asio::ip::basic_resolver_entry<asio::ip::tcp>, std::__ndk1::allocator<asio::ip::basic_resolver_entry<asio::ip::tcp> > > >::__shared_ptr_default_delete<std::__ndk1::vector<asio::ip::basic_resolver_entry<asio::ip::tcp>, std::__ndk1::allocator<asio::ip::basic_resolver_entry<asio::ip::tcp> > >, std::__ndk1::vector<asio::ip::basic_resolver_entry<asio::ip::tcp>, std::__ndk1::allocator<asio::ip::basic_resolver_entry<asio::ip::tcp> > > >, std::__ndk1::allocator<std::__ndk1::vector<asio::ip::basic_resolver_entry<asio::ip::tcp>, std::__ndk1::allocator<asio::ip::basic_resolver_entry<asio::ip::tcp> > > > >::__get_deleter(std::type_info const&) const
PUBLIC e0bb8 0 std::__ndk1::__shared_ptr_pointer<std::__ndk1::vector<asio::ip::basic_resolver_entry<asio::ip::tcp>, std::__ndk1::allocator<asio::ip::basic_resolver_entry<asio::ip::tcp> > >*, std::__ndk1::shared_ptr<std::__ndk1::vector<asio::ip::basic_resolver_entry<asio::ip::tcp>, std::__ndk1::allocator<asio::ip::basic_resolver_entry<asio::ip::tcp> > > >::__shared_ptr_default_delete<std::__ndk1::vector<asio::ip::basic_resolver_entry<asio::ip::tcp>, std::__ndk1::allocator<asio::ip::basic_resolver_entry<asio::ip::tcp> > >, std::__ndk1::vector<asio::ip::basic_resolver_entry<asio::ip::tcp>, std::__ndk1::allocator<asio::ip::basic_resolver_entry<asio::ip::tcp> > > >, std::__ndk1::allocator<std::__ndk1::vector<asio::ip::basic_resolver_entry<asio::ip::tcp>, std::__ndk1::allocator<asio::ip::basic_resolver_entry<asio::ip::tcp> > > > >::__on_zero_shared_weak()
PUBLIC e0bbc 0 std::__ndk1::vector<asio::ip::basic_resolver_entry<asio::ip::tcp>, std::__ndk1::allocator<asio::ip::basic_resolver_entry<asio::ip::tcp> > >::__push_back_slow_path<asio::ip::basic_resolver_entry<asio::ip::tcp> >(asio::ip::basic_resolver_entry<asio::ip::tcp>&&)
PUBLIC e0da0 0 std::__ndk1::vector<asio::ip::basic_resolver_entry<asio::ip::tcp>, std::__ndk1::allocator<asio::ip::basic_resolver_entry<asio::ip::tcp> > >::__swap_out_circular_buffer(std::__ndk1::__split_buffer<asio::ip::basic_resolver_entry<asio::ip::tcp>, std::__ndk1::allocator<asio::ip::basic_resolver_entry<asio::ip::tcp> >&>&)
PUBLIC e0ed4 0 std::__ndk1::__split_buffer<asio::ip::basic_resolver_entry<asio::ip::tcp>, std::__ndk1::allocator<asio::ip::basic_resolver_entry<asio::ip::tcp> >&>::~__split_buffer()
PUBLIC e0f50 0 std::__ndk1::vector<asio::ip::basic_resolver_entry<asio::ip::tcp>, std::__ndk1::allocator<asio::ip::basic_resolver_entry<asio::ip::tcp> > >::__throw_length_error[abi:v170000]() const
PUBLIC e0f64 0 asio::detail::resolve_query_op<asio::ip::tcp, asio::detail::wrapped_handler<asio::io_context::strand, std::__ndk1::__bind<void (websocketpp::transport::asio::endpoint<websocketpp::config::asio_client::transport_config>::*)(std::__ndk1::shared_ptr<websocketpp::transport::asio::connection<websocketpp::config::asio_client::transport_config> >, std::__ndk1::shared_ptr<asio::basic_waitable_timer<std::__ndk1::chrono::steady_clock, asio::wait_traits<std::__ndk1::chrono::steady_clock> > >, std::__ndk1::function<void (std::__ndk1::error_code const&)>, std::__ndk1::error_code const&, asio::ip::basic_resolver_iterator<asio::ip::tcp>), websocketpp::transport::asio::endpoint<websocketpp::config::asio_client::transport_config>*, std::__ndk1::shared_ptr<websocketpp::transport::asio::connection<websocketpp::config::asio_client::transport_config> >&, std::__ndk1::shared_ptr<asio::basic_waitable_timer<std::__ndk1::chrono::steady_clock, asio::wait_traits<std::__ndk1::chrono::steady_clock> > >&, std::__ndk1::function<void (std::__ndk1::error_code const&)>&, std::__ndk1::placeholders::__ph<1> const&, std::__ndk1::placeholders::__ph<2> const&>, asio::detail::is_continuation_if_running> >::~resolve_query_op()
PUBLIC e1070 0 _ZN4asio6detail17rewrapped_handlerINS0_7binder2INS0_15wrapped_handlerINS_10io_context6strandENSt6__ndk16__bindIMN11websocketpp9transport4asio8endpointINS8_6config11asio_client16transport_configEEEFvNS6_10shared_ptrINSA_10connectionISE_EEEENSG_INS_20basic_waitable_timerINS6_6chrono12steady_clockENS_11wait_traitsISM_EEEEEENS6_8functionIFvRKNS6_10error_codeEEEESU_NS_2ip23basic_resolver_iteratorINSX_3tcpEEEEJPSF_RSJ_RSQ_RSW_RKNS6_12placeholders4__phILi1EEERKNS18_ILi2EEEEEENS0_26is_continuation_if_runningEEESS_NSX_22basic_resolver_resultsISZ_EEEES1F_EC2ERS1K_RKS1F_
PUBLIC e1140 0 asio::detail::rewrapped_handler<asio::detail::binder2<asio::detail::wrapped_handler<asio::io_context::strand, std::__ndk1::__bind<void (websocketpp::transport::asio::endpoint<websocketpp::config::asio_client::transport_config>::*)(std::__ndk1::shared_ptr<websocketpp::transport::asio::connection<websocketpp::config::asio_client::transport_config> >, std::__ndk1::shared_ptr<asio::basic_waitable_timer<std::__ndk1::chrono::steady_clock, asio::wait_traits<std::__ndk1::chrono::steady_clock> > >, std::__ndk1::function<void (std::__ndk1::error_code const&)>, std::__ndk1::error_code const&, asio::ip::basic_resolver_iterator<asio::ip::tcp>), websocketpp::transport::asio::endpoint<websocketpp::config::asio_client::transport_config>*, std::__ndk1::shared_ptr<websocketpp::transport::asio::connection<websocketpp::config::asio_client::transport_config> >&, std::__ndk1::shared_ptr<asio::basic_waitable_timer<std::__ndk1::chrono::steady_clock, asio::wait_traits<std::__ndk1::chrono::steady_clock> > >&, std::__ndk1::function<void (std::__ndk1::error_code const&)>&, std::__ndk1::placeholders::__ph<1> const&, std::__ndk1::placeholders::__ph<2> const&>, asio::detail::is_continuation_if_running>, std::__ndk1::error_code, asio::ip::basic_resolver_results<asio::ip::tcp> >, std::__ndk1::__bind<void (websocketpp::transport::asio::endpoint<websocketpp::config::asio_client::transport_config>::*)(std::__ndk1::shared_ptr<websocketpp::transport::asio::connection<websocketpp::config::asio_client::transport_config> >, std::__ndk1::shared_ptr<asio::basic_waitable_timer<std::__ndk1::chrono::steady_clock, asio::wait_traits<std::__ndk1::chrono::steady_clock> > >, std::__ndk1::function<void (std::__ndk1::error_code const&)>, std::__ndk1::error_code const&, asio::ip::basic_resolver_iterator<asio::ip::tcp>), websocketpp::transport::asio::endpoint<websocketpp::config::asio_client::transport_config>*, std::__ndk1::shared_ptr<websocketpp::transport::asio::connection<websocketpp::config::asio_client::transport_config> >&, std::__ndk1::shared_ptr<asio::basic_waitable_timer<std::__ndk1::chrono::steady_clock, asio::wait_traits<std::__ndk1::chrono::steady_clock> > >&, std::__ndk1::function<void (std::__ndk1::error_code const&)>&, std::__ndk1::placeholders::__ph<1> const&, std::__ndk1::placeholders::__ph<2> const&> >::~rewrapped_handler()
PUBLIC e12e0 0 _ZN4asio6detail14strand_service8dispatchINS0_17rewrapped_handlerINS0_7binder2INS0_15wrapped_handlerINS_10io_context6strandENSt6__ndk16__bindIMN11websocketpp9transport4asio8endpointINSA_6config11asio_client16transport_configEEEFvNS8_10shared_ptrINSC_10connectionISG_EEEENSI_INS_20basic_waitable_timerINS8_6chrono12steady_clockENS_11wait_traitsISO_EEEEEENS8_8functionIFvRKNS8_10error_codeEEEESW_NS_2ip23basic_resolver_iteratorINSZ_3tcpEEEEJPSH_RSL_RSS_RSY_RKNS8_12placeholders4__phILi1EEERKNS1A_ILi2EEEEEENS0_26is_continuation_if_runningEEESU_NSZ_22basic_resolver_resultsIS11_EEEES1H_EEEEvRPNS1_11strand_implERT_
PUBLIC e1560 0 asio::detail::completion_handler<asio::detail::rewrapped_handler<asio::detail::binder2<asio::detail::wrapped_handler<asio::io_context::strand, std::__ndk1::__bind<void (websocketpp::transport::asio::endpoint<websocketpp::config::asio_client::transport_config>::*)(std::__ndk1::shared_ptr<websocketpp::transport::asio::connection<websocketpp::config::asio_client::transport_config> >, std::__ndk1::shared_ptr<asio::basic_waitable_timer<std::__ndk1::chrono::steady_clock, asio::wait_traits<std::__ndk1::chrono::steady_clock> > >, std::__ndk1::function<void (std::__ndk1::error_code const&)>, std::__ndk1::error_code const&, asio::ip::basic_resolver_iterator<asio::ip::tcp>), websocketpp::transport::asio::endpoint<websocketpp::config::asio_client::transport_config>*, std::__ndk1::shared_ptr<websocketpp::transport::asio::connection<websocketpp::config::asio_client::transport_config> >&, std::__ndk1::shared_ptr<asio::basic_waitable_timer<std::__ndk1::chrono::steady_clock, asio::wait_traits<std::__ndk1::chrono::steady_clock> > >&, std::__ndk1::function<void (std::__ndk1::error_code const&)>&, std::__ndk1::placeholders::__ph<1> const&, std::__ndk1::placeholders::__ph<2> const&>, asio::detail::is_continuation_if_running>, std::__ndk1::error_code, asio::ip::basic_resolver_results<asio::ip::tcp> >, std::__ndk1::__bind<void (websocketpp::transport::asio::endpoint<websocketpp::config::asio_client::transport_config>::*)(std::__ndk1::shared_ptr<websocketpp::transport::asio::connection<websocketpp::config::asio_client::transport_config> >, std::__ndk1::shared_ptr<asio::basic_waitable_timer<std::__ndk1::chrono::steady_clock, asio::wait_traits<std::__ndk1::chrono::steady_clock> > >, std::__ndk1::function<void (std::__ndk1::error_code const&)>, std::__ndk1::error_code const&, asio::ip::basic_resolver_iterator<asio::ip::tcp>), websocketpp::transport::asio::endpoint<websocketpp::config::asio_client::transport_config>*, std::__ndk1::shared_ptr<websocketpp::transport::asio::connection<websocketpp::config::asio_client::transport_config> >&, std::__ndk1::shared_ptr<asio::basic_waitable_timer<std::__ndk1::chrono::steady_clock, asio::wait_traits<std::__ndk1::chrono::steady_clock> > >&, std::__ndk1::function<void (std::__ndk1::error_code const&)>&, std::__ndk1::placeholders::__ph<1> const&, std::__ndk1::placeholders::__ph<2> const&> > >::do_complete(void*, asio::detail::scheduler_operation*, std::__ndk1::error_code const&, unsigned long)
PUBLIC e1668 0 asio::detail::completion_handler<asio::detail::rewrapped_handler<asio::detail::binder2<asio::detail::wrapped_handler<asio::io_context::strand, std::__ndk1::__bind<void (websocketpp::transport::asio::endpoint<websocketpp::config::asio_client::transport_config>::*)(std::__ndk1::shared_ptr<websocketpp::transport::asio::connection<websocketpp::config::asio_client::transport_config> >, std::__ndk1::shared_ptr<asio::basic_waitable_timer<std::__ndk1::chrono::steady_clock, asio::wait_traits<std::__ndk1::chrono::steady_clock> > >, std::__ndk1::function<void (std::__ndk1::error_code const&)>, std::__ndk1::error_code const&, asio::ip::basic_resolver_iterator<asio::ip::tcp>), websocketpp::transport::asio::endpoint<websocketpp::config::asio_client::transport_config>*, std::__ndk1::shared_ptr<websocketpp::transport::asio::connection<websocketpp::config::asio_client::transport_config> >&, std::__ndk1::shared_ptr<asio::basic_waitable_timer<std::__ndk1::chrono::steady_clock, asio::wait_traits<std::__ndk1::chrono::steady_clock> > >&, std::__ndk1::function<void (std::__ndk1::error_code const&)>&, std::__ndk1::placeholders::__ph<1> const&, std::__ndk1::placeholders::__ph<2> const&>, asio::detail::is_continuation_if_running>, std::__ndk1::error_code, asio::ip::basic_resolver_results<asio::ip::tcp> >, std::__ndk1::__bind<void (websocketpp::transport::asio::endpoint<websocketpp::config::asio_client::transport_config>::*)(std::__ndk1::shared_ptr<websocketpp::transport::asio::connection<websocketpp::config::asio_client::transport_config> >, std::__ndk1::shared_ptr<asio::basic_waitable_timer<std::__ndk1::chrono::steady_clock, asio::wait_traits<std::__ndk1::chrono::steady_clock> > >, std::__ndk1::function<void (std::__ndk1::error_code const&)>, std::__ndk1::error_code const&, asio::ip::basic_resolver_iterator<asio::ip::tcp>), websocketpp::transport::asio::endpoint<websocketpp::config::asio_client::transport_config>*, std::__ndk1::shared_ptr<websocketpp::transport::asio::connection<websocketpp::config::asio_client::transport_config> >&, std::__ndk1::shared_ptr<asio::basic_waitable_timer<std::__ndk1::chrono::steady_clock, asio::wait_traits<std::__ndk1::chrono::steady_clock> > >&, std::__ndk1::function<void (std::__ndk1::error_code const&)>&, std::__ndk1::placeholders::__ph<1> const&, std::__ndk1::placeholders::__ph<2> const&> > >::ptr::~ptr()
PUBLIC e16c0 0 asio::detail::wrapped_handler<asio::io_context::strand, std::__ndk1::__bind<void (websocketpp::transport::asio::endpoint<websocketpp::config::asio_client::transport_config>::*)(std::__ndk1::shared_ptr<websocketpp::transport::asio::connection<websocketpp::config::asio_client::transport_config> >, std::__ndk1::shared_ptr<asio::basic_waitable_timer<std::__ndk1::chrono::steady_clock, asio::wait_traits<std::__ndk1::chrono::steady_clock> > >, std::__ndk1::function<void (std::__ndk1::error_code const&)>, std::__ndk1::error_code const&, asio::ip::basic_resolver_iterator<asio::ip::tcp>), websocketpp::transport::asio::endpoint<websocketpp::config::asio_client::transport_config>*, std::__ndk1::shared_ptr<websocketpp::transport::asio::connection<websocketpp::config::asio_client::transport_config> >&, std::__ndk1::shared_ptr<asio::basic_waitable_timer<std::__ndk1::chrono::steady_clock, asio::wait_traits<std::__ndk1::chrono::steady_clock> > >&, std::__ndk1::function<void (std::__ndk1::error_code const&)>&, std::__ndk1::placeholders::__ph<1> const&, std::__ndk1::placeholders::__ph<2> const&>, asio::detail::is_continuation_if_running>::operator()<std::__ndk1::error_code, asio::ip::basic_resolver_results<asio::ip::tcp> >(std::__ndk1::error_code const&, asio::ip::basic_resolver_results<asio::ip::tcp> const&)
PUBLIC e1864 0 asio::detail::binder2<std::__ndk1::__bind<void (websocketpp::transport::asio::endpoint<websocketpp::config::asio_client::transport_config>::*)(std::__ndk1::shared_ptr<websocketpp::transport::asio::connection<websocketpp::config::asio_client::transport_config> >, std::__ndk1::shared_ptr<asio::basic_waitable_timer<std::__ndk1::chrono::steady_clock, asio::wait_traits<std::__ndk1::chrono::steady_clock> > >, std::__ndk1::function<void (std::__ndk1::error_code const&)>, std::__ndk1::error_code const&, asio::ip::basic_resolver_iterator<asio::ip::tcp>), websocketpp::transport::asio::endpoint<websocketpp::config::asio_client::transport_config>*, std::__ndk1::shared_ptr<websocketpp::transport::asio::connection<websocketpp::config::asio_client::transport_config> >&, std::__ndk1::shared_ptr<asio::basic_waitable_timer<std::__ndk1::chrono::steady_clock, asio::wait_traits<std::__ndk1::chrono::steady_clock> > >&, std::__ndk1::function<void (std::__ndk1::error_code const&)>&, std::__ndk1::placeholders::__ph<1> const&, std::__ndk1::placeholders::__ph<2> const&>, std::__ndk1::error_code, asio::ip::basic_resolver_results<asio::ip::tcp> >::~binder2()
PUBLIC e1964 0 asio::detail::strand_service::dispatch<asio::detail::binder2<std::__ndk1::__bind<void (websocketpp::transport::asio::endpoint<websocketpp::config::asio_client::transport_config>::*)(std::__ndk1::shared_ptr<websocketpp::transport::asio::connection<websocketpp::config::asio_client::transport_config> >, std::__ndk1::shared_ptr<asio::basic_waitable_timer<std::__ndk1::chrono::steady_clock, asio::wait_traits<std::__ndk1::chrono::steady_clock> > >, std::__ndk1::function<void (std::__ndk1::error_code const&)>, std::__ndk1::error_code const&, asio::ip::basic_resolver_iterator<asio::ip::tcp>), websocketpp::transport::asio::endpoint<websocketpp::config::asio_client::transport_config>*, std::__ndk1::shared_ptr<websocketpp::transport::asio::connection<websocketpp::config::asio_client::transport_config> >&, std::__ndk1::shared_ptr<asio::basic_waitable_timer<std::__ndk1::chrono::steady_clock, asio::wait_traits<std::__ndk1::chrono::steady_clock> > >&, std::__ndk1::function<void (std::__ndk1::error_code const&)>&, std::__ndk1::placeholders::__ph<1> const&, std::__ndk1::placeholders::__ph<2> const&>, std::__ndk1::error_code, asio::ip::basic_resolver_results<asio::ip::tcp> > >(asio::detail::strand_service::strand_impl*&, asio::detail::binder2<std::__ndk1::__bind<void (websocketpp::transport::asio::endpoint<websocketpp::config::asio_client::transport_config>::*)(std::__ndk1::shared_ptr<websocketpp::transport::asio::connection<websocketpp::config::asio_client::transport_config> >, std::__ndk1::shared_ptr<asio::basic_waitable_timer<std::__ndk1::chrono::steady_clock, asio::wait_traits<std::__ndk1::chrono::steady_clock> > >, std::__ndk1::function<void (std::__ndk1::error_code const&)>, std::__ndk1::error_code const&, asio::ip::basic_resolver_iterator<asio::ip::tcp>), websocketpp::transport::asio::endpoint<websocketpp::config::asio_client::transport_config>*, std::__ndk1::shared_ptr<websocketpp::transport::asio::connection<websocketpp::config::asio_client::transport_config> >&, std::__ndk1::shared_ptr<asio::basic_waitable_timer<std::__ndk1::chrono::steady_clock, asio::wait_traits<std::__ndk1::chrono::steady_clock> > >&, std::__ndk1::function<void (std::__ndk1::error_code const&)>&, std::__ndk1::placeholders::__ph<1> const&, std::__ndk1::placeholders::__ph<2> const&>, std::__ndk1::error_code, asio::ip::basic_resolver_results<asio::ip::tcp> >&)
PUBLIC e1c68 0 asio::detail::completion_handler<asio::detail::binder2<std::__ndk1::__bind<void (websocketpp::transport::asio::endpoint<websocketpp::config::asio_client::transport_config>::*)(std::__ndk1::shared_ptr<websocketpp::transport::asio::connection<websocketpp::config::asio_client::transport_config> >, std::__ndk1::shared_ptr<asio::basic_waitable_timer<std::__ndk1::chrono::steady_clock, asio::wait_traits<std::__ndk1::chrono::steady_clock> > >, std::__ndk1::function<void (std::__ndk1::error_code const&)>, std::__ndk1::error_code const&, asio::ip::basic_resolver_iterator<asio::ip::tcp>), websocketpp::transport::asio::endpoint<websocketpp::config::asio_client::transport_config>*, std::__ndk1::shared_ptr<websocketpp::transport::asio::connection<websocketpp::config::asio_client::transport_config> >&, std::__ndk1::shared_ptr<asio::basic_waitable_timer<std::__ndk1::chrono::steady_clock, asio::wait_traits<std::__ndk1::chrono::steady_clock> > >&, std::__ndk1::function<void (std::__ndk1::error_code const&)>&, std::__ndk1::placeholders::__ph<1> const&, std::__ndk1::placeholders::__ph<2> const&>, std::__ndk1::error_code, asio::ip::basic_resolver_results<asio::ip::tcp> > >::do_complete(void*, asio::detail::scheduler_operation*, std::__ndk1::error_code const&, unsigned long)
PUBLIC e1ea8 0 std::__ndk1::__invoke[abi:v170000]<void (websocketpp::transport::asio::endpoint<std::__ndk1::__invoke[abi:v170000]::config::asio_client::transport_config>&::*)(std::__ndk1::shared_ptr<websocketpp::transport::connection<std::__ndk1::__invoke[abi:v170000]::config::asio_client> >, websocketpp::transport::asio::endpoint<std::__ndk1::__invoke[abi:v170000]::config::asio_client::transport_config><asio::basic_waitable_timer<std::__ndk1::chrono::steady_clock, std::__ndk1::shared_ptr<websocketpp::transport::connection<std::__ndk1::__invoke[abi:v170000]::config::asio_client> >::wait_traits<std::__ndk1::chrono> > >, std::__ndk1::function<void (std::__ndk1::error_code const&)>, std::__ndk1::error_code const, std::__ndk1::shared_ptr<websocketpp::transport::connection<std::__ndk1::__invoke[abi:v170000]::config::asio_client> >::ip::basic_resolver_iterator<std::__ndk1::function<void (std::__ndk1::error_code const&)>::tcp>), std::__ndk1::__invoke[abi:v170000]::config::asio_client::transport_config*&, websocketpp::transport::connection<std::__ndk1::__invoke[abi:v170000]::config::asio_client>&, asio::basic_waitable_timer<std::__ndk1::chrono::steady_clock, std::__ndk1::shared_ptr<websocketpp::transport::connection<std::__ndk1::__invoke[abi:v170000]::config::asio_client> >::wait_traits<std::__ndk1::chrono> >&, void (&)(std::__ndk1::error_code const&), std::__ndk1::error_code const, std::__ndk1::function<void (std::__ndk1::error_code const&)> const::basic_resolver_results<std::__ndk1::shared_ptr<websocketpp::transport::connection<std::__ndk1::__invoke[abi:v170000]::config::asio_client> >::ip::basic_resolver_iterator>&, void>(std::__ndk1::__invoke[abi:v170000]::config::asio_client::transport_config*&, std::__ndk1::function<void (std::__ndk1::error_code const&)> const::basic_resolver_results<std::__ndk1::shared_ptr<websocketpp::transport::connection<std::__ndk1::__invoke[abi:v170000]::config::asio_client> >::ip::basic_resolver_iterator>&, void (websocketpp::transport::asio::endpoint<std::__ndk1::__invoke[abi:v170000]::config::asio_client::transport_config>&::*)(std::__ndk1::shared_ptr<websocketpp::transport::connection<std::__ndk1::__invoke[abi:v170000]::config::asio_client> >, websocketpp::transport::asio::endpoint<std::__ndk1::__invoke[abi:v170000]::config::asio_client::transport_config><asio::basic_waitable_timer<std::__ndk1::chrono::steady_clock, std::__ndk1::shared_ptr<websocketpp::transport::connection<std::__ndk1::__invoke[abi:v170000]::config::asio_client> >::wait_traits<std::__ndk1::chrono> > >, std::__ndk1::function<void (std::__ndk1::error_code const&)>, std::__ndk1::error_code const, std::__ndk1::shared_ptr<websocketpp::transport::connection<std::__ndk1::__invoke[abi:v170000]::config::asio_client> >::ip::basic_resolver_iterator<std::__ndk1::function<void (std::__ndk1::error_code const&)>::tcp>))
PUBLIC e2118 0 asio::detail::completion_handler<asio::detail::binder2<std::__ndk1::__bind<void (websocketpp::transport::asio::endpoint<websocketpp::config::asio_client::transport_config>::*)(std::__ndk1::shared_ptr<websocketpp::transport::asio::connection<websocketpp::config::asio_client::transport_config> >, std::__ndk1::shared_ptr<asio::basic_waitable_timer<std::__ndk1::chrono::steady_clock, asio::wait_traits<std::__ndk1::chrono::steady_clock> > >, std::__ndk1::function<void (std::__ndk1::error_code const&)>, std::__ndk1::error_code const&, asio::ip::basic_resolver_iterator<asio::ip::tcp>), websocketpp::transport::asio::endpoint<websocketpp::config::asio_client::transport_config>*, std::__ndk1::shared_ptr<websocketpp::transport::asio::connection<websocketpp::config::asio_client::transport_config> >&, std::__ndk1::shared_ptr<asio::basic_waitable_timer<std::__ndk1::chrono::steady_clock, asio::wait_traits<std::__ndk1::chrono::steady_clock> > >&, std::__ndk1::function<void (std::__ndk1::error_code const&)>&, std::__ndk1::placeholders::__ph<1> const&, std::__ndk1::placeholders::__ph<2> const&>, std::__ndk1::error_code, asio::ip::basic_resolver_results<asio::ip::tcp> > >::ptr::reset()
PUBLIC e2270 0 std::__ndk1::tuple<websocketpp::transport::asio::endpoint<websocketpp::config::asio_client::transport_config>*, std::__ndk1::shared_ptr<websocketpp::transport::asio::connection<websocketpp::config::asio_client::transport_config> >, std::__ndk1::shared_ptr<asio::basic_waitable_timer<std::__ndk1::chrono::steady_clock, asio::wait_traits<std::__ndk1::chrono::steady_clock> > >, std::__ndk1::function<void (std::__ndk1::error_code const&)>, std::__ndk1::placeholders::__ph<1>, std::__ndk1::placeholders::__ph<2> >::tuple(std::__ndk1::tuple<websocketpp::transport::asio::endpoint<websocketpp::config::asio_client::transport_config>*, std::__ndk1::shared_ptr<websocketpp::transport::asio::connection<websocketpp::config::asio_client::transport_config> >, std::__ndk1::shared_ptr<asio::basic_waitable_timer<std::__ndk1::chrono::steady_clock, asio::wait_traits<std::__ndk1::chrono::steady_clock> > >, std::__ndk1::function<void (std::__ndk1::error_code const&)>, std::__ndk1::placeholders::__ph<1>, std::__ndk1::placeholders::__ph<2> > const&)
PUBLIC e237c 0 _ZN4asio6detail17rewrapped_handlerINS0_7binder2INS0_15wrapped_handlerINS_10io_context6strandENSt6__ndk16__bindIMN11websocketpp9transport4asio8endpointINS8_6config11asio_client16transport_configEEEFvNS6_10shared_ptrINSA_10connectionISE_EEEENSG_INS_20basic_waitable_timerINS6_6chrono12steady_clockENS_11wait_traitsISM_EEEEEENS6_8functionIFvRKNS6_10error_codeEEEESU_NS_2ip23basic_resolver_iteratorINSX_3tcpEEEEJPSF_RSJ_RSQ_RSW_RKNS6_12placeholders4__phILi1EEERKNS18_ILi2EEEEEENS0_26is_continuation_if_runningEEESS_NSX_22basic_resolver_resultsISZ_EEEES1F_EC2EOS1L_
PUBLIC m e24ac 0 asio::detail::resolver_service_base::start_work_thread()
PUBLIC e25c0 0 std::__ndk1::tuple<websocketpp::transport::asio::endpoint<websocketpp::config::asio_client::transport_config>*, std::__ndk1::shared_ptr<websocketpp::transport::asio::connection<websocketpp::config::asio_client::transport_config> >, std::__ndk1::shared_ptr<asio::basic_waitable_timer<std::__ndk1::chrono::steady_clock, asio::wait_traits<std::__ndk1::chrono::steady_clock> > >, std::__ndk1::function<void (std::__ndk1::error_code const&)>, std::__ndk1::placeholders::__ph<1>, std::__ndk1::placeholders::__ph<2> >::tuple[abi:v170000]<websocketpp::transport::asio::endpoint<websocketpp::config::asio_client::transport_config>*, std::__ndk1::shared_ptr<websocketpp::transport::asio::connection<websocketpp::config::asio_client::transport_config> >&, std::__ndk1::shared_ptr<asio::basic_waitable_timer<std::__ndk1::chrono::steady_clock, asio::wait_traits<std::__ndk1::chrono::steady_clock> > >&, std::__ndk1::function<void (std::__ndk1::error_code const&)>&, std::__ndk1::placeholders::__ph<1> const&, std::__ndk1::placeholders::__ph<2> const&, 0>()
PUBLIC e26cc 0 websocketpp::transport::asio::endpoint<websocketpp::config::asio_client::transport_config>::handle_connect_timeout(std::__ndk1::shared_ptr<websocketpp::transport::asio::connection<websocketpp::config::asio_client::transport_config> >, std::__ndk1::shared_ptr<asio::basic_waitable_timer<std::__ndk1::chrono::steady_clock, asio::wait_traits<std::__ndk1::chrono::steady_clock> > >, std::__ndk1::function<void (std::__ndk1::error_code const&)>, std::__ndk1::error_code const&)
PUBLIC e28c8 0 std::__ndk1::__bind<void (websocketpp::transport::asio::endpoint<websocketpp::config::asio_client::transport_config>::*)(std::__ndk1::shared_ptr<websocketpp::transport::asio::connection<websocketpp::config::asio_client::transport_config> >, std::__ndk1::shared_ptr<asio::basic_waitable_timer<std::__ndk1::chrono::steady_clock, asio::wait_traits<std::__ndk1::chrono::steady_clock> > >, std::__ndk1::function<void (std::__ndk1::error_code const&)>, std::__ndk1::error_code const&), websocketpp::transport::asio::endpoint<websocketpp::config::asio_client::transport_config>*, std::__ndk1::shared_ptr<websocketpp::transport::asio::connection<websocketpp::config::asio_client::transport_config> >&, std::__ndk1::shared_ptr<asio::basic_waitable_timer<std::__ndk1::chrono::steady_clock, asio::wait_traits<std::__ndk1::chrono::steady_clock> > >&, std::__ndk1::function<void (std::__ndk1::error_code const&)>&, std::__ndk1::placeholders::__ph<1> const&>::~__bind()
PUBLIC e2988 0 asio::async_connect<asio::ip::tcp, asio::ip::basic_resolver_iterator<asio::ip::tcp>, asio::detail::wrapped_handler<asio::io_context::strand, std::__ndk1::__bind<void (websocketpp::transport::asio::endpoint<websocketpp::config::asio_client::transport_config>::*)(std::__ndk1::shared_ptr<websocketpp::transport::asio::connection<websocketpp::config::asio_client::transport_config> >, std::__ndk1::shared_ptr<asio::basic_waitable_timer<std::__ndk1::chrono::steady_clock, asio::wait_traits<std::__ndk1::chrono::steady_clock> > >, std::__ndk1::function<void (std::__ndk1::error_code const&)>, std::__ndk1::error_code const&), websocketpp::transport::asio::endpoint<websocketpp::config::asio_client::transport_config>*, std::__ndk1::shared_ptr<websocketpp::transport::asio::connection<websocketpp::config::asio_client::transport_config> >&, std::__ndk1::shared_ptr<asio::basic_waitable_timer<std::__ndk1::chrono::steady_clock, asio::wait_traits<std::__ndk1::chrono::steady_clock> > >&, std::__ndk1::function<void (std::__ndk1::error_code const&)>&, std::__ndk1::placeholders::__ph<1> const&>, asio::detail::is_continuation_if_running> >(asio::basic_socket<asio::ip::tcp>&, asio::ip::basic_resolver_iterator<asio::ip::tcp>, asio::detail::wrapped_handler<asio::io_context::strand, std::__ndk1::__bind<void (websocketpp::transport::asio::endpoint<websocketpp::config::asio_client::transport_config>::*)(std::__ndk1::shared_ptr<websocketpp::transport::asio::connection<websocketpp::config::asio_client::transport_config> >, std::__ndk1::shared_ptr<asio::basic_waitable_timer<std::__ndk1::chrono::steady_clock, asio::wait_traits<std::__ndk1::chrono::steady_clock> > >, std::__ndk1::function<void (std::__ndk1::error_code const&)>, std::__ndk1::error_code const&), websocketpp::transport::asio::endpoint<websocketpp::config::asio_client::transport_config>*, std::__ndk1::shared_ptr<websocketpp::transport::asio::connection<websocketpp::config::asio_client::transport_config> >&, std::__ndk1::shared_ptr<asio::basic_waitable_timer<std::__ndk1::chrono::steady_clock, asio::wait_traits<std::__ndk1::chrono::steady_clock> > >&, std::__ndk1::function<void (std::__ndk1::error_code const&)>&, std::__ndk1::placeholders::__ph<1> const&>, asio::detail::is_continuation_if_running>&&, std::__ndk1::enable_if<!(is_endpoint_sequence<asio::ip::basic_resolver_iterator<asio::ip::tcp> >::value), void>::type*)
PUBLIC e2b2c 0 websocketpp::transport::asio::endpoint<websocketpp::config::asio_client::transport_config>::handle_connect(std::__ndk1::shared_ptr<websocketpp::transport::asio::connection<websocketpp::config::asio_client::transport_config> >, std::__ndk1::shared_ptr<asio::basic_waitable_timer<std::__ndk1::chrono::steady_clock, asio::wait_traits<std::__ndk1::chrono::steady_clock> > >, std::__ndk1::function<void (std::__ndk1::error_code const&)>, std::__ndk1::error_code const&)
PUBLIC e2e68 0 asio::detail::wrapped_handler<asio::io_context::strand, std::__ndk1::__bind<void (websocketpp::transport::asio::endpoint<websocketpp::config::asio_client::transport_config>::*)(std::__ndk1::shared_ptr<websocketpp::transport::asio::connection<websocketpp::config::asio_client::transport_config> >, std::__ndk1::shared_ptr<asio::basic_waitable_timer<std::__ndk1::chrono::steady_clock, asio::wait_traits<std::__ndk1::chrono::steady_clock> > >, std::__ndk1::function<void (std::__ndk1::error_code const&)>, std::__ndk1::error_code const&), websocketpp::transport::asio::endpoint<websocketpp::config::asio_client::transport_config>*, std::__ndk1::shared_ptr<websocketpp::transport::asio::connection<websocketpp::config::asio_client::transport_config> >&, std::__ndk1::shared_ptr<asio::basic_waitable_timer<std::__ndk1::chrono::steady_clock, asio::wait_traits<std::__ndk1::chrono::steady_clock> > >&, std::__ndk1::function<void (std::__ndk1::error_code const&)>&, std::__ndk1::placeholders::__ph<1> const&>, asio::detail::is_continuation_if_running>::~wrapped_handler()
PUBLIC e2f28 0 std::__ndk1::tuple<websocketpp::transport::asio::endpoint<websocketpp::config::asio_client::transport_config>*, std::__ndk1::shared_ptr<websocketpp::transport::asio::connection<websocketpp::config::asio_client::transport_config> >, std::__ndk1::shared_ptr<asio::basic_waitable_timer<std::__ndk1::chrono::steady_clock, asio::wait_traits<std::__ndk1::chrono::steady_clock> > >, std::__ndk1::function<void (std::__ndk1::error_code const&)>, std::__ndk1::placeholders::__ph<1> >::tuple[abi:v170000]<websocketpp::transport::asio::endpoint<websocketpp::config::asio_client::transport_config>*, std::__ndk1::shared_ptr<websocketpp::transport::asio::connection<websocketpp::config::asio_client::transport_config> >&, std::__ndk1::shared_ptr<asio::basic_waitable_timer<std::__ndk1::chrono::steady_clock, asio::wait_traits<std::__ndk1::chrono::steady_clock> > >&, std::__ndk1::function<void (std::__ndk1::error_code const&)>&, std::__ndk1::placeholders::__ph<1> const&, 0>()
PUBLIC e3034 0 std::__ndk1::__function::__func<std::__ndk1::__bind<void (websocketpp::transport::asio::endpoint<websocketpp::config::asio_client::transport_config>::*)(std::__ndk1::shared_ptr<websocketpp::transport::asio::connection<websocketpp::config::asio_client::transport_config> >, std::__ndk1::shared_ptr<asio::basic_waitable_timer<std::__ndk1::chrono::steady_clock, asio::wait_traits<std::__ndk1::chrono::steady_clock> > >, std::__ndk1::function<void (std::__ndk1::error_code const&)>, std::__ndk1::error_code const&), websocketpp::transport::asio::endpoint<websocketpp::config::asio_client::transport_config>*, std::__ndk1::shared_ptr<websocketpp::transport::asio::connection<websocketpp::config::asio_client::transport_config> >&, std::__ndk1::shared_ptr<asio::basic_waitable_timer<std::__ndk1::chrono::steady_clock, asio::wait_traits<std::__ndk1::chrono::steady_clock> > >&, std::__ndk1::function<void (std::__ndk1::error_code const&)>&, std::__ndk1::placeholders::__ph<1> const&>, std::__ndk1::allocator<std::__ndk1::__bind<void (websocketpp::transport::asio::endpoint<websocketpp::config::asio_client::transport_config>::*)(std::__ndk1::shared_ptr<websocketpp::transport::asio::connection<websocketpp::config::asio_client::transport_config> >, std::__ndk1::shared_ptr<asio::basic_waitable_timer<std::__ndk1::chrono::steady_clock, asio::wait_traits<std::__ndk1::chrono::steady_clock> > >, std::__ndk1::function<void (std::__ndk1::error_code const&)>, std::__ndk1::error_code const&), websocketpp::transport::asio::endpoint<websocketpp::config::asio_client::transport_config>*, std::__ndk1::shared_ptr<websocketpp::transport::asio::connection<websocketpp::config::asio_client::transport_config> >&, std::__ndk1::shared_ptr<asio::basic_waitable_timer<std::__ndk1::chrono::steady_clock, asio::wait_traits<std::__ndk1::chrono::steady_clock> > >&, std::__ndk1::function<void (std::__ndk1::error_code const&)>&, std::__ndk1::placeholders::__ph<1> const&> >, void (std::__ndk1::error_code const&)>::~__func()
PUBLIC e3100 0 std::__ndk1::__function::__func<std::__ndk1::__bind<void (websocketpp::transport::asio::endpoint<websocketpp::config::asio_client::transport_config>::*)(std::__ndk1::shared_ptr<websocketpp::transport::asio::connection<websocketpp::config::asio_client::transport_config> >, std::__ndk1::shared_ptr<asio::basic_waitable_timer<std::__ndk1::chrono::steady_clock, asio::wait_traits<std::__ndk1::chrono::steady_clock> > >, std::__ndk1::function<void (std::__ndk1::error_code const&)>, std::__ndk1::error_code const&), websocketpp::transport::asio::endpoint<websocketpp::config::asio_client::transport_config>*, std::__ndk1::shared_ptr<websocketpp::transport::asio::connection<websocketpp::config::asio_client::transport_config> >&, std::__ndk1::shared_ptr<asio::basic_waitable_timer<std::__ndk1::chrono::steady_clock, asio::wait_traits<std::__ndk1::chrono::steady_clock> > >&, std::__ndk1::function<void (std::__ndk1::error_code const&)>&, std::__ndk1::placeholders::__ph<1> const&>, std::__ndk1::allocator<std::__ndk1::__bind<void (websocketpp::transport::asio::endpoint<websocketpp::config::asio_client::transport_config>::*)(std::__ndk1::shared_ptr<websocketpp::transport::asio::connection<websocketpp::config::asio_client::transport_config> >, std::__ndk1::shared_ptr<asio::basic_waitable_timer<std::__ndk1::chrono::steady_clock, asio::wait_traits<std::__ndk1::chrono::steady_clock> > >, std::__ndk1::function<void (std::__ndk1::error_code const&)>, std::__ndk1::error_code const&), websocketpp::transport::asio::endpoint<websocketpp::config::asio_client::transport_config>*, std::__ndk1::shared_ptr<websocketpp::transport::asio::connection<websocketpp::config::asio_client::transport_config> >&, std::__ndk1::shared_ptr<asio::basic_waitable_timer<std::__ndk1::chrono::steady_clock, asio::wait_traits<std::__ndk1::chrono::steady_clock> > >&, std::__ndk1::function<void (std::__ndk1::error_code const&)>&, std::__ndk1::placeholders::__ph<1> const&> >, void (std::__ndk1::error_code const&)>::~__func()
PUBLIC e31dc 0 std::__ndk1::__function::__func<std::__ndk1::__bind<void (websocketpp::transport::asio::endpoint<websocketpp::config::asio_client::transport_config>::*)(std::__ndk1::shared_ptr<websocketpp::transport::asio::connection<websocketpp::config::asio_client::transport_config> >, std::__ndk1::shared_ptr<asio::basic_waitable_timer<std::__ndk1::chrono::steady_clock, asio::wait_traits<std::__ndk1::chrono::steady_clock> > >, std::__ndk1::function<void (std::__ndk1::error_code const&)>, std::__ndk1::error_code const&), websocketpp::transport::asio::endpoint<websocketpp::config::asio_client::transport_config>*, std::__ndk1::shared_ptr<websocketpp::transport::asio::connection<websocketpp::config::asio_client::transport_config> >&, std::__ndk1::shared_ptr<asio::basic_waitable_timer<std::__ndk1::chrono::steady_clock, asio::wait_traits<std::__ndk1::chrono::steady_clock> > >&, std::__ndk1::function<void (std::__ndk1::error_code const&)>&, std::__ndk1::placeholders::__ph<1> const&>, std::__ndk1::allocator<std::__ndk1::__bind<void (websocketpp::transport::asio::endpoint<websocketpp::config::asio_client::transport_config>::*)(std::__ndk1::shared_ptr<websocketpp::transport::asio::connection<websocketpp::config::asio_client::transport_config> >, std::__ndk1::shared_ptr<asio::basic_waitable_timer<std::__ndk1::chrono::steady_clock, asio::wait_traits<std::__ndk1::chrono::steady_clock> > >, std::__ndk1::function<void (std::__ndk1::error_code const&)>, std::__ndk1::error_code const&), websocketpp::transport::asio::endpoint<websocketpp::config::asio_client::transport_config>*, std::__ndk1::shared_ptr<websocketpp::transport::asio::connection<websocketpp::config::asio_client::transport_config> >&, std::__ndk1::shared_ptr<asio::basic_waitable_timer<std::__ndk1::chrono::steady_clock, asio::wait_traits<std::__ndk1::chrono::steady_clock> > >&, std::__ndk1::function<void (std::__ndk1::error_code const&)>&, std::__ndk1::placeholders::__ph<1> const&> >, void (std::__ndk1::error_code const&)>::__clone() const
PUBLIC e323c 0 std::__ndk1::__function::__func<std::__ndk1::__bind<void (websocketpp::transport::asio::endpoint<websocketpp::config::asio_client::transport_config>::*)(std::__ndk1::shared_ptr<websocketpp::transport::asio::connection<websocketpp::config::asio_client::transport_config> >, std::__ndk1::shared_ptr<asio::basic_waitable_timer<std::__ndk1::chrono::steady_clock, asio::wait_traits<std::__ndk1::chrono::steady_clock> > >, std::__ndk1::function<void (std::__ndk1::error_code const&)>, std::__ndk1::error_code const&), websocketpp::transport::asio::endpoint<websocketpp::config::asio_client::transport_config>*, std::__ndk1::shared_ptr<websocketpp::transport::asio::connection<websocketpp::config::asio_client::transport_config> >&, std::__ndk1::shared_ptr<asio::basic_waitable_timer<std::__ndk1::chrono::steady_clock, asio::wait_traits<std::__ndk1::chrono::steady_clock> > >&, std::__ndk1::function<void (std::__ndk1::error_code const&)>&, std::__ndk1::placeholders::__ph<1> const&>, std::__ndk1::allocator<std::__ndk1::__bind<void (websocketpp::transport::asio::endpoint<websocketpp::config::asio_client::transport_config>::*)(std::__ndk1::shared_ptr<websocketpp::transport::asio::connection<websocketpp::config::asio_client::transport_config> >, std::__ndk1::shared_ptr<asio::basic_waitable_timer<std::__ndk1::chrono::steady_clock, asio::wait_traits<std::__ndk1::chrono::steady_clock> > >, std::__ndk1::function<void (std::__ndk1::error_code const&)>, std::__ndk1::error_code const&), websocketpp::transport::asio::endpoint<websocketpp::config::asio_client::transport_config>*, std::__ndk1::shared_ptr<websocketpp::transport::asio::connection<websocketpp::config::asio_client::transport_config> >&, std::__ndk1::shared_ptr<asio::basic_waitable_timer<std::__ndk1::chrono::steady_clock, asio::wait_traits<std::__ndk1::chrono::steady_clock> > >&, std::__ndk1::function<void (std::__ndk1::error_code const&)>&, std::__ndk1::placeholders::__ph<1> const&> >, void (std::__ndk1::error_code const&)>::__clone(std::__ndk1::__function::__base<void (std::__ndk1::error_code const&)>*) const
PUBLIC e3264 0 std::__ndk1::__function::__func<std::__ndk1::__bind<void (websocketpp::transport::asio::endpoint<websocketpp::config::asio_client::transport_config>::*)(std::__ndk1::shared_ptr<websocketpp::transport::asio::connection<websocketpp::config::asio_client::transport_config> >, std::__ndk1::shared_ptr<asio::basic_waitable_timer<std::__ndk1::chrono::steady_clock, asio::wait_traits<std::__ndk1::chrono::steady_clock> > >, std::__ndk1::function<void (std::__ndk1::error_code const&)>, std::__ndk1::error_code const&), websocketpp::transport::asio::endpoint<websocketpp::config::asio_client::transport_config>*, std::__ndk1::shared_ptr<websocketpp::transport::asio::connection<websocketpp::config::asio_client::transport_config> >&, std::__ndk1::shared_ptr<asio::basic_waitable_timer<std::__ndk1::chrono::steady_clock, asio::wait_traits<std::__ndk1::chrono::steady_clock> > >&, std::__ndk1::function<void (std::__ndk1::error_code const&)>&, std::__ndk1::placeholders::__ph<1> const&>, std::__ndk1::allocator<std::__ndk1::__bind<void (websocketpp::transport::asio::endpoint<websocketpp::config::asio_client::transport_config>::*)(std::__ndk1::shared_ptr<websocketpp::transport::asio::connection<websocketpp::config::asio_client::transport_config> >, std::__ndk1::shared_ptr<asio::basic_waitable_timer<std::__ndk1::chrono::steady_clock, asio::wait_traits<std::__ndk1::chrono::steady_clock> > >, std::__ndk1::function<void (std::__ndk1::error_code const&)>, std::__ndk1::error_code const&), websocketpp::transport::asio::endpoint<websocketpp::config::asio_client::transport_config>*, std::__ndk1::shared_ptr<websocketpp::transport::asio::connection<websocketpp::config::asio_client::transport_config> >&, std::__ndk1::shared_ptr<asio::basic_waitable_timer<std::__ndk1::chrono::steady_clock, asio::wait_traits<std::__ndk1::chrono::steady_clock> > >&, std::__ndk1::function<void (std::__ndk1::error_code const&)>&, std::__ndk1::placeholders::__ph<1> const&> >, void (std::__ndk1::error_code const&)>::destroy()
PUBLIC e3324 0 std::__ndk1::__function::__func<std::__ndk1::__bind<void (websocketpp::transport::asio::endpoint<websocketpp::config::asio_client::transport_config>::*)(std::__ndk1::shared_ptr<websocketpp::transport::asio::connection<websocketpp::config::asio_client::transport_config> >, std::__ndk1::shared_ptr<asio::basic_waitable_timer<std::__ndk1::chrono::steady_clock, asio::wait_traits<std::__ndk1::chrono::steady_clock> > >, std::__ndk1::function<void (std::__ndk1::error_code const&)>, std::__ndk1::error_code const&), websocketpp::transport::asio::endpoint<websocketpp::config::asio_client::transport_config>*, std::__ndk1::shared_ptr<websocketpp::transport::asio::connection<websocketpp::config::asio_client::transport_config> >&, std::__ndk1::shared_ptr<asio::basic_waitable_timer<std::__ndk1::chrono::steady_clock, asio::wait_traits<std::__ndk1::chrono::steady_clock> > >&, std::__ndk1::function<void (std::__ndk1::error_code const&)>&, std::__ndk1::placeholders::__ph<1> const&>, std::__ndk1::allocator<std::__ndk1::__bind<void (websocketpp::transport::asio::endpoint<websocketpp::config::asio_client::transport_config>::*)(std::__ndk1::shared_ptr<websocketpp::transport::asio::connection<websocketpp::config::asio_client::transport_config> >, std::__ndk1::shared_ptr<asio::basic_waitable_timer<std::__ndk1::chrono::steady_clock, asio::wait_traits<std::__ndk1::chrono::steady_clock> > >, std::__ndk1::function<void (std::__ndk1::error_code const&)>, std::__ndk1::error_code const&), websocketpp::transport::asio::endpoint<websocketpp::config::asio_client::transport_config>*, std::__ndk1::shared_ptr<websocketpp::transport::asio::connection<websocketpp::config::asio_client::transport_config> >&, std::__ndk1::shared_ptr<asio::basic_waitable_timer<std::__ndk1::chrono::steady_clock, asio::wait_traits<std::__ndk1::chrono::steady_clock> > >&, std::__ndk1::function<void (std::__ndk1::error_code const&)>&, std::__ndk1::placeholders::__ph<1> const&> >, void (std::__ndk1::error_code const&)>::destroy_deallocate()
PUBLIC e33f4 0 std::__ndk1::__function::__func<std::__ndk1::__bind<void (websocketpp::transport::asio::endpoint<websocketpp::config::asio_client::transport_config>::*)(std::__ndk1::shared_ptr<websocketpp::transport::asio::connection<websocketpp::config::asio_client::transport_config> >, std::__ndk1::shared_ptr<asio::basic_waitable_timer<std::__ndk1::chrono::steady_clock, asio::wait_traits<std::__ndk1::chrono::steady_clock> > >, std::__ndk1::function<void (std::__ndk1::error_code const&)>, std::__ndk1::error_code const&), websocketpp::transport::asio::endpoint<websocketpp::config::asio_client::transport_config>*, std::__ndk1::shared_ptr<websocketpp::transport::asio::connection<websocketpp::config::asio_client::transport_config> >&, std::__ndk1::shared_ptr<asio::basic_waitable_timer<std::__ndk1::chrono::steady_clock, asio::wait_traits<std::__ndk1::chrono::steady_clock> > >&, std::__ndk1::function<void (std::__ndk1::error_code const&)>&, std::__ndk1::placeholders::__ph<1> const&>, std::__ndk1::allocator<std::__ndk1::__bind<void (websocketpp::transport::asio::endpoint<websocketpp::config::asio_client::transport_config>::*)(std::__ndk1::shared_ptr<websocketpp::transport::asio::connection<websocketpp::config::asio_client::transport_config> >, std::__ndk1::shared_ptr<asio::basic_waitable_timer<std::__ndk1::chrono::steady_clock, asio::wait_traits<std::__ndk1::chrono::steady_clock> > >, std::__ndk1::function<void (std::__ndk1::error_code const&)>, std::__ndk1::error_code const&), websocketpp::transport::asio::endpoint<websocketpp::config::asio_client::transport_config>*, std::__ndk1::shared_ptr<websocketpp::transport::asio::connection<websocketpp::config::asio_client::transport_config> >&, std::__ndk1::shared_ptr<asio::basic_waitable_timer<std::__ndk1::chrono::steady_clock, asio::wait_traits<std::__ndk1::chrono::steady_clock> > >&, std::__ndk1::function<void (std::__ndk1::error_code const&)>&, std::__ndk1::placeholders::__ph<1> const&> >, void (std::__ndk1::error_code const&)>::operator()(std::__ndk1::error_code const&)
PUBLIC e3414 0 std::__ndk1::__function::__func<std::__ndk1::__bind<void (websocketpp::transport::asio::endpoint<websocketpp::config::asio_client::transport_config>::*)(std::__ndk1::shared_ptr<websocketpp::transport::asio::connection<websocketpp::config::asio_client::transport_config> >, std::__ndk1::shared_ptr<asio::basic_waitable_timer<std::__ndk1::chrono::steady_clock, asio::wait_traits<std::__ndk1::chrono::steady_clock> > >, std::__ndk1::function<void (std::__ndk1::error_code const&)>, std::__ndk1::error_code const&), websocketpp::transport::asio::endpoint<websocketpp::config::asio_client::transport_config>*, std::__ndk1::shared_ptr<websocketpp::transport::asio::connection<websocketpp::config::asio_client::transport_config> >&, std::__ndk1::shared_ptr<asio::basic_waitable_timer<std::__ndk1::chrono::steady_clock, asio::wait_traits<std::__ndk1::chrono::steady_clock> > >&, std::__ndk1::function<void (std::__ndk1::error_code const&)>&, std::__ndk1::placeholders::__ph<1> const&>, std::__ndk1::allocator<std::__ndk1::__bind<void (websocketpp::transport::asio::endpoint<websocketpp::config::asio_client::transport_config>::*)(std::__ndk1::shared_ptr<websocketpp::transport::asio::connection<websocketpp::config::asio_client::transport_config> >, std::__ndk1::shared_ptr<asio::basic_waitable_timer<std::__ndk1::chrono::steady_clock, asio::wait_traits<std::__ndk1::chrono::steady_clock> > >, std::__ndk1::function<void (std::__ndk1::error_code const&)>, std::__ndk1::error_code const&), websocketpp::transport::asio::endpoint<websocketpp::config::asio_client::transport_config>*, std::__ndk1::shared_ptr<websocketpp::transport::asio::connection<websocketpp::config::asio_client::transport_config> >&, std::__ndk1::shared_ptr<asio::basic_waitable_timer<std::__ndk1::chrono::steady_clock, asio::wait_traits<std::__ndk1::chrono::steady_clock> > >&, std::__ndk1::function<void (std::__ndk1::error_code const&)>&, std::__ndk1::placeholders::__ph<1> const&> >, void (std::__ndk1::error_code const&)>::target(std::type_info const&) const
PUBLIC e3430 0 std::__ndk1::__function::__func<std::__ndk1::__bind<void (websocketpp::transport::asio::endpoint<websocketpp::config::asio_client::transport_config>::*)(std::__ndk1::shared_ptr<websocketpp::transport::asio::connection<websocketpp::config::asio_client::transport_config> >, std::__ndk1::shared_ptr<asio::basic_waitable_timer<std::__ndk1::chrono::steady_clock, asio::wait_traits<std::__ndk1::chrono::steady_clock> > >, std::__ndk1::function<void (std::__ndk1::error_code const&)>, std::__ndk1::error_code const&), websocketpp::transport::asio::endpoint<websocketpp::config::asio_client::transport_config>*, std::__ndk1::shared_ptr<websocketpp::transport::asio::connection<websocketpp::config::asio_client::transport_config> >&, std::__ndk1::shared_ptr<asio::basic_waitable_timer<std::__ndk1::chrono::steady_clock, asio::wait_traits<std::__ndk1::chrono::steady_clock> > >&, std::__ndk1::function<void (std::__ndk1::error_code const&)>&, std::__ndk1::placeholders::__ph<1> const&>, std::__ndk1::allocator<std::__ndk1::__bind<void (websocketpp::transport::asio::endpoint<websocketpp::config::asio_client::transport_config>::*)(std::__ndk1::shared_ptr<websocketpp::transport::asio::connection<websocketpp::config::asio_client::transport_config> >, std::__ndk1::shared_ptr<asio::basic_waitable_timer<std::__ndk1::chrono::steady_clock, asio::wait_traits<std::__ndk1::chrono::steady_clock> > >, std::__ndk1::function<void (std::__ndk1::error_code const&)>, std::__ndk1::error_code const&), websocketpp::transport::asio::endpoint<websocketpp::config::asio_client::transport_config>*, std::__ndk1::shared_ptr<websocketpp::transport::asio::connection<websocketpp::config::asio_client::transport_config> >&, std::__ndk1::shared_ptr<asio::basic_waitable_timer<std::__ndk1::chrono::steady_clock, asio::wait_traits<std::__ndk1::chrono::steady_clock> > >&, std::__ndk1::function<void (std::__ndk1::error_code const&)>&, std::__ndk1::placeholders::__ph<1> const&> >, void (std::__ndk1::error_code const&)>::target_type() const
PUBLIC e343c 0 std::__ndk1::tuple<websocketpp::transport::asio::endpoint<websocketpp::config::asio_client::transport_config>*, std::__ndk1::shared_ptr<websocketpp::transport::asio::connection<websocketpp::config::asio_client::transport_config> >, std::__ndk1::shared_ptr<asio::basic_waitable_timer<std::__ndk1::chrono::steady_clock, asio::wait_traits<std::__ndk1::chrono::steady_clock> > >, std::__ndk1::function<void (std::__ndk1::error_code const&)>, std::__ndk1::placeholders::__ph<1> >::tuple(std::__ndk1::tuple<websocketpp::transport::asio::endpoint<websocketpp::config::asio_client::transport_config>*, std::__ndk1::shared_ptr<websocketpp::transport::asio::connection<websocketpp::config::asio_client::transport_config> >, std::__ndk1::shared_ptr<asio::basic_waitable_timer<std::__ndk1::chrono::steady_clock, asio::wait_traits<std::__ndk1::chrono::steady_clock> > >, std::__ndk1::function<void (std::__ndk1::error_code const&)>, std::__ndk1::placeholders::__ph<1> > const&)
PUBLIC e3548 0 std::__ndk1::__invoke[abi:v170000]<void (websocketpp::transport::asio::endpoint<std::__ndk1::__invoke[abi:v170000]::config::asio_client::transport_config>&::*)(std::__ndk1::shared_ptr<websocketpp::transport::connection<std::__ndk1::__invoke[abi:v170000]::config::asio_client> >, websocketpp::transport::asio::endpoint<std::__ndk1::__invoke[abi:v170000]::config::asio_client::transport_config><asio::basic_waitable_timer<std::__ndk1::chrono::steady_clock, std::__ndk1::shared_ptr<websocketpp::transport::connection<std::__ndk1::__invoke[abi:v170000]::config::asio_client> >::wait_traits<std::__ndk1::chrono> > >, std::__ndk1::function<void (std::__ndk1::error_code const&)>, std::__ndk1::error_code const), std::__ndk1::__invoke[abi:v170000]::config::asio_client::transport_config*&, websocketpp::transport::connection<std::__ndk1::__invoke[abi:v170000]::config::asio_client>&, asio::basic_waitable_timer<std::__ndk1::chrono::steady_clock, std::__ndk1::shared_ptr<websocketpp::transport::connection<std::__ndk1::__invoke[abi:v170000]::config::asio_client> >::wait_traits<std::__ndk1::chrono> >&, void (&)(std::__ndk1::error_code const&), std::__ndk1::error_code const, void>(std::__ndk1::__invoke[abi:v170000]::config::asio_client::transport_config*&, void (&)(std::__ndk1::error_code const&), void (websocketpp::transport::asio::endpoint<std::__ndk1::__invoke[abi:v170000]::config::asio_client::transport_config>&::*)(std::__ndk1::shared_ptr<websocketpp::transport::connection<std::__ndk1::__invoke[abi:v170000]::config::asio_client> >, websocketpp::transport::asio::endpoint<std::__ndk1::__invoke[abi:v170000]::config::asio_client::transport_config><asio::basic_waitable_timer<std::__ndk1::chrono::steady_clock, std::__ndk1::shared_ptr<websocketpp::transport::connection<std::__ndk1::__invoke[abi:v170000]::config::asio_client> >::wait_traits<std::__ndk1::chrono> > >, std::__ndk1::function<void (std::__ndk1::error_code const&)>, std::__ndk1::error_code const))
PUBLIC e3740 0 asio::detail::iterator_connect_op<asio::ip::tcp, asio::ip::basic_resolver_iterator<asio::ip::tcp>, asio::detail::default_connect_condition, asio::detail::wrapped_handler<asio::io_context::strand, std::__ndk1::__bind<void (websocketpp::transport::asio::endpoint<websocketpp::config::asio_client::transport_config>::*)(std::__ndk1::shared_ptr<websocketpp::transport::asio::connection<websocketpp::config::asio_client::transport_config> >, std::__ndk1::shared_ptr<asio::basic_waitable_timer<std::__ndk1::chrono::steady_clock, asio::wait_traits<std::__ndk1::chrono::steady_clock> > >, std::__ndk1::function<void (std::__ndk1::error_code const&)>, std::__ndk1::error_code const&), websocketpp::transport::asio::endpoint<websocketpp::config::asio_client::transport_config>*, std::__ndk1::shared_ptr<websocketpp::transport::asio::connection<websocketpp::config::asio_client::transport_config> >&, std::__ndk1::shared_ptr<asio::basic_waitable_timer<std::__ndk1::chrono::steady_clock, asio::wait_traits<std::__ndk1::chrono::steady_clock> > >&, std::__ndk1::function<void (std::__ndk1::error_code const&)>&, std::__ndk1::placeholders::__ph<1> const&>, asio::detail::is_continuation_if_running> >::operator()(std::__ndk1::error_code, int)
PUBLIC e3b14 0 asio::detail::iterator_connect_op<asio::ip::tcp, asio::ip::basic_resolver_iterator<asio::ip::tcp>, asio::detail::default_connect_condition, asio::detail::wrapped_handler<asio::io_context::strand, std::__ndk1::__bind<void (websocketpp::transport::asio::endpoint<websocketpp::config::asio_client::transport_config>::*)(std::__ndk1::shared_ptr<websocketpp::transport::asio::connection<websocketpp::config::asio_client::transport_config> >, std::__ndk1::shared_ptr<asio::basic_waitable_timer<std::__ndk1::chrono::steady_clock, asio::wait_traits<std::__ndk1::chrono::steady_clock> > >, std::__ndk1::function<void (std::__ndk1::error_code const&)>, std::__ndk1::error_code const&), websocketpp::transport::asio::endpoint<websocketpp::config::asio_client::transport_config>*, std::__ndk1::shared_ptr<websocketpp::transport::asio::connection<websocketpp::config::asio_client::transport_config> >&, std::__ndk1::shared_ptr<asio::basic_waitable_timer<std::__ndk1::chrono::steady_clock, asio::wait_traits<std::__ndk1::chrono::steady_clock> > >&, std::__ndk1::function<void (std::__ndk1::error_code const&)>&, std::__ndk1::placeholders::__ph<1> const&>, asio::detail::is_continuation_if_running> >::~iterator_connect_op()
