MODULE Linux arm64 154B95614452BFFEB3D4FCB8A3FA33970 geode.custom-keybinds.android64.so
INFO CODE_ID 61954B155244FEBFB3D4FCB8A3FA3397BF856710
INFO GENERATOR mozilla/dump_syms 2.3.3
PUBLIC 3f520 0 __on_dlclose
PUBLIC 3f530 0 __emutls_unregister_key
PUBLIC 3f538 0 __on_dlclose_late
PUBLIC 3f540 0 __atexit_handler_wrapper
PUBLIC 3f554 0 atexit
PUBLIC 3f570 0 pthread_atfork
PUBLIC 3f580 0 keybinds::ControllerBind::create(cocos2d::enumKeyCodes)
PUBLIC 3f604 0 keybinds::ControllerBind::parse(matjson::Value const&)
PUBLIC 3f6a0 0 keybinds::ControllerBind::save() const
PUBLIC 3f7a4 0 std::__ndk1::pair<std::__ndk1::basic_string<char, std::__ndk1::char_traits<char>, std::__ndk1::allocator<char> >, matjson::Value>::~pair()
PUBLIC 3f7e0 0 keybinds::ControllerBind::getHash() const
PUBLIC 3f7e8 0 keybinds::ControllerBind::isEqual(keybinds::Bind*) const
PUBLIC 3f854 0 keybinds::ControllerBind::toString() const
PUBLIC 3f85c 0 keybinds::ControllerBind::createLabel() const
PUBLIC 3fa9c 0 keybinds::ControllerBind::getDeviceID() const
PUBLIC 3fae4 0 cocos2d::CCCopying::copyWithZone(cocos2d::CCZone*)
PUBLIC 3faec 0 keybinds::ControllerBind::~ControllerBind()
PUBLIC 3fb10 0 cocos2d::CCObject::update(float)
PUBLIC 3fb14 0 geode::cast::traverseTypeinfoFor(void*, geode::cast::ClassTypeinfoType const*, char const*)
PUBLIC 3fc14 0 geodeExecFunction335<(anonymous namespace)::ExecFuncUnique335>()
PUBLIC 49cec 0 __cxx_global_var_init.1
PUBLIC 4a3d4 0 __cxx_global_var_init.2
PUBLIC 4a9fc 0 _GLOBAL__sub_I_EditorUI.cpp
PUBLIC 4aa00 0 geode::modifier::ModifyBase<geode::modifier::ModifyDerive<hook38<(anonymous namespace)::hook38Parent>, EditorPauseLayer> >::~ModifyBase()
PUBLIC 4aa1c 0 geode::modifier::ModifyBase<geode::modifier::ModifyDerive<hook62<(anonymous namespace)::hook62Parent>, EditorUI> >::~ModifyBase()
PUBLIC 4aa38 0 geode::modifier::ModifyDerive<hook38<(anonymous namespace)::hook38Parent>, EditorPauseLayer>::apply()
PUBLIC 4b0f0 0 std::__ndk1::shared_ptr<geode::Hook>::~shared_ptr[abi:v170000]()
PUBLIC 4b140 0 geode::modifier::ModifyBase<geode::modifier::ModifyDerive<hook38<(anonymous namespace)::hook38Parent>, EditorPauseLayer> >::apply()
PUBLIC 4b144 0 __clang_call_terminate
PUBLIC 4b154 0 geode::Result<geode::Hook*, std::__ndk1::basic_string<char, std::__ndk1::char_traits<char>, std::__ndk1::allocator<char> > >::unwrap() &
PUBLIC 4b254 0 std::__ndk1::__tree<std::__ndk1::__value_type<std::__ndk1::basic_string<char, std::__ndk1::char_traits<char>, std::__ndk1::allocator<char> >, std::__ndk1::shared_ptr<geode::Hook> >, std::__ndk1::__map_value_compare<std::__ndk1::basic_string<char, std::__ndk1::char_traits<char>, std::__ndk1::allocator<char> >, std::__ndk1::__value_type<std::__ndk1::basic_string<char, std::__ndk1::char_traits<char>, std::__ndk1::allocator<char> >, std::__ndk1::shared_ptr<geode::Hook> >, std::__ndk1::less<std::__ndk1::basic_string<char, std::__ndk1::char_traits<char>, std::__ndk1::allocator<char> > >, true>, std::__ndk1::allocator<std::__ndk1::__value_type<std::__ndk1::basic_string<char, std::__ndk1::char_traits<char>, std::__ndk1::allocator<char> >, std::__ndk1::shared_ptr<geode::Hook> > > >::find<std::__ndk1::basic_string<char, std::__ndk1::char_traits<char>, std::__ndk1::allocator<char> > >(std::__ndk1::basic_string<char, std::__ndk1::char_traits<char>, std::__ndk1::allocator<char> > const&)
PUBLIC 4b360 0 std::__ndk1::__tree<std::__ndk1::__value_type<std::__ndk1::basic_string<char, std::__ndk1::char_traits<char>, std::__ndk1::allocator<char> >, std::__ndk1::shared_ptr<geode::Hook> >, std::__ndk1::__map_value_compare<std::__ndk1::basic_string<char, std::__ndk1::char_traits<char>, std::__ndk1::allocator<char> >, std::__ndk1::__value_type<std::__ndk1::basic_string<char, std::__ndk1::char_traits<char>, std::__ndk1::allocator<char> >, std::__ndk1::shared_ptr<geode::Hook> >, std::__ndk1::less<std::__ndk1::basic_string<char, std::__ndk1::char_traits<char>, std::__ndk1::allocator<char> > >, true>, std::__ndk1::allocator<std::__ndk1::__value_type<std::__ndk1::basic_string<char, std::__ndk1::char_traits<char>, std::__ndk1::allocator<char> >, std::__ndk1::shared_ptr<geode::Hook> > > >::__emplace_unique_key_args<std::__ndk1::basic_string<char, std::__ndk1::char_traits<char>, std::__ndk1::allocator<char> >, std::__ndk1::piecewise_construct_t const&, std::__ndk1::tuple<std::__ndk1::basic_string<char, std::__ndk1::char_traits<char>, std::__ndk1::allocator<char> > const&>, std::__ndk1::tuple<> >(std::__ndk1::basic_string<char, std::__ndk1::char_traits<char>, std::__ndk1::allocator<char> > const&, std::__ndk1::piecewise_construct_t const&, std::__ndk1::tuple<std::__ndk1::basic_string<char, std::__ndk1::char_traits<char>, std::__ndk1::allocator<char> > const&>, std::__ndk1::tuple<>)
PUBLIC 4b4ec 0 std::__ndk1::__tree<std::__ndk1::__value_type<std::__ndk1::basic_string<char, std::__ndk1::char_traits<char>, std::__ndk1::allocator<char> >, std::__ndk1::shared_ptr<geode::Hook> >, std::__ndk1::__map_value_compare<std::__ndk1::basic_string<char, std::__ndk1::char_traits<char>, std::__ndk1::allocator<char> >, std::__ndk1::__value_type<std::__ndk1::basic_string<char, std::__ndk1::char_traits<char>, std::__ndk1::allocator<char> >, std::__ndk1::shared_ptr<geode::Hook> >, std::__ndk1::less<std::__ndk1::basic_string<char, std::__ndk1::char_traits<char>, std::__ndk1::allocator<char> > >, true>, std::__ndk1::allocator<std::__ndk1::__value_type<std::__ndk1::basic_string<char, std::__ndk1::char_traits<char>, std::__ndk1::allocator<char> >, std::__ndk1::shared_ptr<geode::Hook> > > >::__find_equal<std::__ndk1::basic_string<char, std::__ndk1::char_traits<char>, std::__ndk1::allocator<char> > >(std::__ndk1::__tree_end_node<std::__ndk1::__tree_node_base<void*>*>*&, std::__ndk1::basic_string<char, std::__ndk1::char_traits<char>, std::__ndk1::allocator<char> > const&)
PUBLIC 4b5f0 0 std::__throw_bad_array_new_length([abi:v170000], void)
PUBLIC 4b624 0 std::__ndk1::basic_string<char, std::__ndk1::char_traits<char>, std::__ndk1::allocator<char> >::__throw_length_error[abi:v170000]() const
PUBLIC 4b638 0 std::__ndk1::__throw_length_error[abi:v170000](char const*)
PUBLIC 4b688 0 std::length_error::length_error[abi:v170000](char const*)
PUBLIC 4b6b8 0 std::__ndk1::__tree_balance_after_insert[abi:v170000]<std::__ndk1::__tree_node_base<void*>*>(std::__ndk1::__tree_node_base<void*>*, std::__ndk1::__tree_node_base<void*>*)
PUBLIC 4b86c 0 cpp::bitwizeshift::bad_result_access<std::__ndk1::basic_string<char, std::__ndk1::char_traits<char>, std::__ndk1::allocator<char> > >::~bad_result_access()
PUBLIC 4b8a8 0 cpp::bitwizeshift::bad_result_access<std::__ndk1::basic_string<char, std::__ndk1::char_traits<char>, std::__ndk1::allocator<char> > >::~bad_result_access()
PUBLIC 4b8ec 0 std::__ndk1::vector<std::__ndk1::basic_string<char, std::__ndk1::char_traits<char>, std::__ndk1::allocator<char> >, std::__ndk1::allocator<std::__ndk1::basic_string<char, std::__ndk1::char_traits<char>, std::__ndk1::allocator<char> > > >::__push_back_slow_path<std::__ndk1::basic_string<char, std::__ndk1::char_traits<char>, std::__ndk1::allocator<char> > const&>(std::__ndk1::basic_string<char, std::__ndk1::char_traits<char>, std::__ndk1::allocator<char> > const&)
PUBLIC 4bb8c 0 std::__ndk1::__split_buffer<std::__ndk1::basic_string<char, std::__ndk1::char_traits<char>, std::__ndk1::allocator<char> >, std::__ndk1::allocator<std::__ndk1::basic_string<char, std::__ndk1::char_traits<char>, std::__ndk1::allocator<char> > >&>::~__split_buffer()
PUBLIC 4bbf4 0 std::__ndk1::vector<std::__ndk1::basic_string<char, std::__ndk1::char_traits<char>, std::__ndk1::allocator<char> >, std::__ndk1::allocator<std::__ndk1::basic_string<char, std::__ndk1::char_traits<char>, std::__ndk1::allocator<char> > > >::__throw_length_error[abi:v170000]() const
PUBLIC 4bc08 0 std::__ndk1::__tree<std::__ndk1::__value_type<std::__ndk1::basic_string<char, std::__ndk1::char_traits<char>, std::__ndk1::allocator<char> >, std::__ndk1::shared_ptr<geode::Hook> >, std::__ndk1::__map_value_compare<std::__ndk1::basic_string<char, std::__ndk1::char_traits<char>, std::__ndk1::allocator<char> >, std::__ndk1::__value_type<std::__ndk1::basic_string<char, std::__ndk1::char_traits<char>, std::__ndk1::allocator<char> >, std::__ndk1::shared_ptr<geode::Hook> >, std::__ndk1::less<std::__ndk1::basic_string<char, std::__ndk1::char_traits<char>, std::__ndk1::allocator<char> > >, true>, std::__ndk1::allocator<std::__ndk1::__value_type<std::__ndk1::basic_string<char, std::__ndk1::char_traits<char>, std::__ndk1::allocator<char> >, std::__ndk1::shared_ptr<geode::Hook> > > >::erase(std::__ndk1::__tree_const_iterator<std::__ndk1::__value_type<std::__ndk1::basic_string<char, std::__ndk1::char_traits<char>, std::__ndk1::allocator<char> >, std::__ndk1::shared_ptr<geode::Hook> >, std::__ndk1::__tree_node<std::__ndk1::__value_type<std::__ndk1::basic_string<char, std::__ndk1::char_traits<char>, std::__ndk1::allocator<char> >, std::__ndk1::shared_ptr<geode::Hook> >, void*>*, long>)
PUBLIC 4bcdc 0 std::__ndk1::__tree_remove[abi:v170000]<std::__ndk1::__tree_node_base<void*>*>(std::__ndk1::__tree_node_base<void*>*, std::__ndk1::__tree_node_base<void*>*)
PUBLIC 4c0a8 0 std::__ndk1::__tree<std::__ndk1::__value_type<std::__ndk1::basic_string<char, std::__ndk1::char_traits<char>, std::__ndk1::allocator<char> >, std::__ndk1::shared_ptr<geode::Hook> >, std::__ndk1::__map_value_compare<std::__ndk1::basic_string<char, std::__ndk1::char_traits<char>, std::__ndk1::allocator<char> >, std::__ndk1::__value_type<std::__ndk1::basic_string<char, std::__ndk1::char_traits<char>, std::__ndk1::allocator<char> >, std::__ndk1::shared_ptr<geode::Hook> >, std::__ndk1::less<std::__ndk1::basic_string<char, std::__ndk1::char_traits<char>, std::__ndk1::allocator<char> > >, true>, std::__ndk1::allocator<std::__ndk1::__value_type<std::__ndk1::basic_string<char, std::__ndk1::char_traits<char>, std::__ndk1::allocator<char> >, std::__ndk1::shared_ptr<geode::Hook> > > >::destroy(std::__ndk1::__tree_node<std::__ndk1::__value_type<std::__ndk1::basic_string<char, std::__ndk1::char_traits<char>, std::__ndk1::allocator<char> >, std::__ndk1::shared_ptr<geode::Hook> >, void*>*)
PUBLIC 4c134 0 geode::modifier::AsStaticFunction_keyDown<hook38<(anonymous namespace)::hook38Parent>, void (hook38<(anonymous namespace)::hook38Parent>::*)(cocos2d::enumKeyCodes)>::Impl<void (hook38<(anonymous namespace)::hook38Parent>::*)(cocos2d::enumKeyCodes)>::function(hook38<(anonymous namespace)::hook38Parent>*, cocos2d::enumKeyCodes)
PUBLIC 4c144 0 geode::modifier::AsStaticFunction_customSetup<hook38<(anonymous namespace)::hook38Parent>, void (hook38<(anonymous namespace)::hook38Parent>::*)()>::Impl<void (hook38<(anonymous namespace)::hook38Parent>::*)()>::function(hook38<(anonymous namespace)::hook38Parent>*)
PUBLIC 4c200 0 geode::addresser::Addresser::addressOfVirtual<void, EditorPauseLayer, cocos2d::enumKeyCodes>(void (EditorPauseLayer::*)(cocos2d::enumKeyCodes))
PUBLIC 4c320 0 std::__ndk1::shared_ptr<tulip::hook::CallingConvention>::~shared_ptr[abi:v170000]()
PUBLIC 4c370 0 tulip::hook::HandlerMetadata::~HandlerMetadata()
PUBLIC 4c3d4 0 geode::addresser::Addresser::addressOfVirtual<void, EditorPauseLayer, >(void (EditorPauseLayer::*)())
PUBLIC 4c4f4 0 cocos2d::CCNode::addEventListener<keybinds::InvokeBindFilter, char const (&) [35]>(geode::utils::MiniFunction<keybinds::InvokeBindFilter::Callback>, char const (&) [35])
PUBLIC 4c618 0 cocos2d::CCNode::addEventListener<keybinds::InvokeBindFilter, char const (&) [35]>(std::__ndk1::basic_string<char, std::__ndk1::char_traits<char>, std::__ndk1::allocator<char> > const&, geode::utils::MiniFunction<keybinds::InvokeBindFilter::Callback>, char const (&) [35])
PUBLIC 4c874 0 geode::EventListener<keybinds::InvokeBindFilter>::EventListener(geode::utils::MiniFunction<geode::ListenerResult(keybinds::InvokeBindEvent*)>, keybinds::InvokeBindFilter)
PUBLIC 4c9d0 0 geode::EventListener<keybinds::InvokeBindFilter>::getPool() const
PUBLIC 4c9d4 0 geode::EventListener<keybinds::InvokeBindFilter>::handle(geode::Event*)
PUBLIC 4cadc 0 geode::EventListener<keybinds::InvokeBindFilter>::~EventListener()
PUBLIC 4cb2c 0 geode::EventListener<keybinds::InvokeBindFilter>::~EventListener()
PUBLIC 4cb84 0 geode::utils::MiniFunctionStateBase<geode::ListenerResult, keybinds::InvokeBindEvent*>::~MiniFunctionStateBase()
PUBLIC 4cb88 0 geode::utils::MiniFunctionState<hook38<(anonymous namespace)::hook38Parent>::customSetup()::{lambda(keybinds::InvokeBindEvent*)#1}, geode::ListenerResult, keybinds::InvokeBindEvent*>::~MiniFunctionState()
PUBLIC 4cb8c 0 geode::utils::MiniFunctionState<hook38<(anonymous namespace)::hook38Parent>::customSetup()::{lambda(keybinds::InvokeBindEvent*)#1}, geode::ListenerResult, keybinds::InvokeBindEvent*>::call(keybinds::InvokeBindEvent*) const
PUBLIC 4cbd4 0 geode::utils::MiniFunctionState<hook38<(anonymous namespace)::hook38Parent>::customSetup()::{lambda(keybinds::InvokeBindEvent*)#1}, geode::ListenerResult, keybinds::InvokeBindEvent*>::clone() const
PUBLIC 4cc08 0 geode::modifier::ModifyDerive<hook62<(anonymous namespace)::hook62Parent>, EditorUI>::apply()
PUBLIC 4d89c 0 geode::modifier::ModifyBase<geode::modifier::ModifyDerive<hook62<(anonymous namespace)::hook62Parent>, EditorUI> >::apply()
PUBLIC 4d8a0 0 geode::modifier::ModifyBase<geode::modifier::ModifyDerive<hook62<(anonymous namespace)::hook62Parent>, EditorUI> >::setHookPriority(std::__ndk1::basic_string<char, std::__ndk1::char_traits<char>, std::__ndk1::allocator<char> > const&, int)
PUBLIC 4da84 0 geode::modifier::AsStaticFunction_init<hook62<(anonymous namespace)::hook62Parent>, bool (hook62<(anonymous namespace)::hook62Parent>::*)(LevelEditorLayer*)>::Impl<bool (hook62<(anonymous namespace)::hook62Parent>::*)(LevelEditorLayer*)>::function(hook62<(anonymous namespace)::hook62Parent>*, LevelEditorLayer*)
PUBLIC 4db64 0 geode::Hook::create<void (*)(hook62<(anonymous namespace)::hook62Parent>*, EditCommand)>(void*, void (*)(hook62<(anonymous namespace)::hook62Parent>*, EditCommand), std::__ndk1::basic_string<char, std::__ndk1::char_traits<char>, std::__ndk1::allocator<char> > const&, tulip::hook::TulipConvention, tulip::hook::HookMetadata const&)
PUBLIC 4dce4 0 geode::modifier::AsStaticFunction_moveObjectCall<hook62<(anonymous namespace)::hook62Parent>, void (hook62<(anonymous namespace)::hook62Parent>::*)(EditCommand)>::Impl<void (hook62<(anonymous namespace)::hook62Parent>::*)(EditCommand)>::function(hook62<(anonymous namespace)::hook62Parent>*, EditCommand)
PUBLIC 4dce8 0 geode::modifier::AsStaticFunction_transformObjectCall<hook62<(anonymous namespace)::hook62Parent>, void (hook62<(anonymous namespace)::hook62Parent>::*)(EditCommand)>::Impl<void (hook62<(anonymous namespace)::hook62Parent>::*)(EditCommand)>::function(hook62<(anonymous namespace)::hook62Parent>*, EditCommand)
PUBLIC 4dcec 0 geode::Hook::create<void (*)(hook62<(anonymous namespace)::hook62Parent>*, cocos2d::enumKeyCodes)>(void*, void (*)(hook62<(anonymous namespace)::hook62Parent>*, cocos2d::enumKeyCodes), std::__ndk1::basic_string<char, std::__ndk1::char_traits<char>, std::__ndk1::allocator<char> > const&, tulip::hook::TulipConvention, tulip::hook::HookMetadata const&)
PUBLIC 4de6c 0 geode::modifier::AsStaticFunction_keyDown<hook62<(anonymous namespace)::hook62Parent>, void (hook62<(anonymous namespace)::hook62Parent>::*)(cocos2d::enumKeyCodes)>::Impl<void (hook62<(anonymous namespace)::hook62Parent>::*)(cocos2d::enumKeyCodes)>::function(hook62<(anonymous namespace)::hook62Parent>*, cocos2d::enumKeyCodes)
PUBLIC 4de90 0 geode::modifier::AsStaticFunction_keyUp<hook62<(anonymous namespace)::hook62Parent>, void (hook62<(anonymous namespace)::hook62Parent>::*)(cocos2d::enumKeyCodes)>::Impl<void (hook62<(anonymous namespace)::hook62Parent>::*)(cocos2d::enumKeyCodes)>::function(hook62<(anonymous namespace)::hook62Parent>*, cocos2d::enumKeyCodes)
PUBLIC 4deac 0 geode::utils::MiniFunctionStateBase<void, >::~MiniFunctionStateBase()
PUBLIC 4deb0 0 geode::utils::MiniFunctionState<hook62<(anonymous namespace)::hook62Parent>::init(LevelEditorLayer*)::{lambda()#1}, void, >::~MiniFunctionState()
PUBLIC 4deb4 0 geode::utils::MiniFunctionState<hook62<(anonymous namespace)::hook62Parent>::init(LevelEditorLayer*)::{lambda()#1}, void, >::call() const
PUBLIC 4debc 0 geode::utils::MiniFunctionState<hook62<(anonymous namespace)::hook62Parent>::init(LevelEditorLayer*)::{lambda()#1}, void, >::clone() const
PUBLIC 4def4 0 hook62<(anonymous namespace)::hook62Parent>::init(LevelEditorLayer*)::{lambda()#1}::operator()() const
PUBLIC 507d8 0 hook62<(anonymous namespace)::hook62Parent>::defineKeybind(std::__ndk1::basic_string<char, std::__ndk1::char_traits<char>, std::__ndk1::allocator<char> > const&, std::__ndk1::function<void (bool)>)
PUBLIC 50a68 0 hook62<(anonymous namespace)::hook62Parent>::defineKeybind(std::__ndk1::basic_string<char, std::__ndk1::char_traits<char>, std::__ndk1::allocator<char> > const&, std::__ndk1::function<void ()>)
PUBLIC 50cf8 0 cocos2d::CCNode::addEventListener<keybinds::InvokeBindFilter, std::__ndk1::basic_string<char, std::__ndk1::char_traits<char>, std::__ndk1::allocator<char> > const&>(geode::utils::MiniFunction<keybinds::InvokeBindFilter::Callback>, std::__ndk1::basic_string<char, std::__ndk1::char_traits<char>, std::__ndk1::allocator<char> > const&)
PUBLIC 50e1c 0 cocos2d::CCNode::addEventListener<keybinds::InvokeBindFilter, std::__ndk1::basic_string<char, std::__ndk1::char_traits<char>, std::__ndk1::allocator<char> > const&>(std::__ndk1::basic_string<char, std::__ndk1::char_traits<char>, std::__ndk1::allocator<char> > const&, geode::utils::MiniFunction<keybinds::InvokeBindFilter::Callback>, std::__ndk1::basic_string<char, std::__ndk1::char_traits<char>, std::__ndk1::allocator<char> > const&)
PUBLIC 50f9c 0 geode::utils::MiniFunctionState<hook62<(anonymous namespace)::hook62Parent>::defineKeybind(std::__ndk1::basic_string<char, std::__ndk1::char_traits<char>, std::__ndk1::allocator<char> > const&, std::__ndk1::function<void (bool)>)::{lambda(keybinds::InvokeBindEvent*)#1}, geode::ListenerResult, keybinds::InvokeBindEvent*>::~MiniFunctionState()
PUBLIC 50fd4 0 geode::utils::MiniFunctionState<hook62<(anonymous namespace)::hook62Parent>::defineKeybind(std::__ndk1::basic_string<char, std::__ndk1::char_traits<char>, std::__ndk1::allocator<char> > const&, std::__ndk1::function<void (bool)>)::{lambda(keybinds::InvokeBindEvent*)#1}, geode::ListenerResult, keybinds::InvokeBindEvent*>::~MiniFunctionState()
PUBLIC 51028 0 geode::utils::MiniFunctionState<hook62<(anonymous namespace)::hook62Parent>::defineKeybind(std::__ndk1::basic_string<char, std::__ndk1::char_traits<char>, std::__ndk1::allocator<char> > const&, std::__ndk1::function<void (bool)>)::{lambda(keybinds::InvokeBindEvent*)#1}, geode::ListenerResult, keybinds::InvokeBindEvent*>::call(keybinds::InvokeBindEvent*) const
PUBLIC 510b0 0 geode::utils::MiniFunctionState<hook62<(anonymous namespace)::hook62Parent>::defineKeybind(std::__ndk1::basic_string<char, std::__ndk1::char_traits<char>, std::__ndk1::allocator<char> > const&, std::__ndk1::function<void (bool)>)::{lambda(keybinds::InvokeBindEvent*)#1}, geode::ListenerResult, keybinds::InvokeBindEvent*>::clone() const
PUBLIC 51138 0 std::__ndk1::__throw_bad_function_call[abi:v170000]()
PUBLIC m 5116c 0 std::__ndk1::bad_function_call::~bad_function_call()
PUBLIC 51190 0 std::__ndk1::__function::__func<hook62<(anonymous namespace)::hook62Parent>::init(LevelEditorLayer*)::{lambda()#1}::operator()() const::{lambda(bool)#1}, std::__ndk1::allocator<hook62<(anonymous namespace)::hook62Parent>::init(LevelEditorLayer*)::{lambda()#1}::operator()() const::{lambda(bool)#1}>, void (bool)>::~__func()
PUBLIC 51194 0 std::__ndk1::__function::__func<hook62<(anonymous namespace)::hook62Parent>::init(LevelEditorLayer*)::{lambda()#1}::operator()() const::{lambda(bool)#1}, std::__ndk1::allocator<hook62<(anonymous namespace)::hook62Parent>::init(LevelEditorLayer*)::{lambda()#1}::operator()() const::{lambda(bool)#1}>, void (bool)>::__clone() const
PUBLIC 511c8 0 std::__ndk1::__function::__func<hook62<(anonymous namespace)::hook62Parent>::init(LevelEditorLayer*)::{lambda()#1}::operator()() const::{lambda(bool)#1}, std::__ndk1::allocator<hook62<(anonymous namespace)::hook62Parent>::init(LevelEditorLayer*)::{lambda()#1}::operator()() const::{lambda(bool)#1}>, void (bool)>::__clone(std::__ndk1::__function::__base<void (bool)>*) const
PUBLIC 511dc 0 std::__ndk1::__function::__func<hook62<(anonymous namespace)::hook62Parent>::init(LevelEditorLayer*)::{lambda()#1}::operator()() const::{lambda(bool)#1}, std::__ndk1::allocator<hook62<(anonymous namespace)::hook62Parent>::init(LevelEditorLayer*)::{lambda()#1}::operator()() const::{lambda(bool)#1}>, void (bool)>::destroy()
PUBLIC 511e0 0 std::__ndk1::__function::__func<hook62<(anonymous namespace)::hook62Parent>::init(LevelEditorLayer*)::{lambda()#1}::operator()() const::{lambda(bool)#1}, std::__ndk1::allocator<hook62<(anonymous namespace)::hook62Parent>::init(LevelEditorLayer*)::{lambda()#1}::operator()() const::{lambda(bool)#1}>, void (bool)>::destroy_deallocate()
PUBLIC 511e4 0 std::__ndk1::__function::__func<hook62<(anonymous namespace)::hook62Parent>::init(LevelEditorLayer*)::{lambda()#1}::operator()() const::{lambda(bool)#1}, std::__ndk1::allocator<hook62<(anonymous namespace)::hook62Parent>::init(LevelEditorLayer*)::{lambda()#1}::operator()() const::{lambda(bool)#1}>, void (bool)>::operator()(bool&&)
PUBLIC 51208 0 std::__ndk1::__function::__func<hook62<(anonymous namespace)::hook62Parent>::init(LevelEditorLayer*)::{lambda()#1}::operator()() const::{lambda(bool)#1}, std::__ndk1::allocator<hook62<(anonymous namespace)::hook62Parent>::init(LevelEditorLayer*)::{lambda()#1}::operator()() const::{lambda(bool)#1}>, void (bool)>::target(std::type_info const&) const
PUBLIC 51224 0 std::__ndk1::__function::__func<hook62<(anonymous namespace)::hook62Parent>::init(LevelEditorLayer*)::{lambda()#1}::operator()() const::{lambda(bool)#1}, std::__ndk1::allocator<hook62<(anonymous namespace)::hook62Parent>::init(LevelEditorLayer*)::{lambda()#1}::operator()() const::{lambda(bool)#1}>, void (bool)>::target_type() const
PUBLIC 51230 0 std::__ndk1::__function::__base<void (bool)>::~__base()
PUBLIC 51234 0 std::__ndk1::__function::__func<hook62<(anonymous namespace)::hook62Parent>::init(LevelEditorLayer*)::{lambda()#1}::operator()() const::{lambda(bool)#2}, std::__ndk1::allocator<hook62<(anonymous namespace)::hook62Parent>::init(LevelEditorLayer*)::{lambda()#1}::operator()() const::{lambda(bool)#2}>, void (bool)>::~__func()
PUBLIC 51238 0 std::__ndk1::__function::__func<hook62<(anonymous namespace)::hook62Parent>::init(LevelEditorLayer*)::{lambda()#1}::operator()() const::{lambda(bool)#2}, std::__ndk1::allocator<hook62<(anonymous namespace)::hook62Parent>::init(LevelEditorLayer*)::{lambda()#1}::operator()() const::{lambda(bool)#2}>, void (bool)>::__clone() const
PUBLIC 5126c 0 std::__ndk1::__function::__func<hook62<(anonymous namespace)::hook62Parent>::init(LevelEditorLayer*)::{lambda()#1}::operator()() const::{lambda(bool)#2}, std::__ndk1::allocator<hook62<(anonymous namespace)::hook62Parent>::init(LevelEditorLayer*)::{lambda()#1}::operator()() const::{lambda(bool)#2}>, void (bool)>::__clone(std::__ndk1::__function::__base<void (bool)>*) const
PUBLIC 51280 0 std::__ndk1::__function::__func<hook62<(anonymous namespace)::hook62Parent>::init(LevelEditorLayer*)::{lambda()#1}::operator()() const::{lambda(bool)#2}, std::__ndk1::allocator<hook62<(anonymous namespace)::hook62Parent>::init(LevelEditorLayer*)::{lambda()#1}::operator()() const::{lambda(bool)#2}>, void (bool)>::destroy()
PUBLIC 51284 0 std::__ndk1::__function::__func<hook62<(anonymous namespace)::hook62Parent>::init(LevelEditorLayer*)::{lambda()#1}::operator()() const::{lambda(bool)#2}, std::__ndk1::allocator<hook62<(anonymous namespace)::hook62Parent>::init(LevelEditorLayer*)::{lambda()#1}::operator()() const::{lambda(bool)#2}>, void (bool)>::destroy_deallocate()
PUBLIC 51288 0 std::__ndk1::__function::__func<hook62<(anonymous namespace)::hook62Parent>::init(LevelEditorLayer*)::{lambda()#1}::operator()() const::{lambda(bool)#2}, std::__ndk1::allocator<hook62<(anonymous namespace)::hook62Parent>::init(LevelEditorLayer*)::{lambda()#1}::operator()() const::{lambda(bool)#2}>, void (bool)>::operator()(bool&&)
PUBLIC 512ac 0 std::__ndk1::__function::__func<hook62<(anonymous namespace)::hook62Parent>::init(LevelEditorLayer*)::{lambda()#1}::operator()() const::{lambda(bool)#2}, std::__ndk1::allocator<hook62<(anonymous namespace)::hook62Parent>::init(LevelEditorLayer*)::{lambda()#1}::operator()() const::{lambda(bool)#2}>, void (bool)>::target(std::type_info const&) const
PUBLIC 512c8 0 std::__ndk1::__function::__func<hook62<(anonymous namespace)::hook62Parent>::init(LevelEditorLayer*)::{lambda()#1}::operator()() const::{lambda(bool)#2}, std::__ndk1::allocator<hook62<(anonymous namespace)::hook62Parent>::init(LevelEditorLayer*)::{lambda()#1}::operator()() const::{lambda(bool)#2}>, void (bool)>::target_type() const
PUBLIC 512d4 0 std::__ndk1::__function::__func<hook62<(anonymous namespace)::hook62Parent>::init(LevelEditorLayer*)::{lambda()#1}::operator()() const::{lambda(bool)#3}, std::__ndk1::allocator<hook62<(anonymous namespace)::hook62Parent>::init(LevelEditorLayer*)::{lambda()#1}::operator()() const::{lambda(bool)#3}>, void (bool)>::~__func()
PUBLIC 512d8 0 std::__ndk1::__function::__func<hook62<(anonymous namespace)::hook62Parent>::init(LevelEditorLayer*)::{lambda()#1}::operator()() const::{lambda(bool)#3}, std::__ndk1::allocator<hook62<(anonymous namespace)::hook62Parent>::init(LevelEditorLayer*)::{lambda()#1}::operator()() const::{lambda(bool)#3}>, void (bool)>::__clone() const
PUBLIC 5130c 0 std::__ndk1::__function::__func<hook62<(anonymous namespace)::hook62Parent>::init(LevelEditorLayer*)::{lambda()#1}::operator()() const::{lambda(bool)#3}, std::__ndk1::allocator<hook62<(anonymous namespace)::hook62Parent>::init(LevelEditorLayer*)::{lambda()#1}::operator()() const::{lambda(bool)#3}>, void (bool)>::__clone(std::__ndk1::__function::__base<void (bool)>*) const
PUBLIC 51320 0 std::__ndk1::__function::__func<hook62<(anonymous namespace)::hook62Parent>::init(LevelEditorLayer*)::{lambda()#1}::operator()() const::{lambda(bool)#3}, std::__ndk1::allocator<hook62<(anonymous namespace)::hook62Parent>::init(LevelEditorLayer*)::{lambda()#1}::operator()() const::{lambda(bool)#3}>, void (bool)>::destroy()
PUBLIC 51324 0 std::__ndk1::__function::__func<hook62<(anonymous namespace)::hook62Parent>::init(LevelEditorLayer*)::{lambda()#1}::operator()() const::{lambda(bool)#3}, std::__ndk1::allocator<hook62<(anonymous namespace)::hook62Parent>::init(LevelEditorLayer*)::{lambda()#1}::operator()() const::{lambda(bool)#3}>, void (bool)>::destroy_deallocate()
PUBLIC 51328 0 std::__ndk1::__function::__func<hook62<(anonymous namespace)::hook62Parent>::init(LevelEditorLayer*)::{lambda()#1}::operator()() const::{lambda(bool)#3}, std::__ndk1::allocator<hook62<(anonymous namespace)::hook62Parent>::init(LevelEditorLayer*)::{lambda()#1}::operator()() const::{lambda(bool)#3}>, void (bool)>::operator()(bool&&)
PUBLIC 5134c 0 std::__ndk1::__function::__func<hook62<(anonymous namespace)::hook62Parent>::init(LevelEditorLayer*)::{lambda()#1}::operator()() const::{lambda(bool)#3}, std::__ndk1::allocator<hook62<(anonymous namespace)::hook62Parent>::init(LevelEditorLayer*)::{lambda()#1}::operator()() const::{lambda(bool)#3}>, void (bool)>::target(std::type_info const&) const
PUBLIC 51368 0 std::__ndk1::__function::__func<hook62<(anonymous namespace)::hook62Parent>::init(LevelEditorLayer*)::{lambda()#1}::operator()() const::{lambda(bool)#3}, std::__ndk1::allocator<hook62<(anonymous namespace)::hook62Parent>::init(LevelEditorLayer*)::{lambda()#1}::operator()() const::{lambda(bool)#3}>, void (bool)>::target_type() const
PUBLIC 51374 0 std::__ndk1::__function::__func<hook62<(anonymous namespace)::hook62Parent>::init(LevelEditorLayer*)::{lambda()#1}::operator()() const::{lambda(bool)#4}, std::__ndk1::allocator<hook62<(anonymous namespace)::hook62Parent>::init(LevelEditorLayer*)::{lambda()#1}::operator()() const::{lambda(bool)#4}>, void (bool)>::~__func()
PUBLIC 51378 0 std::__ndk1::__function::__func<hook62<(anonymous namespace)::hook62Parent>::init(LevelEditorLayer*)::{lambda()#1}::operator()() const::{lambda(bool)#4}, std::__ndk1::allocator<hook62<(anonymous namespace)::hook62Parent>::init(LevelEditorLayer*)::{lambda()#1}::operator()() const::{lambda(bool)#4}>, void (bool)>::__clone() const
PUBLIC 513ac 0 std::__ndk1::__function::__func<hook62<(anonymous namespace)::hook62Parent>::init(LevelEditorLayer*)::{lambda()#1}::operator()() const::{lambda(bool)#4}, std::__ndk1::allocator<hook62<(anonymous namespace)::hook62Parent>::init(LevelEditorLayer*)::{lambda()#1}::operator()() const::{lambda(bool)#4}>, void (bool)>::__clone(std::__ndk1::__function::__base<void (bool)>*) const
PUBLIC 513c0 0 std::__ndk1::__function::__func<hook62<(anonymous namespace)::hook62Parent>::init(LevelEditorLayer*)::{lambda()#1}::operator()() const::{lambda(bool)#4}, std::__ndk1::allocator<hook62<(anonymous namespace)::hook62Parent>::init(LevelEditorLayer*)::{lambda()#1}::operator()() const::{lambda(bool)#4}>, void (bool)>::destroy()
PUBLIC 513c4 0 std::__ndk1::__function::__func<hook62<(anonymous namespace)::hook62Parent>::init(LevelEditorLayer*)::{lambda()#1}::operator()() const::{lambda(bool)#4}, std::__ndk1::allocator<hook62<(anonymous namespace)::hook62Parent>::init(LevelEditorLayer*)::{lambda()#1}::operator()() const::{lambda(bool)#4}>, void (bool)>::destroy_deallocate()
PUBLIC 513c8 0 std::__ndk1::__function::__func<hook62<(anonymous namespace)::hook62Parent>::init(LevelEditorLayer*)::{lambda()#1}::operator()() const::{lambda(bool)#4}, std::__ndk1::allocator<hook62<(anonymous namespace)::hook62Parent>::init(LevelEditorLayer*)::{lambda()#1}::operator()() const::{lambda(bool)#4}>, void (bool)>::operator()(bool&&)
PUBLIC 513ec 0 std::__ndk1::__function::__func<hook62<(anonymous namespace)::hook62Parent>::init(LevelEditorLayer*)::{lambda()#1}::operator()() const::{lambda(bool)#4}, std::__ndk1::allocator<hook62<(anonymous namespace)::hook62Parent>::init(LevelEditorLayer*)::{lambda()#1}::operator()() const::{lambda(bool)#4}>, void (bool)>::target(std::type_info const&) const
PUBLIC 51408 0 std::__ndk1::__function::__func<hook62<(anonymous namespace)::hook62Parent>::init(LevelEditorLayer*)::{lambda()#1}::operator()() const::{lambda(bool)#4}, std::__ndk1::allocator<hook62<(anonymous namespace)::hook62Parent>::init(LevelEditorLayer*)::{lambda()#1}::operator()() const::{lambda(bool)#4}>, void (bool)>::target_type() const
PUBLIC 51414 0 std::__ndk1::__function::__func<hook62<(anonymous namespace)::hook62Parent>::init(LevelEditorLayer*)::{lambda()#1}::operator()() const::{lambda(bool)#5}, std::__ndk1::allocator<hook62<(anonymous namespace)::hook62Parent>::init(LevelEditorLayer*)::{lambda()#1}::operator()() const::{lambda(bool)#5}>, void (bool)>::~__func()
PUBLIC 51418 0 std::__ndk1::__function::__func<hook62<(anonymous namespace)::hook62Parent>::init(LevelEditorLayer*)::{lambda()#1}::operator()() const::{lambda(bool)#5}, std::__ndk1::allocator<hook62<(anonymous namespace)::hook62Parent>::init(LevelEditorLayer*)::{lambda()#1}::operator()() const::{lambda(bool)#5}>, void (bool)>::__clone() const
PUBLIC 5144c 0 std::__ndk1::__function::__func<hook62<(anonymous namespace)::hook62Parent>::init(LevelEditorLayer*)::{lambda()#1}::operator()() const::{lambda(bool)#5}, std::__ndk1::allocator<hook62<(anonymous namespace)::hook62Parent>::init(LevelEditorLayer*)::{lambda()#1}::operator()() const::{lambda(bool)#5}>, void (bool)>::__clone(std::__ndk1::__function::__base<void (bool)>*) const
PUBLIC 51460 0 std::__ndk1::__function::__func<hook62<(anonymous namespace)::hook62Parent>::init(LevelEditorLayer*)::{lambda()#1}::operator()() const::{lambda(bool)#5}, std::__ndk1::allocator<hook62<(anonymous namespace)::hook62Parent>::init(LevelEditorLayer*)::{lambda()#1}::operator()() const::{lambda(bool)#5}>, void (bool)>::destroy()
PUBLIC 51464 0 std::__ndk1::__function::__func<hook62<(anonymous namespace)::hook62Parent>::init(LevelEditorLayer*)::{lambda()#1}::operator()() const::{lambda(bool)#5}, std::__ndk1::allocator<hook62<(anonymous namespace)::hook62Parent>::init(LevelEditorLayer*)::{lambda()#1}::operator()() const::{lambda(bool)#5}>, void (bool)>::destroy_deallocate()
PUBLIC 51468 0 std::__ndk1::__function::__func<hook62<(anonymous namespace)::hook62Parent>::init(LevelEditorLayer*)::{lambda()#1}::operator()() const::{lambda(bool)#5}, std::__ndk1::allocator<hook62<(anonymous namespace)::hook62Parent>::init(LevelEditorLayer*)::{lambda()#1}::operator()() const::{lambda(bool)#5}>, void (bool)>::operator()(bool&&)
PUBLIC 5148c 0 std::__ndk1::__function::__func<hook62<(anonymous namespace)::hook62Parent>::init(LevelEditorLayer*)::{lambda()#1}::operator()() const::{lambda(bool)#5}, std::__ndk1::allocator<hook62<(anonymous namespace)::hook62Parent>::init(LevelEditorLayer*)::{lambda()#1}::operator()() const::{lambda(bool)#5}>, void (bool)>::target(std::type_info const&) const
PUBLIC 514a8 0 std::__ndk1::__function::__func<hook62<(anonymous namespace)::hook62Parent>::init(LevelEditorLayer*)::{lambda()#1}::operator()() const::{lambda(bool)#5}, std::__ndk1::allocator<hook62<(anonymous namespace)::hook62Parent>::init(LevelEditorLayer*)::{lambda()#1}::operator()() const::{lambda(bool)#5}>, void (bool)>::target_type() const
PUBLIC 514b4 0 std::__ndk1::__function::__func<hook62<(anonymous namespace)::hook62Parent>::init(LevelEditorLayer*)::{lambda()#1}::operator()() const::{lambda(bool)#6}, std::__ndk1::allocator<hook62<(anonymous namespace)::hook62Parent>::init(LevelEditorLayer*)::{lambda()#1}::operator()() const::{lambda(bool)#6}>, void (bool)>::~__func()
PUBLIC 514b8 0 std::__ndk1::__function::__func<hook62<(anonymous namespace)::hook62Parent>::init(LevelEditorLayer*)::{lambda()#1}::operator()() const::{lambda(bool)#6}, std::__ndk1::allocator<hook62<(anonymous namespace)::hook62Parent>::init(LevelEditorLayer*)::{lambda()#1}::operator()() const::{lambda(bool)#6}>, void (bool)>::__clone() const
PUBLIC 514ec 0 std::__ndk1::__function::__func<hook62<(anonymous namespace)::hook62Parent>::init(LevelEditorLayer*)::{lambda()#1}::operator()() const::{lambda(bool)#6}, std::__ndk1::allocator<hook62<(anonymous namespace)::hook62Parent>::init(LevelEditorLayer*)::{lambda()#1}::operator()() const::{lambda(bool)#6}>, void (bool)>::__clone(std::__ndk1::__function::__base<void (bool)>*) const
PUBLIC 51500 0 std::__ndk1::__function::__func<hook62<(anonymous namespace)::hook62Parent>::init(LevelEditorLayer*)::{lambda()#1}::operator()() const::{lambda(bool)#6}, std::__ndk1::allocator<hook62<(anonymous namespace)::hook62Parent>::init(LevelEditorLayer*)::{lambda()#1}::operator()() const::{lambda(bool)#6}>, void (bool)>::destroy()
PUBLIC 51504 0 std::__ndk1::__function::__func<hook62<(anonymous namespace)::hook62Parent>::init(LevelEditorLayer*)::{lambda()#1}::operator()() const::{lambda(bool)#6}, std::__ndk1::allocator<hook62<(anonymous namespace)::hook62Parent>::init(LevelEditorLayer*)::{lambda()#1}::operator()() const::{lambda(bool)#6}>, void (bool)>::destroy_deallocate()
PUBLIC 51508 0 std::__ndk1::__function::__func<hook62<(anonymous namespace)::hook62Parent>::init(LevelEditorLayer*)::{lambda()#1}::operator()() const::{lambda(bool)#6}, std::__ndk1::allocator<hook62<(anonymous namespace)::hook62Parent>::init(LevelEditorLayer*)::{lambda()#1}::operator()() const::{lambda(bool)#6}>, void (bool)>::operator()(bool&&)
PUBLIC 5152c 0 std::__ndk1::__function::__func<hook62<(anonymous namespace)::hook62Parent>::init(LevelEditorLayer*)::{lambda()#1}::operator()() const::{lambda(bool)#6}, std::__ndk1::allocator<hook62<(anonymous namespace)::hook62Parent>::init(LevelEditorLayer*)::{lambda()#1}::operator()() const::{lambda(bool)#6}>, void (bool)>::target(std::type_info const&) const
PUBLIC 51548 0 std::__ndk1::__function::__func<hook62<(anonymous namespace)::hook62Parent>::init(LevelEditorLayer*)::{lambda()#1}::operator()() const::{lambda(bool)#6}, std::__ndk1::allocator<hook62<(anonymous namespace)::hook62Parent>::init(LevelEditorLayer*)::{lambda()#1}::operator()() const::{lambda(bool)#6}>, void (bool)>::target_type() const
PUBLIC 51554 0 std::__ndk1::__function::__func<hook62<(anonymous namespace)::hook62Parent>::init(LevelEditorLayer*)::{lambda()#1}::operator()() const::{lambda(bool)#7}, std::__ndk1::allocator<hook62<(anonymous namespace)::hook62Parent>::init(LevelEditorLayer*)::{lambda()#1}::operator()() const::{lambda(bool)#7}>, void (bool)>::~__func()
PUBLIC 51558 0 std::__ndk1::__function::__func<hook62<(anonymous namespace)::hook62Parent>::init(LevelEditorLayer*)::{lambda()#1}::operator()() const::{lambda(bool)#7}, std::__ndk1::allocator<hook62<(anonymous namespace)::hook62Parent>::init(LevelEditorLayer*)::{lambda()#1}::operator()() const::{lambda(bool)#7}>, void (bool)>::__clone() const
PUBLIC 5158c 0 std::__ndk1::__function::__func<hook62<(anonymous namespace)::hook62Parent>::init(LevelEditorLayer*)::{lambda()#1}::operator()() const::{lambda(bool)#7}, std::__ndk1::allocator<hook62<(anonymous namespace)::hook62Parent>::init(LevelEditorLayer*)::{lambda()#1}::operator()() const::{lambda(bool)#7}>, void (bool)>::__clone(std::__ndk1::__function::__base<void (bool)>*) const
PUBLIC 515a0 0 std::__ndk1::__function::__func<hook62<(anonymous namespace)::hook62Parent>::init(LevelEditorLayer*)::{lambda()#1}::operator()() const::{lambda(bool)#7}, std::__ndk1::allocator<hook62<(anonymous namespace)::hook62Parent>::init(LevelEditorLayer*)::{lambda()#1}::operator()() const::{lambda(bool)#7}>, void (bool)>::destroy()
PUBLIC 515a4 0 std::__ndk1::__function::__func<hook62<(anonymous namespace)::hook62Parent>::init(LevelEditorLayer*)::{lambda()#1}::operator()() const::{lambda(bool)#7}, std::__ndk1::allocator<hook62<(anonymous namespace)::hook62Parent>::init(LevelEditorLayer*)::{lambda()#1}::operator()() const::{lambda(bool)#7}>, void (bool)>::destroy_deallocate()
PUBLIC 515a8 0 std::__ndk1::__function::__func<hook62<(anonymous namespace)::hook62Parent>::init(LevelEditorLayer*)::{lambda()#1}::operator()() const::{lambda(bool)#7}, std::__ndk1::allocator<hook62<(anonymous namespace)::hook62Parent>::init(LevelEditorLayer*)::{lambda()#1}::operator()() const::{lambda(bool)#7}>, void (bool)>::operator()(bool&&)
PUBLIC 51690 0 std::__ndk1::__function::__func<hook62<(anonymous namespace)::hook62Parent>::init(LevelEditorLayer*)::{lambda()#1}::operator()() const::{lambda(bool)#7}, std::__ndk1::allocator<hook62<(anonymous namespace)::hook62Parent>::init(LevelEditorLayer*)::{lambda()#1}::operator()() const::{lambda(bool)#7}>, void (bool)>::target(std::type_info const&) const
PUBLIC 516ac 0 std::__ndk1::__function::__func<hook62<(anonymous namespace)::hook62Parent>::init(LevelEditorLayer*)::{lambda()#1}::operator()() const::{lambda(bool)#7}, std::__ndk1::allocator<hook62<(anonymous namespace)::hook62Parent>::init(LevelEditorLayer*)::{lambda()#1}::operator()() const::{lambda(bool)#7}>, void (bool)>::target_type() const
PUBLIC 516b8 0 geode::utils::MiniFunctionState<hook62<(anonymous namespace)::hook62Parent>::defineKeybind(std::__ndk1::basic_string<char, std::__ndk1::char_traits<char>, std::__ndk1::allocator<char> > const&, std::__ndk1::function<void ()>)::{lambda(keybinds::InvokeBindEvent*)#1}, geode::ListenerResult, keybinds::InvokeBindEvent*>::~MiniFunctionState()
PUBLIC 516f0 0 geode::utils::MiniFunctionState<hook62<(anonymous namespace)::hook62Parent>::defineKeybind(std::__ndk1::basic_string<char, std::__ndk1::char_traits<char>, std::__ndk1::allocator<char> > const&, std::__ndk1::function<void ()>)::{lambda(keybinds::InvokeBindEvent*)#1}, geode::ListenerResult, keybinds::InvokeBindEvent*>::~MiniFunctionState()
PUBLIC 51744 0 geode::utils::MiniFunctionState<hook62<(anonymous namespace)::hook62Parent>::defineKeybind(std::__ndk1::basic_string<char, std::__ndk1::char_traits<char>, std::__ndk1::allocator<char> > const&, std::__ndk1::function<void ()>)::{lambda(keybinds::InvokeBindEvent*)#1}, geode::ListenerResult, keybinds::InvokeBindEvent*>::call(keybinds::InvokeBindEvent*) const
PUBLIC 51788 0 geode::utils::MiniFunctionState<hook62<(anonymous namespace)::hook62Parent>::defineKeybind(std::__ndk1::basic_string<char, std::__ndk1::char_traits<char>, std::__ndk1::allocator<char> > const&, std::__ndk1::function<void ()>)::{lambda(keybinds::InvokeBindEvent*)#1}, geode::ListenerResult, keybinds::InvokeBindEvent*>::clone() const
PUBLIC 51810 0 std::__ndk1::__function::__func<hook62<(anonymous namespace)::hook62Parent>::init(LevelEditorLayer*)::{lambda()#1}::operator()() const::{lambda()#1}, std::__ndk1::allocator<hook62<(anonymous namespace)::hook62Parent>::init(LevelEditorLayer*)::{lambda()#1}::operator()() const::{lambda()#1}>, void ()>::~__func()
PUBLIC 51814 0 std::__ndk1::__function::__func<hook62<(anonymous namespace)::hook62Parent>::init(LevelEditorLayer*)::{lambda()#1}::operator()() const::{lambda()#1}, std::__ndk1::allocator<hook62<(anonymous namespace)::hook62Parent>::init(LevelEditorLayer*)::{lambda()#1}::operator()() const::{lambda()#1}>, void ()>::__clone() const
PUBLIC 51848 0 std::__ndk1::__function::__func<hook62<(anonymous namespace)::hook62Parent>::init(LevelEditorLayer*)::{lambda()#1}::operator()() const::{lambda()#1}, std::__ndk1::allocator<hook62<(anonymous namespace)::hook62Parent>::init(LevelEditorLayer*)::{lambda()#1}::operator()() const::{lambda()#1}>, void ()>::__clone(std::__ndk1::__function::__base<void ()>*) const
PUBLIC 5185c 0 std::__ndk1::__function::__func<hook62<(anonymous namespace)::hook62Parent>::init(LevelEditorLayer*)::{lambda()#1}::operator()() const::{lambda()#1}, std::__ndk1::allocator<hook62<(anonymous namespace)::hook62Parent>::init(LevelEditorLayer*)::{lambda()#1}::operator()() const::{lambda()#1}>, void ()>::destroy()
PUBLIC 51860 0 std::__ndk1::__function::__func<hook62<(anonymous namespace)::hook62Parent>::init(LevelEditorLayer*)::{lambda()#1}::operator()() const::{lambda()#1}, std::__ndk1::allocator<hook62<(anonymous namespace)::hook62Parent>::init(LevelEditorLayer*)::{lambda()#1}::operator()() const::{lambda()#1}>, void ()>::destroy_deallocate()
PUBLIC 51864 0 std::__ndk1::__function::__func<hook62<(anonymous namespace)::hook62Parent>::init(LevelEditorLayer*)::{lambda()#1}::operator()() const::{lambda()#1}, std::__ndk1::allocator<hook62<(anonymous namespace)::hook62Parent>::init(LevelEditorLayer*)::{lambda()#1}::operator()() const::{lambda()#1}>, void ()>::operator()()
PUBLIC 51978 0 std::__ndk1::__function::__func<hook62<(anonymous namespace)::hook62Parent>::init(LevelEditorLayer*)::{lambda()#1}::operator()() const::{lambda()#1}, std::__ndk1::allocator<hook62<(anonymous namespace)::hook62Parent>::init(LevelEditorLayer*)::{lambda()#1}::operator()() const::{lambda()#1}>, void ()>::target(std::type_info const&) const
PUBLIC 51994 0 std::__ndk1::__function::__func<hook62<(anonymous namespace)::hook62Parent>::init(LevelEditorLayer*)::{lambda()#1}::operator()() const::{lambda()#1}, std::__ndk1::allocator<hook62<(anonymous namespace)::hook62Parent>::init(LevelEditorLayer*)::{lambda()#1}::operator()() const::{lambda()#1}>, void ()>::target_type() const
PUBLIC 519a0 0 std::__ndk1::__function::__func<hook62<(anonymous namespace)::hook62Parent>::init(LevelEditorLayer*)::{lambda()#1}::operator()() const::{lambda()#2}, std::__ndk1::allocator<hook62<(anonymous namespace)::hook62Parent>::init(LevelEditorLayer*)::{lambda()#1}::operator()() const::{lambda()#2}>, void ()>::~__func()
PUBLIC 519a4 0 std::__ndk1::__function::__func<hook62<(anonymous namespace)::hook62Parent>::init(LevelEditorLayer*)::{lambda()#1}::operator()() const::{lambda()#2}, std::__ndk1::allocator<hook62<(anonymous namespace)::hook62Parent>::init(LevelEditorLayer*)::{lambda()#1}::operator()() const::{lambda()#2}>, void ()>::__clone() const
PUBLIC 519d8 0 std::__ndk1::__function::__func<hook62<(anonymous namespace)::hook62Parent>::init(LevelEditorLayer*)::{lambda()#1}::operator()() const::{lambda()#2}, std::__ndk1::allocator<hook62<(anonymous namespace)::hook62Parent>::init(LevelEditorLayer*)::{lambda()#1}::operator()() const::{lambda()#2}>, void ()>::__clone(std::__ndk1::__function::__base<void ()>*) const
PUBLIC 519ec 0 std::__ndk1::__function::__func<hook62<(anonymous namespace)::hook62Parent>::init(LevelEditorLayer*)::{lambda()#1}::operator()() const::{lambda()#2}, std::__ndk1::allocator<hook62<(anonymous namespace)::hook62Parent>::init(LevelEditorLayer*)::{lambda()#1}::operator()() const::{lambda()#2}>, void ()>::destroy()
PUBLIC 519f0 0 std::__ndk1::__function::__func<hook62<(anonymous namespace)::hook62Parent>::init(LevelEditorLayer*)::{lambda()#1}::operator()() const::{lambda()#2}, std::__ndk1::allocator<hook62<(anonymous namespace)::hook62Parent>::init(LevelEditorLayer*)::{lambda()#1}::operator()() const::{lambda()#2}>, void ()>::destroy_deallocate()
PUBLIC 519f4 0 std::__ndk1::__function::__func<hook62<(anonymous namespace)::hook62Parent>::init(LevelEditorLayer*)::{lambda()#1}::operator()() const::{lambda()#2}, std::__ndk1::allocator<hook62<(anonymous namespace)::hook62Parent>::init(LevelEditorLayer*)::{lambda()#1}::operator()() const::{lambda()#2}>, void ()>::operator()()
PUBLIC 51b08 0 std::__ndk1::__function::__func<hook62<(anonymous namespace)::hook62Parent>::init(LevelEditorLayer*)::{lambda()#1}::operator()() const::{lambda()#2}, std::__ndk1::allocator<hook62<(anonymous namespace)::hook62Parent>::init(LevelEditorLayer*)::{lambda()#1}::operator()() const::{lambda()#2}>, void ()>::target(std::type_info const&) const
PUBLIC 51b24 0 std::__ndk1::__function::__func<hook62<(anonymous namespace)::hook62Parent>::init(LevelEditorLayer*)::{lambda()#1}::operator()() const::{lambda()#2}, std::__ndk1::allocator<hook62<(anonymous namespace)::hook62Parent>::init(LevelEditorLayer*)::{lambda()#1}::operator()() const::{lambda()#2}>, void ()>::target_type() const
PUBLIC 51b30 0 std::__ndk1::__function::__func<hook62<(anonymous namespace)::hook62Parent>::init(LevelEditorLayer*)::{lambda()#1}::operator()() const::{lambda()#3}, std::__ndk1::allocator<hook62<(anonymous namespace)::hook62Parent>::init(LevelEditorLayer*)::{lambda()#1}::operator()() const::{lambda()#3}>, void ()>::~__func()
PUBLIC 51b34 0 std::__ndk1::__function::__func<hook62<(anonymous namespace)::hook62Parent>::init(LevelEditorLayer*)::{lambda()#1}::operator()() const::{lambda()#3}, std::__ndk1::allocator<hook62<(anonymous namespace)::hook62Parent>::init(LevelEditorLayer*)::{lambda()#1}::operator()() const::{lambda()#3}>, void ()>::__clone() const
PUBLIC 51b68 0 std::__ndk1::__function::__func<hook62<(anonymous namespace)::hook62Parent>::init(LevelEditorLayer*)::{lambda()#1}::operator()() const::{lambda()#3}, std::__ndk1::allocator<hook62<(anonymous namespace)::hook62Parent>::init(LevelEditorLayer*)::{lambda()#1}::operator()() const::{lambda()#3}>, void ()>::__clone(std::__ndk1::__function::__base<void ()>*) const
PUBLIC 51b7c 0 std::__ndk1::__function::__func<hook62<(anonymous namespace)::hook62Parent>::init(LevelEditorLayer*)::{lambda()#1}::operator()() const::{lambda()#3}, std::__ndk1::allocator<hook62<(anonymous namespace)::hook62Parent>::init(LevelEditorLayer*)::{lambda()#1}::operator()() const::{lambda()#3}>, void ()>::destroy()
PUBLIC 51b80 0 std::__ndk1::__function::__func<hook62<(anonymous namespace)::hook62Parent>::init(LevelEditorLayer*)::{lambda()#1}::operator()() const::{lambda()#3}, std::__ndk1::allocator<hook62<(anonymous namespace)::hook62Parent>::init(LevelEditorLayer*)::{lambda()#1}::operator()() const::{lambda()#3}>, void ()>::destroy_deallocate()
PUBLIC 51b84 0 std::__ndk1::__function::__func<hook62<(anonymous namespace)::hook62Parent>::init(LevelEditorLayer*)::{lambda()#1}::operator()() const::{lambda()#3}, std::__ndk1::allocator<hook62<(anonymous namespace)::hook62Parent>::init(LevelEditorLayer*)::{lambda()#1}::operator()() const::{lambda()#3}>, void ()>::operator()()
PUBLIC 51c98 0 std::__ndk1::__function::__func<hook62<(anonymous namespace)::hook62Parent>::init(LevelEditorLayer*)::{lambda()#1}::operator()() const::{lambda()#3}, std::__ndk1::allocator<hook62<(anonymous namespace)::hook62Parent>::init(LevelEditorLayer*)::{lambda()#1}::operator()() const::{lambda()#3}>, void ()>::target(std::type_info const&) const
PUBLIC 51cb4 0 std::__ndk1::__function::__func<hook62<(anonymous namespace)::hook62Parent>::init(LevelEditorLayer*)::{lambda()#1}::operator()() const::{lambda()#3}, std::__ndk1::allocator<hook62<(anonymous namespace)::hook62Parent>::init(LevelEditorLayer*)::{lambda()#1}::operator()() const::{lambda()#3}>, void ()>::target_type() const
PUBLIC 51cc0 0 std::__ndk1::__function::__func<hook62<(anonymous namespace)::hook62Parent>::init(LevelEditorLayer*)::{lambda()#1}::operator()() const::{lambda()#4}, std::__ndk1::allocator<hook62<(anonymous namespace)::hook62Parent>::init(LevelEditorLayer*)::{lambda()#1}::operator()() const::{lambda()#4}>, void ()>::~__func()
PUBLIC 51cc4 0 std::__ndk1::__function::__func<hook62<(anonymous namespace)::hook62Parent>::init(LevelEditorLayer*)::{lambda()#1}::operator()() const::{lambda()#4}, std::__ndk1::allocator<hook62<(anonymous namespace)::hook62Parent>::init(LevelEditorLayer*)::{lambda()#1}::operator()() const::{lambda()#4}>, void ()>::__clone() const
PUBLIC 51cf8 0 std::__ndk1::__function::__func<hook62<(anonymous namespace)::hook62Parent>::init(LevelEditorLayer*)::{lambda()#1}::operator()() const::{lambda()#4}, std::__ndk1::allocator<hook62<(anonymous namespace)::hook62Parent>::init(LevelEditorLayer*)::{lambda()#1}::operator()() const::{lambda()#4}>, void ()>::__clone(std::__ndk1::__function::__base<void ()>*) const
PUBLIC 51d0c 0 std::__ndk1::__function::__func<hook62<(anonymous namespace)::hook62Parent>::init(LevelEditorLayer*)::{lambda()#1}::operator()() const::{lambda()#4}, std::__ndk1::allocator<hook62<(anonymous namespace)::hook62Parent>::init(LevelEditorLayer*)::{lambda()#1}::operator()() const::{lambda()#4}>, void ()>::destroy()
PUBLIC 51d10 0 std::__ndk1::__function::__func<hook62<(anonymous namespace)::hook62Parent>::init(LevelEditorLayer*)::{lambda()#1}::operator()() const::{lambda()#4}, std::__ndk1::allocator<hook62<(anonymous namespace)::hook62Parent>::init(LevelEditorLayer*)::{lambda()#1}::operator()() const::{lambda()#4}>, void ()>::destroy_deallocate()
PUBLIC 51d14 0 std::__ndk1::__function::__func<hook62<(anonymous namespace)::hook62Parent>::init(LevelEditorLayer*)::{lambda()#1}::operator()() const::{lambda()#4}, std::__ndk1::allocator<hook62<(anonymous namespace)::hook62Parent>::init(LevelEditorLayer*)::{lambda()#1}::operator()() const::{lambda()#4}>, void ()>::operator()()
PUBLIC 51e28 0 std::__ndk1::__function::__func<hook62<(anonymous namespace)::hook62Parent>::init(LevelEditorLayer*)::{lambda()#1}::operator()() const::{lambda()#4}, std::__ndk1::allocator<hook62<(anonymous namespace)::hook62Parent>::init(LevelEditorLayer*)::{lambda()#1}::operator()() const::{lambda()#4}>, void ()>::target(std::type_info const&) const
PUBLIC 51e44 0 std::__ndk1::__function::__func<hook62<(anonymous namespace)::hook62Parent>::init(LevelEditorLayer*)::{lambda()#1}::operator()() const::{lambda()#4}, std::__ndk1::allocator<hook62<(anonymous namespace)::hook62Parent>::init(LevelEditorLayer*)::{lambda()#1}::operator()() const::{lambda()#4}>, void ()>::target_type() const
PUBLIC 51e50 0 std::__ndk1::__function::__func<hook62<(anonymous namespace)::hook62Parent>::init(LevelEditorLayer*)::{lambda()#1}::operator()() const::{lambda()#5}, std::__ndk1::allocator<hook62<(anonymous namespace)::hook62Parent>::init(LevelEditorLayer*)::{lambda()#1}::operator()() const::{lambda()#5}>, void ()>::~__func()
PUBLIC 51e54 0 std::__ndk1::__function::__func<hook62<(anonymous namespace)::hook62Parent>::init(LevelEditorLayer*)::{lambda()#1}::operator()() const::{lambda()#5}, std::__ndk1::allocator<hook62<(anonymous namespace)::hook62Parent>::init(LevelEditorLayer*)::{lambda()#1}::operator()() const::{lambda()#5}>, void ()>::__clone() const
PUBLIC 51e88 0 std::__ndk1::__function::__func<hook62<(anonymous namespace)::hook62Parent>::init(LevelEditorLayer*)::{lambda()#1}::operator()() const::{lambda()#5}, std::__ndk1::allocator<hook62<(anonymous namespace)::hook62Parent>::init(LevelEditorLayer*)::{lambda()#1}::operator()() const::{lambda()#5}>, void ()>::__clone(std::__ndk1::__function::__base<void ()>*) const
PUBLIC 51e9c 0 std::__ndk1::__function::__func<hook62<(anonymous namespace)::hook62Parent>::init(LevelEditorLayer*)::{lambda()#1}::operator()() const::{lambda()#5}, std::__ndk1::allocator<hook62<(anonymous namespace)::hook62Parent>::init(LevelEditorLayer*)::{lambda()#1}::operator()() const::{lambda()#5}>, void ()>::destroy()
PUBLIC 51ea0 0 std::__ndk1::__function::__func<hook62<(anonymous namespace)::hook62Parent>::init(LevelEditorLayer*)::{lambda()#1}::operator()() const::{lambda()#5}, std::__ndk1::allocator<hook62<(anonymous namespace)::hook62Parent>::init(LevelEditorLayer*)::{lambda()#1}::operator()() const::{lambda()#5}>, void ()>::destroy_deallocate()
PUBLIC 51ea4 0 std::__ndk1::__function::__func<hook62<(anonymous namespace)::hook62Parent>::init(LevelEditorLayer*)::{lambda()#1}::operator()() const::{lambda()#5}, std::__ndk1::allocator<hook62<(anonymous namespace)::hook62Parent>::init(LevelEditorLayer*)::{lambda()#1}::operator()() const::{lambda()#5}>, void ()>::operator()()
PUBLIC 51fb8 0 std::__ndk1::__function::__func<hook62<(anonymous namespace)::hook62Parent>::init(LevelEditorLayer*)::{lambda()#1}::operator()() const::{lambda()#5}, std::__ndk1::allocator<hook62<(anonymous namespace)::hook62Parent>::init(LevelEditorLayer*)::{lambda()#1}::operator()() const::{lambda()#5}>, void ()>::target(std::type_info const&) const
PUBLIC 51fd4 0 std::__ndk1::__function::__func<hook62<(anonymous namespace)::hook62Parent>::init(LevelEditorLayer*)::{lambda()#1}::operator()() const::{lambda()#5}, std::__ndk1::allocator<hook62<(anonymous namespace)::hook62Parent>::init(LevelEditorLayer*)::{lambda()#1}::operator()() const::{lambda()#5}>, void ()>::target_type() const
PUBLIC 51fe0 0 std::__ndk1::__function::__func<hook62<(anonymous namespace)::hook62Parent>::init(LevelEditorLayer*)::{lambda()#1}::operator()() const::{lambda()#6}, std::__ndk1::allocator<hook62<(anonymous namespace)::hook62Parent>::init(LevelEditorLayer*)::{lambda()#1}::operator()() const::{lambda()#6}>, void ()>::~__func()
PUBLIC 51fe4 0 std::__ndk1::__function::__func<hook62<(anonymous namespace)::hook62Parent>::init(LevelEditorLayer*)::{lambda()#1}::operator()() const::{lambda()#6}, std::__ndk1::allocator<hook62<(anonymous namespace)::hook62Parent>::init(LevelEditorLayer*)::{lambda()#1}::operator()() const::{lambda()#6}>, void ()>::__clone() const
PUBLIC 52018 0 std::__ndk1::__function::__func<hook62<(anonymous namespace)::hook62Parent>::init(LevelEditorLayer*)::{lambda()#1}::operator()() const::{lambda()#6}, std::__ndk1::allocator<hook62<(anonymous namespace)::hook62Parent>::init(LevelEditorLayer*)::{lambda()#1}::operator()() const::{lambda()#6}>, void ()>::__clone(std::__ndk1::__function::__base<void ()>*) const
PUBLIC 5202c 0 std::__ndk1::__function::__func<hook62<(anonymous namespace)::hook62Parent>::init(LevelEditorLayer*)::{lambda()#1}::operator()() const::{lambda()#6}, std::__ndk1::allocator<hook62<(anonymous namespace)::hook62Parent>::init(LevelEditorLayer*)::{lambda()#1}::operator()() const::{lambda()#6}>, void ()>::destroy()
PUBLIC 52030 0 std::__ndk1::__function::__func<hook62<(anonymous namespace)::hook62Parent>::init(LevelEditorLayer*)::{lambda()#1}::operator()() const::{lambda()#6}, std::__ndk1::allocator<hook62<(anonymous namespace)::hook62Parent>::init(LevelEditorLayer*)::{lambda()#1}::operator()() const::{lambda()#6}>, void ()>::destroy_deallocate()
PUBLIC 52034 0 std::__ndk1::__function::__func<hook62<(anonymous namespace)::hook62Parent>::init(LevelEditorLayer*)::{lambda()#1}::operator()() const::{lambda()#6}, std::__ndk1::allocator<hook62<(anonymous namespace)::hook62Parent>::init(LevelEditorLayer*)::{lambda()#1}::operator()() const::{lambda()#6}>, void ()>::operator()()
PUBLIC 52148 0 std::__ndk1::__function::__func<hook62<(anonymous namespace)::hook62Parent>::init(LevelEditorLayer*)::{lambda()#1}::operator()() const::{lambda()#6}, std::__ndk1::allocator<hook62<(anonymous namespace)::hook62Parent>::init(LevelEditorLayer*)::{lambda()#1}::operator()() const::{lambda()#6}>, void ()>::target(std::type_info const&) const
PUBLIC 52164 0 std::__ndk1::__function::__func<hook62<(anonymous namespace)::hook62Parent>::init(LevelEditorLayer*)::{lambda()#1}::operator()() const::{lambda()#6}, std::__ndk1::allocator<hook62<(anonymous namespace)::hook62Parent>::init(LevelEditorLayer*)::{lambda()#1}::operator()() const::{lambda()#6}>, void ()>::target_type() const
PUBLIC 52170 0 std::__ndk1::__function::__func<hook62<(anonymous namespace)::hook62Parent>::init(LevelEditorLayer*)::{lambda()#1}::operator()() const::{lambda()#7}, std::__ndk1::allocator<hook62<(anonymous namespace)::hook62Parent>::init(LevelEditorLayer*)::{lambda()#1}::operator()() const::{lambda()#7}>, void ()>::~__func()
PUBLIC 52174 0 std::__ndk1::__function::__func<hook62<(anonymous namespace)::hook62Parent>::init(LevelEditorLayer*)::{lambda()#1}::operator()() const::{lambda()#7}, std::__ndk1::allocator<hook62<(anonymous namespace)::hook62Parent>::init(LevelEditorLayer*)::{lambda()#1}::operator()() const::{lambda()#7}>, void ()>::__clone() const
PUBLIC 521a8 0 std::__ndk1::__function::__func<hook62<(anonymous namespace)::hook62Parent>::init(LevelEditorLayer*)::{lambda()#1}::operator()() const::{lambda()#7}, std::__ndk1::allocator<hook62<(anonymous namespace)::hook62Parent>::init(LevelEditorLayer*)::{lambda()#1}::operator()() const::{lambda()#7}>, void ()>::__clone(std::__ndk1::__function::__base<void ()>*) const
PUBLIC 521bc 0 std::__ndk1::__function::__func<hook62<(anonymous namespace)::hook62Parent>::init(LevelEditorLayer*)::{lambda()#1}::operator()() const::{lambda()#7}, std::__ndk1::allocator<hook62<(anonymous namespace)::hook62Parent>::init(LevelEditorLayer*)::{lambda()#1}::operator()() const::{lambda()#7}>, void ()>::destroy()
PUBLIC 521c0 0 std::__ndk1::__function::__func<hook62<(anonymous namespace)::hook62Parent>::init(LevelEditorLayer*)::{lambda()#1}::operator()() const::{lambda()#7}, std::__ndk1::allocator<hook62<(anonymous namespace)::hook62Parent>::init(LevelEditorLayer*)::{lambda()#1}::operator()() const::{lambda()#7}>, void ()>::destroy_deallocate()
PUBLIC 521c4 0 std::__ndk1::__function::__func<hook62<(anonymous namespace)::hook62Parent>::init(LevelEditorLayer*)::{lambda()#1}::operator()() const::{lambda()#7}, std::__ndk1::allocator<hook62<(anonymous namespace)::hook62Parent>::init(LevelEditorLayer*)::{lambda()#1}::operator()() const::{lambda()#7}>, void ()>::operator()()
PUBLIC 522d8 0 std::__ndk1::__function::__func<hook62<(anonymous namespace)::hook62Parent>::init(LevelEditorLayer*)::{lambda()#1}::operator()() const::{lambda()#7}, std::__ndk1::allocator<hook62<(anonymous namespace)::hook62Parent>::init(LevelEditorLayer*)::{lambda()#1}::operator()() const::{lambda()#7}>, void ()>::target(std::type_info const&) const
PUBLIC 522f4 0 std::__ndk1::__function::__func<hook62<(anonymous namespace)::hook62Parent>::init(LevelEditorLayer*)::{lambda()#1}::operator()() const::{lambda()#7}, std::__ndk1::allocator<hook62<(anonymous namespace)::hook62Parent>::init(LevelEditorLayer*)::{lambda()#1}::operator()() const::{lambda()#7}>, void ()>::target_type() const
PUBLIC 52300 0 std::__ndk1::__function::__func<hook62<(anonymous namespace)::hook62Parent>::init(LevelEditorLayer*)::{lambda()#1}::operator()() const::{lambda()#8}, std::__ndk1::allocator<hook62<(anonymous namespace)::hook62Parent>::init(LevelEditorLayer*)::{lambda()#1}::operator()() const::{lambda()#8}>, void ()>::~__func()
PUBLIC 52304 0 std::__ndk1::__function::__func<hook62<(anonymous namespace)::hook62Parent>::init(LevelEditorLayer*)::{lambda()#1}::operator()() const::{lambda()#8}, std::__ndk1::allocator<hook62<(anonymous namespace)::hook62Parent>::init(LevelEditorLayer*)::{lambda()#1}::operator()() const::{lambda()#8}>, void ()>::__clone() const
PUBLIC 52338 0 std::__ndk1::__function::__func<hook62<(anonymous namespace)::hook62Parent>::init(LevelEditorLayer*)::{lambda()#1}::operator()() const::{lambda()#8}, std::__ndk1::allocator<hook62<(anonymous namespace)::hook62Parent>::init(LevelEditorLayer*)::{lambda()#1}::operator()() const::{lambda()#8}>, void ()>::__clone(std::__ndk1::__function::__base<void ()>*) const
PUBLIC 5234c 0 std::__ndk1::__function::__func<hook62<(anonymous namespace)::hook62Parent>::init(LevelEditorLayer*)::{lambda()#1}::operator()() const::{lambda()#8}, std::__ndk1::allocator<hook62<(anonymous namespace)::hook62Parent>::init(LevelEditorLayer*)::{lambda()#1}::operator()() const::{lambda()#8}>, void ()>::destroy()
PUBLIC 52350 0 std::__ndk1::__function::__func<hook62<(anonymous namespace)::hook62Parent>::init(LevelEditorLayer*)::{lambda()#1}::operator()() const::{lambda()#8}, std::__ndk1::allocator<hook62<(anonymous namespace)::hook62Parent>::init(LevelEditorLayer*)::{lambda()#1}::operator()() const::{lambda()#8}>, void ()>::destroy_deallocate()
PUBLIC 52354 0 std::__ndk1::__function::__func<hook62<(anonymous namespace)::hook62Parent>::init(LevelEditorLayer*)::{lambda()#1}::operator()() const::{lambda()#8}, std::__ndk1::allocator<hook62<(anonymous namespace)::hook62Parent>::init(LevelEditorLayer*)::{lambda()#1}::operator()() const::{lambda()#8}>, void ()>::operator()()
PUBLIC 52468 0 std::__ndk1::__function::__func<hook62<(anonymous namespace)::hook62Parent>::init(LevelEditorLayer*)::{lambda()#1}::operator()() const::{lambda()#8}, std::__ndk1::allocator<hook62<(anonymous namespace)::hook62Parent>::init(LevelEditorLayer*)::{lambda()#1}::operator()() const::{lambda()#8}>, void ()>::target(std::type_info const&) const
PUBLIC 52484 0 std::__ndk1::__function::__func<hook62<(anonymous namespace)::hook62Parent>::init(LevelEditorLayer*)::{lambda()#1}::operator()() const::{lambda()#8}, std::__ndk1::allocator<hook62<(anonymous namespace)::hook62Parent>::init(LevelEditorLayer*)::{lambda()#1}::operator()() const::{lambda()#8}>, void ()>::target_type() const
PUBLIC 52490 0 std::__ndk1::__function::__func<hook62<(anonymous namespace)::hook62Parent>::init(LevelEditorLayer*)::{lambda()#1}::operator()() const::{lambda()#9}, std::__ndk1::allocator<hook62<(anonymous namespace)::hook62Parent>::init(LevelEditorLayer*)::{lambda()#1}::operator()() const::{lambda()#9}>, void ()>::~__func()
PUBLIC 52494 0 std::__ndk1::__function::__func<hook62<(anonymous namespace)::hook62Parent>::init(LevelEditorLayer*)::{lambda()#1}::operator()() const::{lambda()#9}, std::__ndk1::allocator<hook62<(anonymous namespace)::hook62Parent>::init(LevelEditorLayer*)::{lambda()#1}::operator()() const::{lambda()#9}>, void ()>::__clone() const
PUBLIC 524c8 0 std::__ndk1::__function::__func<hook62<(anonymous namespace)::hook62Parent>::init(LevelEditorLayer*)::{lambda()#1}::operator()() const::{lambda()#9}, std::__ndk1::allocator<hook62<(anonymous namespace)::hook62Parent>::init(LevelEditorLayer*)::{lambda()#1}::operator()() const::{lambda()#9}>, void ()>::__clone(std::__ndk1::__function::__base<void ()>*) const
PUBLIC 524dc 0 std::__ndk1::__function::__func<hook62<(anonymous namespace)::hook62Parent>::init(LevelEditorLayer*)::{lambda()#1}::operator()() const::{lambda()#9}, std::__ndk1::allocator<hook62<(anonymous namespace)::hook62Parent>::init(LevelEditorLayer*)::{lambda()#1}::operator()() const::{lambda()#9}>, void ()>::destroy()
PUBLIC 524e0 0 std::__ndk1::__function::__func<hook62<(anonymous namespace)::hook62Parent>::init(LevelEditorLayer*)::{lambda()#1}::operator()() const::{lambda()#9}, std::__ndk1::allocator<hook62<(anonymous namespace)::hook62Parent>::init(LevelEditorLayer*)::{lambda()#1}::operator()() const::{lambda()#9}>, void ()>::destroy_deallocate()
PUBLIC 524e4 0 std::__ndk1::__function::__func<hook62<(anonymous namespace)::hook62Parent>::init(LevelEditorLayer*)::{lambda()#1}::operator()() const::{lambda()#9}, std::__ndk1::allocator<hook62<(anonymous namespace)::hook62Parent>::init(LevelEditorLayer*)::{lambda()#1}::operator()() const::{lambda()#9}>, void ()>::operator()()
PUBLIC 525f8 0 std::__ndk1::__function::__func<hook62<(anonymous namespace)::hook62Parent>::init(LevelEditorLayer*)::{lambda()#1}::operator()() const::{lambda()#9}, std::__ndk1::allocator<hook62<(anonymous namespace)::hook62Parent>::init(LevelEditorLayer*)::{lambda()#1}::operator()() const::{lambda()#9}>, void ()>::target(std::type_info const&) const
PUBLIC 52614 0 std::__ndk1::__function::__func<hook62<(anonymous namespace)::hook62Parent>::init(LevelEditorLayer*)::{lambda()#1}::operator()() const::{lambda()#9}, std::__ndk1::allocator<hook62<(anonymous namespace)::hook62Parent>::init(LevelEditorLayer*)::{lambda()#1}::operator()() const::{lambda()#9}>, void ()>::target_type() const
PUBLIC 52620 0 std::__ndk1::__function::__func<hook62<(anonymous namespace)::hook62Parent>::init(LevelEditorLayer*)::{lambda()#1}::operator()() const::{lambda()#10}, std::__ndk1::allocator<hook62<(anonymous namespace)::hook62Parent>::init(LevelEditorLayer*)::{lambda()#1}::operator()() const::{lambda()#10}>, void ()>::~__func()
PUBLIC 52624 0 std::__ndk1::__function::__func<hook62<(anonymous namespace)::hook62Parent>::init(LevelEditorLayer*)::{lambda()#1}::operator()() const::{lambda()#10}, std::__ndk1::allocator<hook62<(anonymous namespace)::hook62Parent>::init(LevelEditorLayer*)::{lambda()#1}::operator()() const::{lambda()#10}>, void ()>::__clone() const
PUBLIC 52658 0 std::__ndk1::__function::__func<hook62<(anonymous namespace)::hook62Parent>::init(LevelEditorLayer*)::{lambda()#1}::operator()() const::{lambda()#10}, std::__ndk1::allocator<hook62<(anonymous namespace)::hook62Parent>::init(LevelEditorLayer*)::{lambda()#1}::operator()() const::{lambda()#10}>, void ()>::__clone(std::__ndk1::__function::__base<void ()>*) const
PUBLIC 5266c 0 std::__ndk1::__function::__func<hook62<(anonymous namespace)::hook62Parent>::init(LevelEditorLayer*)::{lambda()#1}::operator()() const::{lambda()#10}, std::__ndk1::allocator<hook62<(anonymous namespace)::hook62Parent>::init(LevelEditorLayer*)::{lambda()#1}::operator()() const::{lambda()#10}>, void ()>::destroy()
PUBLIC 52670 0 std::__ndk1::__function::__func<hook62<(anonymous namespace)::hook62Parent>::init(LevelEditorLayer*)::{lambda()#1}::operator()() const::{lambda()#10}, std::__ndk1::allocator<hook62<(anonymous namespace)::hook62Parent>::init(LevelEditorLayer*)::{lambda()#1}::operator()() const::{lambda()#10}>, void ()>::destroy_deallocate()
PUBLIC 52674 0 std::__ndk1::__function::__func<hook62<(anonymous namespace)::hook62Parent>::init(LevelEditorLayer*)::{lambda()#1}::operator()() const::{lambda()#10}, std::__ndk1::allocator<hook62<(anonymous namespace)::hook62Parent>::init(LevelEditorLayer*)::{lambda()#1}::operator()() const::{lambda()#10}>, void ()>::operator()()
PUBLIC 52798 0 std::__ndk1::__function::__func<hook62<(anonymous namespace)::hook62Parent>::init(LevelEditorLayer*)::{lambda()#1}::operator()() const::{lambda()#10}, std::__ndk1::allocator<hook62<(anonymous namespace)::hook62Parent>::init(LevelEditorLayer*)::{lambda()#1}::operator()() const::{lambda()#10}>, void ()>::target(std::type_info const&) const
PUBLIC 527b4 0 std::__ndk1::__function::__func<hook62<(anonymous namespace)::hook62Parent>::init(LevelEditorLayer*)::{lambda()#1}::operator()() const::{lambda()#10}, std::__ndk1::allocator<hook62<(anonymous namespace)::hook62Parent>::init(LevelEditorLayer*)::{lambda()#1}::operator()() const::{lambda()#10}>, void ()>::target_type() const
PUBLIC 527c0 0 std::__ndk1::__function::__func<hook62<(anonymous namespace)::hook62Parent>::init(LevelEditorLayer*)::{lambda()#1}::operator()() const::{lambda()#11}, std::__ndk1::allocator<hook62<(anonymous namespace)::hook62Parent>::init(LevelEditorLayer*)::{lambda()#1}::operator()() const::{lambda()#11}>, void ()>::~__func()
PUBLIC 527c4 0 std::__ndk1::__function::__func<hook62<(anonymous namespace)::hook62Parent>::init(LevelEditorLayer*)::{lambda()#1}::operator()() const::{lambda()#11}, std::__ndk1::allocator<hook62<(anonymous namespace)::hook62Parent>::init(LevelEditorLayer*)::{lambda()#1}::operator()() const::{lambda()#11}>, void ()>::__clone() const
PUBLIC 527f8 0 std::__ndk1::__function::__func<hook62<(anonymous namespace)::hook62Parent>::init(LevelEditorLayer*)::{lambda()#1}::operator()() const::{lambda()#11}, std::__ndk1::allocator<hook62<(anonymous namespace)::hook62Parent>::init(LevelEditorLayer*)::{lambda()#1}::operator()() const::{lambda()#11}>, void ()>::__clone(std::__ndk1::__function::__base<void ()>*) const
PUBLIC 5280c 0 std::__ndk1::__function::__func<hook62<(anonymous namespace)::hook62Parent>::init(LevelEditorLayer*)::{lambda()#1}::operator()() const::{lambda()#11}, std::__ndk1::allocator<hook62<(anonymous namespace)::hook62Parent>::init(LevelEditorLayer*)::{lambda()#1}::operator()() const::{lambda()#11}>, void ()>::destroy()
PUBLIC 52810 0 std::__ndk1::__function::__func<hook62<(anonymous namespace)::hook62Parent>::init(LevelEditorLayer*)::{lambda()#1}::operator()() const::{lambda()#11}, std::__ndk1::allocator<hook62<(anonymous namespace)::hook62Parent>::init(LevelEditorLayer*)::{lambda()#1}::operator()() const::{lambda()#11}>, void ()>::destroy_deallocate()
PUBLIC 52814 0 std::__ndk1::__function::__func<hook62<(anonymous namespace)::hook62Parent>::init(LevelEditorLayer*)::{lambda()#1}::operator()() const::{lambda()#11}, std::__ndk1::allocator<hook62<(anonymous namespace)::hook62Parent>::init(LevelEditorLayer*)::{lambda()#1}::operator()() const::{lambda()#11}>, void ()>::operator()()
PUBLIC 52928 0 std::__ndk1::__function::__func<hook62<(anonymous namespace)::hook62Parent>::init(LevelEditorLayer*)::{lambda()#1}::operator()() const::{lambda()#11}, std::__ndk1::allocator<hook62<(anonymous namespace)::hook62Parent>::init(LevelEditorLayer*)::{lambda()#1}::operator()() const::{lambda()#11}>, void ()>::target(std::type_info const&) const
PUBLIC 52944 0 std::__ndk1::__function::__func<hook62<(anonymous namespace)::hook62Parent>::init(LevelEditorLayer*)::{lambda()#1}::operator()() const::{lambda()#11}, std::__ndk1::allocator<hook62<(anonymous namespace)::hook62Parent>::init(LevelEditorLayer*)::{lambda()#1}::operator()() const::{lambda()#11}>, void ()>::target_type() const
PUBLIC 52950 0 std::__ndk1::__function::__func<hook62<(anonymous namespace)::hook62Parent>::init(LevelEditorLayer*)::{lambda()#1}::operator()() const::{lambda()#12}, std::__ndk1::allocator<hook62<(anonymous namespace)::hook62Parent>::init(LevelEditorLayer*)::{lambda()#1}::operator()() const::{lambda()#12}>, void ()>::~__func()
PUBLIC 52954 0 std::__ndk1::__function::__func<hook62<(anonymous namespace)::hook62Parent>::init(LevelEditorLayer*)::{lambda()#1}::operator()() const::{lambda()#12}, std::__ndk1::allocator<hook62<(anonymous namespace)::hook62Parent>::init(LevelEditorLayer*)::{lambda()#1}::operator()() const::{lambda()#12}>, void ()>::__clone() const
PUBLIC 52988 0 std::__ndk1::__function::__func<hook62<(anonymous namespace)::hook62Parent>::init(LevelEditorLayer*)::{lambda()#1}::operator()() const::{lambda()#12}, std::__ndk1::allocator<hook62<(anonymous namespace)::hook62Parent>::init(LevelEditorLayer*)::{lambda()#1}::operator()() const::{lambda()#12}>, void ()>::__clone(std::__ndk1::__function::__base<void ()>*) const
PUBLIC 5299c 0 std::__ndk1::__function::__func<hook62<(anonymous namespace)::hook62Parent>::init(LevelEditorLayer*)::{lambda()#1}::operator()() const::{lambda()#12}, std::__ndk1::allocator<hook62<(anonymous namespace)::hook62Parent>::init(LevelEditorLayer*)::{lambda()#1}::operator()() const::{lambda()#12}>, void ()>::destroy()
PUBLIC 529a0 0 std::__ndk1::__function::__func<hook62<(anonymous namespace)::hook62Parent>::init(LevelEditorLayer*)::{lambda()#1}::operator()() const::{lambda()#12}, std::__ndk1::allocator<hook62<(anonymous namespace)::hook62Parent>::init(LevelEditorLayer*)::{lambda()#1}::operator()() const::{lambda()#12}>, void ()>::destroy_deallocate()
PUBLIC 529a4 0 std::__ndk1::__function::__func<hook62<(anonymous namespace)::hook62Parent>::init(LevelEditorLayer*)::{lambda()#1}::operator()() const::{lambda()#12}, std::__ndk1::allocator<hook62<(anonymous namespace)::hook62Parent>::init(LevelEditorLayer*)::{lambda()#1}::operator()() const::{lambda()#12}>, void ()>::operator()()
PUBLIC 52ab8 0 std::__ndk1::__function::__func<hook62<(anonymous namespace)::hook62Parent>::init(LevelEditorLayer*)::{lambda()#1}::operator()() const::{lambda()#12}, std::__ndk1::allocator<hook62<(anonymous namespace)::hook62Parent>::init(LevelEditorLayer*)::{lambda()#1}::operator()() const::{lambda()#12}>, void ()>::target(std::type_info const&) const
PUBLIC 52ad4 0 std::__ndk1::__function::__func<hook62<(anonymous namespace)::hook62Parent>::init(LevelEditorLayer*)::{lambda()#1}::operator()() const::{lambda()#12}, std::__ndk1::allocator<hook62<(anonymous namespace)::hook62Parent>::init(LevelEditorLayer*)::{lambda()#1}::operator()() const::{lambda()#12}>, void ()>::target_type() const
PUBLIC 52ae0 0 std::__ndk1::__function::__func<hook62<(anonymous namespace)::hook62Parent>::init(LevelEditorLayer*)::{lambda()#1}::operator()() const::{lambda()#13}, std::__ndk1::allocator<hook62<(anonymous namespace)::hook62Parent>::init(LevelEditorLayer*)::{lambda()#1}::operator()() const::{lambda()#13}>, void ()>::~__func()
PUBLIC 52ae4 0 std::__ndk1::__function::__func<hook62<(anonymous namespace)::hook62Parent>::init(LevelEditorLayer*)::{lambda()#1}::operator()() const::{lambda()#13}, std::__ndk1::allocator<hook62<(anonymous namespace)::hook62Parent>::init(LevelEditorLayer*)::{lambda()#1}::operator()() const::{lambda()#13}>, void ()>::__clone() const
PUBLIC 52b18 0 std::__ndk1::__function::__func<hook62<(anonymous namespace)::hook62Parent>::init(LevelEditorLayer*)::{lambda()#1}::operator()() const::{lambda()#13}, std::__ndk1::allocator<hook62<(anonymous namespace)::hook62Parent>::init(LevelEditorLayer*)::{lambda()#1}::operator()() const::{lambda()#13}>, void ()>::__clone(std::__ndk1::__function::__base<void ()>*) const
PUBLIC 52b2c 0 std::__ndk1::__function::__func<hook62<(anonymous namespace)::hook62Parent>::init(LevelEditorLayer*)::{lambda()#1}::operator()() const::{lambda()#13}, std::__ndk1::allocator<hook62<(anonymous namespace)::hook62Parent>::init(LevelEditorLayer*)::{lambda()#1}::operator()() const::{lambda()#13}>, void ()>::destroy()
PUBLIC 52b30 0 std::__ndk1::__function::__func<hook62<(anonymous namespace)::hook62Parent>::init(LevelEditorLayer*)::{lambda()#1}::operator()() const::{lambda()#13}, std::__ndk1::allocator<hook62<(anonymous namespace)::hook62Parent>::init(LevelEditorLayer*)::{lambda()#1}::operator()() const::{lambda()#13}>, void ()>::destroy_deallocate()
PUBLIC 52b34 0 std::__ndk1::__function::__func<hook62<(anonymous namespace)::hook62Parent>::init(LevelEditorLayer*)::{lambda()#1}::operator()() const::{lambda()#13}, std::__ndk1::allocator<hook62<(anonymous namespace)::hook62Parent>::init(LevelEditorLayer*)::{lambda()#1}::operator()() const::{lambda()#13}>, void ()>::operator()()
PUBLIC 52c48 0 std::__ndk1::__function::__func<hook62<(anonymous namespace)::hook62Parent>::init(LevelEditorLayer*)::{lambda()#1}::operator()() const::{lambda()#13}, std::__ndk1::allocator<hook62<(anonymous namespace)::hook62Parent>::init(LevelEditorLayer*)::{lambda()#1}::operator()() const::{lambda()#13}>, void ()>::target(std::type_info const&) const
PUBLIC 52c64 0 std::__ndk1::__function::__func<hook62<(anonymous namespace)::hook62Parent>::init(LevelEditorLayer*)::{lambda()#1}::operator()() const::{lambda()#13}, std::__ndk1::allocator<hook62<(anonymous namespace)::hook62Parent>::init(LevelEditorLayer*)::{lambda()#1}::operator()() const::{lambda()#13}>, void ()>::target_type() const
PUBLIC 52c70 0 std::__ndk1::__function::__func<hook62<(anonymous namespace)::hook62Parent>::init(LevelEditorLayer*)::{lambda()#1}::operator()() const::{lambda()#14}, std::__ndk1::allocator<hook62<(anonymous namespace)::hook62Parent>::init(LevelEditorLayer*)::{lambda()#1}::operator()() const::{lambda()#14}>, void ()>::~__func()
PUBLIC 52c74 0 std::__ndk1::__function::__func<hook62<(anonymous namespace)::hook62Parent>::init(LevelEditorLayer*)::{lambda()#1}::operator()() const::{lambda()#14}, std::__ndk1::allocator<hook62<(anonymous namespace)::hook62Parent>::init(LevelEditorLayer*)::{lambda()#1}::operator()() const::{lambda()#14}>, void ()>::__clone() const
PUBLIC 52ca8 0 std::__ndk1::__function::__func<hook62<(anonymous namespace)::hook62Parent>::init(LevelEditorLayer*)::{lambda()#1}::operator()() const::{lambda()#14}, std::__ndk1::allocator<hook62<(anonymous namespace)::hook62Parent>::init(LevelEditorLayer*)::{lambda()#1}::operator()() const::{lambda()#14}>, void ()>::__clone(std::__ndk1::__function::__base<void ()>*) const
PUBLIC 52cbc 0 std::__ndk1::__function::__func<hook62<(anonymous namespace)::hook62Parent>::init(LevelEditorLayer*)::{lambda()#1}::operator()() const::{lambda()#14}, std::__ndk1::allocator<hook62<(anonymous namespace)::hook62Parent>::init(LevelEditorLayer*)::{lambda()#1}::operator()() const::{lambda()#14}>, void ()>::destroy()
PUBLIC 52cc0 0 std::__ndk1::__function::__func<hook62<(anonymous namespace)::hook62Parent>::init(LevelEditorLayer*)::{lambda()#1}::operator()() const::{lambda()#14}, std::__ndk1::allocator<hook62<(anonymous namespace)::hook62Parent>::init(LevelEditorLayer*)::{lambda()#1}::operator()() const::{lambda()#14}>, void ()>::destroy_deallocate()
PUBLIC 52cc4 0 std::__ndk1::__function::__func<hook62<(anonymous namespace)::hook62Parent>::init(LevelEditorLayer*)::{lambda()#1}::operator()() const::{lambda()#14}, std::__ndk1::allocator<hook62<(anonymous namespace)::hook62Parent>::init(LevelEditorLayer*)::{lambda()#1}::operator()() const::{lambda()#14}>, void ()>::operator()()
PUBLIC 52dd8 0 std::__ndk1::__function::__func<hook62<(anonymous namespace)::hook62Parent>::init(LevelEditorLayer*)::{lambda()#1}::operator()() const::{lambda()#14}, std::__ndk1::allocator<hook62<(anonymous namespace)::hook62Parent>::init(LevelEditorLayer*)::{lambda()#1}::operator()() const::{lambda()#14}>, void ()>::target(std::type_info const&) const
PUBLIC 52df4 0 std::__ndk1::__function::__func<hook62<(anonymous namespace)::hook62Parent>::init(LevelEditorLayer*)::{lambda()#1}::operator()() const::{lambda()#14}, std::__ndk1::allocator<hook62<(anonymous namespace)::hook62Parent>::init(LevelEditorLayer*)::{lambda()#1}::operator()() const::{lambda()#14}>, void ()>::target_type() const
PUBLIC 52e00 0 std::__ndk1::__function::__func<hook62<(anonymous namespace)::hook62Parent>::init(LevelEditorLayer*)::{lambda()#1}::operator()() const::{lambda()#15}, std::__ndk1::allocator<hook62<(anonymous namespace)::hook62Parent>::init(LevelEditorLayer*)::{lambda()#1}::operator()() const::{lambda()#15}>, void ()>::~__func()
PUBLIC 52e04 0 std::__ndk1::__function::__func<hook62<(anonymous namespace)::hook62Parent>::init(LevelEditorLayer*)::{lambda()#1}::operator()() const::{lambda()#15}, std::__ndk1::allocator<hook62<(anonymous namespace)::hook62Parent>::init(LevelEditorLayer*)::{lambda()#1}::operator()() const::{lambda()#15}>, void ()>::__clone() const
PUBLIC 52e38 0 std::__ndk1::__function::__func<hook62<(anonymous namespace)::hook62Parent>::init(LevelEditorLayer*)::{lambda()#1}::operator()() const::{lambda()#15}, std::__ndk1::allocator<hook62<(anonymous namespace)::hook62Parent>::init(LevelEditorLayer*)::{lambda()#1}::operator()() const::{lambda()#15}>, void ()>::__clone(std::__ndk1::__function::__base<void ()>*) const
PUBLIC 52e4c 0 std::__ndk1::__function::__func<hook62<(anonymous namespace)::hook62Parent>::init(LevelEditorLayer*)::{lambda()#1}::operator()() const::{lambda()#15}, std::__ndk1::allocator<hook62<(anonymous namespace)::hook62Parent>::init(LevelEditorLayer*)::{lambda()#1}::operator()() const::{lambda()#15}>, void ()>::destroy()
PUBLIC 52e50 0 std::__ndk1::__function::__func<hook62<(anonymous namespace)::hook62Parent>::init(LevelEditorLayer*)::{lambda()#1}::operator()() const::{lambda()#15}, std::__ndk1::allocator<hook62<(anonymous namespace)::hook62Parent>::init(LevelEditorLayer*)::{lambda()#1}::operator()() const::{lambda()#15}>, void ()>::destroy_deallocate()
PUBLIC 52e54 0 std::__ndk1::__function::__func<hook62<(anonymous namespace)::hook62Parent>::init(LevelEditorLayer*)::{lambda()#1}::operator()() const::{lambda()#15}, std::__ndk1::allocator<hook62<(anonymous namespace)::hook62Parent>::init(LevelEditorLayer*)::{lambda()#1}::operator()() const::{lambda()#15}>, void ()>::operator()()
PUBLIC 52f68 0 std::__ndk1::__function::__func<hook62<(anonymous namespace)::hook62Parent>::init(LevelEditorLayer*)::{lambda()#1}::operator()() const::{lambda()#15}, std::__ndk1::allocator<hook62<(anonymous namespace)::hook62Parent>::init(LevelEditorLayer*)::{lambda()#1}::operator()() const::{lambda()#15}>, void ()>::target(std::type_info const&) const
PUBLIC 52f84 0 std::__ndk1::__function::__func<hook62<(anonymous namespace)::hook62Parent>::init(LevelEditorLayer*)::{lambda()#1}::operator()() const::{lambda()#15}, std::__ndk1::allocator<hook62<(anonymous namespace)::hook62Parent>::init(LevelEditorLayer*)::{lambda()#1}::operator()() const::{lambda()#15}>, void ()>::target_type() const
PUBLIC 52f90 0 std::__ndk1::__function::__func<hook62<(anonymous namespace)::hook62Parent>::init(LevelEditorLayer*)::{lambda()#1}::operator()() const::{lambda()#16}, std::__ndk1::allocator<hook62<(anonymous namespace)::hook62Parent>::init(LevelEditorLayer*)::{lambda()#1}::operator()() const::{lambda()#16}>, void ()>::~__func()
PUBLIC 52f94 0 std::__ndk1::__function::__func<hook62<(anonymous namespace)::hook62Parent>::init(LevelEditorLayer*)::{lambda()#1}::operator()() const::{lambda()#16}, std::__ndk1::allocator<hook62<(anonymous namespace)::hook62Parent>::init(LevelEditorLayer*)::{lambda()#1}::operator()() const::{lambda()#16}>, void ()>::__clone() const
PUBLIC 52fc8 0 std::__ndk1::__function::__func<hook62<(anonymous namespace)::hook62Parent>::init(LevelEditorLayer*)::{lambda()#1}::operator()() const::{lambda()#16}, std::__ndk1::allocator<hook62<(anonymous namespace)::hook62Parent>::init(LevelEditorLayer*)::{lambda()#1}::operator()() const::{lambda()#16}>, void ()>::__clone(std::__ndk1::__function::__base<void ()>*) const
PUBLIC 52fdc 0 std::__ndk1::__function::__func<hook62<(anonymous namespace)::hook62Parent>::init(LevelEditorLayer*)::{lambda()#1}::operator()() const::{lambda()#16}, std::__ndk1::allocator<hook62<(anonymous namespace)::hook62Parent>::init(LevelEditorLayer*)::{lambda()#1}::operator()() const::{lambda()#16}>, void ()>::destroy()
PUBLIC 52fe0 0 std::__ndk1::__function::__func<hook62<(anonymous namespace)::hook62Parent>::init(LevelEditorLayer*)::{lambda()#1}::operator()() const::{lambda()#16}, std::__ndk1::allocator<hook62<(anonymous namespace)::hook62Parent>::init(LevelEditorLayer*)::{lambda()#1}::operator()() const::{lambda()#16}>, void ()>::destroy_deallocate()
PUBLIC 52fe4 0 std::__ndk1::__function::__func<hook62<(anonymous namespace)::hook62Parent>::init(LevelEditorLayer*)::{lambda()#1}::operator()() const::{lambda()#16}, std::__ndk1::allocator<hook62<(anonymous namespace)::hook62Parent>::init(LevelEditorLayer*)::{lambda()#1}::operator()() const::{lambda()#16}>, void ()>::operator()()
PUBLIC 530f8 0 std::__ndk1::__function::__func<hook62<(anonymous namespace)::hook62Parent>::init(LevelEditorLayer*)::{lambda()#1}::operator()() const::{lambda()#16}, std::__ndk1::allocator<hook62<(anonymous namespace)::hook62Parent>::init(LevelEditorLayer*)::{lambda()#1}::operator()() const::{lambda()#16}>, void ()>::target(std::type_info const&) const
PUBLIC 53114 0 std::__ndk1::__function::__func<hook62<(anonymous namespace)::hook62Parent>::init(LevelEditorLayer*)::{lambda()#1}::operator()() const::{lambda()#16}, std::__ndk1::allocator<hook62<(anonymous namespace)::hook62Parent>::init(LevelEditorLayer*)::{lambda()#1}::operator()() const::{lambda()#16}>, void ()>::target_type() const
PUBLIC 53120 0 std::__ndk1::__function::__func<hook62<(anonymous namespace)::hook62Parent>::init(LevelEditorLayer*)::{lambda()#1}::operator()() const::{lambda()#17}, std::__ndk1::allocator<hook62<(anonymous namespace)::hook62Parent>::init(LevelEditorLayer*)::{lambda()#1}::operator()() const::{lambda()#17}>, void ()>::~__func()
PUBLIC 53124 0 std::__ndk1::__function::__func<hook62<(anonymous namespace)::hook62Parent>::init(LevelEditorLayer*)::{lambda()#1}::operator()() const::{lambda()#17}, std::__ndk1::allocator<hook62<(anonymous namespace)::hook62Parent>::init(LevelEditorLayer*)::{lambda()#1}::operator()() const::{lambda()#17}>, void ()>::__clone() const
PUBLIC 53158 0 std::__ndk1::__function::__func<hook62<(anonymous namespace)::hook62Parent>::init(LevelEditorLayer*)::{lambda()#1}::operator()() const::{lambda()#17}, std::__ndk1::allocator<hook62<(anonymous namespace)::hook62Parent>::init(LevelEditorLayer*)::{lambda()#1}::operator()() const::{lambda()#17}>, void ()>::__clone(std::__ndk1::__function::__base<void ()>*) const
PUBLIC 5316c 0 std::__ndk1::__function::__func<hook62<(anonymous namespace)::hook62Parent>::init(LevelEditorLayer*)::{lambda()#1}::operator()() const::{lambda()#17}, std::__ndk1::allocator<hook62<(anonymous namespace)::hook62Parent>::init(LevelEditorLayer*)::{lambda()#1}::operator()() const::{lambda()#17}>, void ()>::destroy()
PUBLIC 53170 0 std::__ndk1::__function::__func<hook62<(anonymous namespace)::hook62Parent>::init(LevelEditorLayer*)::{lambda()#1}::operator()() const::{lambda()#17}, std::__ndk1::allocator<hook62<(anonymous namespace)::hook62Parent>::init(LevelEditorLayer*)::{lambda()#1}::operator()() const::{lambda()#17}>, void ()>::destroy_deallocate()
PUBLIC 53174 0 std::__ndk1::__function::__func<hook62<(anonymous namespace)::hook62Parent>::init(LevelEditorLayer*)::{lambda()#1}::operator()() const::{lambda()#17}, std::__ndk1::allocator<hook62<(anonymous namespace)::hook62Parent>::init(LevelEditorLayer*)::{lambda()#1}::operator()() const::{lambda()#17}>, void ()>::operator()()
PUBLIC 53288 0 std::__ndk1::__function::__func<hook62<(anonymous namespace)::hook62Parent>::init(LevelEditorLayer*)::{lambda()#1}::operator()() const::{lambda()#17}, std::__ndk1::allocator<hook62<(anonymous namespace)::hook62Parent>::init(LevelEditorLayer*)::{lambda()#1}::operator()() const::{lambda()#17}>, void ()>::target(std::type_info const&) const
PUBLIC 532a4 0 std::__ndk1::__function::__func<hook62<(anonymous namespace)::hook62Parent>::init(LevelEditorLayer*)::{lambda()#1}::operator()() const::{lambda()#17}, std::__ndk1::allocator<hook62<(anonymous namespace)::hook62Parent>::init(LevelEditorLayer*)::{lambda()#1}::operator()() const::{lambda()#17}>, void ()>::target_type() const
PUBLIC 532b0 0 std::__ndk1::__function::__func<hook62<(anonymous namespace)::hook62Parent>::init(LevelEditorLayer*)::{lambda()#1}::operator()() const::{lambda()#18}, std::__ndk1::allocator<hook62<(anonymous namespace)::hook62Parent>::init(LevelEditorLayer*)::{lambda()#1}::operator()() const::{lambda()#18}>, void ()>::~__func()
PUBLIC 532b4 0 std::__ndk1::__function::__func<hook62<(anonymous namespace)::hook62Parent>::init(LevelEditorLayer*)::{lambda()#1}::operator()() const::{lambda()#18}, std::__ndk1::allocator<hook62<(anonymous namespace)::hook62Parent>::init(LevelEditorLayer*)::{lambda()#1}::operator()() const::{lambda()#18}>, void ()>::__clone() const
PUBLIC 532e8 0 std::__ndk1::__function::__func<hook62<(anonymous namespace)::hook62Parent>::init(LevelEditorLayer*)::{lambda()#1}::operator()() const::{lambda()#18}, std::__ndk1::allocator<hook62<(anonymous namespace)::hook62Parent>::init(LevelEditorLayer*)::{lambda()#1}::operator()() const::{lambda()#18}>, void ()>::__clone(std::__ndk1::__function::__base<void ()>*) const
PUBLIC 532fc 0 std::__ndk1::__function::__func<hook62<(anonymous namespace)::hook62Parent>::init(LevelEditorLayer*)::{lambda()#1}::operator()() const::{lambda()#18}, std::__ndk1::allocator<hook62<(anonymous namespace)::hook62Parent>::init(LevelEditorLayer*)::{lambda()#1}::operator()() const::{lambda()#18}>, void ()>::destroy()
PUBLIC 53300 0 std::__ndk1::__function::__func<hook62<(anonymous namespace)::hook62Parent>::init(LevelEditorLayer*)::{lambda()#1}::operator()() const::{lambda()#18}, std::__ndk1::allocator<hook62<(anonymous namespace)::hook62Parent>::init(LevelEditorLayer*)::{lambda()#1}::operator()() const::{lambda()#18}>, void ()>::destroy_deallocate()
PUBLIC 53304 0 std::__ndk1::__function::__func<hook62<(anonymous namespace)::hook62Parent>::init(LevelEditorLayer*)::{lambda()#1}::operator()() const::{lambda()#18}, std::__ndk1::allocator<hook62<(anonymous namespace)::hook62Parent>::init(LevelEditorLayer*)::{lambda()#1}::operator()() const::{lambda()#18}>, void ()>::operator()()
PUBLIC 53418 0 std::__ndk1::__function::__func<hook62<(anonymous namespace)::hook62Parent>::init(LevelEditorLayer*)::{lambda()#1}::operator()() const::{lambda()#18}, std::__ndk1::allocator<hook62<(anonymous namespace)::hook62Parent>::init(LevelEditorLayer*)::{lambda()#1}::operator()() const::{lambda()#18}>, void ()>::target(std::type_info const&) const
PUBLIC 53434 0 std::__ndk1::__function::__func<hook62<(anonymous namespace)::hook62Parent>::init(LevelEditorLayer*)::{lambda()#1}::operator()() const::{lambda()#18}, std::__ndk1::allocator<hook62<(anonymous namespace)::hook62Parent>::init(LevelEditorLayer*)::{lambda()#1}::operator()() const::{lambda()#18}>, void ()>::target_type() const
PUBLIC 53440 0 std::__ndk1::__function::__func<hook62<(anonymous namespace)::hook62Parent>::init(LevelEditorLayer*)::{lambda()#1}::operator()() const::{lambda()#19}, std::__ndk1::allocator<hook62<(anonymous namespace)::hook62Parent>::init(LevelEditorLayer*)::{lambda()#1}::operator()() const::{lambda()#19}>, void ()>::~__func()
PUBLIC 53444 0 std::__ndk1::__function::__func<hook62<(anonymous namespace)::hook62Parent>::init(LevelEditorLayer*)::{lambda()#1}::operator()() const::{lambda()#19}, std::__ndk1::allocator<hook62<(anonymous namespace)::hook62Parent>::init(LevelEditorLayer*)::{lambda()#1}::operator()() const::{lambda()#19}>, void ()>::__clone() const
PUBLIC 53478 0 std::__ndk1::__function::__func<hook62<(anonymous namespace)::hook62Parent>::init(LevelEditorLayer*)::{lambda()#1}::operator()() const::{lambda()#19}, std::__ndk1::allocator<hook62<(anonymous namespace)::hook62Parent>::init(LevelEditorLayer*)::{lambda()#1}::operator()() const::{lambda()#19}>, void ()>::__clone(std::__ndk1::__function::__base<void ()>*) const
PUBLIC 5348c 0 std::__ndk1::__function::__func<hook62<(anonymous namespace)::hook62Parent>::init(LevelEditorLayer*)::{lambda()#1}::operator()() const::{lambda()#19}, std::__ndk1::allocator<hook62<(anonymous namespace)::hook62Parent>::init(LevelEditorLayer*)::{lambda()#1}::operator()() const::{lambda()#19}>, void ()>::destroy()
PUBLIC 53490 0 std::__ndk1::__function::__func<hook62<(anonymous namespace)::hook62Parent>::init(LevelEditorLayer*)::{lambda()#1}::operator()() const::{lambda()#19}, std::__ndk1::allocator<hook62<(anonymous namespace)::hook62Parent>::init(LevelEditorLayer*)::{lambda()#1}::operator()() const::{lambda()#19}>, void ()>::destroy_deallocate()
PUBLIC 53494 0 std::__ndk1::__function::__func<hook62<(anonymous namespace)::hook62Parent>::init(LevelEditorLayer*)::{lambda()#1}::operator()() const::{lambda()#19}, std::__ndk1::allocator<hook62<(anonymous namespace)::hook62Parent>::init(LevelEditorLayer*)::{lambda()#1}::operator()() const::{lambda()#19}>, void ()>::operator()()
PUBLIC 535a8 0 std::__ndk1::__function::__func<hook62<(anonymous namespace)::hook62Parent>::init(LevelEditorLayer*)::{lambda()#1}::operator()() const::{lambda()#19}, std::__ndk1::allocator<hook62<(anonymous namespace)::hook62Parent>::init(LevelEditorLayer*)::{lambda()#1}::operator()() const::{lambda()#19}>, void ()>::target(std::type_info const&) const
PUBLIC 535c4 0 std::__ndk1::__function::__func<hook62<(anonymous namespace)::hook62Parent>::init(LevelEditorLayer*)::{lambda()#1}::operator()() const::{lambda()#19}, std::__ndk1::allocator<hook62<(anonymous namespace)::hook62Parent>::init(LevelEditorLayer*)::{lambda()#1}::operator()() const::{lambda()#19}>, void ()>::target_type() const
PUBLIC 535d0 0 std::__ndk1::__function::__func<hook62<(anonymous namespace)::hook62Parent>::init(LevelEditorLayer*)::{lambda()#1}::operator()() const::{lambda()#20}, std::__ndk1::allocator<hook62<(anonymous namespace)::hook62Parent>::init(LevelEditorLayer*)::{lambda()#1}::operator()() const::{lambda()#20}>, void ()>::~__func()
PUBLIC 535d4 0 std::__ndk1::__function::__func<hook62<(anonymous namespace)::hook62Parent>::init(LevelEditorLayer*)::{lambda()#1}::operator()() const::{lambda()#20}, std::__ndk1::allocator<hook62<(anonymous namespace)::hook62Parent>::init(LevelEditorLayer*)::{lambda()#1}::operator()() const::{lambda()#20}>, void ()>::__clone() const
PUBLIC 53608 0 std::__ndk1::__function::__func<hook62<(anonymous namespace)::hook62Parent>::init(LevelEditorLayer*)::{lambda()#1}::operator()() const::{lambda()#20}, std::__ndk1::allocator<hook62<(anonymous namespace)::hook62Parent>::init(LevelEditorLayer*)::{lambda()#1}::operator()() const::{lambda()#20}>, void ()>::__clone(std::__ndk1::__function::__base<void ()>*) const
PUBLIC 5361c 0 std::__ndk1::__function::__func<hook62<(anonymous namespace)::hook62Parent>::init(LevelEditorLayer*)::{lambda()#1}::operator()() const::{lambda()#20}, std::__ndk1::allocator<hook62<(anonymous namespace)::hook62Parent>::init(LevelEditorLayer*)::{lambda()#1}::operator()() const::{lambda()#20}>, void ()>::destroy()
PUBLIC 53620 0 std::__ndk1::__function::__func<hook62<(anonymous namespace)::hook62Parent>::init(LevelEditorLayer*)::{lambda()#1}::operator()() const::{lambda()#20}, std::__ndk1::allocator<hook62<(anonymous namespace)::hook62Parent>::init(LevelEditorLayer*)::{lambda()#1}::operator()() const::{lambda()#20}>, void ()>::destroy_deallocate()
PUBLIC 53624 0 std::__ndk1::__function::__func<hook62<(anonymous namespace)::hook62Parent>::init(LevelEditorLayer*)::{lambda()#1}::operator()() const::{lambda()#20}, std::__ndk1::allocator<hook62<(anonymous namespace)::hook62Parent>::init(LevelEditorLayer*)::{lambda()#1}::operator()() const::{lambda()#20}>, void ()>::operator()()
PUBLIC 53738 0 std::__ndk1::__function::__func<hook62<(anonymous namespace)::hook62Parent>::init(LevelEditorLayer*)::{lambda()#1}::operator()() const::{lambda()#20}, std::__ndk1::allocator<hook62<(anonymous namespace)::hook62Parent>::init(LevelEditorLayer*)::{lambda()#1}::operator()() const::{lambda()#20}>, void ()>::target(std::type_info const&) const
PUBLIC 53754 0 std::__ndk1::__function::__func<hook62<(anonymous namespace)::hook62Parent>::init(LevelEditorLayer*)::{lambda()#1}::operator()() const::{lambda()#20}, std::__ndk1::allocator<hook62<(anonymous namespace)::hook62Parent>::init(LevelEditorLayer*)::{lambda()#1}::operator()() const::{lambda()#20}>, void ()>::target_type() const
PUBLIC 53760 0 std::__ndk1::__function::__func<hook62<(anonymous namespace)::hook62Parent>::init(LevelEditorLayer*)::{lambda()#1}::operator()() const::{lambda()#21}, std::__ndk1::allocator<hook62<(anonymous namespace)::hook62Parent>::init(LevelEditorLayer*)::{lambda()#1}::operator()() const::{lambda()#21}>, void ()>::~__func()
PUBLIC 53764 0 std::__ndk1::__function::__func<hook62<(anonymous namespace)::hook62Parent>::init(LevelEditorLayer*)::{lambda()#1}::operator()() const::{lambda()#21}, std::__ndk1::allocator<hook62<(anonymous namespace)::hook62Parent>::init(LevelEditorLayer*)::{lambda()#1}::operator()() const::{lambda()#21}>, void ()>::__clone() const
PUBLIC 53798 0 std::__ndk1::__function::__func<hook62<(anonymous namespace)::hook62Parent>::init(LevelEditorLayer*)::{lambda()#1}::operator()() const::{lambda()#21}, std::__ndk1::allocator<hook62<(anonymous namespace)::hook62Parent>::init(LevelEditorLayer*)::{lambda()#1}::operator()() const::{lambda()#21}>, void ()>::__clone(std::__ndk1::__function::__base<void ()>*) const
PUBLIC 537ac 0 std::__ndk1::__function::__func<hook62<(anonymous namespace)::hook62Parent>::init(LevelEditorLayer*)::{lambda()#1}::operator()() const::{lambda()#21}, std::__ndk1::allocator<hook62<(anonymous namespace)::hook62Parent>::init(LevelEditorLayer*)::{lambda()#1}::operator()() const::{lambda()#21}>, void ()>::destroy()
PUBLIC 537b0 0 std::__ndk1::__function::__func<hook62<(anonymous namespace)::hook62Parent>::init(LevelEditorLayer*)::{lambda()#1}::operator()() const::{lambda()#21}, std::__ndk1::allocator<hook62<(anonymous namespace)::hook62Parent>::init(LevelEditorLayer*)::{lambda()#1}::operator()() const::{lambda()#21}>, void ()>::destroy_deallocate()
PUBLIC 537b4 0 std::__ndk1::__function::__func<hook62<(anonymous namespace)::hook62Parent>::init(LevelEditorLayer*)::{lambda()#1}::operator()() const::{lambda()#21}, std::__ndk1::allocator<hook62<(anonymous namespace)::hook62Parent>::init(LevelEditorLayer*)::{lambda()#1}::operator()() const::{lambda()#21}>, void ()>::operator()()
PUBLIC 537c0 0 std::__ndk1::__function::__func<hook62<(anonymous namespace)::hook62Parent>::init(LevelEditorLayer*)::{lambda()#1}::operator()() const::{lambda()#21}, std::__ndk1::allocator<hook62<(anonymous namespace)::hook62Parent>::init(LevelEditorLayer*)::{lambda()#1}::operator()() const::{lambda()#21}>, void ()>::target(std::type_info const&) const
PUBLIC 537dc 0 std::__ndk1::__function::__func<hook62<(anonymous namespace)::hook62Parent>::init(LevelEditorLayer*)::{lambda()#1}::operator()() const::{lambda()#21}, std::__ndk1::allocator<hook62<(anonymous namespace)::hook62Parent>::init(LevelEditorLayer*)::{lambda()#1}::operator()() const::{lambda()#21}>, void ()>::target_type() const
PUBLIC 537e8 0 std::__ndk1::__function::__func<hook62<(anonymous namespace)::hook62Parent>::init(LevelEditorLayer*)::{lambda()#1}::operator()() const::{lambda()#22}, std::__ndk1::allocator<hook62<(anonymous namespace)::hook62Parent>::init(LevelEditorLayer*)::{lambda()#1}::operator()() const::{lambda()#22}>, void ()>::~__func()
PUBLIC 537ec 0 std::__ndk1::__function::__func<hook62<(anonymous namespace)::hook62Parent>::init(LevelEditorLayer*)::{lambda()#1}::operator()() const::{lambda()#22}, std::__ndk1::allocator<hook62<(anonymous namespace)::hook62Parent>::init(LevelEditorLayer*)::{lambda()#1}::operator()() const::{lambda()#22}>, void ()>::__clone() const
PUBLIC 53820 0 std::__ndk1::__function::__func<hook62<(anonymous namespace)::hook62Parent>::init(LevelEditorLayer*)::{lambda()#1}::operator()() const::{lambda()#22}, std::__ndk1::allocator<hook62<(anonymous namespace)::hook62Parent>::init(LevelEditorLayer*)::{lambda()#1}::operator()() const::{lambda()#22}>, void ()>::__clone(std::__ndk1::__function::__base<void ()>*) const
PUBLIC 53834 0 std::__ndk1::__function::__func<hook62<(anonymous namespace)::hook62Parent>::init(LevelEditorLayer*)::{lambda()#1}::operator()() const::{lambda()#22}, std::__ndk1::allocator<hook62<(anonymous namespace)::hook62Parent>::init(LevelEditorLayer*)::{lambda()#1}::operator()() const::{lambda()#22}>, void ()>::destroy()
PUBLIC 53838 0 std::__ndk1::__function::__func<hook62<(anonymous namespace)::hook62Parent>::init(LevelEditorLayer*)::{lambda()#1}::operator()() const::{lambda()#22}, std::__ndk1::allocator<hook62<(anonymous namespace)::hook62Parent>::init(LevelEditorLayer*)::{lambda()#1}::operator()() const::{lambda()#22}>, void ()>::destroy_deallocate()
PUBLIC 5383c 0 std::__ndk1::__function::__func<hook62<(anonymous namespace)::hook62Parent>::init(LevelEditorLayer*)::{lambda()#1}::operator()() const::{lambda()#22}, std::__ndk1::allocator<hook62<(anonymous namespace)::hook62Parent>::init(LevelEditorLayer*)::{lambda()#1}::operator()() const::{lambda()#22}>, void ()>::operator()()
PUBLIC 53888 0 std::__ndk1::__function::__func<hook62<(anonymous namespace)::hook62Parent>::init(LevelEditorLayer*)::{lambda()#1}::operator()() const::{lambda()#22}, std::__ndk1::allocator<hook62<(anonymous namespace)::hook62Parent>::init(LevelEditorLayer*)::{lambda()#1}::operator()() const::{lambda()#22}>, void ()>::target(std::type_info const&) const
PUBLIC 538a4 0 std::__ndk1::__function::__func<hook62<(anonymous namespace)::hook62Parent>::init(LevelEditorLayer*)::{lambda()#1}::operator()() const::{lambda()#22}, std::__ndk1::allocator<hook62<(anonymous namespace)::hook62Parent>::init(LevelEditorLayer*)::{lambda()#1}::operator()() const::{lambda()#22}>, void ()>::target_type() const
PUBLIC 538b0 0 std::__ndk1::__function::__func<hook62<(anonymous namespace)::hook62Parent>::init(LevelEditorLayer*)::{lambda()#1}::operator()() const::{lambda()#23}, std::__ndk1::allocator<hook62<(anonymous namespace)::hook62Parent>::init(LevelEditorLayer*)::{lambda()#1}::operator()() const::{lambda()#23}>, void ()>::~__func()
PUBLIC 538b4 0 std::__ndk1::__function::__func<hook62<(anonymous namespace)::hook62Parent>::init(LevelEditorLayer*)::{lambda()#1}::operator()() const::{lambda()#23}, std::__ndk1::allocator<hook62<(anonymous namespace)::hook62Parent>::init(LevelEditorLayer*)::{lambda()#1}::operator()() const::{lambda()#23}>, void ()>::__clone() const
PUBLIC 538e8 0 std::__ndk1::__function::__func<hook62<(anonymous namespace)::hook62Parent>::init(LevelEditorLayer*)::{lambda()#1}::operator()() const::{lambda()#23}, std::__ndk1::allocator<hook62<(anonymous namespace)::hook62Parent>::init(LevelEditorLayer*)::{lambda()#1}::operator()() const::{lambda()#23}>, void ()>::__clone(std::__ndk1::__function::__base<void ()>*) const
PUBLIC 538fc 0 std::__ndk1::__function::__func<hook62<(anonymous namespace)::hook62Parent>::init(LevelEditorLayer*)::{lambda()#1}::operator()() const::{lambda()#23}, std::__ndk1::allocator<hook62<(anonymous namespace)::hook62Parent>::init(LevelEditorLayer*)::{lambda()#1}::operator()() const::{lambda()#23}>, void ()>::destroy()
PUBLIC 53900 0 std::__ndk1::__function::__func<hook62<(anonymous namespace)::hook62Parent>::init(LevelEditorLayer*)::{lambda()#1}::operator()() const::{lambda()#23}, std::__ndk1::allocator<hook62<(anonymous namespace)::hook62Parent>::init(LevelEditorLayer*)::{lambda()#1}::operator()() const::{lambda()#23}>, void ()>::destroy_deallocate()
PUBLIC 53904 0 std::__ndk1::__function::__func<hook62<(anonymous namespace)::hook62Parent>::init(LevelEditorLayer*)::{lambda()#1}::operator()() const::{lambda()#23}, std::__ndk1::allocator<hook62<(anonymous namespace)::hook62Parent>::init(LevelEditorLayer*)::{lambda()#1}::operator()() const::{lambda()#23}>, void ()>::operator()()
PUBLIC 53940 0 std::__ndk1::__function::__func<hook62<(anonymous namespace)::hook62Parent>::init(LevelEditorLayer*)::{lambda()#1}::operator()() const::{lambda()#23}, std::__ndk1::allocator<hook62<(anonymous namespace)::hook62Parent>::init(LevelEditorLayer*)::{lambda()#1}::operator()() const::{lambda()#23}>, void ()>::target(std::type_info const&) const
PUBLIC 5395c 0 std::__ndk1::__function::__func<hook62<(anonymous namespace)::hook62Parent>::init(LevelEditorLayer*)::{lambda()#1}::operator()() const::{lambda()#23}, std::__ndk1::allocator<hook62<(anonymous namespace)::hook62Parent>::init(LevelEditorLayer*)::{lambda()#1}::operator()() const::{lambda()#23}>, void ()>::target_type() const
PUBLIC 53968 0 std::__ndk1::__function::__base<void ()>::~__base()
PUBLIC 5396c 0 std::__ndk1::__function::__func<hook62<(anonymous namespace)::hook62Parent>::init(LevelEditorLayer*)::{lambda()#1}::operator()() const::{lambda()#24}, std::__ndk1::allocator<hook62<(anonymous namespace)::hook62Parent>::init(LevelEditorLayer*)::{lambda()#1}::operator()() const::{lambda()#24}>, void ()>::~__func()
PUBLIC 53970 0 std::__ndk1::__function::__func<hook62<(anonymous namespace)::hook62Parent>::init(LevelEditorLayer*)::{lambda()#1}::operator()() const::{lambda()#24}, std::__ndk1::allocator<hook62<(anonymous namespace)::hook62Parent>::init(LevelEditorLayer*)::{lambda()#1}::operator()() const::{lambda()#24}>, void ()>::__clone() const
PUBLIC 539a4 0 std::__ndk1::__function::__func<hook62<(anonymous namespace)::hook62Parent>::init(LevelEditorLayer*)::{lambda()#1}::operator()() const::{lambda()#24}, std::__ndk1::allocator<hook62<(anonymous namespace)::hook62Parent>::init(LevelEditorLayer*)::{lambda()#1}::operator()() const::{lambda()#24}>, void ()>::__clone(std::__ndk1::__function::__base<void ()>*) const
PUBLIC 539b8 0 std::__ndk1::__function::__func<hook62<(anonymous namespace)::hook62Parent>::init(LevelEditorLayer*)::{lambda()#1}::operator()() const::{lambda()#24}, std::__ndk1::allocator<hook62<(anonymous namespace)::hook62Parent>::init(LevelEditorLayer*)::{lambda()#1}::operator()() const::{lambda()#24}>, void ()>::destroy()
PUBLIC 539bc 0 std::__ndk1::__function::__func<hook62<(anonymous namespace)::hook62Parent>::init(LevelEditorLayer*)::{lambda()#1}::operator()() const::{lambda()#24}, std::__ndk1::allocator<hook62<(anonymous namespace)::hook62Parent>::init(LevelEditorLayer*)::{lambda()#1}::operator()() const::{lambda()#24}>, void ()>::destroy_deallocate()
PUBLIC 539c0 0 std::__ndk1::__function::__func<hook62<(anonymous namespace)::hook62Parent>::init(LevelEditorLayer*)::{lambda()#1}::operator()() const::{lambda()#24}, std::__ndk1::allocator<hook62<(anonymous namespace)::hook62Parent>::init(LevelEditorLayer*)::{lambda()#1}::operator()() const::{lambda()#24}>, void ()>::operator()()
PUBLIC 53ad4 0 std::__ndk1::__function::__func<hook62<(anonymous namespace)::hook62Parent>::init(LevelEditorLayer*)::{lambda()#1}::operator()() const::{lambda()#24}, std::__ndk1::allocator<hook62<(anonymous namespace)::hook62Parent>::init(LevelEditorLayer*)::{lambda()#1}::operator()() const::{lambda()#24}>, void ()>::target(std::type_info const&) const
PUBLIC 53af0 0 std::__ndk1::__function::__func<hook62<(anonymous namespace)::hook62Parent>::init(LevelEditorLayer*)::{lambda()#1}::operator()() const::{lambda()#24}, std::__ndk1::allocator<hook62<(anonymous namespace)::hook62Parent>::init(LevelEditorLayer*)::{lambda()#1}::operator()() const::{lambda()#24}>, void ()>::target_type() const
PUBLIC 53afc 0 std::__ndk1::__function::__func<hook62<(anonymous namespace)::hook62Parent>::init(LevelEditorLayer*)::{lambda()#1}::operator()() const::{lambda()#25}, std::__ndk1::allocator<hook62<(anonymous namespace)::hook62Parent>::init(LevelEditorLayer*)::{lambda()#1}::operator()() const::{lambda()#25}>, void ()>::~__func()
PUBLIC 53b00 0 std::__ndk1::__function::__func<hook62<(anonymous namespace)::hook62Parent>::init(LevelEditorLayer*)::{lambda()#1}::operator()() const::{lambda()#25}, std::__ndk1::allocator<hook62<(anonymous namespace)::hook62Parent>::init(LevelEditorLayer*)::{lambda()#1}::operator()() const::{lambda()#25}>, void ()>::__clone() const
PUBLIC 53b34 0 std::__ndk1::__function::__func<hook62<(anonymous namespace)::hook62Parent>::init(LevelEditorLayer*)::{lambda()#1}::operator()() const::{lambda()#25}, std::__ndk1::allocator<hook62<(anonymous namespace)::hook62Parent>::init(LevelEditorLayer*)::{lambda()#1}::operator()() const::{lambda()#25}>, void ()>::__clone(std::__ndk1::__function::__base<void ()>*) const
PUBLIC 53b48 0 std::__ndk1::__function::__func<hook62<(anonymous namespace)::hook62Parent>::init(LevelEditorLayer*)::{lambda()#1}::operator()() const::{lambda()#25}, std::__ndk1::allocator<hook62<(anonymous namespace)::hook62Parent>::init(LevelEditorLayer*)::{lambda()#1}::operator()() const::{lambda()#25}>, void ()>::destroy()
PUBLIC 53b4c 0 std::__ndk1::__function::__func<hook62<(anonymous namespace)::hook62Parent>::init(LevelEditorLayer*)::{lambda()#1}::operator()() const::{lambda()#25}, std::__ndk1::allocator<hook62<(anonymous namespace)::hook62Parent>::init(LevelEditorLayer*)::{lambda()#1}::operator()() const::{lambda()#25}>, void ()>::destroy_deallocate()
PUBLIC 53b50 0 std::__ndk1::__function::__func<hook62<(anonymous namespace)::hook62Parent>::init(LevelEditorLayer*)::{lambda()#1}::operator()() const::{lambda()#25}, std::__ndk1::allocator<hook62<(anonymous namespace)::hook62Parent>::init(LevelEditorLayer*)::{lambda()#1}::operator()() const::{lambda()#25}>, void ()>::operator()()
PUBLIC 53c64 0 std::__ndk1::__function::__func<hook62<(anonymous namespace)::hook62Parent>::init(LevelEditorLayer*)::{lambda()#1}::operator()() const::{lambda()#25}, std::__ndk1::allocator<hook62<(anonymous namespace)::hook62Parent>::init(LevelEditorLayer*)::{lambda()#1}::operator()() const::{lambda()#25}>, void ()>::target(std::type_info const&) const
PUBLIC 53c80 0 std::__ndk1::__function::__func<hook62<(anonymous namespace)::hook62Parent>::init(LevelEditorLayer*)::{lambda()#1}::operator()() const::{lambda()#25}, std::__ndk1::allocator<hook62<(anonymous namespace)::hook62Parent>::init(LevelEditorLayer*)::{lambda()#1}::operator()() const::{lambda()#25}>, void ()>::target_type() const
PUBLIC 53c8c 0 std::__ndk1::__function::__func<hook62<(anonymous namespace)::hook62Parent>::init(LevelEditorLayer*)::{lambda()#1}::operator()() const::{lambda()#26}, std::__ndk1::allocator<hook62<(anonymous namespace)::hook62Parent>::init(LevelEditorLayer*)::{lambda()#1}::operator()() const::{lambda()#26}>, void ()>::~__func()
PUBLIC 53c90 0 std::__ndk1::__function::__func<hook62<(anonymous namespace)::hook62Parent>::init(LevelEditorLayer*)::{lambda()#1}::operator()() const::{lambda()#26}, std::__ndk1::allocator<hook62<(anonymous namespace)::hook62Parent>::init(LevelEditorLayer*)::{lambda()#1}::operator()() const::{lambda()#26}>, void ()>::__clone() const
PUBLIC 53cc4 0 std::__ndk1::__function::__func<hook62<(anonymous namespace)::hook62Parent>::init(LevelEditorLayer*)::{lambda()#1}::operator()() const::{lambda()#26}, std::__ndk1::allocator<hook62<(anonymous namespace)::hook62Parent>::init(LevelEditorLayer*)::{lambda()#1}::operator()() const::{lambda()#26}>, void ()>::__clone(std::__ndk1::__function::__base<void ()>*) const
PUBLIC 53cd8 0 std::__ndk1::__function::__func<hook62<(anonymous namespace)::hook62Parent>::init(LevelEditorLayer*)::{lambda()#1}::operator()() const::{lambda()#26}, std::__ndk1::allocator<hook62<(anonymous namespace)::hook62Parent>::init(LevelEditorLayer*)::{lambda()#1}::operator()() const::{lambda()#26}>, void ()>::destroy()
PUBLIC 53cdc 0 std::__ndk1::__function::__func<hook62<(anonymous namespace)::hook62Parent>::init(LevelEditorLayer*)::{lambda()#1}::operator()() const::{lambda()#26}, std::__ndk1::allocator<hook62<(anonymous namespace)::hook62Parent>::init(LevelEditorLayer*)::{lambda()#1}::operator()() const::{lambda()#26}>, void ()>::destroy_deallocate()
PUBLIC 53ce0 0 std::__ndk1::__function::__func<hook62<(anonymous namespace)::hook62Parent>::init(LevelEditorLayer*)::{lambda()#1}::operator()() const::{lambda()#26}, std::__ndk1::allocator<hook62<(anonymous namespace)::hook62Parent>::init(LevelEditorLayer*)::{lambda()#1}::operator()() const::{lambda()#26}>, void ()>::operator()()
PUBLIC 53d38 0 std::__ndk1::__function::__func<hook62<(anonymous namespace)::hook62Parent>::init(LevelEditorLayer*)::{lambda()#1}::operator()() const::{lambda()#26}, std::__ndk1::allocator<hook62<(anonymous namespace)::hook62Parent>::init(LevelEditorLayer*)::{lambda()#1}::operator()() const::{lambda()#26}>, void ()>::target(std::type_info const&) const
PUBLIC 53d54 0 std::__ndk1::__function::__func<hook62<(anonymous namespace)::hook62Parent>::init(LevelEditorLayer*)::{lambda()#1}::operator()() const::{lambda()#26}, std::__ndk1::allocator<hook62<(anonymous namespace)::hook62Parent>::init(LevelEditorLayer*)::{lambda()#1}::operator()() const::{lambda()#26}>, void ()>::target_type() const
PUBLIC 53d60 0 std::__ndk1::__function::__func<hook62<(anonymous namespace)::hook62Parent>::init(LevelEditorLayer*)::{lambda()#1}::operator()() const::{lambda()#27}, std::__ndk1::allocator<hook62<(anonymous namespace)::hook62Parent>::init(LevelEditorLayer*)::{lambda()#1}::operator()() const::{lambda()#27}>, void ()>::~__func()
PUBLIC 53d64 0 std::__ndk1::__function::__func<hook62<(anonymous namespace)::hook62Parent>::init(LevelEditorLayer*)::{lambda()#1}::operator()() const::{lambda()#27}, std::__ndk1::allocator<hook62<(anonymous namespace)::hook62Parent>::init(LevelEditorLayer*)::{lambda()#1}::operator()() const::{lambda()#27}>, void ()>::__clone() const
PUBLIC 53d98 0 std::__ndk1::__function::__func<hook62<(anonymous namespace)::hook62Parent>::init(LevelEditorLayer*)::{lambda()#1}::operator()() const::{lambda()#27}, std::__ndk1::allocator<hook62<(anonymous namespace)::hook62Parent>::init(LevelEditorLayer*)::{lambda()#1}::operator()() const::{lambda()#27}>, void ()>::__clone(std::__ndk1::__function::__base<void ()>*) const
PUBLIC 53dac 0 std::__ndk1::__function::__func<hook62<(anonymous namespace)::hook62Parent>::init(LevelEditorLayer*)::{lambda()#1}::operator()() const::{lambda()#27}, std::__ndk1::allocator<hook62<(anonymous namespace)::hook62Parent>::init(LevelEditorLayer*)::{lambda()#1}::operator()() const::{lambda()#27}>, void ()>::destroy()
PUBLIC 53db0 0 std::__ndk1::__function::__func<hook62<(anonymous namespace)::hook62Parent>::init(LevelEditorLayer*)::{lambda()#1}::operator()() const::{lambda()#27}, std::__ndk1::allocator<hook62<(anonymous namespace)::hook62Parent>::init(LevelEditorLayer*)::{lambda()#1}::operator()() const::{lambda()#27}>, void ()>::destroy_deallocate()
PUBLIC 53db4 0 std::__ndk1::__function::__func<hook62<(anonymous namespace)::hook62Parent>::init(LevelEditorLayer*)::{lambda()#1}::operator()() const::{lambda()#27}, std::__ndk1::allocator<hook62<(anonymous namespace)::hook62Parent>::init(LevelEditorLayer*)::{lambda()#1}::operator()() const::{lambda()#27}>, void ()>::operator()()
PUBLIC 53e0c 0 std::__ndk1::__function::__func<hook62<(anonymous namespace)::hook62Parent>::init(LevelEditorLayer*)::{lambda()#1}::operator()() const::{lambda()#27}, std::__ndk1::allocator<hook62<(anonymous namespace)::hook62Parent>::init(LevelEditorLayer*)::{lambda()#1}::operator()() const::{lambda()#27}>, void ()>::target(std::type_info const&) const
PUBLIC 53e28 0 std::__ndk1::__function::__func<hook62<(anonymous namespace)::hook62Parent>::init(LevelEditorLayer*)::{lambda()#1}::operator()() const::{lambda()#27}, std::__ndk1::allocator<hook62<(anonymous namespace)::hook62Parent>::init(LevelEditorLayer*)::{lambda()#1}::operator()() const::{lambda()#27}>, void ()>::target_type() const
PUBLIC 53e34 0 std::__ndk1::__function::__func<hook62<(anonymous namespace)::hook62Parent>::init(LevelEditorLayer*)::{lambda()#1}::operator()() const::{lambda()#28}, std::__ndk1::allocator<hook62<(anonymous namespace)::hook62Parent>::init(LevelEditorLayer*)::{lambda()#1}::operator()() const::{lambda()#28}>, void ()>::~__func()
PUBLIC 53e38 0 std::__ndk1::__function::__func<hook62<(anonymous namespace)::hook62Parent>::init(LevelEditorLayer*)::{lambda()#1}::operator()() const::{lambda()#28}, std::__ndk1::allocator<hook62<(anonymous namespace)::hook62Parent>::init(LevelEditorLayer*)::{lambda()#1}::operator()() const::{lambda()#28}>, void ()>::__clone() const
PUBLIC 53e6c 0 std::__ndk1::__function::__func<hook62<(anonymous namespace)::hook62Parent>::init(LevelEditorLayer*)::{lambda()#1}::operator()() const::{lambda()#28}, std::__ndk1::allocator<hook62<(anonymous namespace)::hook62Parent>::init(LevelEditorLayer*)::{lambda()#1}::operator()() const::{lambda()#28}>, void ()>::__clone(std::__ndk1::__function::__base<void ()>*) const
PUBLIC 53e80 0 std::__ndk1::__function::__func<hook62<(anonymous namespace)::hook62Parent>::init(LevelEditorLayer*)::{lambda()#1}::operator()() const::{lambda()#28}, std::__ndk1::allocator<hook62<(anonymous namespace)::hook62Parent>::init(LevelEditorLayer*)::{lambda()#1}::operator()() const::{lambda()#28}>, void ()>::destroy()
PUBLIC 53e84 0 std::__ndk1::__function::__func<hook62<(anonymous namespace)::hook62Parent>::init(LevelEditorLayer*)::{lambda()#1}::operator()() const::{lambda()#28}, std::__ndk1::allocator<hook62<(anonymous namespace)::hook62Parent>::init(LevelEditorLayer*)::{lambda()#1}::operator()() const::{lambda()#28}>, void ()>::destroy_deallocate()
PUBLIC 53e88 0 std::__ndk1::__function::__func<hook62<(anonymous namespace)::hook62Parent>::init(LevelEditorLayer*)::{lambda()#1}::operator()() const::{lambda()#28}, std::__ndk1::allocator<hook62<(anonymous namespace)::hook62Parent>::init(LevelEditorLayer*)::{lambda()#1}::operator()() const::{lambda()#28}>, void ()>::operator()()
PUBLIC 53e94 0 std::__ndk1::__function::__func<hook62<(anonymous namespace)::hook62Parent>::init(LevelEditorLayer*)::{lambda()#1}::operator()() const::{lambda()#28}, std::__ndk1::allocator<hook62<(anonymous namespace)::hook62Parent>::init(LevelEditorLayer*)::{lambda()#1}::operator()() const::{lambda()#28}>, void ()>::target(std::type_info const&) const
PUBLIC 53eb0 0 std::__ndk1::__function::__func<hook62<(anonymous namespace)::hook62Parent>::init(LevelEditorLayer*)::{lambda()#1}::operator()() const::{lambda()#28}, std::__ndk1::allocator<hook62<(anonymous namespace)::hook62Parent>::init(LevelEditorLayer*)::{lambda()#1}::operator()() const::{lambda()#28}>, void ()>::target_type() const
PUBLIC 53ebc 0 std::__ndk1::__function::__func<hook62<(anonymous namespace)::hook62Parent>::init(LevelEditorLayer*)::{lambda()#1}::operator()() const::{lambda()#29}, std::__ndk1::allocator<hook62<(anonymous namespace)::hook62Parent>::init(LevelEditorLayer*)::{lambda()#1}::operator()() const::{lambda()#29}>, void ()>::~__func()
PUBLIC 53ec0 0 std::__ndk1::__function::__func<hook62<(anonymous namespace)::hook62Parent>::init(LevelEditorLayer*)::{lambda()#1}::operator()() const::{lambda()#29}, std::__ndk1::allocator<hook62<(anonymous namespace)::hook62Parent>::init(LevelEditorLayer*)::{lambda()#1}::operator()() const::{lambda()#29}>, void ()>::__clone() const
PUBLIC 53ef4 0 std::__ndk1::__function::__func<hook62<(anonymous namespace)::hook62Parent>::init(LevelEditorLayer*)::{lambda()#1}::operator()() const::{lambda()#29}, std::__ndk1::allocator<hook62<(anonymous namespace)::hook62Parent>::init(LevelEditorLayer*)::{lambda()#1}::operator()() const::{lambda()#29}>, void ()>::__clone(std::__ndk1::__function::__base<void ()>*) const
PUBLIC 53f08 0 std::__ndk1::__function::__func<hook62<(anonymous namespace)::hook62Parent>::init(LevelEditorLayer*)::{lambda()#1}::operator()() const::{lambda()#29}, std::__ndk1::allocator<hook62<(anonymous namespace)::hook62Parent>::init(LevelEditorLayer*)::{lambda()#1}::operator()() const::{lambda()#29}>, void ()>::destroy()
PUBLIC 53f0c 0 std::__ndk1::__function::__func<hook62<(anonymous namespace)::hook62Parent>::init(LevelEditorLayer*)::{lambda()#1}::operator()() const::{lambda()#29}, std::__ndk1::allocator<hook62<(anonymous namespace)::hook62Parent>::init(LevelEditorLayer*)::{lambda()#1}::operator()() const::{lambda()#29}>, void ()>::destroy_deallocate()
PUBLIC 53f10 0 std::__ndk1::__function::__func<hook62<(anonymous namespace)::hook62Parent>::init(LevelEditorLayer*)::{lambda()#1}::operator()() const::{lambda()#29}, std::__ndk1::allocator<hook62<(anonymous namespace)::hook62Parent>::init(LevelEditorLayer*)::{lambda()#1}::operator()() const::{lambda()#29}>, void ()>::operator()()
PUBLIC 53f1c 0 std::__ndk1::__function::__func<hook62<(anonymous namespace)::hook62Parent>::init(LevelEditorLayer*)::{lambda()#1}::operator()() const::{lambda()#29}, std::__ndk1::allocator<hook62<(anonymous namespace)::hook62Parent>::init(LevelEditorLayer*)::{lambda()#1}::operator()() const::{lambda()#29}>, void ()>::target(std::type_info const&) const
PUBLIC 53f38 0 std::__ndk1::__function::__func<hook62<(anonymous namespace)::hook62Parent>::init(LevelEditorLayer*)::{lambda()#1}::operator()() const::{lambda()#29}, std::__ndk1::allocator<hook62<(anonymous namespace)::hook62Parent>::init(LevelEditorLayer*)::{lambda()#1}::operator()() const::{lambda()#29}>, void ()>::target_type() const
PUBLIC 53f44 0 std::__ndk1::__function::__func<hook62<(anonymous namespace)::hook62Parent>::init(LevelEditorLayer*)::{lambda()#1}::operator()() const::{lambda()#30}, std::__ndk1::allocator<hook62<(anonymous namespace)::hook62Parent>::init(LevelEditorLayer*)::{lambda()#1}::operator()() const::{lambda()#30}>, void ()>::~__func()
PUBLIC 53f48 0 std::__ndk1::__function::__func<hook62<(anonymous namespace)::hook62Parent>::init(LevelEditorLayer*)::{lambda()#1}::operator()() const::{lambda()#30}, std::__ndk1::allocator<hook62<(anonymous namespace)::hook62Parent>::init(LevelEditorLayer*)::{lambda()#1}::operator()() const::{lambda()#30}>, void ()>::__clone() const
PUBLIC 53f7c 0 std::__ndk1::__function::__func<hook62<(anonymous namespace)::hook62Parent>::init(LevelEditorLayer*)::{lambda()#1}::operator()() const::{lambda()#30}, std::__ndk1::allocator<hook62<(anonymous namespace)::hook62Parent>::init(LevelEditorLayer*)::{lambda()#1}::operator()() const::{lambda()#30}>, void ()>::__clone(std::__ndk1::__function::__base<void ()>*) const
PUBLIC 53f90 0 std::__ndk1::__function::__func<hook62<(anonymous namespace)::hook62Parent>::init(LevelEditorLayer*)::{lambda()#1}::operator()() const::{lambda()#30}, std::__ndk1::allocator<hook62<(anonymous namespace)::hook62Parent>::init(LevelEditorLayer*)::{lambda()#1}::operator()() const::{lambda()#30}>, void ()>::destroy()
PUBLIC 53f94 0 std::__ndk1::__function::__func<hook62<(anonymous namespace)::hook62Parent>::init(LevelEditorLayer*)::{lambda()#1}::operator()() const::{lambda()#30}, std::__ndk1::allocator<hook62<(anonymous namespace)::hook62Parent>::init(LevelEditorLayer*)::{lambda()#1}::operator()() const::{lambda()#30}>, void ()>::destroy_deallocate()
PUBLIC 53f98 0 std::__ndk1::__function::__func<hook62<(anonymous namespace)::hook62Parent>::init(LevelEditorLayer*)::{lambda()#1}::operator()() const::{lambda()#30}, std::__ndk1::allocator<hook62<(anonymous namespace)::hook62Parent>::init(LevelEditorLayer*)::{lambda()#1}::operator()() const::{lambda()#30}>, void ()>::operator()()
PUBLIC 540ac 0 std::__ndk1::__function::__func<hook62<(anonymous namespace)::hook62Parent>::init(LevelEditorLayer*)::{lambda()#1}::operator()() const::{lambda()#30}, std::__ndk1::allocator<hook62<(anonymous namespace)::hook62Parent>::init(LevelEditorLayer*)::{lambda()#1}::operator()() const::{lambda()#30}>, void ()>::target(std::type_info const&) const
PUBLIC 540c8 0 std::__ndk1::__function::__func<hook62<(anonymous namespace)::hook62Parent>::init(LevelEditorLayer*)::{lambda()#1}::operator()() const::{lambda()#30}, std::__ndk1::allocator<hook62<(anonymous namespace)::hook62Parent>::init(LevelEditorLayer*)::{lambda()#1}::operator()() const::{lambda()#30}>, void ()>::target_type() const
PUBLIC 540d4 0 std::__ndk1::__function::__func<hook62<(anonymous namespace)::hook62Parent>::init(LevelEditorLayer*)::{lambda()#1}::operator()() const::{lambda()#31}, std::__ndk1::allocator<hook62<(anonymous namespace)::hook62Parent>::init(LevelEditorLayer*)::{lambda()#1}::operator()() const::{lambda()#31}>, void ()>::~__func()
PUBLIC 540d8 0 std::__ndk1::__function::__func<hook62<(anonymous namespace)::hook62Parent>::init(LevelEditorLayer*)::{lambda()#1}::operator()() const::{lambda()#31}, std::__ndk1::allocator<hook62<(anonymous namespace)::hook62Parent>::init(LevelEditorLayer*)::{lambda()#1}::operator()() const::{lambda()#31}>, void ()>::__clone() const
PUBLIC 5410c 0 std::__ndk1::__function::__func<hook62<(anonymous namespace)::hook62Parent>::init(LevelEditorLayer*)::{lambda()#1}::operator()() const::{lambda()#31}, std::__ndk1::allocator<hook62<(anonymous namespace)::hook62Parent>::init(LevelEditorLayer*)::{lambda()#1}::operator()() const::{lambda()#31}>, void ()>::__clone(std::__ndk1::__function::__base<void ()>*) const
PUBLIC 54120 0 std::__ndk1::__function::__func<hook62<(anonymous namespace)::hook62Parent>::init(LevelEditorLayer*)::{lambda()#1}::operator()() const::{lambda()#31}, std::__ndk1::allocator<hook62<(anonymous namespace)::hook62Parent>::init(LevelEditorLayer*)::{lambda()#1}::operator()() const::{lambda()#31}>, void ()>::destroy()
PUBLIC 54124 0 std::__ndk1::__function::__func<hook62<(anonymous namespace)::hook62Parent>::init(LevelEditorLayer*)::{lambda()#1}::operator()() const::{lambda()#31}, std::__ndk1::allocator<hook62<(anonymous namespace)::hook62Parent>::init(LevelEditorLayer*)::{lambda()#1}::operator()() const::{lambda()#31}>, void ()>::destroy_deallocate()
PUBLIC 54128 0 std::__ndk1::__function::__func<hook62<(anonymous namespace)::hook62Parent>::init(LevelEditorLayer*)::{lambda()#1}::operator()() const::{lambda()#31}, std::__ndk1::allocator<hook62<(anonymous namespace)::hook62Parent>::init(LevelEditorLayer*)::{lambda()#1}::operator()() const::{lambda()#31}>, void ()>::operator()()
PUBLIC 5423c 0 std::__ndk1::__function::__func<hook62<(anonymous namespace)::hook62Parent>::init(LevelEditorLayer*)::{lambda()#1}::operator()() const::{lambda()#31}, std::__ndk1::allocator<hook62<(anonymous namespace)::hook62Parent>::init(LevelEditorLayer*)::{lambda()#1}::operator()() const::{lambda()#31}>, void ()>::target(std::type_info const&) const
PUBLIC 54258 0 std::__ndk1::__function::__func<hook62<(anonymous namespace)::hook62Parent>::init(LevelEditorLayer*)::{lambda()#1}::operator()() const::{lambda()#31}, std::__ndk1::allocator<hook62<(anonymous namespace)::hook62Parent>::init(LevelEditorLayer*)::{lambda()#1}::operator()() const::{lambda()#31}>, void ()>::target_type() const
PUBLIC 54264 0 std::__ndk1::__function::__func<hook62<(anonymous namespace)::hook62Parent>::init(LevelEditorLayer*)::{lambda()#1}::operator()() const::{lambda()#32}, std::__ndk1::allocator<hook62<(anonymous namespace)::hook62Parent>::init(LevelEditorLayer*)::{lambda()#1}::operator()() const::{lambda()#32}>, void ()>::~__func()
PUBLIC 54268 0 std::__ndk1::__function::__func<hook62<(anonymous namespace)::hook62Parent>::init(LevelEditorLayer*)::{lambda()#1}::operator()() const::{lambda()#32}, std::__ndk1::allocator<hook62<(anonymous namespace)::hook62Parent>::init(LevelEditorLayer*)::{lambda()#1}::operator()() const::{lambda()#32}>, void ()>::__clone() const
PUBLIC 5429c 0 std::__ndk1::__function::__func<hook62<(anonymous namespace)::hook62Parent>::init(LevelEditorLayer*)::{lambda()#1}::operator()() const::{lambda()#32}, std::__ndk1::allocator<hook62<(anonymous namespace)::hook62Parent>::init(LevelEditorLayer*)::{lambda()#1}::operator()() const::{lambda()#32}>, void ()>::__clone(std::__ndk1::__function::__base<void ()>*) const
PUBLIC 542b0 0 std::__ndk1::__function::__func<hook62<(anonymous namespace)::hook62Parent>::init(LevelEditorLayer*)::{lambda()#1}::operator()() const::{lambda()#32}, std::__ndk1::allocator<hook62<(anonymous namespace)::hook62Parent>::init(LevelEditorLayer*)::{lambda()#1}::operator()() const::{lambda()#32}>, void ()>::destroy()
PUBLIC 542b4 0 std::__ndk1::__function::__func<hook62<(anonymous namespace)::hook62Parent>::init(LevelEditorLayer*)::{lambda()#1}::operator()() const::{lambda()#32}, std::__ndk1::allocator<hook62<(anonymous namespace)::hook62Parent>::init(LevelEditorLayer*)::{lambda()#1}::operator()() const::{lambda()#32}>, void ()>::destroy_deallocate()
PUBLIC 542b8 0 std::__ndk1::__function::__func<hook62<(anonymous namespace)::hook62Parent>::init(LevelEditorLayer*)::{lambda()#1}::operator()() const::{lambda()#32}, std::__ndk1::allocator<hook62<(anonymous namespace)::hook62Parent>::init(LevelEditorLayer*)::{lambda()#1}::operator()() const::{lambda()#32}>, void ()>::operator()()
PUBLIC 543cc 0 std::__ndk1::__function::__func<hook62<(anonymous namespace)::hook62Parent>::init(LevelEditorLayer*)::{lambda()#1}::operator()() const::{lambda()#32}, std::__ndk1::allocator<hook62<(anonymous namespace)::hook62Parent>::init(LevelEditorLayer*)::{lambda()#1}::operator()() const::{lambda()#32}>, void ()>::target(std::type_info const&) const
PUBLIC 543e8 0 std::__ndk1::__function::__func<hook62<(anonymous namespace)::hook62Parent>::init(LevelEditorLayer*)::{lambda()#1}::operator()() const::{lambda()#32}, std::__ndk1::allocator<hook62<(anonymous namespace)::hook62Parent>::init(LevelEditorLayer*)::{lambda()#1}::operator()() const::{lambda()#32}>, void ()>::target_type() const
PUBLIC 543f4 0 std::__ndk1::__function::__func<hook62<(anonymous namespace)::hook62Parent>::init(LevelEditorLayer*)::{lambda()#1}::operator()() const::{lambda()#33}, std::__ndk1::allocator<hook62<(anonymous namespace)::hook62Parent>::init(LevelEditorLayer*)::{lambda()#1}::operator()() const::{lambda()#33}>, void ()>::~__func()
PUBLIC 543f8 0 std::__ndk1::__function::__func<hook62<(anonymous namespace)::hook62Parent>::init(LevelEditorLayer*)::{lambda()#1}::operator()() const::{lambda()#33}, std::__ndk1::allocator<hook62<(anonymous namespace)::hook62Parent>::init(LevelEditorLayer*)::{lambda()#1}::operator()() const::{lambda()#33}>, void ()>::__clone() const
PUBLIC 5442c 0 std::__ndk1::__function::__func<hook62<(anonymous namespace)::hook62Parent>::init(LevelEditorLayer*)::{lambda()#1}::operator()() const::{lambda()#33}, std::__ndk1::allocator<hook62<(anonymous namespace)::hook62Parent>::init(LevelEditorLayer*)::{lambda()#1}::operator()() const::{lambda()#33}>, void ()>::__clone(std::__ndk1::__function::__base<void ()>*) const
PUBLIC 54440 0 std::__ndk1::__function::__func<hook62<(anonymous namespace)::hook62Parent>::init(LevelEditorLayer*)::{lambda()#1}::operator()() const::{lambda()#33}, std::__ndk1::allocator<hook62<(anonymous namespace)::hook62Parent>::init(LevelEditorLayer*)::{lambda()#1}::operator()() const::{lambda()#33}>, void ()>::destroy()
PUBLIC 54444 0 std::__ndk1::__function::__func<hook62<(anonymous namespace)::hook62Parent>::init(LevelEditorLayer*)::{lambda()#1}::operator()() const::{lambda()#33}, std::__ndk1::allocator<hook62<(anonymous namespace)::hook62Parent>::init(LevelEditorLayer*)::{lambda()#1}::operator()() const::{lambda()#33}>, void ()>::destroy_deallocate()
PUBLIC 54448 0 std::__ndk1::__function::__func<hook62<(anonymous namespace)::hook62Parent>::init(LevelEditorLayer*)::{lambda()#1}::operator()() const::{lambda()#33}, std::__ndk1::allocator<hook62<(anonymous namespace)::hook62Parent>::init(LevelEditorLayer*)::{lambda()#1}::operator()() const::{lambda()#33}>, void ()>::operator()()
PUBLIC 5455c 0 std::__ndk1::__function::__func<hook62<(anonymous namespace)::hook62Parent>::init(LevelEditorLayer*)::{lambda()#1}::operator()() const::{lambda()#33}, std::__ndk1::allocator<hook62<(anonymous namespace)::hook62Parent>::init(LevelEditorLayer*)::{lambda()#1}::operator()() const::{lambda()#33}>, void ()>::target(std::type_info const&) const
PUBLIC 54578 0 std::__ndk1::__function::__func<hook62<(anonymous namespace)::hook62Parent>::init(LevelEditorLayer*)::{lambda()#1}::operator()() const::{lambda()#33}, std::__ndk1::allocator<hook62<(anonymous namespace)::hook62Parent>::init(LevelEditorLayer*)::{lambda()#1}::operator()() const::{lambda()#33}>, void ()>::target_type() const
PUBLIC 54584 0 std::__ndk1::__function::__func<hook62<(anonymous namespace)::hook62Parent>::init(LevelEditorLayer*)::{lambda()#1}::operator()() const::{lambda()#34}, std::__ndk1::allocator<hook62<(anonymous namespace)::hook62Parent>::init(LevelEditorLayer*)::{lambda()#1}::operator()() const::{lambda()#34}>, void ()>::~__func()
PUBLIC 54588 0 std::__ndk1::__function::__func<hook62<(anonymous namespace)::hook62Parent>::init(LevelEditorLayer*)::{lambda()#1}::operator()() const::{lambda()#34}, std::__ndk1::allocator<hook62<(anonymous namespace)::hook62Parent>::init(LevelEditorLayer*)::{lambda()#1}::operator()() const::{lambda()#34}>, void ()>::__clone() const
PUBLIC 545bc 0 std::__ndk1::__function::__func<hook62<(anonymous namespace)::hook62Parent>::init(LevelEditorLayer*)::{lambda()#1}::operator()() const::{lambda()#34}, std::__ndk1::allocator<hook62<(anonymous namespace)::hook62Parent>::init(LevelEditorLayer*)::{lambda()#1}::operator()() const::{lambda()#34}>, void ()>::__clone(std::__ndk1::__function::__base<void ()>*) const
PUBLIC 545d0 0 std::__ndk1::__function::__func<hook62<(anonymous namespace)::hook62Parent>::init(LevelEditorLayer*)::{lambda()#1}::operator()() const::{lambda()#34}, std::__ndk1::allocator<hook62<(anonymous namespace)::hook62Parent>::init(LevelEditorLayer*)::{lambda()#1}::operator()() const::{lambda()#34}>, void ()>::destroy()
PUBLIC 545d4 0 std::__ndk1::__function::__func<hook62<(anonymous namespace)::hook62Parent>::init(LevelEditorLayer*)::{lambda()#1}::operator()() const::{lambda()#34}, std::__ndk1::allocator<hook62<(anonymous namespace)::hook62Parent>::init(LevelEditorLayer*)::{lambda()#1}::operator()() const::{lambda()#34}>, void ()>::destroy_deallocate()
PUBLIC 545d8 0 std::__ndk1::__function::__func<hook62<(anonymous namespace)::hook62Parent>::init(LevelEditorLayer*)::{lambda()#1}::operator()() const::{lambda()#34}, std::__ndk1::allocator<hook62<(anonymous namespace)::hook62Parent>::init(LevelEditorLayer*)::{lambda()#1}::operator()() const::{lambda()#34}>, void ()>::operator()()
PUBLIC 546ec 0 std::__ndk1::__function::__func<hook62<(anonymous namespace)::hook62Parent>::init(LevelEditorLayer*)::{lambda()#1}::operator()() const::{lambda()#34}, std::__ndk1::allocator<hook62<(anonymous namespace)::hook62Parent>::init(LevelEditorLayer*)::{lambda()#1}::operator()() const::{lambda()#34}>, void ()>::target(std::type_info const&) const
PUBLIC 54708 0 std::__ndk1::__function::__func<hook62<(anonymous namespace)::hook62Parent>::init(LevelEditorLayer*)::{lambda()#1}::operator()() const::{lambda()#34}, std::__ndk1::allocator<hook62<(anonymous namespace)::hook62Parent>::init(LevelEditorLayer*)::{lambda()#1}::operator()() const::{lambda()#34}>, void ()>::target_type() const
PUBLIC 54714 0 std::__ndk1::__function::__func<hook62<(anonymous namespace)::hook62Parent>::init(LevelEditorLayer*)::{lambda()#1}::operator()() const::{lambda()#35}, std::__ndk1::allocator<hook62<(anonymous namespace)::hook62Parent>::init(LevelEditorLayer*)::{lambda()#1}::operator()() const::{lambda()#35}>, void ()>::~__func()
PUBLIC 54718 0 std::__ndk1::__function::__func<hook62<(anonymous namespace)::hook62Parent>::init(LevelEditorLayer*)::{lambda()#1}::operator()() const::{lambda()#35}, std::__ndk1::allocator<hook62<(anonymous namespace)::hook62Parent>::init(LevelEditorLayer*)::{lambda()#1}::operator()() const::{lambda()#35}>, void ()>::__clone() const
PUBLIC 5474c 0 std::__ndk1::__function::__func<hook62<(anonymous namespace)::hook62Parent>::init(LevelEditorLayer*)::{lambda()#1}::operator()() const::{lambda()#35}, std::__ndk1::allocator<hook62<(anonymous namespace)::hook62Parent>::init(LevelEditorLayer*)::{lambda()#1}::operator()() const::{lambda()#35}>, void ()>::__clone(std::__ndk1::__function::__base<void ()>*) const
PUBLIC 54760 0 std::__ndk1::__function::__func<hook62<(anonymous namespace)::hook62Parent>::init(LevelEditorLayer*)::{lambda()#1}::operator()() const::{lambda()#35}, std::__ndk1::allocator<hook62<(anonymous namespace)::hook62Parent>::init(LevelEditorLayer*)::{lambda()#1}::operator()() const::{lambda()#35}>, void ()>::destroy()
PUBLIC 54764 0 std::__ndk1::__function::__func<hook62<(anonymous namespace)::hook62Parent>::init(LevelEditorLayer*)::{lambda()#1}::operator()() const::{lambda()#35}, std::__ndk1::allocator<hook62<(anonymous namespace)::hook62Parent>::init(LevelEditorLayer*)::{lambda()#1}::operator()() const::{lambda()#35}>, void ()>::destroy_deallocate()
PUBLIC 54768 0 std::__ndk1::__function::__func<hook62<(anonymous namespace)::hook62Parent>::init(LevelEditorLayer*)::{lambda()#1}::operator()() const::{lambda()#35}, std::__ndk1::allocator<hook62<(anonymous namespace)::hook62Parent>::init(LevelEditorLayer*)::{lambda()#1}::operator()() const::{lambda()#35}>, void ()>::operator()()
PUBLIC 5487c 0 std::__ndk1::__function::__func<hook62<(anonymous namespace)::hook62Parent>::init(LevelEditorLayer*)::{lambda()#1}::operator()() const::{lambda()#35}, std::__ndk1::allocator<hook62<(anonymous namespace)::hook62Parent>::init(LevelEditorLayer*)::{lambda()#1}::operator()() const::{lambda()#35}>, void ()>::target(std::type_info const&) const
PUBLIC 54898 0 std::__ndk1::__function::__func<hook62<(anonymous namespace)::hook62Parent>::init(LevelEditorLayer*)::{lambda()#1}::operator()() const::{lambda()#35}, std::__ndk1::allocator<hook62<(anonymous namespace)::hook62Parent>::init(LevelEditorLayer*)::{lambda()#1}::operator()() const::{lambda()#35}>, void ()>::target_type() const
PUBLIC 548a4 0 std::__ndk1::__function::__func<hook62<(anonymous namespace)::hook62Parent>::init(LevelEditorLayer*)::{lambda()#1}::operator()() const::{lambda()#36}, std::__ndk1::allocator<hook62<(anonymous namespace)::hook62Parent>::init(LevelEditorLayer*)::{lambda()#1}::operator()() const::{lambda()#36}>, void ()>::~__func()
PUBLIC 548a8 0 std::__ndk1::__function::__func<hook62<(anonymous namespace)::hook62Parent>::init(LevelEditorLayer*)::{lambda()#1}::operator()() const::{lambda()#36}, std::__ndk1::allocator<hook62<(anonymous namespace)::hook62Parent>::init(LevelEditorLayer*)::{lambda()#1}::operator()() const::{lambda()#36}>, void ()>::__clone() const
PUBLIC 548dc 0 std::__ndk1::__function::__func<hook62<(anonymous namespace)::hook62Parent>::init(LevelEditorLayer*)::{lambda()#1}::operator()() const::{lambda()#36}, std::__ndk1::allocator<hook62<(anonymous namespace)::hook62Parent>::init(LevelEditorLayer*)::{lambda()#1}::operator()() const::{lambda()#36}>, void ()>::__clone(std::__ndk1::__function::__base<void ()>*) const
PUBLIC 548f0 0 std::__ndk1::__function::__func<hook62<(anonymous namespace)::hook62Parent>::init(LevelEditorLayer*)::{lambda()#1}::operator()() const::{lambda()#36}, std::__ndk1::allocator<hook62<(anonymous namespace)::hook62Parent>::init(LevelEditorLayer*)::{lambda()#1}::operator()() const::{lambda()#36}>, void ()>::destroy()
PUBLIC 548f4 0 std::__ndk1::__function::__func<hook62<(anonymous namespace)::hook62Parent>::init(LevelEditorLayer*)::{lambda()#1}::operator()() const::{lambda()#36}, std::__ndk1::allocator<hook62<(anonymous namespace)::hook62Parent>::init(LevelEditorLayer*)::{lambda()#1}::operator()() const::{lambda()#36}>, void ()>::destroy_deallocate()
PUBLIC 548f8 0 std::__ndk1::__function::__func<hook62<(anonymous namespace)::hook62Parent>::init(LevelEditorLayer*)::{lambda()#1}::operator()() const::{lambda()#36}, std::__ndk1::allocator<hook62<(anonymous namespace)::hook62Parent>::init(LevelEditorLayer*)::{lambda()#1}::operator()() const::{lambda()#36}>, void ()>::operator()()
PUBLIC 54a0c 0 std::__ndk1::__function::__func<hook62<(anonymous namespace)::hook62Parent>::init(LevelEditorLayer*)::{lambda()#1}::operator()() const::{lambda()#36}, std::__ndk1::allocator<hook62<(anonymous namespace)::hook62Parent>::init(LevelEditorLayer*)::{lambda()#1}::operator()() const::{lambda()#36}>, void ()>::target(std::type_info const&) const
PUBLIC 54a28 0 std::__ndk1::__function::__func<hook62<(anonymous namespace)::hook62Parent>::init(LevelEditorLayer*)::{lambda()#1}::operator()() const::{lambda()#36}, std::__ndk1::allocator<hook62<(anonymous namespace)::hook62Parent>::init(LevelEditorLayer*)::{lambda()#1}::operator()() const::{lambda()#36}>, void ()>::target_type() const
PUBLIC 54a34 0 std::__ndk1::__function::__func<hook62<(anonymous namespace)::hook62Parent>::init(LevelEditorLayer*)::{lambda()#1}::operator()() const::{lambda()#37}, std::__ndk1::allocator<hook62<(anonymous namespace)::hook62Parent>::init(LevelEditorLayer*)::{lambda()#1}::operator()() const::{lambda()#37}>, void ()>::~__func()
PUBLIC 54a38 0 std::__ndk1::__function::__func<hook62<(anonymous namespace)::hook62Parent>::init(LevelEditorLayer*)::{lambda()#1}::operator()() const::{lambda()#37}, std::__ndk1::allocator<hook62<(anonymous namespace)::hook62Parent>::init(LevelEditorLayer*)::{lambda()#1}::operator()() const::{lambda()#37}>, void ()>::__clone() const
PUBLIC 54a6c 0 std::__ndk1::__function::__func<hook62<(anonymous namespace)::hook62Parent>::init(LevelEditorLayer*)::{lambda()#1}::operator()() const::{lambda()#37}, std::__ndk1::allocator<hook62<(anonymous namespace)::hook62Parent>::init(LevelEditorLayer*)::{lambda()#1}::operator()() const::{lambda()#37}>, void ()>::__clone(std::__ndk1::__function::__base<void ()>*) const
PUBLIC 54a80 0 std::__ndk1::__function::__func<hook62<(anonymous namespace)::hook62Parent>::init(LevelEditorLayer*)::{lambda()#1}::operator()() const::{lambda()#37}, std::__ndk1::allocator<hook62<(anonymous namespace)::hook62Parent>::init(LevelEditorLayer*)::{lambda()#1}::operator()() const::{lambda()#37}>, void ()>::destroy()
PUBLIC 54a84 0 std::__ndk1::__function::__func<hook62<(anonymous namespace)::hook62Parent>::init(LevelEditorLayer*)::{lambda()#1}::operator()() const::{lambda()#37}, std::__ndk1::allocator<hook62<(anonymous namespace)::hook62Parent>::init(LevelEditorLayer*)::{lambda()#1}::operator()() const::{lambda()#37}>, void ()>::destroy_deallocate()
PUBLIC 54a88 0 std::__ndk1::__function::__func<hook62<(anonymous namespace)::hook62Parent>::init(LevelEditorLayer*)::{lambda()#1}::operator()() const::{lambda()#37}, std::__ndk1::allocator<hook62<(anonymous namespace)::hook62Parent>::init(LevelEditorLayer*)::{lambda()#1}::operator()() const::{lambda()#37}>, void ()>::operator()()
PUBLIC 54b9c 0 std::__ndk1::__function::__func<hook62<(anonymous namespace)::hook62Parent>::init(LevelEditorLayer*)::{lambda()#1}::operator()() const::{lambda()#37}, std::__ndk1::allocator<hook62<(anonymous namespace)::hook62Parent>::init(LevelEditorLayer*)::{lambda()#1}::operator()() const::{lambda()#37}>, void ()>::target(std::type_info const&) const
PUBLIC 54bb8 0 std::__ndk1::__function::__func<hook62<(anonymous namespace)::hook62Parent>::init(LevelEditorLayer*)::{lambda()#1}::operator()() const::{lambda()#37}, std::__ndk1::allocator<hook62<(anonymous namespace)::hook62Parent>::init(LevelEditorLayer*)::{lambda()#1}::operator()() const::{lambda()#37}>, void ()>::target_type() const
PUBLIC 54bc4 0 std::__ndk1::__function::__func<hook62<(anonymous namespace)::hook62Parent>::init(LevelEditorLayer*)::{lambda()#1}::operator()() const::{lambda()#38}, std::__ndk1::allocator<hook62<(anonymous namespace)::hook62Parent>::init(LevelEditorLayer*)::{lambda()#1}::operator()() const::{lambda()#38}>, void ()>::~__func()
PUBLIC 54bc8 0 std::__ndk1::__function::__func<hook62<(anonymous namespace)::hook62Parent>::init(LevelEditorLayer*)::{lambda()#1}::operator()() const::{lambda()#38}, std::__ndk1::allocator<hook62<(anonymous namespace)::hook62Parent>::init(LevelEditorLayer*)::{lambda()#1}::operator()() const::{lambda()#38}>, void ()>::__clone() const
PUBLIC 54bfc 0 std::__ndk1::__function::__func<hook62<(anonymous namespace)::hook62Parent>::init(LevelEditorLayer*)::{lambda()#1}::operator()() const::{lambda()#38}, std::__ndk1::allocator<hook62<(anonymous namespace)::hook62Parent>::init(LevelEditorLayer*)::{lambda()#1}::operator()() const::{lambda()#38}>, void ()>::__clone(std::__ndk1::__function::__base<void ()>*) const
PUBLIC 54c10 0 std::__ndk1::__function::__func<hook62<(anonymous namespace)::hook62Parent>::init(LevelEditorLayer*)::{lambda()#1}::operator()() const::{lambda()#38}, std::__ndk1::allocator<hook62<(anonymous namespace)::hook62Parent>::init(LevelEditorLayer*)::{lambda()#1}::operator()() const::{lambda()#38}>, void ()>::destroy()
PUBLIC 54c14 0 std::__ndk1::__function::__func<hook62<(anonymous namespace)::hook62Parent>::init(LevelEditorLayer*)::{lambda()#1}::operator()() const::{lambda()#38}, std::__ndk1::allocator<hook62<(anonymous namespace)::hook62Parent>::init(LevelEditorLayer*)::{lambda()#1}::operator()() const::{lambda()#38}>, void ()>::destroy_deallocate()
PUBLIC 54c18 0 std::__ndk1::__function::__func<hook62<(anonymous namespace)::hook62Parent>::init(LevelEditorLayer*)::{lambda()#1}::operator()() const::{lambda()#38}, std::__ndk1::allocator<hook62<(anonymous namespace)::hook62Parent>::init(LevelEditorLayer*)::{lambda()#1}::operator()() const::{lambda()#38}>, void ()>::operator()()
PUBLIC 54d2c 0 std::__ndk1::__function::__func<hook62<(anonymous namespace)::hook62Parent>::init(LevelEditorLayer*)::{lambda()#1}::operator()() const::{lambda()#38}, std::__ndk1::allocator<hook62<(anonymous namespace)::hook62Parent>::init(LevelEditorLayer*)::{lambda()#1}::operator()() const::{lambda()#38}>, void ()>::target(std::type_info const&) const
PUBLIC 54d48 0 std::__ndk1::__function::__func<hook62<(anonymous namespace)::hook62Parent>::init(LevelEditorLayer*)::{lambda()#1}::operator()() const::{lambda()#38}, std::__ndk1::allocator<hook62<(anonymous namespace)::hook62Parent>::init(LevelEditorLayer*)::{lambda()#1}::operator()() const::{lambda()#38}>, void ()>::target_type() const
PUBLIC 54d54 0 std::__ndk1::__function::__func<hook62<(anonymous namespace)::hook62Parent>::init(LevelEditorLayer*)::{lambda()#1}::operator()() const::{lambda()#39}, std::__ndk1::allocator<hook62<(anonymous namespace)::hook62Parent>::init(LevelEditorLayer*)::{lambda()#1}::operator()() const::{lambda()#39}>, void ()>::~__func()
PUBLIC 54d58 0 std::__ndk1::__function::__func<hook62<(anonymous namespace)::hook62Parent>::init(LevelEditorLayer*)::{lambda()#1}::operator()() const::{lambda()#39}, std::__ndk1::allocator<hook62<(anonymous namespace)::hook62Parent>::init(LevelEditorLayer*)::{lambda()#1}::operator()() const::{lambda()#39}>, void ()>::__clone() const
PUBLIC 54d8c 0 std::__ndk1::__function::__func<hook62<(anonymous namespace)::hook62Parent>::init(LevelEditorLayer*)::{lambda()#1}::operator()() const::{lambda()#39}, std::__ndk1::allocator<hook62<(anonymous namespace)::hook62Parent>::init(LevelEditorLayer*)::{lambda()#1}::operator()() const::{lambda()#39}>, void ()>::__clone(std::__ndk1::__function::__base<void ()>*) const
PUBLIC 54da0 0 std::__ndk1::__function::__func<hook62<(anonymous namespace)::hook62Parent>::init(LevelEditorLayer*)::{lambda()#1}::operator()() const::{lambda()#39}, std::__ndk1::allocator<hook62<(anonymous namespace)::hook62Parent>::init(LevelEditorLayer*)::{lambda()#1}::operator()() const::{lambda()#39}>, void ()>::destroy()
PUBLIC 54da4 0 std::__ndk1::__function::__func<hook62<(anonymous namespace)::hook62Parent>::init(LevelEditorLayer*)::{lambda()#1}::operator()() const::{lambda()#39}, std::__ndk1::allocator<hook62<(anonymous namespace)::hook62Parent>::init(LevelEditorLayer*)::{lambda()#1}::operator()() const::{lambda()#39}>, void ()>::destroy_deallocate()
PUBLIC 54da8 0 std::__ndk1::__function::__func<hook62<(anonymous namespace)::hook62Parent>::init(LevelEditorLayer*)::{lambda()#1}::operator()() const::{lambda()#39}, std::__ndk1::allocator<hook62<(anonymous namespace)::hook62Parent>::init(LevelEditorLayer*)::{lambda()#1}::operator()() const::{lambda()#39}>, void ()>::operator()()
PUBLIC 54ebc 0 std::__ndk1::__function::__func<hook62<(anonymous namespace)::hook62Parent>::init(LevelEditorLayer*)::{lambda()#1}::operator()() const::{lambda()#39}, std::__ndk1::allocator<hook62<(anonymous namespace)::hook62Parent>::init(LevelEditorLayer*)::{lambda()#1}::operator()() const::{lambda()#39}>, void ()>::target(std::type_info const&) const
PUBLIC 54ed8 0 std::__ndk1::__function::__func<hook62<(anonymous namespace)::hook62Parent>::init(LevelEditorLayer*)::{lambda()#1}::operator()() const::{lambda()#39}, std::__ndk1::allocator<hook62<(anonymous namespace)::hook62Parent>::init(LevelEditorLayer*)::{lambda()#1}::operator()() const::{lambda()#39}>, void ()>::target_type() const
PUBLIC 54ee4 0 std::__ndk1::__function::__func<hook62<(anonymous namespace)::hook62Parent>::init(LevelEditorLayer*)::{lambda()#1}::operator()() const::{lambda()#40}, std::__ndk1::allocator<hook62<(anonymous namespace)::hook62Parent>::init(LevelEditorLayer*)::{lambda()#1}::operator()() const::{lambda()#40}>, void ()>::~__func()
PUBLIC 54ee8 0 std::__ndk1::__function::__func<hook62<(anonymous namespace)::hook62Parent>::init(LevelEditorLayer*)::{lambda()#1}::operator()() const::{lambda()#40}, std::__ndk1::allocator<hook62<(anonymous namespace)::hook62Parent>::init(LevelEditorLayer*)::{lambda()#1}::operator()() const::{lambda()#40}>, void ()>::__clone() const
PUBLIC 54f1c 0 std::__ndk1::__function::__func<hook62<(anonymous namespace)::hook62Parent>::init(LevelEditorLayer*)::{lambda()#1}::operator()() const::{lambda()#40}, std::__ndk1::allocator<hook62<(anonymous namespace)::hook62Parent>::init(LevelEditorLayer*)::{lambda()#1}::operator()() const::{lambda()#40}>, void ()>::__clone(std::__ndk1::__function::__base<void ()>*) const
PUBLIC 54f30 0 std::__ndk1::__function::__func<hook62<(anonymous namespace)::hook62Parent>::init(LevelEditorLayer*)::{lambda()#1}::operator()() const::{lambda()#40}, std::__ndk1::allocator<hook62<(anonymous namespace)::hook62Parent>::init(LevelEditorLayer*)::{lambda()#1}::operator()() const::{lambda()#40}>, void ()>::destroy()
PUBLIC 54f34 0 std::__ndk1::__function::__func<hook62<(anonymous namespace)::hook62Parent>::init(LevelEditorLayer*)::{lambda()#1}::operator()() const::{lambda()#40}, std::__ndk1::allocator<hook62<(anonymous namespace)::hook62Parent>::init(LevelEditorLayer*)::{lambda()#1}::operator()() const::{lambda()#40}>, void ()>::destroy_deallocate()
PUBLIC 54f38 0 std::__ndk1::__function::__func<hook62<(anonymous namespace)::hook62Parent>::init(LevelEditorLayer*)::{lambda()#1}::operator()() const::{lambda()#40}, std::__ndk1::allocator<hook62<(anonymous namespace)::hook62Parent>::init(LevelEditorLayer*)::{lambda()#1}::operator()() const::{lambda()#40}>, void ()>::operator()()
PUBLIC 5504c 0 std::__ndk1::__function::__func<hook62<(anonymous namespace)::hook62Parent>::init(LevelEditorLayer*)::{lambda()#1}::operator()() const::{lambda()#40}, std::__ndk1::allocator<hook62<(anonymous namespace)::hook62Parent>::init(LevelEditorLayer*)::{lambda()#1}::operator()() const::{lambda()#40}>, void ()>::target(std::type_info const&) const
PUBLIC 55068 0 std::__ndk1::__function::__func<hook62<(anonymous namespace)::hook62Parent>::init(LevelEditorLayer*)::{lambda()#1}::operator()() const::{lambda()#40}, std::__ndk1::allocator<hook62<(anonymous namespace)::hook62Parent>::init(LevelEditorLayer*)::{lambda()#1}::operator()() const::{lambda()#40}>, void ()>::target_type() const
PUBLIC 55074 0 std::__ndk1::__function::__func<hook62<(anonymous namespace)::hook62Parent>::init(LevelEditorLayer*)::{lambda()#1}::operator()() const::{lambda()#41}, std::__ndk1::allocator<hook62<(anonymous namespace)::hook62Parent>::init(LevelEditorLayer*)::{lambda()#1}::operator()() const::{lambda()#41}>, void ()>::~__func()
PUBLIC 55078 0 std::__ndk1::__function::__func<hook62<(anonymous namespace)::hook62Parent>::init(LevelEditorLayer*)::{lambda()#1}::operator()() const::{lambda()#41}, std::__ndk1::allocator<hook62<(anonymous namespace)::hook62Parent>::init(LevelEditorLayer*)::{lambda()#1}::operator()() const::{lambda()#41}>, void ()>::__clone() const
PUBLIC 550ac 0 std::__ndk1::__function::__func<hook62<(anonymous namespace)::hook62Parent>::init(LevelEditorLayer*)::{lambda()#1}::operator()() const::{lambda()#41}, std::__ndk1::allocator<hook62<(anonymous namespace)::hook62Parent>::init(LevelEditorLayer*)::{lambda()#1}::operator()() const::{lambda()#41}>, void ()>::__clone(std::__ndk1::__function::__base<void ()>*) const
PUBLIC 550c0 0 std::__ndk1::__function::__func<hook62<(anonymous namespace)::hook62Parent>::init(LevelEditorLayer*)::{lambda()#1}::operator()() const::{lambda()#41}, std::__ndk1::allocator<hook62<(anonymous namespace)::hook62Parent>::init(LevelEditorLayer*)::{lambda()#1}::operator()() const::{lambda()#41}>, void ()>::destroy()
PUBLIC 550c4 0 std::__ndk1::__function::__func<hook62<(anonymous namespace)::hook62Parent>::init(LevelEditorLayer*)::{lambda()#1}::operator()() const::{lambda()#41}, std::__ndk1::allocator<hook62<(anonymous namespace)::hook62Parent>::init(LevelEditorLayer*)::{lambda()#1}::operator()() const::{lambda()#41}>, void ()>::destroy_deallocate()
PUBLIC 550c8 0 std::__ndk1::__function::__func<hook62<(anonymous namespace)::hook62Parent>::init(LevelEditorLayer*)::{lambda()#1}::operator()() const::{lambda()#41}, std::__ndk1::allocator<hook62<(anonymous namespace)::hook62Parent>::init(LevelEditorLayer*)::{lambda()#1}::operator()() const::{lambda()#41}>, void ()>::operator()()
PUBLIC 551dc 0 std::__ndk1::__function::__func<hook62<(anonymous namespace)::hook62Parent>::init(LevelEditorLayer*)::{lambda()#1}::operator()() const::{lambda()#41}, std::__ndk1::allocator<hook62<(anonymous namespace)::hook62Parent>::init(LevelEditorLayer*)::{lambda()#1}::operator()() const::{lambda()#41}>, void ()>::target(std::type_info const&) const
PUBLIC 551f8 0 std::__ndk1::__function::__func<hook62<(anonymous namespace)::hook62Parent>::init(LevelEditorLayer*)::{lambda()#1}::operator()() const::{lambda()#41}, std::__ndk1::allocator<hook62<(anonymous namespace)::hook62Parent>::init(LevelEditorLayer*)::{lambda()#1}::operator()() const::{lambda()#41}>, void ()>::target_type() const
PUBLIC 55204 0 std::__ndk1::__function::__func<hook62<(anonymous namespace)::hook62Parent>::init(LevelEditorLayer*)::{lambda()#1}::operator()() const::{lambda()#42}, std::__ndk1::allocator<hook62<(anonymous namespace)::hook62Parent>::init(LevelEditorLayer*)::{lambda()#1}::operator()() const::{lambda()#42}>, void ()>::~__func()
PUBLIC 55208 0 std::__ndk1::__function::__func<hook62<(anonymous namespace)::hook62Parent>::init(LevelEditorLayer*)::{lambda()#1}::operator()() const::{lambda()#42}, std::__ndk1::allocator<hook62<(anonymous namespace)::hook62Parent>::init(LevelEditorLayer*)::{lambda()#1}::operator()() const::{lambda()#42}>, void ()>::__clone() const
PUBLIC 5523c 0 std::__ndk1::__function::__func<hook62<(anonymous namespace)::hook62Parent>::init(LevelEditorLayer*)::{lambda()#1}::operator()() const::{lambda()#42}, std::__ndk1::allocator<hook62<(anonymous namespace)::hook62Parent>::init(LevelEditorLayer*)::{lambda()#1}::operator()() const::{lambda()#42}>, void ()>::__clone(std::__ndk1::__function::__base<void ()>*) const
PUBLIC 55250 0 std::__ndk1::__function::__func<hook62<(anonymous namespace)::hook62Parent>::init(LevelEditorLayer*)::{lambda()#1}::operator()() const::{lambda()#42}, std::__ndk1::allocator<hook62<(anonymous namespace)::hook62Parent>::init(LevelEditorLayer*)::{lambda()#1}::operator()() const::{lambda()#42}>, void ()>::destroy()
PUBLIC 55254 0 std::__ndk1::__function::__func<hook62<(anonymous namespace)::hook62Parent>::init(LevelEditorLayer*)::{lambda()#1}::operator()() const::{lambda()#42}, std::__ndk1::allocator<hook62<(anonymous namespace)::hook62Parent>::init(LevelEditorLayer*)::{lambda()#1}::operator()() const::{lambda()#42}>, void ()>::destroy_deallocate()
PUBLIC 55258 0 std::__ndk1::__function::__func<hook62<(anonymous namespace)::hook62Parent>::init(LevelEditorLayer*)::{lambda()#1}::operator()() const::{lambda()#42}, std::__ndk1::allocator<hook62<(anonymous namespace)::hook62Parent>::init(LevelEditorLayer*)::{lambda()#1}::operator()() const::{lambda()#42}>, void ()>::operator()()
PUBLIC 5536c 0 std::__ndk1::__function::__func<hook62<(anonymous namespace)::hook62Parent>::init(LevelEditorLayer*)::{lambda()#1}::operator()() const::{lambda()#42}, std::__ndk1::allocator<hook62<(anonymous namespace)::hook62Parent>::init(LevelEditorLayer*)::{lambda()#1}::operator()() const::{lambda()#42}>, void ()>::target(std::type_info const&) const
PUBLIC 55388 0 std::__ndk1::__function::__func<hook62<(anonymous namespace)::hook62Parent>::init(LevelEditorLayer*)::{lambda()#1}::operator()() const::{lambda()#42}, std::__ndk1::allocator<hook62<(anonymous namespace)::hook62Parent>::init(LevelEditorLayer*)::{lambda()#1}::operator()() const::{lambda()#42}>, void ()>::target_type() const
PUBLIC 55394 0 std::__ndk1::__function::__func<hook62<(anonymous namespace)::hook62Parent>::init(LevelEditorLayer*)::{lambda()#1}::operator()() const::{lambda()#43}, std::__ndk1::allocator<hook62<(anonymous namespace)::hook62Parent>::init(LevelEditorLayer*)::{lambda()#1}::operator()() const::{lambda()#43}>, void ()>::~__func()
PUBLIC 55398 0 std::__ndk1::__function::__func<hook62<(anonymous namespace)::hook62Parent>::init(LevelEditorLayer*)::{lambda()#1}::operator()() const::{lambda()#43}, std::__ndk1::allocator<hook62<(anonymous namespace)::hook62Parent>::init(LevelEditorLayer*)::{lambda()#1}::operator()() const::{lambda()#43}>, void ()>::__clone() const
PUBLIC 553cc 0 std::__ndk1::__function::__func<hook62<(anonymous namespace)::hook62Parent>::init(LevelEditorLayer*)::{lambda()#1}::operator()() const::{lambda()#43}, std::__ndk1::allocator<hook62<(anonymous namespace)::hook62Parent>::init(LevelEditorLayer*)::{lambda()#1}::operator()() const::{lambda()#43}>, void ()>::__clone(std::__ndk1::__function::__base<void ()>*) const
PUBLIC 553e0 0 std::__ndk1::__function::__func<hook62<(anonymous namespace)::hook62Parent>::init(LevelEditorLayer*)::{lambda()#1}::operator()() const::{lambda()#43}, std::__ndk1::allocator<hook62<(anonymous namespace)::hook62Parent>::init(LevelEditorLayer*)::{lambda()#1}::operator()() const::{lambda()#43}>, void ()>::destroy()
PUBLIC 553e4 0 std::__ndk1::__function::__func<hook62<(anonymous namespace)::hook62Parent>::init(LevelEditorLayer*)::{lambda()#1}::operator()() const::{lambda()#43}, std::__ndk1::allocator<hook62<(anonymous namespace)::hook62Parent>::init(LevelEditorLayer*)::{lambda()#1}::operator()() const::{lambda()#43}>, void ()>::destroy_deallocate()
PUBLIC 553e8 0 std::__ndk1::__function::__func<hook62<(anonymous namespace)::hook62Parent>::init(LevelEditorLayer*)::{lambda()#1}::operator()() const::{lambda()#43}, std::__ndk1::allocator<hook62<(anonymous namespace)::hook62Parent>::init(LevelEditorLayer*)::{lambda()#1}::operator()() const::{lambda()#43}>, void ()>::operator()()
PUBLIC 554fc 0 std::__ndk1::__function::__func<hook62<(anonymous namespace)::hook62Parent>::init(LevelEditorLayer*)::{lambda()#1}::operator()() const::{lambda()#43}, std::__ndk1::allocator<hook62<(anonymous namespace)::hook62Parent>::init(LevelEditorLayer*)::{lambda()#1}::operator()() const::{lambda()#43}>, void ()>::target(std::type_info const&) const
PUBLIC 55518 0 std::__ndk1::__function::__func<hook62<(anonymous namespace)::hook62Parent>::init(LevelEditorLayer*)::{lambda()#1}::operator()() const::{lambda()#43}, std::__ndk1::allocator<hook62<(anonymous namespace)::hook62Parent>::init(LevelEditorLayer*)::{lambda()#1}::operator()() const::{lambda()#43}>, void ()>::target_type() const
PUBLIC 55524 0 std::__ndk1::__function::__func<hook62<(anonymous namespace)::hook62Parent>::init(LevelEditorLayer*)::{lambda()#1}::operator()() const::{lambda()#44}, std::__ndk1::allocator<hook62<(anonymous namespace)::hook62Parent>::init(LevelEditorLayer*)::{lambda()#1}::operator()() const::{lambda()#44}>, void ()>::~__func()
PUBLIC 55528 0 std::__ndk1::__function::__func<hook62<(anonymous namespace)::hook62Parent>::init(LevelEditorLayer*)::{lambda()#1}::operator()() const::{lambda()#44}, std::__ndk1::allocator<hook62<(anonymous namespace)::hook62Parent>::init(LevelEditorLayer*)::{lambda()#1}::operator()() const::{lambda()#44}>, void ()>::__clone() const
PUBLIC 55560 0 std::__ndk1::__function::__func<hook62<(anonymous namespace)::hook62Parent>::init(LevelEditorLayer*)::{lambda()#1}::operator()() const::{lambda()#44}, std::__ndk1::allocator<hook62<(anonymous namespace)::hook62Parent>::init(LevelEditorLayer*)::{lambda()#1}::operator()() const::{lambda()#44}>, void ()>::__clone(std::__ndk1::__function::__base<void ()>*) const
PUBLIC 55578 0 std::__ndk1::__function::__func<hook62<(anonymous namespace)::hook62Parent>::init(LevelEditorLayer*)::{lambda()#1}::operator()() const::{lambda()#44}, std::__ndk1::allocator<hook62<(anonymous namespace)::hook62Parent>::init(LevelEditorLayer*)::{lambda()#1}::operator()() const::{lambda()#44}>, void ()>::destroy()
PUBLIC 5557c 0 std::__ndk1::__function::__func<hook62<(anonymous namespace)::hook62Parent>::init(LevelEditorLayer*)::{lambda()#1}::operator()() const::{lambda()#44}, std::__ndk1::allocator<hook62<(anonymous namespace)::hook62Parent>::init(LevelEditorLayer*)::{lambda()#1}::operator()() const::{lambda()#44}>, void ()>::destroy_deallocate()
PUBLIC 55580 0 std::__ndk1::__function::__func<hook62<(anonymous namespace)::hook62Parent>::init(LevelEditorLayer*)::{lambda()#1}::operator()() const::{lambda()#44}, std::__ndk1::allocator<hook62<(anonymous namespace)::hook62Parent>::init(LevelEditorLayer*)::{lambda()#1}::operator()() const::{lambda()#44}>, void ()>::operator()()
PUBLIC 55698 0 std::__ndk1::__function::__func<hook62<(anonymous namespace)::hook62Parent>::init(LevelEditorLayer*)::{lambda()#1}::operator()() const::{lambda()#44}, std::__ndk1::allocator<hook62<(anonymous namespace)::hook62Parent>::init(LevelEditorLayer*)::{lambda()#1}::operator()() const::{lambda()#44}>, void ()>::target(std::type_info const&) const
PUBLIC 556b4 0 std::__ndk1::__function::__func<hook62<(anonymous namespace)::hook62Parent>::init(LevelEditorLayer*)::{lambda()#1}::operator()() const::{lambda()#44}, std::__ndk1::allocator<hook62<(anonymous namespace)::hook62Parent>::init(LevelEditorLayer*)::{lambda()#1}::operator()() const::{lambda()#44}>, void ()>::target_type() const
PUBLIC 556c0 0 std::__ndk1::__function::__func<hook62<(anonymous namespace)::hook62Parent>::init(LevelEditorLayer*)::{lambda()#1}::operator()() const::{lambda()#45}, std::__ndk1::allocator<hook62<(anonymous namespace)::hook62Parent>::init(LevelEditorLayer*)::{lambda()#1}::operator()() const::{lambda()#45}>, void ()>::~__func()
PUBLIC 556c4 0 std::__ndk1::__function::__func<hook62<(anonymous namespace)::hook62Parent>::init(LevelEditorLayer*)::{lambda()#1}::operator()() const::{lambda()#45}, std::__ndk1::allocator<hook62<(anonymous namespace)::hook62Parent>::init(LevelEditorLayer*)::{lambda()#1}::operator()() const::{lambda()#45}>, void ()>::__clone() const
PUBLIC 556fc 0 std::__ndk1::__function::__func<hook62<(anonymous namespace)::hook62Parent>::init(LevelEditorLayer*)::{lambda()#1}::operator()() const::{lambda()#45}, std::__ndk1::allocator<hook62<(anonymous namespace)::hook62Parent>::init(LevelEditorLayer*)::{lambda()#1}::operator()() const::{lambda()#45}>, void ()>::__clone(std::__ndk1::__function::__base<void ()>*) const
PUBLIC 55714 0 std::__ndk1::__function::__func<hook62<(anonymous namespace)::hook62Parent>::init(LevelEditorLayer*)::{lambda()#1}::operator()() const::{lambda()#45}, std::__ndk1::allocator<hook62<(anonymous namespace)::hook62Parent>::init(LevelEditorLayer*)::{lambda()#1}::operator()() const::{lambda()#45}>, void ()>::destroy()
PUBLIC 55718 0 std::__ndk1::__function::__func<hook62<(anonymous namespace)::hook62Parent>::init(LevelEditorLayer*)::{lambda()#1}::operator()() const::{lambda()#45}, std::__ndk1::allocator<hook62<(anonymous namespace)::hook62Parent>::init(LevelEditorLayer*)::{lambda()#1}::operator()() const::{lambda()#45}>, void ()>::destroy_deallocate()
PUBLIC 5571c 0 std::__ndk1::__function::__func<hook62<(anonymous namespace)::hook62Parent>::init(LevelEditorLayer*)::{lambda()#1}::operator()() const::{lambda()#45}, std::__ndk1::allocator<hook62<(anonymous namespace)::hook62Parent>::init(LevelEditorLayer*)::{lambda()#1}::operator()() const::{lambda()#45}>, void ()>::operator()()
PUBLIC 55834 0 std::__ndk1::__function::__func<hook62<(anonymous namespace)::hook62Parent>::init(LevelEditorLayer*)::{lambda()#1}::operator()() const::{lambda()#45}, std::__ndk1::allocator<hook62<(anonymous namespace)::hook62Parent>::init(LevelEditorLayer*)::{lambda()#1}::operator()() const::{lambda()#45}>, void ()>::target(std::type_info const&) const
PUBLIC 55850 0 std::__ndk1::__function::__func<hook62<(anonymous namespace)::hook62Parent>::init(LevelEditorLayer*)::{lambda()#1}::operator()() const::{lambda()#45}, std::__ndk1::allocator<hook62<(anonymous namespace)::hook62Parent>::init(LevelEditorLayer*)::{lambda()#1}::operator()() const::{lambda()#45}>, void ()>::target_type() const
PUBLIC 5585c 0 std::__ndk1::__function::__func<hook62<(anonymous namespace)::hook62Parent>::init(LevelEditorLayer*)::{lambda()#1}::operator()() const::{lambda(bool)#8}, std::__ndk1::allocator<hook62<(anonymous namespace)::hook62Parent>::init(LevelEditorLayer*)::{lambda()#1}::operator()() const::{lambda(bool)#8}>, void (bool)>::~__func()
PUBLIC 55860 0 std::__ndk1::__function::__func<hook62<(anonymous namespace)::hook62Parent>::init(LevelEditorLayer*)::{lambda()#1}::operator()() const::{lambda(bool)#8}, std::__ndk1::allocator<hook62<(anonymous namespace)::hook62Parent>::init(LevelEditorLayer*)::{lambda()#1}::operator()() const::{lambda(bool)#8}>, void (bool)>::__clone() const
PUBLIC 55898 0 std::__ndk1::__function::__func<hook62<(anonymous namespace)::hook62Parent>::init(LevelEditorLayer*)::{lambda()#1}::operator()() const::{lambda(bool)#8}, std::__ndk1::allocator<hook62<(anonymous namespace)::hook62Parent>::init(LevelEditorLayer*)::{lambda()#1}::operator()() const::{lambda(bool)#8}>, void (bool)>::__clone(std::__ndk1::__function::__base<void (bool)>*) const
PUBLIC 558b0 0 std::__ndk1::__function::__func<hook62<(anonymous namespace)::hook62Parent>::init(LevelEditorLayer*)::{lambda()#1}::operator()() const::{lambda(bool)#8}, std::__ndk1::allocator<hook62<(anonymous namespace)::hook62Parent>::init(LevelEditorLayer*)::{lambda()#1}::operator()() const::{lambda(bool)#8}>, void (bool)>::destroy()
PUBLIC 558b4 0 std::__ndk1::__function::__func<hook62<(anonymous namespace)::hook62Parent>::init(LevelEditorLayer*)::{lambda()#1}::operator()() const::{lambda(bool)#8}, std::__ndk1::allocator<hook62<(anonymous namespace)::hook62Parent>::init(LevelEditorLayer*)::{lambda()#1}::operator()() const::{lambda(bool)#8}>, void (bool)>::destroy_deallocate()
PUBLIC 558b8 0 std::__ndk1::__function::__func<hook62<(anonymous namespace)::hook62Parent>::init(LevelEditorLayer*)::{lambda()#1}::operator()() const::{lambda(bool)#8}, std::__ndk1::allocator<hook62<(anonymous namespace)::hook62Parent>::init(LevelEditorLayer*)::{lambda()#1}::operator()() const::{lambda(bool)#8}>, void (bool)>::operator()(bool&&)
PUBLIC 55900 0 std::__ndk1::__function::__func<hook62<(anonymous namespace)::hook62Parent>::init(LevelEditorLayer*)::{lambda()#1}::operator()() const::{lambda(bool)#8}, std::__ndk1::allocator<hook62<(anonymous namespace)::hook62Parent>::init(LevelEditorLayer*)::{lambda()#1}::operator()() const::{lambda(bool)#8}>, void (bool)>::target(std::type_info const&) const
PUBLIC 5591c 0 std::__ndk1::__function::__func<hook62<(anonymous namespace)::hook62Parent>::init(LevelEditorLayer*)::{lambda()#1}::operator()() const::{lambda(bool)#8}, std::__ndk1::allocator<hook62<(anonymous namespace)::hook62Parent>::init(LevelEditorLayer*)::{lambda()#1}::operator()() const::{lambda(bool)#8}>, void (bool)>::target_type() const
PUBLIC 55928 0 geode::addresser::Addresser::addressOfVirtual<void, EditorUI, cocos2d::enumKeyCodes>(void (EditorUI::*)(cocos2d::enumKeyCodes))
PUBLIC 55a80 0 geode::Ref<keybinds::Bind>::~Ref()
PUBLIC 55aa0 0 keybinds::BindableAction::~BindableAction()
PUBLIC 55b64 0 std::__ndk1::vector<geode::Ref<keybinds::Bind>, std::__ndk1::allocator<geode::Ref<keybinds::Bind> > >::~vector[abi:v170000]()
PUBLIC 55be8 0 std::__ndk1::__exception_guard<std::__ndk1::vector<geode::Ref<keybinds::Bind>, std::__ndk1::allocator<geode::Ref<keybinds::Bind> > >::__destroy_vector>::~__exception_guard[abi:v170000]()
PUBLIC 55c7c 0 std::__ndk1::__exception_guard<std::__ndk1::_AllocatorDestroyRangeReverse<std::__ndk1::allocator<geode::Ref<keybinds::Bind> >, geode::Ref<keybinds::Bind>*> >::~__exception_guard[abi:v170000]()
PUBLIC 55cc4 0 keybinds::Keybind::create(cocos2d::enumKeyCodes, keybinds::Modifier)
PUBLIC 55d7c 0 keybinds::Keybind::parse(matjson::Value const&)
PUBLIC 55e68 0 keybinds::Keybind::save() const
PUBLIC 55ffc 0 keybinds::Keybind::getHash() const
PUBLIC 5600c 0 keybinds::Keybind::isEqual(keybinds::Bind*) const
PUBLIC 56088 0 keybinds::Keybind::toString() const
PUBLIC 56288 0 keybinds::Keybind::getDeviceID() const
PUBLIC 562d8 0 keybinds::Keybind::~Keybind()
PUBLIC 562fc 0 keybinds::operator|=(keybinds::Modifier&, keybinds::Modifier const&)
PUBLIC 56314 0 keybinds::operator|(keybinds::Modifier const&, keybinds::Modifier const&)
PUBLIC 56324 0 keybinds::operator&(keybinds::Modifier const&, keybinds::Modifier const&)
PUBLIC 56338 0 keybinds::keyToString(cocos2d::enumKeyCodes)
PUBLIC 565e4 0 keybinds::keyIsModifier(cocos2d::enumKeyCodes)
PUBLIC 5661c 0 keybinds::keyIsController(cocos2d::enumKeyCodes)
PUBLIC 5662c 0 keybinds::mouseToString(keybinds::MouseButton)
PUBLIC 566a8 0 keybinds::Bind::createLabel() const
PUBLIC 56760 0 keybinds::Bind::createBindSprite() const
PUBLIC m 56904 0 keybinds::Category::Category(char const*)
PUBLIC 5698c 0 keybinds::Category::getPath() const
PUBLIC 56a1c 0 keybinds::Category::getParent() const
PUBLIC 56c2c 0 keybinds::Category::toString() const
PUBLIC 56cc8 0 keybinds::BindableAction::getID() const
PUBLIC 56d64 0 keybinds::BindableAction::getName() const
PUBLIC 56e28 0 keybinds::BindableAction::getDescription() const
PUBLIC 56ec8 0 keybinds::BindableAction::getMod() const
PUBLIC 56ed0 0 std::__ndk1::vector<geode::Ref<keybinds::Bind>, std::__ndk1::allocator<geode::Ref<keybinds::Bind> > >::vector(std::__ndk1::vector<geode::Ref<keybinds::Bind>, std::__ndk1::allocator<geode::Ref<keybinds::Bind> > > const&)
PUBLIC 57018 0 keybinds::BindableAction::getCategory() const
PUBLIC m 570b8 0 keybinds::BindableAction::BindableAction(std::__ndk1::basic_string<char, std::__ndk1::char_traits<char>, std::__ndk1::allocator<char> > const&, std::__ndk1::basic_string<char, std::__ndk1::char_traits<char>, std::__ndk1::allocator<char> > const&, std::__ndk1::basic_string<char, std::__ndk1::char_traits<char>, std::__ndk1::allocator<char> > const&, std::__ndk1::vector<geode::Ref<keybinds::Bind>, std::__ndk1::allocator<geode::Ref<keybinds::Bind> > > const&, keybinds::Category const&, bool, geode::Mod*)
PUBLIC 57380 0 keybinds::InvokeBindEvent::isDown() const
PUBLIC 57388 0 keybinds::InvokeBindFilter::handle(geode::utils::MiniFunction<geode::ListenerResult(keybinds::InvokeBindEvent*)>, keybinds::InvokeBindEvent*)
PUBLIC m 5762c 0 keybinds::InvokeBindFilter::InvokeBindFilter(cocos2d::CCNode*, std::__ndk1::basic_string<char, std::__ndk1::char_traits<char>, std::__ndk1::allocator<char> > const&)
PUBLIC 577d0 0 keybinds::BindManager::get()
PUBLIC 5786c 0 keybinds::BindManager::stopAllRepeats()
PUBLIC m 57904 0 keybinds::PressBindEvent::PressBindEvent(keybinds::Bind*, bool)
PUBLIC 5791c 0 keybinds::PressBindEvent::getBind() const
PUBLIC 57924 0 keybinds::PressBindEvent::isDown() const
PUBLIC m 5792c 0 keybinds::PressBindFilter::PressBindFilter()
PUBLIC 57934 0 keybinds::DeviceFilter::handle(geode::utils::MiniFunction<void (keybinds::DeviceEvent*)>, keybinds::DeviceEvent*)
PUBLIC m 57ba0 0 keybinds::DeviceFilter::DeviceFilter(std::__ndk1::optional<std::__ndk1::basic_string<char, std::__ndk1::char_traits<char>, std::__ndk1::allocator<char> > >)
PUBLIC m 57ba8 0 keybinds::BindManager::BindManager()
PUBLIC 57fc0 0 keybinds::BindManager::onDispatch(keybinds::PressBindEvent*)
PUBLIC 583c4 0 geode::EventListener<keybinds::PressBindFilter>::EventListener<keybinds::BindManager>(geode::to_member<keybinds::BindManager, geode::ListenerResult(keybinds::PressBindEvent*)>::value, keybinds::PressBindFilter)
PUBLIC 584dc 0 keybinds::BindManager::addCategory(keybinds::Category const&)
PUBLIC 58794 0 keybinds::BindManager::attachDevice(std::__ndk1::basic_string<char, std::__ndk1::char_traits<char>, std::__ndk1::allocator<char> > const&, std::__ndk1::function<keybinds::Bind* (matjson::Value const&)>)
PUBLIC 58aa4 0 std::__ndk1::unordered_map<std::__ndk1::basic_string<char, std::__ndk1::char_traits<char>, std::__ndk1::allocator<char> >, float, std::__ndk1::hash<std::__ndk1::basic_string<char, std::__ndk1::char_traits<char>, std::__ndk1::allocator<char> > >, std::__ndk1::equal_to<std::__ndk1::basic_string<char, std::__ndk1::char_traits<char>, std::__ndk1::allocator<char> > >, std::__ndk1::allocator<std::__ndk1::pair<std::__ndk1::basic_string<char, std::__ndk1::char_traits<char>, std::__ndk1::allocator<char> > const, float> > >::~unordered_map[abi:v170000]()
PUBLIC 58b14 0 geode::EventListener<keybinds::PressBindFilter>::~EventListener()
PUBLIC 58b54 0 std::__ndk1::vector<keybinds::Category, std::__ndk1::allocator<keybinds::Category> >::~vector[abi:v170000]()
PUBLIC 58bd0 0 std::__ndk1::vector<std::__ndk1::pair<std::__ndk1::basic_string<char, std::__ndk1::char_traits<char>, std::__ndk1::allocator<char> >, keybinds::BindManager::ActionData>, std::__ndk1::allocator<std::__ndk1::pair<std::__ndk1::basic_string<char, std::__ndk1::char_traits<char>, std::__ndk1::allocator<char> >, keybinds::BindManager::ActionData> > >::~vector[abi:v170000]()
PUBLIC 58c54 0 std::__ndk1::unordered_map<std::__ndk1::basic_string<char, std::__ndk1::char_traits<char>, std::__ndk1::allocator<char> >, std::__ndk1::function<keybinds::Bind* (matjson::Value const&)>, std::__ndk1::hash<std::__ndk1::basic_string<char, std::__ndk1::char_traits<char>, std::__ndk1::allocator<char> > >, std::__ndk1::equal_to<std::__ndk1::basic_string<char, std::__ndk1::char_traits<char>, std::__ndk1::allocator<char> > >, std::__ndk1::allocator<std::__ndk1::pair<std::__ndk1::basic_string<char, std::__ndk1::char_traits<char>, std::__ndk1::allocator<char> > const, std::__ndk1::function<keybinds::Bind* (matjson::Value const&)> > > >::~unordered_map[abi:v170000]()
PUBLIC 58cf8 0 std::__ndk1::unordered_map<std::__ndk1::basic_string<char, std::__ndk1::char_traits<char>, std::__ndk1::allocator<char> >, std::__ndk1::unordered_map<std::__ndk1::basic_string<char, std::__ndk1::char_traits<char>, std::__ndk1::allocator<char> >, std::__ndk1::set<matjson::Value, std::__ndk1::less<matjson::Value>, std::__ndk1::allocator<matjson::Value> >, std::__ndk1::hash<std::__ndk1::basic_string<char, std::__ndk1::char_traits<char>, std::__ndk1::allocator<char> > >, std::__ndk1::equal_to<std::__ndk1::basic_string<char, std::__ndk1::char_traits<char>, std::__ndk1::allocator<char> > >, std::__ndk1::allocator<std::__ndk1::pair<std::__ndk1::basic_string<char, std::__ndk1::char_traits<char>, std::__ndk1::allocator<char> > const, std::__ndk1::set<matjson::Value, std::__ndk1::less<matjson::Value>, std::__ndk1::allocator<matjson::Value> > > > >, std::__ndk1::hash<std::__ndk1::basic_string<char, std::__ndk1::char_traits<char>, std::__ndk1::allocator<char> > >, std::__ndk1::equal_to<std::__ndk1::basic_string<char, std::__ndk1::char_traits<char>, std::__ndk1::allocator<char> > >, std::__ndk1::allocator<std::__ndk1::pair<std::__ndk1::basic_string<char, std::__ndk1::char_traits<char>, std::__ndk1::allocator<char> > const, std::__ndk1::unordered_map<std::__ndk1::basic_string<char, std::__ndk1::char_traits<char>, std::__ndk1::allocator<char> >, std::__ndk1::set<matjson::Value, std::__ndk1::less<matjson::Value>, std::__ndk1::allocator<matjson::Value> >, std::__ndk1::hash<std::__ndk1::basic_string<char, std::__ndk1::char_traits<char>, std::__ndk1::allocator<char> > >, std::__ndk1::equal_to<std::__ndk1::basic_string<char, std::__ndk1::char_traits<char>, std::__ndk1::allocator<char> > >, std::__ndk1::allocator<std::__ndk1::pair<std::__ndk1::basic_string<char, std::__ndk1::char_traits<char>, std::__ndk1::allocator<char> > const, std::__ndk1::set<matjson::Value, std::__ndk1::less<matjson::Value>, std::__ndk1::allocator<matjson::Value> > > > > > > >::~unordered_map[abi:v170000]()
PUBLIC 58d5c 0 std::__ndk1::unordered_map<keybinds::BindHash, std::__ndk1::vector<std::__ndk1::basic_string<char, std::__ndk1::char_traits<char>, std::__ndk1::allocator<char> >, std::__ndk1::allocator<std::__ndk1::basic_string<char, std::__ndk1::char_traits<char>, std::__ndk1::allocator<char> > > >, std::__ndk1::hash<keybinds::BindHash>, std::__ndk1::equal_to<keybinds::BindHash>, std::__ndk1::allocator<std::__ndk1::pair<keybinds::BindHash const, std::__ndk1::vector<std::__ndk1::basic_string<char, std::__ndk1::char_traits<char>, std::__ndk1::allocator<char> >, std::__ndk1::allocator<std::__ndk1::basic_string<char, std::__ndk1::char_traits<char>, std::__ndk1::allocator<char> > > > > > >::~unordered_map[abi:v170000]()
PUBLIC 58d98 0 std::__ndk1::pair<std::__ndk1::basic_string<char, std::__ndk1::char_traits<char>, std::__ndk1::allocator<char> > const, std::__ndk1::function<keybinds::Bind* (matjson::Value const&)> >::pair[abi:v170000]<std::__ndk1::basic_string<char, std::__ndk1::char_traits<char>, std::__ndk1::allocator<char> > const&, std::__ndk1::function<keybinds::Bind* (matjson::Value const&)>&, (void*)0>(std::__ndk1::function<keybinds::Bind* (matjson::Value const&)>&)
PUBLIC 58ea8 0 std::__ndk1::pair<std::__ndk1::basic_string<char, std::__ndk1::char_traits<char>, std::__ndk1::allocator<char> > const, std::__ndk1::function<keybinds::Bind* (matjson::Value const&)> >::~pair()
PUBLIC 58f10 0 keybinds::BindManager::addBindTo(std::__ndk1::basic_string<char, std::__ndk1::char_traits<char>, std::__ndk1::allocator<char> > const&, keybinds::Bind*)
PUBLIC 59228 0 keybinds::DeviceEvent::~DeviceEvent()
PUBLIC 59264 0 keybinds::BindManager::detachDevice(std::__ndk1::basic_string<char, std::__ndk1::char_traits<char>, std::__ndk1::allocator<char> > const&)
PUBLIC 598d4 0 keybinds::BindManager::saveBind(keybinds::Bind*) const
PUBLIC 59a14 0 keybinds::BindManager::removeBindFrom(std::__ndk1::basic_string<char, std::__ndk1::char_traits<char>, std::__ndk1::allocator<char> > const&, keybinds::Bind*)
PUBLIC 59c18 0 keybinds::BindManager::loadBind(matjson::Value const&) const
PUBLIC 59d54 0 keybinds::BindManager::loadActionBinds(std::__ndk1::basic_string<char, std::__ndk1::char_traits<char>, std::__ndk1::allocator<char> > const&)
PUBLIC 5a054 0 geode::Mod::getSavedValue<matjson::Object>(std::__ndk1::basic_string_view<char, std::__ndk1::char_traits<char> >)
PUBLIC 5a17c 0 keybinds::BindManager::setRepeatOptionsFor(std::__ndk1::basic_string<char, std::__ndk1::char_traits<char>, std::__ndk1::allocator<char> > const&, keybinds::RepeatOptions const&)
PUBLIC 5a2e0 0 keybinds::BindManager::saveActionBinds(std::__ndk1::basic_string<char, std::__ndk1::char_traits<char>, std::__ndk1::allocator<char> > const&)
PUBLIC 5a88c 0 keybinds::BindManager::getBindsFor(std::__ndk1::basic_string<char, std::__ndk1::char_traits<char>, std::__ndk1::allocator<char> > const&) const
PUBLIC 5a9f4 0 std::__ndk1::vector<matjson::Value, std::__ndk1::allocator<matjson::Value> >::vector(std::__ndk1::vector<matjson::Value, std::__ndk1::allocator<matjson::Value> > const&)
PUBLIC 5ab1c 0 std::__ndk1::vector<matjson::Value, std::__ndk1::allocator<matjson::Value> >::~vector[abi:v170000]()
PUBLIC 5ab84 0 keybinds::BindManager::getRepeatOptionsFor(std::__ndk1::basic_string<char, std::__ndk1::char_traits<char>, std::__ndk1::allocator<char> > const&)
PUBLIC 5ac90 0 geode::Mod::setSavedValue<matjson::Object>(std::__ndk1::basic_string_view<char, std::__ndk1::char_traits<char> >, matjson::Object const&)
PUBLIC 5ad9c 0 keybinds::BindManager::registerBindable(keybinds::BindableAction const&, std::__ndk1::basic_string<char, std::__ndk1::char_traits<char>, std::__ndk1::allocator<char> > const&)
PUBLIC 5ba18 0 std::__ndk1::vector<std::__ndk1::pair<std::__ndk1::basic_string<char, std::__ndk1::char_traits<char>, std::__ndk1::allocator<char> >, keybinds::BindManager::ActionData>, std::__ndk1::allocator<std::__ndk1::pair<std::__ndk1::basic_string<char, std::__ndk1::char_traits<char>, std::__ndk1::allocator<char> >, keybinds::BindManager::ActionData> > >::insert(std::__ndk1::__wrap_iter<std::__ndk1::pair<std::__ndk1::basic_string<char, std::__ndk1::char_traits<char>, std::__ndk1::allocator<char> >, keybinds::BindManager::ActionData> const*>, std::__ndk1::pair<std::__ndk1::basic_string<char, std::__ndk1::char_traits<char>, std::__ndk1::allocator<char> >, keybinds::BindManager::ActionData>&&)
PUBLIC 5bd2c 0 keybinds::BindableAction::BindableAction(keybinds::BindableAction const&)
PUBLIC 5bff0 0 std::__ndk1::pair<std::__ndk1::basic_string<char, std::__ndk1::char_traits<char>, std::__ndk1::allocator<char> >, keybinds::BindManager::ActionData>::~pair()
PUBLIC 5c02c 0 keybinds::BindManager::removeAllBindsFrom(std::__ndk1::basic_string<char, std::__ndk1::char_traits<char>, std::__ndk1::allocator<char> > const&)
PUBLIC 5c0e8 0 keybinds::BindManager::getAllBindables() const
PUBLIC 5c184 0 std::__ndk1::vector<keybinds::BindableAction, std::__ndk1::allocator<keybinds::BindableAction> >::~vector[abi:v170000]()
PUBLIC 5c1ec 0 keybinds::BindManager::getBindablesIn(keybinds::Category const&, bool) const
PUBLIC 5c598 0 keybinds::BindManager::getBindablesFor(keybinds::Bind*) const
PUBLIC 5c90c 0 keybinds::BindHash::~BindHash()
PUBLIC 5c92c 0 keybinds::BindManager::getAllCategories() const
PUBLIC 5ca34 0 std::__ndk1::vector<keybinds::Category, std::__ndk1::allocator<keybinds::Category> >::insert(std::__ndk1::__wrap_iter<keybinds::Category const*>, keybinds::Category const&)
PUBLIC 5ce44 0 geode::utils::ranges::remove<std::__ndk1::vector<std::__ndk1::basic_string<char, std::__ndk1::char_traits<char>, std::__ndk1::allocator<char> >, std::__ndk1::allocator<std::__ndk1::basic_string<char, std::__ndk1::char_traits<char>, std::__ndk1::allocator<char> > > > >(std::__ndk1::vector<std::__ndk1::basic_string<char, std::__ndk1::char_traits<char>, std::__ndk1::allocator<char> >, std::__ndk1::allocator<std::__ndk1::basic_string<char, std::__ndk1::char_traits<char>, std::__ndk1::allocator<char> > > >&, std::__ndk1::vector<std::__ndk1::basic_string<char, std::__ndk1::char_traits<char>, std::__ndk1::allocator<char> >, std::__ndk1::allocator<std::__ndk1::basic_string<char, std::__ndk1::char_traits<char>, std::__ndk1::allocator<char> > > > const::value_type&)
PUBLIC 5cf28 0 keybinds::BindManager::resetBindsToDefault(std::__ndk1::basic_string<char, std::__ndk1::char_traits<char>, std::__ndk1::allocator<char> > const&)
PUBLIC 5d300 0 keybinds::BindManager::hasDefaultBinds(std::__ndk1::basic_string<char, std::__ndk1::char_traits<char>, std::__ndk1::allocator<char> > const&) const
PUBLIC 5d890 0 keybinds::BindManager::isActionBindHeld(std::__ndk1::basic_string<char, std::__ndk1::char_traits<char>, std::__ndk1::allocator<char> > const&, keybinds::Bind*)
PUBLIC 5d9d0 0 keybinds::BindManager::repeat(std::__ndk1::basic_string<char, std::__ndk1::char_traits<char>, std::__ndk1::allocator<char> > const&)
PUBLIC 5dc20 0 keybinds::BindManager::unrepeat(std::__ndk1::basic_string<char, std::__ndk1::char_traits<char>, std::__ndk1::allocator<char> > const&)
PUBLIC 5dd80 0 keybinds::BindManager::markActionBindHeld(std::__ndk1::basic_string<char, std::__ndk1::char_traits<char>, std::__ndk1::allocator<char> > const&, keybinds::Bind*)
PUBLIC 5e304 0 keybinds::BindManager::unmarkActionBindHeld(std::__ndk1::basic_string<char, std::__ndk1::char_traits<char>, std::__ndk1::allocator<char> > const&, keybinds::Bind*)
PUBLIC 5e714 0 keybinds::InvokeBindEvent::~InvokeBindEvent()
PUBLIC 5e750 0 std::__ndk1::pair<std::__ndk1::basic_string<char, std::__ndk1::char_traits<char>, std::__ndk1::allocator<char> >, std::__ndk1::unordered_set<unsigned long, std::__ndk1::hash<unsigned long>, std::__ndk1::equal_to<unsigned long>, std::__ndk1::allocator<unsigned long> > >::~pair()
PUBLIC 5e7ac 0 std::__ndk1::unordered_set<unsigned long, std::__ndk1::hash<unsigned long>, std::__ndk1::equal_to<unsigned long>, std::__ndk1::allocator<unsigned long> >::~unordered_set[abi:v170000]()
PUBLIC 5e7f8 0 keybinds::BindManager::onRepeat(float)
PUBLIC 5eaa8 0 keybinds::BindManager::save()
PUBLIC 5ed7c 0 geodeExecFunction734<(anonymous namespace)::ExecFuncUnique734>(geode::ModStateEvent*)
PUBLIC 5ee08 0 keybinds::InvokeBindEvent::~InvokeBindEvent()
PUBLIC 5ee4c 0 keybinds::PressBindEvent::~PressBindEvent()
PUBLIC 5ee70 0 keybinds::DeviceEvent::~DeviceEvent()
PUBLIC 5eeb4 0 keybinds::BindManager::~BindManager()
PUBLIC 5f0c0 0 keybinds::BindManager::~BindManager()
PUBLIC 5f0e4 0 std::__ndk1::__throw_out_of_range[abi:v170000](char const*)
PUBLIC 5f134 0 std::out_of_range::out_of_range[abi:v170000](char const*)
PUBLIC 5f164 0 std::__ndk1::vector<geode::Ref<keybinds::Bind>, std::__ndk1::allocator<geode::Ref<keybinds::Bind> > >::__throw_length_error[abi:v170000]() const
PUBLIC 5f178 0 std::__ndk1::__optional_copy_base<std::__ndk1::basic_string<char, std::__ndk1::char_traits<char>, std::__ndk1::allocator<char> >, false>::__optional_copy_base[abi:v170000](std::__ndk1::__optional_copy_base<std::__ndk1::basic_string<char, std::__ndk1::char_traits<char>, std::__ndk1::allocator<char> >, false> const&)
PUBLIC 5f248 0 geode::EventListener<keybinds::PressBindFilter>::getPool() const
PUBLIC 5f24c 0 geode::EventListener<keybinds::PressBindFilter>::handle(geode::Event*)
PUBLIC 5f3c4 0 geode::EventListener<keybinds::PressBindFilter>::~EventListener()
PUBLIC 5f40c 0 std::__ndk1::vector<matjson::Value, std::__ndk1::allocator<matjson::Value> >::__push_back_slow_path<matjson::Value>(matjson::Value&&)
PUBLIC 5f630 0 std::__ndk1::__split_buffer<matjson::Value, std::__ndk1::allocator<matjson::Value>&>::~__split_buffer()
PUBLIC 5f684 0 std::__ndk1::vector<matjson::Value, std::__ndk1::allocator<matjson::Value> >::__throw_length_error[abi:v170000]() const
PUBLIC 5f698 0 std::__ndk1::vector<matjson::Value, std::__ndk1::allocator<matjson::Value> >::__push_back_slow_path<matjson::Value const&>(matjson::Value const&)
PUBLIC 5f8bc 0 std::__ndk1::__exception_guard<std::__ndk1::vector<matjson::Value, std::__ndk1::allocator<matjson::Value> >::__destroy_vector>::~__exception_guard[abi:v170000]()
PUBLIC 5f934 0 std::__ndk1::vector<std::__ndk1::pair<std::__ndk1::basic_string<char, std::__ndk1::char_traits<char>, std::__ndk1::allocator<char> >, keybinds::BindManager::ActionData>, std::__ndk1::allocator<std::__ndk1::pair<std::__ndk1::basic_string<char, std::__ndk1::char_traits<char>, std::__ndk1::allocator<char> >, keybinds::BindManager::ActionData> > >::__move_range(std::__ndk1::pair<std::__ndk1::basic_string<char, std::__ndk1::char_traits<char>, std::__ndk1::allocator<char> >, keybinds::BindManager::ActionData>*, std::__ndk1::pair<std::__ndk1::basic_string<char, std::__ndk1::char_traits<char>, std::__ndk1::allocator<char> >, keybinds::BindManager::ActionData>*, std::__ndk1::pair<std::__ndk1::basic_string<char, std::__ndk1::char_traits<char>, std::__ndk1::allocator<char> >, keybinds::BindManager::ActionData>*)
PUBLIC 5faf0 0 std::__ndk1::__split_buffer<std::__ndk1::pair<std::__ndk1::basic_string<char, std::__ndk1::char_traits<char>, std::__ndk1::allocator<char> >, keybinds::BindManager::ActionData>, std::__ndk1::allocator<std::__ndk1::pair<std::__ndk1::basic_string<char, std::__ndk1::char_traits<char>, std::__ndk1::allocator<char> >, keybinds::BindManager::ActionData> >&>::push_back(std::__ndk1::pair<std::__ndk1::basic_string<char, std::__ndk1::char_traits<char>, std::__ndk1::allocator<char> >, keybinds::BindManager::ActionData>&&)
PUBLIC 5fe60 0 std::__ndk1::vector<std::__ndk1::pair<std::__ndk1::basic_string<char, std::__ndk1::char_traits<char>, std::__ndk1::allocator<char> >, keybinds::BindManager::ActionData>, std::__ndk1::allocator<std::__ndk1::pair<std::__ndk1::basic_string<char, std::__ndk1::char_traits<char>, std::__ndk1::allocator<char> >, keybinds::BindManager::ActionData> > >::__swap_out_circular_buffer(std::__ndk1::__split_buffer<std::__ndk1::pair<std::__ndk1::basic_string<char, std::__ndk1::char_traits<char>, std::__ndk1::allocator<char> >, keybinds::BindManager::ActionData>, std::__ndk1::allocator<std::__ndk1::pair<std::__ndk1::basic_string<char, std::__ndk1::char_traits<char>, std::__ndk1::allocator<char> >, keybinds::BindManager::ActionData> >&>&, std::__ndk1::pair<std::__ndk1::basic_string<char, std::__ndk1::char_traits<char>, std::__ndk1::allocator<char> >, keybinds::BindManager::ActionData>*)
PUBLIC 60064 0 std::__ndk1::__split_buffer<std::__ndk1::pair<std::__ndk1::basic_string<char, std::__ndk1::char_traits<char>, std::__ndk1::allocator<char> >, keybinds::BindManager::ActionData>, std::__ndk1::allocator<std::__ndk1::pair<std::__ndk1::basic_string<char, std::__ndk1::char_traits<char>, std::__ndk1::allocator<char> >, keybinds::BindManager::ActionData> >&>::~__split_buffer()
PUBLIC 600d8 0 keybinds::BindableAction::operator=(keybinds::BindableAction&&)
PUBLIC 6022c 0 std::__ndk1::vector<std::__ndk1::pair<std::__ndk1::basic_string<char, std::__ndk1::char_traits<char>, std::__ndk1::allocator<char> >, keybinds::BindManager::ActionData>, std::__ndk1::allocator<std::__ndk1::pair<std::__ndk1::basic_string<char, std::__ndk1::char_traits<char>, std::__ndk1::allocator<char> >, keybinds::BindManager::ActionData> > >::__throw_length_error[abi:v170000]() const
PUBLIC 60240 0 std::__ndk1::vector<std::__ndk1::pair<std::__ndk1::basic_string<char, std::__ndk1::char_traits<char>, std::__ndk1::allocator<char> >, keybinds::BindManager::ActionData>, std::__ndk1::allocator<std::__ndk1::pair<std::__ndk1::basic_string<char, std::__ndk1::char_traits<char>, std::__ndk1::allocator<char> >, keybinds::BindManager::ActionData> > >::__push_back_slow_path<std::__ndk1::pair<std::__ndk1::basic_string<char, std::__ndk1::char_traits<char>, std::__ndk1::allocator<char> >, keybinds::BindManager::ActionData> >(std::__ndk1::pair<std::__ndk1::basic_string<char, std::__ndk1::char_traits<char>, std::__ndk1::allocator<char> >, keybinds::BindManager::ActionData>&&)
PUBLIC 60500 0 std::__ndk1::vector<keybinds::BindableAction, std::__ndk1::allocator<keybinds::BindableAction> >::__push_back_slow_path<keybinds::BindableAction const&>(keybinds::BindableAction const&)
PUBLIC 60780 0 std::__ndk1::__split_buffer<keybinds::BindableAction, std::__ndk1::allocator<keybinds::BindableAction>&>::~__split_buffer()
PUBLIC 607d4 0 std::__ndk1::vector<keybinds::BindableAction, std::__ndk1::allocator<keybinds::BindableAction> >::__throw_length_error[abi:v170000]() const
PUBLIC 607e8 0 std::__ndk1::vector<keybinds::Category, std::__ndk1::allocator<keybinds::Category> >::__throw_length_error[abi:v170000]() const
PUBLIC 607fc 0 std::__ndk1::__uninitialized_allocator_copy[abi:v170000]<std::__ndk1::allocator<keybinds::Category>, keybinds*, std::__ndk1::allocator<keybinds::Category>, std::__ndk1::allocator<keybinds::Category> >(std::__ndk1::allocator<keybinds::Category>&, keybinds*, std::__ndk1::allocator<keybinds::Category>, keybinds*)
PUBLIC 60954 0 std::__ndk1::__exception_guard<std::__ndk1::_AllocatorDestroyRangeReverse<std::__ndk1::allocator<keybinds::Category>, keybinds::Category*> >::~__exception_guard[abi:v170000]()
PUBLIC 609b0 0 std::__ndk1::__split_buffer<keybinds::Category, std::__ndk1::allocator<keybinds::Category>&>::push_back[abi:v170000](keybinds::Category const&)
PUBLIC 60c28 0 std::__ndk1::__split_buffer<keybinds::Category, std::__ndk1::allocator<keybinds::Category>&>::~__split_buffer()
PUBLIC 60c90 0 std::__ndk1::vector<geode::Ref<keybinds::Bind>, std::__ndk1::allocator<geode::Ref<keybinds::Bind> > >::__push_back_slow_path<geode::Ref<keybinds::Bind> const&>(geode::Ref<keybinds::Bind> const&)
PUBLIC 60f00 0 std::__ndk1::__split_buffer<geode::Ref<keybinds::Bind>, std::__ndk1::allocator<geode::Ref<keybinds::Bind> >&>::~__split_buffer()
PUBLIC 60f58 0 std::__ndk1::vector<geode::Ref<keybinds::Bind>, std::__ndk1::allocator<geode::Ref<keybinds::Bind> > >::__throw_out_of_range[abi:v170000]() const
PUBLIC 60f6c 0 std::__ndk1::unordered_set<unsigned long, std::__ndk1::hash<unsigned long>, std::__ndk1::equal_to<unsigned long>, std::__ndk1::allocator<unsigned long> >::unordered_set(std::__ndk1::unordered_set<unsigned long, std::__ndk1::hash<unsigned long>, std::__ndk1::equal_to<unsigned long>, std::__ndk1::allocator<unsigned long> > const&)
PUBLIC 61098 0 std::__ndk1::__hash_table<unsigned long, std::__ndk1::hash<unsigned long>, std::__ndk1::equal_to<unsigned long>, std::__ndk1::allocator<unsigned long> >::~__hash_table()
PUBLIC 610e4 0 std::__ndk1::__hash_table<unsigned long, std::__ndk1::hash<unsigned long>, std::__ndk1::equal_to<unsigned long>, std::__ndk1::allocator<unsigned long> >::__do_rehash<true>(unsigned long)
PUBLIC 612bc 0 std::__ndk1::__hash_table<unsigned long, std::__ndk1::hash<unsigned long>, std::__ndk1::equal_to<unsigned long>, std::__ndk1::allocator<unsigned long> >::__emplace_unique_key_args<unsigned long, unsigned long const&>(unsigned long const&, unsigned long const&)
PUBLIC 615d8 0 std::__ndk1::__murmur2_or_cityhash<unsigned long, (unsigned long)64>::operator()(void const*, unsigned long)
PUBLIC 61a90 0 geode::utils::terminate<void>(std::__ndk1::basic_string<char, std::__ndk1::char_traits<char>, std::__ndk1::allocator<char> > const&, geode::Mod*, unsigned long)
PUBLIC 61ab0 0 geode::utils::MiniFunctionStateBase<geode::ListenerResult, keybinds::PressBindEvent*>::~MiniFunctionStateBase()
PUBLIC 61ab4 0 geode::utils::MiniFunctionState<std::__ndk1::__bind<geode::ListenerResult (keybinds::BindManager&::*)(keybinds::PressBindEvent*), keybinds::BindManager*&, std::__ndk1::placeholders::__ph<1> const&>, geode::ListenerResult, keybinds::PressBindEvent*>::~MiniFunctionState()
PUBLIC 61ab8 0 geode::utils::MiniFunctionState<std::__ndk1::__bind<geode::ListenerResult (keybinds::BindManager&::*)(keybinds::PressBindEvent*), keybinds::BindManager*&, std::__ndk1::placeholders::__ph<1> const&>, geode::ListenerResult, keybinds::PressBindEvent*>::call(keybinds::PressBindEvent*) const
PUBLIC 61ad4 0 geode::utils::MiniFunctionState<std::__ndk1::__bind<geode::ListenerResult (keybinds::BindManager&::*)(keybinds::PressBindEvent*), keybinds::BindManager*&, std::__ndk1::placeholders::__ph<1> const&>, geode::ListenerResult, keybinds::PressBindEvent*>::clone() const
PUBLIC 61b14 0 std::__ndk1::__hash_table<std::__ndk1::__hash_value_type<keybinds::BindHash, std::__ndk1::vector<std::__ndk1::basic_string<char, std::__ndk1::char_traits<char>, std::__ndk1::allocator<char> >, std::__ndk1::allocator<std::__ndk1::basic_string<char, std::__ndk1::char_traits<char>, std::__ndk1::allocator<char> > > > >, std::__ndk1::__unordered_map_hasher<keybinds::BindHash, std::__ndk1::__hash_value_type<keybinds::BindHash, std::__ndk1::vector<std::__ndk1::basic_string<char, std::__ndk1::char_traits<char>, std::__ndk1::allocator<char> >, std::__ndk1::allocator<std::__ndk1::basic_string<char, std::__ndk1::char_traits<char>, std::__ndk1::allocator<char> > > > >, std::__ndk1::hash<keybinds::BindHash>, std::__ndk1::equal_to<keybinds::BindHash>, true>, std::__ndk1::__unordered_map_equal<keybinds::BindHash, std::__ndk1::__hash_value_type<keybinds::BindHash, std::__ndk1::vector<std::__ndk1::basic_string<char, std::__ndk1::char_traits<char>, std::__ndk1::allocator<char> >, std::__ndk1::allocator<std::__ndk1::basic_string<char, std::__ndk1::char_traits<char>, std::__ndk1::allocator<char> > > > >, std::__ndk1::equal_to<keybinds::BindHash>, std::__ndk1::hash<keybinds::BindHash>, true>, std::__ndk1::allocator<std::__ndk1::__hash_value_type<keybinds::BindHash, std::__ndk1::vector<std::__ndk1::basic_string<char, std::__ndk1::char_traits<char>, std::__ndk1::allocator<char> >, std::__ndk1::allocator<std::__ndk1::basic_string<char, std::__ndk1::char_traits<char>, std::__ndk1::allocator<char> > > > > > >::__deallocate_node(std::__ndk1::__hash_node_base<std::__ndk1::__hash_node<std::__ndk1::__hash_value_type<keybinds::BindHash, std::__ndk1::vector<std::__ndk1::basic_string<char, std::__ndk1::char_traits<char>, std::__ndk1::allocator<char> >, std::__ndk1::allocator<std::__ndk1::basic_string<char, std::__ndk1::char_traits<char>, std::__ndk1::allocator<char> > > > >, void*>*>*)
PUBLIC 61bb4 0 std::__ndk1::__destroy_at[abi:v170000]<std::__ndk1::pair<std::__ndk1::basic_string<char, std::__ndk1::char_traits<char>, std::__ndk1::allocator<char> > const, std::__ndk1::unordered_map<std::__ndk1::allocator<char>, std::__ndk1::set<matjson::Value, std::__ndk1::less<matjson>, std::__ndk1::char_traits<char><matjson> >, std::__ndk1::hash<std::__ndk1::allocator<char> >, std::__ndk1::equal_to<std::__ndk1::allocator<char> >, std::__ndk1::char_traits<char><std::__ndk1::__destroy_at[abi:v170000]<std::__ndk1::basic_string<char, std::__ndk1::char_traits<char>, std::__ndk1::allocator<char> >, std::__ndk1::char_traits<char><matjson> > > > >, 0>(std::__ndk1::pair<std::__ndk1::basic_string<char, std::__ndk1::char_traits<char>, std::__ndk1::allocator<char> > const, std::__ndk1::unordered_map<std::__ndk1::allocator<char>, std::__ndk1::set<matjson::Value, std::__ndk1::less<matjson>, std::__ndk1::char_traits<char><matjson> >, std::__ndk1::hash<std::__ndk1::allocator<char> >, std::__ndk1::equal_to<std::__ndk1::allocator<char> >, std::__ndk1::char_traits<char><std::__ndk1::__destroy_at[abi:v170000]<std::__ndk1::basic_string<char, std::__ndk1::char_traits<char>, std::__ndk1::allocator<char> >, std::__ndk1::char_traits<char><matjson> > > > >*)
PUBLIC 61c40 0 std::__ndk1::__tree<matjson::Value, std::__ndk1::less<matjson::Value>, std::__ndk1::allocator<matjson::Value> >::destroy(std::__ndk1::__tree_node<matjson::Value, void*>*)
PUBLIC 61c88 0 std::__ndk1::__hash_table<std::__ndk1::__hash_value_type<std::__ndk1::basic_string<char, std::__ndk1::char_traits<char>, std::__ndk1::allocator<char> >, std::__ndk1::unordered_set<unsigned long, std::__ndk1::hash<unsigned long>, std::__ndk1::equal_to<unsigned long>, std::__ndk1::allocator<unsigned long> > >, std::__ndk1::__unordered_map_hasher<std::__ndk1::basic_string<char, std::__ndk1::char_traits<char>, std::__ndk1::allocator<char> >, std::__ndk1::__hash_value_type<std::__ndk1::basic_string<char, std::__ndk1::char_traits<char>, std::__ndk1::allocator<char> >, std::__ndk1::unordered_set<unsigned long, std::__ndk1::hash<unsigned long>, std::__ndk1::equal_to<unsigned long>, std::__ndk1::allocator<unsigned long> > >, std::__ndk1::hash<std::__ndk1::basic_string<char, std::__ndk1::char_traits<char>, std::__ndk1::allocator<char> > >, std::__ndk1::equal_to<std::__ndk1::basic_string<char, std::__ndk1::char_traits<char>, std::__ndk1::allocator<char> > >, true>, std::__ndk1::__unordered_map_equal<std::__ndk1::basic_string<char, std::__ndk1::char_traits<char>, std::__ndk1::allocator<char> >, std::__ndk1::__hash_value_type<std::__ndk1::basic_string<char, std::__ndk1::char_traits<char>, std::__ndk1::allocator<char> >, std::__ndk1::unordered_set<unsigned long, std::__ndk1::hash<unsigned long>, std::__ndk1::equal_to<unsigned long>, std::__ndk1::allocator<unsigned long> > >, std::__ndk1::equal_to<std::__ndk1::basic_string<char, std::__ndk1::char_traits<char>, std::__ndk1::allocator<char> > >, std::__ndk1::hash<std::__ndk1::basic_string<char, std::__ndk1::char_traits<char>, std::__ndk1::allocator<char> > >, true>, std::__ndk1::allocator<std::__ndk1::__hash_value_type<std::__ndk1::basic_string<char, std::__ndk1::char_traits<char>, std::__ndk1::allocator<char> >, std::__ndk1::unordered_set<unsigned long, std::__ndk1::hash<unsigned long>, std::__ndk1::equal_to<unsigned long>, std::__ndk1::allocator<unsigned long> > > > >::~__hash_table()
PUBLIC 61d20 0 std::__ndk1::__function::__func<keybinds::Keybind* (*)(matjson::Value const&), std::__ndk1::allocator<keybinds::Keybind* (*)(matjson::Value const&)>, keybinds::Bind* (matjson::Value const&)>::~__func()
PUBLIC 61d24 0 std::__ndk1::__function::__func<keybinds::Keybind* (*)(matjson::Value const&), std::__ndk1::allocator<keybinds::Keybind* (*)(matjson::Value const&)>, keybinds::Bind* (matjson::Value const&)>::__clone() const
PUBLIC 61d58 0 std::__ndk1::__function::__func<keybinds::Keybind* (*)(matjson::Value const&), std::__ndk1::allocator<keybinds::Keybind* (*)(matjson::Value const&)>, keybinds::Bind* (matjson::Value const&)>::__clone(std::__ndk1::__function::__base<keybinds::Bind* (matjson::Value const&)>*) const
PUBLIC 61d6c 0 std::__ndk1::__function::__func<keybinds::Keybind* (*)(matjson::Value const&), std::__ndk1::allocator<keybinds::Keybind* (*)(matjson::Value const&)>, keybinds::Bind* (matjson::Value const&)>::destroy()
PUBLIC 61d70 0 std::__ndk1::__function::__func<keybinds::Keybind* (*)(matjson::Value const&), std::__ndk1::allocator<keybinds::Keybind* (*)(matjson::Value const&)>, keybinds::Bind* (matjson::Value const&)>::destroy_deallocate()
PUBLIC 61d74 0 std::__ndk1::__function::__func<keybinds::Keybind* (*)(matjson::Value const&), std::__ndk1::allocator<keybinds::Keybind* (*)(matjson::Value const&)>, keybinds::Bind* (matjson::Value const&)>::operator()(matjson::Value const&)
PUBLIC 61d80 0 std::__ndk1::__function::__func<keybinds::Keybind* (*)(matjson::Value const&), std::__ndk1::allocator<keybinds::Keybind* (*)(matjson::Value const&)>, keybinds::Bind* (matjson::Value const&)>::target(std::type_info const&) const
PUBLIC 61d9c 0 std::__ndk1::__function::__func<keybinds::Keybind* (*)(matjson::Value const&), std::__ndk1::allocator<keybinds::Keybind* (*)(matjson::Value const&)>, keybinds::Bind* (matjson::Value const&)>::target_type() const
PUBLIC 61da8 0 std::__ndk1::__function::__base<keybinds::Bind* (matjson::Value const&)>::~__base()
PUBLIC 61dac 0 std::__ndk1::__function::__func<keybinds::MouseBind* (*)(matjson::Value const&), std::__ndk1::allocator<keybinds::MouseBind* (*)(matjson::Value const&)>, keybinds::Bind* (matjson::Value const&)>::~__func()
PUBLIC 61db0 0 std::__ndk1::__function::__func<keybinds::MouseBind* (*)(matjson::Value const&), std::__ndk1::allocator<keybinds::MouseBind* (*)(matjson::Value const&)>, keybinds::Bind* (matjson::Value const&)>::__clone() const
PUBLIC 61de4 0 std::__ndk1::__function::__func<keybinds::MouseBind* (*)(matjson::Value const&), std::__ndk1::allocator<keybinds::MouseBind* (*)(matjson::Value const&)>, keybinds::Bind* (matjson::Value const&)>::__clone(std::__ndk1::__function::__base<keybinds::Bind* (matjson::Value const&)>*) const
PUBLIC 61df8 0 std::__ndk1::__function::__func<keybinds::MouseBind* (*)(matjson::Value const&), std::__ndk1::allocator<keybinds::MouseBind* (*)(matjson::Value const&)>, keybinds::Bind* (matjson::Value const&)>::destroy()
PUBLIC 61dfc 0 std::__ndk1::__function::__func<keybinds::MouseBind* (*)(matjson::Value const&), std::__ndk1::allocator<keybinds::MouseBind* (*)(matjson::Value const&)>, keybinds::Bind* (matjson::Value const&)>::destroy_deallocate()
PUBLIC 61e00 0 std::__ndk1::__function::__func<keybinds::MouseBind* (*)(matjson::Value const&), std::__ndk1::allocator<keybinds::MouseBind* (*)(matjson::Value const&)>, keybinds::Bind* (matjson::Value const&)>::operator()(matjson::Value const&)
PUBLIC 61e0c 0 std::__ndk1::__function::__func<keybinds::MouseBind* (*)(matjson::Value const&), std::__ndk1::allocator<keybinds::MouseBind* (*)(matjson::Value const&)>, keybinds::Bind* (matjson::Value const&)>::target(std::type_info const&) const
PUBLIC 61e28 0 std::__ndk1::__function::__func<keybinds::MouseBind* (*)(matjson::Value const&), std::__ndk1::allocator<keybinds::MouseBind* (*)(matjson::Value const&)>, keybinds::Bind* (matjson::Value const&)>::target_type() const
PUBLIC 61e34 0 std::__ndk1::__hash_table<std::__ndk1::__hash_value_type<std::__ndk1::basic_string<char, std::__ndk1::char_traits<char>, std::__ndk1::allocator<char> >, std::__ndk1::function<keybinds::Bind* (matjson::Value const&)> >, std::__ndk1::__unordered_map_hasher<std::__ndk1::basic_string<char, std::__ndk1::char_traits<char>, std::__ndk1::allocator<char> >, std::__ndk1::__hash_value_type<std::__ndk1::basic_string<char, std::__ndk1::char_traits<char>, std::__ndk1::allocator<char> >, std::__ndk1::function<keybinds::Bind* (matjson::Value const&)> >, std::__ndk1::hash<std::__ndk1::basic_string<char, std::__ndk1::char_traits<char>, std::__ndk1::allocator<char> > >, std::__ndk1::equal_to<std::__ndk1::basic_string<char, std::__ndk1::char_traits<char>, std::__ndk1::allocator<char> > >, true>, std::__ndk1::__unordered_map_equal<std::__ndk1::basic_string<char, std::__ndk1::char_traits<char>, std::__ndk1::allocator<char> >, std::__ndk1::__hash_value_type<std::__ndk1::basic_string<char, std::__ndk1::char_traits<char>, std::__ndk1::allocator<char> >, std::__ndk1::function<keybinds::Bind* (matjson::Value const&)> >, std::__ndk1::equal_to<std::__ndk1::basic_string<char, std::__ndk1::char_traits<char>, std::__ndk1::allocator<char> > >, std::__ndk1::hash<std::__ndk1::basic_string<char, std::__ndk1::char_traits<char>, std::__ndk1::allocator<char> > >, true>, std::__ndk1::allocator<std::__ndk1::__hash_value_type<std::__ndk1::basic_string<char, std::__ndk1::char_traits<char>, std::__ndk1::allocator<char> >, std::__ndk1::function<keybinds::Bind* (matjson::Value const&)> > > >::find<std::__ndk1::basic_string<char, std::__ndk1::char_traits<char>, std::__ndk1::allocator<char> > >(std::__ndk1::basic_string<char, std::__ndk1::char_traits<char>, std::__ndk1::allocator<char> > const&) const
PUBLIC 6207c 0 std::__ndk1::__hash_table<std::__ndk1::__hash_value_type<std::__ndk1::basic_string<char, std::__ndk1::char_traits<char>, std::__ndk1::allocator<char> >, std::__ndk1::function<keybinds::Bind* (matjson::Value const&)> >, std::__ndk1::__unordered_map_hasher<std::__ndk1::basic_string<char, std::__ndk1::char_traits<char>, std::__ndk1::allocator<char> >, std::__ndk1::__hash_value_type<std::__ndk1::basic_string<char, std::__ndk1::char_traits<char>, std::__ndk1::allocator<char> >, std::__ndk1::function<keybinds::Bind* (matjson::Value const&)> >, std::__ndk1::hash<std::__ndk1::basic_string<char, std::__ndk1::char_traits<char>, std::__ndk1::allocator<char> > >, std::__ndk1::equal_to<std::__ndk1::basic_string<char, std::__ndk1::char_traits<char>, std::__ndk1::allocator<char> > >, true>, std::__ndk1::__unordered_map_equal<std::__ndk1::basic_string<char, std::__ndk1::char_traits<char>, std::__ndk1::allocator<char> >, std::__ndk1::__hash_value_type<std::__ndk1::basic_string<char, std::__ndk1::char_traits<char>, std::__ndk1::allocator<char> >, std::__ndk1::function<keybinds::Bind* (matjson::Value const&)> >, std::__ndk1::equal_to<std::__ndk1::basic_string<char, std::__ndk1::char_traits<char>, std::__ndk1::allocator<char> > >, std::__ndk1::hash<std::__ndk1::basic_string<char, std::__ndk1::char_traits<char>, std::__ndk1::allocator<char> > >, true>, std::__ndk1::allocator<std::__ndk1::__hash_value_type<std::__ndk1::basic_string<char, std::__ndk1::char_traits<char>, std::__ndk1::allocator<char> >, std::__ndk1::function<keybinds::Bind* (matjson::Value const&)> > > >::__emplace_unique_key_args<std::__ndk1::basic_string<char, std::__ndk1::char_traits<char>, std::__ndk1::allocator<char> >, std::__ndk1::pair<std::__ndk1::basic_string<char, std::__ndk1::char_traits<char>, std::__ndk1::allocator<char> > const, std::__ndk1::function<keybinds::Bind* (matjson::Value const&)> > >(std::__ndk1::basic_string<char, std::__ndk1::char_traits<char>, std::__ndk1::allocator<char> > const&, std::__ndk1::pair<std::__ndk1::basic_string<char, std::__ndk1::char_traits<char>, std::__ndk1::allocator<char> > const, std::__ndk1::function<keybinds::Bind* (matjson::Value const&)> >&&)
PUBLIC 624f0 0 std::__ndk1::__hash_table<std::__ndk1::__hash_value_type<std::__ndk1::basic_string<char, std::__ndk1::char_traits<char>, std::__ndk1::allocator<char> >, std::__ndk1::function<keybinds::Bind* (matjson::Value const&)> >, std::__ndk1::__unordered_map_hasher<std::__ndk1::basic_string<char, std::__ndk1::char_traits<char>, std::__ndk1::allocator<char> >, std::__ndk1::__hash_value_type<std::__ndk1::basic_string<char, std::__ndk1::char_traits<char>, std::__ndk1::allocator<char> >, std::__ndk1::function<keybinds::Bind* (matjson::Value const&)> >, std::__ndk1::hash<std::__ndk1::basic_string<char, std::__ndk1::char_traits<char>, std::__ndk1::allocator<char> > >, std::__ndk1::equal_to<std::__ndk1::basic_string<char, std::__ndk1::char_traits<char>, std::__ndk1::allocator<char> > >, true>, std::__ndk1::__unordered_map_equal<std::__ndk1::basic_string<char, std::__ndk1::char_traits<char>, std::__ndk1::allocator<char> >, std::__ndk1::__hash_value_type<std::__ndk1::basic_string<char, std::__ndk1::char_traits<char>, std::__ndk1::allocator<char> >, std::__ndk1::function<keybinds::Bind* (matjson::Value const&)> >, std::__ndk1::equal_to<std::__ndk1::basic_string<char, std::__ndk1::char_traits<char>, std::__ndk1::allocator<char> > >, std::__ndk1::hash<std::__ndk1::basic_string<char, std::__ndk1::char_traits<char>, std::__ndk1::allocator<char> > >, true>, std::__ndk1::allocator<std::__ndk1::__hash_value_type<std::__ndk1::basic_string<char, std::__ndk1::char_traits<char>, std::__ndk1::allocator<char> >, std::__ndk1::function<keybinds::Bind* (matjson::Value const&)> > > >::__construct_node_hash<std::__ndk1::pair<std::__ndk1::basic_string<char, std::__ndk1::char_traits<char>, std::__ndk1::allocator<char> > const, std::__ndk1::function<keybinds::Bind* (matjson::Value const&)> >, >(unsigned long, std::__ndk1::pair<std::__ndk1::basic_string<char, std::__ndk1::char_traits<char>, std::__ndk1::allocator<char> > const, std::__ndk1::function<keybinds::Bind* (matjson::Value const&)> >&&, &&)
PUBLIC 62620 0 std::__ndk1::unique_ptr<std::__ndk1::__hash_node<std::__ndk1::__hash_value_type<std::__ndk1::basic_string<char, std::__ndk1::char_traits<char>, std::__ndk1::allocator<char> >, std::__ndk1::function<keybinds::Bind* (matjson::Value const&)> >, void*>, std::__ndk1::__hash_node_destructor<std::__ndk1::allocator<std::__ndk1::__hash_node<std::__ndk1::__hash_value_type<std::__ndk1::basic_string<char, std::__ndk1::char_traits<char>, std::__ndk1::allocator<char> >, std::__ndk1::function<keybinds::Bind* (matjson::Value const&)> >, void*> > > >::~unique_ptr[abi:v170000]()
PUBLIC 626a0 0 std::__ndk1::__hash_table<std::__ndk1::__hash_value_type<std::__ndk1::basic_string<char, std::__ndk1::char_traits<char>, std::__ndk1::allocator<char> >, std::__ndk1::function<keybinds::Bind* (matjson::Value const&)> >, std::__ndk1::__unordered_map_hasher<std::__ndk1::basic_string<char, std::__ndk1::char_traits<char>, std::__ndk1::allocator<char> >, std::__ndk1::__hash_value_type<std::__ndk1::basic_string<char, std::__ndk1::char_traits<char>, std::__ndk1::allocator<char> >, std::__ndk1::function<keybinds::Bind* (matjson::Value const&)> >, std::__ndk1::hash<std::__ndk1::basic_string<char, std::__ndk1::char_traits<char>, std::__ndk1::allocator<char> > >, std::__ndk1::equal_to<std::__ndk1::basic_string<char, std::__ndk1::char_traits<char>, std::__ndk1::allocator<char> > >, true>, std::__ndk1::__unordered_map_equal<std::__ndk1::basic_string<char, std::__ndk1::char_traits<char>, std::__ndk1::allocator<char> >, std::__ndk1::__hash_value_type<std::__ndk1::basic_string<char, std::__ndk1::char_traits<char>, std::__ndk1::allocator<char> >, std::__ndk1::function<keybinds::Bind* (matjson::Value const&)> >, std::__ndk1::equal_to<std::__ndk1::basic_string<char, std::__ndk1::char_traits<char>, std::__ndk1::allocator<char> > >, std::__ndk1::hash<std::__ndk1::basic_string<char, std::__ndk1::char_traits<char>, std::__ndk1::allocator<char> > >, true>, std::__ndk1::allocator<std::__ndk1::__hash_value_type<std::__ndk1::basic_string<char, std::__ndk1::char_traits<char>, std::__ndk1::allocator<char> >, std::__ndk1::function<keybinds::Bind* (matjson::Value const&)> > > >::__do_rehash<true>(unsigned long)
PUBLIC 62878 0 _ZNSt6__ndk112__hash_tableINS_17__hash_value_typeINS_12basic_stringIcNS_11char_traitsIcEENS_9allocatorIcEEEENS_13unordered_mapIS7_NS_3setIN7matjson5ValueENS_4lessISB_EENS5_ISB_EEEENS_4hashIS7_EENS_8equal_toIS7_EENS5_INS_4pairIKS7_SF_EEEEEEEENS_22__unordered_map_hasherIS7_SP_SH_SJ_Lb1EEENS_21__unordered_map_equalIS7_SP_SJ_SH_Lb1EEENS5_ISP_EEE25__emplace_unique_key_argsIS7_JRKNS_21piecewise_construct_tENS_5tupleIJRSL_EEENS10_IJEEEEEENSK_INS_15__hash_iteratorIPNS_11__hash_nodeISP_PvEEEEbEERKT_DpOT0_
PUBLIC 62d80 0 std::__ndk1::unique_ptr<std::__ndk1::__hash_node<std::__ndk1::__hash_value_type<std::__ndk1::basic_string<char, std::__ndk1::char_traits<char>, std::__ndk1::allocator<char> >, std::__ndk1::unordered_map<std::__ndk1::basic_string<char, std::__ndk1::char_traits<char>, std::__ndk1::allocator<char> >, std::__ndk1::set<matjson::Value, std::__ndk1::less<matjson::Value>, std::__ndk1::allocator<matjson::Value> >, std::__ndk1::hash<std::__ndk1::basic_string<char, std::__ndk1::char_traits<char>, std::__ndk1::allocator<char> > >, std::__ndk1::equal_to<std::__ndk1::basic_string<char, std::__ndk1::char_traits<char>, std::__ndk1::allocator<char> > >, std::__ndk1::allocator<std::__ndk1::pair<std::__ndk1::basic_string<char, std::__ndk1::char_traits<char>, std::__ndk1::allocator<char> > const, std::__ndk1::set<matjson::Value, std::__ndk1::less<matjson::Value>, std::__ndk1::allocator<matjson::Value> > > > > >, void*>, std::__ndk1::__hash_node_destructor<std::__ndk1::allocator<std::__ndk1::__hash_node<std::__ndk1::__hash_value_type<std::__ndk1::basic_string<char, std::__ndk1::char_traits<char>, std::__ndk1::allocator<char> >, std::__ndk1::unordered_map<std::__ndk1::basic_string<char, std::__ndk1::char_traits<char>, std::__ndk1::allocator<char> >, std::__ndk1::set<matjson::Value, std::__ndk1::less<matjson::Value>, std::__ndk1::allocator<matjson::Value> >, std::__ndk1::hash<std::__ndk1::basic_string<char, std::__ndk1::char_traits<char>, std::__ndk1::allocator<char> > >, std::__ndk1::equal_to<std::__ndk1::basic_string<char, std::__ndk1::char_traits<char>, std::__ndk1::allocator<char> > >, std::__ndk1::allocator<std::__ndk1::pair<std::__ndk1::basic_string<char, std::__ndk1::char_traits<char>, std::__ndk1::allocator<char> > const, std::__ndk1::set<matjson::Value, std::__ndk1::less<matjson::Value>, std::__ndk1::allocator<matjson::Value> > > > > >, void*> > > >::~unique_ptr[abi:v170000]()
PUBLIC 62dc4 0 _ZNSt6__ndk112__hash_tableINS_17__hash_value_typeINS_12basic_stringIcNS_11char_traitsIcEENS_9allocatorIcEEEENS_13unordered_mapIS7_NS_3setIN7matjson5ValueENS_4lessISB_EENS5_ISB_EEEENS_4hashIS7_EENS_8equal_toIS7_EENS5_INS_4pairIKS7_SF_EEEEEEEENS_22__unordered_map_hasherIS7_SP_SH_SJ_Lb1EEENS_21__unordered_map_equalIS7_SP_SJ_SH_Lb1EEENS5_ISP_EEE11__do_rehashILb1EEEvm
PUBLIC 62f9c 0 _ZNSt6__ndk112__hash_tableINS_17__hash_value_typeINS_12basic_stringIcNS_11char_traitsIcEENS_9allocatorIcEEEENS_13unordered_mapIS7_NS_3setIN7matjson5ValueENS_4lessISB_EENS5_ISB_EEEENS_4hashIS7_EENS_8equal_toIS7_EENS5_INS_4pairIKS7_SF_EEEEEEEENS_22__unordered_map_hasherIS7_SP_SH_SJ_Lb1EEENS_21__unordered_map_equalIS7_SP_SJ_SH_Lb1EEENS5_ISP_EEE4findIS7_EENS_15__hash_iteratorIPNS_11__hash_nodeISP_PvEEEERKT_
PUBLIC 631e4 0 _ZNSt6__ndk112__hash_tableINS_17__hash_value_typeINS_12basic_stringIcNS_11char_traitsIcEENS_9allocatorIcEEEENS_13unordered_mapIS7_NS_3setIN7matjson5ValueENS_4lessISB_EENS5_ISB_EEEENS_4hashIS7_EENS_8equal_toIS7_EENS5_INS_4pairIKS7_SF_EEEEEEEENS_22__unordered_map_hasherIS7_SP_SH_SJ_Lb1EEENS_21__unordered_map_equalIS7_SP_SJ_SH_Lb1EEENS5_ISP_EEE6removeENS_21__hash_const_iteratorIPNS_11__hash_nodeISP_PvEEEE
PUBLIC 63318 0 std::__ndk1::__hash_table<std::__ndk1::__hash_value_type<std::__ndk1::basic_string<char, std::__ndk1::char_traits<char>, std::__ndk1::allocator<char> >, std::__ndk1::set<matjson::Value, std::__ndk1::less<matjson::Value>, std::__ndk1::allocator<matjson::Value> > >, std::__ndk1::__unordered_map_hasher<std::__ndk1::basic_string<char, std::__ndk1::char_traits<char>, std::__ndk1::allocator<char> >, std::__ndk1::__hash_value_type<std::__ndk1::basic_string<char, std::__ndk1::char_traits<char>, std::__ndk1::allocator<char> >, std::__ndk1::set<matjson::Value, std::__ndk1::less<matjson::Value>, std::__ndk1::allocator<matjson::Value> > >, std::__ndk1::hash<std::__ndk1::basic_string<char, std::__ndk1::char_traits<char>, std::__ndk1::allocator<char> > >, std::__ndk1::equal_to<std::__ndk1::basic_string<char, std::__ndk1::char_traits<char>, std::__ndk1::allocator<char> > >, true>, std::__ndk1::__unordered_map_equal<std::__ndk1::basic_string<char, std::__ndk1::char_traits<char>, std::__ndk1::allocator<char> >, std::__ndk1::__hash_value_type<std::__ndk1::basic_string<char, std::__ndk1::char_traits<char>, std::__ndk1::allocator<char> >, std::__ndk1::set<matjson::Value, std::__ndk1::less<matjson::Value>, std::__ndk1::allocator<matjson::Value> > >, std::__ndk1::equal_to<std::__ndk1::basic_string<char, std::__ndk1::char_traits<char>, std::__ndk1::allocator<char> > >, std::__ndk1::hash<std::__ndk1::basic_string<char, std::__ndk1::char_traits<char>, std::__ndk1::allocator<char> > >, true>, std::__ndk1::allocator<std::__ndk1::__hash_value_type<std::__ndk1::basic_string<char, std::__ndk1::char_traits<char>, std::__ndk1::allocator<char> >, std::__ndk1::set<matjson::Value, std::__ndk1::less<matjson::Value>, std::__ndk1::allocator<matjson::Value> > > > >::__emplace_unique_key_args<std::__ndk1::basic_string<char, std::__ndk1::char_traits<char>, std::__ndk1::allocator<char> >, std::__ndk1::piecewise_construct_t const&, std::__ndk1::tuple<std::__ndk1::basic_string<char, std::__ndk1::char_traits<char>, std::__ndk1::allocator<char> > const&>, std::__ndk1::tuple<> >(std::__ndk1::basic_string<char, std::__ndk1::char_traits<char>, std::__ndk1::allocator<char> > const&, std::__ndk1::piecewise_construct_t const&, std::__ndk1::tuple<std::__ndk1::basic_string<char, std::__ndk1::char_traits<char>, std::__ndk1::allocator<char> > const&>, std::__ndk1::tuple<>)
PUBLIC 6381c 0 std::__ndk1::unique_ptr<std::__ndk1::__hash_node<std::__ndk1::__hash_value_type<std::__ndk1::basic_string<char, std::__ndk1::char_traits<char>, std::__ndk1::allocator<char> >, std::__ndk1::set<matjson::Value, std::__ndk1::less<matjson::Value>, std::__ndk1::allocator<matjson::Value> > >, void*>, std::__ndk1::__hash_node_destructor<std::__ndk1::allocator<std::__ndk1::__hash_node<std::__ndk1::__hash_value_type<std::__ndk1::basic_string<char, std::__ndk1::char_traits<char>, std::__ndk1::allocator<char> >, std::__ndk1::set<matjson::Value, std::__ndk1::less<matjson::Value>, std::__ndk1::allocator<matjson::Value> > >, void*> > > >::~unique_ptr[abi:v170000]()
PUBLIC 63874 0 std::__ndk1::__hash_table<std::__ndk1::__hash_value_type<std::__ndk1::basic_string<char, std::__ndk1::char_traits<char>, std::__ndk1::allocator<char> >, std::__ndk1::set<matjson::Value, std::__ndk1::less<matjson::Value>, std::__ndk1::allocator<matjson::Value> > >, std::__ndk1::__unordered_map_hasher<std::__ndk1::basic_string<char, std::__ndk1::char_traits<char>, std::__ndk1::allocator<char> >, std::__ndk1::__hash_value_type<std::__ndk1::basic_string<char, std::__ndk1::char_traits<char>, std::__ndk1::allocator<char> >, std::__ndk1::set<matjson::Value, std::__ndk1::less<matjson::Value>, std::__ndk1::allocator<matjson::Value> > >, std::__ndk1::hash<std::__ndk1::basic_string<char, std::__ndk1::char_traits<char>, std::__ndk1::allocator<char> > >, std::__ndk1::equal_to<std::__ndk1::basic_string<char, std::__ndk1::char_traits<char>, std::__ndk1::allocator<char> > >, true>, std::__ndk1::__unordered_map_equal<std::__ndk1::basic_string<char, std::__ndk1::char_traits<char>, std::__ndk1::allocator<char> >, std::__ndk1::__hash_value_type<std::__ndk1::basic_string<char, std::__ndk1::char_traits<char>, std::__ndk1::allocator<char> >, std::__ndk1::set<matjson::Value, std::__ndk1::less<matjson::Value>, std::__ndk1::allocator<matjson::Value> > >, std::__ndk1::equal_to<std::__ndk1::basic_string<char, std::__ndk1::char_traits<char>, std::__ndk1::allocator<char> > >, std::__ndk1::hash<std::__ndk1::basic_string<char, std::__ndk1::char_traits<char>, std::__ndk1::allocator<char> > >, true>, std::__ndk1::allocator<std::__ndk1::__hash_value_type<std::__ndk1::basic_string<char, std::__ndk1::char_traits<char>, std::__ndk1::allocator<char> >, std::__ndk1::set<matjson::Value, std::__ndk1::less<matjson::Value>, std::__ndk1::allocator<matjson::Value> > > > >::__do_rehash<true>(unsigned long)
PUBLIC 63a4c 0 std::__ndk1::__tree<matjson::Value, std::__ndk1::less<matjson::Value>, std::__ndk1::allocator<matjson::Value> >::__emplace_unique_key_args<matjson::Value, matjson::Value>(matjson::Value const&, matjson::Value&&)
PUBLIC 63b68 0 std::__ndk1::__hash_table<std::__ndk1::__hash_value_type<std::__ndk1::basic_string<char, std::__ndk1::char_traits<char>, std::__ndk1::allocator<char> >, std::__ndk1::function<keybinds::Bind* (matjson::Value const&)> >, std::__ndk1::__unordered_map_hasher<std::__ndk1::basic_string<char, std::__ndk1::char_traits<char>, std::__ndk1::allocator<char> >, std::__ndk1::__hash_value_type<std::__ndk1::basic_string<char, std::__ndk1::char_traits<char>, std::__ndk1::allocator<char> >, std::__ndk1::function<keybinds::Bind* (matjson::Value const&)> >, std::__ndk1::hash<std::__ndk1::basic_string<char, std::__ndk1::char_traits<char>, std::__ndk1::allocator<char> > >, std::__ndk1::equal_to<std::__ndk1::basic_string<char, std::__ndk1::char_traits<char>, std::__ndk1::allocator<char> > >, true>, std::__ndk1::__unordered_map_equal<std::__ndk1::basic_string<char, std::__ndk1::char_traits<char>, std::__ndk1::allocator<char> >, std::__ndk1::__hash_value_type<std::__ndk1::basic_string<char, std::__ndk1::char_traits<char>, std::__ndk1::allocator<char> >, std::__ndk1::function<keybinds::Bind* (matjson::Value const&)> >, std::__ndk1::equal_to<std::__ndk1::basic_string<char, std::__ndk1::char_traits<char>, std::__ndk1::allocator<char> > >, std::__ndk1::hash<std::__ndk1::basic_string<char, std::__ndk1::char_traits<char>, std::__ndk1::allocator<char> > >, true>, std::__ndk1::allocator<std::__ndk1::__hash_value_type<std::__ndk1::basic_string<char, std::__ndk1::char_traits<char>, std::__ndk1::allocator<char> >, std::__ndk1::function<keybinds::Bind* (matjson::Value const&)> > > >::find<std::__ndk1::basic_string<char, std::__ndk1::char_traits<char>, std::__ndk1::allocator<char> > >(std::__ndk1::basic_string<char, std::__ndk1::char_traits<char>, std::__ndk1::allocator<char> > const&)
PUBLIC 63db0 0 std::__ndk1::__hash_table<std::__ndk1::__hash_value_type<std::__ndk1::basic_string<char, std::__ndk1::char_traits<char>, std::__ndk1::allocator<char> >, std::__ndk1::function<keybinds::Bind* (matjson::Value const&)> >, std::__ndk1::__unordered_map_hasher<std::__ndk1::basic_string<char, std::__ndk1::char_traits<char>, std::__ndk1::allocator<char> >, std::__ndk1::__hash_value_type<std::__ndk1::basic_string<char, std::__ndk1::char_traits<char>, std::__ndk1::allocator<char> >, std::__ndk1::function<keybinds::Bind* (matjson::Value const&)> >, std::__ndk1::hash<std::__ndk1::basic_string<char, std::__ndk1::char_traits<char>, std::__ndk1::allocator<char> > >, std::__ndk1::equal_to<std::__ndk1::basic_string<char, std::__ndk1::char_traits<char>, std::__ndk1::allocator<char> > >, true>, std::__ndk1::__unordered_map_equal<std::__ndk1::basic_string<char, std::__ndk1::char_traits<char>, std::__ndk1::allocator<char> >, std::__ndk1::__hash_value_type<std::__ndk1::basic_string<char, std::__ndk1::char_traits<char>, std::__ndk1::allocator<char> >, std::__ndk1::function<keybinds::Bind* (matjson::Value const&)> >, std::__ndk1::equal_to<std::__ndk1::basic_string<char, std::__ndk1::char_traits<char>, std::__ndk1::allocator<char> > >, std::__ndk1::hash<std::__ndk1::basic_string<char, std::__ndk1::char_traits<char>, std::__ndk1::allocator<char> > >, true>, std::__ndk1::allocator<std::__ndk1::__hash_value_type<std::__ndk1::basic_string<char, std::__ndk1::char_traits<char>, std::__ndk1::allocator<char> >, std::__ndk1::function<keybinds::Bind* (matjson::Value const&)> > > >::remove(std::__ndk1::__hash_const_iterator<std::__ndk1::__hash_node<std::__ndk1::__hash_value_type<std::__ndk1::basic_string<char, std::__ndk1::char_traits<char>, std::__ndk1::allocator<char> >, std::__ndk1::function<keybinds::Bind* (matjson::Value const&)> >, void*>*>)
PUBLIC 63ee4 0 _ZNSt6__ndk112__hash_tableINS_17__hash_value_typeINS_12basic_stringIcNS_11char_traitsIcEENS_9allocatorIcEEEENS_13unordered_mapIS7_NS_3setIN7matjson5ValueENS_4lessISB_EENS5_ISB_EEEENS_4hashIS7_EENS_8equal_toIS7_EENS5_INS_4pairIKS7_SF_EEEEEEEENS_22__unordered_map_hasherIS7_SP_SH_SJ_Lb1EEENS_21__unordered_map_equalIS7_SP_SJ_SH_Lb1EEENS5_ISP_EEE25__emplace_unique_key_argsIS7_JRKNS_21piecewise_construct_tENS_5tupleIJOS7_EEENS10_IJEEEEEENSK_INS_15__hash_iteratorIPNS_11__hash_nodeISP_PvEEEEbEERKT_DpOT0_
PUBLIC 64394 0 std::__ndk1::__tree<matjson::Value, std::__ndk1::less<matjson::Value>, std::__ndk1::allocator<matjson::Value> >::__emplace_unique_key_args<matjson::Value, matjson::Value const&>(matjson::Value const&, matjson::Value const&)
PUBLIC 644b0 0 std::__ndk1::__hash_table<std::__ndk1::__hash_value_type<std::__ndk1::basic_string<char, std::__ndk1::char_traits<char>, std::__ndk1::allocator<char> >, std::__ndk1::set<matjson::Value, std::__ndk1::less<matjson::Value>, std::__ndk1::allocator<matjson::Value> > >, std::__ndk1::__unordered_map_hasher<std::__ndk1::basic_string<char, std::__ndk1::char_traits<char>, std::__ndk1::allocator<char> >, std::__ndk1::__hash_value_type<std::__ndk1::basic_string<char, std::__ndk1::char_traits<char>, std::__ndk1::allocator<char> >, std::__ndk1::set<matjson::Value, std::__ndk1::less<matjson::Value>, std::__ndk1::allocator<matjson::Value> > >, std::__ndk1::hash<std::__ndk1::basic_string<char, std::__ndk1::char_traits<char>, std::__ndk1::allocator<char> > >, std::__ndk1::equal_to<std::__ndk1::basic_string<char, std::__ndk1::char_traits<char>, std::__ndk1::allocator<char> > >, true>, std::__ndk1::__unordered_map_equal<std::__ndk1::basic_string<char, std::__ndk1::char_traits<char>, std::__ndk1::allocator<char> >, std::__ndk1::__hash_value_type<std::__ndk1::basic_string<char, std::__ndk1::char_traits<char>, std::__ndk1::allocator<char> >, std::__ndk1::set<matjson::Value, std::__ndk1::less<matjson::Value>, std::__ndk1::allocator<matjson::Value> > >, std::__ndk1::equal_to<std::__ndk1::basic_string<char, std::__ndk1::char_traits<char>, std::__ndk1::allocator<char> > >, std::__ndk1::hash<std::__ndk1::basic_string<char, std::__ndk1::char_traits<char>, std::__ndk1::allocator<char> > >, true>, std::__ndk1::allocator<std::__ndk1::__hash_value_type<std::__ndk1::basic_string<char, std::__ndk1::char_traits<char>, std::__ndk1::allocator<char> >, std::__ndk1::set<matjson::Value, std::__ndk1::less<matjson::Value>, std::__ndk1::allocator<matjson::Value> > > > >::find<std::__ndk1::basic_string<char, std::__ndk1::char_traits<char>, std::__ndk1::allocator<char> > >(std::__ndk1::basic_string<char, std::__ndk1::char_traits<char>, std::__ndk1::allocator<char> > const&) const
PUBLIC 646f8 0 std::__ndk1::__hash_table<std::__ndk1::__hash_value_type<std::__ndk1::basic_string<char, std::__ndk1::char_traits<char>, std::__ndk1::allocator<char> >, std::__ndk1::set<matjson::Value, std::__ndk1::less<matjson::Value>, std::__ndk1::allocator<matjson::Value> > >, std::__ndk1::__unordered_map_hasher<std::__ndk1::basic_string<char, std::__ndk1::char_traits<char>, std::__ndk1::allocator<char> >, std::__ndk1::__hash_value_type<std::__ndk1::basic_string<char, std::__ndk1::char_traits<char>, std::__ndk1::allocator<char> >, std::__ndk1::set<matjson::Value, std::__ndk1::less<matjson::Value>, std::__ndk1::allocator<matjson::Value> > >, std::__ndk1::hash<std::__ndk1::basic_string<char, std::__ndk1::char_traits<char>, std::__ndk1::allocator<char> > >, std::__ndk1::equal_to<std::__ndk1::basic_string<char, std::__ndk1::char_traits<char>, std::__ndk1::allocator<char> > >, true>, std::__ndk1::__unordered_map_equal<std::__ndk1::basic_string<char, std::__ndk1::char_traits<char>, std::__ndk1::allocator<char> >, std::__ndk1::__hash_value_type<std::__ndk1::basic_string<char, std::__ndk1::char_traits<char>, std::__ndk1::allocator<char> >, std::__ndk1::set<matjson::Value, std::__ndk1::less<matjson::Value>, std::__ndk1::allocator<matjson::Value> > >, std::__ndk1::equal_to<std::__ndk1::basic_string<char, std::__ndk1::char_traits<char>, std::__ndk1::allocator<char> > >, std::__ndk1::hash<std::__ndk1::basic_string<char, std::__ndk1::char_traits<char>, std::__ndk1::allocator<char> > >, true>, std::__ndk1::allocator<std::__ndk1::__hash_value_type<std::__ndk1::basic_string<char, std::__ndk1::char_traits<char>, std::__ndk1::allocator<char> >, std::__ndk1::set<matjson::Value, std::__ndk1::less<matjson::Value>, std::__ndk1::allocator<matjson::Value> > > > >::find<std::__ndk1::basic_string<char, std::__ndk1::char_traits<char>, std::__ndk1::allocator<char> > >(std::__ndk1::basic_string<char, std::__ndk1::char_traits<char>, std::__ndk1::allocator<char> > const&)
PUBLIC 64940 0 std::__ndk1::__hash_table<std::__ndk1::__hash_value_type<keybinds::BindHash, std::__ndk1::vector<std::__ndk1::basic_string<char, std::__ndk1::char_traits<char>, std::__ndk1::allocator<char> >, std::__ndk1::allocator<std::__ndk1::basic_string<char, std::__ndk1::char_traits<char>, std::__ndk1::allocator<char> > > > >, std::__ndk1::__unordered_map_hasher<keybinds::BindHash, std::__ndk1::__hash_value_type<keybinds::BindHash, std::__ndk1::vector<std::__ndk1::basic_string<char, std::__ndk1::char_traits<char>, std::__ndk1::allocator<char> >, std::__ndk1::allocator<std::__ndk1::basic_string<char, std::__ndk1::char_traits<char>, std::__ndk1::allocator<char> > > > >, std::__ndk1::hash<keybinds::BindHash>, std::__ndk1::equal_to<keybinds::BindHash>, true>, std::__ndk1::__unordered_map_equal<keybinds::BindHash, std::__ndk1::__hash_value_type<keybinds::BindHash, std::__ndk1::vector<std::__ndk1::basic_string<char, std::__ndk1::char_traits<char>, std::__ndk1::allocator<char> >, std::__ndk1::allocator<std::__ndk1::basic_string<char, std::__ndk1::char_traits<char>, std::__ndk1::allocator<char> > > > >, std::__ndk1::equal_to<keybinds::BindHash>, std::__ndk1::hash<keybinds::BindHash>, true>, std::__ndk1::allocator<std::__ndk1::__hash_value_type<keybinds::BindHash, std::__ndk1::vector<std::__ndk1::basic_string<char, std::__ndk1::char_traits<char>, std::__ndk1::allocator<char> >, std::__ndk1::allocator<std::__ndk1::basic_string<char, std::__ndk1::char_traits<char>, std::__ndk1::allocator<char> > > > > > >::find<keybinds::BindHash>(keybinds::BindHash const&) const
PUBLIC 64b04 0 std::__ndk1::__hash_table<std::__ndk1::__hash_value_type<keybinds::BindHash, std::__ndk1::vector<std::__ndk1::basic_string<char, std::__ndk1::char_traits<char>, std::__ndk1::allocator<char> >, std::__ndk1::allocator<std::__ndk1::basic_string<char, std::__ndk1::char_traits<char>, std::__ndk1::allocator<char> > > > >, std::__ndk1::__unordered_map_hasher<keybinds::BindHash, std::__ndk1::__hash_value_type<keybinds::BindHash, std::__ndk1::vector<std::__ndk1::basic_string<char, std::__ndk1::char_traits<char>, std::__ndk1::allocator<char> >, std::__ndk1::allocator<std::__ndk1::basic_string<char, std::__ndk1::char_traits<char>, std::__ndk1::allocator<char> > > > >, std::__ndk1::hash<keybinds::BindHash>, std::__ndk1::equal_to<keybinds::BindHash>, true>, std::__ndk1::__unordered_map_equal<keybinds::BindHash, std::__ndk1::__hash_value_type<keybinds::BindHash, std::__ndk1::vector<std::__ndk1::basic_string<char, std::__ndk1::char_traits<char>, std::__ndk1::allocator<char> >, std::__ndk1::allocator<std::__ndk1::basic_string<char, std::__ndk1::char_traits<char>, std::__ndk1::allocator<char> > > > >, std::__ndk1::equal_to<keybinds::BindHash>, std::__ndk1::hash<keybinds::BindHash>, true>, std::__ndk1::allocator<std::__ndk1::__hash_value_type<keybinds::BindHash, std::__ndk1::vector<std::__ndk1::basic_string<char, std::__ndk1::char_traits<char>, std::__ndk1::allocator<char> >, std::__ndk1::allocator<std::__ndk1::basic_string<char, std::__ndk1::char_traits<char>, std::__ndk1::allocator<char> > > > > > >::__emplace_unique_key_args<keybinds::BindHash, std::__ndk1::piecewise_construct_t const&, std::__ndk1::tuple<keybinds::BindHash&&>, std::__ndk1::tuple<> >(keybinds::BindHash const&, std::__ndk1::piecewise_construct_t const&, std::__ndk1::tuple<keybinds::BindHash&&>, std::__ndk1::tuple<>)
PUBLIC 64f48 0 std::__ndk1::__hash_table<std::__ndk1::__hash_value_type<keybinds::BindHash, std::__ndk1::vector<std::__ndk1::basic_string<char, std::__ndk1::char_traits<char>, std::__ndk1::allocator<char> >, std::__ndk1::allocator<std::__ndk1::basic_string<char, std::__ndk1::char_traits<char>, std::__ndk1::allocator<char> > > > >, std::__ndk1::__unordered_map_hasher<keybinds::BindHash, std::__ndk1::__hash_value_type<keybinds::BindHash, std::__ndk1::vector<std::__ndk1::basic_string<char, std::__ndk1::char_traits<char>, std::__ndk1::allocator<char> >, std::__ndk1::allocator<std::__ndk1::basic_string<char, std::__ndk1::char_traits<char>, std::__ndk1::allocator<char> > > > >, std::__ndk1::hash<keybinds::BindHash>, std::__ndk1::equal_to<keybinds::BindHash>, true>, std::__ndk1::__unordered_map_equal<keybinds::BindHash, std::__ndk1::__hash_value_type<keybinds::BindHash, std::__ndk1::vector<std::__ndk1::basic_string<char, std::__ndk1::char_traits<char>, std::__ndk1::allocator<char> >, std::__ndk1::allocator<std::__ndk1::basic_string<char, std::__ndk1::char_traits<char>, std::__ndk1::allocator<char> > > > >, std::__ndk1::equal_to<keybinds::BindHash>, std::__ndk1::hash<keybinds::BindHash>, true>, std::__ndk1::allocator<std::__ndk1::__hash_value_type<keybinds::BindHash, std::__ndk1::vector<std::__ndk1::basic_string<char, std::__ndk1::char_traits<char>, std::__ndk1::allocator<char> >, std::__ndk1::allocator<std::__ndk1::basic_string<char, std::__ndk1::char_traits<char>, std::__ndk1::allocator<char> > > > > > >::__do_rehash<true>(unsigned long)
PUBLIC 65120 0 std::__ndk1::unique_ptr<std::__ndk1::__hash_node<std::__ndk1::__hash_value_type<keybinds::BindHash, std::__ndk1::vector<std::__ndk1::basic_string<char, std::__ndk1::char_traits<char>, std::__ndk1::allocator<char> >, std::__ndk1::allocator<std::__ndk1::basic_string<char, std::__ndk1::char_traits<char>, std::__ndk1::allocator<char> > > > >, void*>, std::__ndk1::__hash_node_destructor<std::__ndk1::allocator<std::__ndk1::__hash_node<std::__ndk1::__hash_value_type<keybinds::BindHash, std::__ndk1::vector<std::__ndk1::basic_string<char, std::__ndk1::char_traits<char>, std::__ndk1::allocator<char> >, std::__ndk1::allocator<std::__ndk1::basic_string<char, std::__ndk1::char_traits<char>, std::__ndk1::allocator<char> > > > >, void*> > > >::reset[abi:v170000](std::__ndk1::__hash_node<std::__ndk1::__hash_value_type<keybinds::BindHash, std::__ndk1::vector<std::__ndk1::basic_string<char, std::__ndk1::char_traits<char>, std::__ndk1::allocator<char> >, std::__ndk1::allocator<std::__ndk1::basic_string<char, std::__ndk1::char_traits<char>, std::__ndk1::allocator<char> > > > >, void*>*)
PUBLIC 651c4 0 std::__ndk1::remove[abi:v170000]<std::__ndk1::__wrap_iter<std::__ndk1::basic_string<char, std::__ndk1::char_traits<char>, std::__ndk1::allocator<char> >*>, std::__ndk1::allocator<char> >(std::__ndk1::__wrap_iter<std::__ndk1::basic_string<char, std::__ndk1::char_traits<char>, std::__ndk1::allocator<char> >*>, std::__ndk1::__wrap_iter<std::__ndk1::basic_string<char, std::__ndk1::char_traits<char>, std::__ndk1::allocator<char> >*>, std::__ndk1::allocator<char> const&)
PUBLIC 653d0 0 std::__ndk1::__hash_table<std::__ndk1::__hash_value_type<keybinds::BindHash, std::__ndk1::vector<std::__ndk1::basic_string<char, std::__ndk1::char_traits<char>, std::__ndk1::allocator<char> >, std::__ndk1::allocator<std::__ndk1::basic_string<char, std::__ndk1::char_traits<char>, std::__ndk1::allocator<char> > > > >, std::__ndk1::__unordered_map_hasher<keybinds::BindHash, std::__ndk1::__hash_value_type<keybinds::BindHash, std::__ndk1::vector<std::__ndk1::basic_string<char, std::__ndk1::char_traits<char>, std::__ndk1::allocator<char> >, std::__ndk1::allocator<std::__ndk1::basic_string<char, std::__ndk1::char_traits<char>, std::__ndk1::allocator<char> > > > >, std::__ndk1::hash<keybinds::BindHash>, std::__ndk1::equal_to<keybinds::BindHash>, true>, std::__ndk1::__unordered_map_equal<keybinds::BindHash, std::__ndk1::__hash_value_type<keybinds::BindHash, std::__ndk1::vector<std::__ndk1::basic_string<char, std::__ndk1::char_traits<char>, std::__ndk1::allocator<char> >, std::__ndk1::allocator<std::__ndk1::basic_string<char, std::__ndk1::char_traits<char>, std::__ndk1::allocator<char> > > > >, std::__ndk1::equal_to<keybinds::BindHash>, std::__ndk1::hash<keybinds::BindHash>, true>, std::__ndk1::allocator<std::__ndk1::__hash_value_type<keybinds::BindHash, std::__ndk1::vector<std::__ndk1::basic_string<char, std::__ndk1::char_traits<char>, std::__ndk1::allocator<char> >, std::__ndk1::allocator<std::__ndk1::basic_string<char, std::__ndk1::char_traits<char>, std::__ndk1::allocator<char> > > > > > >::find<keybinds::BindHash>(keybinds::BindHash const&)
PUBLIC 65594 0 std::__ndk1::__hash_table<std::__ndk1::__hash_value_type<keybinds::BindHash, std::__ndk1::vector<std::__ndk1::basic_string<char, std::__ndk1::char_traits<char>, std::__ndk1::allocator<char> >, std::__ndk1::allocator<std::__ndk1::basic_string<char, std::__ndk1::char_traits<char>, std::__ndk1::allocator<char> > > > >, std::__ndk1::__unordered_map_hasher<keybinds::BindHash, std::__ndk1::__hash_value_type<keybinds::BindHash, std::__ndk1::vector<std::__ndk1::basic_string<char, std::__ndk1::char_traits<char>, std::__ndk1::allocator<char> >, std::__ndk1::allocator<std::__ndk1::basic_string<char, std::__ndk1::char_traits<char>, std::__ndk1::allocator<char> > > > >, std::__ndk1::hash<keybinds::BindHash>, std::__ndk1::equal_to<keybinds::BindHash>, true>, std::__ndk1::__unordered_map_equal<keybinds::BindHash, std::__ndk1::__hash_value_type<keybinds::BindHash, std::__ndk1::vector<std::__ndk1::basic_string<char, std::__ndk1::char_traits<char>, std::__ndk1::allocator<char> >, std::__ndk1::allocator<std::__ndk1::basic_string<char, std::__ndk1::char_traits<char>, std::__ndk1::allocator<char> > > > >, std::__ndk1::equal_to<keybinds::BindHash>, std::__ndk1::hash<keybinds::BindHash>, true>, std::__ndk1::allocator<std::__ndk1::__hash_value_type<keybinds::BindHash, std::__ndk1::vector<std::__ndk1::basic_string<char, std::__ndk1::char_traits<char>, std::__ndk1::allocator<char> >, std::__ndk1::allocator<std::__ndk1::basic_string<char, std::__ndk1::char_traits<char>, std::__ndk1::allocator<char> > > > > > >::remove(std::__ndk1::__hash_const_iterator<std::__ndk1::__hash_node<std::__ndk1::__hash_value_type<keybinds::BindHash, std::__ndk1::vector<std::__ndk1::basic_string<char, std::__ndk1::char_traits<char>, std::__ndk1::allocator<char> >, std::__ndk1::allocator<std::__ndk1::basic_string<char, std::__ndk1::char_traits<char>, std::__ndk1::allocator<char> > > > >, void*>*>)
PUBLIC 656c8 0 std::__ndk1::__hash_table<std::__ndk1::__hash_value_type<std::__ndk1::basic_string<char, std::__ndk1::char_traits<char>, std::__ndk1::allocator<char> >, float>, std::__ndk1::__unordered_map_hasher<std::__ndk1::basic_string<char, std::__ndk1::char_traits<char>, std::__ndk1::allocator<char> >, std::__ndk1::__hash_value_type<std::__ndk1::basic_string<char, std::__ndk1::char_traits<char>, std::__ndk1::allocator<char> >, float>, std::__ndk1::hash<std::__ndk1::basic_string<char, std::__ndk1::char_traits<char>, std::__ndk1::allocator<char> > >, std::__ndk1::equal_to<std::__ndk1::basic_string<char, std::__ndk1::char_traits<char>, std::__ndk1::allocator<char> > >, true>, std::__ndk1::__unordered_map_equal<std::__ndk1::basic_string<char, std::__ndk1::char_traits<char>, std::__ndk1::allocator<char> >, std::__ndk1::__hash_value_type<std::__ndk1::basic_string<char, std::__ndk1::char_traits<char>, std::__ndk1::allocator<char> >, float>, std::__ndk1::equal_to<std::__ndk1::basic_string<char, std::__ndk1::char_traits<char>, std::__ndk1::allocator<char> > >, std::__ndk1::hash<std::__ndk1::basic_string<char, std::__ndk1::char_traits<char>, std::__ndk1::allocator<char> > >, true>, std::__ndk1::allocator<std::__ndk1::__hash_value_type<std::__ndk1::basic_string<char, std::__ndk1::char_traits<char>, std::__ndk1::allocator<char> >, float> > >::find<std::__ndk1::basic_string<char, std::__ndk1::char_traits<char>, std::__ndk1::allocator<char> > >(std::__ndk1::basic_string<char, std::__ndk1::char_traits<char>, std::__ndk1::allocator<char> > const&) const
PUBLIC 65910 0 std::__ndk1::__hash_table<std::__ndk1::__hash_value_type<std::__ndk1::basic_string<char, std::__ndk1::char_traits<char>, std::__ndk1::allocator<char> >, std::__ndk1::unordered_set<unsigned long, std::__ndk1::hash<unsigned long>, std::__ndk1::equal_to<unsigned long>, std::__ndk1::allocator<unsigned long> > >, std::__ndk1::__unordered_map_hasher<std::__ndk1::basic_string<char, std::__ndk1::char_traits<char>, std::__ndk1::allocator<char> >, std::__ndk1::__hash_value_type<std::__ndk1::basic_string<char, std::__ndk1::char_traits<char>, std::__ndk1::allocator<char> >, std::__ndk1::unordered_set<unsigned long, std::__ndk1::hash<unsigned long>, std::__ndk1::equal_to<unsigned long>, std::__ndk1::allocator<unsigned long> > >, std::__ndk1::hash<std::__ndk1::basic_string<char, std::__ndk1::char_traits<char>, std::__ndk1::allocator<char> > >, std::__ndk1::equal_to<std::__ndk1::basic_string<char, std::__ndk1::char_traits<char>, std::__ndk1::allocator<char> > >, true>, std::__ndk1::__unordered_map_equal<std::__ndk1::basic_string<char, std::__ndk1::char_traits<char>, std::__ndk1::allocator<char> >, std::__ndk1::__hash_value_type<std::__ndk1::basic_string<char, std::__ndk1::char_traits<char>, std::__ndk1::allocator<char> >, std::__ndk1::unordered_set<unsigned long, std::__ndk1::hash<unsigned long>, std::__ndk1::equal_to<unsigned long>, std::__ndk1::allocator<unsigned long> > >, std::__ndk1::equal_to<std::__ndk1::basic_string<char, std::__ndk1::char_traits<char>, std::__ndk1::allocator<char> > >, std::__ndk1::hash<std::__ndk1::basic_string<char, std::__ndk1::char_traits<char>, std::__ndk1::allocator<char> > >, true>, std::__ndk1::allocator<std::__ndk1::__hash_value_type<std::__ndk1::basic_string<char, std::__ndk1::char_traits<char>, std::__ndk1::allocator<char> >, std::__ndk1::unordered_set<unsigned long, std::__ndk1::hash<unsigned long>, std::__ndk1::equal_to<unsigned long>, std::__ndk1::allocator<unsigned long> > > > >::find<std::__ndk1::basic_string<char, std::__ndk1::char_traits<char>, std::__ndk1::allocator<char> > >(std::__ndk1::basic_string<char, std::__ndk1::char_traits<char>, std::__ndk1::allocator<char> > const&) const
PUBLIC 65b58 0 std::__ndk1::__hash_table<std::__ndk1::__hash_value_type<std::__ndk1::basic_string<char, std::__ndk1::char_traits<char>, std::__ndk1::allocator<char> >, std::__ndk1::unordered_set<unsigned long, std::__ndk1::hash<unsigned long>, std::__ndk1::equal_to<unsigned long>, std::__ndk1::allocator<unsigned long> > >, std::__ndk1::__unordered_map_hasher<std::__ndk1::basic_string<char, std::__ndk1::char_traits<char>, std::__ndk1::allocator<char> >, std::__ndk1::__hash_value_type<std::__ndk1::basic_string<char, std::__ndk1::char_traits<char>, std::__ndk1::allocator<char> >, std::__ndk1::unordered_set<unsigned long, std::__ndk1::hash<unsigned long>, std::__ndk1::equal_to<unsigned long>, std::__ndk1::allocator<unsigned long> > >, std::__ndk1::hash<std::__ndk1::basic_string<char, std::__ndk1::char_traits<char>, std::__ndk1::allocator<char> > >, std::__ndk1::equal_to<std::__ndk1::basic_string<char, std::__ndk1::char_traits<char>, std::__ndk1::allocator<char> > >, true>, std::__ndk1::__unordered_map_equal<std::__ndk1::basic_string<char, std::__ndk1::char_traits<char>, std::__ndk1::allocator<char> >, std::__ndk1::__hash_value_type<std::__ndk1::basic_string<char, std::__ndk1::char_traits<char>, std::__ndk1::allocator<char> >, std::__ndk1::unordered_set<unsigned long, std::__ndk1::hash<unsigned long>, std::__ndk1::equal_to<unsigned long>, std::__ndk1::allocator<unsigned long> > >, std::__ndk1::equal_to<std::__ndk1::basic_string<char, std::__ndk1::char_traits<char>, std::__ndk1::allocator<char> > >, std::__ndk1::hash<std::__ndk1::basic_string<char, std::__ndk1::char_traits<char>, std::__ndk1::allocator<char> > >, true>, std::__ndk1::allocator<std::__ndk1::__hash_value_type<std::__ndk1::basic_string<char, std::__ndk1::char_traits<char>, std::__ndk1::allocator<char> >, std::__ndk1::unordered_set<unsigned long, std::__ndk1::hash<unsigned long>, std::__ndk1::equal_to<unsigned long>, std::__ndk1::allocator<unsigned long> > > > >::find<std::__ndk1::basic_string<char, std::__ndk1::char_traits<char>, std::__ndk1::allocator<char> > >(std::__ndk1::basic_string<char, std::__ndk1::char_traits<char>, std::__ndk1::allocator<char> > const&)
PUBLIC 65da0 0 std::__ndk1::__hash_table<std::__ndk1::__hash_value_type<std::__ndk1::basic_string<char, std::__ndk1::char_traits<char>, std::__ndk1::allocator<char> >, std::__ndk1::unordered_set<unsigned long, std::__ndk1::hash<unsigned long>, std::__ndk1::equal_to<unsigned long>, std::__ndk1::allocator<unsigned long> > >, std::__ndk1::__unordered_map_hasher<std::__ndk1::basic_string<char, std::__ndk1::char_traits<char>, std::__ndk1::allocator<char> >, std::__ndk1::__hash_value_type<std::__ndk1::basic_string<char, std::__ndk1::char_traits<char>, std::__ndk1::allocator<char> >, std::__ndk1::unordered_set<unsigned long, std::__ndk1::hash<unsigned long>, std::__ndk1::equal_to<unsigned long>, std::__ndk1::allocator<unsigned long> > >, std::__ndk1::hash<std::__ndk1::basic_string<char, std::__ndk1::char_traits<char>, std::__ndk1::allocator<char> > >, std::__ndk1::equal_to<std::__ndk1::basic_string<char, std::__ndk1::char_traits<char>, std::__ndk1::allocator<char> > >, true>, std::__ndk1::__unordered_map_equal<std::__ndk1::basic_string<char, std::__ndk1::char_traits<char>, std::__ndk1::allocator<char> >, std::__ndk1::__hash_value_type<std::__ndk1::basic_string<char, std::__ndk1::char_traits<char>, std::__ndk1::allocator<char> >, std::__ndk1::unordered_set<unsigned long, std::__ndk1::hash<unsigned long>, std::__ndk1::equal_to<unsigned long>, std::__ndk1::allocator<unsigned long> > >, std::__ndk1::equal_to<std::__ndk1::basic_string<char, std::__ndk1::char_traits<char>, std::__ndk1::allocator<char> > >, std::__ndk1::hash<std::__ndk1::basic_string<char, std::__ndk1::char_traits<char>, std::__ndk1::allocator<char> > >, true>, std::__ndk1::allocator<std::__ndk1::__hash_value_type<std::__ndk1::basic_string<char, std::__ndk1::char_traits<char>, std::__ndk1::allocator<char> >, std::__ndk1::unordered_set<unsigned long, std::__ndk1::hash<unsigned long>, std::__ndk1::equal_to<unsigned long>, std::__ndk1::allocator<unsigned long> > > > >::__emplace_unique_key_args<std::__ndk1::basic_string<char, std::__ndk1::char_traits<char>, std::__ndk1::allocator<char> >, std::__ndk1::pair<std::__ndk1::basic_string<char, std::__ndk1::char_traits<char>, std::__ndk1::allocator<char> >, std::__ndk1::unordered_set<unsigned long, std::__ndk1::hash<unsigned long>, std::__ndk1::equal_to<unsigned long>, std::__ndk1::allocator<unsigned long> > > >(std::__ndk1::basic_string<char, std::__ndk1::char_traits<char>, std::__ndk1::allocator<char> > const&, std::__ndk1::pair<std::__ndk1::basic_string<char, std::__ndk1::char_traits<char>, std::__ndk1::allocator<char> >, std::__ndk1::unordered_set<unsigned long, std::__ndk1::hash<unsigned long>, std::__ndk1::equal_to<unsigned long>, std::__ndk1::allocator<unsigned long> > >&&)
PUBLIC 66298 0 std::__ndk1::unique_ptr<std::__ndk1::__hash_node<std::__ndk1::__hash_value_type<std::__ndk1::basic_string<char, std::__ndk1::char_traits<char>, std::__ndk1::allocator<char> >, std::__ndk1::unordered_set<unsigned long, std::__ndk1::hash<unsigned long>, std::__ndk1::equal_to<unsigned long>, std::__ndk1::allocator<unsigned long> > >, void*>, std::__ndk1::__hash_node_destructor<std::__ndk1::allocator<std::__ndk1::__hash_node<std::__ndk1::__hash_value_type<std::__ndk1::basic_string<char, std::__ndk1::char_traits<char>, std::__ndk1::allocator<char> >, std::__ndk1::unordered_set<unsigned long, std::__ndk1::hash<unsigned long>, std::__ndk1::equal_to<unsigned long>, std::__ndk1::allocator<unsigned long> > >, void*> > > >::~unique_ptr[abi:v170000]()
PUBLIC 6630c 0 std::__ndk1::__hash_table<std::__ndk1::__hash_value_type<std::__ndk1::basic_string<char, std::__ndk1::char_traits<char>, std::__ndk1::allocator<char> >, std::__ndk1::unordered_set<unsigned long, std::__ndk1::hash<unsigned long>, std::__ndk1::equal_to<unsigned long>, std::__ndk1::allocator<unsigned long> > >, std::__ndk1::__unordered_map_hasher<std::__ndk1::basic_string<char, std::__ndk1::char_traits<char>, std::__ndk1::allocator<char> >, std::__ndk1::__hash_value_type<std::__ndk1::basic_string<char, std::__ndk1::char_traits<char>, std::__ndk1::allocator<char> >, std::__ndk1::unordered_set<unsigned long, std::__ndk1::hash<unsigned long>, std::__ndk1::equal_to<unsigned long>, std::__ndk1::allocator<unsigned long> > >, std::__ndk1::hash<std::__ndk1::basic_string<char, std::__ndk1::char_traits<char>, std::__ndk1::allocator<char> > >, std::__ndk1::equal_to<std::__ndk1::basic_string<char, std::__ndk1::char_traits<char>, std::__ndk1::allocator<char> > >, true>, std::__ndk1::__unordered_map_equal<std::__ndk1::basic_string<char, std::__ndk1::char_traits<char>, std::__ndk1::allocator<char> >, std::__ndk1::__hash_value_type<std::__ndk1::basic_string<char, std::__ndk1::char_traits<char>, std::__ndk1::allocator<char> >, std::__ndk1::unordered_set<unsigned long, std::__ndk1::hash<unsigned long>, std::__ndk1::equal_to<unsigned long>, std::__ndk1::allocator<unsigned long> > >, std::__ndk1::equal_to<std::__ndk1::basic_string<char, std::__ndk1::char_traits<char>, std::__ndk1::allocator<char> > >, std::__ndk1::hash<std::__ndk1::basic_string<char, std::__ndk1::char_traits<char>, std::__ndk1::allocator<char> > >, true>, std::__ndk1::allocator<std::__ndk1::__hash_value_type<std::__ndk1::basic_string<char, std::__ndk1::char_traits<char>, std::__ndk1::allocator<char> >, std::__ndk1::unordered_set<unsigned long, std::__ndk1::hash<unsigned long>, std::__ndk1::equal_to<unsigned long>, std::__ndk1::allocator<unsigned long> > > > >::__do_rehash<true>(unsigned long)
PUBLIC 664e4 0 std::__ndk1::__hash_table<unsigned long, std::__ndk1::hash<unsigned long>, std::__ndk1::equal_to<unsigned long>, std::__ndk1::allocator<unsigned long> >::__emplace_unique_key_args<unsigned long, unsigned long>(unsigned long const&, unsigned long&&)
PUBLIC 66800 0 std::__ndk1::__hash_table<unsigned long, std::__ndk1::hash<unsigned long>, std::__ndk1::equal_to<unsigned long>, std::__ndk1::allocator<unsigned long> >::__erase_unique<unsigned long>(unsigned long const&)
PUBLIC 66940 0 std::__ndk1::__hash_table<unsigned long, std::__ndk1::hash<unsigned long>, std::__ndk1::equal_to<unsigned long>, std::__ndk1::allocator<unsigned long> >::remove(std::__ndk1::__hash_const_iterator<std::__ndk1::__hash_node<unsigned long, void*>*>)
PUBLIC 66a74 0 std::__ndk1::__hash_table<std::__ndk1::__hash_value_type<std::__ndk1::basic_string<char, std::__ndk1::char_traits<char>, std::__ndk1::allocator<char> >, std::__ndk1::unordered_set<unsigned long, std::__ndk1::hash<unsigned long>, std::__ndk1::equal_to<unsigned long>, std::__ndk1::allocator<unsigned long> > >, std::__ndk1::__unordered_map_hasher<std::__ndk1::basic_string<char, std::__ndk1::char_traits<char>, std::__ndk1::allocator<char> >, std::__ndk1::__hash_value_type<std::__ndk1::basic_string<char, std::__ndk1::char_traits<char>, std::__ndk1::allocator<char> >, std::__ndk1::unordered_set<unsigned long, std::__ndk1::hash<unsigned long>, std::__ndk1::equal_to<unsigned long>, std::__ndk1::allocator<unsigned long> > >, std::__ndk1::hash<std::__ndk1::basic_string<char, std::__ndk1::char_traits<char>, std::__ndk1::allocator<char> > >, std::__ndk1::equal_to<std::__ndk1::basic_string<char, std::__ndk1::char_traits<char>, std::__ndk1::allocator<char> > >, true>, std::__ndk1::__unordered_map_equal<std::__ndk1::basic_string<char, std::__ndk1::char_traits<char>, std::__ndk1::allocator<char> >, std::__ndk1::__hash_value_type<std::__ndk1::basic_string<char, std::__ndk1::char_traits<char>, std::__ndk1::allocator<char> >, std::__ndk1::unordered_set<unsigned long, std::__ndk1::hash<unsigned long>, std::__ndk1::equal_to<unsigned long>, std::__ndk1::allocator<unsigned long> > >, std::__ndk1::equal_to<std::__ndk1::basic_string<char, std::__ndk1::char_traits<char>, std::__ndk1::allocator<char> > >, std::__ndk1::hash<std::__ndk1::basic_string<char, std::__ndk1::char_traits<char>, std::__ndk1::allocator<char> > >, true>, std::__ndk1::allocator<std::__ndk1::__hash_value_type<std::__ndk1::basic_string<char, std::__ndk1::char_traits<char>, std::__ndk1::allocator<char> >, std::__ndk1::unordered_set<unsigned long, std::__ndk1::hash<unsigned long>, std::__ndk1::equal_to<unsigned long>, std::__ndk1::allocator<unsigned long> > > > >::erase(std::__ndk1::__hash_const_iterator<std::__ndk1::__hash_node<std::__ndk1::__hash_value_type<std::__ndk1::basic_string<char, std::__ndk1::char_traits<char>, std::__ndk1::allocator<char> >, std::__ndk1::unordered_set<unsigned long, std::__ndk1::hash<unsigned long>, std::__ndk1::equal_to<unsigned long>, std::__ndk1::allocator<unsigned long> > >, void*>*>)
PUBLIC 66b20 0 std::__ndk1::__hash_table<std::__ndk1::__hash_value_type<std::__ndk1::basic_string<char, std::__ndk1::char_traits<char>, std::__ndk1::allocator<char> >, std::__ndk1::unordered_set<unsigned long, std::__ndk1::hash<unsigned long>, std::__ndk1::equal_to<unsigned long>, std::__ndk1::allocator<unsigned long> > >, std::__ndk1::__unordered_map_hasher<std::__ndk1::basic_string<char, std::__ndk1::char_traits<char>, std::__ndk1::allocator<char> >, std::__ndk1::__hash_value_type<std::__ndk1::basic_string<char, std::__ndk1::char_traits<char>, std::__ndk1::allocator<char> >, std::__ndk1::unordered_set<unsigned long, std::__ndk1::hash<unsigned long>, std::__ndk1::equal_to<unsigned long>, std::__ndk1::allocator<unsigned long> > >, std::__ndk1::hash<std::__ndk1::basic_string<char, std::__ndk1::char_traits<char>, std::__ndk1::allocator<char> > >, std::__ndk1::equal_to<std::__ndk1::basic_string<char, std::__ndk1::char_traits<char>, std::__ndk1::allocator<char> > >, true>, std::__ndk1::__unordered_map_equal<std::__ndk1::basic_string<char, std::__ndk1::char_traits<char>, std::__ndk1::allocator<char> >, std::__ndk1::__hash_value_type<std::__ndk1::basic_string<char, std::__ndk1::char_traits<char>, std::__ndk1::allocator<char> >, std::__ndk1::unordered_set<unsigned long, std::__ndk1::hash<unsigned long>, std::__ndk1::equal_to<unsigned long>, std::__ndk1::allocator<unsigned long> > >, std::__ndk1::equal_to<std::__ndk1::basic_string<char, std::__ndk1::char_traits<char>, std::__ndk1::allocator<char> > >, std::__ndk1::hash<std::__ndk1::basic_string<char, std::__ndk1::char_traits<char>, std::__ndk1::allocator<char> > >, true>, std::__ndk1::allocator<std::__ndk1::__hash_value_type<std::__ndk1::basic_string<char, std::__ndk1::char_traits<char>, std::__ndk1::allocator<char> >, std::__ndk1::unordered_set<unsigned long, std::__ndk1::hash<unsigned long>, std::__ndk1::equal_to<unsigned long>, std::__ndk1::allocator<unsigned long> > > > >::remove(std::__ndk1::__hash_const_iterator<std::__ndk1::__hash_node<std::__ndk1::__hash_value_type<std::__ndk1::basic_string<char, std::__ndk1::char_traits<char>, std::__ndk1::allocator<char> >, std::__ndk1::unordered_set<unsigned long, std::__ndk1::hash<unsigned long>, std::__ndk1::equal_to<unsigned long>, std::__ndk1::allocator<unsigned long> > >, void*>*>)
PUBLIC 66c54 0 std::__ndk1::__hash_table<std::__ndk1::__hash_value_type<std::__ndk1::basic_string<char, std::__ndk1::char_traits<char>, std::__ndk1::allocator<char> >, float>, std::__ndk1::__unordered_map_hasher<std::__ndk1::basic_string<char, std::__ndk1::char_traits<char>, std::__ndk1::allocator<char> >, std::__ndk1::__hash_value_type<std::__ndk1::basic_string<char, std::__ndk1::char_traits<char>, std::__ndk1::allocator<char> >, float>, std::__ndk1::hash<std::__ndk1::basic_string<char, std::__ndk1::char_traits<char>, std::__ndk1::allocator<char> > >, std::__ndk1::equal_to<std::__ndk1::basic_string<char, std::__ndk1::char_traits<char>, std::__ndk1::allocator<char> > >, true>, std::__ndk1::__unordered_map_equal<std::__ndk1::basic_string<char, std::__ndk1::char_traits<char>, std::__ndk1::allocator<char> >, std::__ndk1::__hash_value_type<std::__ndk1::basic_string<char, std::__ndk1::char_traits<char>, std::__ndk1::allocator<char> >, float>, std::__ndk1::equal_to<std::__ndk1::basic_string<char, std::__ndk1::char_traits<char>, std::__ndk1::allocator<char> > >, std::__ndk1::hash<std::__ndk1::basic_string<char, std::__ndk1::char_traits<char>, std::__ndk1::allocator<char> > >, true>, std::__ndk1::allocator<std::__ndk1::__hash_value_type<std::__ndk1::basic_string<char, std::__ndk1::char_traits<char>, std::__ndk1::allocator<char> >, float> > >::find<std::__ndk1::basic_string<char, std::__ndk1::char_traits<char>, std::__ndk1::allocator<char> > >(std::__ndk1::basic_string<char, std::__ndk1::char_traits<char>, std::__ndk1::allocator<char> > const&)
PUBLIC 66e9c 0 std::__ndk1::__hash_table<std::__ndk1::__hash_value_type<std::__ndk1::basic_string<char, std::__ndk1::char_traits<char>, std::__ndk1::allocator<char> >, float>, std::__ndk1::__unordered_map_hasher<std::__ndk1::basic_string<char, std::__ndk1::char_traits<char>, std::__ndk1::allocator<char> >, std::__ndk1::__hash_value_type<std::__ndk1::basic_string<char, std::__ndk1::char_traits<char>, std::__ndk1::allocator<char> >, float>, std::__ndk1::hash<std::__ndk1::basic_string<char, std::__ndk1::char_traits<char>, std::__ndk1::allocator<char> > >, std::__ndk1::equal_to<std::__ndk1::basic_string<char, std::__ndk1::char_traits<char>, std::__ndk1::allocator<char> > >, true>, std::__ndk1::__unordered_map_equal<std::__ndk1::basic_string<char, std::__ndk1::char_traits<char>, std::__ndk1::allocator<char> >, std::__ndk1::__hash_value_type<std::__ndk1::basic_string<char, std::__ndk1::char_traits<char>, std::__ndk1::allocator<char> >, float>, std::__ndk1::equal_to<std::__ndk1::basic_string<char, std::__ndk1::char_traits<char>, std::__ndk1::allocator<char> > >, std::__ndk1::hash<std::__ndk1::basic_string<char, std::__ndk1::char_traits<char>, std::__ndk1::allocator<char> > >, true>, std::__ndk1::allocator<std::__ndk1::__hash_value_type<std::__ndk1::basic_string<char, std::__ndk1::char_traits<char>, std::__ndk1::allocator<char> >, float> > >::remove(std::__ndk1::__hash_const_iterator<std::__ndk1::__hash_node<std::__ndk1::__hash_value_type<std::__ndk1::basic_string<char, std::__ndk1::char_traits<char>, std::__ndk1::allocator<char> >, float>, void*>*>)
PUBLIC 66fd0 0 std::__ndk1::unique_ptr<std::__ndk1::__hash_node<std::__ndk1::__hash_value_type<std::__ndk1::basic_string<char, std::__ndk1::char_traits<char>, std::__ndk1::allocator<char> >, float>, void*>, std::__ndk1::__hash_node_destructor<std::__ndk1::allocator<std::__ndk1::__hash_node<std::__ndk1::__hash_value_type<std::__ndk1::basic_string<char, std::__ndk1::char_traits<char>, std::__ndk1::allocator<char> >, float>, void*> > > >::~unique_ptr[abi:v170000]()
PUBLIC 6701c 0 std::__ndk1::__hash_table<std::__ndk1::__hash_value_type<std::__ndk1::basic_string<char, std::__ndk1::char_traits<char>, std::__ndk1::allocator<char> >, float>, std::__ndk1::__unordered_map_hasher<std::__ndk1::basic_string<char, std::__ndk1::char_traits<char>, std::__ndk1::allocator<char> >, std::__ndk1::__hash_value_type<std::__ndk1::basic_string<char, std::__ndk1::char_traits<char>, std::__ndk1::allocator<char> >, float>, std::__ndk1::hash<std::__ndk1::basic_string<char, std::__ndk1::char_traits<char>, std::__ndk1::allocator<char> > >, std::__ndk1::equal_to<std::__ndk1::basic_string<char, std::__ndk1::char_traits<char>, std::__ndk1::allocator<char> > >, true>, std::__ndk1::__unordered_map_equal<std::__ndk1::basic_string<char, std::__ndk1::char_traits<char>, std::__ndk1::allocator<char> >, std::__ndk1::__hash_value_type<std::__ndk1::basic_string<char, std::__ndk1::char_traits<char>, std::__ndk1::allocator<char> >, float>, std::__ndk1::equal_to<std::__ndk1::basic_string<char, std::__ndk1::char_traits<char>, std::__ndk1::allocator<char> > >, std::__ndk1::hash<std::__ndk1::basic_string<char, std::__ndk1::char_traits<char>, std::__ndk1::allocator<char> > >, true>, std::__ndk1::allocator<std::__ndk1::__hash_value_type<std::__ndk1::basic_string<char, std::__ndk1::char_traits<char>, std::__ndk1::allocator<char> >, float> > >::__emplace_unique_key_args<std::__ndk1::basic_string<char, std::__ndk1::char_traits<char>, std::__ndk1::allocator<char> >, std::__ndk1::pair<std::__ndk1::basic_string<char, std::__ndk1::char_traits<char>, std::__ndk1::allocator<char> >, float> >(std::__ndk1::basic_string<char, std::__ndk1::char_traits<char>, std::__ndk1::allocator<char> > const&, std::__ndk1::pair<std::__ndk1::basic_string<char, std::__ndk1::char_traits<char>, std::__ndk1::allocator<char> >, float>&&)
PUBLIC 674a4 0 std::__ndk1::__hash_table<std::__ndk1::__hash_value_type<std::__ndk1::basic_string<char, std::__ndk1::char_traits<char>, std::__ndk1::allocator<char> >, float>, std::__ndk1::__unordered_map_hasher<std::__ndk1::basic_string<char, std::__ndk1::char_traits<char>, std::__ndk1::allocator<char> >, std::__ndk1::__hash_value_type<std::__ndk1::basic_string<char, std::__ndk1::char_traits<char>, std::__ndk1::allocator<char> >, float>, std::__ndk1::hash<std::__ndk1::basic_string<char, std::__ndk1::char_traits<char>, std::__ndk1::allocator<char> > >, std::__ndk1::equal_to<std::__ndk1::basic_string<char, std::__ndk1::char_traits<char>, std::__ndk1::allocator<char> > >, true>, std::__ndk1::__unordered_map_equal<std::__ndk1::basic_string<char, std::__ndk1::char_traits<char>, std::__ndk1::allocator<char> >, std::__ndk1::__hash_value_type<std::__ndk1::basic_string<char, std::__ndk1::char_traits<char>, std::__ndk1::allocator<char> >, float>, std::__ndk1::equal_to<std::__ndk1::basic_string<char, std::__ndk1::char_traits<char>, std::__ndk1::allocator<char> > >, std::__ndk1::hash<std::__ndk1::basic_string<char, std::__ndk1::char_traits<char>, std::__ndk1::allocator<char> > >, true>, std::__ndk1::allocator<std::__ndk1::__hash_value_type<std::__ndk1::basic_string<char, std::__ndk1::char_traits<char>, std::__ndk1::allocator<char> >, float> > >::__do_rehash<true>(unsigned long)
PUBLIC 6767c 0 geode::EventListener<geode::ModStateFilter>::getPool() const
PUBLIC 67680 0 geode::EventListener<geode::ModStateFilter>::handle(geode::Event*)
PUBLIC 67788 0 geode::EventListener<geode::ModStateFilter>::~EventListener()
PUBLIC 677c8 0 geode::EventListener<geode::ModStateFilter>::~EventListener()
PUBLIC 67810 0 geode::utils::MiniFunctionState<void (*)(geode::ModStateEvent*), void, geode::ModStateEvent*>::~MiniFunctionState()
PUBLIC 67814 0 geode::utils::MiniFunctionState<void (*)(geode::ModStateEvent*), void, geode::ModStateEvent*>::call(geode::ModStateEvent*) const
PUBLIC 67820 0 geode::utils::MiniFunctionState<void (*)(geode::ModStateEvent*), void, geode::ModStateEvent*>::clone() const
PUBLIC 67854 0 geode::utils::MiniFunctionStateBase<void, geode::ModStateEvent*>::~MiniFunctionStateBase()
PUBLIC 67858 0 _GLOBAL__sub_I_Keybinds.cpp
PUBLIC 67958 0 EnterBindLayer::setup(BindableNode*, keybinds::Bind*)
PUBLIC 67e1c 0 geode::Popup<BindableNode*, keybinds::Bind*>::setTitle(std::__ndk1::basic_string<char, std::__ndk1::char_traits<char>, std::__ndk1::allocator<char> > const&, char const*, float, float)
PUBLIC 67f68 0 EnterBindLayer::updateUsedBy()
PUBLIC 682cc 0 EnterBindLayer::onSet(cocos2d::CCObject*)
PUBLIC 683f4 0 EnterBindLayer::onRemove(cocos2d::CCObject*)
PUBLIC 684cc 0 BindableNode::updateMenu(bool)
PUBLIC 68d64 0 EnterBindLayer::onPressed(keybinds::PressBindEvent*)
PUBLIC 68eac 0 EnterBindLayer::create(BindableNode*, keybinds::Bind*)
PUBLIC 69044 0 EditRepeatPopup::setup(BindableNode*)
PUBLIC 697a0 0 geode::Popup<BindableNode*>::setTitle(std::__ndk1::basic_string<char, std::__ndk1::char_traits<char>, std::__ndk1::allocator<char> > const&, char const*, float, float)
PUBLIC 698ec 0 EditRepeatPopup::onEnabled(cocos2d::CCObject*)
PUBLIC 6991c 0 EditRepeatPopup::onClose(cocos2d::CCObject*)
PUBLIC 69a14 0 geode::Popup<BindableNode*>::onClose(cocos2d::CCObject*)
PUBLIC 69a64 0 EditRepeatPopup::create(BindableNode*)
PUBLIC 69ba4 0 BindableNode::init(KeybindsLayer*, keybinds::BindableAction const&, float, bool)
PUBLIC 6a100 0 BindableNode::onInfo(cocos2d::CCObject*)
PUBLIC 6a470 0 BindableNode::onEditBind(cocos2d::CCObject*)
PUBLIC 6a4d0 0 BindableNode::onExpand(cocos2d::CCObject*)
PUBLIC 6a4e0 0 BindableNode::onAddBind(cocos2d::CCObject*)
PUBLIC 6a534 0 BindableNode::onEditRepeat(cocos2d::CCObject*)
PUBLIC 6a57c 0 BindableNode::onResetToDefault(cocos2d::CCObject*)
PUBLIC 6a754 0 KeybindsLayer::updateVisibility()
PUBLIC 6ac04 0 BindableNode::getMatchString() const
PUBLIC 6b144 0 KeybindsLayer::setup()
PUBLIC 6bc98 0 geode::Popup<>::setTitle(std::__ndk1::basic_string<char, std::__ndk1::char_traits<char>, std::__ndk1::allocator<char> > const&, char const*, float, float)
PUBLIC 6bde4 0 std::__ndk1::vector<cocos2d::CCNode*, std::__ndk1::allocator<cocos2d::CCNode*> >::insert(std::__ndk1::__wrap_iter<cocos2d::CCNode* const*>, cocos2d::CCNode* const&)
PUBLIC 6c140 0 std::__ndk1::vector<std::__ndk1::basic_string<char, std::__ndk1::char_traits<char>, std::__ndk1::allocator<char> >, std::__ndk1::allocator<std::__ndk1::basic_string<char, std::__ndk1::char_traits<char>, std::__ndk1::allocator<char> > > >::~vector[abi:v170000]()
PUBLIC 6c1bc 0 KeybindsLayer::onResetAll(cocos2d::CCObject*)
PUBLIC 6c30c 0 geode::cocos::CCArrayExt<cocos2d::CCNode*>::~CCArrayExt()
PUBLIC 6c32c 0 KeybindsLayer::search(std::__ndk1::basic_string<char, std::__ndk1::char_traits<char>, std::__ndk1::allocator<char> > const&)
PUBLIC 6c4f8 0 KeybindsLayer::textChanged(CCTextInputNode*)
PUBLIC 6c5b4 0 {virtual override thunk({offset(-672)}, KeybindsLayer::textChanged(CCTextInputNode*))}
PUBLIC 6c5bc 0 KeybindsLayer::onDevice(keybinds::DeviceEvent*)
PUBLIC 6c5f8 0 KeybindsLayer::create()
PUBLIC 6c6c8 0 KeybindsLayer::KeybindsLayer()
PUBLIC 6c8a0 0 EnterBindLayer::~EnterBindLayer()
PUBLIC 6c9a4 0 EnterBindLayer::~EnterBindLayer()
PUBLIC 6c9c8 0 geode::Popup<BindableNode*, keybinds::Bind*>::registerWithTouchDispatcher()
PUBLIC 6c9f4 0 geode::Popup<BindableNode*, keybinds::Bind*>::keyDown(cocos2d::enumKeyCodes)
PUBLIC 6ca1c 0 cocos2d::CCLayerRGBA::setOpacityModifyRGB(bool)
PUBLIC 6ca20 0 cocos2d::CCLayerRGBA::isOpacityModifyRGB()
PUBLIC 6ca28 0 geode::Popup<BindableNode*, keybinds::Bind*>::onClose(cocos2d::CCObject*)
PUBLIC 6ca78 0 {virtual override thunk({offset(-320)}, EnterBindLayer::~EnterBindLayer())}
PUBLIC 6ca80 0 {virtual override thunk({offset(-320)}, EnterBindLayer::~EnterBindLayer())}
PUBLIC 6caa8 0 {virtual override thunk({offset(-344)}, geode::Popup<BindableNode*, keybinds::Bind*>::keyDown(cocos2d::enumKeyCodes))}
PUBLIC 6cad4 0 cocos2d::CCKeyboardDelegate::keyUp(cocos2d::enumKeyCodes)
PUBLIC 6cad8 0 cocos2d::CCMouseDelegate::rightKeyDown()
PUBLIC 6cadc 0 cocos2d::CCMouseDelegate::rightKeyUp()
PUBLIC 6cae0 0 cocos2d::CCMouseDelegate::scrollWheel(float, float)
PUBLIC 6cae4 0 {virtual override thunk({offset(-408)}, cocos2d::CCLayerRGBA::setOpacityModifyRGB(bool))}
PUBLIC 6cae8 0 {virtual override thunk({offset(-408)}, cocos2d::CCLayerRGBA::isOpacityModifyRGB())}
PUBLIC 6caf0 0 EditRepeatPopup::~EditRepeatPopup()
PUBLIC 6cba8 0 EditRepeatPopup::~EditRepeatPopup()
PUBLIC 6cc68 0 geode::Popup<BindableNode*>::registerWithTouchDispatcher()
PUBLIC 6cc94 0 geode::Popup<BindableNode*>::keyDown(cocos2d::enumKeyCodes)
PUBLIC 6ccbc 0 {virtual override thunk({offset(-320)}, EditRepeatPopup::~EditRepeatPopup())}
PUBLIC 6cd78 0 {virtual override thunk({offset(-320)}, EditRepeatPopup::~EditRepeatPopup())}
PUBLIC 6ce3c 0 {virtual override thunk({offset(-344)}, geode::Popup<BindableNode*>::keyDown(cocos2d::enumKeyCodes))}
PUBLIC 6ce68 0 KeybindsLayer::~KeybindsLayer()
PUBLIC 6cf8c 0 KeybindsLayer::~KeybindsLayer()
PUBLIC 6cfb0 0 geode::Popup<>::registerWithTouchDispatcher()
PUBLIC 6cfdc 0 geode::Popup<>::keyDown(cocos2d::enumKeyCodes)
PUBLIC 6d004 0 geode::Popup<>::onClose(cocos2d::CCObject*)
PUBLIC 6d054 0 {virtual override thunk({offset(-320)}, KeybindsLayer::~KeybindsLayer())}
PUBLIC 6d05c 0 {virtual override thunk({offset(-320)}, KeybindsLayer::~KeybindsLayer())}
PUBLIC 6d084 0 {virtual override thunk({offset(-344)}, geode::Popup<>::keyDown(cocos2d::enumKeyCodes))}
PUBLIC 6d0b0 0 geode::EventListener<keybinds::PressBindFilter>::EventListener<EnterBindLayer>(geode::to_member<EnterBindLayer, geode::ListenerResult(keybinds::PressBindEvent*)>::value, keybinds::PressBindFilter)
PUBLIC 6d1c8 0 geode::Ref<BindableNode>::~Ref()
PUBLIC 6d1e8 0 geode::Popup<BindableNode*, keybinds::Bind*>::~Popup()
PUBLIC 6d254 0 geode::Popup<BindableNode*, keybinds::Bind*>::~Popup()
PUBLIC 6d258 0 {virtual override thunk({offset(-320)}, geode::Popup<BindableNode*, keybinds::Bind*>::~Popup())}
PUBLIC 6d2c4 0 {virtual override thunk({offset(-320)}, geode::Popup<BindableNode*, keybinds::Bind*>::~Popup())}
PUBLIC 6d2c8 0 geode::utils::MiniFunctionState<std::__ndk1::__bind<geode::ListenerResult (EnterBindLayer::*&)(keybinds::PressBindEvent*), EnterBindLayer*&, std::__ndk1::placeholders::__ph<1> const&>, geode::ListenerResult, keybinds::PressBindEvent*>::~MiniFunctionState()
PUBLIC 6d2cc 0 geode::utils::MiniFunctionState<std::__ndk1::__bind<geode::ListenerResult (EnterBindLayer::*&)(keybinds::PressBindEvent*), EnterBindLayer*&, std::__ndk1::placeholders::__ph<1> const&>, geode::ListenerResult, keybinds::PressBindEvent*>::call(keybinds::PressBindEvent*) const
PUBLIC 6d2e8 0 geode::utils::MiniFunctionState<std::__ndk1::__bind<geode::ListenerResult (EnterBindLayer::*&)(keybinds::PressBindEvent*), EnterBindLayer*&, std::__ndk1::placeholders::__ph<1> const&>, geode::ListenerResult, keybinds::PressBindEvent*>::clone() const
PUBLIC 6d328 0 geode::Popup<BindableNode*>::~Popup()
PUBLIC 6d394 0 geode::Popup<BindableNode*>::~Popup()
PUBLIC 6d398 0 {virtual override thunk({offset(-320)}, geode::Popup<BindableNode*>::~Popup())}
PUBLIC 6d404 0 {virtual override thunk({offset(-320)}, geode::Popup<BindableNode*>::~Popup())}
PUBLIC 6d408 0 std::__ndk1::vector<geode::Ref<keybinds::Bind>, std::__ndk1::allocator<geode::Ref<keybinds::Bind> > >::assign<geode::Ref<keybinds::Bind>*, 0>(geode::Ref<keybinds::Bind>*, geode::Ref<keybinds::Bind>*)
PUBLIC 6d680 0 std::__ndk1::__throw_bad_optional_access[abi:v170000]()
PUBLIC 6d6b4 0 BindableNode::~BindableNode()
PUBLIC 6d6e8 0 BindableNode::~BindableNode()
PUBLIC 6d724 0 std::__ndk1::vector<cocos2d::CCNode*, std::__ndk1::allocator<cocos2d::CCNode*> >::__throw_length_error[abi:v170000]() const
PUBLIC 6d738 0 FoldableLayer::init(KeybindsLayer*, std::__ndk1::basic_string<char, std::__ndk1::char_traits<char>, std::__ndk1::allocator<char> > const&, float, unsigned long)
PUBLIC 6dbb0 0 FoldableLayer::~FoldableLayer()
PUBLIC 6dbd4 0 FoldableLayer::onFold(cocos2d::CCObject*)
PUBLIC 6dd70 0 std::__ndk1::vector<BindableNode*, std::__ndk1::allocator<BindableNode*> >::__throw_length_error[abi:v170000]() const
PUBLIC 6dd84 0 geode::EventListener<keybinds::DeviceFilter>::EventListener<KeybindsLayer>(geode::to_member<KeybindsLayer, void (keybinds::DeviceEvent*)>::value, keybinds::DeviceFilter)
PUBLIC 6dec4 0 geode::Popup<>::~Popup()
PUBLIC 6df30 0 geode::Popup<>::~Popup()
PUBLIC 6df34 0 {virtual override thunk({offset(-320)}, geode::Popup<>::~Popup())}
PUBLIC 6dfa0 0 {virtual override thunk({offset(-320)}, geode::Popup<>::~Popup())}
PUBLIC 6dfa4 0 geode::EventListener<keybinds::DeviceFilter>::EventListener(geode::utils::MiniFunction<void (keybinds::DeviceEvent*)>, keybinds::DeviceFilter)
PUBLIC 6e064 0 geode::utils::MiniFunctionState<std::__ndk1::__bind<void (KeybindsLayer::*&)(keybinds::DeviceEvent*), KeybindsLayer*&, std::__ndk1::placeholders::__ph<1> const&>, void, keybinds::DeviceEvent*>::~MiniFunctionState()
PUBLIC 6e068 0 geode::utils::MiniFunctionState<std::__ndk1::__bind<void (KeybindsLayer::*&)(keybinds::DeviceEvent*), KeybindsLayer*&, std::__ndk1::placeholders::__ph<1> const&>, void, keybinds::DeviceEvent*>::call(keybinds::DeviceEvent*) const
PUBLIC 6e084 0 geode::utils::MiniFunctionState<std::__ndk1::__bind<void (KeybindsLayer::*&)(keybinds::DeviceEvent*), KeybindsLayer*&, std::__ndk1::placeholders::__ph<1> const&>, void, keybinds::DeviceEvent*>::clone() const
PUBLIC 6e0c4 0 geode::utils::MiniFunctionStateBase<void, keybinds::DeviceEvent*>::~MiniFunctionStateBase()
PUBLIC 6e0c8 0 geode::EventListener<keybinds::DeviceFilter>::getPool() const
PUBLIC 6e0cc 0 geode::EventListener<keybinds::DeviceFilter>::handle(geode::Event*)
PUBLIC 6e1d4 0 geode::EventListener<keybinds::DeviceFilter>::~EventListener()
PUBLIC 6e22c 0 geode::EventListener<keybinds::DeviceFilter>::~EventListener()
PUBLIC 6e28c 0 geode::Popup<BindableNode*, keybinds::Bind*>::initBase(float, float, BindableNode*, keybinds::Bind*, char const*, cocos2d::CCRect, bool)
PUBLIC 6e594 0 std::__ndk1::__function::__base<void (std::__ndk1::basic_string<char, std::__ndk1::char_traits<char>, std::__ndk1::allocator<char> > const&)>::~__base()
PUBLIC 6e598 0 std::__ndk1::__function::__func<EditRepeatPopup::setup(BindableNode*)::$_0, std::__ndk1::allocator<EditRepeatPopup::setup(BindableNode*)::$_0>, void (std::__ndk1::basic_string<char, std::__ndk1::char_traits<char>, std::__ndk1::allocator<char> > const&)>::~__func()
PUBLIC 6e59c 0 std::__ndk1::__function::__func<EditRepeatPopup::setup(BindableNode*)::$_0, std::__ndk1::allocator<EditRepeatPopup::setup(BindableNode*)::$_0>, void (std::__ndk1::basic_string<char, std::__ndk1::char_traits<char>, std::__ndk1::allocator<char> > const&)>::__clone() const
PUBLIC 6e5d0 0 std::__ndk1::__function::__func<EditRepeatPopup::setup(BindableNode*)::$_0, std::__ndk1::allocator<EditRepeatPopup::setup(BindableNode*)::$_0>, void (std::__ndk1::basic_string<char, std::__ndk1::char_traits<char>, std::__ndk1::allocator<char> > const&)>::__clone(std::__ndk1::__function::__base<void (std::__ndk1::basic_string<char, std::__ndk1::char_traits<char>, std::__ndk1::allocator<char> > const&)>*) const
PUBLIC 6e5e4 0 std::__ndk1::__function::__func<EditRepeatPopup::setup(BindableNode*)::$_0, std::__ndk1::allocator<EditRepeatPopup::setup(BindableNode*)::$_0>, void (std::__ndk1::basic_string<char, std::__ndk1::char_traits<char>, std::__ndk1::allocator<char> > const&)>::destroy()
PUBLIC 6e5e8 0 std::__ndk1::__function::__func<EditRepeatPopup::setup(BindableNode*)::$_0, std::__ndk1::allocator<EditRepeatPopup::setup(BindableNode*)::$_0>, void (std::__ndk1::basic_string<char, std::__ndk1::char_traits<char>, std::__ndk1::allocator<char> > const&)>::destroy_deallocate()
PUBLIC 6e5ec 0 std::__ndk1::__function::__func<EditRepeatPopup::setup(BindableNode*)::$_0, std::__ndk1::allocator<EditRepeatPopup::setup(BindableNode*)::$_0>, void (std::__ndk1::basic_string<char, std::__ndk1::char_traits<char>, std::__ndk1::allocator<char> > const&)>::operator()(std::__ndk1::basic_string<char, std::__ndk1::char_traits<char>, std::__ndk1::allocator<char> > const&)
PUBLIC 6e8d0 0 std::__ndk1::__function::__func<EditRepeatPopup::setup(BindableNode*)::$_0, std::__ndk1::allocator<EditRepeatPopup::setup(BindableNode*)::$_0>, void (std::__ndk1::basic_string<char, std::__ndk1::char_traits<char>, std::__ndk1::allocator<char> > const&)>::target(std::type_info const&) const
PUBLIC 6e8ec 0 std::__ndk1::__function::__func<EditRepeatPopup::setup(BindableNode*)::$_0, std::__ndk1::allocator<EditRepeatPopup::setup(BindableNode*)::$_0>, void (std::__ndk1::basic_string<char, std::__ndk1::char_traits<char>, std::__ndk1::allocator<char> > const&)>::target_type() const
PUBLIC 6e8f8 0 std::__ndk1::__function::__func<EditRepeatPopup::setup(BindableNode*)::$_1, std::__ndk1::allocator<EditRepeatPopup::setup(BindableNode*)::$_1>, void (std::__ndk1::basic_string<char, std::__ndk1::char_traits<char>, std::__ndk1::allocator<char> > const&)>::~__func()
PUBLIC 6e8fc 0 std::__ndk1::__function::__func<EditRepeatPopup::setup(BindableNode*)::$_1, std::__ndk1::allocator<EditRepeatPopup::setup(BindableNode*)::$_1>, void (std::__ndk1::basic_string<char, std::__ndk1::char_traits<char>, std::__ndk1::allocator<char> > const&)>::__clone() const
PUBLIC 6e930 0 std::__ndk1::__function::__func<EditRepeatPopup::setup(BindableNode*)::$_1, std::__ndk1::allocator<EditRepeatPopup::setup(BindableNode*)::$_1>, void (std::__ndk1::basic_string<char, std::__ndk1::char_traits<char>, std::__ndk1::allocator<char> > const&)>::__clone(std::__ndk1::__function::__base<void (std::__ndk1::basic_string<char, std::__ndk1::char_traits<char>, std::__ndk1::allocator<char> > const&)>*) const
PUBLIC 6e944 0 std::__ndk1::__function::__func<EditRepeatPopup::setup(BindableNode*)::$_1, std::__ndk1::allocator<EditRepeatPopup::setup(BindableNode*)::$_1>, void (std::__ndk1::basic_string<char, std::__ndk1::char_traits<char>, std::__ndk1::allocator<char> > const&)>::destroy()
PUBLIC 6e948 0 std::__ndk1::__function::__func<EditRepeatPopup::setup(BindableNode*)::$_1, std::__ndk1::allocator<EditRepeatPopup::setup(BindableNode*)::$_1>, void (std::__ndk1::basic_string<char, std::__ndk1::char_traits<char>, std::__ndk1::allocator<char> > const&)>::destroy_deallocate()
PUBLIC 6e94c 0 std::__ndk1::__function::__func<EditRepeatPopup::setup(BindableNode*)::$_1, std::__ndk1::allocator<EditRepeatPopup::setup(BindableNode*)::$_1>, void (std::__ndk1::basic_string<char, std::__ndk1::char_traits<char>, std::__ndk1::allocator<char> > const&)>::operator()(std::__ndk1::basic_string<char, std::__ndk1::char_traits<char>, std::__ndk1::allocator<char> > const&)
PUBLIC 6ec30 0 std::__ndk1::__function::__func<EditRepeatPopup::setup(BindableNode*)::$_1, std::__ndk1::allocator<EditRepeatPopup::setup(BindableNode*)::$_1>, void (std::__ndk1::basic_string<char, std::__ndk1::char_traits<char>, std::__ndk1::allocator<char> > const&)>::target(std::type_info const&) const
PUBLIC 6ec4c 0 std::__ndk1::__function::__func<EditRepeatPopup::setup(BindableNode*)::$_1, std::__ndk1::allocator<EditRepeatPopup::setup(BindableNode*)::$_1>, void (std::__ndk1::basic_string<char, std::__ndk1::char_traits<char>, std::__ndk1::allocator<char> > const&)>::target_type() const
PUBLIC 6ec58 0 geode::Popup<BindableNode*>::initBase(float, float, BindableNode*, char const*, cocos2d::CCRect, bool)
PUBLIC 6ef78 0 geode::utils::MiniFunctionState<BindableNode::onResetToDefault(cocos2d::CCObject*)::$_0, void, FLAlertLayer*, bool>::~MiniFunctionState()
PUBLIC 6ef7c 0 geode::utils::MiniFunctionState<BindableNode::onResetToDefault(cocos2d::CCObject*)::$_0, void, FLAlertLayer*, bool>::call(FLAlertLayer*, bool) const
PUBLIC 6f034 0 geode::utils::MiniFunctionState<BindableNode::onResetToDefault(cocos2d::CCObject*)::$_0, void, FLAlertLayer*, bool>::clone() const
PUBLIC 6f068 0 geode::utils::MiniFunctionStateBase<void, FLAlertLayer*, bool>::~MiniFunctionStateBase()
PUBLIC 6f06c 0 geode::utils::MiniFunctionState<KeybindsLayer::onResetAll(cocos2d::CCObject*)::$_0, void, FLAlertLayer*, bool>::~MiniFunctionState()
PUBLIC 6f070 0 geode::utils::MiniFunctionState<KeybindsLayer::onResetAll(cocos2d::CCObject*)::$_0, void, FLAlertLayer*, bool>::call(FLAlertLayer*, bool) const
PUBLIC 6f220 0 geode::utils::MiniFunctionState<KeybindsLayer::onResetAll(cocos2d::CCObject*)::$_0, void, FLAlertLayer*, bool>::clone() const
PUBLIC 6f254 0 geode::Popup<>::initBase(float, float, char const*, cocos2d::CCRect, bool)
PUBLIC 6f560 0 keybinds::MouseBind::parse(matjson::Value const&)
PUBLIC 6f604 0 keybinds::MouseBind::getHash() const
PUBLIC 6f614 0 keybinds::MouseBind::isEqual(keybinds::Bind*) const
PUBLIC 6f690 0 keybinds::MouseBind::toString() const
PUBLIC 6f890 0 keybinds::MouseBind::getDeviceID() const
PUBLIC 6f8e0 0 keybinds::MouseBind::save() const
PUBLIC 6fa80 0 keybinds::MouseBind::~MouseBind()
PUBLIC 6faa4 0 geodeExecFunction293<(anonymous namespace)::ExecFuncUnique293>()
PUBLIC 731c8 0 __cxx_global_var_init.1
PUBLIC 73708 0 __cxx_global_var_init.2
PUBLIC 73df0 0 _GLOBAL__sub_I_UILayer.cpp
PUBLIC 73df4 0 geode::modifier::ModifyBase<geode::modifier::ModifyDerive<hook41<(anonymous namespace)::hook41Parent>, PauseLayer> >::~ModifyBase()
PUBLIC 73e10 0 geode::modifier::ModifyBase<geode::modifier::ModifyDerive<hook88<(anonymous namespace)::hook88Parent>, UILayer> >::~ModifyBase()
PUBLIC 73e2c 0 geode::modifier::ModifyDerive<hook41<(anonymous namespace)::hook41Parent>, PauseLayer>::apply()
PUBLIC 744c4 0 geode::modifier::ModifyBase<geode::modifier::ModifyDerive<hook41<(anonymous namespace)::hook41Parent>, PauseLayer> >::apply()
PUBLIC 744c8 0 geode::modifier::AsStaticFunction_keyDown<hook41<(anonymous namespace)::hook41Parent>, void (hook41<(anonymous namespace)::hook41Parent>::*)(cocos2d::enumKeyCodes)>::Impl<void (hook41<(anonymous namespace)::hook41Parent>::*)(cocos2d::enumKeyCodes)>::function(hook41<(anonymous namespace)::hook41Parent>*, cocos2d::enumKeyCodes)
PUBLIC 744d8 0 geode::modifier::AsStaticFunction_customSetup<hook41<(anonymous namespace)::hook41Parent>, void (hook41<(anonymous namespace)::hook41Parent>::*)()>::Impl<void (hook41<(anonymous namespace)::hook41Parent>::*)()>::function(hook41<(anonymous namespace)::hook41Parent>*)
PUBLIC 74624 0 geode::addresser::Addresser::addressOfVirtual<void, PauseLayer, cocos2d::enumKeyCodes>(void (PauseLayer::*)(cocos2d::enumKeyCodes))
PUBLIC 7473c 0 geode::addresser::Addresser::addressOfVirtual<void, PauseLayer, >(void (PauseLayer::*)())
PUBLIC 74854 0 cocos2d::CCNode::addEventListener<keybinds::InvokeBindFilter, char const (&) [32]>(geode::utils::MiniFunction<keybinds::InvokeBindFilter::Callback>, char const (&) [32])
PUBLIC 74978 0 cocos2d::CCNode::addEventListener<keybinds::InvokeBindFilter, char const (&) [36]>(geode::utils::MiniFunction<keybinds::InvokeBindFilter::Callback>, char const (&) [36])
PUBLIC 74a9c 0 geode::utils::MiniFunctionState<hook41<(anonymous namespace)::hook41Parent>::customSetup()::{lambda(keybinds::InvokeBindEvent*)#1}, geode::ListenerResult, keybinds::InvokeBindEvent*>::~MiniFunctionState()
PUBLIC 74aa0 0 geode::utils::MiniFunctionState<hook41<(anonymous namespace)::hook41Parent>::customSetup()::{lambda(keybinds::InvokeBindEvent*)#1}, geode::ListenerResult, keybinds::InvokeBindEvent*>::call(keybinds::InvokeBindEvent*) const
PUBLIC 74b90 0 geode::utils::MiniFunctionState<hook41<(anonymous namespace)::hook41Parent>::customSetup()::{lambda(keybinds::InvokeBindEvent*)#1}, geode::ListenerResult, keybinds::InvokeBindEvent*>::clone() const
PUBLIC 74bc4 0 cocos2d::CCNode::addEventListener<keybinds::InvokeBindFilter, char const (&) [32]>(std::__ndk1::basic_string<char, std::__ndk1::char_traits<char>, std::__ndk1::allocator<char> > const&, geode::utils::MiniFunction<keybinds::InvokeBindFilter::Callback>, char const (&) [32])
PUBLIC 74e20 0 geode::utils::MiniFunctionState<hook41<(anonymous namespace)::hook41Parent>::customSetup()::{lambda(keybinds::InvokeBindEvent*)#2}, geode::ListenerResult, keybinds::InvokeBindEvent*>::~MiniFunctionState()
PUBLIC 74e24 0 geode::utils::MiniFunctionState<hook41<(anonymous namespace)::hook41Parent>::customSetup()::{lambda(keybinds::InvokeBindEvent*)#2}, geode::ListenerResult, keybinds::InvokeBindEvent*>::call(keybinds::InvokeBindEvent*) const
PUBLIC 74e6c 0 geode::utils::MiniFunctionState<hook41<(anonymous namespace)::hook41Parent>::customSetup()::{lambda(keybinds::InvokeBindEvent*)#2}, geode::ListenerResult, keybinds::InvokeBindEvent*>::clone() const
PUBLIC 74ea0 0 cocos2d::CCNode::addEventListener<keybinds::InvokeBindFilter, char const (&) [36]>(std::__ndk1::basic_string<char, std::__ndk1::char_traits<char>, std::__ndk1::allocator<char> > const&, geode::utils::MiniFunction<keybinds::InvokeBindFilter::Callback>, char const (&) [36])
PUBLIC 750fc 0 geode::utils::MiniFunctionState<hook41<(anonymous namespace)::hook41Parent>::customSetup()::{lambda(keybinds::InvokeBindEvent*)#3}, geode::ListenerResult, keybinds::InvokeBindEvent*>::~MiniFunctionState()
PUBLIC 75100 0 geode::utils::MiniFunctionState<hook41<(anonymous namespace)::hook41Parent>::customSetup()::{lambda(keybinds::InvokeBindEvent*)#3}, geode::ListenerResult, keybinds::InvokeBindEvent*>::call(keybinds::InvokeBindEvent*) const
PUBLIC 75170 0 geode::utils::MiniFunctionState<hook41<(anonymous namespace)::hook41Parent>::customSetup()::{lambda(keybinds::InvokeBindEvent*)#3}, geode::ListenerResult, keybinds::InvokeBindEvent*>::clone() const
PUBLIC 751a4 0 geode::modifier::ModifyDerive<hook88<(anonymous namespace)::hook88Parent>, UILayer>::apply()
PUBLIC 758c4 0 geode::modifier::ModifyBase<geode::modifier::ModifyDerive<hook88<(anonymous namespace)::hook88Parent>, UILayer> >::apply()
PUBLIC 758c8 0 geode::modifier::AsStaticFunction_handleKeypress<hook88<(anonymous namespace)::hook88Parent>, void (hook88<(anonymous namespace)::hook88Parent>::*)(cocos2d::enumKeyCodes, bool)>::Impl<void (hook88<(anonymous namespace)::hook88Parent>::*)(cocos2d::enumKeyCodes, bool)>::function(hook88<(anonymous namespace)::hook88Parent>*, cocos2d::enumKeyCodes, bool)
PUBLIC 75904 0 geode::modifier::AsStaticFunction_init<hook88<(anonymous namespace)::hook88Parent>, bool (hook88<(anonymous namespace)::hook88Parent>::*)(GJBaseGameLayer*)>::Impl<bool (hook88<(anonymous namespace)::hook88Parent>::*)(GJBaseGameLayer*)>::function(hook88<(anonymous namespace)::hook88Parent>*, GJBaseGameLayer*)
PUBLIC 759d4 0 geode::utils::MiniFunctionState<hook88<(anonymous namespace)::hook88Parent>::init(GJBaseGameLayer*)::{lambda()#1}, void, >::~MiniFunctionState()
PUBLIC 759d8 0 geode::utils::MiniFunctionState<hook88<(anonymous namespace)::hook88Parent>::init(GJBaseGameLayer*)::{lambda()#1}, void, >::call() const
PUBLIC 7613c 0 geode::utils::MiniFunctionState<hook88<(anonymous namespace)::hook88Parent>::init(GJBaseGameLayer*)::{lambda()#1}, void, >::clone() const
PUBLIC 76170 0 hook88<(anonymous namespace)::hook88Parent>::defineKeybind(char const*, std::__ndk1::function<geode::ListenerResult(bool)>)
PUBLIC 7642c 0 addBindSprites(cocos2d::CCNode*, char const*)
PUBLIC 767a4 0 cocos2d::CCNode::addEventListener<keybinds::InvokeBindFilter, char const*&>(geode::utils::MiniFunction<keybinds::InvokeBindFilter::Callback>, char const*&)
PUBLIC 768c8 0 cocos2d::CCNode::addEventListener<keybinds::InvokeBindFilter, char const*&>(std::__ndk1::basic_string<char, std::__ndk1::char_traits<char>, std::__ndk1::allocator<char> > const&, geode::utils::MiniFunction<keybinds::InvokeBindFilter::Callback>, char const*&)
PUBLIC 76b2c 0 geode::utils::MiniFunctionState<hook88<(anonymous namespace)::hook88Parent>::defineKeybind(char const*, std::__ndk1::function<geode::ListenerResult(bool)>)::{lambda(keybinds::InvokeBindEvent*)#1}, geode::ListenerResult, keybinds::InvokeBindEvent*>::~MiniFunctionState()
PUBLIC 76b64 0 geode::utils::MiniFunctionState<hook88<(anonymous namespace)::hook88Parent>::defineKeybind(char const*, std::__ndk1::function<geode::ListenerResult(bool)>)::{lambda(keybinds::InvokeBindEvent*)#1}, geode::ListenerResult, keybinds::InvokeBindEvent*>::~MiniFunctionState()
PUBLIC 76bb8 0 geode::utils::MiniFunctionState<hook88<(anonymous namespace)::hook88Parent>::defineKeybind(char const*, std::__ndk1::function<geode::ListenerResult(bool)>)::{lambda(keybinds::InvokeBindEvent*)#1}, geode::ListenerResult, keybinds::InvokeBindEvent*>::call(keybinds::InvokeBindEvent*) const
PUBLIC 76c3c 0 geode::utils::MiniFunctionState<hook88<(anonymous namespace)::hook88Parent>::defineKeybind(char const*, std::__ndk1::function<geode::ListenerResult(bool)>)::{lambda(keybinds::InvokeBindEvent*)#1}, geode::ListenerResult, keybinds::InvokeBindEvent*>::clone() const
PUBLIC 76ccc 0 std::__ndk1::__function::__func<hook88<(anonymous namespace)::hook88Parent>::init(GJBaseGameLayer*)::{lambda()#1}::operator()() const::{lambda(bool)#1}, std::__ndk1::allocator<hook88<(anonymous namespace)::hook88Parent>::init(GJBaseGameLayer*)::{lambda()#1}::operator()() const::{lambda(bool)#1}>, geode::ListenerResult(bool)>::~__func()
PUBLIC 76cd0 0 std::__ndk1::__function::__func<hook88<(anonymous namespace)::hook88Parent>::init(GJBaseGameLayer*)::{lambda()#1}::operator()() const::{lambda(bool)#1}, std::__ndk1::allocator<hook88<(anonymous namespace)::hook88Parent>::init(GJBaseGameLayer*)::{lambda()#1}::operator()() const::{lambda(bool)#1}>, geode::ListenerResult(bool)>::__clone() const
PUBLIC 76d04 0 std::__ndk1::__function::__func<hook88<(anonymous namespace)::hook88Parent>::init(GJBaseGameLayer*)::{lambda()#1}::operator()() const::{lambda(bool)#1}, std::__ndk1::allocator<hook88<(anonymous namespace)::hook88Parent>::init(GJBaseGameLayer*)::{lambda()#1}::operator()() const::{lambda(bool)#1}>, geode::ListenerResult(bool)>::__clone(std::__ndk1::__function::__base<geode::ListenerResult(bool)>*) const
PUBLIC 76d18 0 std::__ndk1::__function::__func<hook88<(anonymous namespace)::hook88Parent>::init(GJBaseGameLayer*)::{lambda()#1}::operator()() const::{lambda(bool)#1}, std::__ndk1::allocator<hook88<(anonymous namespace)::hook88Parent>::init(GJBaseGameLayer*)::{lambda()#1}::operator()() const::{lambda(bool)#1}>, geode::ListenerResult(bool)>::destroy()
PUBLIC 76d1c 0 std::__ndk1::__function::__func<hook88<(anonymous namespace)::hook88Parent>::init(GJBaseGameLayer*)::{lambda()#1}::operator()() const::{lambda(bool)#1}, std::__ndk1::allocator<hook88<(anonymous namespace)::hook88Parent>::init(GJBaseGameLayer*)::{lambda()#1}::operator()() const::{lambda(bool)#1}>, geode::ListenerResult(bool)>::destroy_deallocate()
PUBLIC 76d20 0 std::__ndk1::__function::__func<hook88<(anonymous namespace)::hook88Parent>::init(GJBaseGameLayer*)::{lambda()#1}::operator()() const::{lambda(bool)#1}, std::__ndk1::allocator<hook88<(anonymous namespace)::hook88Parent>::init(GJBaseGameLayer*)::{lambda()#1}::operator()() const::{lambda(bool)#1}>, geode::ListenerResult(bool)>::operator()(bool&&)
PUBLIC 76d94 0 std::__ndk1::__function::__func<hook88<(anonymous namespace)::hook88Parent>::init(GJBaseGameLayer*)::{lambda()#1}::operator()() const::{lambda(bool)#1}, std::__ndk1::allocator<hook88<(anonymous namespace)::hook88Parent>::init(GJBaseGameLayer*)::{lambda()#1}::operator()() const::{lambda(bool)#1}>, geode::ListenerResult(bool)>::target(std::type_info const&) const
PUBLIC 76db0 0 std::__ndk1::__function::__func<hook88<(anonymous namespace)::hook88Parent>::init(GJBaseGameLayer*)::{lambda()#1}::operator()() const::{lambda(bool)#1}, std::__ndk1::allocator<hook88<(anonymous namespace)::hook88Parent>::init(GJBaseGameLayer*)::{lambda()#1}::operator()() const::{lambda(bool)#1}>, geode::ListenerResult(bool)>::target_type() const
PUBLIC 76dbc 0 hook88<(anonymous namespace)::hook88Parent>::isPaused()
PUBLIC 76f58 0 hook88<(anonymous namespace)::hook88Parent>::isCurrentPlayLayer()
PUBLIC 77100 0 std::__ndk1::__function::__func<hook88<(anonymous namespace)::hook88Parent>::init(GJBaseGameLayer*)::{lambda()#1}::operator()() const::{lambda(bool)#2}, std::__ndk1::allocator<hook88<(anonymous namespace)::hook88Parent>::init(GJBaseGameLayer*)::{lambda()#1}::operator()() const::{lambda(bool)#2}>, geode::ListenerResult(bool)>::~__func()
PUBLIC 77104 0 std::__ndk1::__function::__func<hook88<(anonymous namespace)::hook88Parent>::init(GJBaseGameLayer*)::{lambda()#1}::operator()() const::{lambda(bool)#2}, std::__ndk1::allocator<hook88<(anonymous namespace)::hook88Parent>::init(GJBaseGameLayer*)::{lambda()#1}::operator()() const::{lambda(bool)#2}>, geode::ListenerResult(bool)>::__clone() const
PUBLIC 77138 0 std::__ndk1::__function::__func<hook88<(anonymous namespace)::hook88Parent>::init(GJBaseGameLayer*)::{lambda()#1}::operator()() const::{lambda(bool)#2}, std::__ndk1::allocator<hook88<(anonymous namespace)::hook88Parent>::init(GJBaseGameLayer*)::{lambda()#1}::operator()() const::{lambda(bool)#2}>, geode::ListenerResult(bool)>::__clone(std::__ndk1::__function::__base<geode::ListenerResult(bool)>*) const
PUBLIC 7714c 0 std::__ndk1::__function::__func<hook88<(anonymous namespace)::hook88Parent>::init(GJBaseGameLayer*)::{lambda()#1}::operator()() const::{lambda(bool)#2}, std::__ndk1::allocator<hook88<(anonymous namespace)::hook88Parent>::init(GJBaseGameLayer*)::{lambda()#1}::operator()() const::{lambda(bool)#2}>, geode::ListenerResult(bool)>::destroy()
PUBLIC 77150 0 std::__ndk1::__function::__func<hook88<(anonymous namespace)::hook88Parent>::init(GJBaseGameLayer*)::{lambda()#1}::operator()() const::{lambda(bool)#2}, std::__ndk1::allocator<hook88<(anonymous namespace)::hook88Parent>::init(GJBaseGameLayer*)::{lambda()#1}::operator()() const::{lambda(bool)#2}>, geode::ListenerResult(bool)>::destroy_deallocate()
PUBLIC 77154 0 std::__ndk1::__function::__func<hook88<(anonymous namespace)::hook88Parent>::init(GJBaseGameLayer*)::{lambda()#1}::operator()() const::{lambda(bool)#2}, std::__ndk1::allocator<hook88<(anonymous namespace)::hook88Parent>::init(GJBaseGameLayer*)::{lambda()#1}::operator()() const::{lambda(bool)#2}>, geode::ListenerResult(bool)>::operator()(bool&&)
PUBLIC 771c8 0 std::__ndk1::__function::__func<hook88<(anonymous namespace)::hook88Parent>::init(GJBaseGameLayer*)::{lambda()#1}::operator()() const::{lambda(bool)#2}, std::__ndk1::allocator<hook88<(anonymous namespace)::hook88Parent>::init(GJBaseGameLayer*)::{lambda()#1}::operator()() const::{lambda(bool)#2}>, geode::ListenerResult(bool)>::target(std::type_info const&) const
PUBLIC 771e4 0 std::__ndk1::__function::__func<hook88<(anonymous namespace)::hook88Parent>::init(GJBaseGameLayer*)::{lambda()#1}::operator()() const::{lambda(bool)#2}, std::__ndk1::allocator<hook88<(anonymous namespace)::hook88Parent>::init(GJBaseGameLayer*)::{lambda()#1}::operator()() const::{lambda(bool)#2}>, geode::ListenerResult(bool)>::target_type() const
PUBLIC 771f0 0 std::__ndk1::__function::__func<hook88<(anonymous namespace)::hook88Parent>::init(GJBaseGameLayer*)::{lambda()#1}::operator()() const::{lambda(bool)#3}, std::__ndk1::allocator<hook88<(anonymous namespace)::hook88Parent>::init(GJBaseGameLayer*)::{lambda()#1}::operator()() const::{lambda(bool)#3}>, geode::ListenerResult(bool)>::~__func()
PUBLIC 771f4 0 std::__ndk1::__function::__func<hook88<(anonymous namespace)::hook88Parent>::init(GJBaseGameLayer*)::{lambda()#1}::operator()() const::{lambda(bool)#3}, std::__ndk1::allocator<hook88<(anonymous namespace)::hook88Parent>::init(GJBaseGameLayer*)::{lambda()#1}::operator()() const::{lambda(bool)#3}>, geode::ListenerResult(bool)>::__clone() const
PUBLIC 77228 0 std::__ndk1::__function::__func<hook88<(anonymous namespace)::hook88Parent>::init(GJBaseGameLayer*)::{lambda()#1}::operator()() const::{lambda(bool)#3}, std::__ndk1::allocator<hook88<(anonymous namespace)::hook88Parent>::init(GJBaseGameLayer*)::{lambda()#1}::operator()() const::{lambda(bool)#3}>, geode::ListenerResult(bool)>::__clone(std::__ndk1::__function::__base<geode::ListenerResult(bool)>*) const
PUBLIC 7723c 0 std::__ndk1::__function::__func<hook88<(anonymous namespace)::hook88Parent>::init(GJBaseGameLayer*)::{lambda()#1}::operator()() const::{lambda(bool)#3}, std::__ndk1::allocator<hook88<(anonymous namespace)::hook88Parent>::init(GJBaseGameLayer*)::{lambda()#1}::operator()() const::{lambda(bool)#3}>, geode::ListenerResult(bool)>::destroy()
PUBLIC 77240 0 std::__ndk1::__function::__func<hook88<(anonymous namespace)::hook88Parent>::init(GJBaseGameLayer*)::{lambda()#1}::operator()() const::{lambda(bool)#3}, std::__ndk1::allocator<hook88<(anonymous namespace)::hook88Parent>::init(GJBaseGameLayer*)::{lambda()#1}::operator()() const::{lambda(bool)#3}>, geode::ListenerResult(bool)>::destroy_deallocate()
PUBLIC 77244 0 std::__ndk1::__function::__func<hook88<(anonymous namespace)::hook88Parent>::init(GJBaseGameLayer*)::{lambda()#1}::operator()() const::{lambda(bool)#3}, std::__ndk1::allocator<hook88<(anonymous namespace)::hook88Parent>::init(GJBaseGameLayer*)::{lambda()#1}::operator()() const::{lambda(bool)#3}>, geode::ListenerResult(bool)>::operator()(bool&&)
PUBLIC 772bc 0 std::__ndk1::__function::__func<hook88<(anonymous namespace)::hook88Parent>::init(GJBaseGameLayer*)::{lambda()#1}::operator()() const::{lambda(bool)#3}, std::__ndk1::allocator<hook88<(anonymous namespace)::hook88Parent>::init(GJBaseGameLayer*)::{lambda()#1}::operator()() const::{lambda(bool)#3}>, geode::ListenerResult(bool)>::target(std::type_info const&) const
PUBLIC 772d8 0 std::__ndk1::__function::__func<hook88<(anonymous namespace)::hook88Parent>::init(GJBaseGameLayer*)::{lambda()#1}::operator()() const::{lambda(bool)#3}, std::__ndk1::allocator<hook88<(anonymous namespace)::hook88Parent>::init(GJBaseGameLayer*)::{lambda()#1}::operator()() const::{lambda(bool)#3}>, geode::ListenerResult(bool)>::target_type() const
PUBLIC 772e4 0 hook88<(anonymous namespace)::hook88Parent>::pressKeyFallthrough(cocos2d::enumKeyCodes, bool, bool, bool, bool, bool)
PUBLIC 77430 0 std::__ndk1::__function::__func<hook88<(anonymous namespace)::hook88Parent>::init(GJBaseGameLayer*)::{lambda()#1}::operator()() const::{lambda(bool)#4}, std::__ndk1::allocator<hook88<(anonymous namespace)::hook88Parent>::init(GJBaseGameLayer*)::{lambda()#1}::operator()() const::{lambda(bool)#4}>, geode::ListenerResult(bool)>::~__func()
PUBLIC 77434 0 std::__ndk1::__function::__func<hook88<(anonymous namespace)::hook88Parent>::init(GJBaseGameLayer*)::{lambda()#1}::operator()() const::{lambda(bool)#4}, std::__ndk1::allocator<hook88<(anonymous namespace)::hook88Parent>::init(GJBaseGameLayer*)::{lambda()#1}::operator()() const::{lambda(bool)#4}>, geode::ListenerResult(bool)>::__clone() const
PUBLIC 77468 0 std::__ndk1::__function::__func<hook88<(anonymous namespace)::hook88Parent>::init(GJBaseGameLayer*)::{lambda()#1}::operator()() const::{lambda(bool)#4}, std::__ndk1::allocator<hook88<(anonymous namespace)::hook88Parent>::init(GJBaseGameLayer*)::{lambda()#1}::operator()() const::{lambda(bool)#4}>, geode::ListenerResult(bool)>::__clone(std::__ndk1::__function::__base<geode::ListenerResult(bool)>*) const
PUBLIC 7747c 0 std::__ndk1::__function::__func<hook88<(anonymous namespace)::hook88Parent>::init(GJBaseGameLayer*)::{lambda()#1}::operator()() const::{lambda(bool)#4}, std::__ndk1::allocator<hook88<(anonymous namespace)::hook88Parent>::init(GJBaseGameLayer*)::{lambda()#1}::operator()() const::{lambda(bool)#4}>, geode::ListenerResult(bool)>::destroy()
PUBLIC 77480 0 std::__ndk1::__function::__func<hook88<(anonymous namespace)::hook88Parent>::init(GJBaseGameLayer*)::{lambda()#1}::operator()() const::{lambda(bool)#4}, std::__ndk1::allocator<hook88<(anonymous namespace)::hook88Parent>::init(GJBaseGameLayer*)::{lambda()#1}::operator()() const::{lambda(bool)#4}>, geode::ListenerResult(bool)>::destroy_deallocate()
PUBLIC 77484 0 std::__ndk1::__function::__func<hook88<(anonymous namespace)::hook88Parent>::init(GJBaseGameLayer*)::{lambda()#1}::operator()() const::{lambda(bool)#4}, std::__ndk1::allocator<hook88<(anonymous namespace)::hook88Parent>::init(GJBaseGameLayer*)::{lambda()#1}::operator()() const::{lambda(bool)#4}>, geode::ListenerResult(bool)>::operator()(bool&&)
PUBLIC 774fc 0 std::__ndk1::__function::__func<hook88<(anonymous namespace)::hook88Parent>::init(GJBaseGameLayer*)::{lambda()#1}::operator()() const::{lambda(bool)#4}, std::__ndk1::allocator<hook88<(anonymous namespace)::hook88Parent>::init(GJBaseGameLayer*)::{lambda()#1}::operator()() const::{lambda(bool)#4}>, geode::ListenerResult(bool)>::target(std::type_info const&) const
PUBLIC 77518 0 std::__ndk1::__function::__func<hook88<(anonymous namespace)::hook88Parent>::init(GJBaseGameLayer*)::{lambda()#1}::operator()() const::{lambda(bool)#4}, std::__ndk1::allocator<hook88<(anonymous namespace)::hook88Parent>::init(GJBaseGameLayer*)::{lambda()#1}::operator()() const::{lambda(bool)#4}>, geode::ListenerResult(bool)>::target_type() const
PUBLIC 77524 0 std::__ndk1::__function::__base<geode::ListenerResult(bool)>::~__base()
PUBLIC 77528 0 std::__ndk1::__function::__func<hook88<(anonymous namespace)::hook88Parent>::init(GJBaseGameLayer*)::{lambda()#1}::operator()() const::{lambda(bool)#5}, std::__ndk1::allocator<hook88<(anonymous namespace)::hook88Parent>::init(GJBaseGameLayer*)::{lambda()#1}::operator()() const::{lambda(bool)#5}>, geode::ListenerResult(bool)>::~__func()
PUBLIC 7752c 0 std::__ndk1::__function::__func<hook88<(anonymous namespace)::hook88Parent>::init(GJBaseGameLayer*)::{lambda()#1}::operator()() const::{lambda(bool)#5}, std::__ndk1::allocator<hook88<(anonymous namespace)::hook88Parent>::init(GJBaseGameLayer*)::{lambda()#1}::operator()() const::{lambda(bool)#5}>, geode::ListenerResult(bool)>::__clone() const
PUBLIC 77560 0 std::__ndk1::__function::__func<hook88<(anonymous namespace)::hook88Parent>::init(GJBaseGameLayer*)::{lambda()#1}::operator()() const::{lambda(bool)#5}, std::__ndk1::allocator<hook88<(anonymous namespace)::hook88Parent>::init(GJBaseGameLayer*)::{lambda()#1}::operator()() const::{lambda(bool)#5}>, geode::ListenerResult(bool)>::__clone(std::__ndk1::__function::__base<geode::ListenerResult(bool)>*) const
PUBLIC 77574 0 std::__ndk1::__function::__func<hook88<(anonymous namespace)::hook88Parent>::init(GJBaseGameLayer*)::{lambda()#1}::operator()() const::{lambda(bool)#5}, std::__ndk1::allocator<hook88<(anonymous namespace)::hook88Parent>::init(GJBaseGameLayer*)::{lambda()#1}::operator()() const::{lambda(bool)#5}>, geode::ListenerResult(bool)>::destroy()
PUBLIC 77578 0 std::__ndk1::__function::__func<hook88<(anonymous namespace)::hook88Parent>::init(GJBaseGameLayer*)::{lambda()#1}::operator()() const::{lambda(bool)#5}, std::__ndk1::allocator<hook88<(anonymous namespace)::hook88Parent>::init(GJBaseGameLayer*)::{lambda()#1}::operator()() const::{lambda(bool)#5}>, geode::ListenerResult(bool)>::destroy_deallocate()
PUBLIC 7757c 0 std::__ndk1::__function::__func<hook88<(anonymous namespace)::hook88Parent>::init(GJBaseGameLayer*)::{lambda()#1}::operator()() const::{lambda(bool)#5}, std::__ndk1::allocator<hook88<(anonymous namespace)::hook88Parent>::init(GJBaseGameLayer*)::{lambda()#1}::operator()() const::{lambda(bool)#5}>, geode::ListenerResult(bool)>::operator()(bool&&)
PUBLIC 775c8 0 std::__ndk1::__function::__func<hook88<(anonymous namespace)::hook88Parent>::init(GJBaseGameLayer*)::{lambda()#1}::operator()() const::{lambda(bool)#5}, std::__ndk1::allocator<hook88<(anonymous namespace)::hook88Parent>::init(GJBaseGameLayer*)::{lambda()#1}::operator()() const::{lambda(bool)#5}>, geode::ListenerResult(bool)>::target(std::type_info const&) const
PUBLIC 775e4 0 std::__ndk1::__function::__func<hook88<(anonymous namespace)::hook88Parent>::init(GJBaseGameLayer*)::{lambda()#1}::operator()() const::{lambda(bool)#5}, std::__ndk1::allocator<hook88<(anonymous namespace)::hook88Parent>::init(GJBaseGameLayer*)::{lambda()#1}::operator()() const::{lambda(bool)#5}>, geode::ListenerResult(bool)>::target_type() const
PUBLIC 775f0 0 std::__ndk1::__function::__func<hook88<(anonymous namespace)::hook88Parent>::init(GJBaseGameLayer*)::{lambda()#1}::operator()() const::{lambda(bool)#6}, std::__ndk1::allocator<hook88<(anonymous namespace)::hook88Parent>::init(GJBaseGameLayer*)::{lambda()#1}::operator()() const::{lambda(bool)#6}>, geode::ListenerResult(bool)>::~__func()
PUBLIC 775f4 0 std::__ndk1::__function::__func<hook88<(anonymous namespace)::hook88Parent>::init(GJBaseGameLayer*)::{lambda()#1}::operator()() const::{lambda(bool)#6}, std::__ndk1::allocator<hook88<(anonymous namespace)::hook88Parent>::init(GJBaseGameLayer*)::{lambda()#1}::operator()() const::{lambda(bool)#6}>, geode::ListenerResult(bool)>::__clone() const
PUBLIC 77628 0 std::__ndk1::__function::__func<hook88<(anonymous namespace)::hook88Parent>::init(GJBaseGameLayer*)::{lambda()#1}::operator()() const::{lambda(bool)#6}, std::__ndk1::allocator<hook88<(anonymous namespace)::hook88Parent>::init(GJBaseGameLayer*)::{lambda()#1}::operator()() const::{lambda(bool)#6}>, geode::ListenerResult(bool)>::__clone(std::__ndk1::__function::__base<geode::ListenerResult(bool)>*) const
PUBLIC 7763c 0 std::__ndk1::__function::__func<hook88<(anonymous namespace)::hook88Parent>::init(GJBaseGameLayer*)::{lambda()#1}::operator()() const::{lambda(bool)#6}, std::__ndk1::allocator<hook88<(anonymous namespace)::hook88Parent>::init(GJBaseGameLayer*)::{lambda()#1}::operator()() const::{lambda(bool)#6}>, geode::ListenerResult(bool)>::destroy()
PUBLIC 77640 0 std::__ndk1::__function::__func<hook88<(anonymous namespace)::hook88Parent>::init(GJBaseGameLayer*)::{lambda()#1}::operator()() const::{lambda(bool)#6}, std::__ndk1::allocator<hook88<(anonymous namespace)::hook88Parent>::init(GJBaseGameLayer*)::{lambda()#1}::operator()() const::{lambda(bool)#6}>, geode::ListenerResult(bool)>::destroy_deallocate()
PUBLIC 77644 0 std::__ndk1::__function::__func<hook88<(anonymous namespace)::hook88Parent>::init(GJBaseGameLayer*)::{lambda()#1}::operator()() const::{lambda(bool)#6}, std::__ndk1::allocator<hook88<(anonymous namespace)::hook88Parent>::init(GJBaseGameLayer*)::{lambda()#1}::operator()() const::{lambda(bool)#6}>, geode::ListenerResult(bool)>::operator()(bool&&)
PUBLIC 776a4 0 std::__ndk1::__function::__func<hook88<(anonymous namespace)::hook88Parent>::init(GJBaseGameLayer*)::{lambda()#1}::operator()() const::{lambda(bool)#6}, std::__ndk1::allocator<hook88<(anonymous namespace)::hook88Parent>::init(GJBaseGameLayer*)::{lambda()#1}::operator()() const::{lambda(bool)#6}>, geode::ListenerResult(bool)>::target(std::type_info const&) const
PUBLIC 776c0 0 std::__ndk1::__function::__func<hook88<(anonymous namespace)::hook88Parent>::init(GJBaseGameLayer*)::{lambda()#1}::operator()() const::{lambda(bool)#6}, std::__ndk1::allocator<hook88<(anonymous namespace)::hook88Parent>::init(GJBaseGameLayer*)::{lambda()#1}::operator()() const::{lambda(bool)#6}>, geode::ListenerResult(bool)>::target_type() const
PUBLIC 776cc 0 std::__ndk1::__function::__func<hook88<(anonymous namespace)::hook88Parent>::init(GJBaseGameLayer*)::{lambda()#1}::operator()() const::{lambda(bool)#7}, std::__ndk1::allocator<hook88<(anonymous namespace)::hook88Parent>::init(GJBaseGameLayer*)::{lambda()#1}::operator()() const::{lambda(bool)#7}>, geode::ListenerResult(bool)>::~__func()
PUBLIC 776d0 0 std::__ndk1::__function::__func<hook88<(anonymous namespace)::hook88Parent>::init(GJBaseGameLayer*)::{lambda()#1}::operator()() const::{lambda(bool)#7}, std::__ndk1::allocator<hook88<(anonymous namespace)::hook88Parent>::init(GJBaseGameLayer*)::{lambda()#1}::operator()() const::{lambda(bool)#7}>, geode::ListenerResult(bool)>::__clone() const
PUBLIC 77704 0 std::__ndk1::__function::__func<hook88<(anonymous namespace)::hook88Parent>::init(GJBaseGameLayer*)::{lambda()#1}::operator()() const::{lambda(bool)#7}, std::__ndk1::allocator<hook88<(anonymous namespace)::hook88Parent>::init(GJBaseGameLayer*)::{lambda()#1}::operator()() const::{lambda(bool)#7}>, geode::ListenerResult(bool)>::__clone(std::__ndk1::__function::__base<geode::ListenerResult(bool)>*) const
PUBLIC 77718 0 std::__ndk1::__function::__func<hook88<(anonymous namespace)::hook88Parent>::init(GJBaseGameLayer*)::{lambda()#1}::operator()() const::{lambda(bool)#7}, std::__ndk1::allocator<hook88<(anonymous namespace)::hook88Parent>::init(GJBaseGameLayer*)::{lambda()#1}::operator()() const::{lambda(bool)#7}>, geode::ListenerResult(bool)>::destroy()
PUBLIC 7771c 0 std::__ndk1::__function::__func<hook88<(anonymous namespace)::hook88Parent>::init(GJBaseGameLayer*)::{lambda()#1}::operator()() const::{lambda(bool)#7}, std::__ndk1::allocator<hook88<(anonymous namespace)::hook88Parent>::init(GJBaseGameLayer*)::{lambda()#1}::operator()() const::{lambda(bool)#7}>, geode::ListenerResult(bool)>::destroy_deallocate()
PUBLIC 77720 0 std::__ndk1::__function::__func<hook88<(anonymous namespace)::hook88Parent>::init(GJBaseGameLayer*)::{lambda()#1}::operator()() const::{lambda(bool)#7}, std::__ndk1::allocator<hook88<(anonymous namespace)::hook88Parent>::init(GJBaseGameLayer*)::{lambda()#1}::operator()() const::{lambda(bool)#7}>, geode::ListenerResult(bool)>::operator()(bool&&)
PUBLIC 77780 0 std::__ndk1::__function::__func<hook88<(anonymous namespace)::hook88Parent>::init(GJBaseGameLayer*)::{lambda()#1}::operator()() const::{lambda(bool)#7}, std::__ndk1::allocator<hook88<(anonymous namespace)::hook88Parent>::init(GJBaseGameLayer*)::{lambda()#1}::operator()() const::{lambda(bool)#7}>, geode::ListenerResult(bool)>::target(std::type_info const&) const
PUBLIC 7779c 0 std::__ndk1::__function::__func<hook88<(anonymous namespace)::hook88Parent>::init(GJBaseGameLayer*)::{lambda()#1}::operator()() const::{lambda(bool)#7}, std::__ndk1::allocator<hook88<(anonymous namespace)::hook88Parent>::init(GJBaseGameLayer*)::{lambda()#1}::operator()() const::{lambda(bool)#7}>, geode::ListenerResult(bool)>::target_type() const
PUBLIC 777a8 0 std::__ndk1::__function::__func<hook88<(anonymous namespace)::hook88Parent>::init(GJBaseGameLayer*)::{lambda()#1}::operator()() const::{lambda(bool)#8}, std::__ndk1::allocator<hook88<(anonymous namespace)::hook88Parent>::init(GJBaseGameLayer*)::{lambda()#1}::operator()() const::{lambda(bool)#8}>, geode::ListenerResult(bool)>::~__func()
PUBLIC 777ac 0 std::__ndk1::__function::__func<hook88<(anonymous namespace)::hook88Parent>::init(GJBaseGameLayer*)::{lambda()#1}::operator()() const::{lambda(bool)#8}, std::__ndk1::allocator<hook88<(anonymous namespace)::hook88Parent>::init(GJBaseGameLayer*)::{lambda()#1}::operator()() const::{lambda(bool)#8}>, geode::ListenerResult(bool)>::__clone() const
PUBLIC 777e0 0 std::__ndk1::__function::__func<hook88<(anonymous namespace)::hook88Parent>::init(GJBaseGameLayer*)::{lambda()#1}::operator()() const::{lambda(bool)#8}, std::__ndk1::allocator<hook88<(anonymous namespace)::hook88Parent>::init(GJBaseGameLayer*)::{lambda()#1}::operator()() const::{lambda(bool)#8}>, geode::ListenerResult(bool)>::__clone(std::__ndk1::__function::__base<geode::ListenerResult(bool)>*) const
PUBLIC 777f4 0 std::__ndk1::__function::__func<hook88<(anonymous namespace)::hook88Parent>::init(GJBaseGameLayer*)::{lambda()#1}::operator()() const::{lambda(bool)#8}, std::__ndk1::allocator<hook88<(anonymous namespace)::hook88Parent>::init(GJBaseGameLayer*)::{lambda()#1}::operator()() const::{lambda(bool)#8}>, geode::ListenerResult(bool)>::destroy()
PUBLIC 777f8 0 std::__ndk1::__function::__func<hook88<(anonymous namespace)::hook88Parent>::init(GJBaseGameLayer*)::{lambda()#1}::operator()() const::{lambda(bool)#8}, std::__ndk1::allocator<hook88<(anonymous namespace)::hook88Parent>::init(GJBaseGameLayer*)::{lambda()#1}::operator()() const::{lambda(bool)#8}>, geode::ListenerResult(bool)>::destroy_deallocate()
PUBLIC 777fc 0 std::__ndk1::__function::__func<hook88<(anonymous namespace)::hook88Parent>::init(GJBaseGameLayer*)::{lambda()#1}::operator()() const::{lambda(bool)#8}, std::__ndk1::allocator<hook88<(anonymous namespace)::hook88Parent>::init(GJBaseGameLayer*)::{lambda()#1}::operator()() const::{lambda(bool)#8}>, geode::ListenerResult(bool)>::operator()(bool&&)
PUBLIC 77874 0 std::__ndk1::__function::__func<hook88<(anonymous namespace)::hook88Parent>::init(GJBaseGameLayer*)::{lambda()#1}::operator()() const::{lambda(bool)#8}, std::__ndk1::allocator<hook88<(anonymous namespace)::hook88Parent>::init(GJBaseGameLayer*)::{lambda()#1}::operator()() const::{lambda(bool)#8}>, geode::ListenerResult(bool)>::target(std::type_info const&) const
PUBLIC 77890 0 std::__ndk1::__function::__func<hook88<(anonymous namespace)::hook88Parent>::init(GJBaseGameLayer*)::{lambda()#1}::operator()() const::{lambda(bool)#8}, std::__ndk1::allocator<hook88<(anonymous namespace)::hook88Parent>::init(GJBaseGameLayer*)::{lambda()#1}::operator()() const::{lambda(bool)#8}>, geode::ListenerResult(bool)>::target_type() const
PUBLIC 7789c 0 std::__ndk1::__function::__func<hook88<(anonymous namespace)::hook88Parent>::init(GJBaseGameLayer*)::{lambda()#1}::operator()() const::{lambda(bool)#9}, std::__ndk1::allocator<hook88<(anonymous namespace)::hook88Parent>::init(GJBaseGameLayer*)::{lambda()#1}::operator()() const::{lambda(bool)#9}>, geode::ListenerResult(bool)>::~__func()
PUBLIC 778a0 0 std::__ndk1::__function::__func<hook88<(anonymous namespace)::hook88Parent>::init(GJBaseGameLayer*)::{lambda()#1}::operator()() const::{lambda(bool)#9}, std::__ndk1::allocator<hook88<(anonymous namespace)::hook88Parent>::init(GJBaseGameLayer*)::{lambda()#1}::operator()() const::{lambda(bool)#9}>, geode::ListenerResult(bool)>::__clone() const
PUBLIC 778d4 0 std::__ndk1::__function::__func<hook88<(anonymous namespace)::hook88Parent>::init(GJBaseGameLayer*)::{lambda()#1}::operator()() const::{lambda(bool)#9}, std::__ndk1::allocator<hook88<(anonymous namespace)::hook88Parent>::init(GJBaseGameLayer*)::{lambda()#1}::operator()() const::{lambda(bool)#9}>, geode::ListenerResult(bool)>::__clone(std::__ndk1::__function::__base<geode::ListenerResult(bool)>*) const
PUBLIC 778e8 0 std::__ndk1::__function::__func<hook88<(anonymous namespace)::hook88Parent>::init(GJBaseGameLayer*)::{lambda()#1}::operator()() const::{lambda(bool)#9}, std::__ndk1::allocator<hook88<(anonymous namespace)::hook88Parent>::init(GJBaseGameLayer*)::{lambda()#1}::operator()() const::{lambda(bool)#9}>, geode::ListenerResult(bool)>::destroy()
PUBLIC 778ec 0 std::__ndk1::__function::__func<hook88<(anonymous namespace)::hook88Parent>::init(GJBaseGameLayer*)::{lambda()#1}::operator()() const::{lambda(bool)#9}, std::__ndk1::allocator<hook88<(anonymous namespace)::hook88Parent>::init(GJBaseGameLayer*)::{lambda()#1}::operator()() const::{lambda(bool)#9}>, geode::ListenerResult(bool)>::destroy_deallocate()
PUBLIC 778f0 0 std::__ndk1::__function::__func<hook88<(anonymous namespace)::hook88Parent>::init(GJBaseGameLayer*)::{lambda()#1}::operator()() const::{lambda(bool)#9}, std::__ndk1::allocator<hook88<(anonymous namespace)::hook88Parent>::init(GJBaseGameLayer*)::{lambda()#1}::operator()() const::{lambda(bool)#9}>, geode::ListenerResult(bool)>::operator()(bool&&)
PUBLIC 77968 0 std::__ndk1::__function::__func<hook88<(anonymous namespace)::hook88Parent>::init(GJBaseGameLayer*)::{lambda()#1}::operator()() const::{lambda(bool)#9}, std::__ndk1::allocator<hook88<(anonymous namespace)::hook88Parent>::init(GJBaseGameLayer*)::{lambda()#1}::operator()() const::{lambda(bool)#9}>, geode::ListenerResult(bool)>::target(std::type_info const&) const
PUBLIC 77984 0 std::__ndk1::__function::__func<hook88<(anonymous namespace)::hook88Parent>::init(GJBaseGameLayer*)::{lambda()#1}::operator()() const::{lambda(bool)#9}, std::__ndk1::allocator<hook88<(anonymous namespace)::hook88Parent>::init(GJBaseGameLayer*)::{lambda()#1}::operator()() const::{lambda(bool)#9}>, geode::ListenerResult(bool)>::target_type() const
PUBLIC 77990 0 std::__ndk1::__function::__func<hook88<(anonymous namespace)::hook88Parent>::init(GJBaseGameLayer*)::{lambda()#1}::operator()() const::{lambda(bool)#10}, std::__ndk1::allocator<hook88<(anonymous namespace)::hook88Parent>::init(GJBaseGameLayer*)::{lambda()#1}::operator()() const::{lambda(bool)#10}>, geode::ListenerResult(bool)>::~__func()
PUBLIC 77994 0 std::__ndk1::__function::__func<hook88<(anonymous namespace)::hook88Parent>::init(GJBaseGameLayer*)::{lambda()#1}::operator()() const::{lambda(bool)#10}, std::__ndk1::allocator<hook88<(anonymous namespace)::hook88Parent>::init(GJBaseGameLayer*)::{lambda()#1}::operator()() const::{lambda(bool)#10}>, geode::ListenerResult(bool)>::__clone() const
PUBLIC 779c8 0 std::__ndk1::__function::__func<hook88<(anonymous namespace)::hook88Parent>::init(GJBaseGameLayer*)::{lambda()#1}::operator()() const::{lambda(bool)#10}, std::__ndk1::allocator<hook88<(anonymous namespace)::hook88Parent>::init(GJBaseGameLayer*)::{lambda()#1}::operator()() const::{lambda(bool)#10}>, geode::ListenerResult(bool)>::__clone(std::__ndk1::__function::__base<geode::ListenerResult(bool)>*) const
PUBLIC 779dc 0 std::__ndk1::__function::__func<hook88<(anonymous namespace)::hook88Parent>::init(GJBaseGameLayer*)::{lambda()#1}::operator()() const::{lambda(bool)#10}, std::__ndk1::allocator<hook88<(anonymous namespace)::hook88Parent>::init(GJBaseGameLayer*)::{lambda()#1}::operator()() const::{lambda(bool)#10}>, geode::ListenerResult(bool)>::destroy()
PUBLIC 779e0 0 std::__ndk1::__function::__func<hook88<(anonymous namespace)::hook88Parent>::init(GJBaseGameLayer*)::{lambda()#1}::operator()() const::{lambda(bool)#10}, std::__ndk1::allocator<hook88<(anonymous namespace)::hook88Parent>::init(GJBaseGameLayer*)::{lambda()#1}::operator()() const::{lambda(bool)#10}>, geode::ListenerResult(bool)>::destroy_deallocate()
PUBLIC 779e4 0 std::__ndk1::__function::__func<hook88<(anonymous namespace)::hook88Parent>::init(GJBaseGameLayer*)::{lambda()#1}::operator()() const::{lambda(bool)#10}, std::__ndk1::allocator<hook88<(anonymous namespace)::hook88Parent>::init(GJBaseGameLayer*)::{lambda()#1}::operator()() const::{lambda(bool)#10}>, geode::ListenerResult(bool)>::operator()(bool&&)
PUBLIC 77a5c 0 std::__ndk1::__function::__func<hook88<(anonymous namespace)::hook88Parent>::init(GJBaseGameLayer*)::{lambda()#1}::operator()() const::{lambda(bool)#10}, std::__ndk1::allocator<hook88<(anonymous namespace)::hook88Parent>::init(GJBaseGameLayer*)::{lambda()#1}::operator()() const::{lambda(bool)#10}>, geode::ListenerResult(bool)>::target(std::type_info const&) const
PUBLIC 77a78 0 std::__ndk1::__function::__func<hook88<(anonymous namespace)::hook88Parent>::init(GJBaseGameLayer*)::{lambda()#1}::operator()() const::{lambda(bool)#10}, std::__ndk1::allocator<hook88<(anonymous namespace)::hook88Parent>::init(GJBaseGameLayer*)::{lambda()#1}::operator()() const::{lambda(bool)#10}>, geode::ListenerResult(bool)>::target_type() const
PUBLIC 77a84 0 std::__ndk1::__function::__func<hook88<(anonymous namespace)::hook88Parent>::init(GJBaseGameLayer*)::{lambda()#1}::operator()() const::{lambda(bool)#11}, std::__ndk1::allocator<hook88<(anonymous namespace)::hook88Parent>::init(GJBaseGameLayer*)::{lambda()#1}::operator()() const::{lambda(bool)#11}>, geode::ListenerResult(bool)>::~__func()
PUBLIC 77a88 0 std::__ndk1::__function::__func<hook88<(anonymous namespace)::hook88Parent>::init(GJBaseGameLayer*)::{lambda()#1}::operator()() const::{lambda(bool)#11}, std::__ndk1::allocator<hook88<(anonymous namespace)::hook88Parent>::init(GJBaseGameLayer*)::{lambda()#1}::operator()() const::{lambda(bool)#11}>, geode::ListenerResult(bool)>::__clone() const
PUBLIC 77abc 0 std::__ndk1::__function::__func<hook88<(anonymous namespace)::hook88Parent>::init(GJBaseGameLayer*)::{lambda()#1}::operator()() const::{lambda(bool)#11}, std::__ndk1::allocator<hook88<(anonymous namespace)::hook88Parent>::init(GJBaseGameLayer*)::{lambda()#1}::operator()() const::{lambda(bool)#11}>, geode::ListenerResult(bool)>::__clone(std::__ndk1::__function::__base<geode::ListenerResult(bool)>*) const
PUBLIC 77ad0 0 std::__ndk1::__function::__func<hook88<(anonymous namespace)::hook88Parent>::init(GJBaseGameLayer*)::{lambda()#1}::operator()() const::{lambda(bool)#11}, std::__ndk1::allocator<hook88<(anonymous namespace)::hook88Parent>::init(GJBaseGameLayer*)::{lambda()#1}::operator()() const::{lambda(bool)#11}>, geode::ListenerResult(bool)>::destroy()
PUBLIC 77ad4 0 std::__ndk1::__function::__func<hook88<(anonymous namespace)::hook88Parent>::init(GJBaseGameLayer*)::{lambda()#1}::operator()() const::{lambda(bool)#11}, std::__ndk1::allocator<hook88<(anonymous namespace)::hook88Parent>::init(GJBaseGameLayer*)::{lambda()#1}::operator()() const::{lambda(bool)#11}>, geode::ListenerResult(bool)>::destroy_deallocate()
PUBLIC 77ad8 0 std::__ndk1::__function::__func<hook88<(anonymous namespace)::hook88Parent>::init(GJBaseGameLayer*)::{lambda()#1}::operator()() const::{lambda(bool)#11}, std::__ndk1::allocator<hook88<(anonymous namespace)::hook88Parent>::init(GJBaseGameLayer*)::{lambda()#1}::operator()() const::{lambda(bool)#11}>, geode::ListenerResult(bool)>::operator()(bool&&)
PUBLIC 77b50 0 std::__ndk1::__function::__func<hook88<(anonymous namespace)::hook88Parent>::init(GJBaseGameLayer*)::{lambda()#1}::operator()() const::{lambda(bool)#11}, std::__ndk1::allocator<hook88<(anonymous namespace)::hook88Parent>::init(GJBaseGameLayer*)::{lambda()#1}::operator()() const::{lambda(bool)#11}>, geode::ListenerResult(bool)>::target(std::type_info const&) const
PUBLIC 77b6c 0 std::__ndk1::__function::__func<hook88<(anonymous namespace)::hook88Parent>::init(GJBaseGameLayer*)::{lambda()#1}::operator()() const::{lambda(bool)#11}, std::__ndk1::allocator<hook88<(anonymous namespace)::hook88Parent>::init(GJBaseGameLayer*)::{lambda()#1}::operator()() const::{lambda(bool)#11}>, geode::ListenerResult(bool)>::target_type() const
PUBLIC 77b78 0 std::__ndk1::__function::__func<hook88<(anonymous namespace)::hook88Parent>::init(GJBaseGameLayer*)::{lambda()#1}::operator()() const::{lambda(bool)#12}, std::__ndk1::allocator<hook88<(anonymous namespace)::hook88Parent>::init(GJBaseGameLayer*)::{lambda()#1}::operator()() const::{lambda(bool)#12}>, geode::ListenerResult(bool)>::~__func()
PUBLIC 77b7c 0 std::__ndk1::__function::__func<hook88<(anonymous namespace)::hook88Parent>::init(GJBaseGameLayer*)::{lambda()#1}::operator()() const::{lambda(bool)#12}, std::__ndk1::allocator<hook88<(anonymous namespace)::hook88Parent>::init(GJBaseGameLayer*)::{lambda()#1}::operator()() const::{lambda(bool)#12}>, geode::ListenerResult(bool)>::__clone() const
PUBLIC 77bb0 0 std::__ndk1::__function::__func<hook88<(anonymous namespace)::hook88Parent>::init(GJBaseGameLayer*)::{lambda()#1}::operator()() const::{lambda(bool)#12}, std::__ndk1::allocator<hook88<(anonymous namespace)::hook88Parent>::init(GJBaseGameLayer*)::{lambda()#1}::operator()() const::{lambda(bool)#12}>, geode::ListenerResult(bool)>::__clone(std::__ndk1::__function::__base<geode::ListenerResult(bool)>*) const
PUBLIC 77bc4 0 std::__ndk1::__function::__func<hook88<(anonymous namespace)::hook88Parent>::init(GJBaseGameLayer*)::{lambda()#1}::operator()() const::{lambda(bool)#12}, std::__ndk1::allocator<hook88<(anonymous namespace)::hook88Parent>::init(GJBaseGameLayer*)::{lambda()#1}::operator()() const::{lambda(bool)#12}>, geode::ListenerResult(bool)>::destroy()
PUBLIC 77bc8 0 std::__ndk1::__function::__func<hook88<(anonymous namespace)::hook88Parent>::init(GJBaseGameLayer*)::{lambda()#1}::operator()() const::{lambda(bool)#12}, std::__ndk1::allocator<hook88<(anonymous namespace)::hook88Parent>::init(GJBaseGameLayer*)::{lambda()#1}::operator()() const::{lambda(bool)#12}>, geode::ListenerResult(bool)>::destroy_deallocate()
PUBLIC 77bcc 0 std::__ndk1::__function::__func<hook88<(anonymous namespace)::hook88Parent>::init(GJBaseGameLayer*)::{lambda()#1}::operator()() const::{lambda(bool)#12}, std::__ndk1::allocator<hook88<(anonymous namespace)::hook88Parent>::init(GJBaseGameLayer*)::{lambda()#1}::operator()() const::{lambda(bool)#12}>, geode::ListenerResult(bool)>::operator()(bool&&)
PUBLIC 77c3c 0 std::__ndk1::__function::__func<hook88<(anonymous namespace)::hook88Parent>::init(GJBaseGameLayer*)::{lambda()#1}::operator()() const::{lambda(bool)#12}, std::__ndk1::allocator<hook88<(anonymous namespace)::hook88Parent>::init(GJBaseGameLayer*)::{lambda()#1}::operator()() const::{lambda(bool)#12}>, geode::ListenerResult(bool)>::target(std::type_info const&) const
PUBLIC 77c58 0 std::__ndk1::__function::__func<hook88<(anonymous namespace)::hook88Parent>::init(GJBaseGameLayer*)::{lambda()#1}::operator()() const::{lambda(bool)#12}, std::__ndk1::allocator<hook88<(anonymous namespace)::hook88Parent>::init(GJBaseGameLayer*)::{lambda()#1}::operator()() const::{lambda(bool)#12}>, geode::ListenerResult(bool)>::target_type() const
PUBLIC 77c64 0 std::__ndk1::unordered_set<cocos2d::enumKeyCodes, std::__ndk1::hash<cocos2d::enumKeyCodes>, std::__ndk1::equal_to<cocos2d::enumKeyCodes>, std::__ndk1::allocator<cocos2d::enumKeyCodes> >::~unordered_set[abi:v170000]()
PUBLIC 77cb0 0 DummySettingValue::createNode(float)
PUBLIC 77d84 0 DummySettingValue::~DummySettingValue()
PUBLIC 77de8 0 DummySettingValue::load(matjson::Value const&)
PUBLIC 77df0 0 DummySettingValue::save(matjson::Value&) const
PUBLIC 77df8 0 __cxx_global_var_init.3
PUBLIC 784e8 0 __cxx_global_var_init.4
PUBLIC 78a28 0 _GLOBAL__sub_I_main.cpp
PUBLIC 78c8c 0 geode::modifier::ModifyBase<geode::modifier::ModifyDerive<hook78<(anonymous namespace)::hook78Parent>, cocos2d::CCKeyboardDispatcher> >::~ModifyBase()
PUBLIC 78ca8 0 geode::modifier::ModifyBase<geode::modifier::ModifyDerive<hook231<(anonymous namespace)::hook231Parent>, MoreOptionsLayer> >::~ModifyBase()
PUBLIC 78cc4 0 ButtonSettingNode::init(geode::SettingValue*, float)
PUBLIC 78df8 0 ButtonSettingNode::~ButtonSettingNode()
PUBLIC 78e1c 0 ButtonSettingNode::commit()
PUBLIC 78e20 0 ButtonSettingNode::hasUncommittedChanges()
PUBLIC 78e28 0 ButtonSettingNode::hasNonDefaultValue()
PUBLIC 78e30 0 ButtonSettingNode::resetToDefault()
PUBLIC 78e34 0 ButtonSettingNode::onOpen(cocos2d::CCObject*)
PUBLIC 78e50 0 geode::SettingValue::~SettingValue()
PUBLIC 78ea0 0 geode::SettingValue::~SettingValue()
PUBLIC 78ea4 0 geode::modifier::ModifyDerive<hook78<(anonymous namespace)::hook78Parent>, cocos2d::CCKeyboardDispatcher>::apply()
PUBLIC 796b8 0 geode::modifier::ModifyBase<geode::modifier::ModifyDerive<hook78<(anonymous namespace)::hook78Parent>, cocos2d::CCKeyboardDispatcher> >::apply()
PUBLIC 796bc 0 geode::modifier::AsStaticFunction_dispatchKeyboardMSG<hook78<(anonymous namespace)::hook78Parent>, bool (hook78<(anonymous namespace)::hook78Parent>::*)(cocos2d::enumKeyCodes, bool, bool)>::Impl<bool (hook78<(anonymous namespace)::hook78Parent>::*)(cocos2d::enumKeyCodes, bool, bool)>::function(hook78<(anonymous namespace)::hook78Parent>*, cocos2d::enumKeyCodes, bool, bool)
PUBLIC 79da0 0 geode::modifier::AsStaticFunction_updateModifierKeys<hook78<(anonymous namespace)::hook78Parent>, void (hook78<(anonymous namespace)::hook78Parent>::*)(bool, bool, bool, bool)>::Impl<void (hook78<(anonymous namespace)::hook78Parent>::*)(bool, bool, bool, bool)>::function(hook78<(anonymous namespace)::hook78Parent>*, bool, bool, bool, bool)
PUBLIC 79db4 0 std::__ndk1::__hash_table<cocos2d::enumKeyCodes, std::__ndk1::hash<cocos2d::enumKeyCodes>, std::__ndk1::equal_to<cocos2d::enumKeyCodes>, std::__ndk1::allocator<cocos2d::enumKeyCodes> >::__emplace_unique_key_args<cocos2d::enumKeyCodes, cocos2d::enumKeyCodes const&>(cocos2d::enumKeyCodes const&, cocos2d::enumKeyCodes const&)
PUBLIC 7a0d0 0 std::__ndk1::__hash_table<cocos2d::enumKeyCodes, std::__ndk1::hash<cocos2d::enumKeyCodes>, std::__ndk1::equal_to<cocos2d::enumKeyCodes>, std::__ndk1::allocator<cocos2d::enumKeyCodes> >::__do_rehash<true>(unsigned long)
PUBLIC 7a2a8 0 std::__ndk1::__hash_table<cocos2d::enumKeyCodes, std::__ndk1::hash<cocos2d::enumKeyCodes>, std::__ndk1::equal_to<cocos2d::enumKeyCodes>, std::__ndk1::allocator<cocos2d::enumKeyCodes> >::__erase_unique<cocos2d::enumKeyCodes>(cocos2d::enumKeyCodes const&)
PUBLIC 7a3e8 0 std::__ndk1::__hash_table<cocos2d::enumKeyCodes, std::__ndk1::hash<cocos2d::enumKeyCodes>, std::__ndk1::equal_to<cocos2d::enumKeyCodes>, std::__ndk1::allocator<cocos2d::enumKeyCodes> >::remove(std::__ndk1::__hash_const_iterator<std::__ndk1::__hash_node<cocos2d::enumKeyCodes, void*>*>)
PUBLIC 7a51c 0 std::__ndk1::__hash_table<keybinds::Modifier, std::__ndk1::hash<keybinds::Modifier>, std::__ndk1::equal_to<keybinds::Modifier>, std::__ndk1::allocator<keybinds::Modifier> >::__emplace_unique_key_args<keybinds::Modifier, keybinds::Modifier const&>(keybinds::Modifier const&, keybinds::Modifier const&)
PUBLIC 7a818 0 std::__ndk1::__hash_table<keybinds::Modifier, std::__ndk1::hash<keybinds::Modifier>, std::__ndk1::equal_to<keybinds::Modifier>, std::__ndk1::allocator<keybinds::Modifier> >::__do_rehash<true>(unsigned long)
PUBLIC 7a9f0 0 std::__ndk1::__hash_table<keybinds::Modifier, std::__ndk1::hash<keybinds::Modifier>, std::__ndk1::equal_to<keybinds::Modifier>, std::__ndk1::allocator<keybinds::Modifier> >::__emplace_unique_key_args<keybinds::Modifier, keybinds::Modifier>(keybinds::Modifier const&, keybinds::Modifier&&)
PUBLIC 7acec 0 geode::modifier::ModifyDerive<hook231<(anonymous namespace)::hook231Parent>, MoreOptionsLayer>::apply()
PUBLIC 7b0bc 0 geode::modifier::ModifyBase<geode::modifier::ModifyDerive<hook231<(anonymous namespace)::hook231Parent>, MoreOptionsLayer> >::apply()
PUBLIC 7b0c0 0 geode::modifier::AsStaticFunction_onKeybindings<hook231<(anonymous namespace)::hook231Parent>, void (hook231<(anonymous namespace)::hook231Parent>::*)(cocos2d::CCObject*)>::Impl<void (hook231<(anonymous namespace)::hook231Parent>::*)(cocos2d::CCObject*)>::function(hook231<(anonymous namespace)::hook231Parent>*, cocos2d::CCObject*)
PUBLIC 7b0dc 0 geode::utils::MiniFunctionState<geodeExecFunction267<(anonymous namespace)::ExecFuncUnique267>()::{lambda()#1}, void, >::~MiniFunctionState()
PUBLIC 7b0e0 0 geode::utils::MiniFunctionState<geodeExecFunction267<(anonymous namespace)::ExecFuncUnique267>()::{lambda()#1}, void, >::call() const
PUBLIC 7b168 0 geode::utils::MiniFunctionState<geodeExecFunction267<(anonymous namespace)::ExecFuncUnique267>()::{lambda()#1}, void, >::clone() const
PUBLIC 7b18c 0 ControllerChecker::checkController(float)
PUBLIC 7b400 0 std::__ndk1::__function::__func<keybinds::ControllerBind* (*)(matjson::Value const&), std::__ndk1::allocator<keybinds::ControllerBind* (*)(matjson::Value const&)>, keybinds::Bind* (matjson::Value const&)>::~__func()
PUBLIC 7b404 0 std::__ndk1::__function::__func<keybinds::ControllerBind* (*)(matjson::Value const&), std::__ndk1::allocator<keybinds::ControllerBind* (*)(matjson::Value const&)>, keybinds::Bind* (matjson::Value const&)>::__clone() const
PUBLIC 7b438 0 std::__ndk1::__function::__func<keybinds::ControllerBind* (*)(matjson::Value const&), std::__ndk1::allocator<keybinds::ControllerBind* (*)(matjson::Value const&)>, keybinds::Bind* (matjson::Value const&)>::__clone(std::__ndk1::__function::__base<keybinds::Bind* (matjson::Value const&)>*) const
PUBLIC 7b44c 0 std::__ndk1::__function::__func<keybinds::ControllerBind* (*)(matjson::Value const&), std::__ndk1::allocator<keybinds::ControllerBind* (*)(matjson::Value const&)>, keybinds::Bind* (matjson::Value const&)>::destroy()
PUBLIC 7b450 0 std::__ndk1::__function::__func<keybinds::ControllerBind* (*)(matjson::Value const&), std::__ndk1::allocator<keybinds::ControllerBind* (*)(matjson::Value const&)>, keybinds::Bind* (matjson::Value const&)>::destroy_deallocate()
PUBLIC 7b454 0 std::__ndk1::__function::__func<keybinds::ControllerBind* (*)(matjson::Value const&), std::__ndk1::allocator<keybinds::ControllerBind* (*)(matjson::Value const&)>, keybinds::Bind* (matjson::Value const&)>::operator()(matjson::Value const&)
PUBLIC 7b460 0 std::__ndk1::__function::__func<keybinds::ControllerBind* (*)(matjson::Value const&), std::__ndk1::allocator<keybinds::ControllerBind* (*)(matjson::Value const&)>, keybinds::Bind* (matjson::Value const&)>::target(std::type_info const&) const
PUBLIC 7b47c 0 std::__ndk1::__function::__func<keybinds::ControllerBind* (*)(matjson::Value const&), std::__ndk1::allocator<keybinds::ControllerBind* (*)(matjson::Value const&)>, keybinds::Bind* (matjson::Value const&)>::target_type() const
PUBLIC 7b488 0 ControllerChecker::~ControllerChecker()
PUBLIC 7b4ac 0 geode::getMod()
PUBLIC m 7b4e8 0 geodeImplicitEntry
PUBLIC 7b524 0 unwind_phase2
PUBLIC 7b65c 0 _Unwind_Resume
PUBLIC 7b6e4 0 unwind_phase2_forced
PUBLIC m 7b7d8 0 __unw_init_local
PUBLIC m 7b884 0 __unw_get_reg
PUBLIC 7b900 0 __unw_step_stage2
PUBLIC m 7b914 0 __unw_get_proc_info
PUBLIC m 7b954 0 __unw_resume
PUBLIC 7b97c 0 libunwind::CFI_Parser<libunwind::LocalAddressSpace>::decodeFDE(libunwind::LocalAddressSpace&, unsigned long, libunwind::CFI_Parser<libunwind::LocalAddressSpace>::FDE_Info*, libunwind::CFI_Parser<libunwind::LocalAddressSpace>::CIE_Info*, bool)
PUBLIC 7bb0c 0 libunwind::CFI_Parser<libunwind::LocalAddressSpace>::parseCIE(libunwind::LocalAddressSpace&, unsigned long, libunwind::CFI_Parser<libunwind::LocalAddressSpace>::CIE_Info*)
PUBLIC 7bdcc 0 libunwind::AbstractUnwindCursor::~AbstractUnwindCursor()
PUBLIC 7bdd4 0 libunwind::UnwindCursor<libunwind::LocalAddressSpace, libunwind::Registers_arm64>::~UnwindCursor()
PUBLIC 7bddc 0 libunwind::UnwindCursor<libunwind::LocalAddressSpace, libunwind::Registers_arm64>::validReg(int)
PUBLIC 7be1c 0 libunwind::UnwindCursor<libunwind::LocalAddressSpace, libunwind::Registers_arm64>::getReg(int)
PUBLIC 7bf3c 0 libunwind::UnwindCursor<libunwind::LocalAddressSpace, libunwind::Registers_arm64>::setReg(int, unsigned long)
PUBLIC 7c05c 0 libunwind::UnwindCursor<libunwind::LocalAddressSpace, libunwind::Registers_arm64>::validFloatReg(int)
PUBLIC 7c070 0 libunwind::UnwindCursor<libunwind::LocalAddressSpace, libunwind::Registers_arm64>::getFloatReg(int)
PUBLIC 7c080 0 libunwind::UnwindCursor<libunwind::LocalAddressSpace, libunwind::Registers_arm64>::setFloatReg(int, double)
PUBLIC 7c090 0 libunwind::UnwindCursor<libunwind::LocalAddressSpace, libunwind::Registers_arm64>::step(bool)
PUBLIC 7c168 0 libunwind::UnwindCursor<libunwind::LocalAddressSpace, libunwind::Registers_arm64>::getInfo(unw_proc_info_t*)
PUBLIC 7c1ac 0 libunwind::UnwindCursor<libunwind::LocalAddressSpace, libunwind::Registers_arm64>::jumpto()
PUBLIC 7c1b8 0 libunwind::UnwindCursor<libunwind::LocalAddressSpace, libunwind::Registers_arm64>::isSignalFrame()
PUBLIC 7c1c4 0 libunwind::UnwindCursor<libunwind::LocalAddressSpace, libunwind::Registers_arm64>::getFunctionName(char*, unsigned long, unsigned long*)
PUBLIC 7c1f0 0 libunwind::UnwindCursor<libunwind::LocalAddressSpace, libunwind::Registers_arm64>::setInfoBasedOnIPRegister(bool)
PUBLIC 7c470 0 libunwind::UnwindCursor<libunwind::LocalAddressSpace, libunwind::Registers_arm64>::getRegisterName(int)
PUBLIC 7c47c 0 libunwind::UnwindCursor<libunwind::LocalAddressSpace, libunwind::Registers_arm64>::stepThroughSigReturn(libunwind::Registers_arm64&)
PUBLIC 7c5a0 0 libunwind::DwarfInstructions<libunwind::LocalAddressSpace, libunwind::Registers_arm64>::stepWithDwarf(libunwind::LocalAddressSpace&, unsigned long, unsigned long, libunwind::Registers_arm64&, bool&, bool)
PUBLIC 7ca5c 0 libunwind::CFI_Parser<libunwind::LocalAddressSpace>::parseFDEInstructions(libunwind::LocalAddressSpace&, libunwind::CFI_Parser<libunwind::LocalAddressSpace>::FDE_Info const&, libunwind::CFI_Parser<libunwind::LocalAddressSpace>::CIE_Info const&, unsigned long, int, libunwind::CFI_Parser<libunwind::LocalAddressSpace>::PrologInfo*)
PUBLIC 7d570 0 libunwind::DwarfInstructions<libunwind::LocalAddressSpace, libunwind::Registers_arm64>::getCFA(libunwind::LocalAddressSpace&, libunwind::CFI_Parser<libunwind::LocalAddressSpace>::PrologInfo const&, libunwind::Registers_arm64 const&)
PUBLIC 7d66c 0 libunwind::DwarfInstructions<libunwind::LocalAddressSpace, libunwind::Registers_arm64>::getSavedRegister(libunwind::LocalAddressSpace&, libunwind::Registers_arm64 const&, unsigned long, libunwind::CFI_Parser<libunwind::LocalAddressSpace>::RegisterLocation const&)
PUBLIC 7d868 0 libunwind::LocalAddressSpace::getEncodedP(unsigned long&, unsigned long, unsigned char, unsigned long)
PUBLIC 7db8c 0 libunwind::LocalAddressSpace::getULEB128(unsigned long&, unsigned long)
PUBLIC 7dd5c 0 libunwind::DwarfInstructions<libunwind::LocalAddressSpace, libunwind::Registers_arm64>::evaluateExpression(unsigned long, libunwind::LocalAddressSpace&, libunwind::Registers_arm64 const&, unsigned long)
PUBLIC 7e720 0 libunwind::UnwindCursor<libunwind::LocalAddressSpace, libunwind::Registers_arm64>::getInfoFromDwarfSection(unsigned long, libunwind::UnwindInfoSections const&, unsigned int)
PUBLIC 7ea08 0 libunwind::findUnwindSectionsByPhdr(dl_phdr_info*, unsigned long, void*)
PUBLIC 7eba8 0 libunwind::CFI_Parser<libunwind::LocalAddressSpace>::findFDE(libunwind::LocalAddressSpace&, unsigned long, unsigned long, unsigned long, unsigned long, libunwind::CFI_Parser<libunwind::LocalAddressSpace>::FDE_Info*, libunwind::CFI_Parser<libunwind::LocalAddressSpace>::CIE_Info*)
PUBLIC 7ed70 0 libunwind::EHHeaderParser<libunwind::LocalAddressSpace>::findFDE(libunwind::LocalAddressSpace&, unsigned long, unsigned long, unsigned int, libunwind::CFI_Parser<libunwind::LocalAddressSpace>::FDE_Info*, libunwind::CFI_Parser<libunwind::LocalAddressSpace>::CIE_Info*)
PUBLIC 7ef3c 0 libunwind::EHHeaderParser<libunwind::LocalAddressSpace>::getTableEntrySize(unsigned char)
PUBLIC 7f024 0 libunwind::Registers_arm64::getRegisterName(int)
PUBLIC 7f054 0 __libunwind_Registers_arm64_jumpto
PUBLIC m 7f0e4 0 __unw_getcontext
PUBLIC 7f180 0 __aarch64_ldadd8_relax
PUBLIC 7f1b0 0 init_have_lse_atomics
PUBLIC 7f248 0 init_cpu_features_resolver
PUBLIC 7f680 0 init_cpu_features
PUBLIC 7f720 0 __aarch64_ldadd8_acq_rel
PUBLIC 7f750 0 cocos2d::CCDestructor::~CCDestructor()
PUBLIC 7fa04 0 __clang_call_terminate
PUBLIC 7fa14 0 wrapFunction(unsigned long, tulip::hook::WrapperMetadata const&)
PUBLIC 7fb30 0 tulip::hook::Result<void*, std::__ndk1::basic_string<char, std::__ndk1::char_traits<char>, std::__ndk1::allocator<char> > >::unwrapErr() &
PUBLIC 7fbdc 0 std::__ndk1::shared_ptr<tulip::hook::CallingConvention>::~shared_ptr[abi:v170000]()
PUBLIC 7fc2c 0 tulip::hook::WrapperMetadata::~WrapperMetadata()
PUBLIC 7fc90 0 cocos2d::CCNode::CCNode()
PUBLIC 7fe24 0 cocos2d::CCObject::CCObject()
PUBLIC 7ff98 0 cocos2d::CCNode::~CCNode()
PUBLIC 7ffbc 0 {virtual override thunk({offset(-320)}, cocos2d::CCLayer::~CCLayer())}
PUBLIC 7ffc4 0 cocos2d::CCLayer::~CCLayer()
PUBLIC 7ffe8 0 {virtual override thunk({offset(-320)}, cocos2d::CCLayer::~CCLayer())}
PUBLIC 80010 0 cocos2d::CCObject::~CCObject()
PUBLIC 80034 0 cocos2d::CCLayerRGBA::~CCLayerRGBA()
PUBLIC 80308 0 {virtual override thunk({offset(-320)}, cocos2d::CCLayerColor::~CCLayerColor())}
PUBLIC 80310 0 cocos2d::CCLayerColor::~CCLayerColor()
PUBLIC 80334 0 {virtual override thunk({offset(-320)}, cocos2d::CCLayerColor::~CCLayerColor())}
PUBLIC 8035c 0 {virtual override thunk({offset(-320)}, cocos2d::CCLayerRGBA::~CCLayerRGBA())}
PUBLIC 80364 0 cocos2d::CCLayerRGBA::~CCLayerRGBA()
PUBLIC 80388 0 {virtual override thunk({offset(-320)}, cocos2d::CCLayerRGBA::~CCLayerRGBA())}
PUBLIC 803b0 0 {virtual override thunk({offset(-320)}, FLAlertLayer::~FLAlertLayer())}
PUBLIC 80424 0 FLAlertLayer::~FLAlertLayer()
PUBLIC 804a0 0 {virtual override thunk({offset(-320)}, FLAlertLayer::~FLAlertLayer())}
PUBLIC 8051c 0 FLAlertLayer::FLAlertLayer()
PUBLIC 80b28 0 FLAlertLayer::create(FLAlertLayerProtocol*, char const*, gd::string, char const*, char const*, float)
PUBLIC 80cdc 0 tulip::hook::AbstractFunction::from<FLAlertLayer*, FLAlertLayerProtocol*, char const*, gd::string, char const*, char const*, float>(FLAlertLayer* (*)(FLAlertLayerProtocol*, char const*, gd::string, char const*, char const*, float))
PUBLIC 80e24 0 TextInputDelegate::textInputOpened(CCTextInputNode*)
PUBLIC 80e28 0 TextInputDelegate::textInputClosed(CCTextInputNode*)
PUBLIC 80e2c 0 TextInputDelegate::textInputShouldOffset(CCTextInputNode*, float)
PUBLIC 80e30 0 TextInputDelegate::textInputReturn(CCTextInputNode*)
PUBLIC 80e34 0 TextInputDelegate::allowTextInput(CCTextInputNode*)
PUBLIC 80e3c 0 TextInputDelegate::enterPressed(CCTextInputNode*)
PUBLIC 80e40 0 ButtonSprite::create(cocos2d::CCSprite*, int, bool, float, char const*, float)
PUBLIC 80e54 0 ButtonSprite::create(char const*, int, bool, char const*, char const*, float, float)
PUBLIC 80e74 0 ButtonSprite::create(char const*, char const*, char const*, float)
PUBLIC 80e90 0 CCMenuItemSpriteExtra::create(cocos2d::CCNode*, cocos2d::CCObject*, void (cocos2d::CCObject::*)(cocos2d::CCObject*))
PUBLIC 80ea8 0 CCMenuItemToggler::createWithStandardSprites(cocos2d::CCObject*, void (cocos2d::CCObject::*)(cocos2d::CCObject*), float)
PUBLIC 810a0 0 CCMenuItemToggler::isToggled()
PUBLIC 810a8 0 CCTextInputNode::setDelegate(TextInputDelegate*)
PUBLIC 810b0 0 tulip::hook::AbstractFunction::from<void, CCTextInputNode*, gd::string>(void (*)(CCTextInputNode*, gd::string))
PUBLIC 81150 0 CCTextInputNode::getPlaceholderLabel()
PUBLIC 81158 0 CCTextInputNode::setString(gd::string)
PUBLIC 812cc 0 CCTextInputNode::updateLabel(gd::string)
PUBLIC 81440 0 PlayLayer::get()
PUBLIC 81458 0 cocos2d::CCCopying::copyWithZone(cocos2d::CCZone*)
PUBLIC 81460 0 cocos2d::CCObject::update(float)
PUBLIC 81464 0 cocos2d::CCKeyboardDelegate::keyUp(cocos2d::enumKeyCodes)
PUBLIC 81468 0 cocos2d::CCMouseDelegate::rightKeyDown()
PUBLIC 8146c 0 cocos2d::CCMouseDelegate::rightKeyUp()
PUBLIC 81470 0 cocos2d::CCMouseDelegate::scrollWheel(float, float)
PUBLIC 81474 0 cocos2d::CCLayerRGBA::setOpacityModifyRGB(bool)
PUBLIC 81478 0 cocos2d::CCLayerRGBA::isOpacityModifyRGB()
PUBLIC 81480 0 {virtual override thunk({offset(-408)}, cocos2d::CCLayerRGBA::setOpacityModifyRGB(bool))}
PUBLIC 81484 0 {virtual override thunk({offset(-408)}, cocos2d::CCLayerRGBA::isOpacityModifyRGB())}
PUBLIC 8148c 0 cocos2d::CCLayerColor::~CCLayerColor()
PUBLIC 81744 0 FLAlertLayer::~FLAlertLayer()
PUBLIC 817b8 0 cocos2d::CCLayer::~CCLayer()
PUBLIC 81a7c 0 cocos2d::CCObject::~CCObject()
PUBLIC 81cb8 0 cocos2d::CCNode::~CCNode()
PUBLIC 81f2c 0 std::__ndk1::basic_string<char, std::__ndk1::char_traits<char>, std::__ndk1::allocator<char> >::__throw_length_error[abi:v170000]() const
PUBLIC 81f40 0 std::__ndk1::__throw_length_error[abi:v170000](char const*)
PUBLIC 81f90 0 std::length_error::length_error[abi:v170000](char const*)
PUBLIC 81fc0 0 std::__throw_bad_array_new_length([abi:v170000], void)
PUBLIC 81ff4 0 std::__ndk1::__hash_table<std::__ndk1::__hash_value_type<void*, bool>, std::__ndk1::__unordered_map_hasher<void*, std::__ndk1::__hash_value_type<void*, bool>, std::__ndk1::hash<void*>, std::__ndk1::equal_to<void*>, true>, std::__ndk1::__unordered_map_equal<void*, std::__ndk1::__hash_value_type<void*, bool>, std::__ndk1::equal_to<void*>, std::__ndk1::hash<void*>, true>, std::__ndk1::allocator<std::__ndk1::__hash_value_type<void*, bool> > >::__emplace_unique_key_args<void*, std::__ndk1::piecewise_construct_t const&, std::__ndk1::tuple<void* const&>, std::__ndk1::tuple<> >(void* const&, std::__ndk1::piecewise_construct_t const&, std::__ndk1::tuple<void* const&>, std::__ndk1::tuple<>)
PUBLIC 82478 0 __udivti3
PUBLIC 82484 0 __udivmodti4
PUBLIC m 826b8 0 __eqtf2
PUBLIC 82758 0 __unordtf2
PUBLIC 82790 0 fmt::v10::detail::throw_format_error(char const*)
PUBLIC 827e0 0 fmt::v10::format_error::runtime_error(char const*)
PUBLIC 8280c 0 __clang_call_terminate
PUBLIC 8281c 0 fmt::v10::detail::write_loc(fmt::v10::appender, fmt::v10::loc_value, fmt::v10::format_specs<char> const&, fmt::v10::detail::locale_ref)
PUBLIC 82a18 0 fmt::v10::format_facet<std::__ndk1::locale>::~format_facet()
PUBLIC 82a88 0 fmt::v10::format_facet<std::__ndk1::locale>::do_put(fmt::v10::appender, fmt::v10::loc_value, fmt::v10::format_specs<char> const&) const
PUBLIC 836a8 0 fmt::v10::detail::loc_writer<char>::~loc_writer()
PUBLIC 8370c 0 fmt::v10::vformat(fmt::v10::basic_string_view<char>, fmt::v10::basic_format_args<fmt::v10::basic_format_context<fmt::v10::appender, char> >)
PUBLIC 83da4 0 fmt::v10::detail::is_printable(unsigned int)
PUBLIC 83fc8 0 fmt::v10::detail::dragonbox::to_decimal<float>(float)
PUBLIC 842ac 0 fmt::v10::detail::dragonbox::to_decimal<double>(double)
PUBLIC 84844 0 fmt::v10::format_error::~format_error()
PUBLIC 84868 0 fmt::v10::basic_memory_buffer<char, (unsigned long)500, std::__ndk1::allocator<char> >::grow(unsigned long)
PUBLIC 849a0 0 std::__throw_bad_array_new_length([abi:v170000], void)
PUBLIC 849d4 0 fmt::v10::format_facet<std::__ndk1::locale>::~format_facet()
PUBLIC 84a4c 0 std::__ndk1::basic_string<char, std::__ndk1::char_traits<char>, std::__ndk1::allocator<char> >::__throw_length_error[abi:v170000]() const
PUBLIC 84a58 0 std::__ndk1::__throw_length_error[abi:v170000](char const*)
PUBLIC 84aa0 0 std::length_error::length_error[abi:v170000](char const*)
PUBLIC 84ad8 0 fmt::v10::detail::write<char, fmt::v10::appender, int, 0>(fmt::v10::appender, int)
PUBLIC 84cc8 0 fmt::v10::detail::copy_str_noinline<char, char*, fmt::v10::appender>(char*, char*, fmt::v10::appender)
PUBLIC 84e34 0 fmt::v10::detail::write<char, fmt::v10::appender, unsigned int, 0>(fmt::v10::appender, unsigned int)
PUBLIC 84fc4 0 fmt::v10::detail::write<char, fmt::v10::appender, long long, 0>(fmt::v10::appender, long long)
PUBLIC 851d8 0 fmt::v10::detail::write<char, fmt::v10::appender, unsigned long long, 0>(fmt::v10::appender, unsigned long long)
PUBLIC 85390 0 fmt::v10::detail::write<char, fmt::v10::appender, __int128, 0>(fmt::v10::appender, __int128)
PUBLIC 85678 0 fmt::v10::detail::write<char, fmt::v10::appender, unsigned __int128, 0>(fmt::v10::appender, unsigned __int128)
PUBLIC 858f8 0 fmt::v10::detail::write<char, fmt::v10::appender, bool, 0>(fmt::v10::appender, bool, fmt::v10::format_specs<char> const&, fmt::v10::detail::locale_ref)
PUBLIC 85b84 0 fmt::v10::detail::write_int_noinline<char, fmt::v10::appender, unsigned int>(fmt::v10::appender, fmt::v10::detail::write_int_arg<unsigned int>, fmt::v10::format_specs<char> const&, fmt::v10::detail::locale_ref)
PUBLIC 8684c 0 fmt::v10::detail::fill<fmt::v10::appender, char>(fmt::v10::appender, unsigned long, fmt::v10::detail::fill_t<char> const&)
PUBLIC 86a3c 0 fmt::v10::detail::write_escaped_cp<fmt::v10::appender, char>(fmt::v10::appender, fmt::v10::detail::find_escape_result<char> const&)
PUBLIC 86e64 0 fmt::v10::detail::write_codepoint<(unsigned long)2, char, fmt::v10::appender>(fmt::v10::appender, char, unsigned int)
PUBLIC 86fe4 0 fmt::v10::detail::write_padded<(fmt::v10::align::type)1, fmt::v10::appender, char, fmt::v10::detail::write_nonfinite<char, fmt::v10::appender>(fmt::v10::appender, bool, fmt::v10::format_specs<char>, fmt::v10::detail::float_specs const&)::{lambda(fmt::v10::appender&)#1}>(fmt::v10::appender, fmt::v10::format_specs<char> const&, unsigned long, unsigned long, fmt::v10::detail::write_nonfinite<char, fmt::v10::appender>(fmt::v10::appender, bool, fmt::v10::format_specs<char>, fmt::v10::detail::float_specs const&)::{lambda(fmt::v10::appender&)#1})
PUBLIC 87210 0 fmt::v10::detail::do_write_float<fmt::v10::appender, fmt::v10::detail::dragonbox::decimal_fp<float>, char, fmt::v10::detail::digit_grouping<char> >(fmt::v10::appender, fmt::v10::detail::dragonbox::decimal_fp<float> const&, fmt::v10::format_specs<char> const&, fmt::v10::detail::float_specs, fmt::v10::detail::locale_ref)
PUBLIC 87ddc 0 fmt::v10::detail::do_write_float<fmt::v10::appender, fmt::v10::detail::dragonbox::decimal_fp<float>, char, fmt::v10::detail::digit_grouping<char> >(fmt::v10::appender, fmt::v10::detail::dragonbox::decimal_fp<float> const&, fmt::v10::format_specs<char> const&, fmt::v10::detail::float_specs, fmt::v10::detail::locale_ref)::{lambda(fmt::v10::appender(fmt::v10::appender))#1}::operator() const
PUBLIC 87f30 0 fmt::v10::detail::digit_grouping<char>::digit_grouping(fmt::v10::detail::locale_ref, bool)
PUBLIC 88178 0 fmt::v10::detail::digit_grouping<char>::~digit_grouping()
PUBLIC 881bc 0 fmt::v10::detail::write_exponent<char, fmt::v10::appender>(int, fmt::v10::appender)
PUBLIC 88374 0 fmt::v10::detail::write_significand<char, unsigned int, 0>(char*, unsigned int, int, int, char)
PUBLIC 884f4 0 fmt::v10::detail::digit_grouping<char>::apply<fmt::v10::appender, char>(fmt::v10::appender, fmt::v10::basic_string_view<char>) const
PUBLIC 888d0 0 fmt::v10::basic_memory_buffer<int, (unsigned long)500, std::__ndk1::allocator<int> >::grow(unsigned long)
PUBLIC 889e0 0 fmt::v10::detail::do_write_float<fmt::v10::appender, fmt::v10::detail::dragonbox::decimal_fp<double>, char, fmt::v10::detail::digit_grouping<char> >(fmt::v10::appender, fmt::v10::detail::dragonbox::decimal_fp<double> const&, fmt::v10::format_specs<char> const&, fmt::v10::detail::float_specs, fmt::v10::detail::locale_ref)
PUBLIC 895e8 0 fmt::v10::detail::do_write_float<fmt::v10::appender, fmt::v10::detail::dragonbox::decimal_fp<double>, char, fmt::v10::detail::digit_grouping<char> >(fmt::v10::appender, fmt::v10::detail::dragonbox::decimal_fp<double> const&, fmt::v10::format_specs<char> const&, fmt::v10::detail::float_specs, fmt::v10::detail::locale_ref)::{lambda(fmt::v10::appender(fmt::v10::appender))#1}::operator() const
PUBLIC 89740 0 fmt::v10::detail::write_significand<char, unsigned long, 0>(char*, unsigned long, int, int, char)
PUBLIC 898e4 0 fmt::v10::detail::write_float<char, fmt::v10::appender, long double>(fmt::v10::appender, long double, fmt::v10::format_specs<char>, fmt::v10::detail::locale_ref)
PUBLIC 8a42c 0 fmt::v10::detail::write_bytes<(fmt::v10::align::type)2, char, fmt::v10::appender>(fmt::v10::appender, fmt::v10::basic_string_view<char>, fmt::v10::format_specs<char> const&)
PUBLIC 8a5fc 0 fmt::v10::detail::format_dragon(fmt::v10::detail::basic_fp<unsigned __int128>, unsigned int, int, fmt::v10::detail::buffer<char>&, int&)
PUBLIC 8b994 0 fmt::v10::detail::bigint::operator<<=(int)
PUBLIC 8bac0 0 fmt::v10::detail::bigint::assign_pow10(int)
PUBLIC 8c1f0 0 fmt::v10::detail::bigint::divmod_assign(fmt::v10::detail::bigint const&)
PUBLIC 8c554 0 fmt::v10::basic_memory_buffer<unsigned int, (unsigned long)32, std::__ndk1::allocator<unsigned int> >::grow(unsigned long)
PUBLIC 8c664 0 fmt::v10::detail::do_write_float<fmt::v10::appender, fmt::v10::detail::big_decimal_fp, char, fmt::v10::detail::digit_grouping<char> >(fmt::v10::appender, fmt::v10::detail::big_decimal_fp const&, fmt::v10::format_specs<char> const&, fmt::v10::detail::float_specs, fmt::v10::detail::locale_ref)
PUBLIC 8d4f4 0 fmt::v10::detail::do_write_float<fmt::v10::appender, fmt::v10::detail::big_decimal_fp, char, fmt::v10::detail::digit_grouping<char> >(fmt::v10::appender, fmt::v10::detail::big_decimal_fp const&, fmt::v10::format_specs<char> const&, fmt::v10::detail::float_specs, fmt::v10::detail::locale_ref)::{lambda(fmt::v10::appender(fmt::v10::appender))#1}::operator() const
PUBLIC 8d668 0 fmt::v10::detail::copy_str_noinline<char, char const*, fmt::v10::appender>(char const*, char const*, fmt::v10::appender)
PUBLIC 8d7d4 0 fmt::v10::detail::write_padded<(fmt::v10::align::type)2, fmt::v10::appender, char, fmt::v10::detail::write_ptr<char, fmt::v10::appender, unsigned long>(fmt::v10::appender, unsigned long, fmt::v10::format_specs<char> const*)::{lambda(fmt::v10::appender&)#1}>(fmt::v10::appender, fmt::v10::format_specs<char> const&, unsigned long, unsigned long, fmt::v10::detail::write_ptr<char, fmt::v10::appender, unsigned long>(fmt::v10::appender, unsigned long, fmt::v10::format_specs<char> const*)::{lambda(fmt::v10::appender&)#1})
PUBLIC 8d9a0 0 fmt::v10::detail::parse_replacement_field<char, fmt::v10::detail::vformat_to<char>(fmt::v10::detail::buffer<char>&, fmt::v10::basic_string_view<char>, fmt::v10::detail::vformat_args<char>::type, fmt::v10::detail::locale_ref)::format_handler&>(char const*, char const*, fmt::v10::detail::vformat_to<char>(fmt::v10::detail::buffer<char>&, fmt::v10::basic_string_view<char>, fmt::v10::detail::vformat_args<char>::type, fmt::v10::detail::locale_ref)::format_handler&)
PUBLIC 8f81c 0 fmt::v10::detail::parse_dynamic_spec<char>(char const*, char const*, int&, fmt::v10::detail::arg_ref<char>&, fmt::v10::basic_format_parse_context<char>&)
PUBLIC 8faa8 0 fmt::v10::basic_format_args<fmt::v10::basic_format_context<fmt::v10::appender, char> >::get<char>(fmt::v10::basic_string_view<char>) const
PUBLIC 8fc04 0 fmt::v10::detail::write_int_noinline<char, fmt::v10::appender, unsigned long>(fmt::v10::appender, fmt::v10::detail::write_int_arg<unsigned long>, fmt::v10::format_specs<char> const&, fmt::v10::detail::locale_ref)
PUBLIC 90938 0 fmt::v10::detail::write_int_noinline<char, fmt::v10::appender, unsigned __int128>(fmt::v10::appender, fmt::v10::detail::write_int_arg<unsigned __int128>, fmt::v10::format_specs<char> const&, fmt::v10::detail::locale_ref)
PUBLIC 91888 0 fmt::v10::detail::format_hexfloat<double, 0>(double, int, fmt::v10::detail::float_specs, fmt::v10::detail::buffer<char>&)
PUBLIC 91dd8 0 fmt::v10::detail::format_float<double>(double, int, fmt::v10::detail::float_specs, fmt::v10::detail::buffer<char>&)
PUBLIC 92744 0 fmt::v10::detail::write<char, fmt::v10::appender>(fmt::v10::appender, fmt::v10::basic_string_view<char>, fmt::v10::format_specs<char> const&)
PUBLIC 93658 0 fmt::v10::detail::for_each_codepoint<fmt::v10::detail::compute_width(fmt::v10::basic_string_view<char>)::count_code_points>(fmt::v10::basic_string_view<char>, fmt::v10::detail::compute_width(fmt::v10::basic_string_view<char>)::count_code_points)::{lambda(char const*, char const*)#1}::operator()(char const*, char const*) const
PUBLIC 9380c 0 fmt::v10::detail::write_int<fmt::v10::appender, unsigned long, char>(fmt::v10::appender, unsigned long, unsigned int, fmt::v10::format_specs<char> const&, fmt::v10::detail::digit_grouping<char> const&)
PUBLIC 93e68 0 fmt::v10::detail::write_int<fmt::v10::appender, unsigned __int128, char>(fmt::v10::appender, unsigned __int128, unsigned int, fmt::v10::format_specs<char> const&, fmt::v10::detail::digit_grouping<char> const&)
PUBLIC 94640 0 <.plt ELF section in geode.custom-keybinds.android64.so>
STACK CFI INIT 3f520 10 .cfa: sp 0 +
STACK CFI INIT 3f530 8 .cfa: sp 0 +
STACK CFI INIT 3f538 8 .cfa: sp 0 +
STACK CFI INIT 3f540 14 .cfa: sp 0 +
STACK CFI INIT 3f554 1c .cfa: sp 0 +
STACK CFI INIT 3f570 10 .cfa: sp 0 +
STACK CFI INIT 3f7a4 3c .cfa: sp 0 +
STACK CFI 3f7a8 .cfa: sp 32 +
STACK CFI 3f7b0 .cfa: x29 32 + x19: .cfa -16 + ^ .ra: .cfa -24 + ^ x29: .cfa -32 + ^
STACK CFI 3f7c4 .cfa: sp 32 +
STACK CFI 3f7cc .cfa: sp 0 +
STACK CFI 3f7d0 .cfa: x29 32 +
STACK CFI 3f7d4 .cfa: sp 32 +
STACK CFI 3f7dc .cfa: sp 0 +
STACK CFI INIT 3f7e0 8 .cfa: sp 0 +
STACK CFI INIT 3f7e8 6c .cfa: sp 0 +
STACK CFI 3f7ec .cfa: sp 32 +
STACK CFI 3f7f4 .cfa: x29 32 + x19: .cfa -16 + ^ .ra: .cfa -24 + ^ x29: .cfa -32 + ^
STACK CFI 3f838 .cfa: sp 32 +
STACK CFI 3f840 .cfa: sp 0 +
STACK CFI 3f844 .cfa: x29 32 +
STACK CFI 3f848 .cfa: sp 32 +
STACK CFI 3f850 .cfa: sp 0 +
STACK CFI INIT 3f854 8 .cfa: sp 0 +
STACK CFI INIT 3f85c 240 .cfa: sp 0 +
STACK CFI 3f860 .cfa: sp 64 +
STACK CFI 3f870 .cfa: x29 48 + x19: .cfa -8 + ^ x20: .cfa -16 + ^ x21: .cfa -32 + ^ .ra: .cfa -40 + ^ x29: .cfa -48 + ^
STACK CFI 3f8c0 .cfa: sp 64 +
STACK CFI 3f8d0 .cfa: sp 0 +
STACK CFI 3f8d4 .cfa: x29 48 +
STACK CFI 3fa84 .cfa: sp 64 +
STACK CFI 3fa94 .cfa: sp 0 +
STACK CFI 3fa98 .cfa: x29 48 +
STACK CFI INIT 3fa9c 48 .cfa: sp 0 +
STACK CFI 3faa0 .cfa: sp 32 +
STACK CFI 3faa8 .cfa: x29 32 + x19: .cfa -16 + ^ .ra: .cfa -24 + ^ x29: .cfa -32 + ^
STACK CFI 3fad8 .cfa: sp 32 +
STACK CFI 3fae0 .cfa: sp 0 +
STACK CFI INIT 3fae4 8 .cfa: sp 0 +
STACK CFI INIT 3faec 24 .cfa: sp 0 +
STACK CFI 3faf0 .cfa: sp 32 +
STACK CFI 3faf8 .cfa: x29 32 + x19: .cfa -16 + ^ .ra: .cfa -24 + ^ x29: .cfa -32 + ^
STACK CFI 3fb04 .cfa: sp 32 +
STACK CFI 3fb0c .cfa: sp 0 +
STACK CFI INIT 3fb10 4 .cfa: sp 0 +
STACK CFI INIT 3fb14 100 .cfa: sp 0 +
STACK CFI 3fb18 .cfa: sp 64 +
STACK CFI 3fb28 .cfa: x29 64 + x19: .cfa -8 + ^ x20: .cfa -16 + ^ x21: .cfa -24 + ^ x22: .cfa -32 + ^ x23: .cfa -48 + ^ .ra: .cfa -56 + ^ x29: .cfa -64 + ^
STACK CFI 3fb80 .cfa: sp 64 +
STACK CFI 3fb90 .cfa: sp 0 +
STACK CFI 3fb94 .cfa: x29 64 +
STACK CFI 3fbb0 .cfa: sp 64 +
STACK CFI 3fbc0 .cfa: sp 0 +
STACK CFI 3fbc4 .cfa: x29 64 +
STACK CFI 3fc00 .cfa: sp 64 +
STACK CFI 3fc10 .cfa: sp 0 +
STACK CFI INIT 4aa00 1c .cfa: sp 0 +
STACK CFI INIT 4aa1c 1c .cfa: sp 0 +
STACK CFI INIT 4b0f0 50 .cfa: sp 0 +
STACK CFI 4b0f4 .cfa: sp 32 +
STACK CFI 4b0fc .cfa: x29 32 + x19: .cfa -16 + ^ .ra: .cfa -24 + ^ x29: .cfa -32 + ^
STACK CFI 4b114 .cfa: sp 32 +
STACK CFI 4b11c .cfa: sp 0 +
STACK CFI 4b120 .cfa: x29 32 +
STACK CFI 4b134 .cfa: sp 32 +
STACK CFI 4b13c .cfa: sp 0 +
STACK CFI INIT 4b140 4 .cfa: sp 0 +
STACK CFI INIT 4b144 10 .cfa: sp 0 +
STACK CFI 4b148 .cfa: sp 16 +
STACK CFI 4b14c .cfa: x29 16 + .ra: .cfa -8 + ^ x29: .cfa -16 + ^
STACK CFI INIT 4b254 10c .cfa: sp 0 +
STACK CFI 4b258 .cfa: sp 64 +
STACK CFI 4b268 .cfa: x29 64 + x19: .cfa -8 + ^ x20: .cfa -16 + ^ x21: .cfa -24 + ^ x22: .cfa -32 + ^ x23: .cfa -40 + ^ x24: .cfa -48 + ^ .ra: .cfa -56 + ^ x29: .cfa -64 + ^
STACK CFI 4b34c .cfa: sp 64 +
STACK CFI 4b35c .cfa: sp 0 +
STACK CFI INIT 4b4ec 104 .cfa: sp 0 +
STACK CFI 4b4f0 .cfa: sp 80 +
STACK CFI 4b504 .cfa: x29 80 + x19: .cfa -8 + ^ x20: .cfa -16 + ^ x21: .cfa -24 + ^ x22: .cfa -32 + ^ x23: .cfa -40 + ^ x24: .cfa -48 + ^ x25: .cfa -56 + ^ x26: .cfa -64 + ^ .ra: .cfa -72 + ^ x29: .cfa -80 + ^
STACK CFI 4b5d8 .cfa: sp 80 +
STACK CFI 4b5ec .cfa: sp 0 +
STACK CFI INIT 4b5f0 34 .cfa: sp 0 +
STACK CFI 4b5f4 .cfa: sp 32 +
STACK CFI 4b5fc .cfa: x29 32 + x19: .cfa -16 + ^ .ra: .cfa -24 + ^ x29: .cfa -32 + ^
STACK CFI INIT 4b624 14 .cfa: sp 0 +
STACK CFI 4b628 .cfa: sp 16 +
STACK CFI 4b62c .cfa: x29 16 + .ra: .cfa -8 + ^ x29: .cfa -16 + ^
STACK CFI INIT 4b688 30 .cfa: sp 0 +
STACK CFI 4b68c .cfa: sp 32 +
STACK CFI 4b694 .cfa: x29 32 + x19: .cfa -16 + ^ .ra: .cfa -24 + ^ x29: .cfa -32 + ^
STACK CFI 4b6ac .cfa: sp 32 +
STACK CFI 4b6b4 .cfa: sp 0 +
STACK CFI INIT 4b6b8 1b4 .cfa: sp 0 +
STACK CFI INIT 4b86c 3c .cfa: sp 0 +
STACK CFI 4b870 .cfa: sp 32 +
STACK CFI 4b878 .cfa: x29 32 + x19: .cfa -16 + ^ .ra: .cfa -24 + ^ x29: .cfa -32 + ^
STACK CFI 4b89c .cfa: sp 32 +
STACK CFI 4b8a4 .cfa: sp 0 +
STACK CFI INIT 4b8a8 44 .cfa: sp 0 +
STACK CFI 4b8ac .cfa: sp 32 +
STACK CFI 4b8b4 .cfa: x29 32 + x19: .cfa -16 + ^ .ra: .cfa -24 + ^ x29: .cfa -32 + ^
STACK CFI 4b8e0 .cfa: sp 32 +
STACK CFI 4b8e8 .cfa: sp 0 +
STACK CFI INIT 4bb8c 68 .cfa: sp 0 +
STACK CFI 4bb90 .cfa: sp 32 +
STACK CFI 4bb98 .cfa: x29 32 + x19: .cfa -8 + ^ x20: .cfa -16 + ^ .ra: .cfa -24 + ^ x29: .cfa -32 + ^
STACK CFI 4bbb0 .cfa: sp 32 +
STACK CFI 4bbb8 .cfa: sp 0 +
STACK CFI 4bbbc .cfa: x29 32 +
STACK CFI 4bbe8 .cfa: sp 32 +
STACK CFI 4bbf0 .cfa: sp 0 +
STACK CFI INIT 4bbf4 14 .cfa: sp 0 +
STACK CFI 4bbf8 .cfa: sp 16 +
STACK CFI 4bbfc .cfa: x29 16 + .ra: .cfa -8 + ^ x29: .cfa -16 + ^
STACK CFI INIT 4bc08 d4 .cfa: sp 0 +
STACK CFI 4bc0c .cfa: sp 48 +
STACK CFI 4bc18 .cfa: x29 48 + x19: .cfa -8 + ^ x20: .cfa -16 + ^ x21: .cfa -32 + ^ .ra: .cfa -40 + ^ x29: .cfa -48 + ^
STACK CFI 4bca8 .cfa: sp 48 +
STACK CFI 4bcb4 .cfa: sp 0 +
STACK CFI 4bcb8 .cfa: x29 48 +
STACK CFI INIT 4bcdc 3cc .cfa: sp 0 +
STACK CFI INIT 4c0a8 8c .cfa: sp 0 +
STACK CFI 4c0b0 .cfa: sp 32 +
STACK CFI 4c0b8 .cfa: x29 32 + x19: .cfa -8 + ^ x20: .cfa -16 + ^ .ra: .cfa -24 + ^ x29: .cfa -32 + ^
STACK CFI 4c100 .cfa: sp 32 +
STACK CFI 4c108 .cfa: sp 0 +
STACK CFI 4c110 .cfa: x29 32 +
STACK CFI INIT 4c134 10 .cfa: sp 0 +
STACK CFI INIT 4c320 50 .cfa: sp 0 +
STACK CFI 4c324 .cfa: sp 32 +
STACK CFI 4c32c .cfa: x29 32 + x19: .cfa -16 + ^ .ra: .cfa -24 + ^ x29: .cfa -32 + ^
STACK CFI 4c344 .cfa: sp 32 +
STACK CFI 4c34c .cfa: sp 0 +
STACK CFI 4c350 .cfa: x29 32 +
STACK CFI 4c364 .cfa: sp 32 +
STACK CFI 4c36c .cfa: sp 0 +
STACK CFI INIT 4c370 64 .cfa: sp 0 +
STACK CFI 4c374 .cfa: sp 32 +
STACK CFI 4c37c .cfa: x29 32 + x19: .cfa -16 + ^ .ra: .cfa -24 + ^ x29: .cfa -32 + ^
STACK CFI 4c3a8 .cfa: sp 32 +
STACK CFI 4c3b0 .cfa: sp 0 +
STACK CFI 4c3b4 .cfa: x29 32 +
STACK CFI 4c3c8 .cfa: sp 32 +
STACK CFI 4c3d0 .cfa: sp 0 +
STACK CFI INIT 4c9d0 4 .cfa: sp 0 +
STACK CFI INIT 4cadc 50 .cfa: sp 0 +
STACK CFI 4cae0 .cfa: sp 32 +
STACK CFI 4cae8 .cfa: x29 32 + x19: .cfa -16 + ^ .ra: .cfa -24 + ^ x29: .cfa -32 + ^
STACK CFI 4cb20 .cfa: sp 32 +
STACK CFI 4cb28 .cfa: sp 0 +
STACK CFI INIT 4cb2c 58 .cfa: sp 0 +
STACK CFI 4cb30 .cfa: sp 32 +
STACK CFI 4cb38 .cfa: x29 32 + x19: .cfa -16 + ^ .ra: .cfa -24 + ^ x29: .cfa -32 + ^
STACK CFI 4cb78 .cfa: sp 32 +
STACK CFI 4cb80 .cfa: sp 0 +
STACK CFI INIT 4cb84 4 .cfa: sp 0 +
STACK CFI INIT 4cb88 4 .cfa: sp 0 +
STACK CFI INIT 4cb8c 48 .cfa: sp 0 +
STACK CFI 4cb90 .cfa: sp 32 +
STACK CFI 4cb98 .cfa: x29 32 + x19: .cfa -16 + ^ .ra: .cfa -24 + ^ x29: .cfa -32 + ^
STACK CFI 4cbb8 .cfa: sp 32 +
STACK CFI 4cbc0 .cfa: sp 0 +
STACK CFI 4cbc4 .cfa: x29 32 +
STACK CFI 4cbc8 .cfa: sp 32 +
STACK CFI 4cbd0 .cfa: sp 0 +
STACK CFI INIT 4cbd4 34 .cfa: sp 0 +
STACK CFI 4cbd8 .cfa: sp 32 +
STACK CFI 4cbe0 .cfa: x29 32 + x19: .cfa -16 + ^ .ra: .cfa -24 + ^ x29: .cfa -32 + ^
STACK CFI 4cbfc .cfa: sp 32 +
STACK CFI 4cc04 .cfa: sp 0 +
STACK CFI INIT 4d89c 4 .cfa: sp 0 +
STACK CFI INIT 4dce4 4 .cfa: sp 0 +
STACK CFI INIT 4dce8 4 .cfa: sp 0 +
STACK CFI INIT 4de6c 24 .cfa: sp 0 +
STACK CFI INIT 4de90 1c .cfa: sp 0 +
STACK CFI INIT 4deac 4 .cfa: sp 0 +
STACK CFI INIT 4deb0 4 .cfa: sp 0 +
STACK CFI INIT 4deb4 8 .cfa: sp 0 +
STACK CFI INIT 4debc 38 .cfa: sp 0 +
STACK CFI 4dec0 .cfa: sp 32 +
STACK CFI 4dec8 .cfa: x29 32 + x19: .cfa -16 + ^ .ra: .cfa -24 + ^ x29: .cfa -32 + ^
STACK CFI 4dee8 .cfa: sp 32 +
STACK CFI 4def0 .cfa: sp 0 +
STACK CFI INIT 50f9c 38 .cfa: sp 0 +
STACK CFI INIT 50fd4 54 .cfa: sp 0 +
STACK CFI 50fd8 .cfa: sp 32 +
STACK CFI 50fe0 .cfa: x29 32 + x19: .cfa -16 + ^ .ra: .cfa -24 + ^ x29: .cfa -32 + ^
STACK CFI 5101c .cfa: sp 32 +
STACK CFI 51024 .cfa: sp 0 +
STACK CFI INIT 51028 88 .cfa: sp 0 +
STACK CFI 5102c .cfa: sp 48 +
STACK CFI 51038 .cfa: x29 32 + x19: .cfa -8 + ^ x20: .cfa -16 + ^ .ra: .cfa -24 + ^ x29: .cfa -32 + ^
STACK CFI 51088 .cfa: sp 48 +
STACK CFI 51094 .cfa: sp 0 +
STACK CFI 51098 .cfa: x29 32 +
STACK CFI INIT 51138 34 .cfa: sp 0 +
STACK CFI 5113c .cfa: sp 16 +
STACK CFI 51140 .cfa: x29 16 + .ra: .cfa -8 + ^ x29: .cfa -16 + ^
STACK CFI INIT 5116c 24 .cfa: sp 0 +
STACK CFI 51170 .cfa: sp 32 +
STACK CFI 51178 .cfa: x29 32 + x19: .cfa -16 + ^ .ra: .cfa -24 + ^ x29: .cfa -32 + ^
STACK CFI 51184 .cfa: sp 32 +
STACK CFI 5118c .cfa: sp 0 +
STACK CFI INIT 51190 4 .cfa: sp 0 +
STACK CFI INIT 51194 34 .cfa: sp 0 +
STACK CFI 51198 .cfa: sp 32 +
STACK CFI 511a0 .cfa: x29 32 + x19: .cfa -16 + ^ .ra: .cfa -24 + ^ x29: .cfa -32 + ^
STACK CFI 511bc .cfa: sp 32 +
STACK CFI 511c4 .cfa: sp 0 +
STACK CFI INIT 511c8 14 .cfa: sp 0 +
STACK CFI INIT 511dc 4 .cfa: sp 0 +
STACK CFI INIT 511e0 4 .cfa: sp 0 +
STACK CFI INIT 511e4 24 .cfa: sp 0 +
STACK CFI INIT 51208 1c .cfa: sp 0 +
STACK CFI INIT 51224 c .cfa: sp 0 +
STACK CFI INIT 51230 4 .cfa: sp 0 +
STACK CFI INIT 51234 4 .cfa: sp 0 +
STACK CFI INIT 51238 34 .cfa: sp 0 +
STACK CFI 5123c .cfa: sp 32 +
STACK CFI 51244 .cfa: x29 32 + x19: .cfa -16 + ^ .ra: .cfa -24 + ^ x29: .cfa -32 + ^
STACK CFI 51260 .cfa: sp 32 +
STACK CFI 51268 .cfa: sp 0 +
STACK CFI INIT 5126c 14 .cfa: sp 0 +
STACK CFI INIT 51280 4 .cfa: sp 0 +
STACK CFI INIT 51284 4 .cfa: sp 0 +
STACK CFI INIT 51288 24 .cfa: sp 0 +
STACK CFI INIT 512ac 1c .cfa: sp 0 +
STACK CFI INIT 512c8 c .cfa: sp 0 +
STACK CFI INIT 512d4 4 .cfa: sp 0 +
STACK CFI INIT 512d8 34 .cfa: sp 0 +
STACK CFI 512dc .cfa: sp 32 +
STACK CFI 512e4 .cfa: x29 32 + x19: .cfa -16 + ^ .ra: .cfa -24 + ^ x29: .cfa -32 + ^
STACK CFI 51300 .cfa: sp 32 +
STACK CFI 51308 .cfa: sp 0 +
STACK CFI INIT 5130c 14 .cfa: sp 0 +
STACK CFI INIT 51320 4 .cfa: sp 0 +
STACK CFI INIT 51324 4 .cfa: sp 0 +
STACK CFI INIT 51328 24 .cfa: sp 0 +
STACK CFI INIT 5134c 1c .cfa: sp 0 +
STACK CFI INIT 51368 c .cfa: sp 0 +
STACK CFI INIT 51374 4 .cfa: sp 0 +
STACK CFI INIT 51378 34 .cfa: sp 0 +
STACK CFI 5137c .cfa: sp 32 +
STACK CFI 51384 .cfa: x29 32 + x19: .cfa -16 + ^ .ra: .cfa -24 + ^ x29: .cfa -32 + ^
STACK CFI 513a0 .cfa: sp 32 +
STACK CFI 513a8 .cfa: sp 0 +
STACK CFI INIT 513ac 14 .cfa: sp 0 +
STACK CFI INIT 513c0 4 .cfa: sp 0 +
STACK CFI INIT 513c4 4 .cfa: sp 0 +
STACK CFI INIT 513c8 24 .cfa: sp 0 +
STACK CFI INIT 513ec 1c .cfa: sp 0 +
STACK CFI INIT 51408 c .cfa: sp 0 +
STACK CFI INIT 51414 4 .cfa: sp 0 +
STACK CFI INIT 51418 34 .cfa: sp 0 +
STACK CFI 5141c .cfa: sp 32 +
STACK CFI 51424 .cfa: x29 32 + x19: .cfa -16 + ^ .ra: .cfa -24 + ^ x29: .cfa -32 + ^
STACK CFI 51440 .cfa: sp 32 +
STACK CFI 51448 .cfa: sp 0 +
STACK CFI INIT 5144c 14 .cfa: sp 0 +
STACK CFI INIT 51460 4 .cfa: sp 0 +
STACK CFI INIT 51464 4 .cfa: sp 0 +
STACK CFI INIT 51468 24 .cfa: sp 0 +
STACK CFI INIT 5148c 1c .cfa: sp 0 +
STACK CFI INIT 514a8 c .cfa: sp 0 +
STACK CFI INIT 514b4 4 .cfa: sp 0 +
STACK CFI INIT 514b8 34 .cfa: sp 0 +
STACK CFI 514bc .cfa: sp 32 +
STACK CFI 514c4 .cfa: x29 32 + x19: .cfa -16 + ^ .ra: .cfa -24 + ^ x29: .cfa -32 + ^
STACK CFI 514e0 .cfa: sp 32 +
STACK CFI 514e8 .cfa: sp 0 +
STACK CFI INIT 514ec 14 .cfa: sp 0 +
STACK CFI INIT 51500 4 .cfa: sp 0 +
STACK CFI INIT 51504 4 .cfa: sp 0 +
STACK CFI INIT 51508 24 .cfa: sp 0 +
STACK CFI INIT 5152c 1c .cfa: sp 0 +
STACK CFI INIT 51548 c .cfa: sp 0 +
STACK CFI INIT 51554 4 .cfa: sp 0 +
STACK CFI INIT 51558 34 .cfa: sp 0 +
STACK CFI 5155c .cfa: sp 32 +
STACK CFI 51564 .cfa: x29 32 + x19: .cfa -16 + ^ .ra: .cfa -24 + ^ x29: .cfa -32 + ^
STACK CFI 51580 .cfa: sp 32 +
STACK CFI 51588 .cfa: sp 0 +
STACK CFI INIT 5158c 14 .cfa: sp 0 +
STACK CFI INIT 515a0 4 .cfa: sp 0 +
STACK CFI INIT 515a4 4 .cfa: sp 0 +
STACK CFI INIT 515a8 e8 .cfa: sp 0 +
STACK CFI 515ac .cfa: sp 48 +
STACK CFI 515b8 .cfa: x29 48 + x19: .cfa -8 + ^ x20: .cfa -16 + ^ x21: .cfa -24 + ^ x22: .cfa -32 + ^ .ra: .cfa -40 + ^ x29: .cfa -48 + ^
STACK CFI 51668 .cfa: sp 48 +
STACK CFI 51674 .cfa: sp 0 +
STACK CFI 51678 .cfa: x29 48 +
STACK CFI 51680 .cfa: sp 48 +
STACK CFI 5168c .cfa: sp 0 +
STACK CFI INIT 51690 1c .cfa: sp 0 +
STACK CFI INIT 516ac c .cfa: sp 0 +
STACK CFI INIT 516b8 38 .cfa: sp 0 +
STACK CFI INIT 516f0 54 .cfa: sp 0 +
STACK CFI 516f4 .cfa: sp 32 +
STACK CFI 516fc .cfa: x29 32 + x19: .cfa -16 + ^ .ra: .cfa -24 + ^ x29: .cfa -32 + ^
STACK CFI 51738 .cfa: sp 32 +
STACK CFI 51740 .cfa: sp 0 +
STACK CFI INIT 51744 44 .cfa: sp 0 +
STACK CFI 51748 .cfa: sp 32 +
STACK CFI 51750 .cfa: x29 32 + x19: .cfa -16 + ^ .ra: .cfa -24 + ^ x29: .cfa -32 + ^
STACK CFI 51778 .cfa: sp 32 +
STACK CFI 51780 .cfa: sp 0 +
STACK CFI 51784 .cfa: x29 32 +
STACK CFI INIT 51810 4 .cfa: sp 0 +
STACK CFI INIT 51814 34 .cfa: sp 0 +
STACK CFI 51818 .cfa: sp 32 +
STACK CFI 51820 .cfa: x29 32 + x19: .cfa -16 + ^ .ra: .cfa -24 + ^ x29: .cfa -32 + ^
STACK CFI 5183c .cfa: sp 32 +
STACK CFI 51844 .cfa: sp 0 +
STACK CFI INIT 51848 14 .cfa: sp 0 +
STACK CFI INIT 5185c 4 .cfa: sp 0 +
STACK CFI INIT 51860 4 .cfa: sp 0 +
STACK CFI INIT 51864 114 .cfa: sp 0 +
STACK CFI 51868 .cfa: sp 96 +
STACK CFI 51880 .cfa: x29 80 + x19: .cfa -8 + ^ x20: .cfa -16 + ^ x21: .cfa -24 + ^ x22: .cfa -32 + ^ x23: .cfa -40 + ^ x24: .cfa -48 + ^ x25: .cfa -64 + ^ .ra: .cfa -72 + ^ x29: .cfa -80 + ^
STACK CFI 51958 .cfa: sp 96 +
STACK CFI 51970 .cfa: sp 0 +
STACK CFI 51974 .cfa: x29 80 +
STACK CFI INIT 51978 1c .cfa: sp 0 +
STACK CFI INIT 51994 c .cfa: sp 0 +
STACK CFI INIT 519a0 4 .cfa: sp 0 +
STACK CFI INIT 519a4 34 .cfa: sp 0 +
STACK CFI 519a8 .cfa: sp 32 +
STACK CFI 519b0 .cfa: x29 32 + x19: .cfa -16 + ^ .ra: .cfa -24 + ^ x29: .cfa -32 + ^
STACK CFI 519cc .cfa: sp 32 +
STACK CFI 519d4 .cfa: sp 0 +
STACK CFI INIT 519d8 14 .cfa: sp 0 +
STACK CFI INIT 519ec 4 .cfa: sp 0 +
STACK CFI INIT 519f0 4 .cfa: sp 0 +
STACK CFI INIT 519f4 114 .cfa: sp 0 +
STACK CFI 519f8 .cfa: sp 96 +
STACK CFI 51a10 .cfa: x29 80 + x19: .cfa -8 + ^ x20: .cfa -16 + ^ x21: .cfa -24 + ^ x22: .cfa -32 + ^ x23: .cfa -40 + ^ x24: .cfa -48 + ^ x25: .cfa -64 + ^ .ra: .cfa -72 + ^ x29: .cfa -80 + ^
STACK CFI 51ae8 .cfa: sp 96 +
STACK CFI 51b00 .cfa: sp 0 +
STACK CFI 51b04 .cfa: x29 80 +
STACK CFI INIT 51b08 1c .cfa: sp 0 +
STACK CFI INIT 51b24 c .cfa: sp 0 +
STACK CFI INIT 51b30 4 .cfa: sp 0 +
STACK CFI INIT 51b34 34 .cfa: sp 0 +
STACK CFI 51b38 .cfa: sp 32 +
STACK CFI 51b40 .cfa: x29 32 + x19: .cfa -16 + ^ .ra: .cfa -24 + ^ x29: .cfa -32 + ^
STACK CFI 51b5c .cfa: sp 32 +
STACK CFI 51b64 .cfa: sp 0 +
STACK CFI INIT 51b68 14 .cfa: sp 0 +
STACK CFI INIT 51b7c 4 .cfa: sp 0 +
STACK CFI INIT 51b80 4 .cfa: sp 0 +
STACK CFI INIT 51b84 114 .cfa: sp 0 +
STACK CFI 51b88 .cfa: sp 96 +
STACK CFI 51ba0 .cfa: x29 80 + x19: .cfa -8 + ^ x20: .cfa -16 + ^ x21: .cfa -24 + ^ x22: .cfa -32 + ^ x23: .cfa -40 + ^ x24: .cfa -48 + ^ x25: .cfa -64 + ^ .ra: .cfa -72 + ^ x29: .cfa -80 + ^
STACK CFI 51c78 .cfa: sp 96 +
STACK CFI 51c90 .cfa: sp 0 +
STACK CFI 51c94 .cfa: x29 80 +
STACK CFI INIT 51c98 1c .cfa: sp 0 +
STACK CFI INIT 51cb4 c .cfa: sp 0 +
STACK CFI INIT 51cc0 4 .cfa: sp 0 +
STACK CFI INIT 51cc4 34 .cfa: sp 0 +
STACK CFI 51cc8 .cfa: sp 32 +
STACK CFI 51cd0 .cfa: x29 32 + x19: .cfa -16 + ^ .ra: .cfa -24 + ^ x29: .cfa -32 + ^
STACK CFI 51cec .cfa: sp 32 +
STACK CFI 51cf4 .cfa: sp 0 +
STACK CFI INIT 51cf8 14 .cfa: sp 0 +
STACK CFI INIT 51d0c 4 .cfa: sp 0 +
STACK CFI INIT 51d10 4 .cfa: sp 0 +
STACK CFI INIT 51d14 114 .cfa: sp 0 +
STACK CFI 51d18 .cfa: sp 96 +
STACK CFI 51d30 .cfa: x29 80 + x19: .cfa -8 + ^ x20: .cfa -16 + ^ x21: .cfa -24 + ^ x22: .cfa -32 + ^ x23: .cfa -40 + ^ x24: .cfa -48 + ^ x25: .cfa -64 + ^ .ra: .cfa -72 + ^ x29: .cfa -80 + ^
STACK CFI 51e08 .cfa: sp 96 +
STACK CFI 51e20 .cfa: sp 0 +
STACK CFI 51e24 .cfa: x29 80 +
STACK CFI INIT 51e28 1c .cfa: sp 0 +
STACK CFI INIT 51e44 c .cfa: sp 0 +
STACK CFI INIT 51e50 4 .cfa: sp 0 +
STACK CFI INIT 51e54 34 .cfa: sp 0 +
STACK CFI 51e58 .cfa: sp 32 +
STACK CFI 51e60 .cfa: x29 32 + x19: .cfa -16 + ^ .ra: .cfa -24 + ^ x29: .cfa -32 + ^
STACK CFI 51e7c .cfa: sp 32 +
STACK CFI 51e84 .cfa: sp 0 +
STACK CFI INIT 51e88 14 .cfa: sp 0 +
STACK CFI INIT 51e9c 4 .cfa: sp 0 +
STACK CFI INIT 51ea0 4 .cfa: sp 0 +
STACK CFI INIT 51ea4 114 .cfa: sp 0 +
STACK CFI 51ea8 .cfa: sp 96 +
STACK CFI 51ec0 .cfa: x29 80 + x19: .cfa -8 + ^ x20: .cfa -16 + ^ x21: .cfa -24 + ^ x22: .cfa -32 + ^ x23: .cfa -40 + ^ x24: .cfa -48 + ^ x25: .cfa -64 + ^ .ra: .cfa -72 + ^ x29: .cfa -80 + ^
STACK CFI 51f98 .cfa: sp 96 +
STACK CFI 51fb0 .cfa: sp 0 +
STACK CFI 51fb4 .cfa: x29 80 +
STACK CFI INIT 51fb8 1c .cfa: sp 0 +
STACK CFI INIT 51fd4 c .cfa: sp 0 +
STACK CFI INIT 51fe0 4 .cfa: sp 0 +
STACK CFI INIT 51fe4 34 .cfa: sp 0 +
STACK CFI 51fe8 .cfa: sp 32 +
STACK CFI 51ff0 .cfa: x29 32 + x19: .cfa -16 + ^ .ra: .cfa -24 + ^ x29: .cfa -32 + ^
STACK CFI 5200c .cfa: sp 32 +
STACK CFI 52014 .cfa: sp 0 +
STACK CFI INIT 52018 14 .cfa: sp 0 +
STACK CFI INIT 5202c 4 .cfa: sp 0 +
STACK CFI INIT 52030 4 .cfa: sp 0 +
STACK CFI INIT 52034 114 .cfa: sp 0 +
STACK CFI 52038 .cfa: sp 96 +
STACK CFI 52050 .cfa: x29 80 + x19: .cfa -8 + ^ x20: .cfa -16 + ^ x21: .cfa -24 + ^ x22: .cfa -32 + ^ x23: .cfa -40 + ^ x24: .cfa -48 + ^ x25: .cfa -64 + ^ .ra: .cfa -72 + ^ x29: .cfa -80 + ^
STACK CFI 52128 .cfa: sp 96 +
STACK CFI 52140 .cfa: sp 0 +
STACK CFI 52144 .cfa: x29 80 +
STACK CFI INIT 52148 1c .cfa: sp 0 +
STACK CFI INIT 52164 c .cfa: sp 0 +
STACK CFI INIT 52170 4 .cfa: sp 0 +
STACK CFI INIT 52174 34 .cfa: sp 0 +
STACK CFI 52178 .cfa: sp 32 +
STACK CFI 52180 .cfa: x29 32 + x19: .cfa -16 + ^ .ra: .cfa -24 + ^ x29: .cfa -32 + ^
STACK CFI 5219c .cfa: sp 32 +
STACK CFI 521a4 .cfa: sp 0 +
STACK CFI INIT 521a8 14 .cfa: sp 0 +
STACK CFI INIT 521bc 4 .cfa: sp 0 +
STACK CFI INIT 521c0 4 .cfa: sp 0 +
STACK CFI INIT 521c4 114 .cfa: sp 0 +
STACK CFI 521c8 .cfa: sp 96 +
STACK CFI 521e0 .cfa: x29 80 + x19: .cfa -8 + ^ x20: .cfa -16 + ^ x21: .cfa -24 + ^ x22: .cfa -32 + ^ x23: .cfa -40 + ^ x24: .cfa -48 + ^ x25: .cfa -64 + ^ .ra: .cfa -72 + ^ x29: .cfa -80 + ^
STACK CFI 522b8 .cfa: sp 96 +
STACK CFI 522d0 .cfa: sp 0 +
STACK CFI 522d4 .cfa: x29 80 +
STACK CFI INIT 522d8 1c .cfa: sp 0 +
STACK CFI INIT 522f4 c .cfa: sp 0 +
STACK CFI INIT 52300 4 .cfa: sp 0 +
STACK CFI INIT 52304 34 .cfa: sp 0 +
STACK CFI 52308 .cfa: sp 32 +
STACK CFI 52310 .cfa: x29 32 + x19: .cfa -16 + ^ .ra: .cfa -24 + ^ x29: .cfa -32 + ^
STACK CFI 5232c .cfa: sp 32 +
STACK CFI 52334 .cfa: sp 0 +
STACK CFI INIT 52338 14 .cfa: sp 0 +
STACK CFI INIT 5234c 4 .cfa: sp 0 +
STACK CFI INIT 52350 4 .cfa: sp 0 +
STACK CFI INIT 52354 114 .cfa: sp 0 +
STACK CFI 52358 .cfa: sp 96 +
STACK CFI 52370 .cfa: x29 80 + x19: .cfa -8 + ^ x20: .cfa -16 + ^ x21: .cfa -24 + ^ x22: .cfa -32 + ^ x23: .cfa -40 + ^ x24: .cfa -48 + ^ x25: .cfa -64 + ^ .ra: .cfa -72 + ^ x29: .cfa -80 + ^
STACK CFI 52448 .cfa: sp 96 +
STACK CFI 52460 .cfa: sp 0 +
STACK CFI 52464 .cfa: x29 80 +
STACK CFI INIT 52468 1c .cfa: sp 0 +
STACK CFI INIT 52484 c .cfa: sp 0 +
STACK CFI INIT 52490 4 .cfa: sp 0 +
STACK CFI INIT 52494 34 .cfa: sp 0 +
STACK CFI 52498 .cfa: sp 32 +
STACK CFI 524a0 .cfa: x29 32 + x19: .cfa -16 + ^ .ra: .cfa -24 + ^ x29: .cfa -32 + ^
STACK CFI 524bc .cfa: sp 32 +
STACK CFI 524c4 .cfa: sp 0 +
STACK CFI INIT 524c8 14 .cfa: sp 0 +
STACK CFI INIT 524dc 4 .cfa: sp 0 +
STACK CFI INIT 524e0 4 .cfa: sp 0 +
STACK CFI INIT 524e4 114 .cfa: sp 0 +
STACK CFI 524e8 .cfa: sp 96 +
STACK CFI 52500 .cfa: x29 80 + x19: .cfa -8 + ^ x20: .cfa -16 + ^ x21: .cfa -24 + ^ x22: .cfa -32 + ^ x23: .cfa -40 + ^ x24: .cfa -48 + ^ x25: .cfa -64 + ^ .ra: .cfa -72 + ^ x29: .cfa -80 + ^
STACK CFI 525d8 .cfa: sp 96 +
STACK CFI 525f0 .cfa: sp 0 +
STACK CFI 525f4 .cfa: x29 80 +
STACK CFI INIT 525f8 1c .cfa: sp 0 +
STACK CFI INIT 52614 c .cfa: sp 0 +
STACK CFI INIT 52620 4 .cfa: sp 0 +
STACK CFI INIT 52624 34 .cfa: sp 0 +
STACK CFI 52628 .cfa: sp 32 +
STACK CFI 52630 .cfa: x29 32 + x19: .cfa -16 + ^ .ra: .cfa -24 + ^ x29: .cfa -32 + ^
STACK CFI 5264c .cfa: sp 32 +
STACK CFI 52654 .cfa: sp 0 +
STACK CFI INIT 52658 14 .cfa: sp 0 +
STACK CFI INIT 5266c 4 .cfa: sp 0 +
STACK CFI INIT 52670 4 .cfa: sp 0 +
STACK CFI INIT 52674 124 .cfa: sp 0 +
STACK CFI 52678 .cfa: sp 112 +
STACK CFI 52690 .cfa: x29 80 + x19: .cfa -8 + ^ x20: .cfa -16 + ^ x21: .cfa -24 + ^ x22: .cfa -32 + ^ x23: .cfa -40 + ^ x24: .cfa -48 + ^ x25: .cfa -64 + ^ .ra: .cfa -72 + ^ x29: .cfa -80 + ^
STACK CFI 52778 .cfa: sp 112 +
STACK CFI 52790 .cfa: sp 0 +
STACK CFI 52794 .cfa: x29 80 +
STACK CFI INIT 52798 1c .cfa: sp 0 +
STACK CFI INIT 527b4 c .cfa: sp 0 +
STACK CFI INIT 527c0 4 .cfa: sp 0 +
STACK CFI INIT 527c4 34 .cfa: sp 0 +
STACK CFI 527c8 .cfa: sp 32 +
STACK CFI 527d0 .cfa: x29 32 + x19: .cfa -16 + ^ .ra: .cfa -24 + ^ x29: .cfa -32 + ^
STACK CFI 527ec .cfa: sp 32 +
STACK CFI 527f4 .cfa: sp 0 +
STACK CFI INIT 527f8 14 .cfa: sp 0 +
STACK CFI INIT 5280c 4 .cfa: sp 0 +
STACK CFI INIT 52810 4 .cfa: sp 0 +
STACK CFI INIT 52814 114 .cfa: sp 0 +
STACK CFI 52818 .cfa: sp 96 +
STACK CFI 52830 .cfa: x29 80 + x19: .cfa -8 + ^ x20: .cfa -16 + ^ x21: .cfa -24 + ^ x22: .cfa -32 + ^ x23: .cfa -40 + ^ x24: .cfa -48 + ^ x25: .cfa -64 + ^ .ra: .cfa -72 + ^ x29: .cfa -80 + ^
STACK CFI 52908 .cfa: sp 96 +
STACK CFI 52920 .cfa: sp 0 +
STACK CFI 52924 .cfa: x29 80 +
STACK CFI INIT 52928 1c .cfa: sp 0 +
STACK CFI INIT 52944 c .cfa: sp 0 +
STACK CFI INIT 52950 4 .cfa: sp 0 +
STACK CFI INIT 52954 34 .cfa: sp 0 +
STACK CFI 52958 .cfa: sp 32 +
STACK CFI 52960 .cfa: x29 32 + x19: .cfa -16 + ^ .ra: .cfa -24 + ^ x29: .cfa -32 + ^
STACK CFI 5297c .cfa: sp 32 +
STACK CFI 52984 .cfa: sp 0 +
STACK CFI INIT 52988 14 .cfa: sp 0 +
STACK CFI INIT 5299c 4 .cfa: sp 0 +
STACK CFI INIT 529a0 4 .cfa: sp 0 +
STACK CFI INIT 529a4 114 .cfa: sp 0 +
STACK CFI 529a8 .cfa: sp 96 +
STACK CFI 529c0 .cfa: x29 80 + x19: .cfa -8 + ^ x20: .cfa -16 + ^ x21: .cfa -24 + ^ x22: .cfa -32 + ^ x23: .cfa -40 + ^ x24: .cfa -48 + ^ x25: .cfa -64 + ^ .ra: .cfa -72 + ^ x29: .cfa -80 + ^
STACK CFI 52a98 .cfa: sp 96 +
STACK CFI 52ab0 .cfa: sp 0 +
STACK CFI 52ab4 .cfa: x29 80 +
STACK CFI INIT 52ab8 1c .cfa: sp 0 +
STACK CFI INIT 52ad4 c .cfa: sp 0 +
STACK CFI INIT 52ae0 4 .cfa: sp 0 +
STACK CFI INIT 52ae4 34 .cfa: sp 0 +
STACK CFI 52ae8 .cfa: sp 32 +
STACK CFI 52af0 .cfa: x29 32 + x19: .cfa -16 + ^ .ra: .cfa -24 + ^ x29: .cfa -32 + ^
STACK CFI 52b0c .cfa: sp 32 +
STACK CFI 52b14 .cfa: sp 0 +
STACK CFI INIT 52b18 14 .cfa: sp 0 +
STACK CFI INIT 52b2c 4 .cfa: sp 0 +
STACK CFI INIT 52b30 4 .cfa: sp 0 +
STACK CFI INIT 52b34 114 .cfa: sp 0 +
STACK CFI 52b38 .cfa: sp 96 +
STACK CFI 52b50 .cfa: x29 80 + x19: .cfa -8 + ^ x20: .cfa -16 + ^ x21: .cfa -24 + ^ x22: .cfa -32 + ^ x23: .cfa -40 + ^ x24: .cfa -48 + ^ x25: .cfa -64 + ^ .ra: .cfa -72 + ^ x29: .cfa -80 + ^
STACK CFI 52c28 .cfa: sp 96 +
STACK CFI 52c40 .cfa: sp 0 +
STACK CFI 52c44 .cfa: x29 80 +
STACK CFI INIT 52c48 1c .cfa: sp 0 +
STACK CFI INIT 52c64 c .cfa: sp 0 +
STACK CFI INIT 52c70 4 .cfa: sp 0 +
STACK CFI INIT 52c74 34 .cfa: sp 0 +
STACK CFI 52c78 .cfa: sp 32 +
STACK CFI 52c80 .cfa: x29 32 + x19: .cfa -16 + ^ .ra: .cfa -24 + ^ x29: .cfa -32 + ^
STACK CFI 52c9c .cfa: sp 32 +
STACK CFI 52ca4 .cfa: sp 0 +
STACK CFI INIT 52ca8 14 .cfa: sp 0 +
STACK CFI INIT 52cbc 4 .cfa: sp 0 +
STACK CFI INIT 52cc0 4 .cfa: sp 0 +
STACK CFI INIT 52cc4 114 .cfa: sp 0 +
STACK CFI 52cc8 .cfa: sp 96 +
STACK CFI 52ce0 .cfa: x29 80 + x19: .cfa -8 + ^ x20: .cfa -16 + ^ x21: .cfa -24 + ^ x22: .cfa -32 + ^ x23: .cfa -40 + ^ x24: .cfa -48 + ^ x25: .cfa -64 + ^ .ra: .cfa -72 + ^ x29: .cfa -80 + ^
STACK CFI 52db8 .cfa: sp 96 +
STACK CFI 52dd0 .cfa: sp 0 +
STACK CFI 52dd4 .cfa: x29 80 +
STACK CFI INIT 52dd8 1c .cfa: sp 0 +
STACK CFI INIT 52df4 c .cfa: sp 0 +
STACK CFI INIT 52e00 4 .cfa: sp 0 +
STACK CFI INIT 52e04 34 .cfa: sp 0 +
STACK CFI 52e08 .cfa: sp 32 +
STACK CFI 52e10 .cfa: x29 32 + x19: .cfa -16 + ^ .ra: .cfa -24 + ^ x29: .cfa -32 + ^
STACK CFI 52e2c .cfa: sp 32 +
STACK CFI 52e34 .cfa: sp 0 +
STACK CFI INIT 52e38 14 .cfa: sp 0 +
STACK CFI INIT 52e4c 4 .cfa: sp 0 +
STACK CFI INIT 52e50 4 .cfa: sp 0 +
STACK CFI INIT 52e54 114 .cfa: sp 0 +
STACK CFI 52e58 .cfa: sp 96 +
STACK CFI 52e70 .cfa: x29 80 + x19: .cfa -8 + ^ x20: .cfa -16 + ^ x21: .cfa -24 + ^ x22: .cfa -32 + ^ x23: .cfa -40 + ^ x24: .cfa -48 + ^ x25: .cfa -64 + ^ .ra: .cfa -72 + ^ x29: .cfa -80 + ^
STACK CFI 52f48 .cfa: sp 96 +
STACK CFI 52f60 .cfa: sp 0 +
STACK CFI 52f64 .cfa: x29 80 +
STACK CFI INIT 52f68 1c .cfa: sp 0 +
STACK CFI INIT 52f84 c .cfa: sp 0 +
STACK CFI INIT 52f90 4 .cfa: sp 0 +
STACK CFI INIT 52f94 34 .cfa: sp 0 +
STACK CFI 52f98 .cfa: sp 32 +
STACK CFI 52fa0 .cfa: x29 32 + x19: .cfa -16 + ^ .ra: .cfa -24 + ^ x29: .cfa -32 + ^
STACK CFI 52fbc .cfa: sp 32 +
STACK CFI 52fc4 .cfa: sp 0 +
STACK CFI INIT 52fc8 14 .cfa: sp 0 +
STACK CFI INIT 52fdc 4 .cfa: sp 0 +
STACK CFI INIT 52fe0 4 .cfa: sp 0 +
STACK CFI INIT 52fe4 114 .cfa: sp 0 +
STACK CFI 52fe8 .cfa: sp 96 +
STACK CFI 53000 .cfa: x29 80 + x19: .cfa -8 + ^ x20: .cfa -16 + ^ x21: .cfa -24 + ^ x22: .cfa -32 + ^ x23: .cfa -40 + ^ x24: .cfa -48 + ^ x25: .cfa -64 + ^ .ra: .cfa -72 + ^ x29: .cfa -80 + ^
STACK CFI 530d8 .cfa: sp 96 +
STACK CFI 530f0 .cfa: sp 0 +
STACK CFI 530f4 .cfa: x29 80 +
STACK CFI INIT 530f8 1c .cfa: sp 0 +
STACK CFI INIT 53114 c .cfa: sp 0 +
STACK CFI INIT 53120 4 .cfa: sp 0 +
STACK CFI INIT 53124 34 .cfa: sp 0 +
STACK CFI 53128 .cfa: sp 32 +
STACK CFI 53130 .cfa: x29 32 + x19: .cfa -16 + ^ .ra: .cfa -24 + ^ x29: .cfa -32 + ^
STACK CFI 5314c .cfa: sp 32 +
STACK CFI 53154 .cfa: sp 0 +
STACK CFI INIT 53158 14 .cfa: sp 0 +
STACK CFI INIT 5316c 4 .cfa: sp 0 +
STACK CFI INIT 53170 4 .cfa: sp 0 +
STACK CFI INIT 53174 114 .cfa: sp 0 +
STACK CFI 53178 .cfa: sp 96 +
STACK CFI 53190 .cfa: x29 80 + x19: .cfa -8 + ^ x20: .cfa -16 + ^ x21: .cfa -24 + ^ x22: .cfa -32 + ^ x23: .cfa -40 + ^ x24: .cfa -48 + ^ x25: .cfa -64 + ^ .ra: .cfa -72 + ^ x29: .cfa -80 + ^
STACK CFI 53268 .cfa: sp 96 +
STACK CFI 53280 .cfa: sp 0 +
STACK CFI 53284 .cfa: x29 80 +
STACK CFI INIT 53288 1c .cfa: sp 0 +
STACK CFI INIT 532a4 c .cfa: sp 0 +
STACK CFI INIT 532b0 4 .cfa: sp 0 +
STACK CFI INIT 532b4 34 .cfa: sp 0 +
STACK CFI 532b8 .cfa: sp 32 +
STACK CFI 532c0 .cfa: x29 32 + x19: .cfa -16 + ^ .ra: .cfa -24 + ^ x29: .cfa -32 + ^
STACK CFI 532dc .cfa: sp 32 +
STACK CFI 532e4 .cfa: sp 0 +
STACK CFI INIT 532e8 14 .cfa: sp 0 +
STACK CFI INIT 532fc 4 .cfa: sp 0 +
STACK CFI INIT 53300 4 .cfa: sp 0 +
STACK CFI INIT 53304 114 .cfa: sp 0 +
STACK CFI 53308 .cfa: sp 96 +
STACK CFI 53320 .cfa: x29 80 + x19: .cfa -8 + ^ x20: .cfa -16 + ^ x21: .cfa -24 + ^ x22: .cfa -32 + ^ x23: .cfa -40 + ^ x24: .cfa -48 + ^ x25: .cfa -64 + ^ .ra: .cfa -72 + ^ x29: .cfa -80 + ^
STACK CFI 533f8 .cfa: sp 96 +
STACK CFI 53410 .cfa: sp 0 +
STACK CFI 53414 .cfa: x29 80 +
STACK CFI INIT 53418 1c .cfa: sp 0 +
STACK CFI INIT 53434 c .cfa: sp 0 +
STACK CFI INIT 53440 4 .cfa: sp 0 +
STACK CFI INIT 53444 34 .cfa: sp 0 +
STACK CFI 53448 .cfa: sp 32 +
STACK CFI 53450 .cfa: x29 32 + x19: .cfa -16 + ^ .ra: .cfa -24 + ^ x29: .cfa -32 + ^
STACK CFI 5346c .cfa: sp 32 +
STACK CFI 53474 .cfa: sp 0 +
STACK CFI INIT 53478 14 .cfa: sp 0 +
STACK CFI INIT 5348c 4 .cfa: sp 0 +
STACK CFI INIT 53490 4 .cfa: sp 0 +
STACK CFI INIT 53494 114 .cfa: sp 0 +
STACK CFI 53498 .cfa: sp 96 +
STACK CFI 534b0 .cfa: x29 80 + x19: .cfa -8 + ^ x20: .cfa -16 + ^ x21: .cfa -24 + ^ x22: .cfa -32 + ^ x23: .cfa -40 + ^ x24: .cfa -48 + ^ x25: .cfa -64 + ^ .ra: .cfa -72 + ^ x29: .cfa -80 + ^
STACK CFI 53588 .cfa: sp 96 +
STACK CFI 535a0 .cfa: sp 0 +
STACK CFI 535a4 .cfa: x29 80 +
STACK CFI INIT 535a8 1c .cfa: sp 0 +
STACK CFI INIT 535c4 c .cfa: sp 0 +
STACK CFI INIT 535d0 4 .cfa: sp 0 +
STACK CFI INIT 535d4 34 .cfa: sp 0 +
STACK CFI 535d8 .cfa: sp 32 +
STACK CFI 535e0 .cfa: x29 32 + x19: .cfa -16 + ^ .ra: .cfa -24 + ^ x29: .cfa -32 + ^
STACK CFI 535fc .cfa: sp 32 +
STACK CFI 53604 .cfa: sp 0 +
STACK CFI INIT 53608 14 .cfa: sp 0 +
STACK CFI INIT 5361c 4 .cfa: sp 0 +
STACK CFI INIT 53620 4 .cfa: sp 0 +
STACK CFI INIT 53624 114 .cfa: sp 0 +
STACK CFI 53628 .cfa: sp 96 +
STACK CFI 53640 .cfa: x29 80 + x19: .cfa -8 + ^ x20: .cfa -16 + ^ x21: .cfa -24 + ^ x22: .cfa -32 + ^ x23: .cfa -40 + ^ x24: .cfa -48 + ^ x25: .cfa -64 + ^ .ra: .cfa -72 + ^ x29: .cfa -80 + ^
STACK CFI 53718 .cfa: sp 96 +
STACK CFI 53730 .cfa: sp 0 +
STACK CFI 53734 .cfa: x29 80 +
STACK CFI INIT 53738 1c .cfa: sp 0 +
STACK CFI INIT 53754 c .cfa: sp 0 +
STACK CFI INIT 53760 4 .cfa: sp 0 +
STACK CFI INIT 53764 34 .cfa: sp 0 +
STACK CFI 53768 .cfa: sp 32 +
STACK CFI 53770 .cfa: x29 32 + x19: .cfa -16 + ^ .ra: .cfa -24 + ^ x29: .cfa -32 + ^
STACK CFI 5378c .cfa: sp 32 +
STACK CFI 53794 .cfa: sp 0 +
STACK CFI INIT 53798 14 .cfa: sp 0 +
STACK CFI INIT 537ac 4 .cfa: sp 0 +
STACK CFI INIT 537b0 4 .cfa: sp 0 +
STACK CFI INIT 537b4 c .cfa: sp 0 +
STACK CFI INIT 537c0 1c .cfa: sp 0 +
STACK CFI INIT 537dc c .cfa: sp 0 +
STACK CFI INIT 537e8 4 .cfa: sp 0 +
STACK CFI INIT 537ec 34 .cfa: sp 0 +
STACK CFI 537f0 .cfa: sp 32 +
STACK CFI 537f8 .cfa: x29 32 + x19: .cfa -16 + ^ .ra: .cfa -24 + ^ x29: .cfa -32 + ^
STACK CFI 53814 .cfa: sp 32 +
STACK CFI 5381c .cfa: sp 0 +
STACK CFI INIT 53820 14 .cfa: sp 0 +
STACK CFI INIT 53834 4 .cfa: sp 0 +
STACK CFI INIT 53838 4 .cfa: sp 0 +
STACK CFI INIT 5383c 4c .cfa: sp 0 +
STACK CFI 53840 .cfa: sp 32 +
STACK CFI 53848 .cfa: x29 32 + x19: .cfa -16 + ^ .ra: .cfa -24 + ^ x29: .cfa -32 + ^
STACK CFI 53860 .cfa: sp 32 +
STACK CFI 53868 .cfa: sp 0 +
STACK CFI 5386c .cfa: x29 32 +
STACK CFI 5387c .cfa: sp 32 +
STACK CFI 53884 .cfa: sp 0 +
STACK CFI INIT 53888 1c .cfa: sp 0 +
STACK CFI INIT 538a4 c .cfa: sp 0 +
STACK CFI INIT 538b0 4 .cfa: sp 0 +
STACK CFI INIT 538b4 34 .cfa: sp 0 +
STACK CFI 538b8 .cfa: sp 32 +
STACK CFI 538c0 .cfa: x29 32 + x19: .cfa -16 + ^ .ra: .cfa -24 + ^ x29: .cfa -32 + ^
STACK CFI 538dc .cfa: sp 32 +
STACK CFI 538e4 .cfa: sp 0 +
STACK CFI INIT 538e8 14 .cfa: sp 0 +
STACK CFI INIT 538fc 4 .cfa: sp 0 +
STACK CFI INIT 53900 4 .cfa: sp 0 +
STACK CFI INIT 53904 3c .cfa: sp 0 +
STACK CFI 53908 .cfa: sp 32 +
STACK CFI 53910 .cfa: x29 32 + x19: .cfa -8 + ^ x20: .cfa -16 + ^ .ra: .cfa -24 + ^ x29: .cfa -32 + ^
STACK CFI 53934 .cfa: sp 32 +
STACK CFI 5393c .cfa: sp 0 +
STACK CFI INIT 53940 1c .cfa: sp 0 +
STACK CFI INIT 5395c c .cfa: sp 0 +
STACK CFI INIT 53968 4 .cfa: sp 0 +
STACK CFI INIT 5396c 4 .cfa: sp 0 +
STACK CFI INIT 53970 34 .cfa: sp 0 +
STACK CFI 53974 .cfa: sp 32 +
STACK CFI 5397c .cfa: x29 32 + x19: .cfa -16 + ^ .ra: .cfa -24 + ^ x29: .cfa -32 + ^
STACK CFI 53998 .cfa: sp 32 +
STACK CFI 539a0 .cfa: sp 0 +
STACK CFI INIT 539a4 14 .cfa: sp 0 +
STACK CFI INIT 539b8 4 .cfa: sp 0 +
STACK CFI INIT 539bc 4 .cfa: sp 0 +
STACK CFI INIT 539c0 114 .cfa: sp 0 +
STACK CFI 539c4 .cfa: sp 96 +
STACK CFI 539dc .cfa: x29 80 + x19: .cfa -8 + ^ x20: .cfa -16 + ^ x21: .cfa -24 + ^ x22: .cfa -32 + ^ x23: .cfa -40 + ^ x24: .cfa -48 + ^ x25: .cfa -64 + ^ .ra: .cfa -72 + ^ x29: .cfa -80 + ^
STACK CFI 53ab4 .cfa: sp 96 +
STACK CFI 53acc .cfa: sp 0 +
STACK CFI 53ad0 .cfa: x29 80 +
STACK CFI INIT 53ad4 1c .cfa: sp 0 +
STACK CFI INIT 53af0 c .cfa: sp 0 +
STACK CFI INIT 53afc 4 .cfa: sp 0 +
STACK CFI INIT 53b00 34 .cfa: sp 0 +
STACK CFI 53b04 .cfa: sp 32 +
STACK CFI 53b0c .cfa: x29 32 + x19: .cfa -16 + ^ .ra: .cfa -24 + ^ x29: .cfa -32 + ^
STACK CFI 53b28 .cfa: sp 32 +
STACK CFI 53b30 .cfa: sp 0 +
STACK CFI INIT 53b34 14 .cfa: sp 0 +
STACK CFI INIT 53b48 4 .cfa: sp 0 +
STACK CFI INIT 53b4c 4 .cfa: sp 0 +
STACK CFI INIT 53b50 114 .cfa: sp 0 +
STACK CFI 53b54 .cfa: sp 96 +
STACK CFI 53b6c .cfa: x29 80 + x19: .cfa -8 + ^ x20: .cfa -16 + ^ x21: .cfa -24 + ^ x22: .cfa -32 + ^ x23: .cfa -40 + ^ x24: .cfa -48 + ^ x25: .cfa -64 + ^ .ra: .cfa -72 + ^ x29: .cfa -80 + ^
STACK CFI 53c44 .cfa: sp 96 +
STACK CFI 53c5c .cfa: sp 0 +
STACK CFI 53c60 .cfa: x29 80 +
STACK CFI INIT 53c64 1c .cfa: sp 0 +
STACK CFI INIT 53c80 c .cfa: sp 0 +
STACK CFI INIT 53c8c 4 .cfa: sp 0 +
STACK CFI INIT 53c90 34 .cfa: sp 0 +
STACK CFI 53c94 .cfa: sp 32 +
STACK CFI 53c9c .cfa: x29 32 + x19: .cfa -16 + ^ .ra: .cfa -24 + ^ x29: .cfa -32 + ^
STACK CFI 53cb8 .cfa: sp 32 +
STACK CFI 53cc0 .cfa: sp 0 +
STACK CFI INIT 53cc4 14 .cfa: sp 0 +
STACK CFI INIT 53cd8 4 .cfa: sp 0 +
STACK CFI INIT 53cdc 4 .cfa: sp 0 +
STACK CFI INIT 53ce0 58 .cfa: sp 0 +
STACK CFI 53ce4 .cfa: sp 48 +
STACK CFI 53cf0 .cfa: x29 32 + x19: .cfa -16 + ^ .ra: .cfa -24 + ^ x29: .cfa -32 + ^
STACK CFI 53d24 .cfa: sp 48 +
STACK CFI 53d30 .cfa: sp 0 +
STACK CFI 53d34 .cfa: x29 32 +
STACK CFI INIT 53d38 1c .cfa: sp 0 +
STACK CFI INIT 53d54 c .cfa: sp 0 +
STACK CFI INIT 53d60 4 .cfa: sp 0 +
STACK CFI INIT 53d64 34 .cfa: sp 0 +
STACK CFI 53d68 .cfa: sp 32 +
STACK CFI 53d70 .cfa: x29 32 + x19: .cfa -16 + ^ .ra: .cfa -24 + ^ x29: .cfa -32 + ^
STACK CFI 53d8c .cfa: sp 32 +
STACK CFI 53d94 .cfa: sp 0 +
STACK CFI INIT 53d98 14 .cfa: sp 0 +
STACK CFI INIT 53dac 4 .cfa: sp 0 +
STACK CFI INIT 53db0 4 .cfa: sp 0 +
STACK CFI INIT 53db4 58 .cfa: sp 0 +
STACK CFI 53db8 .cfa: sp 48 +
STACK CFI 53dc4 .cfa: x29 32 + x19: .cfa -16 + ^ .ra: .cfa -24 + ^ x29: .cfa -32 + ^
STACK CFI 53df8 .cfa: sp 48 +
STACK CFI 53e04 .cfa: sp 0 +
STACK CFI 53e08 .cfa: x29 32 +
STACK CFI INIT 53e0c 1c .cfa: sp 0 +
STACK CFI INIT 53e28 c .cfa: sp 0 +
STACK CFI INIT 53e34 4 .cfa: sp 0 +
STACK CFI INIT 53e38 34 .cfa: sp 0 +
STACK CFI 53e3c .cfa: sp 32 +
STACK CFI 53e44 .cfa: x29 32 + x19: .cfa -16 + ^ .ra: .cfa -24 + ^ x29: .cfa -32 + ^
STACK CFI 53e60 .cfa: sp 32 +
STACK CFI 53e68 .cfa: sp 0 +
STACK CFI INIT 53e6c 14 .cfa: sp 0 +
STACK CFI INIT 53e80 4 .cfa: sp 0 +
STACK CFI INIT 53e84 4 .cfa: sp 0 +
STACK CFI INIT 53e88 c .cfa: sp 0 +
STACK CFI INIT 53e94 1c .cfa: sp 0 +
STACK CFI INIT 53eb0 c .cfa: sp 0 +
STACK CFI INIT 53ebc 4 .cfa: sp 0 +
STACK CFI INIT 53ec0 34 .cfa: sp 0 +
STACK CFI 53ec4 .cfa: sp 32 +
STACK CFI 53ecc .cfa: x29 32 + x19: .cfa -16 + ^ .ra: .cfa -24 + ^ x29: .cfa -32 + ^
STACK CFI 53ee8 .cfa: sp 32 +
STACK CFI 53ef0 .cfa: sp 0 +
STACK CFI INIT 53ef4 14 .cfa: sp 0 +
STACK CFI INIT 53f08 4 .cfa: sp 0 +
STACK CFI INIT 53f0c 4 .cfa: sp 0 +
STACK CFI INIT 53f10 c .cfa: sp 0 +
STACK CFI INIT 53f1c 1c .cfa: sp 0 +
STACK CFI INIT 53f38 c .cfa: sp 0 +
STACK CFI INIT 53f44 4 .cfa: sp 0 +
STACK CFI INIT 53f48 34 .cfa: sp 0 +
STACK CFI 53f4c .cfa: sp 32 +
STACK CFI 53f54 .cfa: x29 32 + x19: .cfa -16 + ^ .ra: .cfa -24 + ^ x29: .cfa -32 + ^
STACK CFI 53f70 .cfa: sp 32 +
STACK CFI 53f78 .cfa: sp 0 +
STACK CFI INIT 53f7c 14 .cfa: sp 0 +
STACK CFI INIT 53f90 4 .cfa: sp 0 +
STACK CFI INIT 53f94 4 .cfa: sp 0 +
STACK CFI INIT 53f98 114 .cfa: sp 0 +
STACK CFI 53f9c .cfa: sp 96 +
STACK CFI 53fb4 .cfa: x29 80 + x19: .cfa -8 + ^ x20: .cfa -16 + ^ x21: .cfa -24 + ^ x22: .cfa -32 + ^ x23: .cfa -40 + ^ x24: .cfa -48 + ^ x25: .cfa -64 + ^ .ra: .cfa -72 + ^ x29: .cfa -80 + ^
STACK CFI 5408c .cfa: sp 96 +
STACK CFI 540a4 .cfa: sp 0 +
STACK CFI 540a8 .cfa: x29 80 +
STACK CFI INIT 540ac 1c .cfa: sp 0 +
STACK CFI INIT 540c8 c .cfa: sp 0 +
STACK CFI INIT 540d4 4 .cfa: sp 0 +
STACK CFI INIT 540d8 34 .cfa: sp 0 +
STACK CFI 540dc .cfa: sp 32 +
STACK CFI 540e4 .cfa: x29 32 + x19: .cfa -16 + ^ .ra: .cfa -24 + ^ x29: .cfa -32 + ^
STACK CFI 54100 .cfa: sp 32 +
STACK CFI 54108 .cfa: sp 0 +
STACK CFI INIT 5410c 14 .cfa: sp 0 +
STACK CFI INIT 54120 4 .cfa: sp 0 +
STACK CFI INIT 54124 4 .cfa: sp 0 +
STACK CFI INIT 54128 114 .cfa: sp 0 +
STACK CFI 5412c .cfa: sp 96 +
STACK CFI 54144 .cfa: x29 80 + x19: .cfa -8 + ^ x20: .cfa -16 + ^ x21: .cfa -24 + ^ x22: .cfa -32 + ^ x23: .cfa -40 + ^ x24: .cfa -48 + ^ x25: .cfa -64 + ^ .ra: .cfa -72 + ^ x29: .cfa -80 + ^
STACK CFI 5421c .cfa: sp 96 +
STACK CFI 54234 .cfa: sp 0 +
STACK CFI 54238 .cfa: x29 80 +
STACK CFI INIT 5423c 1c .cfa: sp 0 +
STACK CFI INIT 54258 c .cfa: sp 0 +
STACK CFI INIT 54264 4 .cfa: sp 0 +
STACK CFI INIT 54268 34 .cfa: sp 0 +
STACK CFI 5426c .cfa: sp 32 +
STACK CFI 54274 .cfa: x29 32 + x19: .cfa -16 + ^ .ra: .cfa -24 + ^ x29: .cfa -32 + ^
STACK CFI 54290 .cfa: sp 32 +
STACK CFI 54298 .cfa: sp 0 +
STACK CFI INIT 5429c 14 .cfa: sp 0 +
STACK CFI INIT 542b0 4 .cfa: sp 0 +
STACK CFI INIT 542b4 4 .cfa: sp 0 +
STACK CFI INIT 542b8 114 .cfa: sp 0 +
STACK CFI 542bc .cfa: sp 96 +
STACK CFI 542d4 .cfa: x29 80 + x19: .cfa -8 + ^ x20: .cfa -16 + ^ x21: .cfa -24 + ^ x22: .cfa -32 + ^ x23: .cfa -40 + ^ x24: .cfa -48 + ^ x25: .cfa -64 + ^ .ra: .cfa -72 + ^ x29: .cfa -80 + ^
STACK CFI 543ac .cfa: sp 96 +
STACK CFI 543c4 .cfa: sp 0 +
STACK CFI 543c8 .cfa: x29 80 +
STACK CFI INIT 543cc 1c .cfa: sp 0 +
STACK CFI INIT 543e8 c .cfa: sp 0 +
STACK CFI INIT 543f4 4 .cfa: sp 0 +
STACK CFI INIT 543f8 34 .cfa: sp 0 +
STACK CFI 543fc .cfa: sp 32 +
STACK CFI 54404 .cfa: x29 32 + x19: .cfa -16 + ^ .ra: .cfa -24 + ^ x29: .cfa -32 + ^
STACK CFI 54420 .cfa: sp 32 +
STACK CFI 54428 .cfa: sp 0 +
STACK CFI INIT 5442c 14 .cfa: sp 0 +
STACK CFI INIT 54440 4 .cfa: sp 0 +
STACK CFI INIT 54444 4 .cfa: sp 0 +
STACK CFI INIT 54448 114 .cfa: sp 0 +
STACK CFI 5444c .cfa: sp 96 +
STACK CFI 54464 .cfa: x29 80 + x19: .cfa -8 + ^ x20: .cfa -16 + ^ x21: .cfa -24 + ^ x22: .cfa -32 + ^ x23: .cfa -40 + ^ x24: .cfa -48 + ^ x25: .cfa -64 + ^ .ra: .cfa -72 + ^ x29: .cfa -80 + ^
STACK CFI 5453c .cfa: sp 96 +
STACK CFI 54554 .cfa: sp 0 +
STACK CFI 54558 .cfa: x29 80 +
STACK CFI INIT 5455c 1c .cfa: sp 0 +
STACK CFI INIT 54578 c .cfa: sp 0 +
STACK CFI INIT 54584 4 .cfa: sp 0 +
STACK CFI INIT 54588 34 .cfa: sp 0 +
STACK CFI 5458c .cfa: sp 32 +
STACK CFI 54594 .cfa: x29 32 + x19: .cfa -16 + ^ .ra: .cfa -24 + ^ x29: .cfa -32 + ^
STACK CFI 545b0 .cfa: sp 32 +
STACK CFI 545b8 .cfa: sp 0 +
STACK CFI INIT 545bc 14 .cfa: sp 0 +
STACK CFI INIT 545d0 4 .cfa: sp 0 +
STACK CFI INIT 545d4 4 .cfa: sp 0 +
STACK CFI INIT 545d8 114 .cfa: sp 0 +
STACK CFI 545dc .cfa: sp 96 +
STACK CFI 545f4 .cfa: x29 80 + x19: .cfa -8 + ^ x20: .cfa -16 + ^ x21: .cfa -24 + ^ x22: .cfa -32 + ^ x23: .cfa -40 + ^ x24: .cfa -48 + ^ x25: .cfa -64 + ^ .ra: .cfa -72 + ^ x29: .cfa -80 + ^
STACK CFI 546cc .cfa: sp 96 +
STACK CFI 546e4 .cfa: sp 0 +
STACK CFI 546e8 .cfa: x29 80 +
STACK CFI INIT 546ec 1c .cfa: sp 0 +
STACK CFI INIT 54708 c .cfa: sp 0 +
STACK CFI INIT 54714 4 .cfa: sp 0 +
STACK CFI INIT 54718 34 .cfa: sp 0 +
STACK CFI 5471c .cfa: sp 32 +
STACK CFI 54724 .cfa: x29 32 + x19: .cfa -16 + ^ .ra: .cfa -24 + ^ x29: .cfa -32 + ^
STACK CFI 54740 .cfa: sp 32 +
STACK CFI 54748 .cfa: sp 0 +
STACK CFI INIT 5474c 14 .cfa: sp 0 +
STACK CFI INIT 54760 4 .cfa: sp 0 +
STACK CFI INIT 54764 4 .cfa: sp 0 +
STACK CFI INIT 54768 114 .cfa: sp 0 +
STACK CFI 5476c .cfa: sp 96 +
STACK CFI 54784 .cfa: x29 80 + x19: .cfa -8 + ^ x20: .cfa -16 + ^ x21: .cfa -24 + ^ x22: .cfa -32 + ^ x23: .cfa -40 + ^ x24: .cfa -48 + ^ x25: .cfa -64 + ^ .ra: .cfa -72 + ^ x29: .cfa -80 + ^
STACK CFI 5485c .cfa: sp 96 +
STACK CFI 54874 .cfa: sp 0 +
STACK CFI 54878 .cfa: x29 80 +
STACK CFI INIT 5487c 1c .cfa: sp 0 +
STACK CFI INIT 54898 c .cfa: sp 0 +
STACK CFI INIT 548a4 4 .cfa: sp 0 +
STACK CFI INIT 548a8 34 .cfa: sp 0 +
STACK CFI 548ac .cfa: sp 32 +
STACK CFI 548b4 .cfa: x29 32 + x19: .cfa -16 + ^ .ra: .cfa -24 + ^ x29: .cfa -32 + ^
STACK CFI 548d0 .cfa: sp 32 +
STACK CFI 548d8 .cfa: sp 0 +
STACK CFI INIT 548dc 14 .cfa: sp 0 +
STACK CFI INIT 548f0 4 .cfa: sp 0 +
STACK CFI INIT 548f4 4 .cfa: sp 0 +
STACK CFI INIT 548f8 114 .cfa: sp 0 +
STACK CFI 548fc .cfa: sp 96 +
STACK CFI 54914 .cfa: x29 80 + x19: .cfa -8 + ^ x20: .cfa -16 + ^ x21: .cfa -24 + ^ x22: .cfa -32 + ^ x23: .cfa -40 + ^ x24: .cfa -48 + ^ x25: .cfa -64 + ^ .ra: .cfa -72 + ^ x29: .cfa -80 + ^
STACK CFI 549ec .cfa: sp 96 +
STACK CFI 54a04 .cfa: sp 0 +
STACK CFI 54a08 .cfa: x29 80 +
STACK CFI INIT 54a0c 1c .cfa: sp 0 +
STACK CFI INIT 54a28 c .cfa: sp 0 +
STACK CFI INIT 54a34 4 .cfa: sp 0 +
STACK CFI INIT 54a38 34 .cfa: sp 0 +
STACK CFI 54a3c .cfa: sp 32 +
STACK CFI 54a44 .cfa: x29 32 + x19: .cfa -16 + ^ .ra: .cfa -24 + ^ x29: .cfa -32 + ^
STACK CFI 54a60 .cfa: sp 32 +
STACK CFI 54a68 .cfa: sp 0 +
STACK CFI INIT 54a6c 14 .cfa: sp 0 +
STACK CFI INIT 54a80 4 .cfa: sp 0 +
STACK CFI INIT 54a84 4 .cfa: sp 0 +
STACK CFI INIT 54a88 114 .cfa: sp 0 +
STACK CFI 54a8c .cfa: sp 96 +
STACK CFI 54aa4 .cfa: x29 80 + x19: .cfa -8 + ^ x20: .cfa -16 + ^ x21: .cfa -24 + ^ x22: .cfa -32 + ^ x23: .cfa -40 + ^ x24: .cfa -48 + ^ x25: .cfa -64 + ^ .ra: .cfa -72 + ^ x29: .cfa -80 + ^
STACK CFI 54b7c .cfa: sp 96 +
STACK CFI 54b94 .cfa: sp 0 +
STACK CFI 54b98 .cfa: x29 80 +
STACK CFI INIT 54b9c 1c .cfa: sp 0 +
STACK CFI INIT 54bb8 c .cfa: sp 0 +
STACK CFI INIT 54bc4 4 .cfa: sp 0 +
STACK CFI INIT 54bc8 34 .cfa: sp 0 +
STACK CFI 54bcc .cfa: sp 32 +
STACK CFI 54bd4 .cfa: x29 32 + x19: .cfa -16 + ^ .ra: .cfa -24 + ^ x29: .cfa -32 + ^
STACK CFI 54bf0 .cfa: sp 32 +
STACK CFI 54bf8 .cfa: sp 0 +
STACK CFI INIT 54bfc 14 .cfa: sp 0 +
STACK CFI INIT 54c10 4 .cfa: sp 0 +
STACK CFI INIT 54c14 4 .cfa: sp 0 +
STACK CFI INIT 54c18 114 .cfa: sp 0 +
STACK CFI 54c1c .cfa: sp 96 +
STACK CFI 54c34 .cfa: x29 80 + x19: .cfa -8 + ^ x20: .cfa -16 + ^ x21: .cfa -24 + ^ x22: .cfa -32 + ^ x23: .cfa -40 + ^ x24: .cfa -48 + ^ x25: .cfa -64 + ^ .ra: .cfa -72 + ^ x29: .cfa -80 + ^
STACK CFI 54d0c .cfa: sp 96 +
STACK CFI 54d24 .cfa: sp 0 +
STACK CFI 54d28 .cfa: x29 80 +
STACK CFI INIT 54d2c 1c .cfa: sp 0 +
STACK CFI INIT 54d48 c .cfa: sp 0 +
STACK CFI INIT 54d54 4 .cfa: sp 0 +
STACK CFI INIT 54d58 34 .cfa: sp 0 +
STACK CFI 54d5c .cfa: sp 32 +
STACK CFI 54d64 .cfa: x29 32 + x19: .cfa -16 + ^ .ra: .cfa -24 + ^ x29: .cfa -32 + ^
STACK CFI 54d80 .cfa: sp 32 +
STACK CFI 54d88 .cfa: sp 0 +
STACK CFI INIT 54d8c 14 .cfa: sp 0 +
STACK CFI INIT 54da0 4 .cfa: sp 0 +
STACK CFI INIT 54da4 4 .cfa: sp 0 +
STACK CFI INIT 54da8 114 .cfa: sp 0 +
STACK CFI 54dac .cfa: sp 96 +
STACK CFI 54dc4 .cfa: x29 80 + x19: .cfa -8 + ^ x20: .cfa -16 + ^ x21: .cfa -24 + ^ x22: .cfa -32 + ^ x23: .cfa -40 + ^ x24: .cfa -48 + ^ x25: .cfa -64 + ^ .ra: .cfa -72 + ^ x29: .cfa -80 + ^
STACK CFI 54e9c .cfa: sp 96 +
STACK CFI 54eb4 .cfa: sp 0 +
STACK CFI 54eb8 .cfa: x29 80 +
STACK CFI INIT 54ebc 1c .cfa: sp 0 +
STACK CFI INIT 54ed8 c .cfa: sp 0 +
STACK CFI INIT 54ee4 4 .cfa: sp 0 +
STACK CFI INIT 54ee8 34 .cfa: sp 0 +
STACK CFI 54eec .cfa: sp 32 +
STACK CFI 54ef4 .cfa: x29 32 + x19: .cfa -16 + ^ .ra: .cfa -24 + ^ x29: .cfa -32 + ^
STACK CFI 54f10 .cfa: sp 32 +
STACK CFI 54f18 .cfa: sp 0 +
STACK CFI INIT 54f1c 14 .cfa: sp 0 +
STACK CFI INIT 54f30 4 .cfa: sp 0 +
STACK CFI INIT 54f34 4 .cfa: sp 0 +
STACK CFI INIT 54f38 114 .cfa: sp 0 +
STACK CFI 54f3c .cfa: sp 96 +
STACK CFI 54f54 .cfa: x29 80 + x19: .cfa -8 + ^ x20: .cfa -16 + ^ x21: .cfa -24 + ^ x22: .cfa -32 + ^ x23: .cfa -40 + ^ x24: .cfa -48 + ^ x25: .cfa -64 + ^ .ra: .cfa -72 + ^ x29: .cfa -80 + ^
STACK CFI 5502c .cfa: sp 96 +
STACK CFI 55044 .cfa: sp 0 +
STACK CFI 55048 .cfa: x29 80 +
STACK CFI INIT 5504c 1c .cfa: sp 0 +
STACK CFI INIT 55068 c .cfa: sp 0 +
STACK CFI INIT 55074 4 .cfa: sp 0 +
STACK CFI INIT 55078 34 .cfa: sp 0 +
STACK CFI 5507c .cfa: sp 32 +
STACK CFI 55084 .cfa: x29 32 + x19: .cfa -16 + ^ .ra: .cfa -24 + ^ x29: .cfa -32 + ^
STACK CFI 550a0 .cfa: sp 32 +
STACK CFI 550a8 .cfa: sp 0 +
STACK CFI INIT 550ac 14 .cfa: sp 0 +
STACK CFI INIT 550c0 4 .cfa: sp 0 +
STACK CFI INIT 550c4 4 .cfa: sp 0 +
STACK CFI INIT 550c8 114 .cfa: sp 0 +
STACK CFI 550cc .cfa: sp 96 +
STACK CFI 550e4 .cfa: x29 80 + x19: .cfa -8 + ^ x20: .cfa -16 + ^ x21: .cfa -24 + ^ x22: .cfa -32 + ^ x23: .cfa -40 + ^ x24: .cfa -48 + ^ x25: .cfa -64 + ^ .ra: .cfa -72 + ^ x29: .cfa -80 + ^
STACK CFI 551bc .cfa: sp 96 +
STACK CFI 551d4 .cfa: sp 0 +
STACK CFI 551d8 .cfa: x29 80 +
STACK CFI INIT 551dc 1c .cfa: sp 0 +
STACK CFI INIT 551f8 c .cfa: sp 0 +
STACK CFI INIT 55204 4 .cfa: sp 0 +
STACK CFI INIT 55208 34 .cfa: sp 0 +
STACK CFI 5520c .cfa: sp 32 +
STACK CFI 55214 .cfa: x29 32 + x19: .cfa -16 + ^ .ra: .cfa -24 + ^ x29: .cfa -32 + ^
STACK CFI 55230 .cfa: sp 32 +
STACK CFI 55238 .cfa: sp 0 +
STACK CFI INIT 5523c 14 .cfa: sp 0 +
STACK CFI INIT 55250 4 .cfa: sp 0 +
STACK CFI INIT 55254 4 .cfa: sp 0 +
STACK CFI INIT 55258 114 .cfa: sp 0 +
STACK CFI 5525c .cfa: sp 96 +
STACK CFI 55274 .cfa: x29 80 + x19: .cfa -8 + ^ x20: .cfa -16 + ^ x21: .cfa -24 + ^ x22: .cfa -32 + ^ x23: .cfa -40 + ^ x24: .cfa -48 + ^ x25: .cfa -64 + ^ .ra: .cfa -72 + ^ x29: .cfa -80 + ^
STACK CFI 5534c .cfa: sp 96 +
STACK CFI 55364 .cfa: sp 0 +
STACK CFI 55368 .cfa: x29 80 +
STACK CFI INIT 5536c 1c .cfa: sp 0 +
STACK CFI INIT 55388 c .cfa: sp 0 +
STACK CFI INIT 55394 4 .cfa: sp 0 +
STACK CFI INIT 55398 34 .cfa: sp 0 +
STACK CFI 5539c .cfa: sp 32 +
STACK CFI 553a4 .cfa: x29 32 + x19: .cfa -16 + ^ .ra: .cfa -24 + ^ x29: .cfa -32 + ^
STACK CFI 553c0 .cfa: sp 32 +
STACK CFI 553c8 .cfa: sp 0 +
STACK CFI INIT 553cc 14 .cfa: sp 0 +
STACK CFI INIT 553e0 4 .cfa: sp 0 +
STACK CFI INIT 553e4 4 .cfa: sp 0 +
STACK CFI INIT 553e8 114 .cfa: sp 0 +
STACK CFI 553ec .cfa: sp 96 +
STACK CFI 55404 .cfa: x29 80 + x19: .cfa -8 + ^ x20: .cfa -16 + ^ x21: .cfa -24 + ^ x22: .cfa -32 + ^ x23: .cfa -40 + ^ x24: .cfa -48 + ^ x25: .cfa -64 + ^ .ra: .cfa -72 + ^ x29: .cfa -80 + ^
STACK CFI 554dc .cfa: sp 96 +
STACK CFI 554f4 .cfa: sp 0 +
STACK CFI 554f8 .cfa: x29 80 +
STACK CFI INIT 554fc 1c .cfa: sp 0 +
STACK CFI INIT 55518 c .cfa: sp 0 +
STACK CFI INIT 55524 4 .cfa: sp 0 +
STACK CFI INIT 55528 38 .cfa: sp 0 +
STACK CFI 5552c .cfa: sp 32 +
STACK CFI 55534 .cfa: x29 32 + x19: .cfa -16 + ^ .ra: .cfa -24 + ^ x29: .cfa -32 + ^
STACK CFI 55554 .cfa: sp 32 +
STACK CFI 5555c .cfa: sp 0 +
STACK CFI INIT 55560 18 .cfa: sp 0 +
STACK CFI INIT 55578 4 .cfa: sp 0 +
STACK CFI INIT 5557c 4 .cfa: sp 0 +
STACK CFI INIT 55580 118 .cfa: sp 0 +
STACK CFI 55584 .cfa: sp 96 +
STACK CFI 5559c .cfa: x29 80 + x19: .cfa -8 + ^ x20: .cfa -16 + ^ x21: .cfa -24 + ^ x22: .cfa -32 + ^ x23: .cfa -40 + ^ x24: .cfa -48 + ^ x25: .cfa -56 + ^ x26: .cfa -64 + ^ .ra: .cfa -72 + ^ x29: .cfa -80 + ^
STACK CFI 55678 .cfa: sp 96 +
STACK CFI 55690 .cfa: sp 0 +
STACK CFI 55694 .cfa: x29 80 +
STACK CFI INIT 55698 1c .cfa: sp 0 +
STACK CFI INIT 556b4 c .cfa: sp 0 +
STACK CFI INIT 556c0 4 .cfa: sp 0 +
STACK CFI INIT 556c4 38 .cfa: sp 0 +
STACK CFI 556c8 .cfa: sp 32 +
STACK CFI 556d0 .cfa: x29 32 + x19: .cfa -16 + ^ .ra: .cfa -24 + ^ x29: .cfa -32 + ^
STACK CFI 556f0 .cfa: sp 32 +
STACK CFI 556f8 .cfa: sp 0 +
STACK CFI INIT 556fc 18 .cfa: sp 0 +
STACK CFI INIT 55714 4 .cfa: sp 0 +
STACK CFI INIT 55718 4 .cfa: sp 0 +
STACK CFI INIT 5571c 118 .cfa: sp 0 +
STACK CFI 55720 .cfa: sp 96 +
STACK CFI 55738 .cfa: x29 80 + x19: .cfa -8 + ^ x20: .cfa -16 + ^ x21: .cfa -24 + ^ x22: .cfa -32 + ^ x23: .cfa -40 + ^ x24: .cfa -48 + ^ x25: .cfa -56 + ^ x26: .cfa -64 + ^ .ra: .cfa -72 + ^ x29: .cfa -80 + ^
STACK CFI 55814 .cfa: sp 96 +
STACK CFI 5582c .cfa: sp 0 +
STACK CFI 55830 .cfa: x29 80 +
STACK CFI INIT 55834 1c .cfa: sp 0 +
STACK CFI INIT 55850 c .cfa: sp 0 +
STACK CFI INIT 5585c 4 .cfa: sp 0 +
STACK CFI INIT 55860 38 .cfa: sp 0 +
STACK CFI 55864 .cfa: sp 32 +
STACK CFI 5586c .cfa: x29 32 + x19: .cfa -16 + ^ .ra: .cfa -24 + ^ x29: .cfa -32 + ^
STACK CFI 5588c .cfa: sp 32 +
STACK CFI 55894 .cfa: sp 0 +
STACK CFI INIT 55898 18 .cfa: sp 0 +
STACK CFI INIT 558b0 4 .cfa: sp 0 +
STACK CFI INIT 558b4 4 .cfa: sp 0 +
STACK CFI INIT 558b8 48 .cfa: sp 0 +
STACK CFI INIT 55900 1c .cfa: sp 0 +
STACK CFI INIT 5591c c .cfa: sp 0 +
STACK CFI INIT 4a9fc 4 .cfa: sp 0 +
STACK CFI INIT 55ffc 10 .cfa: sp 0 +
STACK CFI INIT 5600c 7c .cfa: sp 0 +
STACK CFI 56010 .cfa: sp 32 +
STACK CFI 56018 .cfa: x29 32 + x19: .cfa -16 + ^ .ra: .cfa -24 + ^ x29: .cfa -32 + ^
STACK CFI 5606c .cfa: sp 32 +
STACK CFI 56074 .cfa: sp 0 +
STACK CFI 56078 .cfa: x29 32 +
STACK CFI 5607c .cfa: sp 32 +
STACK CFI 56084 .cfa: sp 0 +
STACK CFI INIT 56288 50 .cfa: sp 0 +
STACK CFI 5628c .cfa: sp 32 +
STACK CFI 56294 .cfa: x29 32 + x19: .cfa -16 + ^ .ra: .cfa -24 + ^ x29: .cfa -32 + ^
STACK CFI 562cc .cfa: sp 32 +
STACK CFI 562d4 .cfa: sp 0 +
STACK CFI INIT 562d8 24 .cfa: sp 0 +
STACK CFI 562dc .cfa: sp 32 +
STACK CFI 562e4 .cfa: x29 32 + x19: .cfa -16 + ^ .ra: .cfa -24 + ^ x29: .cfa -32 + ^
STACK CFI 562f0 .cfa: sp 32 +
STACK CFI 562f8 .cfa: sp 0 +
STACK CFI INIT 562fc 18 .cfa: sp 0 +
STACK CFI INIT 56314 10 .cfa: sp 0 +
STACK CFI INIT 56324 14 .cfa: sp 0 +
STACK CFI INIT 56338 2ac .cfa: sp 0 +
STACK CFI 5633c .cfa: sp 48 +
STACK CFI 56348 .cfa: x29 48 + x19: .cfa -8 + ^ x20: .cfa -16 + ^ x21: .cfa -24 + ^ x22: .cfa -32 + ^ .ra: .cfa -40 + ^ x29: .cfa -48 + ^
STACK CFI 563a0 .cfa: sp 48 +
STACK CFI 563ac .cfa: sp 0 +
STACK CFI 563b0 .cfa: x29 48 +
STACK CFI 563e4 .cfa: sp 48 +
STACK CFI 563f0 .cfa: sp 0 +
STACK CFI 563f4 .cfa: x29 48 +
STACK CFI 56404 .cfa: sp 48 +
STACK CFI 56410 .cfa: sp 0 +
STACK CFI 56414 .cfa: x29 48 +
STACK CFI 56440 .cfa: sp 48 +
STACK CFI 5644c .cfa: sp 0 +
STACK CFI 56450 .cfa: x29 48 +
STACK CFI 56484 .cfa: sp 48 +
STACK CFI 56490 .cfa: sp 0 +
STACK CFI 56494 .cfa: x29 48 +
STACK CFI 564a8 .cfa: sp 48 +
STACK CFI 564b4 .cfa: sp 0 +
STACK CFI 564b8 .cfa: x29 48 +
STACK CFI 564cc .cfa: sp 48 +
STACK CFI 564d8 .cfa: sp 0 +
STACK CFI 564dc .cfa: x29 48 +
STACK CFI 56530 .cfa: sp 48 +
STACK CFI 5653c .cfa: sp 0 +
STACK CFI 56540 .cfa: x29 48 +
STACK CFI 56564 .cfa: sp 48 +
STACK CFI 56570 .cfa: sp 0 +
STACK CFI 56574 .cfa: x29 48 +
STACK CFI 5658c .cfa: sp 48 +
STACK CFI 56598 .cfa: sp 0 +
STACK CFI 5659c .cfa: x29 48 +
STACK CFI 565cc .cfa: sp 48 +
STACK CFI 565d8 .cfa: sp 0 +
STACK CFI 565dc .cfa: x29 48 +
STACK CFI INIT 565e4 38 .cfa: sp 0 +
STACK CFI INIT 5661c 10 .cfa: sp 0 +
STACK CFI INIT 5662c 7c .cfa: sp 0 +
STACK CFI INIT 56760 1a4 .cfa: sp 0 +
STACK CFI 56764 .cfa: sp 96 +
STACK CFI 56778 .cfa: x29 48 + x19: .cfa -8 + ^ x20: .cfa -16 + ^ x21: .cfa -32 + ^ .ra: .cfa -40 + ^ x29: .cfa -48 + ^ v8: .cfa -56 + ^ v9: .cfa -64 + ^
STACK CFI 568e8 .cfa: sp 96 +
STACK CFI 568fc .cfa: sp 0 +
STACK CFI 56900 .cfa: x29 48 +
STACK CFI INIT 56904 88 .cfa: sp 0 +
STACK CFI 56908 .cfa: sp 48 +
STACK CFI 56914 .cfa: x29 48 + x19: .cfa -8 + ^ x20: .cfa -16 + ^ x21: .cfa -24 + ^ x22: .cfa -32 + ^ .ra: .cfa -40 + ^ x29: .cfa -48 + ^
STACK CFI 56974 .cfa: sp 48 +
STACK CFI 56980 .cfa: sp 0 +
STACK CFI 56984 .cfa: x29 48 +
STACK CFI INIT 56c2c 9c .cfa: sp 0 +
STACK CFI 56c30 .cfa: sp 48 +
STACK CFI 56c3c .cfa: x29 48 + x19: .cfa -8 + ^ x20: .cfa -16 + ^ x21: .cfa -24 + ^ x22: .cfa -32 + ^ .ra: .cfa -40 + ^ x29: .cfa -48 + ^
STACK CFI 56c58 .cfa: sp 48 +
STACK CFI 56c64 .cfa: sp 0 +
STACK CFI 56c68 .cfa: x29 48 +
STACK CFI 56cb0 .cfa: sp 48 +
STACK CFI 56cbc .cfa: sp 0 +
STACK CFI 56cc0 .cfa: x29 48 +
STACK CFI INIT 56cc8 9c .cfa: sp 0 +
STACK CFI 56ccc .cfa: sp 48 +
STACK CFI 56cd8 .cfa: x29 48 + x19: .cfa -8 + ^ x20: .cfa -16 + ^ x21: .cfa -24 + ^ x22: .cfa -32 + ^ .ra: .cfa -40 + ^ x29: .cfa -48 + ^
STACK CFI 56cf4 .cfa: sp 48 +
STACK CFI 56d00 .cfa: sp 0 +
STACK CFI 56d04 .cfa: x29 48 +
STACK CFI 56d4c .cfa: sp 48 +
STACK CFI 56d58 .cfa: sp 0 +
STACK CFI 56d5c .cfa: x29 48 +
STACK CFI INIT 56d64 c4 .cfa: sp 0 +
STACK CFI 56d68 .cfa: sp 48 +
STACK CFI 56d74 .cfa: x29 48 + x19: .cfa -8 + ^ x20: .cfa -16 + ^ x21: .cfa -24 + ^ x22: .cfa -32 + ^ .ra: .cfa -40 + ^ x29: .cfa -48 + ^
STACK CFI 56db8 .cfa: sp 48 +
STACK CFI 56dc4 .cfa: sp 0 +
STACK CFI 56dc8 .cfa: x29 48 +
STACK CFI 56e10 .cfa: sp 48 +
STACK CFI 56e1c .cfa: sp 0 +
STACK CFI 56e20 .cfa: x29 48 +
STACK CFI INIT 56e28 a0 .cfa: sp 0 +
STACK CFI 56e2c .cfa: sp 48 +
STACK CFI 56e38 .cfa: x29 48 + x19: .cfa -8 + ^ x20: .cfa -16 + ^ x21: .cfa -24 + ^ x22: .cfa -32 + ^ .ra: .cfa -40 + ^ x29: .cfa -48 + ^
STACK CFI 56e58 .cfa: sp 48 +
STACK CFI 56e64 .cfa: sp 0 +
STACK CFI 56e68 .cfa: x29 48 +
STACK CFI 56eb0 .cfa: sp 48 +
STACK CFI 56ebc .cfa: sp 0 +
STACK CFI 56ec0 .cfa: x29 48 +
STACK CFI INIT 56ec8 8 .cfa: sp 0 +
STACK CFI INIT 57018 a0 .cfa: sp 0 +
STACK CFI 5701c .cfa: sp 48 +
STACK CFI 57028 .cfa: x29 48 + x19: .cfa -8 + ^ x20: .cfa -16 + ^ x21: .cfa -24 + ^ x22: .cfa -32 + ^ .ra: .cfa -40 + ^ x29: .cfa -48 + ^
STACK CFI 57048 .cfa: sp 48 +
STACK CFI 57054 .cfa: sp 0 +
STACK CFI 57058 .cfa: x29 48 +
STACK CFI 570a0 .cfa: sp 48 +
STACK CFI 570ac .cfa: sp 0 +
STACK CFI 570b0 .cfa: x29 48 +
STACK CFI INIT 57380 8 .cfa: sp 0 +
STACK CFI INIT 5786c 98 .cfa: sp 0 +
STACK CFI 57870 .cfa: sp 48 +
STACK CFI 5787c .cfa: x29 48 + x19: .cfa -8 + ^ x20: .cfa -16 + ^ x21: .cfa -32 + ^ .ra: .cfa -40 + ^ x29: .cfa -48 + ^
STACK CFI 578cc .cfa: sp 48 +
STACK CFI 578d8 .cfa: sp 0 +
STACK CFI 578dc .cfa: x29 48 +
STACK CFI INIT 57904 18 .cfa: sp 0 +
STACK CFI INIT 5791c 8 .cfa: sp 0 +
STACK CFI INIT 57924 8 .cfa: sp 0 +
STACK CFI INIT 5792c 8 .cfa: sp 0 +
STACK CFI INIT 57ba0 8 .cfa: sp 0 +
STACK CFI INIT 58aa4 70 .cfa: sp 0 +
STACK CFI 58aa8 .cfa: sp 48 +
STACK CFI 58ab4 .cfa: x29 48 + x19: .cfa -8 + ^ x20: .cfa -16 + ^ x21: .cfa -32 + ^ .ra: .cfa -40 + ^ x29: .cfa -48 + ^
STACK CFI 58acc .cfa: sp 48 +
STACK CFI 58ad8 .cfa: sp 0 +
STACK CFI 58adc .cfa: x29 48 +
STACK CFI 58b04 .cfa: sp 48 +
STACK CFI 58b10 .cfa: sp 0 +
STACK CFI INIT 58b14 40 .cfa: sp 0 +
STACK CFI 58b18 .cfa: sp 32 +
STACK CFI 58b20 .cfa: x29 32 + x19: .cfa -16 + ^ .ra: .cfa -24 + ^ x29: .cfa -32 + ^
STACK CFI 58b48 .cfa: sp 32 +
STACK CFI 58b50 .cfa: sp 0 +
STACK CFI INIT 58b54 7c .cfa: sp 0 +
STACK CFI 58b58 .cfa: sp 48 +
STACK CFI 58b64 .cfa: x29 48 + x19: .cfa -8 + ^ x20: .cfa -16 + ^ x21: .cfa -32 + ^ .ra: .cfa -40 + ^ x29: .cfa -48 + ^
STACK CFI 58ba8 .cfa: sp 48 +
STACK CFI 58bb4 .cfa: sp 0 +
STACK CFI 58bb8 .cfa: x29 48 +
STACK CFI 58bc0 .cfa: sp 48 +
STACK CFI 58bcc .cfa: sp 0 +
STACK CFI INIT 58bd0 84 .cfa: sp 0 +
STACK CFI 58bd4 .cfa: sp 48 +
STACK CFI 58be0 .cfa: x29 48 + x19: .cfa -8 + ^ x20: .cfa -16 + ^ x21: .cfa -24 + ^ x22: .cfa -32 + ^ .ra: .cfa -40 + ^ x29: .cfa -48 + ^
STACK CFI 58c2c .cfa: sp 48 +
STACK CFI 58c38 .cfa: sp 0 +
STACK CFI 58c3c .cfa: x29 48 +
STACK CFI 58c44 .cfa: sp 48 +
STACK CFI 58c50 .cfa: sp 0 +
STACK CFI INIT 58c54 a4 .cfa: sp 0 +
STACK CFI 58c58 .cfa: sp 48 +
STACK CFI 58c64 .cfa: x29 48 + x19: .cfa -8 + ^ x20: .cfa -16 + ^ x21: .cfa -32 + ^ .ra: .cfa -40 + ^ x29: .cfa -48 + ^
STACK CFI 58c7c .cfa: sp 48 +
STACK CFI 58c88 .cfa: sp 0 +
STACK CFI 58c8c .cfa: x29 48 +
STACK CFI 58ce8 .cfa: sp 48 +
STACK CFI 58cf4 .cfa: sp 0 +
STACK CFI INIT 58cf8 64 .cfa: sp 0 +
STACK CFI 58cfc .cfa: sp 48 +
STACK CFI 58d08 .cfa: x29 48 + x19: .cfa -8 + ^ x20: .cfa -16 + ^ x21: .cfa -32 + ^ .ra: .cfa -40 + ^ x29: .cfa -48 + ^
STACK CFI 58d3c .cfa: sp 48 +
STACK CFI 58d48 .cfa: sp 0 +
STACK CFI 58d4c .cfa: sp 48 +
STACK CFI 58d58 .cfa: sp 0 +
STACK CFI INIT 58d5c 3c .cfa: sp 0 +
STACK CFI 58d60 .cfa: sp 32 +
STACK CFI 58d68 .cfa: x29 32 + x19: .cfa -16 + ^ .ra: .cfa -24 + ^ x29: .cfa -32 + ^
STACK CFI 58d80 .cfa: sp 32 +
STACK CFI 58d88 .cfa: sp 0 +
STACK CFI 58d8c .cfa: sp 32 +
STACK CFI 58d94 .cfa: sp 0 +
STACK CFI INIT 58ea8 68 .cfa: sp 0 +
STACK CFI 58eac .cfa: sp 32 +
STACK CFI 58eb4 .cfa: x29 32 + x19: .cfa -16 + ^ .ra: .cfa -24 + ^ x29: .cfa -32 + ^
STACK CFI 58ef4 .cfa: sp 32 +
STACK CFI 58efc .cfa: sp 0 +
STACK CFI 58f00 .cfa: x29 32 +
STACK CFI 58f04 .cfa: sp 32 +
STACK CFI 58f0c .cfa: sp 0 +
STACK CFI INIT 59228 3c .cfa: sp 0 +
STACK CFI 5922c .cfa: sp 32 +
STACK CFI 59234 .cfa: x29 32 + x19: .cfa -16 + ^ .ra: .cfa -24 + ^ x29: .cfa -32 + ^
STACK CFI 59258 .cfa: sp 32 +
STACK CFI 59260 .cfa: sp 0 +
STACK CFI INIT 5a17c 164 .cfa: sp 0 +
STACK CFI 5a180 .cfa: sp 64 +
STACK CFI 5a190 .cfa: x29 64 + x19: .cfa -8 + ^ x20: .cfa -16 + ^ x21: .cfa -24 + ^ x22: .cfa -32 + ^ x23: .cfa -48 + ^ .ra: .cfa -56 + ^ x29: .cfa -64 + ^
STACK CFI 5a2cc .cfa: sp 64 +
STACK CFI 5a2dc .cfa: sp 0 +
STACK CFI INIT 5ab1c 68 .cfa: sp 0 +
STACK CFI 5ab20 .cfa: sp 48 +
STACK CFI 5ab2c .cfa: x29 48 + x19: .cfa -8 + ^ x20: .cfa -16 + ^ x21: .cfa -32 + ^ .ra: .cfa -40 + ^ x29: .cfa -48 + ^
STACK CFI 5ab64 .cfa: sp 48 +
STACK CFI 5ab70 .cfa: sp 0 +
STACK CFI 5ab74 .cfa: sp 48 +
STACK CFI 5ab80 .cfa: sp 0 +
STACK CFI INIT 5ab84 10c .cfa: sp 0 +
STACK CFI 5ab88 .cfa: sp 64 +
STACK CFI 5ab98 .cfa: x29 64 + x19: .cfa -8 + ^ x20: .cfa -16 + ^ x21: .cfa -24 + ^ x22: .cfa -32 + ^ x23: .cfa -48 + ^ .ra: .cfa -56 + ^ x29: .cfa -64 + ^
STACK CFI 5ac50 .cfa: sp 64 +
STACK CFI 5ac60 .cfa: sp 0 +
STACK CFI 5ac64 .cfa: x29 64 +
STACK CFI 5ac7c .cfa: sp 64 +
STACK CFI 5ac8c .cfa: sp 0 +
STACK CFI INIT 5bff0 3c .cfa: sp 0 +
STACK CFI 5bff4 .cfa: sp 32 +
STACK CFI 5bffc .cfa: x29 32 + x19: .cfa -16 + ^ .ra: .cfa -24 + ^ x29: .cfa -32 + ^
STACK CFI 5c010 .cfa: sp 32 +
STACK CFI 5c018 .cfa: sp 0 +
STACK CFI 5c01c .cfa: x29 32 +
STACK CFI 5c020 .cfa: sp 32 +
STACK CFI 5c028 .cfa: sp 0 +
STACK CFI INIT 5c02c bc .cfa: sp 0 +
STACK CFI 5c030 .cfa: sp 48 +
STACK CFI 5c03c .cfa: x29 48 + x19: .cfa -8 + ^ x20: .cfa -16 + ^ x21: .cfa -24 + ^ x22: .cfa -32 + ^ .ra: .cfa -40 + ^ x29: .cfa -48 + ^
STACK CFI 5c0b0 .cfa: sp 48 +
STACK CFI 5c0bc .cfa: sp 0 +
STACK CFI 5c0c0 .cfa: x29 48 +
STACK CFI INIT 5c184 68 .cfa: sp 0 +
STACK CFI 5c188 .cfa: sp 48 +
STACK CFI 5c194 .cfa: x29 48 + x19: .cfa -8 + ^ x20: .cfa -16 + ^ x21: .cfa -32 + ^ .ra: .cfa -40 + ^ x29: .cfa -48 + ^
STACK CFI 5c1cc .cfa: sp 48 +
STACK CFI 5c1d8 .cfa: sp 0 +
STACK CFI 5c1dc .cfa: sp 48 +
STACK CFI 5c1e8 .cfa: sp 0 +
STACK CFI INIT 5ce44 e4 .cfa: sp 0 +
STACK CFI 5ce48 .cfa: sp 48 +
STACK CFI 5ce54 .cfa: x29 48 + x19: .cfa -8 + ^ x20: .cfa -16 + ^ x21: .cfa -24 + ^ x22: .cfa -32 + ^ .ra: .cfa -40 + ^ x29: .cfa -48 + ^
STACK CFI 5cf18 .cfa: sp 48 +
STACK CFI 5cf24 .cfa: sp 0 +
STACK CFI INIT 5d890 140 .cfa: sp 0 +
STACK CFI 5d894 .cfa: sp 48 +
STACK CFI 5d8a0 .cfa: x29 48 + x19: .cfa -8 + ^ x20: .cfa -16 + ^ x21: .cfa -32 + ^ .ra: .cfa -40 + ^ x29: .cfa -48 + ^
STACK CFI 5d9b4 .cfa: sp 48 +
STACK CFI 5d9c0 .cfa: sp 0 +
STACK CFI 5d9c4 .cfa: x29 48 +
STACK CFI INIT 5e714 3c .cfa: sp 0 +
STACK CFI 5e718 .cfa: sp 32 +
STACK CFI 5e720 .cfa: x29 32 + x19: .cfa -16 + ^ .ra: .cfa -24 + ^ x29: .cfa -32 + ^
STACK CFI 5e744 .cfa: sp 32 +
STACK CFI 5e74c .cfa: sp 0 +
STACK CFI INIT 5e750 5c .cfa: sp 0 +
STACK CFI 5e754 .cfa: sp 32 +
STACK CFI 5e75c .cfa: x29 32 + x19: .cfa -8 + ^ x20: .cfa -16 + ^ .ra: .cfa -24 + ^ x29: .cfa -32 + ^
STACK CFI 5e790 .cfa: sp 32 +
STACK CFI 5e798 .cfa: sp 0 +
STACK CFI 5e79c .cfa: x29 32 +
STACK CFI 5e7a0 .cfa: sp 32 +
STACK CFI 5e7a8 .cfa: sp 0 +
STACK CFI INIT 5e7ac 4c .cfa: sp 0 +
STACK CFI 5e7b0 .cfa: sp 32 +
STACK CFI 5e7b8 .cfa: x29 32 + x19: .cfa -8 + ^ x20: .cfa -16 + ^ .ra: .cfa -24 + ^ x29: .cfa -32 + ^
STACK CFI 5e7e0 .cfa: sp 32 +
STACK CFI 5e7e8 .cfa: sp 0 +
STACK CFI 5e7ec .cfa: sp 32 +
STACK CFI 5e7f4 .cfa: sp 0 +
STACK CFI INIT 5ee08 44 .cfa: sp 0 +
STACK CFI 5ee0c .cfa: sp 32 +
STACK CFI 5ee14 .cfa: x29 32 + x19: .cfa -16 + ^ .ra: .cfa -24 + ^ x29: .cfa -32 + ^
STACK CFI 5ee40 .cfa: sp 32 +
STACK CFI 5ee48 .cfa: sp 0 +
STACK CFI INIT 5ee4c 24 .cfa: sp 0 +
STACK CFI 5ee50 .cfa: sp 32 +
STACK CFI 5ee58 .cfa: x29 32 + x19: .cfa -16 + ^ .ra: .cfa -24 + ^ x29: .cfa -32 + ^
STACK CFI 5ee64 .cfa: sp 32 +
STACK CFI 5ee6c .cfa: sp 0 +
STACK CFI INIT 5ee70 44 .cfa: sp 0 +
STACK CFI 5ee74 .cfa: sp 32 +
STACK CFI 5ee7c .cfa: x29 32 + x19: .cfa -16 + ^ .ra: .cfa -24 + ^ x29: .cfa -32 + ^
STACK CFI 5eea8 .cfa: sp 32 +
STACK CFI 5eeb0 .cfa: sp 0 +
STACK CFI INIT 5eeb4 20c .cfa: sp 0 +
STACK CFI 5eeb8 .cfa: sp 48 +
STACK CFI 5eec4 .cfa: x29 48 + x19: .cfa -8 + ^ x20: .cfa -16 + ^ x21: .cfa -24 + ^ x22: .cfa -32 + ^ .ra: .cfa -40 + ^ x29: .cfa -48 + ^
STACK CFI 5f054 .cfa: sp 48 +
STACK CFI 5f060 .cfa: sp 0 +
STACK CFI 5f064 .cfa: x29 48 +
STACK CFI INIT 5f0c0 24 .cfa: sp 0 +
STACK CFI 5f0c4 .cfa: sp 32 +
STACK CFI 5f0cc .cfa: x29 32 + x19: .cfa -16 + ^ .ra: .cfa -24 + ^ x29: .cfa -32 + ^
STACK CFI 5f0d8 .cfa: sp 32 +
STACK CFI 5f0e0 .cfa: sp 0 +
STACK CFI INIT 5f134 30 .cfa: sp 0 +
STACK CFI 5f138 .cfa: sp 32 +
STACK CFI 5f140 .cfa: x29 32 + x19: .cfa -16 + ^ .ra: .cfa -24 + ^ x29: .cfa -32 + ^
STACK CFI 5f158 .cfa: sp 32 +
STACK CFI 5f160 .cfa: sp 0 +
STACK CFI INIT 5f164 14 .cfa: sp 0 +
STACK CFI 5f168 .cfa: sp 16 +
STACK CFI 5f16c .cfa: x29 16 + .ra: .cfa -8 + ^ x29: .cfa -16 + ^
STACK CFI INIT 5f248 4 .cfa: sp 0 +
STACK CFI INIT 5f3c4 48 .cfa: sp 0 +
STACK CFI 5f3c8 .cfa: sp 32 +
STACK CFI 5f3d0 .cfa: x29 32 + x19: .cfa -16 + ^ .ra: .cfa -24 + ^ x29: .cfa -32 + ^
STACK CFI 5f400 .cfa: sp 32 +
STACK CFI 5f408 .cfa: sp 0 +
STACK CFI INIT 5f630 54 .cfa: sp 0 +
STACK CFI 5f634 .cfa: sp 32 +
STACK CFI 5f63c .cfa: x29 32 + x19: .cfa -8 + ^ x20: .cfa -16 + ^ .ra: .cfa -24 + ^ x29: .cfa -32 + ^
STACK CFI 5f66c .cfa: sp 32 +
STACK CFI 5f674 .cfa: sp 0 +
STACK CFI 5f678 .cfa: sp 32 +
STACK CFI 5f680 .cfa: sp 0 +
STACK CFI INIT 5f684 14 .cfa: sp 0 +
STACK CFI 5f688 .cfa: sp 16 +
STACK CFI 5f68c .cfa: x29 16 + .ra: .cfa -8 + ^ x29: .cfa -16 + ^
STACK CFI INIT 5f8bc 78 .cfa: sp 0 +
STACK CFI 5f8c0 .cfa: sp 48 +
STACK CFI 5f8cc .cfa: x29 48 + x19: .cfa -8 + ^ x20: .cfa -16 + ^ x21: .cfa -24 + ^ x22: .cfa -32 + ^ .ra: .cfa -40 + ^ x29: .cfa -48 + ^
STACK CFI 5f8d4 .cfa: sp 48 +
STACK CFI 5f8e0 .cfa: sp 0 +
STACK CFI 5f8e4 .cfa: x29 48 +
STACK CFI 5f924 .cfa: sp 48 +
STACK CFI 5f930 .cfa: sp 0 +
STACK CFI INIT 5f934 1bc .cfa: sp 0 +
STACK CFI 5f938 .cfa: sp 80 +
STACK CFI 5f94c .cfa: x29 80 + x19: .cfa -8 + ^ x20: .cfa -16 + ^ x21: .cfa -24 + ^ x22: .cfa -32 + ^ x23: .cfa -40 + ^ x24: .cfa -48 + ^ x25: .cfa -56 + ^ x26: .cfa -64 + ^ .ra: .cfa -72 + ^ x29: .cfa -80 + ^
STACK CFI 5fad8 .cfa: sp 80 +
STACK CFI 5faec .cfa: sp 0 +
STACK CFI INIT 5faf0 370 .cfa: sp 0 +
STACK CFI 5faf4 .cfa: sp 80 +
STACK CFI 5fb08 .cfa: x29 80 + x19: .cfa -8 + ^ x20: .cfa -16 + ^ x21: .cfa -24 + ^ x22: .cfa -32 + ^ x23: .cfa -40 + ^ x24: .cfa -48 + ^ x25: .cfa -56 + ^ x26: .cfa -64 + ^ .ra: .cfa -72 + ^ x29: .cfa -80 + ^
STACK CFI 5fe44 .cfa: sp 80 +
STACK CFI 5fe58 .cfa: sp 0 +
STACK CFI 5fe5c .cfa: x29 80 +
STACK CFI INIT 5fe60 204 .cfa: sp 0 +
STACK CFI INIT 60064 74 .cfa: sp 0 +
STACK CFI 60068 .cfa: sp 48 +
STACK CFI 60074 .cfa: x29 48 + x19: .cfa -8 + ^ x20: .cfa -16 + ^ x21: .cfa -32 + ^ .ra: .cfa -40 + ^ x29: .cfa -48 + ^
STACK CFI 600b8 .cfa: sp 48 +
STACK CFI 600c4 .cfa: sp 0 +
STACK CFI 600c8 .cfa: sp 48 +
STACK CFI 600d4 .cfa: sp 0 +
STACK CFI INIT 6022c 14 .cfa: sp 0 +
STACK CFI 60230 .cfa: sp 16 +
STACK CFI 60234 .cfa: x29 16 + .ra: .cfa -8 + ^ x29: .cfa -16 + ^
STACK CFI INIT 60240 2c0 .cfa: sp 0 +
STACK CFI 60244 .cfa: sp 48 +
STACK CFI 60250 .cfa: x29 48 + x19: .cfa -8 + ^ x20: .cfa -16 + ^ x21: .cfa -24 + ^ x22: .cfa -32 + ^ .ra: .cfa -40 + ^ x29: .cfa -48 + ^
STACK CFI 604c8 .cfa: sp 48 +
STACK CFI 604d4 .cfa: sp 0 +
STACK CFI 604d8 .cfa: x29 48 +
STACK CFI 604e4 .cfa: sp 48 +
STACK CFI 604f0 .cfa: sp 0 +
STACK CFI 604f4 .cfa: x29 48 +
STACK CFI INIT 60780 54 .cfa: sp 0 +
STACK CFI 60784 .cfa: sp 32 +
STACK CFI 6078c .cfa: x29 32 + x19: .cfa -8 + ^ x20: .cfa -16 + ^ .ra: .cfa -24 + ^ x29: .cfa -32 + ^
STACK CFI 607bc .cfa: sp 32 +
STACK CFI 607c4 .cfa: sp 0 +
STACK CFI 607c8 .cfa: sp 32 +
STACK CFI 607d0 .cfa: sp 0 +
STACK CFI INIT 607d4 14 .cfa: sp 0 +
STACK CFI 607d8 .cfa: sp 16 +
STACK CFI 607dc .cfa: x29 16 + .ra: .cfa -8 + ^ x29: .cfa -16 + ^
STACK CFI INIT 607e8 14 .cfa: sp 0 +
STACK CFI 607ec .cfa: sp 16 +
STACK CFI 607f0 .cfa: x29 16 + .ra: .cfa -8 + ^ x29: .cfa -16 + ^
STACK CFI INIT 60954 5c .cfa: sp 0 +
STACK CFI 60958 .cfa: sp 32 +
STACK CFI 60960 .cfa: x29 32 + x19: .cfa -8 + ^ x20: .cfa -16 + ^ .ra: .cfa -24 + ^ x29: .cfa -32 + ^
STACK CFI 60968 .cfa: sp 32 +
STACK CFI 60970 .cfa: sp 0 +
STACK CFI 60974 .cfa: x29 32 +
STACK CFI INIT 609b0 278 .cfa: sp 0 +
STACK CFI 609b4 .cfa: sp 80 +
STACK CFI 609c8 .cfa: x29 80 + x19: .cfa -8 + ^ x20: .cfa -16 + ^ x21: .cfa -24 + ^ x22: .cfa -32 + ^ x23: .cfa -40 + ^ x24: .cfa -48 + ^ x25: .cfa -64 + ^ .ra: .cfa -72 + ^ x29: .cfa -80 + ^
STACK CFI 60c04 .cfa: sp 80 +
STACK CFI 60c18 .cfa: sp 0 +
STACK CFI 60c1c .cfa: x29 80 +
STACK CFI INIT 60c28 68 .cfa: sp 0 +
STACK CFI 60c2c .cfa: sp 32 +
STACK CFI 60c34 .cfa: x29 32 + x19: .cfa -8 + ^ x20: .cfa -16 + ^ .ra: .cfa -24 + ^ x29: .cfa -32 + ^
STACK CFI 60c4c .cfa: sp 32 +
STACK CFI 60c54 .cfa: sp 0 +
STACK CFI 60c58 .cfa: x29 32 +
STACK CFI 60c84 .cfa: sp 32 +
STACK CFI 60c8c .cfa: sp 0 +
STACK CFI INIT 60f58 14 .cfa: sp 0 +
STACK CFI 60f5c .cfa: sp 16 +
STACK CFI 60f60 .cfa: x29 16 + .ra: .cfa -8 + ^ x29: .cfa -16 + ^
STACK CFI INIT 61098 4c .cfa: sp 0 +
STACK CFI 6109c .cfa: sp 32 +
STACK CFI 610a4 .cfa: x29 32 + x19: .cfa -8 + ^ x20: .cfa -16 + ^ .ra: .cfa -24 + ^ x29: .cfa -32 + ^
STACK CFI 610cc .cfa: sp 32 +
STACK CFI 610d4 .cfa: sp 0 +
STACK CFI 610d8 .cfa: sp 32 +
STACK CFI 610e0 .cfa: sp 0 +
STACK CFI INIT 610e4 1d8 .cfa: sp 0 +
STACK CFI 610e8 .cfa: sp 32 +
STACK CFI 610f0 .cfa: x29 32 + x19: .cfa -8 + ^ x20: .cfa -16 + ^ .ra: .cfa -24 + ^ x29: .cfa -32 + ^
STACK CFI 6117c .cfa: sp 32 +
STACK CFI 61184 .cfa: sp 0 +
STACK CFI 61188 .cfa: x29 32 +
STACK CFI 6119c .cfa: sp 32 +
STACK CFI 611a4 .cfa: sp 0 +
STACK CFI 611a8 .cfa: x29 32 +
STACK CFI INIT 615d8 4b8 .cfa: sp 0 +
STACK CFI 615dc .cfa: sp 16 + x19: .cfa -16 + ^
STACK CFI 6163c .cfa: sp 0 +
STACK CFI 61640 .cfa: sp 16 +
STACK CFI 6175c .cfa: sp 0 +
STACK CFI 61760 .cfa: sp 16 +
STACK CFI 6180c .cfa: sp 0 +
STACK CFI 61810 .cfa: sp 16 +
STACK CFI 619e4 .cfa: sp 0 +
STACK CFI 619e8 .cfa: sp 16 +
STACK CFI 61a30 .cfa: sp 0 +
STACK CFI 61a34 .cfa: sp 16 +
STACK CFI 61a8c .cfa: sp 0 +
STACK CFI INIT 61a90 20 .cfa: sp 0 +
STACK CFI 61a94 .cfa: sp 16 +
STACK CFI 61a98 .cfa: x29 16 + .ra: .cfa -8 + ^ x29: .cfa -16 + ^
STACK CFI INIT 61ab0 4 .cfa: sp 0 +
STACK CFI INIT 61ab4 4 .cfa: sp 0 +
STACK CFI INIT 61ab8 1c .cfa: sp 0 +
STACK CFI INIT 61ad4 40 .cfa: sp 0 +
STACK CFI 61ad8 .cfa: sp 32 +
STACK CFI 61ae0 .cfa: x29 32 + x19: .cfa -16 + ^ .ra: .cfa -24 + ^ x29: .cfa -32 + ^
STACK CFI 61b08 .cfa: sp 32 +
STACK CFI 61b10 .cfa: sp 0 +
STACK CFI INIT 61bb4 8c .cfa: sp 0 +
STACK CFI 61bb8 .cfa: sp 48 +
STACK CFI 61bc4 .cfa: x29 48 + x19: .cfa -8 + ^ x20: .cfa -16 + ^ x21: .cfa -32 + ^ .ra: .cfa -40 + ^ x29: .cfa -48 + ^
STACK CFI 61be8 .cfa: sp 48 +
STACK CFI 61bf4 .cfa: sp 0 +
STACK CFI 61bf8 .cfa: x29 48 +
STACK CFI 61c30 .cfa: sp 48 +
STACK CFI 61c3c .cfa: sp 0 +
STACK CFI INIT 61c40 48 .cfa: sp 0 +
STACK CFI 61c48 .cfa: sp 32 +
STACK CFI 61c50 .cfa: x29 32 + x19: .cfa -8 + ^ x20: .cfa -16 + ^ .ra: .cfa -24 + ^ x29: .cfa -32 + ^
STACK CFI 61c78 .cfa: sp 32 +
STACK CFI 61c80 .cfa: sp 0 +
STACK CFI INIT 61c88 98 .cfa: sp 0 +
STACK CFI 61c8c .cfa: sp 48 +
STACK CFI 61c98 .cfa: x29 48 + x19: .cfa -8 + ^ x20: .cfa -16 + ^ x21: .cfa -24 + ^ x22: .cfa -32 + ^ .ra: .cfa -40 + ^ x29: .cfa -48 + ^
STACK CFI 61cb0 .cfa: sp 48 +
STACK CFI 61cbc .cfa: sp 0 +
STACK CFI 61cc0 .cfa: x29 48 +
STACK CFI 61d10 .cfa: sp 48 +
STACK CFI 61d1c .cfa: sp 0 +
STACK CFI INIT 61d20 4 .cfa: sp 0 +
STACK CFI INIT 61d24 34 .cfa: sp 0 +
STACK CFI 61d28 .cfa: sp 32 +
STACK CFI 61d30 .cfa: x29 32 + x19: .cfa -16 + ^ .ra: .cfa -24 + ^ x29: .cfa -32 + ^
STACK CFI 61d4c .cfa: sp 32 +
STACK CFI 61d54 .cfa: sp 0 +
STACK CFI INIT 61d58 14 .cfa: sp 0 +
STACK CFI INIT 61d6c 4 .cfa: sp 0 +
STACK CFI INIT 61d70 4 .cfa: sp 0 +
STACK CFI INIT 61d74 c .cfa: sp 0 +
STACK CFI INIT 61d80 1c .cfa: sp 0 +
STACK CFI INIT 61d9c c .cfa: sp 0 +
STACK CFI INIT 61da8 4 .cfa: sp 0 +
STACK CFI INIT 61dac 4 .cfa: sp 0 +
STACK CFI INIT 61db0 34 .cfa: sp 0 +
STACK CFI 61db4 .cfa: sp 32 +
STACK CFI 61dbc .cfa: x29 32 + x19: .cfa -16 + ^ .ra: .cfa -24 + ^ x29: .cfa -32 + ^
STACK CFI 61dd8 .cfa: sp 32 +
STACK CFI 61de0 .cfa: sp 0 +
STACK CFI INIT 61de4 14 .cfa: sp 0 +
STACK CFI INIT 61df8 4 .cfa: sp 0 +
STACK CFI INIT 61dfc 4 .cfa: sp 0 +
STACK CFI INIT 61e00 c .cfa: sp 0 +
STACK CFI INIT 61e0c 1c .cfa: sp 0 +
STACK CFI INIT 61e28 c .cfa: sp 0 +
STACK CFI INIT 62620 80 .cfa: sp 0 +
STACK CFI 62624 .cfa: sp 32 +
STACK CFI 6262c .cfa: x29 32 + x19: .cfa -16 + ^ .ra: .cfa -24 + ^ x29: .cfa -32 + ^
STACK CFI 62660 .cfa: sp 32 +
STACK CFI 62668 .cfa: sp 0 +
STACK CFI 6266c .cfa: x29 32 +
STACK CFI 62694 .cfa: sp 32 +
STACK CFI 6269c .cfa: sp 0 +
STACK CFI INIT 626a0 1d8 .cfa: sp 0 +
STACK CFI 626a4 .cfa: sp 32 +
STACK CFI 626ac .cfa: x29 32 + x19: .cfa -8 + ^ x20: .cfa -16 + ^ .ra: .cfa -24 + ^ x29: .cfa -32 + ^
STACK CFI 62738 .cfa: sp 32 +
STACK CFI 62740 .cfa: sp 0 +
STACK CFI 62744 .cfa: x29 32 +
STACK CFI 62758 .cfa: sp 32 +
STACK CFI 62760 .cfa: sp 0 +
STACK CFI 62764 .cfa: x29 32 +
STACK CFI INIT 62d80 44 .cfa: sp 0 +
STACK CFI 62d84 .cfa: sp 32 +
STACK CFI 62d8c .cfa: x29 32 + x19: .cfa -16 + ^ .ra: .cfa -24 + ^ x29: .cfa -32 + ^
STACK CFI 62dac .cfa: sp 32 +
STACK CFI 62db4 .cfa: sp 0 +
STACK CFI 62db8 .cfa: sp 32 +
STACK CFI 62dc0 .cfa: sp 0 +
STACK CFI INIT 62dc4 1d8 .cfa: sp 0 +
STACK CFI 62dc8 .cfa: sp 32 +
STACK CFI 62dd0 .cfa: x29 32 + x19: .cfa -8 + ^ x20: .cfa -16 + ^ .ra: .cfa -24 + ^ x29: .cfa -32 + ^
STACK CFI 62e5c .cfa: sp 32 +
STACK CFI 62e64 .cfa: sp 0 +
STACK CFI 62e68 .cfa: x29 32 +
STACK CFI 62e7c .cfa: sp 32 +
STACK CFI 62e84 .cfa: sp 0 +
STACK CFI 62e88 .cfa: x29 32 +
STACK CFI INIT 631e4 134 .cfa: sp 0 +
STACK CFI INIT 6381c 58 .cfa: sp 0 +
STACK CFI 63820 .cfa: sp 32 +
STACK CFI 63828 .cfa: x29 32 + x19: .cfa -16 + ^ .ra: .cfa -24 + ^ x29: .cfa -32 + ^
STACK CFI 6385c .cfa: sp 32 +
STACK CFI 63864 .cfa: sp 0 +
STACK CFI 63868 .cfa: sp 32 +
STACK CFI 63870 .cfa: sp 0 +
STACK CFI INIT 63874 1d8 .cfa: sp 0 +
STACK CFI 63878 .cfa: sp 32 +
STACK CFI 63880 .cfa: x29 32 + x19: .cfa -8 + ^ x20: .cfa -16 + ^ .ra: .cfa -24 + ^ x29: .cfa -32 + ^
STACK CFI 6390c .cfa: sp 32 +
STACK CFI 63914 .cfa: sp 0 +
STACK CFI 63918 .cfa: x29 32 +
STACK CFI 6392c .cfa: sp 32 +
STACK CFI 63934 .cfa: sp 0 +
STACK CFI 63938 .cfa: x29 32 +
STACK CFI INIT 63db0 134 .cfa: sp 0 +
STACK CFI INIT 64f48 1d8 .cfa: sp 0 +
STACK CFI 64f4c .cfa: sp 32 +
STACK CFI 64f54 .cfa: x29 32 + x19: .cfa -8 + ^ x20: .cfa -16 + ^ .ra: .cfa -24 + ^ x29: .cfa -32 + ^
STACK CFI 64fe0 .cfa: sp 32 +
STACK CFI 64fe8 .cfa: sp 0 +
STACK CFI 64fec .cfa: x29 32 +
STACK CFI 65000 .cfa: sp 32 +
STACK CFI 65008 .cfa: sp 0 +
STACK CFI 6500c .cfa: x29 32 +
STACK CFI INIT 651c4 20c .cfa: sp 0 +
STACK CFI 651c8 .cfa: sp 64 +
STACK CFI 651d8 .cfa: x29 64 + x19: .cfa -8 + ^ x20: .cfa -16 + ^ x21: .cfa -24 + ^ x22: .cfa -32 + ^ x23: .cfa -40 + ^ x24: .cfa -48 + ^ .ra: .cfa -56 + ^ x29: .cfa -64 + ^
STACK CFI 65384 .cfa: sp 64 +
STACK CFI 65394 .cfa: sp 0 +
STACK CFI 65398 .cfa: x29 64 +
STACK CFI 653a0 .cfa: sp 64 +
STACK CFI 653b0 .cfa: sp 0 +
STACK CFI 653b4 .cfa: x29 64 +
STACK CFI 653bc .cfa: sp 64 +
STACK CFI 653cc .cfa: sp 0 +
STACK CFI INIT 65594 134 .cfa: sp 0 +
STACK CFI INIT 66298 74 .cfa: sp 0 +
STACK CFI 6629c .cfa: sp 32 +
STACK CFI 662a4 .cfa: x29 32 + x19: .cfa -8 + ^ x20: .cfa -16 + ^ .ra: .cfa -24 + ^ x29: .cfa -32 + ^
STACK CFI 662f4 .cfa: sp 32 +
STACK CFI 662fc .cfa: sp 0 +
STACK CFI 66300 .cfa: sp 32 +
STACK CFI 66308 .cfa: sp 0 +
STACK CFI INIT 6630c 1d8 .cfa: sp 0 +
STACK CFI 66310 .cfa: sp 32 +
STACK CFI 66318 .cfa: x29 32 + x19: .cfa -8 + ^ x20: .cfa -16 + ^ .ra: .cfa -24 + ^ x29: .cfa -32 + ^
STACK CFI 663a4 .cfa: sp 32 +
STACK CFI 663ac .cfa: sp 0 +
STACK CFI 663b0 .cfa: x29 32 +
STACK CFI 663c4 .cfa: sp 32 +
STACK CFI 663cc .cfa: sp 0 +
STACK CFI 663d0 .cfa: x29 32 +
STACK CFI INIT 66800 140 .cfa: sp 0 +
STACK CFI 66804 .cfa: sp 64 +
STACK CFI 66810 .cfa: x29 32 + x19: .cfa -16 + ^ .ra: .cfa -24 + ^ x29: .cfa -32 + ^
STACK CFI 66900 .cfa: sp 64 +
STACK CFI 6690c .cfa: sp 0 +
STACK CFI 66910 .cfa: x29 32 +
STACK CFI INIT 66940 134 .cfa: sp 0 +
STACK CFI INIT 66a74 ac .cfa: sp 0 +
STACK CFI 66a78 .cfa: sp 80 +
STACK CFI 66a88 .cfa: x29 48 + x19: .cfa -8 + ^ x20: .cfa -16 + ^ x21: .cfa -24 + ^ x22: .cfa -32 + ^ .ra: .cfa -40 + ^ x29: .cfa -48 + ^
STACK CFI 66b08 .cfa: sp 80 +
STACK CFI 66b18 .cfa: sp 0 +
STACK CFI 66b1c .cfa: x29 48 +
STACK CFI INIT 66b20 134 .cfa: sp 0 +
STACK CFI INIT 66e9c 134 .cfa: sp 0 +
STACK CFI INIT 66fd0 4c .cfa: sp 0 +
STACK CFI 66fd4 .cfa: sp 32 +
STACK CFI 66fdc .cfa: x29 32 + x19: .cfa -16 + ^ .ra: .cfa -24 + ^ x29: .cfa -32 + ^
STACK CFI 67004 .cfa: sp 32 +
STACK CFI 6700c .cfa: sp 0 +
STACK CFI 67010 .cfa: sp 32 +
STACK CFI 67018 .cfa: sp 0 +
STACK CFI INIT 674a4 1d8 .cfa: sp 0 +
STACK CFI 674a8 .cfa: sp 32 +
STACK CFI 674b0 .cfa: x29 32 + x19: .cfa -8 + ^ x20: .cfa -16 + ^ .ra: .cfa -24 + ^ x29: .cfa -32 + ^
STACK CFI 6753c .cfa: sp 32 +
STACK CFI 67544 .cfa: sp 0 +
STACK CFI 67548 .cfa: x29 32 +
STACK CFI 6755c .cfa: sp 32 +
STACK CFI 67564 .cfa: sp 0 +
STACK CFI 67568 .cfa: x29 32 +
STACK CFI INIT 6767c 4 .cfa: sp 0 +
STACK CFI INIT 67788 40 .cfa: sp 0 +
STACK CFI 6778c .cfa: sp 32 +
STACK CFI 67794 .cfa: x29 32 + x19: .cfa -16 + ^ .ra: .cfa -24 + ^ x29: .cfa -32 + ^
STACK CFI 677bc .cfa: sp 32 +
STACK CFI 677c4 .cfa: sp 0 +
STACK CFI INIT 677c8 48 .cfa: sp 0 +
STACK CFI 677cc .cfa: sp 32 +
STACK CFI 677d4 .cfa: x29 32 + x19: .cfa -16 + ^ .ra: .cfa -24 + ^ x29: .cfa -32 + ^
STACK CFI 67804 .cfa: sp 32 +
STACK CFI 6780c .cfa: sp 0 +
STACK CFI INIT 67810 4 .cfa: sp 0 +
STACK CFI INIT 67814 c .cfa: sp 0 +
STACK CFI INIT 67820 34 .cfa: sp 0 +
STACK CFI 67824 .cfa: sp 32 +
STACK CFI 6782c .cfa: x29 32 + x19: .cfa -16 + ^ .ra: .cfa -24 + ^ x29: .cfa -32 + ^
STACK CFI 67848 .cfa: sp 32 +
STACK CFI 67850 .cfa: sp 0 +
STACK CFI INIT 67854 4 .cfa: sp 0 +
STACK CFI INIT 67e1c 14c .cfa: sp 0 +
STACK CFI 67e20 .cfa: sp 80 +
STACK CFI 67e30 .cfa: x29 32 + x19: .cfa -8 + ^ x20: .cfa -16 + ^ .ra: .cfa -24 + ^ x29: .cfa -32 + ^ v8: .cfa -40 + ^ v9: .cfa -48 + ^
STACK CFI 67ef0 .cfa: sp 80 +
STACK CFI 67f00 .cfa: sp 0 +
STACK CFI 67f04 .cfa: x29 32 +
STACK CFI INIT 68d64 148 .cfa: sp 0 +
STACK CFI 68d68 .cfa: sp 80 +
STACK CFI 68d7c .cfa: x29 64 + x19: .cfa -8 + ^ x20: .cfa -16 + ^ x21: .cfa -24 + ^ x22: .cfa -32 + ^ x23: .cfa -48 + ^ .ra: .cfa -56 + ^ x29: .cfa -64 + ^
STACK CFI 68e90 .cfa: sp 80 +
STACK CFI 68ea4 .cfa: sp 0 +
STACK CFI 68ea8 .cfa: x29 64 +
STACK CFI INIT 697a0 14c .cfa: sp 0 +
STACK CFI 697a4 .cfa: sp 80 +
STACK CFI 697b4 .cfa: x29 32 + x19: .cfa -8 + ^ x20: .cfa -16 + ^ .ra: .cfa -24 + ^ x29: .cfa -32 + ^ v8: .cfa -40 + ^ v9: .cfa -48 + ^
STACK CFI 69874 .cfa: sp 80 +
STACK CFI 69884 .cfa: sp 0 +
STACK CFI 69888 .cfa: x29 32 +
STACK CFI INIT 698ec 30 .cfa: sp 0 +
STACK CFI 698f0 .cfa: sp 32 +
STACK CFI 698f8 .cfa: x29 32 + x19: .cfa -16 + ^ .ra: .cfa -24 + ^ x29: .cfa -32 + ^
STACK CFI 69910 .cfa: sp 32 +
STACK CFI 69918 .cfa: sp 0 +
STACK CFI INIT 69a14 50 .cfa: sp 0 +
STACK CFI 69a18 .cfa: sp 32 +
STACK CFI 69a20 .cfa: x29 32 + x19: .cfa -16 + ^ .ra: .cfa -24 + ^ x29: .cfa -32 + ^
STACK CFI 69a58 .cfa: sp 32 +
STACK CFI 69a60 .cfa: sp 0 +
STACK CFI INIT 6a470 60 .cfa: sp 0 +
STACK CFI 6a474 .cfa: sp 32 +
STACK CFI 6a47c .cfa: x29 32 + x19: .cfa -8 + ^ x20: .cfa -16 + ^ .ra: .cfa -24 + ^ x29: .cfa -32 + ^
STACK CFI 6a4c4 .cfa: sp 32 +
STACK CFI 6a4cc .cfa: sp 0 +
STACK CFI INIT 6a4d0 10 .cfa: sp 0 +
STACK CFI INIT 6a4e0 54 .cfa: sp 0 +
STACK CFI 6a4e4 .cfa: sp 32 +
STACK CFI 6a4ec .cfa: x29 32 + x19: .cfa -16 + ^ .ra: .cfa -24 + ^ x29: .cfa -32 + ^
STACK CFI 6a528 .cfa: sp 32 +
STACK CFI 6a530 .cfa: sp 0 +
STACK CFI INIT 6a534 48 .cfa: sp 0 +
STACK CFI 6a538 .cfa: sp 32 +
STACK CFI 6a540 .cfa: x29 32 + x19: .cfa -16 + ^ .ra: .cfa -24 + ^ x29: .cfa -32 + ^
STACK CFI 6a570 .cfa: sp 32 +
STACK CFI 6a578 .cfa: sp 0 +
STACK CFI INIT 6bc98 14c .cfa: sp 0 +
STACK CFI 6bc9c .cfa: sp 80 +
STACK CFI 6bcac .cfa: x29 32 + x19: .cfa -8 + ^ x20: .cfa -16 + ^ .ra: .cfa -24 + ^ x29: .cfa -32 + ^ v8: .cfa -40 + ^ v9: .cfa -48 + ^
STACK CFI 6bd6c .cfa: sp 80 +
STACK CFI 6bd7c .cfa: sp 0 +
STACK CFI 6bd80 .cfa: x29 32 +
STACK CFI INIT 6c140 7c .cfa: sp 0 +
STACK CFI 6c144 .cfa: sp 48 +
STACK CFI 6c150 .cfa: x29 48 + x19: .cfa -8 + ^ x20: .cfa -16 + ^ x21: .cfa -32 + ^ .ra: .cfa -40 + ^ x29: .cfa -48 + ^
STACK CFI 6c194 .cfa: sp 48 +
STACK CFI 6c1a0 .cfa: sp 0 +
STACK CFI 6c1a4 .cfa: x29 48 +
STACK CFI 6c1ac .cfa: sp 48 +
STACK CFI 6c1b8 .cfa: sp 0 +
STACK CFI INIT 6c5b4 8 .cfa: sp 0 +
STACK CFI INIT 6c5bc 3c .cfa: sp 0 +
STACK CFI 6c5c0 .cfa: sp 32 +
STACK CFI 6c5c8 .cfa: x29 32 + x19: .cfa -8 + ^ x20: .cfa -16 + ^ .ra: .cfa -24 + ^ x29: .cfa -32 + ^
STACK CFI 6c5ec .cfa: sp 32 +
STACK CFI 6c5f4 .cfa: sp 0 +
STACK CFI INIT 6c9a4 24 .cfa: sp 0 +
STACK CFI 6c9a8 .cfa: sp 32 +
STACK CFI 6c9b0 .cfa: x29 32 + x19: .cfa -16 + ^ .ra: .cfa -24 + ^ x29: .cfa -32 + ^
STACK CFI 6c9bc .cfa: sp 32 +
STACK CFI 6c9c4 .cfa: sp 0 +
STACK CFI INIT 6c9c8 2c .cfa: sp 0 +
STACK CFI 6c9cc .cfa: sp 32 +
STACK CFI 6c9d4 .cfa: x29 32 + x19: .cfa -16 + ^ .ra: .cfa -24 + ^ x29: .cfa -32 + ^
STACK CFI 6c9e8 .cfa: sp 32 +
STACK CFI 6c9f0 .cfa: sp 0 +
STACK CFI INIT 6c9f4 28 .cfa: sp 0 +
STACK CFI INIT 6ca1c 4 .cfa: sp 0 +
STACK CFI INIT 6ca20 8 .cfa: sp 0 +
STACK CFI INIT 6ca28 50 .cfa: sp 0 +
STACK CFI 6ca2c .cfa: sp 32 +
STACK CFI 6ca34 .cfa: x29 32 + x19: .cfa -16 + ^ .ra: .cfa -24 + ^ x29: .cfa -32 + ^
STACK CFI 6ca6c .cfa: sp 32 +
STACK CFI 6ca74 .cfa: sp 0 +
STACK CFI INIT 6ca78 8 .cfa: sp 0 +
STACK CFI INIT 6ca80 28 .cfa: sp 0 +
STACK CFI 6ca84 .cfa: sp 32 +
STACK CFI 6ca8c .cfa: x29 32 + x19: .cfa -16 + ^ .ra: .cfa -24 + ^ x29: .cfa -32 + ^
STACK CFI 6ca9c .cfa: sp 32 +
STACK CFI 6caa4 .cfa: sp 0 +
STACK CFI INIT 6caa8 2c .cfa: sp 0 +
STACK CFI INIT 6cad4 4 .cfa: sp 0 +
STACK CFI INIT 6cad8 4 .cfa: sp 0 +
STACK CFI INIT 6cadc 4 .cfa: sp 0 +
STACK CFI INIT 6cae0 4 .cfa: sp 0 +
STACK CFI INIT 6cae4 4 .cfa: sp 0 +
STACK CFI INIT 6cae8 8 .cfa: sp 0 +
STACK CFI INIT 6cc68 2c .cfa: sp 0 +
STACK CFI 6cc6c .cfa: sp 32 +
STACK CFI 6cc74 .cfa: x29 32 + x19: .cfa -16 + ^ .ra: .cfa -24 + ^ x29: .cfa -32 + ^
STACK CFI 6cc88 .cfa: sp 32 +
STACK CFI 6cc90 .cfa: sp 0 +
STACK CFI INIT 6cc94 28 .cfa: sp 0 +
STACK CFI INIT 6ce3c 2c .cfa: sp 0 +
STACK CFI INIT 6cf8c 24 .cfa: sp 0 +
STACK CFI 6cf90 .cfa: sp 32 +
STACK CFI 6cf98 .cfa: x29 32 + x19: .cfa -16 + ^ .ra: .cfa -24 + ^ x29: .cfa -32 + ^
STACK CFI 6cfa4 .cfa: sp 32 +
STACK CFI 6cfac .cfa: sp 0 +
STACK CFI INIT 6cfb0 2c .cfa: sp 0 +
STACK CFI 6cfb4 .cfa: sp 32 +
STACK CFI 6cfbc .cfa: x29 32 + x19: .cfa -16 + ^ .ra: .cfa -24 + ^ x29: .cfa -32 + ^
STACK CFI 6cfd0 .cfa: sp 32 +
STACK CFI 6cfd8 .cfa: sp 0 +
STACK CFI INIT 6cfdc 28 .cfa: sp 0 +
STACK CFI INIT 6d004 50 .cfa: sp 0 +
STACK CFI 6d008 .cfa: sp 32 +
STACK CFI 6d010 .cfa: x29 32 + x19: .cfa -16 + ^ .ra: .cfa -24 + ^ x29: .cfa -32 + ^
STACK CFI 6d048 .cfa: sp 32 +
STACK CFI 6d050 .cfa: sp 0 +
STACK CFI INIT 6d054 8 .cfa: sp 0 +
STACK CFI INIT 6d05c 28 .cfa: sp 0 +
STACK CFI 6d060 .cfa: sp 32 +
STACK CFI 6d068 .cfa: x29 32 + x19: .cfa -16 + ^ .ra: .cfa -24 + ^ x29: .cfa -32 + ^
STACK CFI 6d078 .cfa: sp 32 +
STACK CFI 6d080 .cfa: sp 0 +
STACK CFI INIT 6d084 2c .cfa: sp 0 +
STACK CFI INIT 6d254 4 .cfa: sp 0 +
STACK CFI INIT 6d2c4 4 .cfa: sp 0 +
STACK CFI INIT 6d2c8 4 .cfa: sp 0 +
STACK CFI INIT 6d2cc 1c .cfa: sp 0 +
STACK CFI INIT 6d2e8 40 .cfa: sp 0 +
STACK CFI 6d2ec .cfa: sp 32 +
STACK CFI 6d2f4 .cfa: x29 32 + x19: .cfa -16 + ^ .ra: .cfa -24 + ^ x29: .cfa -32 + ^
STACK CFI 6d31c .cfa: sp 32 +
STACK CFI 6d324 .cfa: sp 0 +
STACK CFI INIT 6d394 4 .cfa: sp 0 +
STACK CFI INIT 6d404 4 .cfa: sp 0 +
STACK CFI INIT 6d680 34 .cfa: sp 0 +
STACK CFI 6d684 .cfa: sp 16 +
STACK CFI 6d688 .cfa: x29 16 + .ra: .cfa -8 + ^ x29: .cfa -16 + ^
STACK CFI INIT 6d6b4 34 .cfa: sp 0 +
STACK CFI 6d6b8 .cfa: sp 32 +
STACK CFI 6d6c0 .cfa: x29 32 + x19: .cfa -16 + ^ .ra: .cfa -24 + ^ x29: .cfa -32 + ^
STACK CFI 6d6dc .cfa: sp 32 +
STACK CFI 6d6e4 .cfa: sp 0 +
STACK CFI INIT 6d6e8 3c .cfa: sp 0 +
STACK CFI 6d6ec .cfa: sp 32 +
STACK CFI 6d6f4 .cfa: x29 32 + x19: .cfa -16 + ^ .ra: .cfa -24 + ^ x29: .cfa -32 + ^
STACK CFI 6d718 .cfa: sp 32 +
STACK CFI 6d720 .cfa: sp 0 +
STACK CFI INIT 6d724 14 .cfa: sp 0 +
STACK CFI 6d728 .cfa: sp 16 +
STACK CFI 6d72c .cfa: x29 16 + .ra: .cfa -8 + ^ x29: .cfa -16 + ^
STACK CFI INIT 6dbb0 24 .cfa: sp 0 +
STACK CFI 6dbb4 .cfa: sp 32 +
STACK CFI 6dbbc .cfa: x29 32 + x19: .cfa -16 + ^ .ra: .cfa -24 + ^ x29: .cfa -32 + ^
STACK CFI 6dbc8 .cfa: sp 32 +
STACK CFI 6dbd0 .cfa: sp 0 +
STACK CFI INIT 6dd70 14 .cfa: sp 0 +
STACK CFI 6dd74 .cfa: sp 16 +
STACK CFI 6dd78 .cfa: x29 16 + .ra: .cfa -8 + ^ x29: .cfa -16 + ^
STACK CFI INIT 6df30 4 .cfa: sp 0 +
STACK CFI INIT 6dfa0 4 .cfa: sp 0 +
STACK CFI INIT 6e064 4 .cfa: sp 0 +
STACK CFI INIT 6e068 1c .cfa: sp 0 +
STACK CFI INIT 6e084 40 .cfa: sp 0 +
STACK CFI 6e088 .cfa: sp 32 +
STACK CFI 6e090 .cfa: x29 32 + x19: .cfa -16 + ^ .ra: .cfa -24 + ^ x29: .cfa -32 + ^
STACK CFI 6e0b8 .cfa: sp 32 +
STACK CFI 6e0c0 .cfa: sp 0 +
STACK CFI INIT 6e0c4 4 .cfa: sp 0 +
STACK CFI INIT 6e0c8 4 .cfa: sp 0 +
STACK CFI INIT 6e1d4 58 .cfa: sp 0 +
STACK CFI 6e1d8 .cfa: sp 32 +
STACK CFI 6e1e0 .cfa: x29 32 + x19: .cfa -16 + ^ .ra: .cfa -24 + ^ x29: .cfa -32 + ^
STACK CFI 6e220 .cfa: sp 32 +
STACK CFI 6e228 .cfa: sp 0 +
STACK CFI INIT 6e22c 60 .cfa: sp 0 +
STACK CFI 6e230 .cfa: sp 32 +
STACK CFI 6e238 .cfa: x29 32 + x19: .cfa -16 + ^ .ra: .cfa -24 + ^ x29: .cfa -32 + ^
STACK CFI 6e280 .cfa: sp 32 +
STACK CFI 6e288 .cfa: sp 0 +
STACK CFI INIT 6e28c 308 .cfa: sp 0 +
STACK CFI 6e290 .cfa: sp 144 +
STACK CFI 6e2ac .cfa: x29 80 + x19: .cfa -8 + ^ x20: .cfa -16 + ^ x21: .cfa -24 + ^ x22: .cfa -32 + ^ x23: .cfa -40 + ^ x24: .cfa -48 + ^ x25: .cfa -56 + ^ x26: .cfa -64 + ^ .ra: .cfa -72 + ^ x29: .cfa -80 + ^ v8: .cfa -88 + ^ v9: .cfa -96 + ^
STACK CFI 6e570 .cfa: sp 144 +
STACK CFI 6e58c .cfa: sp 0 +
STACK CFI 6e590 .cfa: x29 80 +
STACK CFI INIT 6e594 4 .cfa: sp 0 +
STACK CFI INIT 6e598 4 .cfa: sp 0 +
STACK CFI INIT 6e59c 34 .cfa: sp 0 +
STACK CFI 6e5a0 .cfa: sp 32 +
STACK CFI 6e5a8 .cfa: x29 32 + x19: .cfa -16 + ^ .ra: .cfa -24 + ^ x29: .cfa -32 + ^
STACK CFI 6e5c4 .cfa: sp 32 +
STACK CFI 6e5cc .cfa: sp 0 +
STACK CFI INIT 6e5d0 14 .cfa: sp 0 +
STACK CFI INIT 6e5e4 4 .cfa: sp 0 +
STACK CFI INIT 6e5e8 4 .cfa: sp 0 +
STACK CFI INIT 6e5ec 2e4 .cfa: sp 0 +
STACK CFI 6e5f0 .cfa: sp 80 +
STACK CFI 6e5fc .cfa: x29 32 + x19: .cfa -16 + ^ .ra: .cfa -24 + ^ x29: .cfa -32 + ^
STACK CFI 6e8bc .cfa: sp 80 +
STACK CFI 6e8c8 .cfa: sp 0 +
STACK CFI 6e8cc .cfa: x29 32 +
STACK CFI INIT 6e8d0 1c .cfa: sp 0 +
STACK CFI INIT 6e8ec c .cfa: sp 0 +
STACK CFI INIT 6e8f8 4 .cfa: sp 0 +
STACK CFI INIT 6e8fc 34 .cfa: sp 0 +
STACK CFI 6e900 .cfa: sp 32 +
STACK CFI 6e908 .cfa: x29 32 + x19: .cfa -16 + ^ .ra: .cfa -24 + ^ x29: .cfa -32 + ^
STACK CFI 6e924 .cfa: sp 32 +
STACK CFI 6e92c .cfa: sp 0 +
STACK CFI INIT 6e930 14 .cfa: sp 0 +
STACK CFI INIT 6e944 4 .cfa: sp 0 +
STACK CFI INIT 6e948 4 .cfa: sp 0 +
STACK CFI INIT 6e94c 2e4 .cfa: sp 0 +
STACK CFI 6e950 .cfa: sp 80 +
STACK CFI 6e95c .cfa: x29 32 + x19: .cfa -16 + ^ .ra: .cfa -24 + ^ x29: .cfa -32 + ^
STACK CFI 6ec1c .cfa: sp 80 +
STACK CFI 6ec28 .cfa: sp 0 +
STACK CFI 6ec2c .cfa: x29 32 +
STACK CFI INIT 6ec30 1c .cfa: sp 0 +
STACK CFI INIT 6ec4c c .cfa: sp 0 +
STACK CFI INIT 6ec58 320 .cfa: sp 0 +
STACK CFI 6ec5c .cfa: sp 144 +
STACK CFI 6ec78 .cfa: x29 80 + x19: .cfa -8 + ^ x20: .cfa -16 + ^ x21: .cfa -24 + ^ x22: .cfa -32 + ^ x23: .cfa -40 + ^ x24: .cfa -48 + ^ x25: .cfa -64 + ^ .ra: .cfa -72 + ^ x29: .cfa -80 + ^ v8: .cfa -88 + ^ v9: .cfa -96 + ^
STACK CFI 6eeb8 .cfa: sp 144 +
STACK CFI 6eed4 .cfa: sp 0 +
STACK CFI 6eed8 .cfa: x29 80 +
STACK CFI INIT 6ef78 4 .cfa: sp 0 +
STACK CFI INIT 6f034 34 .cfa: sp 0 +
STACK CFI 6f038 .cfa: sp 32 +
STACK CFI 6f040 .cfa: x29 32 + x19: .cfa -16 + ^ .ra: .cfa -24 + ^ x29: .cfa -32 + ^
STACK CFI 6f05c .cfa: sp 32 +
STACK CFI 6f064 .cfa: sp 0 +
STACK CFI INIT 6f068 4 .cfa: sp 0 +
STACK CFI INIT 6f06c 4 .cfa: sp 0 +
STACK CFI INIT 6f220 34 .cfa: sp 0 +
STACK CFI 6f224 .cfa: sp 32 +
STACK CFI 6f22c .cfa: x29 32 + x19: .cfa -16 + ^ .ra: .cfa -24 + ^ x29: .cfa -32 + ^
STACK CFI 6f248 .cfa: sp 32 +
STACK CFI 6f250 .cfa: sp 0 +
STACK CFI INIT 6f254 30c .cfa: sp 0 +
STACK CFI 6f258 .cfa: sp 128 +
STACK CFI 6f270 .cfa: x29 64 + x19: .cfa -8 + ^ x20: .cfa -16 + ^ x21: .cfa -24 + ^ x22: .cfa -32 + ^ x23: .cfa -40 + ^ x24: .cfa -48 + ^ .ra: .cfa -56 + ^ x29: .cfa -64 + ^ v8: .cfa -72 + ^ v9: .cfa -80 + ^
STACK CFI 6f4a8 .cfa: sp 128 +
STACK CFI 6f4c0 .cfa: sp 0 +
STACK CFI 6f4c4 .cfa: x29 64 +
STACK CFI INIT 6f604 10 .cfa: sp 0 +
STACK CFI INIT 6f614 7c .cfa: sp 0 +
STACK CFI 6f618 .cfa: sp 32 +
STACK CFI 6f620 .cfa: x29 32 + x19: .cfa -16 + ^ .ra: .cfa -24 + ^ x29: .cfa -32 + ^
STACK CFI 6f674 .cfa: sp 32 +
STACK CFI 6f67c .cfa: sp 0 +
STACK CFI 6f680 .cfa: x29 32 +
STACK CFI 6f684 .cfa: sp 32 +
STACK CFI 6f68c .cfa: sp 0 +
STACK CFI INIT 6f890 50 .cfa: sp 0 +
STACK CFI 6f894 .cfa: sp 32 +
STACK CFI 6f89c .cfa: x29 32 + x19: .cfa -16 + ^ .ra: .cfa -24 + ^ x29: .cfa -32 + ^
STACK CFI 6f8d4 .cfa: sp 32 +
STACK CFI 6f8dc .cfa: sp 0 +
STACK CFI INIT 6fa80 24 .cfa: sp 0 +
STACK CFI 6fa84 .cfa: sp 32 +
STACK CFI 6fa8c .cfa: x29 32 + x19: .cfa -16 + ^ .ra: .cfa -24 + ^ x29: .cfa -32 + ^
STACK CFI 6fa98 .cfa: sp 32 +
STACK CFI 6faa0 .cfa: sp 0 +
STACK CFI INIT 73df4 1c .cfa: sp 0 +
STACK CFI INIT 73e10 1c .cfa: sp 0 +
STACK CFI INIT 744c4 4 .cfa: sp 0 +
STACK CFI INIT 744c8 10 .cfa: sp 0 +
STACK CFI INIT 74a9c 4 .cfa: sp 0 +
STACK CFI INIT 74aa0 f0 .cfa: sp 0 +
STACK CFI 74aa4 .cfa: sp 48 +
STACK CFI 74ab0 .cfa: x29 48 + x19: .cfa -8 + ^ x20: .cfa -16 + ^ x21: .cfa -24 + ^ x22: .cfa -32 + ^ .ra: .cfa -40 + ^ x29: .cfa -48 + ^
STACK CFI 74b60 .cfa: sp 48 +
STACK CFI 74b6c .cfa: sp 0 +
STACK CFI 74b70 .cfa: x29 48 +
STACK CFI 74b80 .cfa: sp 48 +
STACK CFI 74b8c .cfa: sp 0 +
STACK CFI INIT 74b90 34 .cfa: sp 0 +
STACK CFI 74b94 .cfa: sp 32 +
STACK CFI 74b9c .cfa: x29 32 + x19: .cfa -16 + ^ .ra: .cfa -24 + ^ x29: .cfa -32 + ^
STACK CFI 74bb8 .cfa: sp 32 +
STACK CFI 74bc0 .cfa: sp 0 +
STACK CFI INIT 74e20 4 .cfa: sp 0 +
STACK CFI INIT 74e24 48 .cfa: sp 0 +
STACK CFI 74e28 .cfa: sp 32 +
STACK CFI 74e30 .cfa: x29 32 + x19: .cfa -16 + ^ .ra: .cfa -24 + ^ x29: .cfa -32 + ^
STACK CFI 74e50 .cfa: sp 32 +
STACK CFI 74e58 .cfa: sp 0 +
STACK CFI 74e5c .cfa: x29 32 +
STACK CFI 74e60 .cfa: sp 32 +
STACK CFI 74e68 .cfa: sp 0 +
STACK CFI INIT 74e6c 34 .cfa: sp 0 +
STACK CFI 74e70 .cfa: sp 32 +
STACK CFI 74e78 .cfa: x29 32 + x19: .cfa -16 + ^ .ra: .cfa -24 + ^ x29: .cfa -32 + ^
STACK CFI 74e94 .cfa: sp 32 +
STACK CFI 74e9c .cfa: sp 0 +
STACK CFI INIT 750fc 4 .cfa: sp 0 +
STACK CFI INIT 75100 70 .cfa: sp 0 +
STACK CFI 75104 .cfa: sp 32 +
STACK CFI 7510c .cfa: x29 32 + x19: .cfa -16 + ^ .ra: .cfa -24 + ^ x29: .cfa -32 + ^
STACK CFI 75148 .cfa: sp 32 +
STACK CFI 75150 .cfa: sp 0 +
STACK CFI 75154 .cfa: x29 32 +
STACK CFI 75164 .cfa: sp 32 +
STACK CFI 7516c .cfa: sp 0 +
STACK CFI INIT 75170 34 .cfa: sp 0 +
STACK CFI 75174 .cfa: sp 32 +
STACK CFI 7517c .cfa: x29 32 + x19: .cfa -16 + ^ .ra: .cfa -24 + ^ x29: .cfa -32 + ^
STACK CFI 75198 .cfa: sp 32 +
STACK CFI 751a0 .cfa: sp 0 +
STACK CFI INIT 758c4 4 .cfa: sp 0 +
STACK CFI INIT 758c8 3c .cfa: sp 0 +
STACK CFI 758cc .cfa: sp 32 +
STACK CFI 758d4 .cfa: x29 32 + x19: .cfa -16 + ^ .ra: .cfa -24 + ^ x29: .cfa -32 + ^
STACK CFI 758f8 .cfa: sp 32 +
STACK CFI 75900 .cfa: sp 0 +
STACK CFI INIT 759d4 4 .cfa: sp 0 +
STACK CFI INIT 7613c 34 .cfa: sp 0 +
STACK CFI 76140 .cfa: sp 32 +
STACK CFI 76148 .cfa: x29 32 + x19: .cfa -16 + ^ .ra: .cfa -24 + ^ x29: .cfa -32 + ^
STACK CFI 76164 .cfa: sp 32 +
STACK CFI 7616c .cfa: sp 0 +
STACK CFI INIT 76b2c 38 .cfa: sp 0 +
STACK CFI INIT 76b64 54 .cfa: sp 0 +
STACK CFI 76b68 .cfa: sp 32 +
STACK CFI 76b70 .cfa: x29 32 + x19: .cfa -16 + ^ .ra: .cfa -24 + ^ x29: .cfa -32 + ^
STACK CFI 76bac .cfa: sp 32 +
STACK CFI 76bb4 .cfa: sp 0 +
STACK CFI INIT 76bb8 84 .cfa: sp 0 +
STACK CFI 76bbc .cfa: sp 48 +
STACK CFI 76bc8 .cfa: x29 32 + x19: .cfa -8 + ^ x20: .cfa -16 + ^ .ra: .cfa -24 + ^ x29: .cfa -32 + ^
STACK CFI 76c14 .cfa: sp 48 +
STACK CFI 76c20 .cfa: sp 0 +
STACK CFI 76c24 .cfa: x29 32 +
STACK CFI INIT 76ccc 4 .cfa: sp 0 +
STACK CFI INIT 76cd0 34 .cfa: sp 0 +
STACK CFI 76cd4 .cfa: sp 32 +
STACK CFI 76cdc .cfa: x29 32 + x19: .cfa -16 + ^ .ra: .cfa -24 + ^ x29: .cfa -32 + ^
STACK CFI 76cf8 .cfa: sp 32 +
STACK CFI 76d00 .cfa: sp 0 +
STACK CFI INIT 76d04 14 .cfa: sp 0 +
STACK CFI INIT 76d18 4 .cfa: sp 0 +
STACK CFI INIT 76d1c 4 .cfa: sp 0 +
STACK CFI INIT 76d20 74 .cfa: sp 0 +
STACK CFI 76d24 .cfa: sp 48 +
STACK CFI 76d30 .cfa: x29 48 + x19: .cfa -8 + ^ x20: .cfa -16 + ^ x21: .cfa -32 + ^ .ra: .cfa -40 + ^ x29: .cfa -48 + ^
STACK CFI 76d4c .cfa: sp 48 +
STACK CFI 76d58 .cfa: sp 0 +
STACK CFI 76d5c .cfa: x29 48 +
STACK CFI 76d84 .cfa: sp 48 +
STACK CFI 76d90 .cfa: sp 0 +
STACK CFI INIT 76d94 1c .cfa: sp 0 +
STACK CFI INIT 76db0 c .cfa: sp 0 +
STACK CFI INIT 76dbc 19c .cfa: sp 0 +
STACK CFI 76dc0 .cfa: sp 48 +
STACK CFI 76dcc .cfa: x29 48 + x19: .cfa -8 + ^ x20: .cfa -16 + ^ x21: .cfa -32 + ^ .ra: .cfa -40 + ^ x29: .cfa -48 + ^
STACK CFI 76e7c .cfa: sp 48 +
STACK CFI 76e88 .cfa: sp 0 +
STACK CFI 76e8c .cfa: x29 48 +
STACK CFI 76f2c .cfa: sp 48 +
STACK CFI 76f38 .cfa: sp 0 +
STACK CFI 76f3c .cfa: x29 48 +
STACK CFI 76f48 .cfa: sp 48 +
STACK CFI 76f54 .cfa: sp 0 +
STACK CFI INIT 76f58 1a8 .cfa: sp 0 +
STACK CFI 76f5c .cfa: sp 64 +
STACK CFI 76f6c .cfa: x29 64 + x19: .cfa -8 + ^ x20: .cfa -16 + ^ x21: .cfa -24 + ^ x22: .cfa -32 + ^ x23: .cfa -48 + ^ .ra: .cfa -56 + ^ x29: .cfa -64 + ^
STACK CFI 7701c .cfa: sp 64 +
STACK CFI 7702c .cfa: sp 0 +
STACK CFI 77030 .cfa: x29 64 +
STACK CFI 77034 .cfa: sp 64 +
STACK CFI 77044 .cfa: sp 0 +
STACK CFI 77048 .cfa: x29 64 +
STACK CFI 770ec .cfa: sp 64 +
STACK CFI 770fc .cfa: sp 0 +
STACK CFI INIT 77100 4 .cfa: sp 0 +
STACK CFI INIT 77104 34 .cfa: sp 0 +
STACK CFI 77108 .cfa: sp 32 +
STACK CFI 77110 .cfa: x29 32 + x19: .cfa -16 + ^ .ra: .cfa -24 + ^ x29: .cfa -32 + ^
STACK CFI 7712c .cfa: sp 32 +
STACK CFI 77134 .cfa: sp 0 +
STACK CFI INIT 77138 14 .cfa: sp 0 +
STACK CFI INIT 7714c 4 .cfa: sp 0 +
STACK CFI INIT 77150 4 .cfa: sp 0 +
STACK CFI INIT 77154 74 .cfa: sp 0 +
STACK CFI 77158 .cfa: sp 48 +
STACK CFI 77164 .cfa: x29 48 + x19: .cfa -8 + ^ x20: .cfa -16 + ^ x21: .cfa -32 + ^ .ra: .cfa -40 + ^ x29: .cfa -48 + ^
STACK CFI 77180 .cfa: sp 48 +
STACK CFI 7718c .cfa: sp 0 +
STACK CFI 77190 .cfa: x29 48 +
STACK CFI 771b8 .cfa: sp 48 +
STACK CFI 771c4 .cfa: sp 0 +
STACK CFI INIT 771c8 1c .cfa: sp 0 +
STACK CFI INIT 771e4 c .cfa: sp 0 +
STACK CFI INIT 771f0 4 .cfa: sp 0 +
STACK CFI INIT 771f4 34 .cfa: sp 0 +
STACK CFI 771f8 .cfa: sp 32 +
STACK CFI 77200 .cfa: x29 32 + x19: .cfa -16 + ^ .ra: .cfa -24 + ^ x29: .cfa -32 + ^
STACK CFI 7721c .cfa: sp 32 +
STACK CFI 77224 .cfa: sp 0 +
STACK CFI INIT 77228 14 .cfa: sp 0 +
STACK CFI INIT 7723c 4 .cfa: sp 0 +
STACK CFI INIT 77240 4 .cfa: sp 0 +
STACK CFI INIT 77244 78 .cfa: sp 0 +
STACK CFI 77248 .cfa: sp 32 +
STACK CFI 77250 .cfa: x29 32 + x19: .cfa -8 + ^ x20: .cfa -16 + ^ .ra: .cfa -24 + ^ x29: .cfa -32 + ^
STACK CFI 77268 .cfa: sp 32 +
STACK CFI 77270 .cfa: sp 0 +
STACK CFI 77274 .cfa: x29 32 +
STACK CFI 772b0 .cfa: sp 32 +
STACK CFI 772b8 .cfa: sp 0 +
STACK CFI INIT 772bc 1c .cfa: sp 0 +
STACK CFI INIT 772d8 c .cfa: sp 0 +
STACK CFI INIT 772e4 14c .cfa: sp 0 +
STACK CFI 772e8 .cfa: sp 112 +
STACK CFI 77304 .cfa: x29 96 + x19: .cfa -8 + ^ x20: .cfa -16 + ^ x21: .cfa -24 + ^ x22: .cfa -32 + ^ x23: .cfa -40 + ^ x24: .cfa -48 + ^ x25: .cfa -56 + ^ x26: .cfa -64 + ^ x27: .cfa -72 + ^ x28: .cfa -80 + ^ .ra: .cfa -88 + ^ x29: .cfa -96 + ^
STACK CFI 77328 .cfa: sp 112 +
STACK CFI 77344 .cfa: sp 0 +
STACK CFI 77348 .cfa: x29 96 +
STACK CFI 77410 .cfa: sp 112 +
STACK CFI 7742c .cfa: sp 0 +
STACK CFI INIT 77430 4 .cfa: sp 0 +
STACK CFI INIT 77434 34 .cfa: sp 0 +
STACK CFI 77438 .cfa: sp 32 +
STACK CFI 77440 .cfa: x29 32 + x19: .cfa -16 + ^ .ra: .cfa -24 + ^ x29: .cfa -32 + ^
STACK CFI 7745c .cfa: sp 32 +
STACK CFI 77464 .cfa: sp 0 +
STACK CFI INIT 77468 14 .cfa: sp 0 +
STACK CFI INIT 7747c 4 .cfa: sp 0 +
STACK CFI INIT 77480 4 .cfa: sp 0 +
STACK CFI INIT 77484 78 .cfa: sp 0 +
STACK CFI 77488 .cfa: sp 32 +
STACK CFI 77490 .cfa: x29 32 + x19: .cfa -8 + ^ x20: .cfa -16 + ^ .ra: .cfa -24 + ^ x29: .cfa -32 + ^
STACK CFI 774a8 .cfa: sp 32 +
STACK CFI 774b0 .cfa: sp 0 +
STACK CFI 774b4 .cfa: x29 32 +
STACK CFI 774f0 .cfa: sp 32 +
STACK CFI 774f8 .cfa: sp 0 +
STACK CFI INIT 774fc 1c .cfa: sp 0 +
STACK CFI INIT 77518 c .cfa: sp 0 +
STACK CFI INIT 77524 4 .cfa: sp 0 +
STACK CFI INIT 77528 4 .cfa: sp 0 +
STACK CFI INIT 7752c 34 .cfa: sp 0 +
STACK CFI 77530 .cfa: sp 32 +
STACK CFI 77538 .cfa: x29 32 + x19: .cfa -16 + ^ .ra: .cfa -24 + ^ x29: .cfa -32 + ^
STACK CFI 77554 .cfa: sp 32 +
STACK CFI 7755c .cfa: sp 0 +
STACK CFI INIT 77560 14 .cfa: sp 0 +
STACK CFI INIT 77574 4 .cfa: sp 0 +
STACK CFI INIT 77578 4 .cfa: sp 0 +
STACK CFI INIT 7757c 4c .cfa: sp 0 +
STACK CFI 77580 .cfa: sp 32 +
STACK CFI 77588 .cfa: x29 32 + x19: .cfa -16 + ^ .ra: .cfa -24 + ^ x29: .cfa -32 + ^
STACK CFI 775bc .cfa: sp 32 +
STACK CFI 775c4 .cfa: sp 0 +
STACK CFI INIT 775c8 1c .cfa: sp 0 +
STACK CFI INIT 775e4 c .cfa: sp 0 +
STACK CFI INIT 775f0 4 .cfa: sp 0 +
STACK CFI INIT 775f4 34 .cfa: sp 0 +
STACK CFI 775f8 .cfa: sp 32 +
STACK CFI 77600 .cfa: x29 32 + x19: .cfa -16 + ^ .ra: .cfa -24 + ^ x29: .cfa -32 + ^
STACK CFI 7761c .cfa: sp 32 +
STACK CFI 77624 .cfa: sp 0 +
STACK CFI INIT 77628 14 .cfa: sp 0 +
STACK CFI INIT 7763c 4 .cfa: sp 0 +
STACK CFI INIT 77640 4 .cfa: sp 0 +
STACK CFI INIT 77644 60 .cfa: sp 0 +
STACK CFI 77648 .cfa: sp 32 +
STACK CFI 77650 .cfa: x29 32 + x19: .cfa -8 + ^ x20: .cfa -16 + ^ .ra: .cfa -24 + ^ x29: .cfa -32 + ^
STACK CFI 77698 .cfa: sp 32 +
STACK CFI 776a0 .cfa: sp 0 +
STACK CFI INIT 776a4 1c .cfa: sp 0 +
STACK CFI INIT 776c0 c .cfa: sp 0 +
STACK CFI INIT 776cc 4 .cfa: sp 0 +
STACK CFI INIT 776d0 34 .cfa: sp 0 +
STACK CFI 776d4 .cfa: sp 32 +
STACK CFI 776dc .cfa: x29 32 + x19: .cfa -16 + ^ .ra: .cfa -24 + ^ x29: .cfa -32 + ^
STACK CFI 776f8 .cfa: sp 32 +
STACK CFI 77700 .cfa: sp 0 +
STACK CFI INIT 77704 14 .cfa: sp 0 +
STACK CFI INIT 77718 4 .cfa: sp 0 +
STACK CFI INIT 7771c 4 .cfa: sp 0 +
STACK CFI INIT 77720 60 .cfa: sp 0 +
STACK CFI 77724 .cfa: sp 32 +
STACK CFI 7772c .cfa: x29 32 + x19: .cfa -8 + ^ x20: .cfa -16 + ^ .ra: .cfa -24 + ^ x29: .cfa -32 + ^
STACK CFI 77774 .cfa: sp 32 +
STACK CFI 7777c .cfa: sp 0 +
STACK CFI INIT 77780 1c .cfa: sp 0 +
STACK CFI INIT 7779c c .cfa: sp 0 +
STACK CFI INIT 777a8 4 .cfa: sp 0 +
STACK CFI INIT 777ac 34 .cfa: sp 0 +
STACK CFI 777b0 .cfa: sp 32 +
STACK CFI 777b8 .cfa: x29 32 + x19: .cfa -16 + ^ .ra: .cfa -24 + ^ x29: .cfa -32 + ^
STACK CFI 777d4 .cfa: sp 32 +
STACK CFI 777dc .cfa: sp 0 +
STACK CFI INIT 777e0 14 .cfa: sp 0 +
STACK CFI INIT 777f4 4 .cfa: sp 0 +
STACK CFI INIT 777f8 4 .cfa: sp 0 +
STACK CFI INIT 777fc 78 .cfa: sp 0 +
STACK CFI 77800 .cfa: sp 32 +
STACK CFI 77808 .cfa: x29 32 + x19: .cfa -8 + ^ x20: .cfa -16 + ^ .ra: .cfa -24 + ^ x29: .cfa -32 + ^
STACK CFI 77820 .cfa: sp 32 +
STACK CFI 77828 .cfa: sp 0 +
STACK CFI 7782c .cfa: x29 32 +
STACK CFI 77868 .cfa: sp 32 +
STACK CFI 77870 .cfa: sp 0 +
STACK CFI INIT 77874 1c .cfa: sp 0 +
STACK CFI INIT 77890 c .cfa: sp 0 +
STACK CFI INIT 7789c 4 .cfa: sp 0 +
STACK CFI INIT 778a0 34 .cfa: sp 0 +
STACK CFI 778a4 .cfa: sp 32 +
STACK CFI 778ac .cfa: x29 32 + x19: .cfa -16 + ^ .ra: .cfa -24 + ^ x29: .cfa -32 + ^
STACK CFI 778c8 .cfa: sp 32 +
STACK CFI 778d0 .cfa: sp 0 +
STACK CFI INIT 778d4 14 .cfa: sp 0 +
STACK CFI INIT 778e8 4 .cfa: sp 0 +
STACK CFI INIT 778ec 4 .cfa: sp 0 +
STACK CFI INIT 778f0 78 .cfa: sp 0 +
STACK CFI 778f4 .cfa: sp 32 +
STACK CFI 778fc .cfa: x29 32 + x19: .cfa -8 + ^ x20: .cfa -16 + ^ .ra: .cfa -24 + ^ x29: .cfa -32 + ^
STACK CFI 77914 .cfa: sp 32 +
STACK CFI 7791c .cfa: sp 0 +
STACK CFI 77920 .cfa: x29 32 +
STACK CFI 7795c .cfa: sp 32 +
STACK CFI 77964 .cfa: sp 0 +
STACK CFI INIT 77968 1c .cfa: sp 0 +
STACK CFI INIT 77984 c .cfa: sp 0 +
STACK CFI INIT 77990 4 .cfa: sp 0 +
STACK CFI INIT 77994 34 .cfa: sp 0 +
STACK CFI 77998 .cfa: sp 32 +
STACK CFI 779a0 .cfa: x29 32 + x19: .cfa -16 + ^ .ra: .cfa -24 + ^ x29: .cfa -32 + ^
STACK CFI 779bc .cfa: sp 32 +
STACK CFI 779c4 .cfa: sp 0 +
STACK CFI INIT 779c8 14 .cfa: sp 0 +
STACK CFI INIT 779dc 4 .cfa: sp 0 +
STACK CFI INIT 779e0 4 .cfa: sp 0 +
STACK CFI INIT 779e4 78 .cfa: sp 0 +
STACK CFI 779e8 .cfa: sp 32 +
STACK CFI 779f0 .cfa: x29 32 + x19: .cfa -8 + ^ x20: .cfa -16 + ^ .ra: .cfa -24 + ^ x29: .cfa -32 + ^
STACK CFI 77a08 .cfa: sp 32 +
STACK CFI 77a10 .cfa: sp 0 +
STACK CFI 77a14 .cfa: x29 32 +
STACK CFI 77a50 .cfa: sp 32 +
STACK CFI 77a58 .cfa: sp 0 +
STACK CFI INIT 77a5c 1c .cfa: sp 0 +
STACK CFI INIT 77a78 c .cfa: sp 0 +
STACK CFI INIT 77a84 4 .cfa: sp 0 +
STACK CFI INIT 77a88 34 .cfa: sp 0 +
STACK CFI 77a8c .cfa: sp 32 +
STACK CFI 77a94 .cfa: x29 32 + x19: .cfa -16 + ^ .ra: .cfa -24 + ^ x29: .cfa -32 + ^
STACK CFI 77ab0 .cfa: sp 32 +
STACK CFI 77ab8 .cfa: sp 0 +
STACK CFI INIT 77abc 14 .cfa: sp 0 +
STACK CFI INIT 77ad0 4 .cfa: sp 0 +
STACK CFI INIT 77ad4 4 .cfa: sp 0 +
STACK CFI INIT 77ad8 78 .cfa: sp 0 +
STACK CFI 77adc .cfa: sp 32 +
STACK CFI 77ae4 .cfa: x29 32 + x19: .cfa -8 + ^ x20: .cfa -16 + ^ .ra: .cfa -24 + ^ x29: .cfa -32 + ^
STACK CFI 77afc .cfa: sp 32 +
STACK CFI 77b04 .cfa: sp 0 +
STACK CFI 77b08 .cfa: x29 32 +
STACK CFI 77b44 .cfa: sp 32 +
STACK CFI 77b4c .cfa: sp 0 +
STACK CFI INIT 77b50 1c .cfa: sp 0 +
STACK CFI INIT 77b6c c .cfa: sp 0 +
STACK CFI INIT 77b78 4 .cfa: sp 0 +
STACK CFI INIT 77b7c 34 .cfa: sp 0 +
STACK CFI 77b80 .cfa: sp 32 +
STACK CFI 77b88 .cfa: x29 32 + x19: .cfa -16 + ^ .ra: .cfa -24 + ^ x29: .cfa -32 + ^
STACK CFI 77ba4 .cfa: sp 32 +
STACK CFI 77bac .cfa: sp 0 +
STACK CFI INIT 77bb0 14 .cfa: sp 0 +
STACK CFI INIT 77bc4 4 .cfa: sp 0 +
STACK CFI INIT 77bc8 4 .cfa: sp 0 +
STACK CFI INIT 77bcc 70 .cfa: sp 0 +
STACK CFI 77bd0 .cfa: sp 32 +
STACK CFI 77bd8 .cfa: x29 32 + x19: .cfa -16 + ^ .ra: .cfa -24 + ^ x29: .cfa -32 + ^
STACK CFI 77c30 .cfa: sp 32 +
STACK CFI 77c38 .cfa: sp 0 +
STACK CFI INIT 77c3c 1c .cfa: sp 0 +
STACK CFI INIT 77c58 c .cfa: sp 0 +
STACK CFI INIT 73df0 4 .cfa: sp 0 +
STACK CFI INIT 77c64 4c .cfa: sp 0 +
STACK CFI 77c68 .cfa: sp 32 +
STACK CFI 77c70 .cfa: x29 32 + x19: .cfa -8 + ^ x20: .cfa -16 + ^ .ra: .cfa -24 + ^ x29: .cfa -32 + ^
STACK CFI 77c98 .cfa: sp 32 +
STACK CFI 77ca0 .cfa: sp 0 +
STACK CFI 77ca4 .cfa: sp 32 +
STACK CFI 77cac .cfa: sp 0 +
STACK CFI INIT 77d84 64 .cfa: sp 0 +
STACK CFI 77d88 .cfa: sp 32 +
STACK CFI 77d90 .cfa: x29 32 + x19: .cfa -16 + ^ .ra: .cfa -24 + ^ x29: .cfa -32 + ^
STACK CFI 77db4 .cfa: sp 32 +
STACK CFI 77dbc .cfa: sp 0 +
STACK CFI 77dc0 .cfa: x29 32 +
STACK CFI 77ddc .cfa: sp 32 +
STACK CFI 77de4 .cfa: sp 0 +
STACK CFI INIT 77de8 8 .cfa: sp 0 +
STACK CFI INIT 77df0 8 .cfa: sp 0 +
STACK CFI INIT 78c8c 1c .cfa: sp 0 +
STACK CFI INIT 78ca8 1c .cfa: sp 0 +
STACK CFI INIT 78cc4 134 .cfa: sp 0 +
STACK CFI 78cc8 .cfa: sp 80 +
STACK CFI 78ce0 .cfa: x29 56 + x19: .cfa -8 + ^ x20: .cfa -16 + ^ x21: .cfa -24 + ^ x22: .cfa -32 + ^ x23: .cfa -40 + ^ .ra: .cfa -48 + ^ x29: .cfa -56 + ^ v8: .cfa -64 + ^
STACK CFI 78dd8 .cfa: sp 80 +
STACK CFI 78df0 .cfa: sp 0 +
STACK CFI 78df4 .cfa: x29 56 +
STACK CFI INIT 78df8 24 .cfa: sp 0 +
STACK CFI 78dfc .cfa: sp 32 +
STACK CFI 78e04 .cfa: x29 32 + x19: .cfa -16 + ^ .ra: .cfa -24 + ^ x29: .cfa -32 + ^
STACK CFI 78e10 .cfa: sp 32 +
STACK CFI 78e18 .cfa: sp 0 +
STACK CFI INIT 78e1c 4 .cfa: sp 0 +
STACK CFI INIT 78e20 8 .cfa: sp 0 +
STACK CFI INIT 78e28 8 .cfa: sp 0 +
STACK CFI INIT 78e30 4 .cfa: sp 0 +
STACK CFI INIT 78e34 1c .cfa: sp 0 +
STACK CFI 78e38 .cfa: sp 16 +
STACK CFI 78e3c .cfa: x29 16 + .ra: .cfa -8 + ^ x29: .cfa -16 + ^
STACK CFI 78e48 .cfa: sp 16 +
STACK CFI 78e4c .cfa: sp 0 +
STACK CFI INIT 78e50 50 .cfa: sp 0 +
STACK CFI 78e54 .cfa: sp 32 +
STACK CFI 78e5c .cfa: x29 32 + x19: .cfa -16 + ^ .ra: .cfa -24 + ^ x29: .cfa -32 + ^
STACK CFI 78e84 .cfa: sp 32 +
STACK CFI 78e8c .cfa: sp 0 +
STACK CFI 78e90 .cfa: x29 32 +
STACK CFI 78e94 .cfa: sp 32 +
STACK CFI 78e9c .cfa: sp 0 +
STACK CFI INIT 78ea0 4 .cfa: sp 0 +
STACK CFI INIT 796b8 4 .cfa: sp 0 +
STACK CFI INIT 79da0 14 .cfa: sp 0 +
STACK CFI INIT 7a0d0 1d8 .cfa: sp 0 +
STACK CFI 7a0d4 .cfa: sp 32 +
STACK CFI 7a0dc .cfa: x29 32 + x19: .cfa -8 + ^ x20: .cfa -16 + ^ .ra: .cfa -24 + ^ x29: .cfa -32 + ^
STACK CFI 7a168 .cfa: sp 32 +
STACK CFI 7a170 .cfa: sp 0 +
STACK CFI 7a174 .cfa: x29 32 +
STACK CFI 7a188 .cfa: sp 32 +
STACK CFI 7a190 .cfa: sp 0 +
STACK CFI 7a194 .cfa: x29 32 +
STACK CFI INIT 7a2a8 140 .cfa: sp 0 +
STACK CFI 7a2ac .cfa: sp 64 +
STACK CFI 7a2b8 .cfa: x29 32 + x19: .cfa -16 + ^ .ra: .cfa -24 + ^ x29: .cfa -32 + ^
STACK CFI 7a3a8 .cfa: sp 64 +
STACK CFI 7a3b4 .cfa: sp 0 +
STACK CFI 7a3b8 .cfa: x29 32 +
STACK CFI INIT 7a3e8 134 .cfa: sp 0 +
STACK CFI INIT 7a818 1d8 .cfa: sp 0 +
STACK CFI 7a81c .cfa: sp 32 +
STACK CFI 7a824 .cfa: x29 32 + x19: .cfa -8 + ^ x20: .cfa -16 + ^ .ra: .cfa -24 + ^ x29: .cfa -32 + ^
STACK CFI 7a8b0 .cfa: sp 32 +
STACK CFI 7a8b8 .cfa: sp 0 +
STACK CFI 7a8bc .cfa: x29 32 +
STACK CFI 7a8d0 .cfa: sp 32 +
STACK CFI 7a8d8 .cfa: sp 0 +
STACK CFI 7a8dc .cfa: x29 32 +
STACK CFI INIT 7b0bc 4 .cfa: sp 0 +
STACK CFI INIT 7b0c0 1c .cfa: sp 0 +
STACK CFI 7b0c4 .cfa: sp 16 +
STACK CFI 7b0c8 .cfa: x29 16 + .ra: .cfa -8 + ^ x29: .cfa -16 + ^
STACK CFI 7b0d4 .cfa: sp 16 +
STACK CFI 7b0d8 .cfa: sp 0 +
STACK CFI INIT 7b0dc 4 .cfa: sp 0 +
STACK CFI INIT 7b168 24 .cfa: sp 0 +
STACK CFI 7b16c .cfa: sp 16 +
STACK CFI 7b170 .cfa: x29 16 + .ra: .cfa -8 + ^ x29: .cfa -16 + ^
STACK CFI 7b184 .cfa: sp 16 +
STACK CFI 7b188 .cfa: sp 0 +
STACK CFI INIT 7b400 4 .cfa: sp 0 +
STACK CFI INIT 7b404 34 .cfa: sp 0 +
STACK CFI 7b408 .cfa: sp 32 +
STACK CFI 7b410 .cfa: x29 32 + x19: .cfa -16 + ^ .ra: .cfa -24 + ^ x29: .cfa -32 + ^
STACK CFI 7b42c .cfa: sp 32 +
STACK CFI 7b434 .cfa: sp 0 +
STACK CFI INIT 7b438 14 .cfa: sp 0 +
STACK CFI INIT 7b44c 4 .cfa: sp 0 +
STACK CFI INIT 7b450 4 .cfa: sp 0 +
STACK CFI INIT 7b454 c .cfa: sp 0 +
STACK CFI INIT 7b460 1c .cfa: sp 0 +
STACK CFI INIT 7b47c c .cfa: sp 0 +
STACK CFI INIT 7b488 24 .cfa: sp 0 +
STACK CFI 7b48c .cfa: sp 32 +
STACK CFI 7b494 .cfa: x29 32 + x19: .cfa -16 + ^ .ra: .cfa -24 + ^ x29: .cfa -32 + ^
STACK CFI 7b4a0 .cfa: sp 32 +
STACK CFI 7b4a8 .cfa: sp 0 +
STACK CFI INIT 7b4ac 3c .cfa: sp 0 +
STACK CFI 7b4b0 .cfa: sp 32 +
STACK CFI 7b4b8 .cfa: x29 32 + x19: .cfa -16 + ^ .ra: .cfa -24 + ^ x29: .cfa -32 + ^
STACK CFI 7b4c4 .cfa: sp 32 +
STACK CFI 7b4cc .cfa: sp 0 +
STACK CFI 7b4d0 .cfa: x29 32 +
STACK CFI 7b4dc .cfa: sp 32 +
STACK CFI 7b4e4 .cfa: sp 0 +
STACK CFI INIT 7b4e8 3c .cfa: sp 0 +
STACK CFI 7b4ec .cfa: sp 32 +
STACK CFI 7b4f4 .cfa: x29 32 + x19: .cfa -16 + ^ .ra: .cfa -24 + ^ x29: .cfa -32 + ^
STACK CFI 7b500 .cfa: sp 32 +
STACK CFI 7b508 .cfa: sp 0 +
STACK CFI 7b50c .cfa: x29 32 +
STACK CFI 7b518 .cfa: sp 32 +
STACK CFI 7b520 .cfa: sp 0 +
STACK CFI INIT 7b524 138 .cfa: sp 0 +
STACK CFI INIT 7b65c 88 .cfa: sp 0 +
STACK CFI INIT 7b6e4 f4 .cfa: sp 0 +
STACK CFI INIT 7b7d8 ac .cfa: sp 0 +
STACK CFI INIT 7b884 7c .cfa: sp 0 +
STACK CFI INIT 7b900 14 .cfa: sp 0 +
STACK CFI INIT 7b914 40 .cfa: sp 0 +
STACK CFI INIT 7b954 28 .cfa: sp 0 +
STACK CFI INIT 7b97c 190 .cfa: sp 0 +
STACK CFI INIT 7bb0c 2c0 .cfa: sp 0 +
STACK CFI INIT 7bdcc 8 .cfa: sp 0 +
STACK CFI INIT 7bdd4 8 .cfa: sp 0 +
STACK CFI INIT 7bddc 40 .cfa: sp 0 +
STACK CFI INIT 7be1c 120 .cfa: sp 0 +
STACK CFI INIT 7bf3c 120 .cfa: sp 0 +
STACK CFI INIT 7c05c 14 .cfa: sp 0 +
STACK CFI INIT 7c070 10 .cfa: sp 0 +
STACK CFI INIT 7c080 10 .cfa: sp 0 +
STACK CFI INIT 7c090 d8 .cfa: sp 0 +
STACK CFI INIT 7c168 44 .cfa: sp 0 +
STACK CFI INIT 7c1ac c .cfa: sp 0 +
STACK CFI INIT 7c1b8 c .cfa: sp 0 +
STACK CFI INIT 7c1c4 2c .cfa: sp 0 +
STACK CFI INIT 7c1f0 280 .cfa: sp 0 +
STACK CFI INIT 7c470 c .cfa: sp 0 +
STACK CFI INIT 7c47c 124 .cfa: sp 0 +
STACK CFI INIT 7c5a0 4bc .cfa: sp 0 +
STACK CFI INIT 7ca5c b14 .cfa: sp 0 +
STACK CFI INIT 7d570 fc .cfa: sp 0 +
STACK CFI INIT 7d66c 1fc .cfa: sp 0 +
STACK CFI INIT 7d868 324 .cfa: sp 0 +
STACK CFI INIT 7db8c 1d0 .cfa: sp 0 +
STACK CFI INIT 7dd5c 9c4 .cfa: sp 0 +
STACK CFI INIT 7e720 2e8 .cfa: sp 0 +
STACK CFI INIT 7ea08 1a0 .cfa: sp 0 +
STACK CFI INIT 7eba8 1c8 .cfa: sp 0 +
STACK CFI INIT 7ed70 1cc .cfa: sp 0 +
STACK CFI INIT 7ef3c e8 .cfa: sp 0 +
STACK CFI INIT 7f024 30 .cfa: sp 0 +
STACK CFI INIT 7f180 30 .cfa: sp 0 +
STACK CFI INIT 7f1b0 98 .cfa: sp 0 +
STACK CFI INIT 7f248 438 .cfa: sp 0 +
STACK CFI 7f250 .cfa: sp 48 +
STACK CFI 7f258 x19: .cfa -8 + ^ x20: .cfa -16 + ^ x21: .cfa -24 + ^ x22: .cfa -32 + ^ x23: .cfa -40 + ^ x24: .cfa -48 + ^
STACK CFI 7f270 .cfa: sp 0 +
STACK CFI 7f274 .cfa: sp 48 +
STACK CFI 7f660 .cfa: sp 0 +
STACK CFI 7f664 .cfa: sp 48 +
STACK CFI 7f67c .cfa: sp 0 +
STACK CFI INIT 7f680 98 .cfa: sp 0 +
STACK CFI INIT 7f720 30 .cfa: sp 0 +
STACK CFI INIT 7fa04 10 .cfa: sp 0 +
STACK CFI 7fa08 .cfa: sp 16 +
STACK CFI 7fa0c .cfa: x29 16 + .ra: .cfa -8 + ^ x29: .cfa -16 + ^
STACK CFI INIT 7fb30 ac .cfa: sp 0 +
STACK CFI 7fb34 .cfa: sp 48 +
STACK CFI 7fb40 .cfa: x29 48 + x19: .cfa -8 + ^ x20: .cfa -16 + ^ x21: .cfa -24 + ^ x22: .cfa -32 + ^ .ra: .cfa -40 + ^ x29: .cfa -48 + ^
STACK CFI 7fb54 .cfa: sp 48 +
STACK CFI 7fb58 .cfa: x29 48 +
STACK CFI 7fb70 .cfa: sp 48 +
STACK CFI 7fb7c .cfa: sp 0 +
STACK CFI 7fb80 .cfa: x29 48 +
STACK CFI 7fbc8 .cfa: sp 48 +
STACK CFI 7fbd4 .cfa: sp 0 +
STACK CFI 7fbd8 .cfa: x29 48 +
STACK CFI INIT 7fbdc 50 .cfa: sp 0 +
STACK CFI 7fbe0 .cfa: sp 32 +
STACK CFI 7fbe8 .cfa: x29 32 + x19: .cfa -16 + ^ .ra: .cfa -24 + ^ x29: .cfa -32 + ^
STACK CFI 7fc00 .cfa: sp 32 +
STACK CFI 7fc08 .cfa: sp 0 +
STACK CFI 7fc0c .cfa: x29 32 +
STACK CFI 7fc20 .cfa: sp 32 +
STACK CFI 7fc28 .cfa: sp 0 +
STACK CFI INIT 7fc2c 64 .cfa: sp 0 +
STACK CFI 7fc30 .cfa: sp 32 +
STACK CFI 7fc38 .cfa: x29 32 + x19: .cfa -16 + ^ .ra: .cfa -24 + ^ x29: .cfa -32 + ^
STACK CFI 7fc64 .cfa: sp 32 +
STACK CFI 7fc6c .cfa: sp 0 +
STACK CFI 7fc70 .cfa: x29 32 +
STACK CFI 7fc84 .cfa: sp 32 +
STACK CFI 7fc8c .cfa: sp 0 +
STACK CFI INIT 7ff98 24 .cfa: sp 0 +
STACK CFI 7ff9c .cfa: sp 32 +
STACK CFI 7ffa4 .cfa: x29 32 + x19: .cfa -16 + ^ .ra: .cfa -24 + ^ x29: .cfa -32 + ^
STACK CFI 7ffb0 .cfa: sp 32 +
STACK CFI 7ffb8 .cfa: sp 0 +
STACK CFI INIT 7ffbc 8 .cfa: sp 0 +
STACK CFI INIT 7ffc4 24 .cfa: sp 0 +
STACK CFI 7ffc8 .cfa: sp 32 +
STACK CFI 7ffd0 .cfa: x29 32 + x19: .cfa -16 + ^ .ra: .cfa -24 + ^ x29: .cfa -32 + ^
STACK CFI 7ffdc .cfa: sp 32 +
STACK CFI 7ffe4 .cfa: sp 0 +
STACK CFI INIT 7ffe8 28 .cfa: sp 0 +
STACK CFI 7ffec .cfa: sp 32 +
STACK CFI 7fff4 .cfa: x29 32 + x19: .cfa -16 + ^ .ra: .cfa -24 + ^ x29: .cfa -32 + ^
STACK CFI 80004 .cfa: sp 32 +
STACK CFI 8000c .cfa: sp 0 +
STACK CFI INIT 80010 24 .cfa: sp 0 +
STACK CFI 80014 .cfa: sp 32 +
STACK CFI 8001c .cfa: x29 32 + x19: .cfa -16 + ^ .ra: .cfa -24 + ^ x29: .cfa -32 + ^
STACK CFI 80028 .cfa: sp 32 +
STACK CFI 80030 .cfa: sp 0 +
STACK CFI INIT 80308 8 .cfa: sp 0 +
STACK CFI INIT 80310 24 .cfa: sp 0 +
STACK CFI 80314 .cfa: sp 32 +
STACK CFI 8031c .cfa: x29 32 + x19: .cfa -16 + ^ .ra: .cfa -24 + ^ x29: .cfa -32 + ^
STACK CFI 80328 .cfa: sp 32 +
STACK CFI 80330 .cfa: sp 0 +
STACK CFI INIT 80334 28 .cfa: sp 0 +
STACK CFI 80338 .cfa: sp 32 +
STACK CFI 80340 .cfa: x29 32 + x19: .cfa -16 + ^ .ra: .cfa -24 + ^ x29: .cfa -32 + ^
STACK CFI 80350 .cfa: sp 32 +
STACK CFI 80358 .cfa: sp 0 +
STACK CFI INIT 8035c 8 .cfa: sp 0 +
STACK CFI INIT 80364 24 .cfa: sp 0 +
STACK CFI 80368 .cfa: sp 32 +
STACK CFI 80370 .cfa: x29 32 + x19: .cfa -16 + ^ .ra: .cfa -24 + ^ x29: .cfa -32 + ^
STACK CFI 8037c .cfa: sp 32 +
STACK CFI 80384 .cfa: sp 0 +
STACK CFI INIT 80388 28 .cfa: sp 0 +
STACK CFI 8038c .cfa: sp 32 +
STACK CFI 80394 .cfa: x29 32 + x19: .cfa -16 + ^ .ra: .cfa -24 + ^ x29: .cfa -32 + ^
STACK CFI 803a4 .cfa: sp 32 +
STACK CFI 803ac .cfa: sp 0 +
STACK CFI INIT 80e24 4 .cfa: sp 0 +
STACK CFI INIT 80e28 4 .cfa: sp 0 +
STACK CFI INIT 80e2c 4 .cfa: sp 0 +
STACK CFI INIT 80e30 4 .cfa: sp 0 +
STACK CFI INIT 80e34 8 .cfa: sp 0 +
STACK CFI INIT 80e3c 4 .cfa: sp 0 +
STACK CFI INIT 80e40 14 .cfa: sp 0 +
STACK CFI INIT 80e54 20 .cfa: sp 0 +
STACK CFI INIT 80e74 1c .cfa: sp 0 +
STACK CFI INIT 80e90 18 .cfa: sp 0 +
STACK CFI INIT 80ea8 1f8 .cfa: sp 0 +
STACK CFI 80eac .cfa: sp 112 +
STACK CFI 80ecc .cfa: x29 72 + x19: .cfa -8 + ^ x20: .cfa -16 + ^ x21: .cfa -24 + ^ x22: .cfa -32 + ^ x23: .cfa -40 + ^ x24: .cfa -48 + ^ x25: .cfa -56 + ^ .ra: .cfa -64 + ^ x29: .cfa -72 + ^ v8: .cfa -80 + ^ v9: .cfa -88 + ^ v10: .cfa -96 + ^
STACK CFI 81078 .cfa: sp 112 +
STACK CFI 81098 .cfa: sp 0 +
STACK CFI 8109c .cfa: x29 72 +
STACK CFI INIT 810a0 8 .cfa: sp 0 +
STACK CFI INIT 810a8 8 .cfa: sp 0 +
STACK CFI INIT 81150 8 .cfa: sp 0 +
STACK CFI INIT 81440 18 .cfa: sp 0 +
STACK CFI 81444 .cfa: sp 16 +
STACK CFI 81448 .cfa: x29 16 + .ra: .cfa -8 + ^ x29: .cfa -16 + ^
STACK CFI 81450 .cfa: sp 16 +
STACK CFI 81454 .cfa: sp 0 +
STACK CFI INIT 81458 8 .cfa: sp 0 +
STACK CFI INIT 81460 4 .cfa: sp 0 +
STACK CFI INIT 81464 4 .cfa: sp 0 +
STACK CFI INIT 81468 4 .cfa: sp 0 +
STACK CFI INIT 8146c 4 .cfa: sp 0 +
STACK CFI INIT 81470 4 .cfa: sp 0 +
STACK CFI INIT 81474 4 .cfa: sp 0 +
STACK CFI INIT 81478 8 .cfa: sp 0 +
STACK CFI INIT 81480 4 .cfa: sp 0 +
STACK CFI INIT 81484 8 .cfa: sp 0 +
STACK CFI INIT 81f2c 14 .cfa: sp 0 +
STACK CFI 81f30 .cfa: sp 16 +
STACK CFI 81f34 .cfa: x29 16 + .ra: .cfa -8 + ^ x29: .cfa -16 + ^
STACK CFI INIT 81f90 30 .cfa: sp 0 +
STACK CFI 81f94 .cfa: sp 32 +
STACK CFI 81f9c .cfa: x29 32 + x19: .cfa -16 + ^ .ra: .cfa -24 + ^ x29: .cfa -32 + ^
STACK CFI 81fb4 .cfa: sp 32 +
STACK CFI 81fbc .cfa: sp 0 +
STACK CFI INIT 81fc0 34 .cfa: sp 0 +
STACK CFI 81fc4 .cfa: sp 32 +
STACK CFI 81fcc .cfa: x29 32 + x19: .cfa -16 + ^ .ra: .cfa -24 + ^ x29: .cfa -32 + ^
STACK CFI INIT 82478 c .cfa: sp 0 +
STACK CFI INIT 82484 234 .cfa: sp 0 +
STACK CFI INIT 826b8 a0 .cfa: sp 0 +
STACK CFI 826c4 .cfa: sp 32 +
STACK CFI 8271c .cfa: sp 0 +
STACK CFI 82720 .cfa: sp 32 +
STACK CFI 82728 .cfa: sp 0 +
STACK CFI 8272c .cfa: sp 32 +
STACK CFI 82740 .cfa: sp 0 +
STACK CFI 82744 .cfa: sp 32 +
STACK CFI 82754 .cfa: sp 0 +
STACK CFI INIT 82758 38 .cfa: sp 0 +
STACK CFI 82764 .cfa: sp 32 +
STACK CFI 8278c .cfa: sp 0 +
STACK CFI INIT 827e0 2c .cfa: sp 0 +
STACK CFI 827e4 .cfa: sp 32 +
STACK CFI 827ec .cfa: x29 32 + x19: .cfa -16 + ^ .ra: .cfa -24 + ^ x29: .cfa -32 + ^
STACK CFI 82800 .cfa: sp 32 +
STACK CFI 82808 .cfa: sp 0 +
STACK CFI INIT 8280c 10 .cfa: sp 0 +
STACK CFI 82810 .cfa: sp 16 +
STACK CFI 82814 .cfa: x29 16 + .ra: .cfa -8 + ^ x29: .cfa -16 + ^
STACK CFI INIT 82a18 70 .cfa: sp 0 +
STACK CFI 82a1c .cfa: sp 32 +
STACK CFI 82a24 .cfa: x29 32 + x19: .cfa -16 + ^ .ra: .cfa -24 + ^ x29: .cfa -32 + ^
STACK CFI 82a58 .cfa: sp 32 +
STACK CFI 82a60 .cfa: sp 0 +
STACK CFI 82a64 .cfa: x29 32 +
STACK CFI INIT 836a8 64 .cfa: sp 0 +
STACK CFI 836ac .cfa: sp 32 +
STACK CFI 836b4 .cfa: x29 32 + x19: .cfa -16 + ^ .ra: .cfa -24 + ^ x29: .cfa -32 + ^
STACK CFI 836d0 .cfa: sp 32 +
STACK CFI 836d8 .cfa: sp 0 +
STACK CFI 836dc .cfa: x29 32 +
STACK CFI 83700 .cfa: sp 32 +
STACK CFI 83708 .cfa: sp 0 +
STACK CFI INIT 83da4 224 .cfa: sp 0 +
STACK CFI INIT 83fc8 2e4 .cfa: sp 0 +
STACK CFI INIT 842ac 598 .cfa: sp 0 +
STACK CFI INIT 84844 24 .cfa: sp 0 +
STACK CFI 84848 .cfa: sp 32 +
STACK CFI 84850 .cfa: x29 32 + x19: .cfa -16 + ^ .ra: .cfa -24 + ^ x29: .cfa -32 + ^
STACK CFI 8485c .cfa: sp 32 +
STACK CFI 84864 .cfa: sp 0 +
STACK CFI INIT 84868 138 .cfa: sp 0 +
STACK CFI 8486c .cfa: sp 48 +
STACK CFI 84878 .cfa: x29 48 + x19: .cfa -8 + ^ x20: .cfa -16 + ^ x21: .cfa -32 + ^ .ra: .cfa -40 + ^ x29: .cfa -48 + ^
STACK CFI 84980 .cfa: sp 48 +
STACK CFI 8498c .cfa: sp 0 +
STACK CFI 84990 .cfa: sp 48 +
STACK CFI 8499c .cfa: sp 0 +
STACK CFI INIT 849a0 34 .cfa: sp 0 +
STACK CFI 849a4 .cfa: sp 32 +
STACK CFI 849ac .cfa: x29 32 + x19: .cfa -16 + ^ .ra: .cfa -24 + ^ x29: .cfa -32 + ^
STACK CFI INIT 849d4 78 .cfa: sp 0 +
STACK CFI 849d8 .cfa: sp 32 +
STACK CFI 849e0 .cfa: x29 32 + x19: .cfa -16 + ^ .ra: .cfa -24 + ^ x29: .cfa -32 + ^
STACK CFI 84a1c .cfa: sp 32 +
STACK CFI 84a24 .cfa: sp 0 +
STACK CFI 84a28 .cfa: x29 32 +
STACK CFI INIT 84a4c c .cfa: sp 0 +
STACK CFI 84a50 .cfa: sp 16 +
STACK CFI 84a54 .cfa: x29 16 + .ra: .cfa -8 + ^ x29: .cfa -16 + ^
STACK CFI INIT 84aa0 38 .cfa: sp 0 +
STACK CFI 84aa4 .cfa: sp 32 +
STACK CFI 84aac .cfa: x29 32 + x19: .cfa -16 + ^ .ra: .cfa -24 + ^ x29: .cfa -32 + ^
STACK CFI 84acc .cfa: sp 32 +
STACK CFI 84ad4 .cfa: sp 0 +
STACK CFI INIT 84ad8 1f0 .cfa: sp 0 +
STACK CFI 84adc .cfa: sp 80 +
STACK CFI 84aec .cfa: x29 48 + x19: .cfa -8 + ^ x20: .cfa -16 + ^ x21: .cfa -24 + ^ x22: .cfa -32 + ^ .ra: .cfa -40 + ^ x29: .cfa -48 + ^
STACK CFI 84c98 .cfa: sp 80 +
STACK CFI 84ca8 .cfa: sp 0 +
STACK CFI 84cac .cfa: x29 48 +
STACK CFI INIT 84cc8 16c .cfa: sp 0 +
STACK CFI 84ccc .cfa: sp 48 +
STACK CFI 84cd8 .cfa: x29 48 + x19: .cfa -8 + ^ x20: .cfa -16 + ^ x21: .cfa -24 + ^ x22: .cfa -32 + ^ .ra: .cfa -40 + ^ x29: .cfa -48 + ^
STACK CFI 84e24 .cfa: sp 48 +
STACK CFI 84e30 .cfa: sp 0 +
STACK CFI INIT 84e34 190 .cfa: sp 0 +
STACK CFI 84e38 .cfa: sp 64 +
STACK CFI 84e44 .cfa: x29 32 + x19: .cfa -8 + ^ x20: .cfa -16 + ^ .ra: .cfa -24 + ^ x29: .cfa -32 + ^
STACK CFI 84f98 .cfa: sp 64 +
STACK CFI 84fa4 .cfa: sp 0 +
STACK CFI 84fa8 .cfa: x29 32 +
STACK CFI INIT 84fc4 214 .cfa: sp 0 +
STACK CFI 84fc8 .cfa: sp 80 +
STACK CFI 84fd8 .cfa: x29 48 + x19: .cfa -8 + ^ x20: .cfa -16 + ^ x21: .cfa -24 + ^ x22: .cfa -32 + ^ .ra: .cfa -40 + ^ x29: .cfa -48 + ^
STACK CFI 851a8 .cfa: sp 80 +
STACK CFI 851b8 .cfa: sp 0 +
STACK CFI 851bc .cfa: x29 48 +
STACK CFI INIT 851d8 1b8 .cfa: sp 0 +
STACK CFI 851dc .cfa: sp 64 +
STACK CFI 851e8 .cfa: x29 32 + x19: .cfa -8 + ^ x20: .cfa -16 + ^ .ra: .cfa -24 + ^ x29: .cfa -32 + ^
STACK CFI 85364 .cfa: sp 64 +
STACK CFI 85370 .cfa: sp 0 +
STACK CFI 85374 .cfa: x29 32 +
STACK CFI INIT 85390 2e8 .cfa: sp 0 +
STACK CFI 85394 .cfa: sp 160 +
STACK CFI 853b0 .cfa: x29 96 + x19: .cfa -8 + ^ x20: .cfa -16 + ^ x21: .cfa -24 + ^ x22: .cfa -32 + ^ x23: .cfa -40 + ^ x24: .cfa -48 + ^ x25: .cfa -56 + ^ x26: .cfa -64 + ^ x27: .cfa -72 + ^ x28: .cfa -80 + ^ .ra: .cfa -88 + ^ x29: .cfa -96 + ^
STACK CFI 85624 .cfa: sp 160 +
STACK CFI 85640 .cfa: sp 0 +
STACK CFI 85644 .cfa: x29 96 +
STACK CFI INIT 85678 280 .cfa: sp 0 +
STACK CFI 8567c .cfa: sp 144 +
STACK CFI 85698 .cfa: x29 96 + x19: .cfa -8 + ^ x20: .cfa -16 + ^ x21: .cfa -24 + ^ x22: .cfa -32 + ^ x23: .cfa -40 + ^ x24: .cfa -48 + ^ x25: .cfa -56 + ^ x26: .cfa -64 + ^ x27: .cfa -72 + ^ x28: .cfa -80 + ^ .ra: .cfa -88 + ^ x29: .cfa -96 + ^
STACK CFI 858a4 .cfa: sp 144 +
STACK CFI 858c0 .cfa: sp 0 +
STACK CFI 858c4 .cfa: x29 96 +
STACK CFI INIT 858f8 28c .cfa: sp 0 +
STACK CFI 858fc .cfa: sp 128 +
STACK CFI 85914 .cfa: x29 80 + x19: .cfa -8 + ^ x20: .cfa -16 + ^ x21: .cfa -24 + ^ x22: .cfa -32 + ^ x23: .cfa -40 + ^ x24: .cfa -48 + ^ x25: .cfa -56 + ^ x26: .cfa -64 + ^ .ra: .cfa -72 + ^ x29: .cfa -80 + ^
STACK CFI 85b64 .cfa: sp 128 +
STACK CFI 85b7c .cfa: sp 0 +
STACK CFI 85b80 .cfa: x29 80 +
STACK CFI INIT 85b84 cc8 .cfa: sp 0 +
STACK CFI 85b88 .cfa: sp 144 +
STACK CFI 85ba4 .cfa: x29 96 + x19: .cfa -8 + ^ x20: .cfa -16 + ^ x21: .cfa -24 + ^ x22: .cfa -32 + ^ x23: .cfa -40 + ^ x24: .cfa -48 + ^ x25: .cfa -56 + ^ x26: .cfa -64 + ^ x27: .cfa -72 + ^ x28: .cfa -80 + ^ .ra: .cfa -88 + ^ x29: .cfa -96 + ^
STACK CFI 8680c .cfa: sp 144 +
STACK CFI 86828 .cfa: sp 0 +
STACK CFI 8682c .cfa: x29 96 +
STACK CFI INIT 8684c 1f0 .cfa: sp 0 +
STACK CFI 86850 .cfa: sp 80 +
STACK CFI 86864 .cfa: x29 80 + x19: .cfa -8 + ^ x20: .cfa -16 + ^ x21: .cfa -24 + ^ x22: .cfa -32 + ^ x23: .cfa -40 + ^ x24: .cfa -48 + ^ x25: .cfa -64 + ^ .ra: .cfa -72 + ^ x29: .cfa -80 + ^
STACK CFI 86a24 .cfa: sp 80 +
STACK CFI 86a38 .cfa: sp 0 +
STACK CFI INIT 86a3c 428 .cfa: sp 0 +
STACK CFI 86a40 .cfa: sp 80 +
STACK CFI 86a54 .cfa: x29 64 + x19: .cfa -8 + ^ x20: .cfa -16 + ^ x21: .cfa -24 + ^ x22: .cfa -32 + ^ x23: .cfa -40 + ^ x24: .cfa -48 + ^ .ra: .cfa -56 + ^ x29: .cfa -64 + ^
STACK CFI 86bcc .cfa: sp 80 +
STACK CFI 86be0 .cfa: sp 0 +
STACK CFI 86be4 .cfa: x29 64 +
STACK CFI INIT 86e64 180 .cfa: sp 0 +
STACK CFI 86e68 .cfa: sp 80 +
STACK CFI 86e7c .cfa: x29 64 + x19: .cfa -8 + ^ x20: .cfa -16 + ^ x21: .cfa -24 + ^ x22: .cfa -32 + ^ x23: .cfa -40 + ^ x24: .cfa -48 + ^ .ra: .cfa -56 + ^ x29: .cfa -64 + ^
STACK CFI 86fc8 .cfa: sp 80 +
STACK CFI 86fdc .cfa: sp 0 +
STACK CFI 86fe0 .cfa: x29 64 +
STACK CFI INIT 86fe4 22c .cfa: sp 0 +
STACK CFI 86fe8 .cfa: sp 96 +
STACK CFI 87000 .cfa: x29 96 + x19: .cfa -8 + ^ x20: .cfa -16 + ^ x21: .cfa -24 + ^ x22: .cfa -32 + ^ x23: .cfa -40 + ^ x24: .cfa -48 + ^ x25: .cfa -56 + ^ x26: .cfa -64 + ^ x27: .cfa -72 + ^ x28: .cfa -80 + ^ .ra: .cfa -88 + ^ x29: .cfa -96 + ^
STACK CFI 871f4 .cfa: sp 96 +
STACK CFI 8720c .cfa: sp 0 +
STACK CFI INIT 87ddc 154 .cfa: sp 0 +
STACK CFI 87de0 .cfa: sp 80 +
STACK CFI 87df0 .cfa: x29 48 + x19: .cfa -8 + ^ x20: .cfa -16 + ^ x21: .cfa -24 + ^ x22: .cfa -32 + ^ .ra: .cfa -40 + ^ x29: .cfa -48 + ^
STACK CFI 87ed4 .cfa: sp 80 +
STACK CFI 87ee4 .cfa: sp 0 +
STACK CFI 87ee8 .cfa: x29 48 +
STACK CFI INIT 88178 44 .cfa: sp 0 +
STACK CFI 8817c .cfa: sp 32 +
STACK CFI 88184 .cfa: x29 32 + x19: .cfa -16 + ^ .ra: .cfa -24 + ^ x29: .cfa -32 + ^
STACK CFI 881a0 .cfa: sp 32 +
STACK CFI 881a8 .cfa: sp 0 +
STACK CFI 881ac .cfa: x29 32 +
STACK CFI 881b0 .cfa: sp 32 +
STACK CFI 881b8 .cfa: sp 0 +
STACK CFI INIT 881bc 1b8 .cfa: sp 0 +
STACK CFI 881c0 .cfa: sp 64 +
STACK CFI 881d0 .cfa: x29 64 + x19: .cfa -8 + ^ x20: .cfa -16 + ^ x21: .cfa -24 + ^ x22: .cfa -32 + ^ x23: .cfa -40 + ^ x24: .cfa -48 + ^ .ra: .cfa -56 + ^ x29: .cfa -64 + ^
STACK CFI 88360 .cfa: sp 64 +
STACK CFI 88370 .cfa: sp 0 +
STACK CFI INIT 88374 180 .cfa: sp 0 +
STACK CFI INIT 888d0 110 .cfa: sp 0 +
STACK CFI 888d4 .cfa: sp 48 +
STACK CFI 888e0 .cfa: x29 48 + x19: .cfa -8 + ^ x20: .cfa -16 + ^ x21: .cfa -32 + ^ .ra: .cfa -40 + ^ x29: .cfa -48 + ^
STACK CFI 889bc .cfa: sp 48 +
STACK CFI 889c8 .cfa: sp 0 +
STACK CFI 889cc .cfa: sp 48 +
STACK CFI 889d8 .cfa: sp 0 +
STACK CFI 889dc .cfa: x29 48 +
STACK CFI INIT 895e8 158 .cfa: sp 0 +
STACK CFI 895ec .cfa: sp 80 +
STACK CFI 895fc .cfa: x29 48 + x19: .cfa -8 + ^ x20: .cfa -16 + ^ x21: .cfa -24 + ^ x22: .cfa -32 + ^ .ra: .cfa -40 + ^ x29: .cfa -48 + ^
STACK CFI 896e4 .cfa: sp 80 +
STACK CFI 896f4 .cfa: sp 0 +
STACK CFI 896f8 .cfa: x29 48 +
STACK CFI INIT 89740 1a4 .cfa: sp 0 +
STACK CFI INIT 8a42c 1d0 .cfa: sp 0 +
STACK CFI 8a430 .cfa: sp 80 +
STACK CFI 8a444 .cfa: x29 80 + x19: .cfa -8 + ^ x20: .cfa -16 + ^ x21: .cfa -24 + ^ x22: .cfa -32 + ^ x23: .cfa -40 + ^ x24: .cfa -48 + ^ x25: .cfa -64 + ^ .ra: .cfa -72 + ^ x29: .cfa -80 + ^
STACK CFI 8a5e4 .cfa: sp 80 +
STACK CFI 8a5f8 .cfa: sp 0 +
STACK CFI INIT 8b994 12c .cfa: sp 0 +
STACK CFI 8b998 .cfa: sp 32 +
STACK CFI 8b9a0 .cfa: x29 32 + x19: .cfa -8 + ^ x20: .cfa -16 + ^ .ra: .cfa -24 + ^ x29: .cfa -32 + ^
STACK CFI 8bab4 .cfa: sp 32 +
STACK CFI 8babc .cfa: sp 0 +
STACK CFI INIT 8c1f0 364 .cfa: sp 0 +
STACK CFI 8c1f4 .cfa: sp 80 +
STACK CFI 8c208 .cfa: x29 80 + x19: .cfa -8 + ^ x20: .cfa -16 + ^ x21: .cfa -24 + ^ x22: .cfa -32 + ^ x23: .cfa -40 + ^ x24: .cfa -48 + ^ x25: .cfa -64 + ^ .ra: .cfa -72 + ^ x29: .cfa -80 + ^
STACK CFI 8c398 .cfa: sp 80 +
STACK CFI 8c3ac .cfa: sp 0 +
STACK CFI 8c3b0 .cfa: x29 80 +
STACK CFI INIT 8c554 110 .cfa: sp 0 +
STACK CFI 8c558 .cfa: sp 48 +
STACK CFI 8c564 .cfa: x29 48 + x19: .cfa -8 + ^ x20: .cfa -16 + ^ x21: .cfa -32 + ^ .ra: .cfa -40 + ^ x29: .cfa -48 + ^
STACK CFI 8c640 .cfa: sp 48 +
STACK CFI 8c64c .cfa: sp 0 +
STACK CFI 8c650 .cfa: sp 48 +
STACK CFI 8c65c .cfa: sp 0 +
STACK CFI 8c660 .cfa: x29 48 +
STACK CFI INIT 8d4f4 174 .cfa: sp 0 +
STACK CFI 8d4f8 .cfa: sp 64 +
STACK CFI 8d508 .cfa: x29 64 + x19: .cfa -8 + ^ x20: .cfa -16 + ^ x21: .cfa -24 + ^ x22: .cfa -32 + ^ x23: .cfa -40 + ^ x24: .cfa -48 + ^ .ra: .cfa -56 + ^ x29: .cfa -64 + ^
STACK CFI 8d610 .cfa: sp 64 +
STACK CFI 8d620 .cfa: sp 0 +
STACK CFI 8d624 .cfa: x29 64 +
STACK CFI INIT 8d668 16c .cfa: sp 0 +
STACK CFI 8d66c .cfa: sp 48 +
STACK CFI 8d678 .cfa: x29 48 + x19: .cfa -8 + ^ x20: .cfa -16 + ^ x21: .cfa -24 + ^ x22: .cfa -32 + ^ .ra: .cfa -40 + ^ x29: .cfa -48 + ^
STACK CFI 8d7c4 .cfa: sp 48 +
STACK CFI 8d7d0 .cfa: sp 0 +
STACK CFI INIT 8d7d4 1cc .cfa: sp 0 +
STACK CFI 8d7d8 .cfa: sp 96 +
STACK CFI 8d7ec .cfa: x29 64 + x19: .cfa -8 + ^ x20: .cfa -16 + ^ x21: .cfa -24 + ^ x22: .cfa -32 + ^ x23: .cfa -40 + ^ x24: .cfa -48 + ^ .ra: .cfa -56 + ^ x29: .cfa -64 + ^
STACK CFI 8d930 .cfa: sp 96 +
STACK CFI 8d944 .cfa: sp 0 +
STACK CFI 8d948 .cfa: x29 64 +
STACK CFI INIT 8f81c 28c .cfa: sp 0 +
STACK CFI 8f820 .cfa: sp 16 +
STACK CFI 8f824 .cfa: x29 16 + .ra: .cfa -8 + ^ x29: .cfa -16 + ^
STACK CFI 8f924 .cfa: sp 16 +
STACK CFI 8f928 .cfa: sp 0 +
STACK CFI 8f92c .cfa: x29 16 +
STACK CFI INIT 8faa8 15c .cfa: sp 0 +
STACK CFI 8faac .cfa: sp 112 +
STACK CFI 8fac8 .cfa: x29 96 + x19: .cfa -8 + ^ x20: .cfa -16 + ^ x21: .cfa -24 + ^ x22: .cfa -32 + ^ x23: .cfa -40 + ^ x24: .cfa -48 + ^ x25: .cfa -56 + ^ x26: .cfa -64 + ^ x27: .cfa -72 + ^ x28: .cfa -80 + ^ .ra: .cfa -88 + ^ x29: .cfa -96 + ^
STACK CFI 8fbb4 .cfa: sp 112 +
STACK CFI 8fbb8 .cfa: x29 96 +
STACK CFI 8fbc0 .cfa: sp 112 +
STACK CFI 8fbdc .cfa: sp 0 +
STACK CFI 8fbe0 .cfa: x29 96 +
STACK CFI 8fc00 .cfa: sp 112 +
STACK CFI INIT 8fc04 d34 .cfa: sp 0 +
STACK CFI 8fc08 .cfa: sp 192 +
STACK CFI 8fc24 .cfa: x29 96 + x19: .cfa -8 + ^ x20: .cfa -16 + ^ x21: .cfa -24 + ^ x22: .cfa -32 + ^ x23: .cfa -40 + ^ x24: .cfa -48 + ^ x25: .cfa -56 + ^ x26: .cfa -64 + ^ x27: .cfa -72 + ^ x28: .cfa -80 + ^ .ra: .cfa -88 + ^ x29: .cfa -96 + ^
STACK CFI 908f8 .cfa: sp 192 +
STACK CFI 90914 .cfa: sp 0 +
STACK CFI 90918 .cfa: x29 96 +
STACK CFI INIT 90938 f50 .cfa: sp 0 +
STACK CFI 9093c .cfa: sp 288 +
STACK CFI 90958 .cfa: x29 96 + x19: .cfa -8 + ^ x20: .cfa -16 + ^ x21: .cfa -24 + ^ x22: .cfa -32 + ^ x23: .cfa -40 + ^ x24: .cfa -48 + ^ x25: .cfa -56 + ^ x26: .cfa -64 + ^ x27: .cfa -72 + ^ x28: .cfa -80 + ^ .ra: .cfa -88 + ^ x29: .cfa -96 + ^
STACK CFI 91848 .cfa: sp 288 +
STACK CFI 91864 .cfa: sp 0 +
STACK CFI 91868 .cfa: x29 96 +
STACK CFI INIT 91888 550 .cfa: sp 0 +
STACK CFI 9188c .cfa: sp 144 +
STACK CFI 918a8 .cfa: x29 96 + x19: .cfa -8 + ^ x20: .cfa -16 + ^ x21: .cfa -24 + ^ x22: .cfa -32 + ^ x23: .cfa -40 + ^ x24: .cfa -48 + ^ x25: .cfa -56 + ^ x26: .cfa -64 + ^ x27: .cfa -72 + ^ x28: .cfa -80 + ^ .ra: .cfa -88 + ^ x29: .cfa -96 + ^
STACK CFI 91db4 .cfa: sp 144 +
STACK CFI 91dd0 .cfa: sp 0 +
STACK CFI 91dd4 .cfa: x29 96 +
STACK CFI INIT 92744 f14 .cfa: sp 0 +
STACK CFI 92748 .cfa: sp 240 +
STACK CFI 92764 .cfa: x29 96 + x19: .cfa -8 + ^ x20: .cfa -16 + ^ x21: .cfa -24 + ^ x22: .cfa -32 + ^ x23: .cfa -40 + ^ x24: .cfa -48 + ^ x25: .cfa -56 + ^ x26: .cfa -64 + ^ x27: .cfa -72 + ^ x28: .cfa -80 + ^ .ra: .cfa -88 + ^ x29: .cfa -96 + ^
STACK CFI 93620 .cfa: sp 240 +
STACK CFI 9363c .cfa: sp 0 +
STACK CFI 93640 .cfa: x29 96 +
STACK CFI INIT 93658 1b4 .cfa: sp 0 +
STACK CFI INIT 3f580 84 .cfa: sp 0 +
STACK CFI 3f584 .cfa: sp 32 +
STACK CFI 3f58c .cfa: x29 32 + x19: .cfa -8 + ^ x20: .cfa -16 + ^ .ra: .cfa -24 + ^ x29: .cfa -32 + ^
STACK CFI 3f5d0 .cfa: sp 32 +
STACK CFI 3f5d8 .cfa: sp 0 +
STACK CFI 3f5dc .cfa: x29 32 +
STACK CFI 3f5e4 .cfa: sp 32 +
STACK CFI 3f5ec .cfa: sp 0 +
STACK CFI 3f5f0 .cfa: x29 32 +
STACK CFI INIT 3f604 9c .cfa: sp 0 +
STACK CFI 3f608 .cfa: sp 32 +
STACK CFI 3f610 .cfa: x29 32 + x19: .cfa -8 + ^ x20: .cfa -16 + ^ .ra: .cfa -24 + ^ x29: .cfa -32 + ^
STACK CFI 3f66c .cfa: sp 32 +
STACK CFI 3f674 .cfa: sp 0 +
STACK CFI 3f678 .cfa: x29 32 +
STACK CFI 3f680 .cfa: sp 32 +
STACK CFI 3f688 .cfa: sp 0 +
STACK CFI 3f68c .cfa: x29 32 +
STACK CFI INIT 3f6a0 104 .cfa: sp 0 +
STACK CFI 3f6a4 .cfa: sp 80 +
STACK CFI 3f6b0 .cfa: x29 32 + x19: .cfa -8 + ^ x20: .cfa -16 + ^ .ra: .cfa -24 + ^ x29: .cfa -32 + ^
STACK CFI 3f744 .cfa: sp 80 +
STACK CFI 3f750 .cfa: sp 0 +
STACK CFI 3f754 .cfa: x29 32 +
STACK CFI INIT 3fc14 a0d8 .cfa: sp 0 +
STACK CFI 3fc18 .cfa: sp 96 +
STACK CFI 3fc30 .cfa: x29 96 + x19: .cfa -8 + ^ x20: .cfa -16 + ^ x21: .cfa -24 + ^ x22: .cfa -32 + ^ x23: .cfa -40 + ^ x24: .cfa -48 + ^ x25: .cfa -56 + ^ x26: .cfa -64 + ^ x27: .cfa -72 + ^ x28: .cfa -80 + ^ .ra: .cfa -88 + ^ x29: .cfa -96 + ^
STACK CFI 48944 .cfa: sp 96 +
STACK CFI 4895c .cfa: sp 0 +
STACK CFI 48960 .cfa: x29 96 +
STACK CFI INIT 49cec 6e8 .cfa: sp 0 +
STACK CFI 49cf0 .cfa: sp 272 +
STACK CFI 49d0c .cfa: x29 96 + x19: .cfa -8 + ^ x20: .cfa -16 + ^ x21: .cfa -24 + ^ x22: .cfa -32 + ^ x23: .cfa -40 + ^ x24: .cfa -48 + ^ x25: .cfa -56 + ^ x26: .cfa -64 + ^ x27: .cfa -72 + ^ x28: .cfa -80 + ^ .ra: .cfa -88 + ^ x29: .cfa -96 + ^
STACK CFI 4a204 .cfa: sp 272 +
STACK CFI 4a220 .cfa: sp 0 +
STACK CFI 4a224 .cfa: x29 96 +
STACK CFI INIT 4a3d4 628 .cfa: sp 0 +
STACK CFI 4a3d8 .cfa: sp 256 +
STACK CFI 4a3f4 .cfa: x29 96 + x19: .cfa -8 + ^ x20: .cfa -16 + ^ x21: .cfa -24 + ^ x22: .cfa -32 + ^ x23: .cfa -40 + ^ x24: .cfa -48 + ^ x25: .cfa -56 + ^ x26: .cfa -64 + ^ x27: .cfa -72 + ^ x28: .cfa -80 + ^ .ra: .cfa -88 + ^ x29: .cfa -96 + ^
STACK CFI 4a858 .cfa: sp 256 +
STACK CFI 4a874 .cfa: sp 0 +
STACK CFI 4a878 .cfa: x29 96 +
STACK CFI INIT 4aa38 6b8 .cfa: sp 0 +
STACK CFI 4aa3c .cfa: sp 256 +
STACK CFI 4aa54 .cfa: x29 80 + x19: .cfa -8 + ^ x20: .cfa -16 + ^ x21: .cfa -24 + ^ x22: .cfa -32 + ^ x23: .cfa -40 + ^ x24: .cfa -48 + ^ x25: .cfa -56 + ^ x26: .cfa -64 + ^ .ra: .cfa -72 + ^ x29: .cfa -80 + ^
STACK CFI 4af1c .cfa: sp 256 +
STACK CFI 4af34 .cfa: sp 0 +
STACK CFI 4af38 .cfa: x29 80 +
STACK CFI INIT 4b154 100 .cfa: sp 0 +
STACK CFI 4b158 .cfa: sp 48 +
STACK CFI 4b164 .cfa: x29 48 + x19: .cfa -8 + ^ x20: .cfa -16 + ^ x21: .cfa -24 + ^ x22: .cfa -32 + ^ .ra: .cfa -40 + ^ x29: .cfa -48 + ^
STACK CFI 4b174 .cfa: sp 48 +
STACK CFI 4b180 .cfa: sp 0 +
STACK CFI 4b184 .cfa: x29 48 +
STACK CFI INIT 4b360 18c .cfa: sp 0 +
STACK CFI 4b364 .cfa: sp 96 +
STACK CFI 4b37c .cfa: x29 80 + x19: .cfa -8 + ^ x20: .cfa -16 + ^ x21: .cfa -24 + ^ x22: .cfa -32 + ^ x23: .cfa -40 + ^ x24: .cfa -48 + ^ x25: .cfa -64 + ^ .ra: .cfa -72 + ^ x29: .cfa -80 + ^
STACK CFI 4b494 .cfa: sp 96 +
STACK CFI 4b4ac .cfa: sp 0 +
STACK CFI 4b4b0 .cfa: x29 80 +
STACK CFI INIT 4b638 50 .cfa: sp 0 +
STACK CFI 4b63c .cfa: sp 32 +
STACK CFI 4b644 .cfa: x29 32 + x19: .cfa -8 + ^ x20: .cfa -16 + ^ .ra: .cfa -24 + ^ x29: .cfa -32 + ^
STACK CFI INIT 4b8ec 2a0 .cfa: sp 0 +
STACK CFI 4b8f0 .cfa: sp 144 +
STACK CFI 4b90c .cfa: x29 96 + x19: .cfa -8 + ^ x20: .cfa -16 + ^ x21: .cfa -24 + ^ x22: .cfa -32 + ^ x23: .cfa -40 + ^ x24: .cfa -48 + ^ x25: .cfa -56 + ^ x26: .cfa -64 + ^ x27: .cfa -80 + ^ .ra: .cfa -88 + ^ x29: .cfa -96 + ^
STACK CFI 4ba8c .cfa: sp 144 +
STACK CFI 4baa8 .cfa: sp 0 +
STACK CFI 4baac .cfa: x29 96 +
STACK CFI 4bb00 .cfa: sp 144 +
STACK CFI 4bb1c .cfa: sp 0 +
STACK CFI 4bb20 .cfa: x29 96 +
STACK CFI INIT 4c144 bc .cfa: sp 0 +
STACK CFI 4c148 .cfa: sp 48 +
STACK CFI 4c154 .cfa: x29 32 + x19: .cfa -8 + ^ x20: .cfa -16 + ^ .ra: .cfa -24 + ^ x29: .cfa -32 + ^
STACK CFI 4c1b8 .cfa: sp 48 +
STACK CFI 4c1c4 .cfa: sp 0 +
STACK CFI 4c1c8 .cfa: x29 32 +
STACK CFI INIT 4c200 120 .cfa: sp 0 +
STACK CFI 4c204 .cfa: sp 48 +
STACK CFI 4c210 .cfa: x29 48 + x19: .cfa -8 + ^ x20: .cfa -16 + ^ x21: .cfa -24 + ^ x22: .cfa -32 + ^ .ra: .cfa -40 + ^ x29: .cfa -48 + ^
STACK CFI 4c25c .cfa: sp 48 +
STACK CFI 4c268 .cfa: sp 0 +
STACK CFI 4c26c .cfa: x29 48 +
STACK CFI 4c270 .cfa: sp 48 +
STACK CFI 4c27c .cfa: sp 0 +
STACK CFI 4c280 .cfa: x29 48 +
STACK CFI INIT 4c3d4 120 .cfa: sp 0 +
STACK CFI 4c3d8 .cfa: sp 48 +
STACK CFI 4c3e4 .cfa: x29 48 + x19: .cfa -8 + ^ x20: .cfa -16 + ^ x21: .cfa -24 + ^ x22: .cfa -32 + ^ .ra: .cfa -40 + ^ x29: .cfa -48 + ^
STACK CFI 4c430 .cfa: sp 48 +
STACK CFI 4c43c .cfa: sp 0 +
STACK CFI 4c440 .cfa: x29 48 +
STACK CFI 4c444 .cfa: sp 48 +
STACK CFI 4c450 .cfa: sp 0 +
STACK CFI 4c454 .cfa: x29 48 +
STACK CFI INIT 4c4f4 124 .cfa: sp 0 +
STACK CFI 4c4f8 .cfa: sp 96 +
STACK CFI 4c508 .cfa: x29 48 + x19: .cfa -8 + ^ x20: .cfa -16 + ^ x21: .cfa -32 + ^ .ra: .cfa -40 + ^ x29: .cfa -48 + ^
STACK CFI 4c594 .cfa: sp 96 +
STACK CFI 4c5a4 .cfa: sp 0 +
STACK CFI 4c5a8 .cfa: x29 48 +
STACK CFI INIT 4c618 25c .cfa: sp 0 +
STACK CFI 4c61c .cfa: sp 160 +
STACK CFI 4c634 .cfa: x29 80 + x19: .cfa -8 + ^ x20: .cfa -16 + ^ x21: .cfa -24 + ^ x22: .cfa -32 + ^ x23: .cfa -40 + ^ x24: .cfa -48 + ^ x25: .cfa -56 + ^ x26: .cfa -64 + ^ .ra: .cfa -72 + ^ x29: .cfa -80 + ^
STACK CFI 4c744 .cfa: sp 160 +
STACK CFI 4c75c .cfa: sp 0 +
STACK CFI 4c760 .cfa: x29 80 +
STACK CFI INIT 4c874 15c .cfa: sp 0 +
STACK CFI 4c878 .cfa: sp 64 +
STACK CFI 4c888 .cfa: x29 64 + x19: .cfa -8 + ^ x20: .cfa -16 + ^ x21: .cfa -24 + ^ x22: .cfa -32 + ^ x23: .cfa -48 + ^ .ra: .cfa -56 + ^ x29: .cfa -64 + ^
STACK CFI 4c940 .cfa: sp 64 +
STACK CFI 4c950 .cfa: sp 0 +
STACK CFI 4c954 .cfa: x29 64 +
STACK CFI INIT 4c9d4 108 .cfa: sp 0 +
STACK CFI 4c9d8 .cfa: sp 64 +
STACK CFI 4c9e8 .cfa: x29 48 + x19: .cfa -8 + ^ x20: .cfa -16 + ^ x21: .cfa -32 + ^ .ra: .cfa -40 + ^ x29: .cfa -48 + ^
STACK CFI 4ca90 .cfa: sp 64 +
STACK CFI 4caa0 .cfa: sp 0 +
STACK CFI 4caa4 .cfa: x29 48 +
STACK CFI INIT 4cc08 c94 .cfa: sp 0 +
STACK CFI 4cc0c .cfa: sp 224 +
STACK CFI 4cc20 .cfa: x29 64 + x19: .cfa -8 + ^ x20: .cfa -16 + ^ x21: .cfa -24 + ^ x22: .cfa -32 + ^ x23: .cfa -40 + ^ x24: .cfa -48 + ^ .ra: .cfa -56 + ^ x29: .cfa -64 + ^
STACK CFI 4d56c .cfa: sp 224 +
STACK CFI 4d580 .cfa: sp 0 +
STACK CFI 4d584 .cfa: x29 64 +
STACK CFI INIT 4d8a0 1e4 .cfa: sp 0 +
STACK CFI 4d8a4 .cfa: sp 176 +
STACK CFI 4d8b8 .cfa: x29 64 + x19: .cfa -8 + ^ x20: .cfa -16 + ^ x21: .cfa -24 + ^ x22: .cfa -32 + ^ x23: .cfa -48 + ^ .ra: .cfa -56 + ^ x29: .cfa -64 + ^
STACK CFI 4d964 .cfa: sp 176 +
STACK CFI 4d978 .cfa: sp 0 +
STACK CFI 4d97c .cfa: x29 64 +
STACK CFI INIT 4da84 e0 .cfa: sp 0 +
STACK CFI 4da88 .cfa: sp 80 +
STACK CFI 4da9c .cfa: x29 64 + x19: .cfa -8 + ^ x20: .cfa -16 + ^ x21: .cfa -24 + ^ x22: .cfa -32 + ^ x23: .cfa -48 + ^ .ra: .cfa -56 + ^ x29: .cfa -64 + ^
STACK CFI 4db14 .cfa: sp 80 +
STACK CFI 4db28 .cfa: sp 0 +
STACK CFI 4db2c .cfa: x29 64 +
STACK CFI INIT 4db64 180 .cfa: sp 0 +
STACK CFI 4db68 .cfa: sp 144 +
STACK CFI 4db80 .cfa: x29 80 + x19: .cfa -8 + ^ x20: .cfa -16 + ^ x21: .cfa -24 + ^ x22: .cfa -32 + ^ x23: .cfa -40 + ^ x24: .cfa -48 + ^ x25: .cfa -64 + ^ .ra: .cfa -72 + ^ x29: .cfa -80 + ^
STACK CFI 4dc7c .cfa: sp 144 +
STACK CFI 4dc94 .cfa: sp 0 +
STACK CFI 4dc98 .cfa: x29 80 +
STACK CFI INIT 4dcec 180 .cfa: sp 0 +
STACK CFI 4dcf0 .cfa: sp 144 +
STACK CFI 4dd08 .cfa: x29 80 + x19: .cfa -8 + ^ x20: .cfa -16 + ^ x21: .cfa -24 + ^ x22: .cfa -32 + ^ x23: .cfa -40 + ^ x24: .cfa -48 + ^ x25: .cfa -64 + ^ .ra: .cfa -72 + ^ x29: .cfa -80 + ^
STACK CFI 4de04 .cfa: sp 144 +
STACK CFI 4de1c .cfa: sp 0 +
STACK CFI 4de20 .cfa: x29 80 +
STACK CFI INIT 4def4 28e4 .cfa: sp 0 +
STACK CFI 4def8 .cfa: sp 96 +
STACK CFI 4df10 .cfa: x29 96 + x19: .cfa -8 + ^ x20: .cfa -16 + ^ x21: .cfa -24 + ^ x22: .cfa -32 + ^ x23: .cfa -40 + ^ x24: .cfa -48 + ^ x25: .cfa -56 + ^ x26: .cfa -64 + ^ x27: .cfa -72 + ^ x28: .cfa -80 + ^ .ra: .cfa -88 + ^ x29: .cfa -96 + ^
STACK CFI 50058 .cfa: sp 96 +
STACK CFI 50070 .cfa: sp 0 +
STACK CFI 50074 .cfa: x29 96 +
STACK CFI INIT 507d8 290 .cfa: sp 0 +
STACK CFI 507dc .cfa: sp 176 +
STACK CFI 507ec .cfa: x29 48 + x19: .cfa -8 + ^ x20: .cfa -16 + ^ x21: .cfa -24 + ^ x22: .cfa -32 + ^ .ra: .cfa -40 + ^ x29: .cfa -48 + ^
STACK CFI 50998 .cfa: sp 176 +
STACK CFI 509a8 .cfa: sp 0 +
STACK CFI 509ac .cfa: x29 48 +
STACK CFI INIT 50a68 290 .cfa: sp 0 +
STACK CFI 50a6c .cfa: sp 176 +
STACK CFI 50a7c .cfa: x29 48 + x19: .cfa -8 + ^ x20: .cfa -16 + ^ x21: .cfa -24 + ^ x22: .cfa -32 + ^ .ra: .cfa -40 + ^ x29: .cfa -48 + ^
STACK CFI 50c28 .cfa: sp 176 +
STACK CFI 50c38 .cfa: sp 0 +
STACK CFI 50c3c .cfa: x29 48 +
STACK CFI INIT 50cf8 124 .cfa: sp 0 +
STACK CFI 50cfc .cfa: sp 96 +
STACK CFI 50d0c .cfa: x29 48 + x19: .cfa -8 + ^ x20: .cfa -16 + ^ x21: .cfa -32 + ^ .ra: .cfa -40 + ^ x29: .cfa -48 + ^
STACK CFI 50d98 .cfa: sp 96 +
STACK CFI 50da8 .cfa: sp 0 +
STACK CFI 50dac .cfa: x29 48 +
STACK CFI INIT 50e1c 180 .cfa: sp 0 +
STACK CFI 50e20 .cfa: sp 128 +
STACK CFI 50e34 .cfa: x29 64 + x19: .cfa -8 + ^ x20: .cfa -16 + ^ x21: .cfa -24 + ^ x22: .cfa -32 + ^ x23: .cfa -48 + ^ .ra: .cfa -56 + ^ x29: .cfa -64 + ^
STACK CFI 50ee8 .cfa: sp 128 +
STACK CFI 50efc .cfa: sp 0 +
STACK CFI 50f00 .cfa: x29 64 +
STACK CFI INIT 510b0 88 .cfa: sp 0 +
STACK CFI 510b4 .cfa: sp 32 +
STACK CFI 510bc .cfa: x29 32 + x19: .cfa -8 + ^ x20: .cfa -16 + ^ .ra: .cfa -24 + ^ x29: .cfa -32 + ^
STACK CFI 51118 .cfa: sp 32 +
STACK CFI 51120 .cfa: sp 0 +
STACK CFI 51124 .cfa: x29 32 +
STACK CFI INIT 51788 88 .cfa: sp 0 +
STACK CFI 5178c .cfa: sp 32 +
STACK CFI 51794 .cfa: x29 32 + x19: .cfa -8 + ^ x20: .cfa -16 + ^ .ra: .cfa -24 + ^ x29: .cfa -32 + ^
STACK CFI 517f0 .cfa: sp 32 +
STACK CFI 517f8 .cfa: sp 0 +
STACK CFI 517fc .cfa: x29 32 +
STACK CFI INIT 55928 158 .cfa: sp 0 +
STACK CFI 5592c .cfa: sp 48 +
STACK CFI 55938 .cfa: x29 48 + x19: .cfa -8 + ^ x20: .cfa -16 + ^ x21: .cfa -24 + ^ x22: .cfa -32 + ^ .ra: .cfa -40 + ^ x29: .cfa -48 + ^
STACK CFI 55984 .cfa: sp 48 +
STACK CFI 55990 .cfa: sp 0 +
STACK CFI 55994 .cfa: x29 48 +
STACK CFI 55998 .cfa: sp 48 +
STACK CFI 559a4 .cfa: sp 0 +
STACK CFI 559a8 .cfa: x29 48 +
STACK CFI INIT 55a80 20 .cfa: sp 0 +
STACK CFI 55a84 .cfa: sp 16 +
STACK CFI 55a88 .cfa: x29 16 + .ra: .cfa -8 + ^ x29: .cfa -16 + ^
STACK CFI 55a94 .cfa: sp 16 +
STACK CFI 55a98 .cfa: sp 0 +
STACK CFI 55a9c .cfa: x29 16 +
STACK CFI INIT 55aa0 c4 .cfa: sp 0 +
STACK CFI 55aa4 .cfa: sp 48 +
STACK CFI 55ab0 .cfa: x29 48 + x19: .cfa -8 + ^ x20: .cfa -16 + ^ x21: .cfa -32 + ^ .ra: .cfa -40 + ^ x29: .cfa -48 + ^
STACK CFI 55b1c .cfa: sp 48 +
STACK CFI 55b28 .cfa: sp 0 +
STACK CFI 55b2c .cfa: x29 48 +
STACK CFI 55b50 .cfa: sp 48 +
STACK CFI 55b5c .cfa: sp 0 +
STACK CFI 55b60 .cfa: x29 48 +
STACK CFI INIT 55b64 84 .cfa: sp 0 +
STACK CFI 55b68 .cfa: sp 48 +
STACK CFI 55b74 .cfa: x29 48 + x19: .cfa -8 + ^ x20: .cfa -16 + ^ x21: .cfa -32 + ^ .ra: .cfa -40 + ^ x29: .cfa -48 + ^
STACK CFI 55b94 .cfa: sp 48 +
STACK CFI 55ba0 .cfa: sp 0 +
STACK CFI 55ba4 .cfa: x29 48 +
STACK CFI 55bc4 .cfa: sp 48 +
STACK CFI 55bd0 .cfa: sp 0 +
STACK CFI 55bd4 .cfa: sp 48 +
STACK CFI 55be0 .cfa: sp 0 +
STACK CFI 55be4 .cfa: x29 48 +
STACK CFI INIT 55be8 94 .cfa: sp 0 +
STACK CFI 55bec .cfa: sp 48 +
STACK CFI 55bf8 .cfa: x29 48 + x19: .cfa -8 + ^ x20: .cfa -16 + ^ x21: .cfa -24 + ^ x22: .cfa -32 + ^ .ra: .cfa -40 + ^ x29: .cfa -48 + ^
STACK CFI 55c00 .cfa: sp 48 +
STACK CFI 55c0c .cfa: sp 0 +
STACK CFI 55c10 .cfa: x29 48 +
STACK CFI 55c34 .cfa: sp 48 +
STACK CFI 55c40 .cfa: sp 0 +
STACK CFI 55c44 .cfa: x29 48 +
STACK CFI 55c68 .cfa: sp 48 +
STACK CFI 55c74 .cfa: sp 0 +
STACK CFI 55c78 .cfa: x29 48 +
STACK CFI INIT 55c7c 48 .cfa: sp 0 +
STACK CFI 55c80 .cfa: sp 32 +
STACK CFI 55c88 .cfa: x29 32 + x19: .cfa -8 + ^ x20: .cfa -16 + ^ .ra: .cfa -24 + ^ x29: .cfa -32 + ^
STACK CFI 55c90 .cfa: sp 32 +
STACK CFI 55c98 .cfa: sp 0 +
STACK CFI 55c9c .cfa: x29 32 +
STACK CFI INIT 55cc4 b8 .cfa: sp 0 +
STACK CFI 55cc8 .cfa: sp 48 +
STACK CFI 55cd4 .cfa: x29 48 + x19: .cfa -8 + ^ x20: .cfa -16 + ^ x21: .cfa -32 + ^ .ra: .cfa -40 + ^ x29: .cfa -48 + ^
STACK CFI 55ce8 .cfa: sp 48 +
STACK CFI 55cf4 .cfa: sp 0 +
STACK CFI 55cf8 .cfa: x29 48 +
STACK CFI 55d10 .cfa: sp 48 +
STACK CFI 55d1c .cfa: sp 0 +
STACK CFI 55d20 .cfa: x29 48 +
STACK CFI 55d58 .cfa: sp 48 +
STACK CFI 55d64 .cfa: sp 0 +
STACK CFI 55d68 .cfa: x29 48 +
STACK CFI INIT 55d7c ec .cfa: sp 0 +
STACK CFI 55d80 .cfa: sp 48 +
STACK CFI 55d8c .cfa: x29 48 + x19: .cfa -8 + ^ x20: .cfa -16 + ^ x21: .cfa -32 + ^ .ra: .cfa -40 + ^ x29: .cfa -48 + ^
STACK CFI 55dd4 .cfa: sp 48 +
STACK CFI 55de0 .cfa: sp 0 +
STACK CFI 55de4 .cfa: x29 48 +
STACK CFI 55dfc .cfa: sp 48 +
STACK CFI 55e08 .cfa: sp 0 +
STACK CFI 55e0c .cfa: x29 48 +
STACK CFI 55e44 .cfa: sp 48 +
STACK CFI 55e50 .cfa: sp 0 +
STACK CFI 55e54 .cfa: x29 48 +
STACK CFI INIT 55e68 194 .cfa: sp 0 +
STACK CFI 55e6c .cfa: sp 128 +
STACK CFI 55e7c .cfa: x29 48 + x19: .cfa -8 + ^ x20: .cfa -16 + ^ x21: .cfa -24 + ^ x22: .cfa -32 + ^ .ra: .cfa -40 + ^ x29: .cfa -48 + ^
STACK CFI 55f74 .cfa: sp 128 +
STACK CFI 55f84 .cfa: sp 0 +
STACK CFI 55f88 .cfa: x29 48 +
STACK CFI INIT 56088 200 .cfa: sp 0 +
STACK CFI 5608c .cfa: sp 80 +
STACK CFI 5609c .cfa: x29 48 + x19: .cfa -8 + ^ x20: .cfa -16 + ^ x21: .cfa -24 + ^ x22: .cfa -32 + ^ .ra: .cfa -40 + ^ x29: .cfa -48 + ^
STACK CFI 561bc .cfa: sp 80 +
STACK CFI 561cc .cfa: sp 0 +
STACK CFI 561d0 .cfa: x29 48 +
STACK CFI INIT 566a8 b8 .cfa: sp 0 +
STACK CFI 566ac .cfa: sp 64 +
STACK CFI 566b8 .cfa: x29 32 + x19: .cfa -8 + ^ x20: .cfa -16 + ^ .ra: .cfa -24 + ^ x29: .cfa -32 + ^
STACK CFI 56720 .cfa: sp 64 +
STACK CFI 5672c .cfa: sp 0 +
STACK CFI 56730 .cfa: x29 32 +
STACK CFI INIT 5698c 90 .cfa: sp 0 +
STACK CFI 56990 .cfa: sp 64 +
STACK CFI 5699c .cfa: x29 32 + x19: .cfa -8 + ^ x20: .cfa -16 + ^ .ra: .cfa -24 + ^ x29: .cfa -32 + ^
STACK CFI 569dc .cfa: sp 64 +
STACK CFI 569e8 .cfa: sp 0 +
STACK CFI 569ec .cfa: x29 32 +
STACK CFI INIT 56a1c 210 .cfa: sp 0 +
STACK CFI 56a20 .cfa: sp 128 +
STACK CFI 56a34 .cfa: x29 64 + x19: .cfa -8 + ^ x20: .cfa -16 + ^ x21: .cfa -24 + ^ x22: .cfa -32 + ^ x23: .cfa -40 + ^ x24: .cfa -48 + ^ .ra: .cfa -56 + ^ x29: .cfa -64 + ^
STACK CFI 56bcc .cfa: sp 128 +
STACK CFI 56be0 .cfa: sp 0 +
STACK CFI 56be4 .cfa: x29 64 +
STACK CFI INIT 56ed0 148 .cfa: sp 0 +
STACK CFI 56ed4 .cfa: sp 144 +
STACK CFI 56ee8 .cfa: x29 64 + x19: .cfa -8 + ^ x20: .cfa -16 + ^ x21: .cfa -24 + ^ x22: .cfa -32 + ^ x23: .cfa -40 + ^ x24: .cfa -48 + ^ .ra: .cfa -56 + ^ x29: .cfa -64 + ^
STACK CFI 56fac .cfa: sp 144 +
STACK CFI 56fc0 .cfa: sp 0 +
STACK CFI 56fc4 .cfa: x29 64 +
STACK CFI INIT 570b8 2c8 .cfa: sp 0 +
STACK CFI 570bc .cfa: sp 96 +
STACK CFI 570d4 .cfa: x29 96 + x19: .cfa -8 + ^ x20: .cfa -16 + ^ x21: .cfa -24 + ^ x22: .cfa -32 + ^ x23: .cfa -40 + ^ x24: .cfa -48 + ^ x25: .cfa -56 + ^ x26: .cfa -64 + ^ x27: .cfa -72 + ^ x28: .cfa -80 + ^ .ra: .cfa -88 + ^ x29: .cfa -96 + ^
STACK CFI 572c4 .cfa: sp 96 +
STACK CFI 572dc .cfa: sp 0 +
STACK CFI 572e0 .cfa: x29 96 +
STACK CFI INIT 57388 2a4 .cfa: sp 0 +
STACK CFI 5738c .cfa: sp 112 +
STACK CFI 573a4 .cfa: x29 80 + x19: .cfa -8 + ^ x20: .cfa -16 + ^ x21: .cfa -24 + ^ x22: .cfa -32 + ^ x23: .cfa -40 + ^ x24: .cfa -48 + ^ x25: .cfa -64 + ^ .ra: .cfa -72 + ^ x29: .cfa -80 + ^
STACK CFI 57564 .cfa: sp 112 +
STACK CFI 5757c .cfa: sp 0 +
STACK CFI 57580 .cfa: x29 80 +
STACK CFI INIT 5762c 1a4 .cfa: sp 0 +
STACK CFI 57630 .cfa: sp 64 +
STACK CFI 57640 .cfa: x29 64 + x19: .cfa -8 + ^ x20: .cfa -16 + ^ x21: .cfa -24 + ^ x22: .cfa -32 + ^ x23: .cfa -48 + ^ .ra: .cfa -56 + ^ x29: .cfa -64 + ^
STACK CFI 57718 .cfa: sp 64 +
STACK CFI 57728 .cfa: sp 0 +
STACK CFI 5772c .cfa: x29 64 +
STACK CFI INIT 577d0 9c .cfa: sp 0 +
STACK CFI 577d4 .cfa: sp 32 +
STACK CFI 577dc .cfa: x29 32 + x19: .cfa -8 + ^ x20: .cfa -16 + ^ .ra: .cfa -24 + ^ x29: .cfa -32 + ^
STACK CFI 577f4 .cfa: sp 32 +
STACK CFI 577fc .cfa: sp 0 +
STACK CFI 57800 .cfa: x29 32 +
STACK CFI 57838 .cfa: sp 32 +
STACK CFI 57840 .cfa: sp 0 +
STACK CFI 57844 .cfa: x29 32 +
STACK CFI INIT 57934 26c .cfa: sp 0 +
STACK CFI 57938 .cfa: sp 112 +
STACK CFI 57950 .cfa: x29 80 + x19: .cfa -8 + ^ x20: .cfa -16 + ^ x21: .cfa -24 + ^ x22: .cfa -32 + ^ x23: .cfa -40 + ^ x24: .cfa -48 + ^ x25: .cfa -64 + ^ .ra: .cfa -72 + ^ x29: .cfa -80 + ^
STACK CFI 57acc .cfa: sp 112 +
STACK CFI 57ae4 .cfa: sp 0 +
STACK CFI 57ae8 .cfa: x29 80 +
STACK CFI INIT 57ba8 418 .cfa: sp 0 +
STACK CFI 57bac .cfa: sp 256 +
STACK CFI 57bc8 .cfa: x29 96 + x19: .cfa -8 + ^ x20: .cfa -16 + ^ x21: .cfa -24 + ^ x22: .cfa -32 + ^ x23: .cfa -40 + ^ x24: .cfa -48 + ^ x25: .cfa -56 + ^ x26: .cfa -64 + ^ x27: .cfa -80 + ^ .ra: .cfa -88 + ^ x29: .cfa -96 + ^
STACK CFI 57e68 .cfa: sp 256 +
STACK CFI 57e84 .cfa: sp 0 +
STACK CFI 57e88 .cfa: x29 96 +
STACK CFI INIT 57fc0 404 .cfa: sp 0 +
STACK CFI 57fc4 .cfa: sp 176 +
STACK CFI 57fe0 .cfa: x29 96 + x19: .cfa -8 + ^ x20: .cfa -16 + ^ x21: .cfa -24 + ^ x22: .cfa -32 + ^ x23: .cfa -40 + ^ x24: .cfa -48 + ^ x25: .cfa -56 + ^ x26: .cfa -64 + ^ x27: .cfa -72 + ^ x28: .cfa -80 + ^ .ra: .cfa -88 + ^ x29: .cfa -96 + ^
STACK CFI 582f4 .cfa: sp 176 +
STACK CFI 58310 .cfa: sp 0 +
STACK CFI 58314 .cfa: x29 96 +
STACK CFI INIT 583c4 118 .cfa: sp 0 +
STACK CFI 583c8 .cfa: sp 80 +
STACK CFI 583dc .cfa: x29 80 + x19: .cfa -8 + ^ x20: .cfa -16 + ^ x21: .cfa -24 + ^ x22: .cfa -32 + ^ x23: .cfa -40 + ^ x24: .cfa -48 + ^ x25: .cfa -56 + ^ x26: .cfa -64 + ^ .ra: .cfa -72 + ^ x29: .cfa -80 + ^
STACK CFI 58458 .cfa: sp 80 +
STACK CFI 5846c .cfa: sp 0 +
STACK CFI 58470 .cfa: x29 80 +
STACK CFI INIT 584dc 2b8 .cfa: sp 0 +
STACK CFI 584e0 .cfa: sp 128 +
STACK CFI 584f8 .cfa: x29 80 + x19: .cfa -8 + ^ x20: .cfa -16 + ^ x21: .cfa -24 + ^ x22: .cfa -32 + ^ x23: .cfa -40 + ^ x24: .cfa -48 + ^ x25: .cfa -56 + ^ x26: .cfa -64 + ^ .ra: .cfa -72 + ^ x29: .cfa -80 + ^
STACK CFI 58740 .cfa: sp 128 +
STACK CFI 58758 .cfa: sp 0 +
STACK CFI 5875c .cfa: x29 80 +
STACK CFI INIT 58794 310 .cfa: sp 0 +
STACK CFI 58798 .cfa: sp 208 +
STACK CFI 587b4 .cfa: x29 96 + x19: .cfa -8 + ^ x20: .cfa -16 + ^ x21: .cfa -24 + ^ x22: .cfa -32 + ^ x23: .cfa -40 + ^ x24: .cfa -48 + ^ x25: .cfa -56 + ^ x26: .cfa -64 + ^ x27: .cfa -80 + ^ .ra: .cfa -88 + ^ x29: .cfa -96 + ^
STACK CFI 58a28 .cfa: sp 208 +
STACK CFI 58a44 .cfa: sp 0 +
STACK CFI 58a48 .cfa: x29 96 +
STACK CFI INIT 58d98 110 .cfa: sp 0 +
STACK CFI 58d9c .cfa: sp 64 +
STACK CFI 58dac .cfa: x29 64 + x19: .cfa -8 + ^ x20: .cfa -16 + ^ x21: .cfa -24 + ^ x22: .cfa -32 + ^ x23: .cfa -48 + ^ .ra: .cfa -56 + ^ x29: .cfa -64 + ^
STACK CFI 58e70 .cfa: sp 64 +
STACK CFI 58e80 .cfa: sp 0 +
STACK CFI 58e84 .cfa: x29 64 +
STACK CFI INIT 58f10 318 .cfa: sp 0 +
STACK CFI 58f14 .cfa: sp 112 +
STACK CFI 58f28 .cfa: x29 64 + x19: .cfa -8 + ^ x20: .cfa -16 + ^ x21: .cfa -24 + ^ x22: .cfa -32 + ^ x23: .cfa -40 + ^ x24: .cfa -48 + ^ .ra: .cfa -56 + ^ x29: .cfa -64 + ^
STACK CFI 59184 .cfa: sp 112 +
STACK CFI 59198 .cfa: sp 0 +
STACK CFI 5919c .cfa: x29 64 +
STACK CFI INIT 59264 670 .cfa: sp 0 +
STACK CFI 59268 .cfa: sp 224 +
STACK CFI 59284 .cfa: x29 96 + x19: .cfa -8 + ^ x20: .cfa -16 + ^ x21: .cfa -24 + ^ x22: .cfa -32 + ^ x23: .cfa -40 + ^ x24: .cfa -48 + ^ x25: .cfa -56 + ^ x26: .cfa -64 + ^ x27: .cfa -72 + ^ x28: .cfa -80 + ^ .ra: .cfa -88 + ^ x29: .cfa -96 + ^
STACK CFI 59860 .cfa: sp 224 +
STACK CFI 5987c .cfa: sp 0 +
STACK CFI 59880 .cfa: x29 96 +
STACK CFI INIT 598d4 140 .cfa: sp 0 +
STACK CFI 598d8 .cfa: sp 96 +
STACK CFI 598e8 .cfa: x29 48 + x19: .cfa -8 + ^ x20: .cfa -16 + ^ x21: .cfa -32 + ^ .ra: .cfa -40 + ^ x29: .cfa -48 + ^
STACK CFI 59974 .cfa: sp 96 +
STACK CFI 59984 .cfa: sp 0 +
STACK CFI 59988 .cfa: x29 48 +
STACK CFI INIT 59a14 204 .cfa: sp 0 +
STACK CFI 59a18 .cfa: sp 112 +
STACK CFI 59a2c .cfa: x29 64 + x19: .cfa -8 + ^ x20: .cfa -16 + ^ x21: .cfa -24 + ^ x22: .cfa -32 + ^ x23: .cfa -40 + ^ x24: .cfa -48 + ^ .ra: .cfa -56 + ^ x29: .cfa -64 + ^
STACK CFI 59b78 .cfa: sp 112 +
STACK CFI 59b8c .cfa: sp 0 +
STACK CFI 59b90 .cfa: x29 64 +
STACK CFI INIT 59c18 13c .cfa: sp 0 +
STACK CFI 59c1c .cfa: sp 80 +
STACK CFI 59c2c .cfa: x29 48 + x19: .cfa -8 + ^ x20: .cfa -16 + ^ x21: .cfa -32 + ^ .ra: .cfa -40 + ^ x29: .cfa -48 + ^
STACK CFI 59cd0 .cfa: sp 80 +
STACK CFI 59ce0 .cfa: sp 0 +
STACK CFI 59ce4 .cfa: x29 48 +
STACK CFI INIT 59d54 300 .cfa: sp 0 +
STACK CFI 59d58 .cfa: sp 176 +
STACK CFI 59d74 .cfa: x29 96 + x19: .cfa -8 + ^ x20: .cfa -16 + ^ x21: .cfa -24 + ^ x22: .cfa -32 + ^ x23: .cfa -40 + ^ x24: .cfa -48 + ^ x25: .cfa -56 + ^ x26: .cfa -64 + ^ x27: .cfa -72 + ^ x28: .cfa -80 + ^ .ra: .cfa -88 + ^ x29: .cfa -96 + ^
STACK CFI 59fd0 .cfa: sp 176 +
STACK CFI 59fec .cfa: sp 0 +
STACK CFI 59ff0 .cfa: x29 96 +
STACK CFI INIT 5a054 128 .cfa: sp 0 +
STACK CFI 5a058 .cfa: sp 96 +
STACK CFI 5a06c .cfa: x29 64 + x19: .cfa -8 + ^ x20: .cfa -16 + ^ x21: .cfa -24 + ^ x22: .cfa -32 + ^ x23: .cfa -48 + ^ .ra: .cfa -56 + ^ x29: .cfa -64 + ^
STACK CFI 5a0d4 .cfa: sp 96 +
STACK CFI 5a0e8 .cfa: sp 0 +
STACK CFI 5a0ec .cfa: x29 64 +
STACK CFI 5a134 .cfa: sp 96 +
STACK CFI 5a148 .cfa: sp 0 +
STACK CFI 5a14c .cfa: x29 64 +
STACK CFI INIT 5a2e0 5ac .cfa: sp 0 +
STACK CFI 5a2e4 .cfa: sp 240 +
STACK CFI 5a2fc .cfa: x29 80 + x19: .cfa -8 + ^ x20: .cfa -16 + ^ x21: .cfa -24 + ^ x22: .cfa -32 + ^ x23: .cfa -40 + ^ x24: .cfa -48 + ^ x25: .cfa -64 + ^ .ra: .cfa -72 + ^ x29: .cfa -80 + ^
STACK CFI 5a750 .cfa: sp 240 +
STACK CFI 5a768 .cfa: sp 0 +
STACK CFI 5a76c .cfa: x29 80 +
STACK CFI INIT 5a88c 168 .cfa: sp 0 +
STACK CFI 5a890 .cfa: sp 80 +
STACK CFI 5a8a4 .cfa: x29 80 + x19: .cfa -8 + ^ x20: .cfa -16 + ^ x21: .cfa -24 + ^ x22: .cfa -32 + ^ x23: .cfa -40 + ^ x24: .cfa -48 + ^ x25: .cfa -56 + ^ x26: .cfa -64 + ^ .ra: .cfa -72 + ^ x29: .cfa -80 + ^
STACK CFI 5a9bc .cfa: sp 80 +
STACK CFI 5a9d0 .cfa: sp 0 +
STACK CFI 5a9d4 .cfa: x29 80 +
STACK CFI INIT 5a9f4 128 .cfa: sp 0 +
STACK CFI 5a9f8 .cfa: sp 96 +
STACK CFI 5aa0c .cfa: x29 64 + x19: .cfa -8 + ^ x20: .cfa -16 + ^ x21: .cfa -24 + ^ x22: .cfa -32 + ^ x23: .cfa -40 + ^ x24: .cfa -48 + ^ .ra: .cfa -56 + ^ x29: .cfa -64 + ^
STACK CFI 5aaa0 .cfa: sp 96 +
STACK CFI 5aab4 .cfa: sp 0 +
STACK CFI 5aab8 .cfa: x29 64 +
STACK CFI INIT 5ac90 10c .cfa: sp 0 +
STACK CFI 5ac94 .cfa: sp 112 +
STACK CFI 5acac .cfa: x29 80 + x19: .cfa -8 + ^ x20: .cfa -16 + ^ x21: .cfa -24 + ^ x22: .cfa -32 + ^ x23: .cfa -40 + ^ x24: .cfa -48 + ^ x25: .cfa -64 + ^ .ra: .cfa -72 + ^ x29: .cfa -80 + ^
STACK CFI 5ad38 .cfa: sp 112 +
STACK CFI 5ad50 .cfa: sp 0 +
STACK CFI 5ad54 .cfa: x29 80 +
STACK CFI INIT 5ad9c c7c .cfa: sp 0 +
STACK CFI 5ada0 .cfa: sp 96 +
STACK CFI 5adb8 .cfa: x29 96 + x19: .cfa -8 + ^ x20: .cfa -16 + ^ x21: .cfa -24 + ^ x22: .cfa -32 + ^ x23: .cfa -40 + ^ x24: .cfa -48 + ^ x25: .cfa -56 + ^ x26: .cfa -64 + ^ x27: .cfa -72 + ^ x28: .cfa -80 + ^ .ra: .cfa -88 + ^ x29: .cfa -96 + ^
STACK CFI 5b86c .cfa: sp 96 +
STACK CFI 5b884 .cfa: sp 0 +
STACK CFI 5b888 .cfa: x29 96 +
STACK CFI INIT 5ba18 314 .cfa: sp 0 +
STACK CFI 5ba1c .cfa: sp 112 +
STACK CFI 5ba30 .cfa: x29 64 + x19: .cfa -8 + ^ x20: .cfa -16 + ^ x21: .cfa -24 + ^ x22: .cfa -32 + ^ x23: .cfa -40 + ^ x24: .cfa -48 + ^ .ra: .cfa -56 + ^ x29: .cfa -64 + ^
STACK CFI 5bcc0 .cfa: sp 112 +
STACK CFI 5bcd4 .cfa: sp 0 +
STACK CFI 5bcd8 .cfa: x29 64 +
STACK CFI INIT 5bd2c 2c4 .cfa: sp 0 +
STACK CFI 5bd30 .cfa: sp 80 +
STACK CFI 5bd44 .cfa: x29 80 + x19: .cfa -8 + ^ x20: .cfa -16 + ^ x21: .cfa -24 + ^ x22: .cfa -32 + ^ x23: .cfa -40 + ^ x24: .cfa -48 + ^ x25: .cfa -56 + ^ x26: .cfa -64 + ^ .ra: .cfa -72 + ^ x29: .cfa -80 + ^
STACK CFI 5bf38 .cfa: sp 80 +
STACK CFI 5bf4c .cfa: sp 0 +
STACK CFI 5bf50 .cfa: x29 80 +
STACK CFI INIT 5c0e8 9c .cfa: sp 0 +
STACK CFI 5c0ec .cfa: sp 48 +
STACK CFI 5c0f8 .cfa: x29 48 + x19: .cfa -8 + ^ x20: .cfa -16 + ^ x21: .cfa -24 + ^ x22: .cfa -32 + ^ .ra: .cfa -40 + ^ x29: .cfa -48 + ^
STACK CFI 5c154 .cfa: sp 48 +
STACK CFI 5c160 .cfa: sp 0 +
STACK CFI 5c164 .cfa: x29 48 +
STACK CFI INIT 5c1ec 3ac .cfa: sp 0 +
STACK CFI 5c1f0 .cfa: sp 144 +
STACK CFI 5c20c .cfa: x29 96 + x19: .cfa -8 + ^ x20: .cfa -16 + ^ x21: .cfa -24 + ^ x22: .cfa -32 + ^ x23: .cfa -40 + ^ x24: .cfa -48 + ^ x25: .cfa -56 + ^ x26: .cfa -64 + ^ x27: .cfa -72 + ^ x28: .cfa -80 + ^ .ra: .cfa -88 + ^ x29: .cfa -96 + ^
STACK CFI 5c4f0 .cfa: sp 144 +
STACK CFI 5c50c .cfa: sp 0 +
STACK CFI 5c510 .cfa: x29 96 +
STACK CFI INIT 5c598 374 .cfa: sp 0 +
STACK CFI 5c59c .cfa: sp 256 +
STACK CFI 5c5b8 .cfa: x29 96 + x19: .cfa -8 + ^ x20: .cfa -16 + ^ x21: .cfa -24 + ^ x22: .cfa -32 + ^ x23: .cfa -40 + ^ x24: .cfa -48 + ^ x25: .cfa -56 + ^ x26: .cfa -64 + ^ x27: .cfa -72 + ^ x28: .cfa -80 + ^ .ra: .cfa -88 + ^ x29: .cfa -96 + ^
STACK CFI 5c85c .cfa: sp 256 +
STACK CFI 5c878 .cfa: sp 0 +
STACK CFI 5c87c .cfa: x29 96 +
STACK CFI INIT 5c90c 20 .cfa: sp 0 +
STACK CFI 5c910 .cfa: sp 16 +
STACK CFI 5c914 .cfa: x29 16 + .ra: .cfa -8 + ^ x29: .cfa -16 + ^
STACK CFI 5c920 .cfa: sp 16 +
STACK CFI 5c924 .cfa: sp 0 +
STACK CFI 5c928 .cfa: x29 16 +
STACK CFI INIT 5c92c 108 .cfa: sp 0 +
STACK CFI 5c930 .cfa: sp 64 +
STACK CFI 5c940 .cfa: x29 64 + x19: .cfa -8 + ^ x20: .cfa -16 + ^ x21: .cfa -24 + ^ x22: .cfa -32 + ^ x23: .cfa -40 + ^ x24: .cfa -48 + ^ .ra: .cfa -56 + ^ x29: .cfa -64 + ^
STACK CFI 5c9b4 .cfa: sp 64 +
STACK CFI 5c9c4 .cfa: sp 0 +
STACK CFI 5c9c8 .cfa: x29 64 +
STACK CFI INIT 5ca34 410 .cfa: sp 0 +
STACK CFI 5ca38 .cfa: sp 128 +
STACK CFI 5ca50 .cfa: x29 80 + x19: .cfa -8 + ^ x20: .cfa -16 + ^ x21: .cfa -24 + ^ x22: .cfa -32 + ^ x23: .cfa -40 + ^ x24: .cfa -48 + ^ x25: .cfa -56 + ^ x26: .cfa -64 + ^ .ra: .cfa -72 + ^ x29: .cfa -80 + ^
STACK CFI 5cdb0 .cfa: sp 128 +
STACK CFI 5cdc8 .cfa: sp 0 +
STACK CFI 5cdcc .cfa: x29 80 +
STACK CFI INIT 5cf28 3d8 .cfa: sp 0 +
STACK CFI 5cf2c .cfa: sp 272 +
STACK CFI 5cf48 .cfa: x29 96 + x19: .cfa -8 + ^ x20: .cfa -16 + ^ x21: .cfa -24 + ^ x22: .cfa -32 + ^ x23: .cfa -40 + ^ x24: .cfa -48 + ^ x25: .cfa -56 + ^ x26: .cfa -64 + ^ x27: .cfa -72 + ^ x28: .cfa -80 + ^ .ra: .cfa -88 + ^ x29: .cfa -96 + ^
STACK CFI 5d270 .cfa: sp 272 +
STACK CFI 5d28c .cfa: sp 0 +
STACK CFI 5d290 .cfa: x29 96 +
STACK CFI INIT 5d300 590 .cfa: sp 0 +
STACK CFI 5d304 .cfa: sp 304 +
