MODULE Linux arm64 C237F5379DBAB2CB62A0A68F41A21DA40 libc.so
INFO CODE_ID 37F537C2BA9DCBB262A0A68F41A21DA4
INFO GENERATOR mozilla/dump_syms 2.2.2
PUBLIC 44000 0 __on_dlclose
PUBLIC m 44010 0 __emutls_unregister_key
PUBLIC 44018 0 __on_dlclose_late
PUBLIC m 44020 0 pthread_atfork
PUBLIC 44030 0 MaybeInitGwpAsanFromLibc(libc_globals*)
PUBLIC 440bc 0 (anonymous namespace)::MaybeInitGwpAsan(libc_globals*, android_mallopt_gwp_asan_options_t const&)
PUBLIC 445e0 0 DispatchIsGwpAsan(MallocDispatch const*)
PUBLIC 445f8 0 EnableGwpAsan(android_mallopt_gwp_asan_options_t const&)
PUBLIC 446c8 0 (anonymous namespace)::NeedsGwpAsanRecovery(void*)
PUBLIC 44700 0 (anonymous namespace)::GwpAsanPreCrashHandler(void*)
PUBLIC 44770 0 (anonymous namespace)::GwpAsanPostCrashHandler(void*)
PUBLIC 447e0 0 (anonymous namespace)::GetGwpAsanOptionImpl(char*, android_mallopt_gwp_asan_options_t const&, char const*, char const*, char const*, char const*)
PUBLIC 44a24 0 (anonymous namespace)::gwp_asan_calloc(unsigned long, unsigned long)
PUBLIC 44b00 0 (anonymous namespace)::gwp_asan_free(void*)
PUBLIC 44b40 0 (anonymous namespace)::gwp_asan_malloc(unsigned long)
PUBLIC 44c08 0 (anonymous namespace)::gwp_asan_malloc_usable_size(void const*)
PUBLIC 44c48 0 (anonymous namespace)::gwp_asan_realloc(void*, unsigned long)
PUBLIC 44d1c 0 (anonymous namespace)::gwp_asan_malloc_iterate(unsigned long, unsigned long, void (*)(unsigned long, unsigned long, void*), void*)
PUBLIC 44d98 0 (anonymous namespace)::gwp_asan_malloc_disable()
PUBLIC 44dc8 0 (anonymous namespace)::gwp_asan_malloc_enable()
PUBLIC 44df8 0 SetDefaultHeapTaggingLevel()
PUBLIC 44f20 0 SetHeapTaggingLevel(HeapTaggingLevel)
PUBLIC 45160 0 memtag_handle_longjmp
PUBLIC 451cc 0 memtag_handle_vfork
PUBLIC 45254 0 set_tcf_on_all_threads(int)::$_0::__invoke(void*)
PUBLIC 452c0 0 __find_icu_symbol(char const*)
PUBLIC 4536c 0 __find_icu()
PUBLIC m 453d4 0 calloc
PUBLIC m 45488 0 free
PUBLIC m 454f8 0 mallinfo
PUBLIC m 45518 0 malloc_info
PUBLIC m 45538 0 mallopt
PUBLIC m 455e4 0 malloc
PUBLIC m 4566c 0 malloc_usable_size
PUBLIC m 456dc 0 memalign
PUBLIC m 45790 0 posix_memalign
PUBLIC m 45800 0 aligned_alloc
PUBLIC m 458b4 0 realloc
PUBLIC m 459a8 0 reallocarray
PUBLIC 45a14 0 CallbackWrapper(unsigned long, unsigned long, void*)
PUBLIC m 45a38 0 malloc_iterate
PUBLIC m 45ac0 0 malloc_disable
PUBLIC m 45ae0 0 malloc_enable
PUBLIC 45b00 0 NativeAllocatorDispatch()
PUBLIC 45b10 0 InitSharedLibrary(void*, char const*, char const*, MallocDispatch*)
PUBLIC 460c8 0 snprintf(char*, unsigned long pass_object_size1, char const*, ...)
PUBLIC 4617c 0 LoadSharedLibrary(char const*, char const*, MallocDispatch*)
PUBLIC 4628c 0 FinishInstallHooks(libc_globals*, char const*, char const*)
PUBLIC 463ac 0 MallocFiniImpl(void*)
PUBLIC 463fc 0 __libc_init_malloc(libc_globals*)
PUBLIC m 465f0 0 malloc_backtrace
PUBLIC m 4660c 0 android_mallopt
PUBLIC 46840 0 __libc_init_profiling_handlers()
PUBLIC 468c4 0 HandleProfilingSignal(int, siginfo*, void*)
PUBLIC 46cc8 0 HandleSigsysSeccompOverride(int, siginfo*, void*)
PUBLIC 46d38 0 HandleHeapprofdSignal()
PUBLIC 46f94 0 HeapprofdShouldLoad()
PUBLIC 47200 0 HeapprofdRememberHookConflict()
PUBLIC 47218 0 HeapprofdInstallHooksAtInit(libc_globals*)
PUBLIC 47360 0 MallocInitHeapprofdHook
PUBLIC 475a4 0 HeapprofdInitZygoteChildProfiling()
PUBLIC 475cc 0 HeapprofdMallopt(int, void*, unsigned long)
PUBLIC 477b8 0 InitHeapprofd(void*)
PUBLIC 47980 0 MallocLimitInstalled()
PUBLIC 479a4 0 LimitEnable(void*, unsigned long)
PUBLIC 47dac 0 LimitCalloc(unsigned long, unsigned long)
PUBLIC 47ea4 0 LimitFree(void*)
PUBLIC 47f24 0 LimitMallinfo()
PUBLIC 47f44 0 LimitMalloc(unsigned long)
PUBLIC 48014 0 LimitUsableSize(void const*)
PUBLIC 48034 0 LimitMemalign(unsigned long, unsigned long)
PUBLIC 48110 0 LimitPosixMemalign(void**, unsigned long, unsigned long)
PUBLIC 481ec 0 LimitRealloc(void*, unsigned long)
PUBLIC 48360 0 LimitIterate(unsigned long, unsigned long, void (*)(unsigned long, unsigned long, void*), void*)
PUBLIC 48380 0 LimitMallocDisable()
PUBLIC 483a0 0 LimitMallocEnable()
PUBLIC 483c0 0 LimitMallopt(int, int)
PUBLIC 483e0 0 LimitAlignedAlloc(unsigned long, unsigned long)
PUBLIC 484bc 0 LimitMallocInfo(int, __sFILE*)
PUBLIC 484dc 0 IncrementLimit(void*)
PUBLIC 4853c 0 netdClientInit
PUBLIC 4858c 0 netdClientInitImpl()
PUBLIC 48730 0 scudo::hasHardwareCRC32()
PUBLIC 48754 0 scudo::dieOnMapUnmapError(unsigned long)
PUBLIC 487bc 0 scudo::getFlags()
PUBLIC 487cc 0 scudo::registerFlags(scudo::FlagParser*, scudo::Flags*)
PUBLIC 4896c 0 scudo::initFlags()
PUBLIC 48a24 0 scudo::reportUnrecognizedFlags()
PUBLIC 48aa0 0 scudo::FlagParser::parseFlag()
PUBLIC 48bfc 0 scudo::FlagParser::runHandler(char const*, char const*)
PUBLIC 48df0 0 scudo::FlagParser::parseString(char const*)
PUBLIC 48eac 0 scudo::FlagParser::registerFlag(char const*, char const*, scudo::FlagType, void*)
PUBLIC 48f14 0 scudo::die()
PUBLIC 48f24 0 scudo::map(void*, unsigned long, char const*, unsigned long, scudo::MapPlatformData*)
PUBLIC 49000 0 scudo::unmap(void*, unsigned long, unsigned long, scudo::MapPlatformData*)
PUBLIC 49028 0 scudo::setMemoryPermission(unsigned long, unsigned long, unsigned long, scudo::MapPlatformData*)
PUBLIC 4905c 0 scudo::releasePagesToOS(unsigned long, unsigned long, unsigned long, scudo::MapPlatformData*)
PUBLIC 490ac 0 scudo::getEnv(char const*)
PUBLIC 490b4 0 scudo::HybridMutex::tryLock()
PUBLIC 490e4 0 scudo::HybridMutex::lockSlow()
PUBLIC 49154 0 scudo::HybridMutex::unlock()
PUBLIC 491bc 0 scudo::getMonotonicTime()
PUBLIC 491fc 0 scudo::getMonotonicTimeFast()
PUBLIC 4923c 0 scudo::getNumberOfCPUs()
PUBLIC 492a8 0 scudo::getThreadID()
PUBLIC 492b0 0 scudo::getRandom(void*, unsigned long, bool)
PUBLIC 49374 0 scudo::GetRSS()
PUBLIC 49460 0 scudo::outputRaw(char const*)
PUBLIC 49578 0 scudo::setAbortMessage(char const*)
PUBLIC 495a4 0 scudo::MemMapDefault::unmapImpl(unsigned long, unsigned long)
PUBLIC 49614 0 scudo::MemMapDefault::remapImpl(unsigned long, unsigned long, char const*, unsigned long)
PUBLIC 49678 0 scudo::MemMapDefault::releaseAndZeroPagesToOSImpl(unsigned long, unsigned long)
PUBLIC 49690 0 scudo::MemMapDefault::setMemoryPermissionImpl(unsigned long, unsigned long, unsigned long)
PUBLIC 496a8 0 scudo::ReservedMemoryDefault::createImpl(unsigned long, unsigned long, char const*, unsigned long)
PUBLIC 496fc 0 scudo::ReservedMemoryDefault::dispatchImpl(unsigned long, unsigned long)
PUBLIC 4970c 0 _GLOBAL__sub_I_release.cpp
PUBLIC 49728 0 scudo::reportSoftRSSLimit(unsigned long)
PUBLIC 49798 0 scudo::ScopedErrorReport::ScopedErrorReport()
PUBLIC m 49808 0 scudo::ScopedErrorReport::append(char const*, ...)
PUBLIC 49884 0 scudo::ScopedErrorReport::~ScopedErrorReport()
PUBLIC 498ac 0 scudo::reportHardRSSLimit(unsigned long)
PUBLIC 4991c 0 scudo::reportCheckFailed(char const*, int, char const*, unsigned long, unsigned long)
PUBLIC 499c8 0 scudo::reportError(char const*)
PUBLIC 49a30 0 scudo::reportInvalidFlag(char const*, char const*)
PUBLIC 49aa4 0 scudo::reportHeaderCorruption(void*)
PUBLIC 49b0c 0 scudo::reportHeaderRace(void*)
PUBLIC 49b74 0 scudo::reportAlignmentTooBig(unsigned long, unsigned long)
PUBLIC 49be8 0 scudo::reportAllocationSizeTooBig(unsigned long, unsigned long, unsigned long)
PUBLIC 49c64 0 scudo::reportOutOfBatchClass()
PUBLIC 49cc4 0 scudo::reportOutOfMemory(unsigned long)
PUBLIC 49d2c 0 scudo::reportInvalidChunkState(scudo::AllocatorAction, void*)
PUBLIC 49da8 0 scudo::stringifyAction(scudo::AllocatorAction)
PUBLIC 49ddc 0 scudo::reportMisalignedPointer(scudo::AllocatorAction, void*)
PUBLIC 49e58 0 scudo::reportDeallocTypeMismatch(scudo::AllocatorAction, void*, unsigned char, unsigned char)
PUBLIC 49ee8 0 scudo::reportDeleteSizeMismatch(void*, unsigned long, unsigned long)
PUBLIC 49f64 0 scudo::reportCallocOverflow(unsigned long, unsigned long)
PUBLIC 49fd8 0 scudo::reportInvalidPosixMemalignAlignment(unsigned long)
PUBLIC 4a044 0 scudo::reportInvalidAlignedAllocAlignment(unsigned long, unsigned long)
PUBLIC 4a0b8 0 scudo::RssLimitChecker::check(unsigned long)
PUBLIC 4a150 0 scudo::formatString(char*, unsigned long, char const*, ...)
PUBLIC 4a1c8 0 scudo::formatString(char*, unsigned long, char const*, std::__va_list)
PUBLIC 4a968 0 scudo::ScopedString::append(char const*, std::__va_list)
PUBLIC 4aadc 0 scudo::Printf(char const*, ...)
PUBLIC 4abe8 0 scudo::appendNumber(char**, char const*, unsigned long, unsigned char, unsigned char, bool, bool, bool)
PUBLIC 4aebc 0 scudo::HybridMutex::lock()
PUBLIC 4af3c 0 scudo_calloc
PUBLIC 4affc 0 scudo::Allocator<scudo::AndroidConfig, &scudo_malloc_postinit>::allocate(unsigned long, scudo::Chunk::Origin, unsigned long, bool)
PUBLIC 4b6dc 0 scudo_free
PUBLIC 4b6fc 0 scudo::Allocator<scudo::AndroidConfig, &scudo_malloc_postinit>::deallocate(void*, scudo::Chunk::Origin, unsigned long, unsigned long)
PUBLIC 4b89c 0 scudo_mallinfo
PUBLIC 4b974 0 scudo_malloc
PUBLIC 4b9dc 0 scudo_malloc_usable_size
PUBLIC 4b9f0 0 scudo::Allocator<scudo::AndroidConfig, &scudo_malloc_postinit>::getUsableSize(void const*)
PUBLIC 4baec 0 scudo_memalign
PUBLIC 4bb54 0 scudo_posix_memalign
PUBLIC 4bc38 0 scudo_realloc
PUBLIC 4bcd8 0 scudo::Allocator<scudo::AndroidConfig, &scudo_malloc_postinit>::reallocate(void*, unsigned long, unsigned long)
PUBLIC 4c004 0 scudo_malloc_iterate
PUBLIC 4c03c 0 scudo::Allocator<scudo::AndroidConfig, &scudo_malloc_postinit>::iterateOverChunks(unsigned long, unsigned long, void (*)(unsigned long, unsigned long, void*), void*)
PUBLIC 4c3ac 0 scudo_malloc_enable
PUBLIC 4c3bc 0 scudo::Allocator<scudo::AndroidConfig, &scudo_malloc_postinit>::enable()
PUBLIC 4c4ac 0 scudo_malloc_disable
PUBLIC 4c4bc 0 scudo::Allocator<scudo::AndroidConfig, &scudo_malloc_postinit>::disable()
PUBLIC 4c5dc 0 scudo_malloc_postinit
PUBLIC 4c5f8 0 scudo_mallopt
PUBLIC 4c840 0 scudo::Allocator<scudo::AndroidConfig, &scudo_malloc_postinit>::setOption(scudo::Option, long)
PUBLIC 4cc24 0 scudo_aligned_alloc
PUBLIC 4cd08 0 scudo_malloc_info
PUBLIC 4ce00 0 scudo_malloc_disable_memory_tagging
PUBLIC 4ce7c 0 scudo_malloc_set_track_allocation_stacks
PUBLIC 4cf08 0 scudo_malloc_set_zero_contents
PUBLIC 4cfb8 0 scudo_malloc_set_add_large_allocation_slack
PUBLIC 4d038 0 __scudo_get_stack_depot_addr
PUBLIC 4d048 0 __scudo_get_region_info_addr
PUBLIC 4d058 0 __scudo_get_ring_buffer_addr
PUBLIC 4d0b0 0 __scudo_get_ring_buffer_size
PUBLIC 4d138 0 scudo_malloc_info::$_0::__invoke(unsigned long, unsigned long, void*)
PUBLIC 4d160 0 scudo::TSDRegistrySharedT<scudo::Allocator<scudo::AndroidConfig, &scudo_malloc_postinit>, (unsigned int)8, (unsigned int)8>::initThread(scudo::Allocator<scudo::AndroidConfig, &scudo_malloc_postinit>*)
PUBLIC 4d204 0 scudo::TSDRegistrySharedT<scudo::Allocator<scudo::AndroidConfig, &scudo_malloc_postinit>, (unsigned int)8, (unsigned int)8>::init(scudo::Allocator<scudo::AndroidConfig, &scudo_malloc_postinit>*)
PUBLIC 4d594 0 scudo::ScopedLock::~ScopedLock()
PUBLIC 4d5a0 0 scudo::Allocator<scudo::AndroidConfig, &scudo_malloc_postinit>::init()
PUBLIC 4d8fc 0 scudo::SizeClassAllocator64<scudo::AndroidConfig>::init(int)
PUBLIC 4db8c 0 scudo::ReservedMemory<scudo::ReservedMemoryDefault, scudo::MemMapDefault>::create(unsigned long, unsigned long, char const*, unsigned long)
PUBLIC 4db94 0 scudo::SizeClassAllocatorLocalCache<scudo::SizeClassAllocator64<scudo::AndroidConfig> >::allocate(unsigned long)
PUBLIC 4dc44 0 scudo::MapAllocator<scudo::AndroidConfig>::allocate(scudo::Options, unsigned long, unsigned long, unsigned long*, scudo::FillContentsMode)
PUBLIC 4e034 0 scudo::Allocator<scudo::AndroidConfig, &scudo_malloc_postinit>::prepareTaggedChunk(void*, unsigned long, unsigned long, unsigned long)
PUBLIC 4e0cc 0 scudo::Allocator<scudo::AndroidConfig, &scudo_malloc_postinit>::storePrimaryAllocationStackMaybe(scudo::Options, void*)
PUBLIC 4e10c 0 scudo::Allocator<scudo::AndroidConfig, &scudo_malloc_postinit>::storeSecondaryAllocationStackMaybe(scudo::Options, void*, unsigned long)
PUBLIC 4e1b0 0 scudo::TSDRegistrySharedT<scudo::Allocator<scudo::AndroidConfig, &scudo_malloc_postinit>, (unsigned int)8, (unsigned int)8>::getTSDAndLockSlow(scudo::TSD<scudo::Allocator<scudo::AndroidConfig, &scudo_malloc_postinit> >*)
PUBLIC 4e3fc 0 scudo::SizeClassAllocatorLocalCache<scudo::SizeClassAllocator64<scudo::AndroidConfig> >::refill(scudo::SizeClassAllocatorLocalCache<scudo::SizeClassAllocator64<scudo::AndroidConfig> >::PerClass*, unsigned long)
PUBLIC 4e520 0 scudo::SizeClassAllocator64<scudo::AndroidConfig>::popBatch(scudo::SizeClassAllocatorLocalCache<scudo::SizeClassAllocator64<scudo::AndroidConfig> >*, unsigned long)
PUBLIC 4e73c 0 scudo::SizeClassAllocatorLocalCache<scudo::SizeClassAllocator64<scudo::AndroidConfig> >::initCache()
PUBLIC 4e798 0 scudo::SizeClassAllocator64<scudo::AndroidConfig>::popBatchImpl(scudo::SizeClassAllocatorLocalCache<scudo::SizeClassAllocator64<scudo::AndroidConfig> >*, unsigned long, scudo::SizeClassAllocator64<scudo::AndroidConfig>::RegionInfo*)
PUBLIC 4e8e0 0 scudo::SizeClassAllocator64<scudo::AndroidConfig>::populateFreeList(scudo::SizeClassAllocatorLocalCache<scudo::SizeClassAllocator64<scudo::AndroidConfig> >*, unsigned long, scudo::SizeClassAllocator64<scudo::AndroidConfig>::RegionInfo*)
PUBLIC 4ed88 0 scudo::ScopedString::ScopedString()
PUBLIC 4ee0c 0 scudo::SizeClassAllocator64<scudo::AndroidConfig>::getStats(scudo::ScopedString*)
PUBLIC 4effc 0 scudo::ScopedString::output() const
PUBLIC 4f008 0 scudo::SizeClassAllocatorLocalCache<scudo::SizeClassAllocator64<scudo::AndroidConfig> >::deallocate(unsigned long, void*)
PUBLIC 4f100 0 scudo::SizeClassAllocatorLocalCache<scudo::SizeClassAllocator64<scudo::AndroidConfig> >::drain(scudo::SizeClassAllocatorLocalCache<scudo::SizeClassAllocator64<scudo::AndroidConfig> >::PerClass*, unsigned long)
PUBLIC 4f1f4 0 scudo::SizeClassAllocator64<scudo::AndroidConfig>::pushBlocks(scudo::SizeClassAllocatorLocalCache<scudo::SizeClassAllocator64<scudo::AndroidConfig> >*, unsigned long, unsigned int*, unsigned int)
PUBLIC 4f450 0 scudo::SizeClassAllocator64<scudo::AndroidConfig>::pushBlocksImpl(scudo::SizeClassAllocatorLocalCache<scudo::SizeClassAllocator64<scudo::AndroidConfig> >*, unsigned long, scudo::SizeClassAllocator64<scudo::AndroidConfig>::RegionInfo*, unsigned int*, unsigned int, bool)
PUBLIC 4f710 0 scudo::SizeClassAllocator64<scudo::AndroidConfig>::releaseToOSMaybe(scudo::SizeClassAllocator64<scudo::AndroidConfig>::RegionInfo*, unsigned long, scudo::ReleaseToOS)
PUBLIC 4fe0c 0 scudo::SizeClassAllocator64<scudo::AndroidConfig>::pushBlocksImpl(scudo::SizeClassAllocatorLocalCache<scudo::SizeClassAllocator64<scudo::AndroidConfig> >*, unsigned long, scudo::SizeClassAllocator64<scudo::AndroidConfig>::RegionInfo*, unsigned int*, unsigned int, bool)::{lambda(unsigned long)#1}::operator()(unsigned long) const
PUBLIC 50040 0 scudo::SizeClassAllocator64<scudo::AndroidConfig>::pushBlocksImpl(scudo::SizeClassAllocatorLocalCache<scudo::SizeClassAllocator64<scudo::AndroidConfig> >*, unsigned long, scudo::SizeClassAllocator64<scudo::AndroidConfig>::RegionInfo*, unsigned int*, unsigned int, bool)::{lambda(scudo::SizeClassAllocatorLocalCache<scudo::SizeClassAllocator64<scudo::AndroidConfig> >*::BatchGroup(scudo::SizeClassAllocatorLocalCache<scudo::SizeClassAllocator64<scudo::AndroidConfig> >*::BatchGroup, unsigned int*, unsigned int), unsigned int*, unsigned int)#1}::operator() const
PUBLIC 501cc 0 scudo::PageReleaseContext::markRangeAsAllCounted(unsigned long, unsigned long, unsigned long, unsigned long, unsigned long)
PUBLIC 50494 0 scudo::PageReleaseContext::markFreeBlocksInRegion<scudo::SizeClassAllocatorLocalCache<scudo::SizeClassAllocator64<scudo::AndroidConfig> >::TransferBatch, scudo::SizeClassAllocator64<scudo::AndroidConfig>(scudo::SizeClassAllocator64<scudo::AndroidConfig>*::RegionInfo, unsigned long, scudo::ReleaseToOS)::releaseToOSMaybe::{lambda(unsigned int)#1}>(scudo::IntrusiveList<scudo::SizeClassAllocatorLocalCache<scudo::SizeClassAllocator64<scudo::AndroidConfig> >::TransferBatch> const&, scudo::SizeClassAllocator64<scudo::AndroidConfig>(scudo::SizeClassAllocator64<scudo::AndroidConfig>*::RegionInfo, unsigned long, scudo::ReleaseToOS)::releaseToOSMaybe::{lambda(unsigned int)#1}, unsigned long, unsigned long, unsigned long, bool)
PUBLIC 50794 0 scudo::releaseFreeMemoryToOS<scudo::RegionReleaseRecorder<scudo::MemMapDefault>, scudo::SizeClassAllocator64<scudo::AndroidConfig>::releaseToOSMaybe(scudo::SizeClassAllocator64<scudo::AndroidConfig>::RegionInfo*, unsigned long, scudo::ReleaseToOS)::{lambda(unsigned long)#1}>(scudo::PageReleaseContext&, scudo::RegionReleaseRecorder<scudo::MemMapDefault>&, scudo::SizeClassAllocator64<scudo::AndroidConfig>::releaseToOSMaybe(scudo::SizeClassAllocator64<scudo::AndroidConfig>::RegionInfo*, unsigned long, scudo::ReleaseToOS)::{lambda(unsigned long)#1})
PUBLIC 50acc 0 scudo::BufferPool<(unsigned long)2, (unsigned long)512>::getBuffer(unsigned long)
PUBLIC 50bbc 0 scudo::shuffle<unsigned int>(unsigned int*, unsigned int, unsigned int*)
PUBLIC 50c10 0 scudo::VectorNoCtor<char>::push_back(char const&)
PUBLIC 50c80 0 scudo::VectorNoCtor<char>::reallocate(unsigned long)
PUBLIC 50d08 0 scudo::MapAllocatorCache<scudo::AndroidConfig>::retrieve(scudo::Options, unsigned long, unsigned long, scudo::LargeBlock::Header**, bool*)
PUBLIC 50fac 0 scudo::Allocator<scudo::AndroidConfig, &scudo_malloc_postinit>::collectStackTrace()
PUBLIC 51144 0 scudo::Allocator<scudo::AndroidConfig, &scudo_malloc_postinit>::quarantineOrDeallocateChunk(scudo::Options, void*, scudo::Chunk::UnpackedHeader*, unsigned long)
PUBLIC 515c8 0 scudo::Allocator<scudo::AndroidConfig, &scudo_malloc_postinit>::storeDeallocationStackMaybe(scudo::Options, void*, unsigned char, unsigned long)
PUBLIC 51680 0 scudo::MapAllocator<scudo::AndroidConfig>::deallocate(scudo::Options, void*)
PUBLIC 517c4 0 scudo::MapAllocatorCache<scudo::AndroidConfig>::store(scudo::Options, scudo::LargeBlock::Header*)
PUBLIC 51b9c 0 scudo::MapAllocatorCache<scudo::AndroidConfig>::releaseOlderThan(unsigned long)
PUBLIC 51ca8 0 scudo::QuarantineCache<scudo::Allocator<scudo::AndroidConfig, &scudo_malloc_postinit>::QuarantineCallback>::enqueue(scudo::Allocator<scudo::AndroidConfig, &scudo_malloc_postinit>::QuarantineCallback, void*, unsigned long)
PUBLIC 51e70 0 scudo::GlobalQuarantine<scudo::Allocator<scudo::AndroidConfig, &scudo_malloc_postinit>::QuarantineCallback, void>::drain(scudo::QuarantineCache<scudo::Allocator<scudo::AndroidConfig, &scudo_malloc_postinit>::QuarantineCallback>*, scudo::Allocator<scudo::AndroidConfig, &scudo_malloc_postinit>::QuarantineCallback)
PUBLIC 51f68 0 scudo::GlobalQuarantine<scudo::Allocator<scudo::AndroidConfig, &scudo_malloc_postinit>::QuarantineCallback, void>::recycle(unsigned long, scudo::Allocator<scudo::AndroidConfig, &scudo_malloc_postinit>::QuarantineCallback)
PUBLIC 520c0 0 scudo::QuarantineCache<scudo::Allocator<scudo::AndroidConfig, &scudo_malloc_postinit>::QuarantineCallback>::mergeBatches(scudo::QuarantineCache<scudo::Allocator<scudo::AndroidConfig, &scudo_malloc_postinit>::QuarantineCallback>*)
PUBLIC 521f4 0 scudo::GlobalQuarantine<scudo::Allocator<scudo::AndroidConfig, &scudo_malloc_postinit>::QuarantineCallback, void>::doRecycle(scudo::QuarantineCache<scudo::Allocator<scudo::AndroidConfig, &scudo_malloc_postinit>::QuarantineCallback>*, scudo::Allocator<scudo::AndroidConfig, &scudo_malloc_postinit>::QuarantineCallback)
PUBLIC 524c8 0 scudo::Allocator<scudo::AndroidConfig, &scudo_malloc_postinit>::QuarantineCallback::deallocate(void*)
PUBLIC 52608 0 scudo::Allocator<scudo::AndroidConfig, &scudo_malloc_postinit>::iterateOverChunks(unsigned long, unsigned long, void (*)(unsigned long, unsigned long, void*), void*)::{lambda(unsigned long)#1}::operator()(unsigned long) const
PUBLIC 527b8 0 scudo::SizeClassAllocator64<scudo::AndroidConfig>::enable()
PUBLIC 52954 0 scudo::SizeClassAllocator64<scudo::AndroidConfig>::disable()
PUBLIC 52af4 0 scudo::TSDRegistrySharedT<scudo::Allocator<scudo::AndroidConfig, &scudo_malloc_postinit>, (unsigned int)8, (unsigned int)8>::drainCaches(scudo::Allocator<scudo::AndroidConfig, &scudo_malloc_postinit>*)
PUBLIC 52c00 0 scudo::GlobalQuarantine<scudo::Allocator<scudo::AndroidConfig, &scudo_malloc_postinit>::QuarantineCallback, void>::drainAndRecycle(scudo::QuarantineCache<scudo::Allocator<scudo::AndroidConfig, &scudo_malloc_postinit>::QuarantineCallback>*, scudo::Allocator<scudo::AndroidConfig, &scudo_malloc_postinit>::QuarantineCallback)
PUBLIC 52cc4 0 scudo::MapAllocatorCache<scudo::AndroidConfig>::disableMemoryTagging()
PUBLIC 52d78 0 scudo::computeHardwareCRC32(unsigned int, unsigned long)
PUBLIC 52d84 0 gwp_asan::AllocationMetadata::RecordAllocation(unsigned long, unsigned long)
PUBLIC 52dc4 0 gwp_asan::AllocationMetadata::RecordDeallocation()
PUBLIC 52df8 0 gwp_asan::AllocationMetadata::CallSiteInfo::RecordBacktrace(unsigned long (*)(unsigned long*, unsigned long))
PUBLIC 52e9c 0 gwp_asan::AllocatorState::maximumAllocationSize() const
PUBLIC 52ea8 0 gwp_asan::AllocatorState::slotToAddr(unsigned long) const
PUBLIC 52ec4 0 gwp_asan::AllocatorState::getNearestSlot(unsigned long) const
PUBLIC 52f44 0 gwp_asan::AllocatorState::internallyDetectedErrorFaultAddress() const
PUBLIC 52f54 0 gwp_asan::GuardedPoolAllocator::getSingleton()
PUBLIC 52f64 0 gwp_asan::GuardedPoolAllocator::init(gwp_asan::options::Options const&)
PUBLIC 53138 0 gwp_asan::GuardedPoolAllocator::getRandomUnsigned32()
PUBLIC 53160 0 gwp_asan::GuardedPoolAllocator::disable()
PUBLIC 53190 0 gwp_asan::GuardedPoolAllocator::enable()
PUBLIC 531c0 0 gwp_asan::GuardedPoolAllocator::iterate(void*, unsigned long, void (*)(unsigned long, unsigned long, void*), void*)
PUBLIC 53268 0 gwp_asan::GuardedPoolAllocator::allocate(unsigned long, unsigned long)
PUBLIC 534ec 0 gwp_asan::GuardedPoolAllocator::deallocate(void*)
PUBLIC 536fc 0 gwp_asan::GuardedPoolAllocator::preCrashReport(void*)
PUBLIC 53760 0 gwp_asan::GuardedPoolAllocator::postCrashReportRecoverableOnly(void*)
PUBLIC 53888 0 gwp_asan::GuardedPoolAllocator::getSize(void const*)
PUBLIC 538ec 0 gwp_asan::getThreadID()
PUBLIC 538f8 0 gwp_asan::GuardedPoolAllocator::initPRNG()
PUBLIC 5393c 0 gwp_asan::GuardedPoolAllocator::map(unsigned long, char const*) const
PUBLIC 539bc 0 gwp_asan::GuardedPoolAllocator::reserveGuardedPool(unsigned long)
PUBLIC 53a34 0 gwp_asan::GuardedPoolAllocator::allocateInGuardedPool(void*, unsigned long) const
PUBLIC 53a98 0 gwp_asan::GuardedPoolAllocator::deallocateInGuardedPool(void*, unsigned long) const
PUBLIC 53b0c 0 gwp_asan::GuardedPoolAllocator::getPlatformPageSize()
PUBLIC 53b18 0 gwp_asan::GuardedPoolAllocator::installAtFork()
PUBLIC 53b4c 0 gwp_asan::GuardedPoolAllocator::installAtFork()::$_0::__invoke()
PUBLIC 53b78 0 gwp_asan::GuardedPoolAllocator::installAtFork()::$_1::__invoke()
PUBLIC 53ba4 0 gwp_asan::Mutex::lock()
PUBLIC 53bac 0 gwp_asan::Mutex::unlock()
PUBLIC 53bb4 0 gwp_asan::die(char const*)
PUBLIC 53bd4 0 gwp_asan::compression::pack(unsigned long const*, unsigned long, unsigned char*, unsigned long)
PUBLIC 53c5c 0 __gwp_asan_error_is_mine
PUBLIC 53c9c 0 __gwp_asan_get_internal_crash_address
PUBLIC 53cdc 0 __libc_preinit()
PUBLIC 53cf8 0 __libc_preinit_impl()
PUBLIC m 53de4 0 __libc_init
PUBLIC 53e58 0 __libc_shared_globals()
PUBLIC 53e80 0 __memchr_aarch64_mte
PUBLIC 53f80 0 __memchr_aarch64
PUBLIC 54080 0 __memcmp_aarch64
PUBLIC m 54280 0 __memmove_aarch64_simd
PUBLIC m 54440 0 __memmove_aarch64
PUBLIC m 54680 0 memrchr
PUBLIC m 54740 0 memset
PUBLIC 54880 0 __stpcpy_aarch64
PUBLIC 54a00 0 __strchrnul_aarch64_mte
PUBLIC 54ac0 0 __strchrnul_aarch64
PUBLIC 54b80 0 __strchr_aarch64_mte
PUBLIC 54c40 0 __strchr_aarch64
PUBLIC 54d40 0 __strcmp_aarch64
PUBLIC 54e80 0 __strcpy_aarch64
PUBLIC 54fc0 0 __strlen_aarch64_mte
PUBLIC 55080 0 __strlen_aarch64
PUBLIC 551c0 0 __strncmp_aarch64
PUBLIC 55380 0 __strnlen_aarch64
PUBLIC 55440 0 __strrchr_aarch64_mte
PUBLIC 55580 0 __strrchr_aarch64
PUBLIC 55684 0 async_safe_format_buffer_va_list
PUBLIC 556fc 0 out_vformat<BufferOutputStream>(BufferOutputStream&, char const*, std::__va_list)
PUBLIC 5636c 0 async_safe_format_buffer
PUBLIC 5642c 0 async_safe_write_log
PUBLIC 56690 0 async_safe_format_log_va_list
PUBLIC 56764 0 async_safe_format_log
PUBLIC 5687c 0 async_safe_fatal_va_list
PUBLIC 56a3c 0 async_safe_fatal_no_abort
PUBLIC m 56aec 0 sysconf
PUBLIC m 56df8 0 clock_gettime
PUBLIC m 56e54 0 clock_getres
PUBLIC m 56eb0 0 gettimeofday
PUBLIC m 56f0c 0 time
PUBLIC 56fb8 0 __libc_init_vdso(libc_globals*)
PUBLIC 571e4 0 __libc_init_setjmp_cookie(libc_globals*)
PUBLIC 5724c 0 __bionic_setjmp_cookie_get
PUBLIC 5728c 0 __bionic_setjmp_cookie_check
PUBLIC 572cc 0 __bionic_setjmp_checksum_mismatch
PUBLIC m 572e8 0 android_set_abort_message
PUBLIC 573c0 0 fill_abort_message_magic(magic_abort_msg_t*)
PUBLIC 57410 0 __bionic_clone
PUBLIC 57450 0 _exit_with_stack_teardown
PUBLIC m 57470 0 setjmp
PUBLIC m 57480 0 _setjmp
PUBLIC m 57490 0 sigsetjmp
PUBLIC m 57650 0 siglongjmp
PUBLIC m 57820 0 syscall
PUBLIC m 57860 0 vfork
PUBLIC 578c8 0 trace_begin_internal(char const*)
PUBLIC 57d48 0 bionic_trace_end()
PUBLIC m 5818c 0 ScopedTrace::ScopedTrace(char const*)
PUBLIC m 581dc 0 ScopedTrace::~ScopedTrace()
PUBLIC 58214 0 CachedProperty::Callback(void*, char const*, char const*, unsigned int)
PUBLIC 58240 0 _GLOBAL__sub_I_bionic_systrace.cpp
PUBLIC 5829c 0 android::properties::PropertyInfoArea::CheckPrefixMatch(char const*, android::properties::TrieNode const&, unsigned int*, unsigned int*) const
PUBLIC 58404 0 android::properties::PropertyInfoArea::GetPropertyInfoIndexes(char const*, unsigned int*, unsigned int*) const
PUBLIC 586a0 0 android::properties::PropertyInfoAreaFile::LoadDefaultPath()
PUBLIC 586b0 0 android::properties::PropertyInfoAreaFile::LoadPath(char const*)
PUBLIC 587d4 0 android::properties::PropertyInfoAreaFile::Reset()
PUBLIC 5880c 0 ContextNode::Open(bool, bool*)
PUBLIC 58a50 0 ContextNode::CheckAccessAndOpen()
PUBLIC 58b20 0 ContextNode::ResetAccess()
PUBLIC 58bec 0 ContextNode::Unmap()
PUBLIC m 58c2c 0 __futex_wait_ex(void volatile*, bool, int)
PUBLIC 58ca4 0 ContextsSplit::InitializePropertiesFromFile(char const*)
PUBLIC 58f78 0 read_spec_entries(char*, int, ...)
PUBLIC 59164 0 ContextsSplit::InitializeProperties()
PUBLIC 59218 0 ContextsSplit::Initialize(bool, char const*, bool*)
PUBLIC 59384 0 ContextsSplit::GetPropAreaForName(char const*)
PUBLIC 59400 0 ContextsSplit::ForEach(void (*)(prop_info const*, void*), void*)
PUBLIC 59464 0 ContextsSplit::ResetAccess()
PUBLIC 5949c 0 ContextsSplit::FreeAndUnmap()
PUBLIC m 59530 0 ContextsSplit::~ContextsSplit()
PUBLIC 59538 0 ContextsSplit::GetSerialPropArea()
PUBLIC 59544 0 ContextsSerialized::InitializeContextNodes()
PUBLIC 59630 0 ContextsSerialized::Initialize(bool, char const*, bool*)
PUBLIC 597c8 0 ContextsSerialized::GetPropAreaForName(char const*)
PUBLIC 5989c 0 ContextsSerialized::ForEach(void (*)(prop_info const*, void*), void*)
PUBLIC 5992c 0 ContextsSerialized::ResetAccess()
PUBLIC 59988 0 ContextsSerialized::FreeAndUnmap()
PUBLIC 59a20 0 ContextsSerialized::~ContextsSerialized()
PUBLIC 59a38 0 ContextsSerialized::~ContextsSerialized()
PUBLIC 59a74 0 ContextsSerialized::GetSerialPropArea()
PUBLIC 59a80 0 prop_area::map_prop_area_rw(char const*, char const*, bool*)
PUBLIC 59be8 0 prop_area::map_fd_ro(int)
PUBLIC 59cf8 0 prop_area::map_prop_area(char const*)
PUBLIC 59d4c 0 prop_area::find_prop_bt(prop_bt*, char const*, unsigned int, bool)
PUBLIC 59ebc 0 prop_area::find_property(prop_bt*, char const*, unsigned int, char const*, unsigned int, bool)
PUBLIC 5a0fc 0 prop_area::foreach_property(prop_bt*, void (*)(prop_info const*, void*), void*)
PUBLIC 5a2c0 0 prop_area::find(char const*)
PUBLIC 5a408 0 prop_area::add(char const*, unsigned int, char const*, unsigned int)
PUBLIC 5a444 0 prop_area::foreach(void (*)(prop_info const*, void*), void*)
PUBLIC m 5a45c 0 prop_info::prop_info(char const*, unsigned int, char const*, unsigned int)
PUBLIC m 5a4d0 0 prop_info::prop_info(char const*, unsigned int, unsigned int)
PUBLIC 5a54c 0 SystemProperties::Init(char const*)
PUBLIC 5a6f4 0 SystemProperties::AreaInit(char const*, bool*)
PUBLIC 5a7a8 0 SystemProperties::AreaSerial()
PUBLIC 5a7ec 0 SystemProperties::Find(char const*)
PUBLIC 5a860 0 SystemProperties::Read(prop_info const*, char*, char*)
PUBLIC 5a9a0 0 SystemProperties::ReadCallback(prop_info const*, void (*)(void*, char const*, char const*, unsigned int), void*)
PUBLIC 5ab20 0 SystemProperties::Get(char const*, char*)
PUBLIC 5abc4 0 SystemProperties::Update(prop_info*, char const*, unsigned int)
PUBLIC 5ad44 0 SystemProperties::Add(char const*, unsigned int, char const*, unsigned int)
PUBLIC 5aed4 0 SystemProperties::WaitAny(unsigned int)
PUBLIC 5af84 0 SystemProperties::Wait(prop_info const*, unsigned int, unsigned int*, timespec const*)
PUBLIC 5b064 0 SystemProperties::FindNth(unsigned int)
PUBLIC 5b0e4 0 SystemProperties::Foreach(void (*)(prop_info const*, void*), void*)
PUBLIC 5b120 0 SystemProperties::FindNth(unsigned int)::find_nth::fn(prop_info const*, void*)
PUBLIC 5b140 0 SystemProperties::GetKnoxNap(char const*)
PUBLIC 5b180 0 SystemProperties::SetKnoxNap(int)
PUBLIC 5b1cc 0 ContextsPreSplit::Initialize(bool, char const*, bool*)
PUBLIC m 5b208 0 ContextsPreSplit::GetPropAreaForName(char const*)
PUBLIC 5b214 0 ContextsPreSplit::ForEach(void (*)(prop_info const*, void*), void*)
PUBLIC 5b220 0 ContextsPreSplit::FreeAndUnmap()
PUBLIC 5b260 0 fallBackNetIdForResolv(unsigned int)
PUBLIC 5b268 0 fallBackDnsOpenProxy()
PUBLIC m 5b274 0 accept4
PUBLIC m 5b368 0 connect
PUBLIC m 5b378 0 sendmmsg
PUBLIC m 5b388 0 sendmsg
PUBLIC m 5b398 0 sendto
PUBLIC m 5b3c0 0 socket
PUBLIC 5b4b4 0 __bionic_get_shell_path
PUBLIC 5b518 0 init_sh_path()
PUBLIC m 5b5fc 0 __cmsg_nxthdr
PUBLIC m 5b628 0 __errno
PUBLIC m 5b63c 0 __gnu_basename
PUBLIC m 5b670 0 __libc_current_sigrtmax
PUBLIC m 5b67c 0 __libc_current_sigrtmin
PUBLIC m 5b688 0 abort
PUBLIC m 5b7c0 0 accept
PUBLIC m 5b7cc 0 access
PUBLIC m 5b7e8 0 inet_network
PUBLIC m 5b84c 0 inet_addr
PUBLIC m 5b8ac 0 inet_aton
PUBLIC m 5bad8 0 __assert
PUBLIC m 5bb00 0 __assert2
PUBLIC m 5bb2c 0 atof
PUBLIC m 5bb38 0 BionicSmallObjectAllocator::BionicSmallObjectAllocator(unsigned int, unsigned long)
PUBLIC 5bb54 0 BionicSmallObjectAllocator::alloc()
PUBLIC 5bcac 0 BionicSmallObjectAllocator::alloc_page()
PUBLIC 5bd9c 0 BionicSmallObjectAllocator::free(void*)
PUBLIC 5bedc 0 BionicAllocator::alloc_mmap(unsigned long, unsigned long)
PUBLIC 5bfc0 0 BionicAllocator::alloc(unsigned long)
PUBLIC 5bfd4 0 BionicAllocator::alloc_impl(unsigned long, unsigned long)
PUBLIC 5c0f8 0 BionicAllocator::memalign(unsigned long, unsigned long)
PUBLIC 5c13c 0 BionicAllocator::free(void*)
PUBLIC 5c2c4 0 BionicAllocator::get_chunk_size(void*)
PUBLIC 5c404 0 __libc_safe_arc4random_buf(void*, unsigned long)
PUBLIC 5c50c 0 __futex_wait_ex(void volatile*, bool, int, bool, timespec const*)
PUBLIC 5c5f8 0 __futex_pi_lock_ex(void volatile*, bool, bool, timespec const*)
PUBLIC m 5c6d8 0 NetlinkConnection::NetlinkConnection()
PUBLIC m 5c718 0 NetlinkConnection::~NetlinkConnection()
PUBLIC 5c77c 0 NetlinkConnection::SendRequest(int)
PUBLIC 5c8a8 0 NetlinkConnection::ReadResponses(void (*)(void*, nlmsghdr*), void*)
PUBLIC 5c9b8 0 timespec_from_timeval
PUBLIC 5c9f8 0 timespec_from_ms
PUBLIC 5ca38 0 timeval_from_timespec
PUBLIC 5ca6c 0 monotonic_time_from_realtime_time
PUBLIC m 5cb5c 0 brk
PUBLIC m 5cbb0 0 sbrk
PUBLIC m 5cc4c 0 c16rtomb
PUBLIC m 5cd2c 0 c32rtomb
PUBLIC m 5ce58 0 chmod
PUBLIC m 5ce74 0 chown
PUBLIC m 5ce94 0 clearenv
PUBLIC m 5cecc 0 clock
PUBLIC m 5cf50 0 clock_getcpuclockid
PUBLIC m 5cfc0 0 clock_nanosleep
PUBLIC 5d040 0 __start_thread
PUBLIC m 5d08c 0 clone
PUBLIC m 5d2dc 0 isalnum
PUBLIC m 5d2fc 0 isalpha
PUBLIC m 5d314 0 isblank
PUBLIC m 5d328 0 iscntrl
PUBLIC m 5d340 0 isdigit
PUBLIC m 5d354 0 isgraph
PUBLIC m 5d368 0 islower
PUBLIC m 5d37c 0 isprint
PUBLIC m 5d390 0 ispunct
PUBLIC m 5d3b0 0 isspace
PUBLIC m 5d3c8 0 isupper
PUBLIC m 5d3dc 0 isxdigit
PUBLIC m 5d3fc 0 _tolower
PUBLIC m 5d408 0 tolower
PUBLIC m 5d420 0 _toupper
PUBLIC m 5d42c 0 toupper
PUBLIC m 5d444 0 isascii
PUBLIC m 5d454 0 toascii
PUBLIC m 5d460 0 isalnum_l
PUBLIC m 5d480 0 isalpha_l
PUBLIC m 5d498 0 isblank_l
PUBLIC m 5d4ac 0 iscntrl_l
PUBLIC m 5d4c4 0 isdigit_l
PUBLIC m 5d4d8 0 isgraph_l
PUBLIC m 5d4ec 0 islower_l
PUBLIC m 5d500 0 isprint_l
PUBLIC m 5d514 0 ispunct_l
PUBLIC m 5d534 0 isspace_l
PUBLIC m 5d54c 0 isupper_l
PUBLIC m 5d560 0 isxdigit_l
PUBLIC m 5d580 0 toupper_l
PUBLIC m 5d598 0 tolower_l
PUBLIC m 5d5b0 0 dirfd
PUBLIC 5d5e4 0 __fortify_fatal(char const*, ...)
PUBLIC m 5d668 0 fdopendir
PUBLIC m 5d754 0 opendir
PUBLIC m 5d7dc 0 readdir64
PUBLIC m 5d8b0 0 readdir64_r
PUBLIC m 5d9c8 0 closedir
PUBLIC m 5da38 0 rewinddir
PUBLIC m 5da9c 0 seekdir
PUBLIC m 5db14 0 telldir
PUBLIC m 5db48 0 alphasort64
PUBLIC m 5db60 0 dup
PUBLIC m 5dc4c 0 dup2
PUBLIC m 5dd64 0 dup3
PUBLIC m 5de50 0 error
PUBLIC m 5dfcc 0 error_at_line
PUBLIC m 5e1a0 0 eventfd
PUBLIC m 5e28c 0 eventfd_read
PUBLIC m 5e2b4 0 eventfd_write
PUBLIC m 5e314 0 execl
PUBLIC 5e3b8 0 __execl<0>(char const*, char const*, std::__va_list)
PUBLIC m 5e524 0 execle
PUBLIC 5e5c8 0 __execl<1>(char const*, char const*, std::__va_list)
PUBLIC m 5e758 0 execlp
PUBLIC 5e7fc 0 __execl<2>(char const*, char const*, std::__va_list)
PUBLIC m 5e95c 0 execv
PUBLIC m 5e98c 0 execve
PUBLIC m 5e9b0 0 execvp
PUBLIC m 5e9c4 0 execvpe
PUBLIC 5ecc8 0 __exec_as_script(char const*, char* const*, char* const*)
PUBLIC m 5eda8 0 fexecve
PUBLIC m 5ee48 0 snprintf(char*, unsigned long pass_object_size1, char const*, ...)
PUBLIC m 5eefc 0 backtrace
PUBLIC 5ef70 0 TraceFunction(_Unwind_Context*, void*)
PUBLIC m 5efc8 0 backtrace_symbols
PUBLIC m 5f134 0 backtrace_symbols_fd
PUBLIC m 5f260 0 faccessat
PUBLIC m 5f2a8 0 fchmod
PUBLIC m 5f394 0 fchmodat
PUBLIC m 5f438 0 fcntl
PUBLIC 5f64c 0 __libc_init_fdsan()
PUBLIC 5f658 0 android_fdsan_set_error_level_from_property
PUBLIC m 5f6f8 0 android_fdsan_get_fd_table
PUBLIC m 5f700 0 android_fdsan_create_owner_tag
PUBLIC m 5f740 0 android_fdsan_get_tag_type
PUBLIC m 5f86c 0 android_fdsan_get_tag_value
PUBLIC m 5f878 0 android_fdsan_close_with_tag
PUBLIC 5fcd8 0 fdsan_error(char const*, ...)
PUBLIC m 5ff14 0 android_fdsan_get_owner_tag
PUBLIC m 5ff58 0 android_fdsan_exchange_owner_tag
PUBLIC m 603d0 0 android_fdsan_get_error_level
PUBLIC m 603f4 0 android_fdsan_set_error_level
PUBLIC m 60448 0 close
PUBLIC 60494 0 FdTableImpl<(unsigned long)128>::at(unsigned long)
PUBLIC 60600 0 android_fdsan_set_error_level_from_property::$_0::__invoke(void*, char const*, char const*, unsigned int)
PUBLIC m 606dc 0 android_fdtrack_set_globally_enabled
PUBLIC m 606f4 0 android_fdtrack_get_enabled
PUBLIC m 60728 0 android_fdtrack_set_enabled
PUBLIC m 60758 0 android_fdtrack_compare_exchange_hook
PUBLIC 607a4 0 __libc_init_fdtrack()
PUBLIC 607b8 0 __libc_init_fdtrack()::$_0::__invoke(int)
PUBLIC m 607c0 0 ffs
PUBLIC m 607d8 0 ffsl
PUBLIC m 607f0 0 ffsll
PUBLIC m 60808 0 fgetxattr
PUBLIC m 60904 0 flistxattr
PUBLIC m 609ec 0 __fpclassify
PUBLIC m 60a48 0 __fpclassifyf
PUBLIC m 60aa4 0 isinf
PUBLIC m 60ac0 0 isinff
PUBLIC m 60adc 0 isnan
PUBLIC m 60aec 0 isnanf
PUBLIC m 60afc 0 isfinite
PUBLIC m 60b1c 0 isfinitef
PUBLIC m 60b3c 0 isnormal
PUBLIC m 60b68 0 isnormalf
PUBLIC m 60b94 0 __fpclassifyl
PUBLIC m 60c3c 0 isinfl
PUBLIC m 60c84 0 isnanl
PUBLIC m 60cac 0 isfinitel
PUBLIC m 60d14 0 isnormall
PUBLIC m 60d80 0 fsetxattr
PUBLIC m 60e7c 0 ftw
PUBLIC 60e90 0 do_nftw(char const*, int (*)(char const*, stat const*, int), int (*)(char const*, stat const*, int, FTW*), int, int)
PUBLIC m 610b8 0 nftw
PUBLIC m 610d4 0 futimens
PUBLIC m 610e8 0 getcwd
PUBLIC m 611b8 0 getdomainname
PUBLIC m 612b4 0 getentropy
PUBLIC m 61438 0 gethostname
PUBLIC m 61524 0 getloadavg
PUBLIC m 61620 0 getpagesize
PUBLIC m 6162c 0 getpgrp
PUBLIC m 61638 0 getpid
PUBLIC m 6165c 0 getpriority
PUBLIC m 61688 0 gettid
PUBLIC m 616dc 0 android_get_device_api_level
PUBLIC 61768 0 getpwuid_internal(unsigned int, passwd_state_t*)
PUBLIC 61824 0 oem_id_to_passwd(unsigned int, passwd_state_t*)
PUBLIC 61920 0 app_id_to_passwd(unsigned int, passwd_state_t*)
PUBLIC m 61ae4 0 getpwuid
PUBLIC 61b38 0 getpwnam_internal(char const*, passwd_state_t*)
PUBLIC 61cf4 0 app_id_from_name(char const*, bool)
PUBLIC m 61fb0 0 getpwnam
PUBLIC m 62004 0 getpwnam_r
PUBLIC m 620ec 0 getpwuid_r
PUBLIC m 621d4 0 getgrouplist
PUBLIC m 62200 0 getlogin
PUBLIC m 62274 0 getlogin_r
PUBLIC m 62340 0 setpwent
PUBLIC m 62398 0 endpwent
PUBLIC m 623f0 0 getpwent
PUBLIC m 625d4 0 getgrgid
PUBLIC m 626b0 0 getgrnam
PUBLIC 626fc 0 getgrnam_internal(char const*, group_state_t*)
PUBLIC m 6288c 0 getgrgid_r
PUBLIC 628b4 0 getgroup_r(bool, char const*, unsigned int, group*, char*, unsigned long, group**)
PUBLIC m 62a00 0 getgrnam_r
PUBLIC m 62ad0 0 setgrent
PUBLIC m 62b18 0 endgrent
PUBLIC m 62b60 0 getgrent
PUBLIC 62d24 0 oem_id_to_group(unsigned int, group_state_t*)
PUBLIC 62df8 0 app_id_to_group(unsigned int, group_state_t*)
PUBLIC 63024 0 snprintf(char*, unsigned long pass_object_size1, char const*, ...)
PUBLIC 630d8 0 is_oem_id(unsigned int)
PUBLIC 63224 0 _GLOBAL__sub_I_grp_pwd.cpp
PUBLIC m 63350 0 MmapFile::MmapFile(char const*, char const*)
PUBLIC 63368 0 MmapFile::GetFile(char const**, char const**)
PUBLIC 634f8 0 MmapFile::DoMmap()
PUBLIC m 6360c 0 PasswdFile::PasswdFile(char const*, char const*)
PUBLIC 63614 0 PasswdFile::FindById(unsigned int, passwd_state_t*)
PUBLIC 63870 0 (anonymous namespace)::PasswdLine::ToPasswdState(passwd_state_t*)
PUBLIC 63a78 0 PasswdFile::FindByName(char const*, passwd_state_t*)
PUBLIC 63cb8 0 GroupFile::FindById(unsigned int, group_state_t*)
PUBLIC 63fa8 0 GroupFile::FindByName(char const*, group_state_t*)
PUBLIC 6427c 0 SetHeapZeroInitialize(bool)
PUBLIC m 642a0 0 iconv_open
PUBLIC 64328 0 __parse_encoding(char const*, Encoding*, Mode*)
PUBLIC m 64854 0 iconv
PUBLIC m 6490c 0 iconv_close
PUBLIC 64950 0 __match_encoding(char const*, char const*)
PUBLIC 64a3c 0 __iconv_t::GetNext()
PUBLIC 64c7c 0 __iconv_t::Convert()
PUBLIC 64ef0 0 __icu_charType(unsigned int)
PUBLIC 64f90 0 __icu_getIntPropertyValue(unsigned int, UProperty)
PUBLIC 6503c 0 __icu_hasBinaryProperty(unsigned int, UProperty, int (*)(int))
PUBLIC m 650f8 0 getifaddrs
PUBLIC 65380 0 __getifaddrs_callback(void*, nlmsghdr*)
PUBLIC m 658a8 0 freeifaddrs
PUBLIC 658dc 0 ifaddrs_storage::SetAddress(int, void const*, unsigned long)
PUBLIC 659c4 0 ifaddrs_storage::CopyAddress(int, void const*, unsigned long, sockaddr_storage*)
PUBLIC m 65a8c 0 inotify_init
PUBLIC m 65a98 0 ioctl
PUBLIC m 65b64 0 killpg
PUBLIC m 65ba0 0 nl_langinfo
PUBLIC m 65eec 0 nl_langinfo_l
PUBLIC m 65ef4 0 lchown
PUBLIC m 65f14 0 mkstemp64
PUBLIC m 65f1c 0 mkostemp64
PUBLIC m 65f24 0 mkstemps64
PUBLIC m 65f2c 0 mkostemps64
PUBLIC m 65f34 0 ftw64
PUBLIC m 65f3c 0 nftw64
PUBLIC 65f44 0 __libc_init_globals()
PUBLIC 66044 0 __libc_init_scudo()
PUBLIC 66064 0 __libc_init_mte_late()
PUBLIC 66198 0 __libc_init_common()
PUBLIC 66200 0 __libc_init_fork_handler()
PUBLIC 6621c 0 arc4random_fork_handler()
PUBLIC 66234 0 __libc_set_target_sdk_version(int)
PUBLIC 66244 0 __libc_fini
PUBLIC 662b4 0 __libc_init_mte_late()::$_0::__invoke(sigval)
PUBLIC 66314 0 __dirname_r(char const*, char*, unsigned long)
PUBLIC m 66474 0 basename
PUBLIC m 665b4 0 dirname
PUBLIC m 665f8 0 link
PUBLIC m 66618 0 __ctype_get_mb_cur_max
PUBLIC m 66654 0 uselocale
PUBLIC m 66678 0 localeconv
PUBLIC 666ac 0 __locale_init()
PUBLIC m 666f8 0 duplocale
PUBLIC m 6674c 0 freelocale
PUBLIC m 66754 0 newlocale
PUBLIC m 66850 0 setlocale
PUBLIC m 66960 0 lockf64
PUBLIC m 66a80 0 lockf
PUBLIC m 66a88 0 lstat64
PUBLIC m 66aa4 0 mblen
PUBLIC m 66af8 0 mbrtoc16
PUBLIC m 66c14 0 mbrtoc32
PUBLIC m 66e20 0 mempcpy
PUBLIC m 66e50 0 memset_explicit
PUBLIC m 66e7c 0 mkdir
PUBLIC m 66e90 0 mkfifo
PUBLIC m 66eb0 0 mkfifoat
PUBLIC m 66ec4 0 mknod
PUBLIC m 66ee0 0 getmntent
PUBLIC m 66f04 0 getmntent_r
PUBLIC m 67048 0 setmntent
PUBLIC m 67050 0 endmntent
PUBLIC m 67078 0 hasmntopt
PUBLIC m 6714c 0 mremap
PUBLIC m 67248 0 if_indextoname
PUBLIC m 67334 0 if_nametoindex
PUBLIC m 67414 0 if_nameindex
PUBLIC 67564 0 __if_nameindex_callback(void*, nlmsghdr*)
PUBLIC m 67620 0 if_freenameindex
PUBLIC m 6767c 0 endnetent
PUBLIC m 67684 0 endprotoent
PUBLIC m 6768c 0 getnetbyaddr
PUBLIC m 67698 0 getnetbyname
PUBLIC m 676a4 0 getnetent
PUBLIC m 676b0 0 getprotobyname
PUBLIC m 676bc 0 getprotobynumber
PUBLIC m 676c8 0 getprotoent
PUBLIC m 676d4 0 setnetent
PUBLIC m 676dc 0 setprotoent
PUBLIC m 676e4 0 bindresvport
PUBLIC m 67828 0 catopen
PUBLIC m 67834 0 catgets
PUBLIC m 67840 0 catclose
PUBLIC m 6786c 0 creat64
PUBLIC m 6787c 0 open
PUBLIC m 67a20 0 __open_2
PUBLIC m 67b40 0 openat64
PUBLIC m 67cd0 0 __openat_2
PUBLIC m 67de4 0 pathconf
PUBLIC 67e6c 0 __pathconf(statfs const&, int)
PUBLIC m 6803c 0 fpathconf
PUBLIC m 680c4 0 pause
PUBLIC m 68118 0 pidfd_open
PUBLIC m 68204 0 pidfd_getfd
PUBLIC m 682f0 0 pipe
PUBLIC m 68488 0 pipe2
PUBLIC m 6861c 0 poll
PUBLIC m 686ac 0 ppoll
PUBLIC m 6870c 0 ppoll64
PUBLIC m 68824 0 select
PUBLIC m 68930 0 pselect
PUBLIC m 68990 0 pselect64
PUBLIC m 68acc 0 posix_fadvise
PUBLIC m 68b38 0 posix_fadvise64
PUBLIC m 68ba4 0 posix_fallocate
PUBLIC m 68c0c 0 posix_fallocate64
PUBLIC m 68c74 0 posix_madvise
PUBLIC m 68ce8 0 timer_create
PUBLIC 68f20 0 __timer_thread_start(void*)
PUBLIC 68fe8 0 snprintf(char*, unsigned long pass_object_size1, char const*, ...)
PUBLIC m 6909c 0 timer_delete
PUBLIC m 69104 0 timer_gettime
PUBLIC m 69110 0 timer_settime
PUBLIC m 6911c 0 timer_getoverrun
PUBLIC m 69128 0 preadv
PUBLIC m 6914c 0 preadv64
PUBLIC m 69170 0 pwritev
PUBLIC m 69194 0 pwritev64
PUBLIC m 691b8 0 preadv2
PUBLIC m 691e0 0 preadv64v2
PUBLIC m 69208 0 pwritev2
PUBLIC m 69230 0 pwritev64v2
PUBLIC m 69258 0 ptrace
PUBLIC m 693d8 0 getpt
PUBLIC m 693ec 0 posix_openpt
PUBLIC m 69400 0 grantpt
PUBLIC m 6940c 0 ptsname
PUBLIC m 694c4 0 ptsname_r
PUBLIC m 69588 0 snprintf(char*, unsigned long pass_object_size1, char const*, ...)
PUBLIC m 69638 0 ttyname
PUBLIC m 6967c 0 ttyname_r
PUBLIC m 69764 0 unlockpt
PUBLIC m 697c0 0 openpty
PUBLIC m 69924 0 forkpty
PUBLIC m 69a48 0 login_tty
PUBLIC m 69ac4 0 raise
PUBLIC m 69b08 0 rand
PUBLIC m 69b24 0 srand
PUBLIC m 69b2c 0 readlink
PUBLIC m 69b4c 0 realpath
PUBLIC m 69ce8 0 reboot
PUBLIC m 69d08 0 recv
PUBLIC m 69d18 0 recvmsg
PUBLIC m 69ec8 0 recvmmsg
PUBLIC m 6a0ac 0 rename
PUBLIC m 6a0cc 0 renameat
PUBLIC m 6a0d8 0 rmdir
PUBLIC m 6a0ec 0 scandirat64
PUBLIC m 6a22c 0 scandir64
PUBLIC m 6a24c 0 sched_getaffinity
PUBLIC m 6a298 0 sched_getcpu
PUBLIC m 6a300 0 sem_init
PUBLIC m 6a348 0 sem_destroy
PUBLIC m 6a354 0 sem_open
PUBLIC m 6a3a8 0 sem_close
PUBLIC m 6a3d4 0 sem_unlink
PUBLIC m 6a400 0 sem_wait
PUBLIC m 6a4c0 0 sem_timedwait
PUBLIC 6a4cc 0 __sem_timedwait(sem_t*, timespec const*, bool)
PUBLIC m 6a61c 0 sem_timedwait_monotonic_np
PUBLIC m 6a628 0 sem_clockwait
PUBLIC m 6a658 0 sem_post
PUBLIC m 6a748 0 sem_trywait
PUBLIC m 6a7c4 0 sem_getvalue
PUBLIC m 6a7e4 0 send
PUBLIC m 6a7f4 0 setegid
PUBLIC m 6a808 0 seteuid
PUBLIC m 6a81c 0 setpgrp
PUBLIC m 6a82c 0 sigaction
PUBLIC m 6a8cc 0 pthread_sigmask
PUBLIC m 6a93c 0 pthread_sigmask64
PUBLIC m 6a9ac 0 sigaddset
PUBLIC m 6aa08 0 sigaddset64
PUBLIC m 6aa64 0 sigblock
PUBLIC m 6aad0 0 sigemptyset
PUBLIC m 6ab0c 0 sigdelset
PUBLIC m 6ab68 0 sigdelset64
PUBLIC m 6abc4 0 sigemptyset64
PUBLIC m 6ac00 0 sigfillset
PUBLIC m 6ac40 0 sigfillset64
PUBLIC m 6ac80 0 sighold
PUBLIC m 6ad0c 0 sigignore
PUBLIC m 6ad70 0 siginterrupt
PUBLIC m 6adfc 0 sigismember
PUBLIC m 6ae4c 0 sigismember64
PUBLIC m 6ae9c 0 signal
PUBLIC m 6af08 0 sigpause
PUBLIC m 6afc0 0 sigsuspend64
PUBLIC m 6b02c 0 sigpending
PUBLIC m 6b0a0 0 sigpending64
PUBLIC m 6b0ac 0 sigqueue
PUBLIC m 6b14c 0 sigrelse
PUBLIC m 6b1d8 0 sigset
PUBLIC m 6b308 0 sigsetmask
PUBLIC m 6b374 0 sigsuspend
PUBLIC m 6b3d8 0 sigtimedwait
PUBLIC m 6b43c 0 sigtimedwait64
PUBLIC m 6b4a8 0 sigwait
PUBLIC m 6b568 0 sigwait64
PUBLIC m 6b620 0 sigwaitinfo
PUBLIC m 6b688 0 sigwaitinfo64
PUBLIC m 6b6f8 0 sigprocmask
PUBLIC m 6b7b4 0 sigprocmask64
PUBLIC m 6b8e4 0 sleep
PUBLIC m 6b94c 0 socketpair
PUBLIC m 6bae0 0 posix_spawn
PUBLIC 6baf0 0 posix_spawn(int*, char const*, __posix_spawn_file_actions* const*, __posix_spawnattr* const*, char* const*, char* const*, int (*)(char const*, char* const*, char* const*))
PUBLIC m 6bcac 0 posix_spawnp
PUBLIC m 6bcbc 0 posix_spawnattr_init
PUBLIC m 6bd04 0 posix_spawnattr_destroy
PUBLIC m 6bd38 0 posix_spawnattr_setflags
PUBLIC m 6bd60 0 posix_spawnattr_getflags
PUBLIC m 6bd78 0 posix_spawnattr_setpgroup
PUBLIC m 6bd8c 0 posix_spawnattr_getpgroup
PUBLIC m 6bda4 0 posix_spawnattr_setsigmask
PUBLIC m 6bdbc 0 posix_spawnattr_setsigmask64
PUBLIC m 6bdd4 0 posix_spawnattr_getsigmask
PUBLIC m 6bdec 0 posix_spawnattr_getsigmask64
PUBLIC m 6be04 0 posix_spawnattr_setsigdefault
PUBLIC m 6be1c 0 posix_spawnattr_setsigdefault64
PUBLIC m 6be34 0 posix_spawnattr_getsigdefault
PUBLIC m 6be4c 0 posix_spawnattr_getsigdefault64
PUBLIC m 6be64 0 posix_spawnattr_setschedparam
PUBLIC m 6be7c 0 posix_spawnattr_getschedparam
PUBLIC m 6be94 0 posix_spawnattr_setschedpolicy
PUBLIC m 6bea8 0 posix_spawnattr_getschedpolicy
PUBLIC m 6bec0 0 posix_spawn_file_actions_init
PUBLIC m 6bf08 0 posix_spawn_file_actions_destroy
PUBLIC m 6bf6c 0 posix_spawn_file_actions_addopen
PUBLIC m 6c038 0 posix_spawn_file_actions_addclose
PUBLIC m 6c0d4 0 posix_spawn_file_actions_adddup2
PUBLIC m 6c17c 0 posix_spawn_file_actions_addchdir_np
PUBLIC m 6c230 0 posix_spawn_file_actions_addfchdir_np
PUBLIC 6c2cc 0 ApplyAttrs(short, __posix_spawnattr* const*)
PUBLIC 6c4cc 0 __posix_spawn_file_action::Do()
PUBLIC m 6c5f0 0 stat
PUBLIC m 6c60c 0 strtod_l
PUBLIC m 6c614 0 strtof_l
PUBLIC m 6c61c 0 strtol_l
PUBLIC m 6c624 0 strtold_l
PUBLIC m 6c62c 0 strtoll_l
PUBLIC m 6c634 0 strtoul_l
PUBLIC m 6c63c 0 strtoull_l
PUBLIC m 6c644 0 strerror_r
PUBLIC m 6c6f0 0 __gnu_strerror_r
PUBLIC m 6c790 0 strerror
PUBLIC m 6c858 0 strcoll_l
PUBLIC m 6c860 0 strerror_l
PUBLIC m 6c868 0 strxfrm_l
PUBLIC m 6c870 0 strcasecmp_l
PUBLIC m 6c878 0 strncasecmp_l
PUBLIC 6c880 0 __strsignal
PUBLIC 6c920 0 snprintf(char*, unsigned long pass_object_size1, char const*, ...)
PUBLIC m 6c9d4 0 strsignal
PUBLIC m 6ca70 0 atoi
PUBLIC m 6ca94 0 strtol
PUBLIC m 6ca9c 0 atol
PUBLIC m 6caac 0 atoll
PUBLIC m 6cabc 0 strtoll
PUBLIC m 6cac4 0 strtoimax
PUBLIC m 6cacc 0 StrToI<long, (long)-9223372036854775808, (long)9223372036854775807, char>(char const*, char**, int)
PUBLIC m 6cd20 0 wcstoimax
PUBLIC m 6cd28 0 StrToI<long, (long)-9223372036854775808, (long)9223372036854775807, wchar_t>(wchar_t const*, wchar_t**, int)
PUBLIC m 6cf88 0 wcstol
PUBLIC m 6cf90 0 wcstoll
PUBLIC m 6cf98 0 strtoul
PUBLIC m 6cfa0 0 StrToU<unsigned long, (unsigned long)18446744073709551615, char>(char const*, char**, int)
PUBLIC m 6d1d0 0 wcstoul
PUBLIC m 6d1d8 0 StrToU<unsigned long, (unsigned long)18446744073709551615, wchar_t>(wchar_t const*, wchar_t**, int)
PUBLIC m 6d414 0 strtoull
PUBLIC m 6d41c 0 wcstoull
PUBLIC m 6d424 0 strtoumax
PUBLIC m 6d42c 0 wcstoumax
PUBLIC m 6d434 0 strtold
PUBLIC m 6d4a0 0 swab
PUBLIC m 6d5e0 0 symlink
PUBLIC m 6d5f0 0 sync_file_range
PUBLIC m 6d5f8 0 epoll_create
PUBLIC m 6d700 0 epoll_create1
PUBLIC m 6d7ec 0 epoll_pwait
PUBLIC m 6d850 0 epoll_pwait64
PUBLIC m 6d85c 0 epoll_wait
PUBLIC m 6d86c 0 msgctl
PUBLIC m 6d898 0 msgget
PUBLIC m 6d8c0 0 msgrcv
PUBLIC m 6d8e8 0 msgsnd
PUBLIC m 6d918 0 semctl
PUBLIC m 6d9f4 0 semget
PUBLIC m 6da20 0 semop
PUBLIC m 6da50 0 semtimedop
PUBLIC m 6da80 0 shmat
PUBLIC m 6da9c 0 shmctl
PUBLIC m 6dac8 0 shmdt
PUBLIC m 6daec 0 shmget
PUBLIC m 6db18 0 signalfd
PUBLIC m 6db78 0 signalfd64
PUBLIC m 6db88 0 fstatfs
PUBLIC m 6dbc0 0 statfs
PUBLIC m 6dbf8 0 statvfs64
PUBLIC m 6dca8 0 fstatvfs64
PUBLIC m 6dd58 0 utimes
PUBLIC m 6de0c 0 lutimes
PUBLIC m 6dec0 0 futimesat
PUBLIC m 6df84 0 futimes
PUBLIC 6e030 0 __get_cpu_count(char const*)
PUBLIC m 6e14c 0 get_nprocs_conf
PUBLIC m 6e15c 0 get_nprocs
PUBLIC m 6e16c 0 get_phys_pages
PUBLIC m 6e1ec 0 get_avphys_pages
PUBLIC m 6e268 0 closelog
PUBLIC m 6e278 0 openlog
PUBLIC m 6e288 0 setlogmask
PUBLIC m 6e2a4 0 syslog
PUBLIC m 6e3e8 0 vsyslog
PUBLIC m 6e4dc 0 system
PUBLIC m 6e74c 0 __system_properties_init
PUBLIC m 6e780 0 __system_property_set_filename
PUBLIC m 6e78c 0 __system_property_area_init
PUBLIC m 6e7fc 0 __system_property_area_serial
PUBLIC m 6e80c 0 __system_property_find
PUBLIC m 6e820 0 __system_property_read
PUBLIC m 6e840 0 __system_property_read_callback
PUBLIC m 6e860 0 __system_property_get
PUBLIC m 6e878 0 __system_property_update
PUBLIC m 6e898 0 __system_property_add
PUBLIC m 6e8b8 0 __system_property_serial
PUBLIC m 6e8c4 0 __system_property_wait_any
PUBLIC m 6e8d8 0 __system_property_wait
PUBLIC m 6e8f8 0 __system_property_find_nth
PUBLIC m 6e90c 0 __system_property_foreach
PUBLIC m 6e924 0 __system_property_get_knox_nap
PUBLIC m 6e938 0 __system_property_set_knox_nap
PUBLIC m 6e94c 0 __system_property_set
PUBLIC 6ee84 0 PropertyServiceConnection::PropertyServiceConnection()
PUBLIC 6efe8 0 SocketWriter::WriteString(char const*)
PUBLIC m 6f124 0 tdestroy
PUBLIC m 6f184 0 cfgetispeed
PUBLIC m 6f198 0 cfgetospeed
PUBLIC m 6f1ac 0 cfmakeraw
PUBLIC m 6f1e8 0 cfsetspeed
PUBLIC m 6f240 0 cfsetispeed
PUBLIC m 6f298 0 cfsetospeed
PUBLIC m 6f2f0 0 tcdrain
PUBLIC m 6f300 0 tcflow
PUBLIC m 6f310 0 tcflush
PUBLIC m 6f320 0 tcgetattr
PUBLIC m 6f330 0 tcgetsid
PUBLIC m 6f394 0 tcsendbreak
PUBLIC m 6f3a4 0 tcsetattr
PUBLIC m 6f3e8 0 tcgetpgrp
PUBLIC m 6f44c 0 tcsetpgrp
PUBLIC 6f4a4 0 _thread_arc4_lock
PUBLIC 6f4b4 0 _thread_arc4_unlock
PUBLIC m 6f4c4 0 call_once
PUBLIC m 6f4cc 0 cnd_broadcast
PUBLIC m 6f528 0 cnd_destroy
PUBLIC m 6f530 0 cnd_init
PUBLIC m 6f590 0 cnd_signal
PUBLIC m 6f5ec 0 cnd_timedwait
PUBLIC m 6f648 0 cnd_wait
PUBLIC m 6f6a4 0 mtx_destroy
PUBLIC m 6f6ac 0 mtx_init
PUBLIC m 6f788 0 mtx_lock
PUBLIC m 6f7e4 0 mtx_timedlock
PUBLIC m 6f840 0 mtx_trylock
PUBLIC m 6f89c 0 mtx_unlock
PUBLIC m 6f8f8 0 thrd_create
PUBLIC 6f9a4 0 __bionic_thrd_trampoline(void*)
PUBLIC m 6f9d8 0 thrd_current
PUBLIC m 6f9e0 0 thrd_detach
PUBLIC m 6fa3c 0 thrd_equal
PUBLIC m 6fa44 0 thrd_exit
PUBLIC m 6fa58 0 thrd_join
PUBLIC m 6fad4 0 thrd_sleep
PUBLIC m 6fb08 0 thrd_yield
PUBLIC m 6fb10 0 tss_create
PUBLIC m 6fb6c 0 tss_delete
PUBLIC m 6fb74 0 tss_get
PUBLIC m 6fb7c 0 tss_set
PUBLIC m 6fbd8 0 strptime_l
PUBLIC m 6fbe0 0 timespec_get
PUBLIC m 6fc24 0 tmpfile64
PUBLIC m 6fd5c 0 tempnam
PUBLIC m 6fe20 0 tmpnam
PUBLIC 6fe7c 0 snprintf(char*, unsigned long pass_object_size1, char const*, ...)
PUBLIC m 6ff30 0 umount
PUBLIC m 6ff3c 0 unlink
PUBLIC m 6ff50 0 usleep
PUBLIC m 6ffcc 0 endutent
PUBLIC m 6ffd4 0 setutent
PUBLIC m 6ffdc 0 getutent
PUBLIC m 6ffe8 0 pututline
PUBLIC m 6fff4 0 utmpname
PUBLIC m 70020 0 wait
PUBLIC m 70038 0 waitpid
PUBLIC m 70044 0 waitid
PUBLIC m 70050 0 mbsinit
PUBLIC m 70070 0 mbrtowc
PUBLIC m 70088 0 mbsnrtowcs
PUBLIC m 70288 0 mbsrtowcs
PUBLIC m 7029c 0 wcrtomb
PUBLIC m 702b4 0 wcsnrtombs
PUBLIC m 7048c 0 wcsrtombs
PUBLIC m 704a0 0 wcscasecmp_l
PUBLIC m 704a8 0 wcsncasecmp_l
PUBLIC m 704b0 0 wcscoll_l
PUBLIC m 704b8 0 wcsftime_l
PUBLIC m 704c0 0 wcsxfrm_l
PUBLIC m 704c8 0 wcstod_l
PUBLIC m 704d0 0 wcstof_l
PUBLIC m 704d8 0 wcstol_l
PUBLIC m 704e0 0 wcstoll_l
PUBLIC m 704e8 0 wcstoul_l
PUBLIC m 704f0 0 wcstoull_l
PUBLIC m 704f8 0 wcstold_l
PUBLIC m 70500 0 wcstof
PUBLIC m 70750 0 wcstod
PUBLIC m 709a0 0 wcstold
PUBLIC 70be8 0 wcstod<float>(wchar_t const*, wchar_t**, float (*)(char const*, char**))::{lambda(void*, char*, int)#1}::__invoke(void*, char*, int)
PUBLIC 70bf4 0 wcstod<double>(wchar_t const*, wchar_t**, double (*)(char const*, char**))::{lambda(void*, char*, int)#1}::__invoke(void*, char*, int)
PUBLIC 70c00 0 wcstod<long double>(wchar_t const*, wchar_t**, long double (*)(char const*, char**))::{lambda(void*, char*, int)#1}::__invoke(void*, char*, int)
PUBLIC m 70c0c 0 iswalnum
PUBLIC 70c38 0 isalnum(int)
PUBLIC m 70c58 0 iswalpha
PUBLIC 70c84 0 isalpha(int)
PUBLIC m 70c9c 0 iswblank
PUBLIC 70cc8 0 isblank(int)
PUBLIC m 70cdc 0 iswgraph
PUBLIC 70d08 0 isgraph(int)
PUBLIC m 70d1c 0 iswlower
PUBLIC 70d48 0 islower(int)
PUBLIC m 70d5c 0 iswprint
PUBLIC 70d88 0 isprint(int)
PUBLIC m 70d9c 0 iswspace
PUBLIC 70dc8 0 isspace(int)
PUBLIC m 70de0 0 iswupper
PUBLIC 70e0c 0 isupper(int)
PUBLIC m 70e20 0 iswxdigit
PUBLIC 70e4c 0 isxdigit(int)
PUBLIC m 70e6c 0 iswcntrl
PUBLIC m 70f18 0 iswdigit
PUBLIC m 70fbc 0 iswpunct
PUBLIC m 7106c 0 iswalnum_l
PUBLIC m 71098 0 iswalpha_l
PUBLIC m 710c4 0 iswblank_l
PUBLIC m 710f0 0 iswcntrl_l
PUBLIC m 7119c 0 iswdigit_l
PUBLIC m 71240 0 iswgraph_l
PUBLIC m 7126c 0 iswlower_l
PUBLIC m 71298 0 iswprint_l
PUBLIC m 712c4 0 iswpunct_l
PUBLIC m 71374 0 iswspace_l
PUBLIC m 713a0 0 iswupper_l
PUBLIC m 713cc 0 iswxdigit_l
PUBLIC m 713f8 0 iswctype
PUBLIC m 716ac 0 iswctype_l
PUBLIC m 716b4 0 towlower
PUBLIC m 71764 0 towupper
PUBLIC m 71814 0 towupper_l
PUBLIC m 718c4 0 towlower_l
PUBLIC m 71974 0 wctype
PUBLIC m 71b04 0 wctype_l
PUBLIC m 71b0c 0 wctrans
PUBLIC m 71b64 0 wctrans_l
PUBLIC m 71bbc 0 towctrans
PUBLIC m 71d1c 0 towctrans_l
PUBLIC m 71d24 0 wcwidth
PUBLIC m 71e4c 0 wmempcpy
PUBLIC 71e78 0 __init_tcb(bionic_tcb*, pthread_internal_t*)
PUBLIC 71e84 0 __init_tcb_dtv(bionic_tcb*)
PUBLIC m 71e98 0 android_reset_stack_guards
PUBLIC m 71ec8 0 __stack_chk_fail
PUBLIC m 71ee4 0 getauxval
PUBLIC m 71f48 0 ns_name_ntop
PUBLIC m 72314 0 ns_name_pton
PUBLIC 72320 0 ns_name_pton2
PUBLIC m 72774 0 ns_name_ntol
PUBLIC m 72940 0 ns_name_unpack
PUBLIC 7294c 0 ns_name_unpack2
PUBLIC m 72ae4 0 ns_name_pack
PUBLIC m 72e2c 0 ns_name_uncompress
PUBLIC m 72ee8 0 ns_name_compress
PUBLIC m 72fa8 0 ns_name_rollback
PUBLIC m 72fdc 0 ns_name_skip
PUBLIC m 730a8 0 ns_get16
PUBLIC m 730bc 0 ns_get32
PUBLIC m 730cc 0 ns_put16
PUBLIC m 730e0 0 ns_put32
PUBLIC m 730f0 0 ns_msg_getflag
PUBLIC m 73114 0 ns_skiprr
PUBLIC m 731d4 0 ns_initparse
PUBLIC m 73378 0 ns_parserr
PUBLIC m 7363c 0 ns_sprintrr
PUBLIC m 736b0 0 ns_sprintrrf
PUBLIC 760f4 0 addstr
PUBLIC 76180 0 addtab
PUBLIC 76290 0 addname
PUBLIC 76450 0 charstr
PUBLIC m 76600 0 ns_makecanon
PUBLIC m 766f8 0 ns_samename
PUBLIC m 768d4 0 ns_format_ttl
PUBLIC 76c24 0 snprintf(char*, unsigned long pass_object_size1, char const*, ...)
PUBLIC m 76cd8 0 gai_strerror
PUBLIC m 76cfc 0 freeaddrinfo
PUBLIC 76d4c 0 readBE32
PUBLIC m 76dcc 0 getaddrinfo
PUBLIC m 76e30 0 android_getaddrinfofornet
PUBLIC m 76e98 0 android_getaddrinfofornetcontext
PUBLIC 77704 0 android_getaddrinfo_proxy
PUBLIC 77aa4 0 _files_getaddrinfo
PUBLIC 77dc4 0 _dns_getaddrinfo
PUBLIC 785e0 0 get_port
PUBLIC 7874c 0 getanswer
PUBLIC 78cec 0 _find_src_addr
PUBLIC 78e64 0 res_queryN
PUBLIC m 79060 0 snprintf(char*, unsigned long pass_object_size1, char const*, ...)
PUBLIC 79114 0 get_ai
PUBLIC 791b4 0 _rfc6724_compare
PUBLIC 79abc 0 _common_prefix_len
PUBLIC 79b74 0 explore_numeric
PUBLIC m 79d4c 0 gethostbyname_r
PUBLIC 79e60 0 gethostbyname_internal
PUBLIC m 7a268 0 gethostbyname2_r
PUBLIC m 7a334 0 gethostbyaddr_r
PUBLIC 7a3a4 0 android_gethostbyaddrfornetcontext_proxy_internal
PUBLIC 7a630 0 netbsd_gethostent_r
PUBLIC 7aa58 0 map_v4v6_address
PUBLIC m 7aaac 0 gethostbyname
PUBLIC m 7ab38 0 gethostbyname2
PUBLIC m 7abe8 0 android_gethostbynamefornet
PUBLIC m 7acbc 0 android_gethostbynamefornetcontext
PUBLIC m 7ad50 0 gethostbyaddr
PUBLIC 7adc4 0 android_gethostbyaddrfornetcontext_proxy
PUBLIC m 7ae38 0 android_gethostbyaddrfornet
PUBLIC m 7aeec 0 android_gethostbyaddrfornetcontext
PUBLIC m 7af60 0 gethostent
PUBLIC 7b00c 0 android_read_hostent
PUBLIC 7b3cc 0 _dns_gethtbyname
PUBLIC 7b5ac 0 map_v4v6_hostent
PUBLIC 7b680 0 getanswer
PUBLIC 7c0b4 0 addrsort
PUBLIC 7c224 0 _dns_gethtbyaddr
PUBLIC m 7c5dc 0 getnameinfo
PUBLIC 7c608 0 android_getnameinfofornet
PUBLIC 7ca5c 0 snprintf(char*, unsigned long pass_object_size1, char const*, ...)
PUBLIC 7cb10 0 ip6_parsenumeric
PUBLIC 7ccfc 0 getservent_r
PUBLIC m 7ce74 0 setservent
PUBLIC m 7ce98 0 endservent
PUBLIC m 7cebc 0 getservent
PUBLIC m 7cee8 0 getservbyname
PUBLIC m 7cf78 0 getservbyport
PUBLIC m 7d004 0 nsdispatch
PUBLIC m 7d1bc 0 sethostent
PUBLIC 7d218 0 sethostent_r
PUBLIC m 7d26c 0 endhostent
PUBLIC 7d2a8 0 _hf_gethtbyname
PUBLIC 7d7c8 0 _hf_gethtbyaddr
PUBLIC m 7d938 0 herror
PUBLIC m 7daac 0 hstrerror
PUBLIC 7dae4 0 _resolv_cache_query_failed
PUBLIC 7dbf4 0 entry_init_key
PUBLIC 7dfe8 0 _resolv_cache_lookup
PUBLIC 7e28c 0 _res_cache_init
PUBLIC 7e2c4 0 _cache_lookup_p
PUBLIC 7e630 0 _resolv_cache_add
PUBLIC m 7eaac 0 _resolv_flush_cache_for_net
PUBLIC m 7eb50 0 _resolv_delete_cache_for_net
PUBLIC 7ec58 0 _cache_flush_locked
PUBLIC m 7ed1c 0 _resolv_set_nameservers_for_net
PUBLIC 7f248 0 snprintf(char*, unsigned long pass_object_size1, char const*, ...)
PUBLIC 7f2fc 0 _resolv_populate_res_for_net
PUBLIC m 7f574 0 android_net_res_stats_get_info_for_net
PUBLIC 7f910 0 _resolv_cache_get_resolver_stats
PUBLIC 7f9ac 0 _resolv_cache_add_resolver_stats_sample
PUBLIC m 7fa90 0 dn_expand
PUBLIC m 7fad4 0 __dn_comp
PUBLIC m 7fae0 0 __dn_skipname
PUBLIC m 7fb48 0 __res_hnok
PUBLIC m 7fbf8 0 __res_ownok
PUBLIC m 7fd60 0 __res_mailok
PUBLIC m 7fe60 0 __res_dnok
PUBLIC m 7fe8c 0 __putlong
PUBLIC m 7fe94 0 __putshort
PUBLIC m 7fe9c 0 _getlong
PUBLIC m 7fea4 0 _getshort
PUBLIC m 7feac 0 res_init
PUBLIC m 7fffc 0 __p_query
PUBLIC m 80014 0 __fp_query
PUBLIC m 80024 0 __fp_nquery
PUBLIC m 8011c 0 res_mkquery
PUBLIC m 80270 0 res_query
PUBLIC m 8038c 0 __res_send_setqhook
PUBLIC m 80460 0 __res_send_setrhook
PUBLIC m 80534 0 __res_isourserver
PUBLIC m 80620 0 __res_send
PUBLIC m 8072c 0 __res_close
PUBLIC m 807fc 0 res_search
PUBLIC m 80918 0 __res_querydomain
PUBLIC m 80a3c 0 __hostalias
PUBLIC 80a48 0 __res_pquery
PUBLIC m 8103c 0 __p_rcode
PUBLIC 810b0 0 do_section
PUBLIC m 816d8 0 __p_cdnname
PUBLIC m 817a0 0 __p_cdname
PUBLIC m 81864 0 __p_fqnname
PUBLIC m 818fc 0 __p_fqname
PUBLIC m 819f0 0 __sym_ston
PUBLIC m 81a7c 0 __sym_ntos
PUBLIC m 81b04 0 __sym_ntop
PUBLIC m 81b90 0 __p_type
PUBLIC m 81c38 0 __p_class
PUBLIC m 81d20 0 __p_option
PUBLIC m 81f1c 0 __p_time
PUBLIC m 81f80 0 __loc_aton
PUBLIC 826e0 0 latlon2ul
PUBLIC m 829a4 0 __loc_ntoa
PUBLIC m 82d9c 0 __dn_count_labels
PUBLIC m 82fcc 0 __p_secstodate
PUBLIC m 83064 0 __res_ninit
PUBLIC 83088 0 __res_vinit
PUBLIC 837b8 0 __res_ndestroy
PUBLIC 83860 0 __res_setservers
PUBLIC m 83960 0 __res_nclose
PUBLIC 839ec 0 res_setnetcontext
PUBLIC m 83a28 0 __res_nmkquery
PUBLIC 83d38 0 __res_nopt
PUBLIC m 83e8c 0 __res_nquery
PUBLIC m 840e4 0 __res_nsearch
PUBLIC m 84410 0 __res_hostalias
PUBLIC m 8441c 0 __res_nquerydomain
PUBLIC 8459c 0 __res_ourserver_p
PUBLIC m 84704 0 __res_nameinquery
PUBLIC m 8482c 0 __res_queriesmatch
PUBLIC m 8499c 0 __res_nsend
PUBLIC 86498 0 random_bind
PUBLIC 865a4 0 Aerror
PUBLIC 866e0 0 retrying_poll
PUBLIC 8682c 0 __res_key_init
PUBLIC 86844 0 _res_thread_free
PUBLIC m 8688c 0 __get_h_errno
PUBLIC 868b8 0 _res_thread_get
PUBLIC 8697c 0 __res_get_state
PUBLIC 869a4 0 __res_get_static
PUBLIC 869d0 0 _res_stats_calculate_rtt
PUBLIC 86a3c 0 _res_stats_set_sample
PUBLIC m 86a50 0 android_net_res_stats_aggregate
PUBLIC 86b58 0 _res_stats_usable_server
PUBLIC m 86c88 0 android_net_res_stats_get_usable_servers
PUBLIC 86da8 0 __evConsIovec
PUBLIC 86dfc 0 __evAddTime
PUBLIC 86e2c 0 __evSubTime
PUBLIC 86e54 0 __evCmpTime
PUBLIC 86e78 0 __evNowTime
PUBLIC m 86f08 0 __FD_ISSET_chk
PUBLIC m 86f98 0 __FD_CLR_chk
PUBLIC m 87030 0 __FD_SET_chk
PUBLIC m 870c8 0 __fgets_chk
PUBLIC 87110 0 __check_buffer_access(char const*, char const*, unsigned long, unsigned long)
PUBLIC m 87144 0 __fread_chk
PUBLIC m 87190 0 __fwrite_chk
PUBLIC m 871dc 0 __getcwd_chk
PUBLIC m 87220 0 __memchr_chk
PUBLIC m 8725c 0 __memmove_chk
PUBLIC 87298 0 __memcpy_chk_fail
PUBLIC 872e8 0 __check_count(char const*, char const*, unsigned long)
PUBLIC m 87318 0 __memrchr_chk
PUBLIC 87354 0 __memset_chk_fail
PUBLIC m 873a4 0 __poll_chk
PUBLIC m 873ec 0 __ppoll_chk
PUBLIC m 87434 0 __ppoll64_chk
PUBLIC m 8747c 0 __pread64_chk
PUBLIC m 874e8 0 __pread_chk
PUBLIC m 87554 0 __pwrite64_chk
PUBLIC m 875c0 0 __pwrite_chk
PUBLIC m 8762c 0 __read_chk
PUBLIC m 8769c 0 __readlinkat_chk
PUBLIC m 87700 0 __readlink_chk
PUBLIC m 87770 0 __recvfrom_chk
PUBLIC m 877bc 0 __sendto_chk
PUBLIC m 87808 0 __stpcpy_chk
PUBLIC m 87878 0 __stpncpy_chk
PUBLIC m 878b4 0 __stpncpy_chk2
PUBLIC m 87a10 0 __strchr_chk
PUBLIC m 87a5c 0 __strlcat_chk
PUBLIC m 87a98 0 __strlcpy_chk
PUBLIC m 87ad4 0 __strlen_chk
PUBLIC m 87b10 0 __strncat_chk
PUBLIC m 87ba8 0 __strncpy_chk
PUBLIC m 87be4 0 __strncpy_chk2
PUBLIC m 87d40 0 __strrchr_chk
PUBLIC m 87d90 0 __umask_chk
PUBLIC m 87dc0 0 __vsnprintf_chk
PUBLIC m 87e50 0 __snprintf_chk
PUBLIC m 87f24 0 __vsprintf_chk
PUBLIC m 87fc4 0 __sprintf_chk
PUBLIC m 880b4 0 __write_chk
PUBLIC m 88124 0 __strcat_chk
PUBLIC m 881a0 0 __strcpy_chk
PUBLIC m 88210 0 __mempcpy_chk
PUBLIC m 88280 0 __memcpy_chk
PUBLIC m 882a0 0 __memset_chk
PUBLIC m 882b8 0 ldexp
PUBLIC m 88404 0 getopt
PUBLIC 88418 0 getopt_internal
PUBLIC m 88b18 0 getopt_long
PUBLIC m 88b24 0 getopt_long_only
PUBLIC 88b30 0 permute_args
PUBLIC 88be8 0 parse_long_options
PUBLIC m 88fc4 0 hcreate
PUBLIC m 88fd0 0 hdestroy
PUBLIC m 89010 0 hsearch
PUBLIC m 890d0 0 hcreate_r
PUBLIC m 89148 0 hdestroy_r
PUBLIC m 89178 0 hsearch_r
PUBLIC m 893b8 0 qsort
PUBLIC m 8a0d0 0 at_quick_exit
PUBLIC m 8a13c 0 quick_exit
PUBLIC m 8a174 0 wcpcpy
PUBLIC m 8a198 0 wcpncpy
PUBLIC m 8a244 0 wcscasecmp
PUBLIC m 8a2ac 0 wcscat
PUBLIC m 8a2d4 0 wcschr
PUBLIC m 8a2f8 0 wcscmp
PUBLIC m 8a324 0 wcscpy
PUBLIC m 8a340 0 wcscspn
PUBLIC m 8a390 0 wcsdup
PUBLIC m 8a3e0 0 wcslcat
PUBLIC m 8a490 0 wcslen
PUBLIC m 8a4b0 0 wcsncasecmp
PUBLIC m 8a530 0 wcsncat
PUBLIC m 8a56c 0 wcsncmp
PUBLIC m 8a5b0 0 wcsncpy
PUBLIC m 8a658 0 wcsnlen
PUBLIC m 8a68c 0 wcspbrk
PUBLIC m 8a6d4 0 wcsrchr
PUBLIC m 8a6fc 0 wcsspn
PUBLIC m 8a750 0 wcsstr
PUBLIC m 8a7dc 0 wcstok
PUBLIC m 8a864 0 wmemchr
PUBLIC m 8a88c 0 wmemcmp
PUBLIC m 8a8c8 0 wmemcpy
PUBLIC m 8a8d4 0 wmemmove
PUBLIC m 8a8e0 0 wmemset
PUBLIC m 8a93c 0 glob
PUBLIC 8abe0 0 glob0
PUBLIC m 8b0c4 0 globfree
PUBLIC 8b134 0 globexp1
PUBLIC 8b4b4 0 compare
PUBLIC 8b4c4 0 g_Ctoc
PUBLIC 8b584 0 glob2
PUBLIC 8bc14 0 g_stat
PUBLIC 8bce4 0 globextend
PUBLIC 8bea4 0 g_opendir
PUBLIC 8bf7c 0 __rv_alloc_D2A
PUBLIC 8bfe0 0 __nrv_alloc_D2A
PUBLIC 8c080 0 __freedtoa
PUBLIC 8c098 0 __quorem_D2A
PUBLIC 8c1dc 0 __dtoa
PUBLIC 8d0bc 0 __gdtoa
PUBLIC 8e3dc 0 __gethex_D2A
PUBLIC 8eb2c 0 __rshift_D2A
PUBLIC 8ec7c 0 __trailz_D2A
PUBLIC 8ed14 0 __hexdig_init_D2A
PUBLIC 8ed54 0 __hdtoa
PUBLIC 8f12c 0 __hldtoa
PUBLIC 8f8bc 0 __hexnan_D2A
PUBLIC 8fc54 0 __ldtoa
PUBLIC 8fdfc 0 __Balloc_D2A
PUBLIC 8fedc 0 __Bfree_D2A
PUBLIC 8ff64 0 __lo0bits_D2A
PUBLIC 9001c 0 __multadd_D2A
PUBLIC 9013c 0 __hi0bits_D2A
PUBLIC 901b8 0 __i2b_D2A
PUBLIC 9026c 0 __mult_D2A
PUBLIC 903e0 0 __pow5mult_D2A
PUBLIC 90844 0 __lshift_D2A
PUBLIC 90a58 0 __cmp_D2A
PUBLIC 90ab8 0 __diff_D2A
PUBLIC 90cb0 0 __b2d_D2A
PUBLIC 90df4 0 __d2b_D2A
PUBLIC 91110 0 __s2b_D2A
PUBLIC 91224 0 __ratio_D2A
PUBLIC 912f0 0 __match_D2A
PUBLIC 9133c 0 __copybits_D2A
PUBLIC 91478 0 __any_on_D2A
PUBLIC m 914e0 0 strtod
PUBLIC 9250c 0 __sulp_D2A
PUBLIC 92560 0 __increment_D2A
PUBLIC 92620 0 __set_ones_D2A
PUBLIC 92718 0 __strtodg
PUBLIC 940cc 0 rvOK
PUBLIC m 9446c 0 strtof
PUBLIC 94554 0 __ULtod_D2A
PUBLIC 9462c 0 __sum_D2A
PUBLIC 947a4 0 __ulp_D2A
PUBLIC 9481c 0 __strtorQ
PUBLIC m 94964 0 srandom
PUBLIC m 94a7c 0 initstate
PUBLIC m 94c88 0 setstate
PUBLIC m 94db8 0 random
PUBLIC m 94e7c 0 nice
PUBLIC m 94f14 0 psignal
PUBLIC m 95030 0 psiginfo
PUBLIC m 9503c 0 utime
PUBLIC m 950a4 0 inet_nsap_addr
PUBLIC m 951e4 0 inet_nsap_ntoa
PUBLIC 952a4 0 __regex_wctype
PUBLIC 95418 0 __regex_iswctype
PUBLIC m 95444 0 regcomp
PUBLIC 95c84 0 isalnum
PUBLIC 95ca4 0 isalpha
PUBLIC 95cbc 0 isblank
PUBLIC 95cd0 0 iscntrl
PUBLIC 95ce8 0 isdigit
PUBLIC 95cfc 0 isgraph
PUBLIC 95d10 0 islower
PUBLIC 95d24 0 isprint
PUBLIC 95d38 0 ispunct
PUBLIC 95d58 0 isspace
PUBLIC 95d70 0 isupper
PUBLIC 95d84 0 isxdigit
PUBLIC 95da4 0 p_ere_exp
PUBLIC 96ad4 0 p_simp_re
PUBLIC 97794 0 p_bre_pre_parse
PUBLIC 97874 0 p_bre_post_parse
PUBLIC 97948 0 doemit
PUBLIC 979f8 0 p_re
PUBLIC 97f0c 0 p_bracket
PUBLIC 98a58 0 p_b_pseudoclass
PUBLIC 98c14 0 ordinary
PUBLIC 98d78 0 dupl
PUBLIC 98e20 0 doinsert
PUBLIC 98ffc 0 p_count
PUBLIC 99094 0 repeat
PUBLIC 9973c 0 CHadd
PUBLIC 9989c 0 p_b_cclass_named
PUBLIC 999ac 0 p_b_coll_elem
PUBLIC 99ac0 0 CHIN1
PUBLIC 99c30 0 altoffset
PUBLIC m 99d58 0 regerror
PUBLIC 9a050 0 snprintf(char*, unsigned long pass_object_size1, char const*, ...)
PUBLIC m 9a104 0 regexec
PUBLIC m 9b014 0 mwalk
PUBLIC m 9b5c4 0 mdissect
PUBLIC m 9b938 0 mbackref
PUBLIC m 9c0ec 0 mstep
PUBLIC 9c530 0 CHIN1
PUBLIC 9c684 0 swalk
PUBLIC 9cb5c 0 sdissect
PUBLIC 9ced0 0 sstep
PUBLIC m 9d2c0 0 regfree
PUBLIC m 9d3c4 0 bsearch
PUBLIC m 9d44c 0 drand48
PUBLIC m 9d45c 0 erand48
PUBLIC m 9d4cc 0 jrand48
PUBLIC m 9d500 0 lcong48
PUBLIC m 9d554 0 lrand48
PUBLIC m 9d594 0 mrand48
PUBLIC m 9d5d0 0 nrand48
PUBLIC 9d608 0 __dorand48
PUBLIC m 9d67c 0 rand_r
PUBLIC m 9d6a4 0 seed48
PUBLIC m 9d714 0 srand48
PUBLIC m 9d760 0 arc4random
PUBLIC m 9d810 0 arc4random_buf
PUBLIC 9d8d8 0 _rs_stir_if_needed
PUBLIC 9da28 0 _rs_rekey
PUBLIC 9df44 0 _rs_init
PUBLIC m 9e044 0 arc4random_uniform
PUBLIC m 9e09c 0 stpncpy
PUBLIC m 9e1ac 0 strcat
PUBLIC m 9e1d4 0 strlcat
PUBLIC m 9e27c 0 strlcpy
PUBLIC m 9e2c0 0 strncat
PUBLIC m 9e2fc 0 strncpy
PUBLIC 9e404 0 __vfprintf
PUBLIC a1044 0 __find_arguments(char const*, std::__va_list, arg**, unsigned long*)
PUBLIC a1bc8 0 helpers::wcsconv(wchar_t*, int)
PUBLIC m a1d0c 0 __grow_type_table(unsigned char**, int*)
PUBLIC a1dfc 0 __vfwprintf
PUBLIC a4e04 0 helpers::xfputwc(wchar_t, __sFILE*)
PUBLIC a4f08 0 __find_arguments(wchar_t const*, std::__va_list, arg**, unsigned long*)
PUBLIC a5a84 0 helpers::mbsconv(char*, int)
PUBLIC a5bc4 0 exponent<wchar_t>(wchar_t*, int, int)
PUBLIC m a5d34 0 memmem
PUBLIC a5eb8 0 twobyte_memmem
PUBLIC a5f14 0 twoway_memmem
PUBLIC m a6218 0 strstr
PUBLIC a633c 0 fourbyte_strstr
PUBLIC a63ac 0 twoway_strstr
PUBLIC m a670c 0 alarm
PUBLIC m a6790 0 daemon
PUBLIC m a684c 0 err
PUBLIC m a68b8 0 errx
PUBLIC m a6924 0 fnmatch
PUBLIC a6e08 0 fnmatch_ch
PUBLIC a744c 0 isupper
PUBLIC a7460 0 isalnum
PUBLIC a7480 0 isalpha
PUBLIC a7498 0 isblank
PUBLIC a74ac 0 iscntrl
PUBLIC a74c4 0 isdigit
PUBLIC a74d8 0 isgraph
PUBLIC a74ec 0 islower
PUBLIC a7500 0 isprint
PUBLIC a7514 0 ispunct
PUBLIC a7534 0 isspace
PUBLIC a754c 0 isxdigit
PUBLIC m a756c 0 ftok
PUBLIC m a75f0 0 getprogname
PUBLIC m a7604 0 setprogname
PUBLIC m a7644 0 verr
PUBLIC m a76ec 0 verrx
PUBLIC m a7768 0 vwarn
PUBLIC m a7840 0 vwarnx
PUBLIC m a78e8 0 warn
PUBLIC m a798c 0 warnx
PUBLIC m a7a30 0 btowc
PUBLIC m a7ab0 0 mbrlen
PUBLIC m a7ad8 0 mbstowcs
PUBLIC m a7b30 0 mbtowc
PUBLIC m a7b98 0 wcscoll
PUBLIC m a7ba0 0 wcstombs
PUBLIC m a7bf8 0 wcsxfrm
PUBLIC m a7c0c 0 wctob
PUBLIC m a7c88 0 wctomb
PUBLIC m a7cc0 0 __b64_ntop
PUBLIC m a7e40 0 __b64_pton
PUBLIC m a8094 0 htonl
PUBLIC m a80a0 0 htons
PUBLIC m a80b0 0 inet_lnaof
PUBLIC m a80e0 0 inet_makeaddr
PUBLIC m a8128 0 inet_netof
PUBLIC m a8158 0 inet_ntoa
PUBLIC a818c 0 snprintf(char*, unsigned long pass_object_size1, char const*, ...)
PUBLIC m a8248 0 inet_ntop
PUBLIC m a87c0 0 inet_pton
PUBLIC m a8d4c 0 ntohl
PUBLIC m a8d58 0 ntohs
PUBLIC m a8d68 0 __res_randomid
PUBLIC m a91a8 0 fgetln
PUBLIC a9384 0 __fgetwc_unlock
PUBLIC m a94ac 0 fgetwc
PUBLIC m a9508 0 fgetws
PUBLIC a9610 0 __sflags
PUBLIC m a96d4 0 fpurge
PUBLIC a97ac 0 __fputwc_unlock
PUBLIC m a98a4 0 fputwc
PUBLIC m a9908 0 fputws
PUBLIC a99a8 0 __sfvwrite
PUBLIC m a9d68 0 fwide
PUBLIC m a9e10 0 getdelim
PUBLIC m aa01c 0 gets
PUBLIC aa0b8 0 __smakebuf
PUBLIC aa1dc 0 __swhatbuf
PUBLIC aa2a8 0 mktemp_internal
PUBLIC m aa4f4 0 mktemp
PUBLIC m aa530 0 mkostemps
PUBLIC m aa540 0 mkstemp
PUBLIC m aa554 0 mkostemp
PUBLIC m aa568 0 mkstemps
PUBLIC m aa578 0 mkdtemp
PUBLIC m aa5b4 0 open_memstream
PUBLIC aa6bc 0 memstream_write
PUBLIC aa7d8 0 memstream_seek
PUBLIC aa874 0 memstream_close
PUBLIC m aa894 0 open_wmemstream
PUBLIC aa99c 0 wmemstream_write
PUBLIC aaad4 0 wmemstream_seek
PUBLIC aab6c 0 wmemstream_close
PUBLIC aab8c 0 __srget
PUBLIC m aabf8 0 setvbuf
PUBLIC m aadfc 0 ungetc
PUBLIC ab02c 0 __ungetwc
PUBLIC m ab0ac 0 ungetwc
PUBLIC m ab164 0 vasprintf
PUBLIC m ab2e8 0 vdprintf
PUBLIC ab428 0 __dwrite
PUBLIC m ab450 0 vsscanf
PUBLIC ab53c 0 eofread
PUBLIC m ab548 0 vswprintf
PUBLIC m ab728 0 vswscanf
PUBLIC ab8a8 0 eofread
PUBLIC ab8b4 0 __swbuf
PUBLIC ab9ac 0 __swsetup
PUBLIC m aba88 0 abs
PUBLIC m aba98 0 div
PUBLIC abacc 0 __findenv
PUBLIC m abb74 0 getenv
PUBLIC m abc30 0 getsubopt
PUBLIC m abdb0 0 insque
PUBLIC m abddc 0 imaxabs
PUBLIC m abdec 0 imaxdiv
PUBLIC m abe1c 0 labs
PUBLIC m abe2c 0 ldiv
PUBLIC m abe5c 0 qabs
PUBLIC m abe6c 0 qdiv
PUBLIC m abe9c 0 lsearch
PUBLIC m abf4c 0 lfind
PUBLIC abfc4 0 recallocarray
PUBLIC m ac10c 0 remque
PUBLIC m ac134 0 putenv
PUBLIC m ac2c8 0 setenv
PUBLIC m ac504 0 unsetenv
PUBLIC m ac5f4 0 tfind
PUBLIC m ac680 0 tsearch
PUBLIC m ac728 0 tdelete
PUBLIC m ac82c 0 twalk
PUBLIC ac844 0 trecurse
PUBLIC m ac8f0 0 memccpy
PUBLIC m ac92c 0 strcasecmp
PUBLIC m ac968 0 strncasecmp
PUBLIC m ac9bc 0 strcasestr
PUBLIC m aca6c 0 strcoll
PUBLIC m aca74 0 strcspn
PUBLIC m acaac 0 strdup
PUBLIC m acb08 0 strndup
PUBLIC m acb64 0 strpbrk
PUBLIC m acbac 0 strsep
PUBLIC m acc00 0 strspn
PUBLIC m acc38 0 strtok
PUBLIC m accc4 0 strtok_r
PUBLIC m acd4c 0 strxfrm
PUBLIC m acd68 0 wcslcpy
PUBLIC m acdb0 0 wcswidth
PUBLIC ace20 0 __fts_open
PUBLIC ad210 0 fts_stat
PUBLIC ad414 0 fts_sort
PUBLIC m ad4e4 0 fts_close
PUBLIC m ad5d0 0 fts_read
PUBLIC ad9ec 0 fts_safe_changedir
PUBLIC adb20 0 fts_build
PUBLIC ae27c 0 fts_load
PUBLIC m ae328 0 fts_set
PUBLIC m ae368 0 fts_children
PUBLIC m ae4ac 0 fts_open
PUBLIC ae4e8 0 __set_errno_internal
PUBLIC m ae520 0 getuid
PUBLIC m ae540 0 getgid
PUBLIC m ae560 0 geteuid
PUBLIC m ae580 0 getegid
PUBLIC m ae5a0 0 getresuid
PUBLIC m ae5c0 0 getresgid
PUBLIC m ae5e0 0 getgroups
PUBLIC m ae600 0 setgid
PUBLIC m ae620 0 setuid
PUBLIC m ae640 0 setreuid
PUBLIC m ae660 0 setresuid
PUBLIC m ae680 0 setresgid
PUBLIC m ae6a0 0 setfsgid
PUBLIC m ae6c0 0 setfsuid
PUBLIC m ae6e0 0 readahead
PUBLIC m ae700 0 getpgid
PUBLIC m ae720 0 getppid
PUBLIC m ae740 0 getsid
PUBLIC m ae760 0 setsid
PUBLIC m ae780 0 kill
PUBLIC m ae7a0 0 tgkill
PUBLIC ae7c0 0 __brk
PUBLIC ae7e0 0 __execve
PUBLIC ae800 0 __ptrace
PUBLIC m ae820 0 getrusage
PUBLIC ae840 0 __getpriority
PUBLIC m ae860 0 setpriority
PUBLIC m ae880 0 getrlimit
PUBLIC m ae8a0 0 setrlimit
PUBLIC m ae8c0 0 prlimit64
PUBLIC m ae8e0 0 setgroups
PUBLIC m ae900 0 setpgid
PUBLIC m ae920 0 setregid
PUBLIC m ae940 0 chroot
PUBLIC m ae960 0 prctl
PUBLIC m ae980 0 capget
PUBLIC m ae9a0 0 capset
PUBLIC m ae9c0 0 sigaltstack
PUBLIC m ae9e0 0 acct
PUBLIC m aea00 0 read
PUBLIC m aea20 0 write
PUBLIC m aea40 0 pread64
PUBLIC m aea60 0 pwrite64
PUBLIC aea80 0 __preadv64
PUBLIC aeaa0 0 __pwritev64
PUBLIC aeac0 0 __preadv64v2
PUBLIC aeae0 0 __pwritev64v2
PUBLIC aeb00 0 __close
PUBLIC m aeb20 0 close_range
PUBLIC m aeb40 0 copy_file_range
PUBLIC aeb60 0 __getpid
PUBLIC m aeb80 0 memfd_create
PUBLIC m aeba0 0 munmap
PUBLIC aebc0 0 __mremap
PUBLIC m aebe0 0 msync
PUBLIC m aec00 0 mprotect
PUBLIC m aec20 0 madvise
PUBLIC m aec40 0 process_madvise
PUBLIC m aec60 0 mlock
PUBLIC m aec80 0 mlock2
PUBLIC m aeca0 0 munlock
PUBLIC m aecc0 0 mlockall
PUBLIC m aece0 0 munlockall
PUBLIC m aed00 0 mincore
PUBLIC aed20 0 __ioctl
PUBLIC m aed40 0 readv
PUBLIC m aed60 0 writev
PUBLIC aed80 0 __fcntl
PUBLIC m aeda0 0 flock
PUBLIC aedc0 0 __fchmod
PUBLIC aede0 0 __pipe2
PUBLIC aee00 0 __dup
PUBLIC aee20 0 __dup3
PUBLIC m aee40 0 fsync
PUBLIC m aee60 0 fdatasync
PUBLIC m aee80 0 fchown
PUBLIC m aeea0 0 sync
PUBLIC m aeec0 0 syncfs
PUBLIC aeee0 0 __fsetxattr
PUBLIC aef00 0 __fgetxattr
PUBLIC aef20 0 __flistxattr
PUBLIC m aef40 0 fremovexattr
PUBLIC aef60 0 __getdents64
PUBLIC aef80 0 __openat
PUBLIC aefa0 0 __faccessat
PUBLIC aefc0 0 __fchmodat
PUBLIC m aefe0 0 fchownat
PUBLIC m af000 0 fstatat
PUBLIC m af020 0 linkat
PUBLIC m af040 0 mkdirat
PUBLIC m af060 0 mknodat
PUBLIC m af080 0 readlinkat
PUBLIC m af0a0 0 renameat2
PUBLIC m af0c0 0 symlinkat
PUBLIC m af0e0 0 unlinkat
PUBLIC m af100 0 utimensat
PUBLIC m af120 0 lseek
PUBLIC m af140 0 ftruncate
PUBLIC m af160 0 sendfile
PUBLIC m af180 0 truncate
PUBLIC m af1a0 0 mmap
PUBLIC m af1c0 0 fallocate
PUBLIC af1e0 0 __fadvise64
PUBLIC af200 0 __fstatfs
PUBLIC af220 0 __statfs
PUBLIC m af240 0 fstat
PUBLIC m af260 0 chdir
PUBLIC m af280 0 mount
PUBLIC m af2a0 0 umount2
PUBLIC af2c0 0 __getcwd
PUBLIC m af2e0 0 fchdir
PUBLIC m af300 0 setxattr
PUBLIC m af320 0 lsetxattr
PUBLIC m af340 0 getxattr
PUBLIC m af360 0 lgetxattr
PUBLIC m af380 0 listxattr
PUBLIC m af3a0 0 llistxattr
PUBLIC m af3c0 0 removexattr
PUBLIC m af3e0 0 lremovexattr
PUBLIC m af400 0 statx
PUBLIC m af420 0 swapon
PUBLIC m af440 0 swapoff
PUBLIC m af460 0 settimeofday
PUBLIC m af480 0 times
PUBLIC m af4a0 0 nanosleep
PUBLIC m af4c0 0 clock_settime
PUBLIC af4e0 0 __clock_nanosleep
PUBLIC m af500 0 getitimer
PUBLIC m af520 0 setitimer
PUBLIC af540 0 __timer_create
PUBLIC af560 0 __timer_settime
PUBLIC af580 0 __timer_gettime
PUBLIC af5a0 0 __timer_getoverrun
PUBLIC af5c0 0 __timer_delete
PUBLIC m af5e0 0 timerfd_create
PUBLIC m af600 0 timerfd_settime
PUBLIC m af620 0 timerfd_gettime
PUBLIC m af640 0 adjtimex
PUBLIC m af660 0 clock_adjtime
PUBLIC af680 0 __rt_sigaction
PUBLIC af6a0 0 __rt_sigpending
PUBLIC af6c0 0 __rt_sigprocmask
PUBLIC af6e0 0 __rt_sigsuspend
PUBLIC af700 0 __rt_sigtimedwait
PUBLIC af720 0 __rt_sigqueueinfo
PUBLIC af740 0 __signalfd4
PUBLIC af760 0 __socket
PUBLIC af780 0 __socketpair
PUBLIC m af7a0 0 bind
PUBLIC af7c0 0 __connect
PUBLIC m af7e0 0 listen
PUBLIC af800 0 __accept4
PUBLIC m af820 0 getsockname
PUBLIC m af840 0 getpeername
PUBLIC af860 0 __sendto
PUBLIC m af880 0 recvfrom
PUBLIC m af8a0 0 shutdown
PUBLIC m af8c0 0 setsockopt
PUBLIC m af8e0 0 getsockopt
PUBLIC af900 0 __recvmsg
PUBLIC af920 0 __sendmsg
PUBLIC af940 0 __recvmmsg
PUBLIC af960 0 __sendmmsg
PUBLIC m af980 0 sched_setscheduler
PUBLIC m af9a0 0 sched_getscheduler
PUBLIC m af9c0 0 sched_yield
PUBLIC m af9e0 0 sched_setparam
PUBLIC m afa00 0 sched_getparam
PUBLIC m afa20 0 sched_get_priority_max
PUBLIC m afa40 0 sched_get_priority_min
PUBLIC m afa60 0 sched_rr_get_interval
PUBLIC m afa80 0 sched_setaffinity
PUBLIC m afaa0 0 setns
PUBLIC m afac0 0 unshare
PUBLIC afae0 0 __sched_getaffinity
PUBLIC afb00 0 __getcpu
PUBLIC m afb20 0 uname
PUBLIC m afb40 0 umask
PUBLIC afb60 0 __reboot
PUBLIC m afb80 0 init_module
PUBLIC m afba0 0 delete_module
PUBLIC m afbc0 0 klogctl
PUBLIC m afbe0 0 sysinfo
PUBLIC m afc00 0 personality
PUBLIC afc20 0 bpf
PUBLIC m afc40 0 tee
PUBLIC m afc60 0 splice
PUBLIC m afc80 0 vmsplice
PUBLIC afca0 0 __epoll_create1
PUBLIC m afcc0 0 epoll_ctl
PUBLIC afce0 0 __epoll_pwait
PUBLIC afd00 0 __eventfd
PUBLIC afd20 0 __exit_group
PUBLIC afd40 0 __exit
PUBLIC m afd60 0 inotify_init1
PUBLIC m afd80 0 inotify_add_watch
PUBLIC m afda0 0 inotify_rm_watch
PUBLIC afdc0 0 __pselect6
PUBLIC afde0 0 __ppoll
PUBLIC m afe00 0 process_vm_readv
PUBLIC m afe20 0 process_vm_writev
PUBLIC m afe40 0 quotactl
PUBLIC afe60 0 __set_tid_address
PUBLIC m afe80 0 setdomainname
PUBLIC m afea0 0 sethostname
PUBLIC afec0 0 __sync_file_range
PUBLIC m afee0 0 wait4
PUBLIC aff00 0 __waitid
PUBLIC aff20 0 __clock_getres
PUBLIC aff40 0 __clock_gettime
PUBLIC aff60 0 __gettimeofday
PUBLIC m aff80 0 getrandom
PUBLIC affa0 0 __pidfd_open
PUBLIC affc0 0 __pidfd_getfd
PUBLIC m affe0 0 pidfd_send_signal
PUBLIC m afffc 0 asctime_r
PUBLIC b01a8 0 snprintf(char*, unsigned long pass_object_size1, char const*, ...)
PUBLIC m b025c 0 asctime
PUBLIC m b026c 0 difftime
PUBLIC b0290 0 tzsetlcl
PUBLIC b058c 0 zoneinit
PUBLIC m b0734 0 tzset
PUBLIC b0774 0 localsub
PUBLIC m b0a54 0 localtime
PUBLIC m b0ad4 0 localtime_r
PUBLIC m b0b5c 0 gmtime_r
PUBLIC b0c3c 0 gmtsub
PUBLIC m b0cb0 0 gmtime
PUBLIC m b0cc0 0 ctime
PUBLIC m b0d4c 0 ctime_r
PUBLIC m b0e20 0 mktime
PUBLIC m b0f50 0 timelocal
PUBLIC m b0f64 0 timegm
PUBLIC b0f70 0 timeoff
PUBLIC b1038 0 time1
PUBLIC b13f0 0 tzload
PUBLIC b2314 0 tzparse
PUBLIC b2c0c 0 getoffset
PUBLIC b2d3c 0 getrule
PUBLIC b2f08 0 transtime
PUBLIC b31a0 0 timesub
PUBLIC b372c 0 time2sub
PUBLIC b4048 0 tmcomp
PUBLIC m b40c0 0 strftime_l
PUBLIC m b4194 0 strftime
PUBLIC b4268 0 _fmt
PUBLIC b5cc0 0 _add
PUBLIC b5dcc 0 _yconv
PUBLIC b6164 0 sprintf(char*, char const* pass_object_size1, ...)
PUBLIC m b6214 0 strptime
PUBLIC b6220 0 _strptime
PUBLIC b7388 0 _find_string
PUBLIC b7424 0 tzset_unlocked
PUBLIC b75dc 0 CachedProperty::CachedProperty(char const*)
PUBLIC b7634 0 __bionic_open_tzdata
PUBLIC b76bc 0 __bionic_open_tzdata_path(char const*, char const*, int*)
PUBLIC m b7ac0 0 wcsftime
PUBLIC b7b8c 0 _fmt
PUBLIC b8d48 0 _yconv
PUBLIC b8e98 0 _conv
PUBLIC b8f3c 0 __cxa_guard_acquire
PUBLIC b8ff8 0 __cxa_guard_release
PUBLIC b9074 0 operator new(unsigned long)
PUBLIC b90b4 0 operator new[](unsigned long)
PUBLIC m b90f4 0 operator delete(void*)
PUBLIC m b90fc 0 ether_aton_r
PUBLIC m b91dc 0 ether_aton
PUBLIC m b92c4 0 ether_ntoa_r
PUBLIC b9320 0 snprintf(char*, unsigned long pass_object_size1, char const*, ...)
PUBLIC m b93d4 0 ether_ntoa
PUBLIC m b9434 0 _exit
PUBLIC m b9450 0 exit
PUBLIC m b9478 0 initgroups
PUBLIC m b9558 0 isatty
PUBLIC m b95bc 0 __sched_cpualloc
PUBLIC m b95d0 0 __sched_cpufree
PUBLIC m b95d8 0 __sched_cpucount
PUBLIC b96b8 0 get_config_from_env_or_sysprops(char const*, char const* const*, unsigned long, char*, unsigned long)
PUBLIC b97a8 0 get_property_value(char const*, char*, unsigned long)::$_0::__invoke(void*, char const*, char const*, unsigned int)
PUBLIC m b97c0 0 fmemopen
PUBLIC b993c 0 fmemopen_read(void*, char*, int)
PUBLIC b99a0 0 fmemopen_write(void*, char const*, int)
PUBLIC b9a94 0 fmemopen_seek(void*, long, int)
PUBLIC b9b28 0 fmemopen_close(void*)
PUBLIC b9b60 0 parsefloat
PUBLIC b9f44 0 wparsefloat
PUBLIC ba2d0 0 __srefill
PUBLIC ba42c 0 lflush
PUBLIC ba44c 0 __sclose
PUBLIC ba4c4 0 __sread
PUBLIC ba52c 0 __swrite
PUBLIC ba594 0 __sfp
PUBLIC baa90 0 _fwalk
PUBLIC bab24 0 __libc_stdio_cleanup
PUBLIC bac1c 0 __sflush
PUBLIC m bacc8 0 fopen
PUBLIC bae58 0 __sseek64
PUBLIC m baebc 0 fdopen
PUBLIC m bb06c 0 freopen64
PUBLIC m bb440 0 fclose
PUBLIC bb46c 0 __FILE_close(__sFILE*)
PUBLIC m bb658 0 fileno_unlocked
PUBLIC m bb6ac 0 fileno
PUBLIC m bb72c 0 clearerr_unlocked
PUBLIC m bb768 0 clearerr
PUBLIC m bb7e4 0 feof_unlocked
PUBLIC m bb81c 0 feof
PUBLIC m bb890 0 ferror_unlocked
PUBLIC m bb8c8 0 ferror
PUBLIC bb93c 0 __sflush_locked
PUBLIC bba20 0 __fseeko64(__sFILE*, long, int, int)
PUBLIC m bbcc8 0 fseek
PUBLIC m bbcf4 0 fseeko64
PUBLIC m bbd20 0 fsetpos
PUBLIC m bbd58 0 fsetpos64
PUBLIC m bbd90 0 ftell
PUBLIC m bbdbc 0 ftello64
PUBLIC m bbf34 0 fgetpos
PUBLIC m bbf84 0 fgetpos64
PUBLIC m bbfd4 0 funopen
PUBLIC m bc080 0 funopen64
PUBLIC m bc134 0 asprintf
PUBLIC m bc1d8 0 ctermid
PUBLIC m bc1fc 0 dprintf
PUBLIC m bc2a0 0 fprintf
PUBLIC m bc3ac 0 vfprintf
PUBLIC m bc450 0 fgetc
PUBLIC m bc4ec 0 getc
PUBLIC m bc588 0 fgetc_unlocked
PUBLIC m bc5e8 0 getc_unlocked
PUBLIC m bc648 0 fgets
PUBLIC m bc6d4 0 fgets_unlocked
PUBLIC m bc804 0 fputc
PUBLIC m bc830 0 putc
PUBLIC m bc948 0 fputc_unlocked
PUBLIC m bca28 0 putc_unlocked
PUBLIC m bcb08 0 fputs
PUBLIC m bcc0c 0 fputs_unlocked
PUBLIC m bcce4 0 fwrite_unlocked
PUBLIC m bcde8 0 fscanf
PUBLIC m bcef4 0 vfscanf
PUBLIC m bcf98 0 fwprintf
PUBLIC m bd0a4 0 vfwprintf
PUBLIC m bd148 0 fwscanf
PUBLIC m bd254 0 vfwscanf
PUBLIC m bd2f8 0 getchar_unlocked
PUBLIC m bd364 0 getchar
PUBLIC m bd408 0 getline
PUBLIC m bd43c 0 getwc
PUBLIC m bd468 0 getwchar
PUBLIC m bd47c 0 perror
PUBLIC m bd4bc 0 printf
PUBLIC m bd5b8 0 putchar
PUBLIC m bd5cc 0 putchar_unlocked
PUBLIC m bd5e0 0 puts
PUBLIC m bd718 0 putwc
PUBLIC m bd744 0 putwchar
PUBLIC m bd758 0 remove
PUBLIC m bd7b8 0 rewind
PUBLIC m bd844 0 scanf
PUBLIC m bd940 0 setbuf
PUBLIC m bd97c 0 setbuffer
PUBLIC m bd9bc 0 setlinebuf
PUBLIC m bd9f4 0 snprintf
PUBLIC m bdb58 0 vsnprintf
PUBLIC m bdc70 0 sprintf
PUBLIC m bdd94 0 vsprintf
PUBLIC m bde6c 0 sscanf
PUBLIC m bdf10 0 swprintf
PUBLIC m bdfb0 0 swscanf
PUBLIC m be054 0 vprintf
PUBLIC m be104 0 vscanf
PUBLIC m be1b4 0 vwprintf
PUBLIC m be264 0 vwscanf
PUBLIC m be314 0 wprintf
PUBLIC m be410 0 wscanf
PUBLIC m be50c 0 fflush
PUBLIC m be71c 0 fflush_unlocked
PUBLIC m be904 0 fread
PUBLIC m be998 0 fread_unlocked
PUBLIC m beb24 0 fwrite
PUBLIC m bec58 0 popen
PUBLIC m bee98 0 pclose
PUBLIC m beec4 0 flockfile
PUBLIC m beefc 0 ftrylockfile
PUBLIC m bef34 0 funlockfile
PUBLIC m bef6c 0 __fbufsize
PUBLIC m bef78 0 __freading
PUBLIC m bef88 0 __fwriting
PUBLIC m bef98 0 __freadable
PUBLIC m befb0 0 __fwritable
PUBLIC m befc4 0 __flbf
PUBLIC m befd4 0 __fpurge
PUBLIC m befdc 0 __fpending
PUBLIC m beff0 0 __freadahead
PUBLIC m bf010 0 _flushlbf
PUBLIC m bf01c 0 __fseterr
PUBLIC m bf030 0 __fsetlocking
PUBLIC bf088 0 __svfscanf
PUBLIC c0550 0 __vfwscanf
PUBLIC c17f0 0 __init_static_tls(void*)
PUBLIC m c18f4 0 __tls_get_addr
PUBLIC c1938 0 tls_get_addr_slow_path(TlsIndex const*)
PUBLIC c1bfc 0 __free_dynamic_tls(bionic_tcb*)
PUBLIC c1d2c 0 __notify_thread_exit_callbacks()
PUBLIC c1db8 0 __bionic_atfork_run_prepare()
PUBLIC c1e08 0 __bionic_atfork_run_child()
PUBLIC c1e78 0 __bionic_atfork_run_parent()
PUBLIC m c1ec4 0 __register_atfork
PUBLIC c1f68 0 __unregister_atfork
PUBLIC m c2000 0 pthread_attr_init
PUBLIC m c2028 0 pthread_attr_destroy
PUBLIC m c2058 0 pthread_attr_setinheritsched
PUBLIC m c2094 0 pthread_attr_getinheritsched
PUBLIC m c20cc 0 pthread_attr_setdetachstate
PUBLIC m c2104 0 pthread_attr_getdetachstate
PUBLIC m c211c 0 pthread_attr_setschedpolicy
PUBLIC m c2130 0 pthread_attr_getschedpolicy
PUBLIC m c2144 0 pthread_attr_setschedparam
PUBLIC m c215c 0 pthread_attr_getschedparam
PUBLIC m c2170 0 pthread_attr_setstacksize
PUBLIC m c2190 0 pthread_attr_getstacksize
PUBLIC m c21a4 0 pthread_attr_getstack
PUBLIC m c21c0 0 pthread_attr_setstack
PUBLIC m c21ec 0 pthread_attr_setguardsize
PUBLIC m c2200 0 pthread_attr_getguardsize
PUBLIC m c2214 0 pthread_getattr_np
PUBLIC m c24b0 0 pthread_attr_setscope
PUBLIC m c24d0 0 pthread_attr_getscope
PUBLIC m c24e0 0 pthread_barrierattr_init
PUBLIC m c24f4 0 pthread_barrierattr_destroy
PUBLIC m c2508 0 pthread_barrierattr_getpshared
PUBLIC m c2520 0 pthread_barrierattr_setpshared
PUBLIC m c2548 0 pthread_barrier_init
PUBLIC m c2588 0 pthread_barrier_wait
PUBLIC m c2744 0 pthread_barrier_destroy
PUBLIC m c27c8 0 pthread_condattr_init
PUBLIC m c27dc 0 pthread_condattr_getpshared
PUBLIC m c27f4 0 pthread_condattr_setpshared
PUBLIC m c2820 0 pthread_condattr_getclock
PUBLIC m c2838 0 pthread_condattr_setclock
PUBLIC m c2864 0 pthread_condattr_destroy
PUBLIC m c2880 0 pthread_cond_init
PUBLIC m c28a8 0 pthread_cond_destroy
PUBLIC m c28c4 0 pthread_cond_broadcast
PUBLIC m c2954 0 pthread_cond_signal
PUBLIC m c29e4 0 pthread_cond_wait
PUBLIC m c2a70 0 pthread_cond_timedwait
PUBLIC m c2b44 0 pthread_cond_timedwait_monotonic_np
PUBLIC m c2c0c 0 pthread_cond_clockwait
PUBLIC c2d30 0 __init_tcb_stack_guard(bionic_tcb*)
PUBLIC c2d48 0 __init_additional_stacks(pthread_internal_t*)
PUBLIC c2ea8 0 __init_thread(pthread_internal_t*)
PUBLIC c302c 0 __allocate_thread_mapping(unsigned long, unsigned long)
PUBLIC c31e0 0 __set_stack_and_tls_vma_name(bool)
PUBLIC m c3248 0 pthread_create
PUBLIC c36e4 0 __pthread_start(void*)
PUBLIC c381c 0 __do_nothing(void*)
PUBLIC m c3828 0 pthread_detach
PUBLIC m c38ac 0 pthread_equal
PUBLIC m c38bc 0 __pthread_cleanup_push
PUBLIC m c38dc 0 __pthread_cleanup_pop
PUBLIC m c3904 0 pthread_exit
PUBLIC m c3a38 0 pthread_getcpuclockid
PUBLIC m c3a8c 0 pthread_getschedparam
PUBLIC m c3b28 0 pthread_gettid_np
PUBLIC c3b38 0 __pthread_internal_add(pthread_internal_t*)
PUBLIC c3b90 0 __pthread_internal_remove(pthread_internal_t*)
PUBLIC c3bf0 0 __pthread_internal_remove_and_free(pthread_internal_t*)
PUBLIC c3c74 0 __pthread_internal_gettid(long, char const*)
PUBLIC c3ca0 0 __pthread_internal_find(long, char const*)
PUBLIC m c3d68 0 android_run_on_all_threads
PUBLIC c3f6c 0 android_run_on_all_threads::$_0::__invoke(int, siginfo*, void*)
PUBLIC m c3fcc 0 pthread_join
PUBLIC c4138 0 pthread_key_clean_all()
PUBLIC m c4314 0 pthread_key_create
PUBLIC m c43b0 0 pthread_key_delete
PUBLIC m c4418 0 pthread_getspecific
PUBLIC m c4480 0 pthread_setspecific
PUBLIC m c44cc 0 pthread_kill
PUBLIC m c4558 0 pthread_mutexattr_init
PUBLIC m c456c 0 pthread_mutexattr_destroy
PUBLIC m c4584 0 pthread_mutexattr_gettype
PUBLIC m c45ac 0 pthread_mutexattr_settype
PUBLIC m c45dc 0 pthread_mutexattr_setpshared
PUBLIC m c4614 0 pthread_mutexattr_getpshared
PUBLIC m c462c 0 pthread_mutexattr_setprotocol
PUBLIC m c465c 0 pthread_mutexattr_getprotocol
PUBLIC c4674 0 __libc_init_pthread_lock_owner()
PUBLIC m c46b4 0 pthread_mutex_init
PUBLIC m c4748 0 pthread_mutex_lock
PUBLIC c488c 0 PIMutexTimedLock(PIMutex&, bool, timespec const*)
PUBLIC c49ac 0 HandleUsingDestroyedMutex(pthread_mutex_t*, char const*)
PUBLIC c49f4 0 NonPI::MutexLockWithTimeout(pthread_mutex_internal_t*, bool, timespec const*)
PUBLIC m c4d10 0 pthread_mutex_unlock
PUBLIC c4e84 0 PIMutexUnlock(PIMutex&)
PUBLIC c4f50 0 __futex_wake_ex(void volatile*, bool, int)
PUBLIC m c4fc4 0 pthread_mutex_trylock
PUBLIC m c5154 0 pthread_mutex_timedlock
PUBLIC m c5244 0 pthread_mutex_timedlock_monotonic_np
PUBLIC m c5334 0 pthread_mutex_clocklock
PUBLIC m c54b4 0 pthread_mutex_destroy
PUBLIC c5550 0 __libc_init_pthread_lock_owner()::$_0::__invoke(void*, char const*, char const*, unsigned int)
PUBLIC c5570 0 __futex_pi_unlock(void volatile*, bool)
PUBLIC m c55f0 0 pthread_once
PUBLIC c5690 0 __futex_wake_ex(void volatile*, bool, int)
PUBLIC m c56f8 0 pthread_rwlockattr_init
PUBLIC m c570c 0 pthread_rwlockattr_destroy
PUBLIC m c5724 0 pthread_rwlockattr_getpshared
PUBLIC m c573c 0 pthread_rwlockattr_setpshared
PUBLIC m c5774 0 pthread_rwlockattr_getkind_np
PUBLIC m c578c 0 pthread_rwlockattr_setkind_np
PUBLIC m c57bc 0 pthread_rwlock_init
PUBLIC m c5818 0 pthread_rwlock_destroy
PUBLIC m c5830 0 pthread_rwlock_rdlock
PUBLIC c58ac 0 __pthread_rwlock_timedrdlock(pthread_rwlock_internal_t*, bool, timespec const*)
PUBLIC m c5c30 0 pthread_rwlock_timedrdlock
PUBLIC m c5c40 0 pthread_rwlock_timedrdlock_monotonic_np
PUBLIC m c5c50 0 pthread_rwlock_clockrdlock
PUBLIC m c5c78 0 pthread_rwlock_tryrdlock
PUBLIC m c5ce0 0 pthread_rwlock_wrlock
PUBLIC c5d5c 0 __pthread_rwlock_timedwrlock(pthread_rwlock_internal_t*, bool, timespec const*)
PUBLIC m c60b0 0 pthread_rwlock_timedwrlock
PUBLIC m c60c0 0 pthread_rwlock_timedwrlock_monotonic_np
PUBLIC m c60d0 0 pthread_rwlock_clockwrlock
PUBLIC m c60f8 0 pthread_rwlock_trywrlock
PUBLIC m c6160 0 pthread_rwlock_unlock
PUBLIC m c6434 0 pthread_sigqueue
PUBLIC m c6520 0 pthread_self
PUBLIC m c6530 0 pthread_getname_np
PUBLIC m c6690 0 pthread_setname_np
PUBLIC c67dc 0 snprintf(char*, unsigned long pass_object_size1, char const*, ...)
PUBLIC m c6890 0 pthread_setschedparam
PUBLIC m c691c 0 pthread_setschedprio
PUBLIC m c69cc 0 pthread_spin_init
PUBLIC m c69ec 0 pthread_spin_destroy
PUBLIC m c6a20 0 pthread_spin_trylock
PUBLIC m c6a54 0 pthread_spin_lock
PUBLIC m c6b38 0 pthread_spin_unlock
PUBLIC m c6bc8 0 __libc_get_static_tls_bounds
PUBLIC m c6c14 0 __libc_register_thread_exit_callback
PUBLIC m c6c70 0 __libc_iterate_dynamic_tls
PUBLIC m c6da8 0 __libc_register_dynamic_tls_listeners
PUBLIC m c6ddc 0 __cxa_thread_atexit_impl
PUBLIC c6e4c 0 __cxa_thread_finalize
PUBLIC m c6ec0 0 android_unsafe_frame_pointer_chase
PUBLIC m c7058 0 __cxa_atexit
PUBLIC m c7348 0 __cxa_finalize
PUBLIC m c770c 0 fork
PUBLIC c779c 0 memchr_resolver
PUBLIC c77c0 0 memcmp_resolver
PUBLIC c77d0 0 memcpy_resolver
PUBLIC c77f4 0 memmove_resolver
PUBLIC c7818 0 stpcpy_resolver
PUBLIC c7828 0 strchr_resolver
PUBLIC c784c 0 strchrnul_resolver
PUBLIC c7870 0 strcmp_resolver
PUBLIC c7880 0 strcpy_resolver
PUBLIC c7890 0 strlen_resolver
PUBLIC c78b4 0 strncmp_resolver
PUBLIC c78c4 0 strnlen_resolver
PUBLIC c78d4 0 strrchr_resolver
PUBLIC m c78f8 0 __unw_init_local
PUBLIC m c79a4 0 __unw_get_reg
PUBLIC m c7a20 0 __unw_set_reg
PUBLIC m c7b0c 0 __unw_step
PUBLIC c7b20 0 __unw_step_stage2
PUBLIC m c7b34 0 __unw_get_proc_info
PUBLIC m c7b74 0 __unw_resume
PUBLIC m c7b9c 0 __unw_is_signal_frame
PUBLIC c7bc4 0 __unw_add_dynamic_fde
PUBLIC c7cd8 0 libunwind::CFI_Parser<libunwind::LocalAddressSpace>::decodeFDE(libunwind::LocalAddressSpace&, unsigned long, libunwind::CFI_Parser<libunwind::LocalAddressSpace>::FDE_Info*, libunwind::CFI_Parser<libunwind::LocalAddressSpace>::CIE_Info*, bool)
PUBLIC c7e68 0 __unw_remove_dynamic_fde
PUBLIC c7ef8 0 libunwind::CFI_Parser<libunwind::LocalAddressSpace>::parseCIE(libunwind::LocalAddressSpace&, unsigned long, libunwind::CFI_Parser<libunwind::LocalAddressSpace>::CIE_Info*)
PUBLIC c81b4 0 libunwind::AbstractUnwindCursor::~AbstractUnwindCursor()
PUBLIC c81bc 0 libunwind::UnwindCursor<libunwind::LocalAddressSpace, libunwind::Registers_arm64>::~UnwindCursor()
PUBLIC c81c4 0 libunwind::UnwindCursor<libunwind::LocalAddressSpace, libunwind::Registers_arm64>::validReg(int)
PUBLIC c8204 0 libunwind::UnwindCursor<libunwind::LocalAddressSpace, libunwind::Registers_arm64>::getReg(int)
PUBLIC c8320 0 libunwind::UnwindCursor<libunwind::LocalAddressSpace, libunwind::Registers_arm64>::setReg(int, unsigned long)
PUBLIC c843c 0 libunwind::UnwindCursor<libunwind::LocalAddressSpace, libunwind::Registers_arm64>::validFloatReg(int)
PUBLIC c8450 0 libunwind::UnwindCursor<libunwind::LocalAddressSpace, libunwind::Registers_arm64>::getFloatReg(int)
PUBLIC c8460 0 libunwind::UnwindCursor<libunwind::LocalAddressSpace, libunwind::Registers_arm64>::setFloatReg(int, double)
PUBLIC c8470 0 libunwind::UnwindCursor<libunwind::LocalAddressSpace, libunwind::Registers_arm64>::step(bool)
PUBLIC c8548 0 libunwind::UnwindCursor<libunwind::LocalAddressSpace, libunwind::Registers_arm64>::getInfo(unw_proc_info_t*)
PUBLIC c858c 0 libunwind::UnwindCursor<libunwind::LocalAddressSpace, libunwind::Registers_arm64>::jumpto()
PUBLIC c8598 0 libunwind::UnwindCursor<libunwind::LocalAddressSpace, libunwind::Registers_arm64>::isSignalFrame()
PUBLIC c85a4 0 libunwind::UnwindCursor<libunwind::LocalAddressSpace, libunwind::Registers_arm64>::getFunctionName(char*, unsigned long, unsigned long*)
PUBLIC c85d0 0 libunwind::UnwindCursor<libunwind::LocalAddressSpace, libunwind::Registers_arm64>::setInfoBasedOnIPRegister(bool)
PUBLIC c8850 0 libunwind::UnwindCursor<libunwind::LocalAddressSpace, libunwind::Registers_arm64>::getRegisterName(int)
PUBLIC c885c 0 libunwind::UnwindCursor<libunwind::LocalAddressSpace, libunwind::Registers_arm64>::stepThroughSigReturn(libunwind::Registers_arm64&)
PUBLIC c8980 0 libunwind::DwarfInstructions<libunwind::LocalAddressSpace, libunwind::Registers_arm64>::stepWithDwarf(libunwind::LocalAddressSpace&, unsigned long, unsigned long, libunwind::Registers_arm64&, bool&, bool)
PUBLIC c8e30 0 libunwind::CFI_Parser<libunwind::LocalAddressSpace>::parseFDEInstructions(libunwind::LocalAddressSpace&, libunwind::CFI_Parser<libunwind::LocalAddressSpace>::FDE_Info const&, libunwind::CFI_Parser<libunwind::LocalAddressSpace>::CIE_Info const&, unsigned long, int, libunwind::CFI_Parser<libunwind::LocalAddressSpace>::PrologInfo*)
PUBLIC c993c 0 libunwind::DwarfInstructions<libunwind::LocalAddressSpace, libunwind::Registers_arm64>::getCFA(libunwind::LocalAddressSpace&, libunwind::CFI_Parser<libunwind::LocalAddressSpace>::PrologInfo const&, libunwind::Registers_arm64 const&)
PUBLIC c9a34 0 libunwind::DwarfInstructions<libunwind::LocalAddressSpace, libunwind::Registers_arm64>::getSavedRegister(libunwind::LocalAddressSpace&, libunwind::Registers_arm64 const&, unsigned long, libunwind::CFI_Parser<libunwind::LocalAddressSpace>::RegisterLocation const&)
PUBLIC c9c28 0 libunwind::LocalAddressSpace::getEncodedP(unsigned long&, unsigned long, unsigned char, unsigned long)
PUBLIC c9f30 0 libunwind::LocalAddressSpace::getULEB128(unsigned long&, unsigned long)
PUBLIC ca0f8 0 libunwind::DwarfInstructions<libunwind::LocalAddressSpace, libunwind::Registers_arm64>::evaluateExpression(unsigned long, libunwind::LocalAddressSpace&, libunwind::Registers_arm64 const&, unsigned long)
PUBLIC caa94 0 libunwind::UnwindCursor<libunwind::LocalAddressSpace, libunwind::Registers_arm64>::getInfoFromDwarfSection(unsigned long, libunwind::UnwindInfoSections const&, unsigned int)
PUBLIC cad7c 0 libunwind::findUnwindSectionsByPhdr(dl_phdr_info*, unsigned long, void*)
PUBLIC cb050 0 libunwind::CFI_Parser<libunwind::LocalAddressSpace>::findFDE(libunwind::LocalAddressSpace&, unsigned long, unsigned long, unsigned long, unsigned long, libunwind::CFI_Parser<libunwind::LocalAddressSpace>::FDE_Info*, libunwind::CFI_Parser<libunwind::LocalAddressSpace>::CIE_Info*)
PUBLIC cb218 0 libunwind::EHHeaderParser<libunwind::LocalAddressSpace>::findFDE(libunwind::LocalAddressSpace&, unsigned long, unsigned long, unsigned int, libunwind::CFI_Parser<libunwind::LocalAddressSpace>::FDE_Info*, libunwind::CFI_Parser<libunwind::LocalAddressSpace>::CIE_Info*)
PUBLIC cb3e4 0 libunwind::EHHeaderParser<libunwind::LocalAddressSpace>::getTableEntrySize(unsigned char)
PUBLIC cb4c4 0 libunwind::Registers_arm64::getRegisterName(int)
PUBLIC m cb4f4 0 _Unwind_RaiseException
PUBLIC cb5ec 0 unwind_phase2
PUBLIC m cb720 0 _Unwind_Resume
PUBLIC cb7a4 0 unwind_phase2_forced
PUBLIC m cb898 0 _Unwind_ForcedUnwind
PUBLIC m cb8fc 0 _Unwind_GetLanguageSpecificData
PUBLIC m cb930 0 _Unwind_GetRegionStart
PUBLIC m cb964 0 _Unwind_DeleteException
PUBLIC m cb980 0 _Unwind_GetGR
PUBLIC m cb9ac 0 _Unwind_SetGR
PUBLIC m cb9b4 0 _Unwind_GetIP
PUBLIC m cb9e4 0 _Unwind_SetIP
PUBLIC m cb9f4 0 _Unwind_Resume_or_Rethrow
PUBLIC m cba54 0 _Unwind_GetDataRelBase
PUBLIC m cba98 0 _Unwind_GetTextRelBase
PUBLIC m cbadc 0 _Unwind_FindEnclosingFunction
PUBLIC m cbb44 0 _Unwind_Backtrace
PUBLIC m cbbcc 0 _Unwind_Find_FDE
PUBLIC m cbc44 0 _Unwind_GetCFA
PUBLIC m cbc74 0 _Unwind_GetIPInfo
PUBLIC m cbcb4 0 __register_frame
PUBLIC m cbcbc 0 __deregister_frame
PUBLIC cbcc4 0 __libunwind_Registers_arm64_jumpto
PUBLIC m cbd54 0 __unw_getcontext
PUBLIC cbdf0 0 android_get_exported_namespace
PUBLIC m cbe0c 0 __netf2
PUBLIC cbeac 0 __unordtf2
PUBLIC cbee4 0 __multf3
PUBLIC cc3c0 0 __aarch64_cas1_acq_rel
PUBLIC cc3f4 0 init_have_lse_atomics
PUBLIC cc48c 0 init_cpu_features_resolver
PUBLIC cca20 0 init_cpu_features
PUBLIC ccab0 0 __aarch64_cas2_relax
PUBLIC ccaf0 0 __aarch64_cas2_acq
PUBLIC ccb30 0 __aarch64_cas4_relax
PUBLIC ccb70 0 __aarch64_cas4_acq
PUBLIC ccbb0 0 __aarch64_cas4_rel
PUBLIC ccbf0 0 __aarch64_cas4_acq_rel
PUBLIC ccc30 0 __aarch64_cas8_relax
PUBLIC ccc70 0 __aarch64_cas8_acq_rel
PUBLIC cccb0 0 __aarch64_swp1_acq_rel
PUBLIC ccce0 0 __aarch64_swp2_acq
PUBLIC ccd10 0 __aarch64_swp2_rel
PUBLIC ccd40 0 __aarch64_swp4_acq
PUBLIC ccd70 0 __aarch64_swp4_rel
PUBLIC ccda0 0 __aarch64_swp4_acq_rel
PUBLIC ccdd0 0 __aarch64_ldadd2_relax
PUBLIC cce00 0 __aarch64_ldadd4_relax
PUBLIC cce30 0 __aarch64_ldadd4_rel
PUBLIC cce60 0 __aarch64_ldadd8_relax
PUBLIC cce90 0 __aarch64_ldadd8_acq_rel
PUBLIC ccec0 0 __aarch64_ldclr4_relax
PUBLIC ccef0 0 __aarch64_ldclr4_rel
PUBLIC ccf20 0 __aarch64_ldset4_relax
PUBLIC ccf50 0 __CortexA53843419_9E000
PUBLIC ccf58 0 __CortexA53843419_C7004
PUBLIC ccf60 0 <.plt ELF section in libc.so>
STACK CFI INIT 44000 10 .cfa: sp 0 +
STACK CFI INIT 44010 8 .cfa: sp 0 +
STACK CFI INIT 44018 8 .cfa: sp 0 +
STACK CFI INIT 44020 10 .cfa: sp 0 +
STACK CFI INIT 44030 8c .cfa: sp 0 +
STACK CFI INIT 440bc 524 .cfa: sp 0 +
STACK CFI INIT 445e0 18 .cfa: sp 0 +
STACK CFI INIT 445f8 d0 .cfa: sp 0 +
STACK CFI INIT 446c8 38 .cfa: sp 0 +
STACK CFI INIT 44700 70 .cfa: sp 0 +
STACK CFI INIT 44770 70 .cfa: sp 0 +
STACK CFI INIT 447e0 244 .cfa: sp 0 +
STACK CFI INIT 44a24 dc .cfa: sp 0 +
STACK CFI INIT 44b00 40 .cfa: sp 0 +
STACK CFI INIT 44b40 c8 .cfa: sp 0 +
STACK CFI INIT 44c08 40 .cfa: sp 0 +
STACK CFI INIT 44c48 d4 .cfa: sp 0 +
STACK CFI INIT 44d1c 7c .cfa: sp 0 +
STACK CFI INIT 44d98 30 .cfa: sp 0 +
STACK CFI INIT 44dc8 30 .cfa: sp 0 +
STACK CFI INIT 44df8 128 .cfa: sp 0 +
STACK CFI INIT 44f20 240 .cfa: sp 0 +
STACK CFI INIT 45160 6c .cfa: sp 0 +
STACK CFI INIT 451cc 88 .cfa: sp 0 +
STACK CFI INIT 45254 6c .cfa: sp 0 +
STACK CFI INIT 452c0 ac .cfa: sp 0 +
STACK CFI INIT 4536c 68 .cfa: sp 0 +
STACK CFI INIT 453d4 b4 .cfa: sp 0 +
STACK CFI INIT 45488 70 .cfa: sp 0 +
STACK CFI INIT 454f8 20 .cfa: sp 0 +
STACK CFI INIT 45518 20 .cfa: sp 0 +
STACK CFI INIT 45538 ac .cfa: sp 0 +
STACK CFI INIT 455e4 88 .cfa: sp 0 +
STACK CFI INIT 4566c 70 .cfa: sp 0 +
STACK CFI INIT 456dc b4 .cfa: sp 0 +
STACK CFI INIT 45790 70 .cfa: sp 0 +
STACK CFI INIT 45800 b4 .cfa: sp 0 +
STACK CFI INIT 458b4 f4 .cfa: sp 0 +
STACK CFI INIT 459a8 6c .cfa: sp 0 +
STACK CFI INIT 45a14 24 .cfa: sp 0 +
STACK CFI INIT 45a38 88 .cfa: sp 0 +
STACK CFI INIT 45ac0 20 .cfa: sp 0 +
STACK CFI INIT 45ae0 20 .cfa: sp 0 +
STACK CFI INIT 45b00 10 .cfa: sp 0 +
STACK CFI INIT 45b10 5b8 .cfa: sp 0 +
STACK CFI INIT 460c8 b4 .cfa: sp 0 +
STACK CFI INIT 4617c 110 .cfa: sp 0 +
STACK CFI INIT 4628c 120 .cfa: sp 0 +
STACK CFI INIT 463ac 50 .cfa: sp 0 +
STACK CFI INIT 463fc 1f4 .cfa: sp 0 +
STACK CFI INIT 465f0 1c .cfa: sp 0 +
STACK CFI INIT 4660c 234 .cfa: sp 0 +
STACK CFI INIT 46840 84 .cfa: sp 0 +
STACK CFI INIT 468c4 404 .cfa: sp 0 +
STACK CFI INIT 46cc8 70 .cfa: sp 0 +
STACK CFI INIT 46d38 25c .cfa: sp 0 +
STACK CFI INIT 46f94 26c .cfa: sp 0 +
STACK CFI INIT 47200 18 .cfa: sp 0 +
STACK CFI INIT 47218 148 .cfa: sp 0 +
STACK CFI INIT 47360 244 .cfa: sp 0 +
STACK CFI INIT 475a4 28 .cfa: sp 0 +
STACK CFI INIT 475cc 1ec .cfa: sp 0 +
STACK CFI INIT 477b8 1c8 .cfa: sp 0 +
STACK CFI INIT 47980 24 .cfa: sp 0 +
STACK CFI INIT 479a4 408 .cfa: sp 0 +
STACK CFI INIT 47dac f8 .cfa: sp 0 +
STACK CFI INIT 47ea4 80 .cfa: sp 0 +
STACK CFI INIT 47f24 20 .cfa: sp 0 +
STACK CFI INIT 47f44 d0 .cfa: sp 0 +
STACK CFI INIT 48014 20 .cfa: sp 0 +
STACK CFI INIT 48034 dc .cfa: sp 0 +
STACK CFI INIT 48110 dc .cfa: sp 0 +
STACK CFI INIT 481ec 174 .cfa: sp 0 +
STACK CFI INIT 48360 20 .cfa: sp 0 +
STACK CFI INIT 48380 20 .cfa: sp 0 +
STACK CFI INIT 483a0 20 .cfa: sp 0 +
STACK CFI INIT 483c0 20 .cfa: sp 0 +
STACK CFI INIT 483e0 dc .cfa: sp 0 +
STACK CFI INIT 484bc 20 .cfa: sp 0 +
STACK CFI INIT 484dc 60 .cfa: sp 0 +
STACK CFI INIT 4853c 50 .cfa: sp 0 +
STACK CFI INIT 4858c 1a4 .cfa: sp 0 +
STACK CFI INIT 48730 24 .cfa: sp 0 +
STACK CFI INIT 48754 68 .cfa: sp 0 +
STACK CFI INIT 487bc 10 .cfa: sp 0 +
STACK CFI INIT 487cc 1a0 .cfa: sp 0 +
STACK CFI INIT 4896c b8 .cfa: sp 0 +
STACK CFI INIT 48a24 7c .cfa: sp 0 +
STACK CFI INIT 48aa0 15c .cfa: sp 0 +
STACK CFI INIT 48bfc 1f4 .cfa: sp 0 +
STACK CFI INIT 48df0 bc .cfa: sp 0 +
STACK CFI INIT 48eac 68 .cfa: sp 0 +
STACK CFI INIT 48f14 10 .cfa: sp 0 +
STACK CFI INIT 48f24 dc .cfa: sp 0 +
STACK CFI INIT 49000 28 .cfa: sp 0 +
STACK CFI INIT 49028 34 .cfa: sp 0 +
STACK CFI INIT 4905c 50 .cfa: sp 0 +
STACK CFI INIT 490ac 8 .cfa: sp 0 +
STACK CFI INIT 490b4 30 .cfa: sp 0 +
STACK CFI INIT 490e4 70 .cfa: sp 0 +
STACK CFI INIT 49154 68 .cfa: sp 0 +
STACK CFI INIT 491bc 40 .cfa: sp 0 +
STACK CFI INIT 491fc 40 .cfa: sp 0 +
STACK CFI INIT 4923c 6c .cfa: sp 0 +
STACK CFI INIT 492a8 8 .cfa: sp 0 +
STACK CFI INIT 492b0 c4 .cfa: sp 0 +
STACK CFI INIT 49374 ec .cfa: sp 0 +
STACK CFI INIT 49460 118 .cfa: sp 0 +
STACK CFI INIT 49578 2c .cfa: sp 0 +
STACK CFI INIT 495a4 70 .cfa: sp 0 +
STACK CFI INIT 49614 64 .cfa: sp 0 +
STACK CFI INIT 49678 18 .cfa: sp 0 +
STACK CFI INIT 49690 18 .cfa: sp 0 +
STACK CFI INIT 496a8 54 .cfa: sp 0 +
STACK CFI INIT 496fc 10 .cfa: sp 0 +
STACK CFI INIT 4970c 1c .cfa: sp 0 +
STACK CFI INIT 49728 70 .cfa: sp 0 +
STACK CFI INIT 49798 70 .cfa: sp 0 +
STACK CFI INIT 49808 7c .cfa: sp 0 +
STACK CFI INIT 49884 28 .cfa: sp 0 +
STACK CFI INIT 498ac 70 .cfa: sp 0 +
STACK CFI INIT 4991c ac .cfa: sp 0 +
STACK CFI INIT 499c8 68 .cfa: sp 0 +
STACK CFI INIT 49a30 74 .cfa: sp 0 +
STACK CFI INIT 49aa4 68 .cfa: sp 0 +
STACK CFI INIT 49b0c 68 .cfa: sp 0 +
STACK CFI INIT 49b74 74 .cfa: sp 0 +
STACK CFI INIT 49be8 7c .cfa: sp 0 +
STACK CFI INIT 49c64 60 .cfa: sp 0 +
STACK CFI INIT 49cc4 68 .cfa: sp 0 +
STACK CFI INIT 49d2c 7c .cfa: sp 0 +
STACK CFI INIT 49da8 34 .cfa: sp 0 +
STACK CFI INIT 49ddc 7c .cfa: sp 0 +
STACK CFI INIT 49e58 90 .cfa: sp 0 +
STACK CFI INIT 49ee8 7c .cfa: sp 0 +
STACK CFI INIT 49f64 74 .cfa: sp 0 +
STACK CFI INIT 49fd8 6c .cfa: sp 0 +
STACK CFI INIT 4a044 74 .cfa: sp 0 +
STACK CFI INIT 4a0b8 98 .cfa: sp 0 +
STACK CFI INIT 4a150 78 .cfa: sp 0 +
STACK CFI INIT 4a1c8 7a0 .cfa: sp 0 +
STACK CFI INIT 4a968 174 .cfa: sp 0 +
STACK CFI INIT 4aadc 10c .cfa: sp 0 +
STACK CFI INIT 4abe8 2d4 .cfa: sp 0 +
STACK CFI INIT 4aebc 80 .cfa: sp 0 +
STACK CFI INIT 4af3c c0 .cfa: sp 0 +
STACK CFI INIT 4affc 6e0 .cfa: sp 0 +
STACK CFI INIT 4b6dc 20 .cfa: sp 0 +
STACK CFI INIT 4b6fc 1a0 .cfa: sp 0 +
STACK CFI INIT 4b89c d8 .cfa: sp 0 +
STACK CFI INIT 4b974 68 .cfa: sp 0 +
STACK CFI INIT 4b9dc 14 .cfa: sp 0 +
STACK CFI INIT 4b9f0 fc .cfa: sp 0 +
STACK CFI INIT 4baec 68 .cfa: sp 0 +
STACK CFI INIT 4bb54 e4 .cfa: sp 0 +
STACK CFI INIT 4bc38 a0 .cfa: sp 0 +
STACK CFI INIT 4bcd8 32c .cfa: sp 0 +
STACK CFI INIT 4c004 38 .cfa: sp 0 +
STACK CFI INIT 4c03c 370 .cfa: sp 0 +
STACK CFI INIT 4c3ac 10 .cfa: sp 0 +
STACK CFI INIT 4c3bc f0 .cfa: sp 0 +
STACK CFI INIT 4c4ac 10 .cfa: sp 0 +
STACK CFI INIT 4c4bc 120 .cfa: sp 0 +
STACK CFI INIT 4c5dc 1c .cfa: sp 0 +
STACK CFI INIT 4c5f8 248 .cfa: sp 0 +
STACK CFI INIT 4c840 3e4 .cfa: sp 0 +
STACK CFI INIT 4cc24 e4 .cfa: sp 0 +
STACK CFI INIT 4cd08 f8 .cfa: sp 0 +
STACK CFI INIT 4ce00 7c .cfa: sp 0 +
STACK CFI INIT 4ce7c 8c .cfa: sp 0 +
STACK CFI INIT 4cf08 b0 .cfa: sp 0 +
STACK CFI INIT 4cfb8 80 .cfa: sp 0 +
STACK CFI INIT 4d038 10 .cfa: sp 0 +
STACK CFI INIT 4d048 10 .cfa: sp 0 +
STACK CFI INIT 4d058 58 .cfa: sp 0 +
STACK CFI INIT 4d0b0 88 .cfa: sp 0 +
STACK CFI INIT 4d138 28 .cfa: sp 0 +
STACK CFI INIT 4d160 a4 .cfa: sp 0 +
STACK CFI INIT 4d204 390 .cfa: sp 0 +
STACK CFI INIT 4d594 c .cfa: sp 0 +
STACK CFI INIT 4d5a0 35c .cfa: sp 0 +
STACK CFI INIT 4d8fc 290 .cfa: sp 0 +
STACK CFI INIT 4db8c 8 .cfa: sp 0 +
STACK CFI INIT 4db94 b0 .cfa: sp 0 +
STACK CFI INIT 4dc44 3f0 .cfa: sp 0 +
STACK CFI INIT 4e034 98 .cfa: sp 0 +
STACK CFI INIT 4e0cc 40 .cfa: sp 0 +
STACK CFI INIT 4e10c a4 .cfa: sp 0 +
STACK CFI INIT 4e1b0 24c .cfa: sp 0 +
STACK CFI INIT 4e3fc 124 .cfa: sp 0 +
STACK CFI INIT 4e520 21c .cfa: sp 0 +
STACK CFI INIT 4e73c 5c .cfa: sp 0 +
STACK CFI INIT 4e798 148 .cfa: sp 0 +
STACK CFI INIT 4e8e0 4a8 .cfa: sp 0 +
STACK CFI INIT 4ed88 84 .cfa: sp 0 +
STACK CFI INIT 4ee0c 1f0 .cfa: sp 0 +
STACK CFI INIT 4effc c .cfa: sp 0 +
STACK CFI INIT 4f008 f8 .cfa: sp 0 +
STACK CFI INIT 4f100 f4 .cfa: sp 0 +
STACK CFI INIT 4f1f4 25c .cfa: sp 0 +
STACK CFI INIT 4f450 2c0 .cfa: sp 0 +
STACK CFI INIT 4f710 6fc .cfa: sp 0 +
STACK CFI INIT 4fe0c 234 .cfa: sp 0 +
STACK CFI INIT 50040 18c .cfa: sp 0 +
STACK CFI INIT 501cc 2c8 .cfa: sp 0 +
STACK CFI INIT 50494 300 .cfa: sp 0 +
STACK CFI INIT 50794 338 .cfa: sp 0 +
STACK CFI INIT 50acc f0 .cfa: sp 0 +
STACK CFI INIT 50bbc 54 .cfa: sp 0 +
STACK CFI INIT 50c10 70 .cfa: sp 0 +
STACK CFI INIT 50c80 88 .cfa: sp 0 +
STACK CFI INIT 50d08 2a4 .cfa: sp 0 +
STACK CFI INIT 50fac 198 .cfa: sp 0 +
STACK CFI INIT 51144 484 .cfa: sp 0 +
STACK CFI INIT 515c8 b8 .cfa: sp 0 +
STACK CFI INIT 51680 144 .cfa: sp 0 +
STACK CFI INIT 517c4 3d8 .cfa: sp 0 +
STACK CFI INIT 51b9c 10c .cfa: sp 0 +
STACK CFI INIT 51ca8 1c8 .cfa: sp 0 +
STACK CFI INIT 51e70 f8 .cfa: sp 0 +
STACK CFI INIT 51f68 158 .cfa: sp 0 +
STACK CFI INIT 520c0 134 .cfa: sp 0 +
STACK CFI INIT 521f4 2d4 .cfa: sp 0 +
STACK CFI INIT 524c8 140 .cfa: sp 0 +
STACK CFI INIT 52608 1b0 .cfa: sp 0 +
STACK CFI INIT 527b8 19c .cfa: sp 0 +
STACK CFI INIT 52954 1a0 .cfa: sp 0 +
STACK CFI INIT 52af4 10c .cfa: sp 0 +
STACK CFI INIT 52c00 c4 .cfa: sp 0 +
STACK CFI INIT 52cc4 b4 .cfa: sp 0 +
STACK CFI INIT 52d78 c .cfa: sp 0 +
STACK CFI INIT 52d84 40 .cfa: sp 0 +
STACK CFI INIT 52dc4 34 .cfa: sp 0 +
STACK CFI INIT 52df8 a4 .cfa: sp 0 +
STACK CFI INIT 52e9c c .cfa: sp 0 +
STACK CFI INIT 52ea8 1c .cfa: sp 0 +
STACK CFI INIT 52ec4 80 .cfa: sp 0 +
STACK CFI INIT 52f44 10 .cfa: sp 0 +
STACK CFI INIT 52f54 10 .cfa: sp 0 +
STACK CFI INIT 52f64 1d4 .cfa: sp 0 +
STACK CFI INIT 53138 28 .cfa: sp 0 +
STACK CFI INIT 53160 30 .cfa: sp 0 +
STACK CFI INIT 53190 30 .cfa: sp 0 +
STACK CFI INIT 531c0 a8 .cfa: sp 0 +
STACK CFI INIT 53268 284 .cfa: sp 0 +
STACK CFI INIT 534ec 210 .cfa: sp 0 +
STACK CFI INIT 536fc 64 .cfa: sp 0 +
STACK CFI INIT 53760 128 .cfa: sp 0 +
STACK CFI INIT 53888 64 .cfa: sp 0 +
STACK CFI INIT 538ec c .cfa: sp 0 +
STACK CFI INIT 538f8 44 .cfa: sp 0 +
STACK CFI INIT 5393c 80 .cfa: sp 0 +
STACK CFI INIT 539bc 78 .cfa: sp 0 +
STACK CFI INIT 53a34 64 .cfa: sp 0 +
STACK CFI INIT 53a98 74 .cfa: sp 0 +
STACK CFI INIT 53b0c c .cfa: sp 0 +
STACK CFI INIT 53b18 34 .cfa: sp 0 +
STACK CFI INIT 53b4c 2c .cfa: sp 0 +
STACK CFI INIT 53b78 2c .cfa: sp 0 +
STACK CFI INIT 53ba4 8 .cfa: sp 0 +
STACK CFI INIT 53bac 8 .cfa: sp 0 +
STACK CFI INIT 53bb4 20 .cfa: sp 0 +
STACK CFI INIT 53bd4 88 .cfa: sp 0 +
STACK CFI INIT 53c5c 40 .cfa: sp 0 +
STACK CFI INIT 53c9c 40 .cfa: sp 0 +
STACK CFI INIT 53cdc 1c .cfa: sp 0 +
STACK CFI INIT 53cf8 ec .cfa: sp 0 +
STACK CFI INIT 53de4 74 .cfa: sp 0 +
STACK CFI INIT 53e58 8 .cfa: sp 0 +
STACK CFI INIT 53e80 c4 .cfa: sp 0 +
STACK CFI INIT 53f80 dc .cfa: sp 0 +
STACK CFI INIT 54080 1c8 .cfa: sp 0 +
STACK CFI INIT 54280 1b0 .cfa: sp 0 +
STACK CFI INIT 54440 22c .cfa: sp 0 +
STACK CFI INIT 54680 bc .cfa: sp 0 +
STACK CFI INIT 54740 104 .cfa: sp 0 +
STACK CFI INIT 54880 150 .cfa: sp 0 +
STACK CFI INIT 54a00 90 .cfa: sp 0 +
STACK CFI INIT 54ac0 ac .cfa: sp 0 +
STACK CFI INIT 54b80 ac .cfa: sp 0 +
STACK CFI INIT 54c40 cc .cfa: sp 0 +
STACK CFI INIT 54d40 134 .cfa: sp 0 +
STACK CFI INIT 54e80 12c .cfa: sp 0 +
STACK CFI INIT 54fc0 8c .cfa: sp 0 +
STACK CFI INIT 55080 130 .cfa: sp 0 +
STACK CFI INIT 551c0 1b4 .cfa: sp 0 +
STACK CFI INIT 55380 b8 .cfa: sp 0 +
STACK CFI INIT 55440 120 .cfa: sp 0 +
STACK CFI INIT 55580 104 .cfa: sp 0 +
STACK CFI INIT 55684 78 .cfa: sp 0 +
STACK CFI INIT 556fc c70 .cfa: sp 0 +
STACK CFI INIT 5636c c0 .cfa: sp 0 +
STACK CFI INIT 5642c 264 .cfa: sp 0 +
STACK CFI INIT 56690 d4 .cfa: sp 0 +
STACK CFI INIT 56764 118 .cfa: sp 0 +
STACK CFI INIT 5687c 1c0 .cfa: sp 0 +
STACK CFI INIT 56a3c b0 .cfa: sp 0 +
STACK CFI INIT 56aec 30c .cfa: sp 0 +
STACK CFI INIT 56df8 5c .cfa: sp 0 +
STACK CFI INIT 56e54 5c .cfa: sp 0 +
STACK CFI INIT 56eb0 5c .cfa: sp 0 +
STACK CFI INIT 56f0c ac .cfa: sp 0 +
STACK CFI INIT 56fb8 22c .cfa: sp 0 +
STACK CFI INIT 571e4 68 .cfa: sp 0 +
STACK CFI INIT 5724c 40 .cfa: sp 0 +
STACK CFI INIT 5728c 40 .cfa: sp 0 +
STACK CFI INIT 572cc 1c .cfa: sp 0 +
STACK CFI INIT 572e8 d8 .cfa: sp 0 +
STACK CFI INIT 573c0 44 .cfa: sp 0 +
STACK CFI 573c8 .cfa: sp 16 +
STACK CFI 57400 .cfa: sp 0 +
STACK CFI INIT 57414 30 .cfa: sp 0 +
STACK CFI INIT 57454 14 .cfa: sp 0 +
STACK CFI INIT 57474 8 .cfa: sp 0 +
STACK CFI INIT 57484 8 .cfa: sp 0 +
STACK CFI INIT 57494 1b4 .cfa: sp 0 +
STACK CFI INIT 57654 1c0 .cfa: sp 0 +
STACK CFI 57728 .cfa: sp 16 + x0: .cfa -16 + ^ .ra: .cfa -8 + ^
STACK CFI 57748 .cfa: sp 0 +
STACK CFI 57754 .cfa: sp 16 +
STACK CFI 57774 .cfa: sp 0 +
STACK CFI INIT 57824 30 .cfa: sp 0 +
STACK CFI INIT 57864 64 .cfa: sp 0 +
STACK CFI INIT 578c8 480 .cfa: sp 0 +
STACK CFI INIT 57d48 444 .cfa: sp 0 +
STACK CFI INIT 5818c 50 .cfa: sp 0 +
STACK CFI INIT 581dc 38 .cfa: sp 0 +
STACK CFI INIT 58214 2c .cfa: sp 0 +
STACK CFI INIT 58240 5c .cfa: sp 0 +
STACK CFI INIT 5829c 168 .cfa: sp 0 +
STACK CFI INIT 58404 29c .cfa: sp 0 +
STACK CFI INIT 586a0 10 .cfa: sp 0 +
STACK CFI INIT 586b0 124 .cfa: sp 0 +
STACK CFI INIT 587d4 38 .cfa: sp 0 +
STACK CFI INIT 5880c 244 .cfa: sp 0 +
STACK CFI INIT 58a50 d0 .cfa: sp 0 +
STACK CFI INIT 58b20 cc .cfa: sp 0 +
STACK CFI INIT 58bec 40 .cfa: sp 0 +
STACK CFI INIT 58c2c 78 .cfa: sp 0 +
STACK CFI INIT 58ca4 2d4 .cfa: sp 0 +
STACK CFI INIT 58f78 1ec .cfa: sp 0 +
STACK CFI INIT 59164 b4 .cfa: sp 0 +
STACK CFI INIT 59218 16c .cfa: sp 0 +
STACK CFI INIT 59384 7c .cfa: sp 0 +
STACK CFI INIT 59400 64 .cfa: sp 0 +
STACK CFI INIT 59464 38 .cfa: sp 0 +
STACK CFI INIT 5949c 94 .cfa: sp 0 +
STACK CFI INIT 59530 8 .cfa: sp 0 +
STACK CFI INIT 59538 c .cfa: sp 0 +
STACK CFI INIT 59544 ec .cfa: sp 0 +
STACK CFI INIT 59630 198 .cfa: sp 0 +
STACK CFI INIT 597c8 d4 .cfa: sp 0 +
STACK CFI INIT 5989c 90 .cfa: sp 0 +
STACK CFI INIT 5992c 5c .cfa: sp 0 +
STACK CFI INIT 59988 98 .cfa: sp 0 +
STACK CFI INIT 59a20 18 .cfa: sp 0 +
STACK CFI INIT 59a38 3c .cfa: sp 0 +
STACK CFI INIT 59a74 c .cfa: sp 0 +
STACK CFI INIT 59a80 168 .cfa: sp 0 +
STACK CFI INIT 59be8 110 .cfa: sp 0 +
STACK CFI INIT 59cf8 54 .cfa: sp 0 +
STACK CFI INIT 59d4c 170 .cfa: sp 0 +
STACK CFI INIT 59ebc 240 .cfa: sp 0 +
STACK CFI INIT 5a0fc 1c4 .cfa: sp 0 +
STACK CFI INIT 5a2c0 148 .cfa: sp 0 +
STACK CFI INIT 5a408 3c .cfa: sp 0 +
STACK CFI INIT 5a444 18 .cfa: sp 0 +
STACK CFI INIT 5a45c 74 .cfa: sp 0 +
STACK CFI INIT 5a4d0 7c .cfa: sp 0 +
STACK CFI INIT 5a54c 1a8 .cfa: sp 0 +
STACK CFI INIT 5a6f4 b4 .cfa: sp 0 +
STACK CFI INIT 5a7a8 44 .cfa: sp 0 +
STACK CFI INIT 5a7ec 74 .cfa: sp 0 +
STACK CFI INIT 5a860 140 .cfa: sp 0 +
STACK CFI INIT 5a9a0 180 .cfa: sp 0 +
STACK CFI INIT 5ab20 a4 .cfa: sp 0 +
STACK CFI INIT 5abc4 180 .cfa: sp 0 +
STACK CFI INIT 5ad44 190 .cfa: sp 0 +
STACK CFI INIT 5aed4 b0 .cfa: sp 0 +
STACK CFI INIT 5af84 e0 .cfa: sp 0 +
STACK CFI INIT 5b064 80 .cfa: sp 0 +
STACK CFI INIT 5b0e4 3c .cfa: sp 0 +
STACK CFI INIT 5b120 20 .cfa: sp 0 +
STACK CFI INIT 5b140 40 .cfa: sp 0 +
STACK CFI INIT 5b180 4c .cfa: sp 0 +
STACK CFI INIT 5b1cc 3c .cfa: sp 0 +
STACK CFI INIT 5b208 c .cfa: sp 0 +
STACK CFI INIT 5b214 c .cfa: sp 0 +
STACK CFI INIT 5b220 40 .cfa: sp 0 +
STACK CFI INIT 5b260 8 .cfa: sp 0 +
STACK CFI INIT 5b268 c .cfa: sp 0 +
STACK CFI INIT 5b274 f4 .cfa: sp 0 +
STACK CFI INIT 5b368 10 .cfa: sp 0 +
STACK CFI INIT 5b378 10 .cfa: sp 0 +
STACK CFI INIT 5b388 10 .cfa: sp 0 +
STACK CFI INIT 5b398 28 .cfa: sp 0 +
STACK CFI INIT 5b3c0 f4 .cfa: sp 0 +
STACK CFI INIT 5b4b4 64 .cfa: sp 0 +
STACK CFI INIT 5b518 e4 .cfa: sp 0 +
STACK CFI INIT 5b5fc 2c .cfa: sp 0 +
STACK CFI INIT 5b628 14 .cfa: sp 0 +
STACK CFI INIT 5b63c 34 .cfa: sp 0 +
STACK CFI INIT 5b670 c .cfa: sp 0 +
STACK CFI INIT 5b67c c .cfa: sp 0 +
STACK CFI INIT 5b688 138 .cfa: sp 0 +
STACK CFI INIT 5b7c0 c .cfa: sp 0 +
STACK CFI INIT 5b7cc 1c .cfa: sp 0 +
STACK CFI INIT 5b7e8 64 .cfa: sp 0 +
STACK CFI INIT 5b84c 60 .cfa: sp 0 +
STACK CFI INIT 5b8ac 22c .cfa: sp 0 +
STACK CFI INIT 5bad8 28 .cfa: sp 0 +
STACK CFI INIT 5bb00 2c .cfa: sp 0 +
STACK CFI INIT 5bb2c c .cfa: sp 0 +
STACK CFI INIT 5bb38 1c .cfa: sp 0 +
STACK CFI INIT 5bb54 158 .cfa: sp 0 +
STACK CFI INIT 5bcac f0 .cfa: sp 0 +
STACK CFI INIT 5bd9c 140 .cfa: sp 0 +
STACK CFI INIT 5bedc e4 .cfa: sp 0 +
STACK CFI INIT 5bfc0 14 .cfa: sp 0 +
STACK CFI INIT 5bfd4 124 .cfa: sp 0 +
STACK CFI INIT 5c0f8 44 .cfa: sp 0 +
STACK CFI INIT 5c13c 188 .cfa: sp 0 +
STACK CFI INIT 5c2c4 140 .cfa: sp 0 +
STACK CFI INIT 5c404 108 .cfa: sp 0 +
STACK CFI INIT 5c50c ec .cfa: sp 0 +
STACK CFI INIT 5c5f8 e0 .cfa: sp 0 +
STACK CFI INIT 5c6d8 40 .cfa: sp 0 +
STACK CFI INIT 5c718 64 .cfa: sp 0 +
STACK CFI INIT 5c77c 12c .cfa: sp 0 +
STACK CFI INIT 5c8a8 110 .cfa: sp 0 +
STACK CFI INIT 5c9b8 40 .cfa: sp 0 +
STACK CFI INIT 5c9f8 40 .cfa: sp 0 +
STACK CFI INIT 5ca38 34 .cfa: sp 0 +
STACK CFI INIT 5ca6c f0 .cfa: sp 0 +
STACK CFI INIT 5cb5c 54 .cfa: sp 0 +
STACK CFI INIT 5cbb0 9c .cfa: sp 0 +
STACK CFI INIT 5cc4c e0 .cfa: sp 0 +
STACK CFI INIT 5cd2c 12c .cfa: sp 0 +
STACK CFI INIT 5ce58 1c .cfa: sp 0 +
STACK CFI INIT 5ce74 20 .cfa: sp 0 +
STACK CFI INIT 5ce94 38 .cfa: sp 0 +
STACK CFI INIT 5cecc 84 .cfa: sp 0 +
STACK CFI INIT 5cf50 70 .cfa: sp 0 +
STACK CFI INIT 5cfc0 80 .cfa: sp 0 +
STACK CFI INIT 5d040 4c .cfa: sp 0 +
STACK CFI INIT 5d08c 250 .cfa: sp 0 +
STACK CFI INIT 5d2dc 20 .cfa: sp 0 +
STACK CFI INIT 5d2fc 18 .cfa: sp 0 +
STACK CFI INIT 5d314 14 .cfa: sp 0 +
STACK CFI INIT 5d328 18 .cfa: sp 0 +
STACK CFI INIT 5d340 14 .cfa: sp 0 +
STACK CFI INIT 5d354 14 .cfa: sp 0 +
STACK CFI INIT 5d368 14 .cfa: sp 0 +
STACK CFI INIT 5d37c 14 .cfa: sp 0 +
STACK CFI INIT 5d390 20 .cfa: sp 0 +
STACK CFI INIT 5d3b0 18 .cfa: sp 0 +
STACK CFI INIT 5d3c8 14 .cfa: sp 0 +
STACK CFI INIT 5d3dc 20 .cfa: sp 0 +
STACK CFI INIT 5d3fc c .cfa: sp 0 +
STACK CFI INIT 5d408 18 .cfa: sp 0 +
STACK CFI INIT 5d420 c .cfa: sp 0 +
STACK CFI INIT 5d42c 18 .cfa: sp 0 +
STACK CFI INIT 5d444 10 .cfa: sp 0 +
STACK CFI INIT 5d454 c .cfa: sp 0 +
STACK CFI INIT 5d460 20 .cfa: sp 0 +
STACK CFI INIT 5d480 18 .cfa: sp 0 +
STACK CFI INIT 5d498 14 .cfa: sp 0 +
STACK CFI INIT 5d4ac 18 .cfa: sp 0 +
STACK CFI INIT 5d4c4 14 .cfa: sp 0 +
STACK CFI INIT 5d4d8 14 .cfa: sp 0 +
STACK CFI INIT 5d4ec 14 .cfa: sp 0 +
STACK CFI INIT 5d500 14 .cfa: sp 0 +
STACK CFI INIT 5d514 20 .cfa: sp 0 +
STACK CFI INIT 5d534 18 .cfa: sp 0 +
STACK CFI INIT 5d54c 14 .cfa: sp 0 +
STACK CFI INIT 5d560 20 .cfa: sp 0 +
STACK CFI INIT 5d580 18 .cfa: sp 0 +
STACK CFI INIT 5d598 18 .cfa: sp 0 +
STACK CFI INIT 5d5b0 34 .cfa: sp 0 +
STACK CFI INIT 5d5e4 84 .cfa: sp 0 +
STACK CFI INIT 5d668 ec .cfa: sp 0 +
STACK CFI INIT 5d754 88 .cfa: sp 0 +
STACK CFI INIT 5d7dc d4 .cfa: sp 0 +
STACK CFI INIT 5d8b0 118 .cfa: sp 0 +
STACK CFI INIT 5d9c8 70 .cfa: sp 0 +
STACK CFI INIT 5da38 64 .cfa: sp 0 +
STACK CFI INIT 5da9c 78 .cfa: sp 0 +
STACK CFI INIT 5db14 34 .cfa: sp 0 +
STACK CFI INIT 5db48 18 .cfa: sp 0 +
STACK CFI INIT 5db60 ec .cfa: sp 0 +
STACK CFI INIT 5dc4c 118 .cfa: sp 0 +
STACK CFI INIT 5dd64 ec .cfa: sp 0 +
STACK CFI INIT 5de50 17c .cfa: sp 0 +
STACK CFI INIT 5dfcc 1d4 .cfa: sp 0 +
STACK CFI INIT 5e1a0 ec .cfa: sp 0 +
STACK CFI INIT 5e28c 28 .cfa: sp 0 +
STACK CFI INIT 5e2b4 60 .cfa: sp 0 +
STACK CFI INIT 5e314 a4 .cfa: sp 0 +
STACK CFI INIT 5e3b8 16c .cfa: sp 0 +
STACK CFI INIT 5e524 a4 .cfa: sp 0 +
STACK CFI INIT 5e5c8 190 .cfa: sp 0 +
STACK CFI INIT 5e758 a4 .cfa: sp 0 +
STACK CFI INIT 5e7fc 160 .cfa: sp 0 +
STACK CFI INIT 5e95c 30 .cfa: sp 0 +
STACK CFI INIT 5e98c 24 .cfa: sp 0 +
STACK CFI INIT 5e9b0 14 .cfa: sp 0 +
STACK CFI INIT 5e9c4 304 .cfa: sp 0 +
STACK CFI INIT 5ecc8 e0 .cfa: sp 0 +
STACK CFI INIT 5eda8 a0 .cfa: sp 0 +
STACK CFI INIT 5ee48 b4 .cfa: sp 0 +
STACK CFI INIT 5eefc 74 .cfa: sp 0 +
STACK CFI INIT 5ef70 58 .cfa: sp 0 +
STACK CFI INIT 5efc8 16c .cfa: sp 0 +
STACK CFI INIT 5f134 12c .cfa: sp 0 +
STACK CFI INIT 5f260 48 .cfa: sp 0 +
STACK CFI INIT 5f2a8 ec .cfa: sp 0 +
STACK CFI INIT 5f394 a4 .cfa: sp 0 +
STACK CFI INIT 5f438 214 .cfa: sp 0 +
STACK CFI INIT 5f64c c .cfa: sp 0 +
STACK CFI INIT 5f658 a0 .cfa: sp 0 +
STACK CFI INIT 5f6f8 8 .cfa: sp 0 +
STACK CFI INIT 5f700 40 .cfa: sp 0 +
STACK CFI INIT 5f740 12c .cfa: sp 0 +
STACK CFI INIT 5f86c c .cfa: sp 0 +
STACK CFI INIT 5f878 460 .cfa: sp 0 +
STACK CFI INIT 5fcd8 23c .cfa: sp 0 +
STACK CFI INIT 5ff14 44 .cfa: sp 0 +
STACK CFI INIT 5ff58 478 .cfa: sp 0 +
STACK CFI INIT 603d0 24 .cfa: sp 0 +
STACK CFI INIT 603f4 54 .cfa: sp 0 +
STACK CFI INIT 60448 4c .cfa: sp 0 +
STACK CFI INIT 60494 16c .cfa: sp 0 +
STACK CFI INIT 60600 dc .cfa: sp 0 +
STACK CFI INIT 606dc 18 .cfa: sp 0 +
STACK CFI INIT 606f4 34 .cfa: sp 0 +
STACK CFI INIT 60728 30 .cfa: sp 0 +
STACK CFI INIT 60758 4c .cfa: sp 0 +
STACK CFI INIT 607a4 14 .cfa: sp 0 +
STACK CFI INIT 607b8 8 .cfa: sp 0 +
STACK CFI INIT 607c0 18 .cfa: sp 0 +
STACK CFI INIT 607d8 18 .cfa: sp 0 +
STACK CFI INIT 607f0 18 .cfa: sp 0 +
STACK CFI INIT 60808 fc .cfa: sp 0 +
STACK CFI INIT 60904 e8 .cfa: sp 0 +
STACK CFI INIT 609ec 5c .cfa: sp 0 +
STACK CFI INIT 60a48 5c .cfa: sp 0 +
STACK CFI INIT 60aa4 1c .cfa: sp 0 +
STACK CFI INIT 60ac0 1c .cfa: sp 0 +
STACK CFI INIT 60adc 10 .cfa: sp 0 +
STACK CFI INIT 60aec 10 .cfa: sp 0 +
STACK CFI INIT 60afc 20 .cfa: sp 0 +
STACK CFI INIT 60b1c 20 .cfa: sp 0 +
STACK CFI INIT 60b3c 2c .cfa: sp 0 +
STACK CFI INIT 60b68 2c .cfa: sp 0 +
STACK CFI INIT 60b94 a8 .cfa: sp 0 +
STACK CFI INIT 60c3c 48 .cfa: sp 0 +
STACK CFI INIT 60c84 28 .cfa: sp 0 +
STACK CFI INIT 60cac 68 .cfa: sp 0 +
STACK CFI INIT 60d14 6c .cfa: sp 0 +
STACK CFI INIT 60d80 fc .cfa: sp 0 +
STACK CFI INIT 60e7c 14 .cfa: sp 0 +
STACK CFI INIT 60e90 228 .cfa: sp 0 +
STACK CFI INIT 610b8 1c .cfa: sp 0 +
STACK CFI INIT 610d4 14 .cfa: sp 0 +
STACK CFI INIT 610e8 d0 .cfa: sp 0 +
STACK CFI INIT 611b8 fc .cfa: sp 0 +
STACK CFI INIT 612b4 184 .cfa: sp 0 +
STACK CFI INIT 61438 ec .cfa: sp 0 +
STACK CFI INIT 61524 fc .cfa: sp 0 +
STACK CFI INIT 61620 c .cfa: sp 0 +
STACK CFI INIT 6162c c .cfa: sp 0 +
STACK CFI INIT 61638 24 .cfa: sp 0 +
STACK CFI INIT 6165c 2c .cfa: sp 0 +
STACK CFI INIT 61688 54 .cfa: sp 0 +
STACK CFI INIT 616dc 8c .cfa: sp 0 +
STACK CFI INIT 61768 bc .cfa: sp 0 +
STACK CFI INIT 61824 fc .cfa: sp 0 +
STACK CFI INIT 61920 1c4 .cfa: sp 0 +
STACK CFI INIT 61ae4 54 .cfa: sp 0 +
STACK CFI INIT 61b38 1bc .cfa: sp 0 +
STACK CFI INIT 61cf4 2bc .cfa: sp 0 +
STACK CFI INIT 61fb0 54 .cfa: sp 0 +
STACK CFI INIT 62004 e8 .cfa: sp 0 +
STACK CFI INIT 620ec e8 .cfa: sp 0 +
STACK CFI INIT 621d4 2c .cfa: sp 0 +
STACK CFI INIT 62200 74 .cfa: sp 0 +
STACK CFI INIT 62274 cc .cfa: sp 0 +
STACK CFI INIT 62340 58 .cfa: sp 0 +
STACK CFI INIT 62398 58 .cfa: sp 0 +
STACK CFI INIT 623f0 1e4 .cfa: sp 0 +
STACK CFI INIT 625d4 dc .cfa: sp 0 +
STACK CFI INIT 626b0 4c .cfa: sp 0 +
STACK CFI INIT 626fc 190 .cfa: sp 0 +
STACK CFI INIT 6288c 28 .cfa: sp 0 +
STACK CFI INIT 628b4 14c .cfa: sp 0 +
STACK CFI INIT 62a00 d0 .cfa: sp 0 +
STACK CFI INIT 62ad0 48 .cfa: sp 0 +
STACK CFI INIT 62b18 48 .cfa: sp 0 +
STACK CFI INIT 62b60 1c4 .cfa: sp 0 +
STACK CFI INIT 62d24 d4 .cfa: sp 0 +
STACK CFI INIT 62df8 22c .cfa: sp 0 +
STACK CFI INIT 63024 b4 .cfa: sp 0 +
STACK CFI INIT 630d8 14c .cfa: sp 0 +
STACK CFI INIT 63224 12c .cfa: sp 0 +
STACK CFI INIT 63350 18 .cfa: sp 0 +
STACK CFI INIT 63368 190 .cfa: sp 0 +
STACK CFI INIT 634f8 114 .cfa: sp 0 +
STACK CFI INIT 6360c 8 .cfa: sp 0 +
STACK CFI INIT 63614 25c .cfa: sp 0 +
STACK CFI INIT 63870 208 .cfa: sp 0 +
STACK CFI INIT 63a78 240 .cfa: sp 0 +
STACK CFI INIT 63cb8 2f0 .cfa: sp 0 +
STACK CFI INIT 63fa8 2d4 .cfa: sp 0 +
STACK CFI INIT 6427c 24 .cfa: sp 0 +
STACK CFI INIT 642a0 88 .cfa: sp 0 +
STACK CFI INIT 64328 52c .cfa: sp 0 +
STACK CFI INIT 64854 b8 .cfa: sp 0 +
STACK CFI INIT 6490c 44 .cfa: sp 0 +
STACK CFI INIT 64950 ec .cfa: sp 0 +
STACK CFI INIT 64a3c 240 .cfa: sp 0 +
STACK CFI INIT 64c7c 274 .cfa: sp 0 +
STACK CFI INIT 64ef0 a0 .cfa: sp 0 +
STACK CFI INIT 64f90 ac .cfa: sp 0 +
STACK CFI INIT 6503c bc .cfa: sp 0 +
STACK CFI INIT 650f8 288 .cfa: sp 0 +
STACK CFI INIT 65380 528 .cfa: sp 0 +
STACK CFI INIT 658a8 34 .cfa: sp 0 +
STACK CFI INIT 658dc e8 .cfa: sp 0 +
STACK CFI INIT 659c4 c8 .cfa: sp 0 +
STACK CFI INIT 65a8c c .cfa: sp 0 +
STACK CFI INIT 65a98 cc .cfa: sp 0 +
STACK CFI INIT 65b64 3c .cfa: sp 0 +
STACK CFI INIT 65ba0 34c .cfa: sp 0 +
STACK CFI INIT 65eec 8 .cfa: sp 0 +
STACK CFI INIT 65ef4 20 .cfa: sp 0 +
STACK CFI INIT 65f14 8 .cfa: sp 0 +
STACK CFI INIT 65f1c 8 .cfa: sp 0 +
STACK CFI INIT 65f24 8 .cfa: sp 0 +
STACK CFI INIT 65f2c 8 .cfa: sp 0 +
STACK CFI INIT 65f34 8 .cfa: sp 0 +
STACK CFI INIT 65f3c 8 .cfa: sp 0 +
STACK CFI INIT 65f44 100 .cfa: sp 0 +
STACK CFI INIT 66044 20 .cfa: sp 0 +
STACK CFI INIT 66064 134 .cfa: sp 0 +
STACK CFI INIT 66198 68 .cfa: sp 0 +
STACK CFI INIT 66200 1c .cfa: sp 0 +
STACK CFI INIT 6621c 18 .cfa: sp 0 +
STACK CFI INIT 66234 10 .cfa: sp 0 +
STACK CFI INIT 66244 70 .cfa: sp 0 +
STACK CFI INIT 662b4 60 .cfa: sp 0 +
STACK CFI INIT 66314 160 .cfa: sp 0 +
STACK CFI INIT 66474 140 .cfa: sp 0 +
STACK CFI INIT 665b4 44 .cfa: sp 0 +
STACK CFI INIT 665f8 20 .cfa: sp 0 +
STACK CFI INIT 66618 3c .cfa: sp 0 +
STACK CFI INIT 66654 24 .cfa: sp 0 +
STACK CFI INIT 66678 34 .cfa: sp 0 +
STACK CFI INIT 666ac 4c .cfa: sp 0 +
STACK CFI INIT 666f8 54 .cfa: sp 0 +
STACK CFI INIT 6674c 8 .cfa: sp 0 +
STACK CFI INIT 66754 fc .cfa: sp 0 +
STACK CFI INIT 66850 110 .cfa: sp 0 +
STACK CFI INIT 66960 120 .cfa: sp 0 +
STACK CFI INIT 66a80 8 .cfa: sp 0 +
STACK CFI INIT 66a88 1c .cfa: sp 0 +
STACK CFI INIT 66aa4 54 .cfa: sp 0 +
STACK CFI INIT 66af8 11c .cfa: sp 0 +
STACK CFI INIT 66c14 20c .cfa: sp 0 +
STACK CFI INIT 66e20 30 .cfa: sp 0 +
STACK CFI INIT 66e50 2c .cfa: sp 0 +
STACK CFI INIT 66e7c 14 .cfa: sp 0 +
STACK CFI INIT 66e90 20 .cfa: sp 0 +
STACK CFI INIT 66eb0 14 .cfa: sp 0 +
STACK CFI INIT 66ec4 1c .cfa: sp 0 +
STACK CFI INIT 66ee0 24 .cfa: sp 0 +
STACK CFI INIT 66f04 144 .cfa: sp 0 +
STACK CFI INIT 67048 8 .cfa: sp 0 +
STACK CFI INIT 67050 28 .cfa: sp 0 +
STACK CFI INIT 67078 d4 .cfa: sp 0 +
STACK CFI INIT 6714c fc .cfa: sp 0 +
STACK CFI INIT 67248 ec .cfa: sp 0 +
STACK CFI INIT 67334 e0 .cfa: sp 0 +
STACK CFI INIT 67414 150 .cfa: sp 0 +
STACK CFI INIT 67564 bc .cfa: sp 0 +
STACK CFI INIT 67620 5c .cfa: sp 0 +
STACK CFI INIT 6767c 8 .cfa: sp 0 +
STACK CFI INIT 67684 8 .cfa: sp 0 +
STACK CFI INIT 6768c c .cfa: sp 0 +
STACK CFI INIT 67698 c .cfa: sp 0 +
STACK CFI INIT 676a4 c .cfa: sp 0 +
STACK CFI INIT 676b0 c .cfa: sp 0 +
STACK CFI INIT 676bc c .cfa: sp 0 +
STACK CFI INIT 676c8 c .cfa: sp 0 +
STACK CFI INIT 676d4 8 .cfa: sp 0 +
STACK CFI INIT 676dc 8 .cfa: sp 0 +
STACK CFI INIT 676e4 144 .cfa: sp 0 +
STACK CFI INIT 67828 c .cfa: sp 0 +
STACK CFI INIT 67834 c .cfa: sp 0 +
STACK CFI INIT 67840 2c .cfa: sp 0 +
STACK CFI INIT 6786c 10 .cfa: sp 0 +
STACK CFI INIT 6787c 1a4 .cfa: sp 0 +
STACK CFI INIT 67a20 120 .cfa: sp 0 +
STACK CFI INIT 67b40 190 .cfa: sp 0 +
STACK CFI INIT 67cd0 114 .cfa: sp 0 +
STACK CFI INIT 67de4 88 .cfa: sp 0 +
STACK CFI INIT 67e6c 1d0 .cfa: sp 0 +
STACK CFI INIT 6803c 88 .cfa: sp 0 +
STACK CFI INIT 680c4 54 .cfa: sp 0 +
STACK CFI INIT 68118 ec .cfa: sp 0 +
STACK CFI INIT 68204 ec .cfa: sp 0 +
STACK CFI INIT 682f0 198 .cfa: sp 0 +
STACK CFI INIT 68488 194 .cfa: sp 0 +
STACK CFI INIT 6861c 90 .cfa: sp 0 +
STACK CFI INIT 686ac 60 .cfa: sp 0 +
STACK CFI INIT 6870c 118 .cfa: sp 0 +
STACK CFI INIT 68824 10c .cfa: sp 0 +
STACK CFI INIT 68930 60 .cfa: sp 0 +
STACK CFI INIT 68990 13c .cfa: sp 0 +
STACK CFI INIT 68acc 6c .cfa: sp 0 +
STACK CFI INIT 68b38 6c .cfa: sp 0 +
STACK CFI INIT 68ba4 68 .cfa: sp 0 +
STACK CFI INIT 68c0c 68 .cfa: sp 0 +
STACK CFI INIT 68c74 74 .cfa: sp 0 +
STACK CFI INIT 68ce8 238 .cfa: sp 0 +
STACK CFI INIT 68f20 c8 .cfa: sp 0 +
STACK CFI INIT 68fe8 b4 .cfa: sp 0 +
STACK CFI INIT 6909c 68 .cfa: sp 0 +
STACK CFI INIT 69104 c .cfa: sp 0 +
STACK CFI INIT 69110 c .cfa: sp 0 +
STACK CFI INIT 6911c c .cfa: sp 0 +
STACK CFI INIT 69128 24 .cfa: sp 0 +
STACK CFI INIT 6914c 24 .cfa: sp 0 +
STACK CFI INIT 69170 24 .cfa: sp 0 +
STACK CFI INIT 69194 24 .cfa: sp 0 +
STACK CFI INIT 691b8 28 .cfa: sp 0 +
STACK CFI INIT 691e0 28 .cfa: sp 0 +
STACK CFI INIT 69208 28 .cfa: sp 0 +
STACK CFI INIT 69230 28 .cfa: sp 0 +
STACK CFI INIT 69258 180 .cfa: sp 0 +
STACK CFI INIT 693d8 14 .cfa: sp 0 +
STACK CFI INIT 693ec 14 .cfa: sp 0 +
STACK CFI INIT 69400 c .cfa: sp 0 +
STACK CFI INIT 6940c b8 .cfa: sp 0 +
STACK CFI INIT 694c4 c4 .cfa: sp 0 +
STACK CFI INIT 69588 b0 .cfa: sp 0 +
STACK CFI INIT 69638 44 .cfa: sp 0 +
STACK CFI INIT 6967c e8 .cfa: sp 0 +
STACK CFI INIT 69764 5c .cfa: sp 0 +
STACK CFI INIT 697c0 164 .cfa: sp 0 +
STACK CFI INIT 69924 124 .cfa: sp 0 +
STACK CFI INIT 69a48 7c .cfa: sp 0 +
STACK CFI INIT 69ac4 44 .cfa: sp 0 +
STACK CFI INIT 69b08 1c .cfa: sp 0 +
STACK CFI INIT 69b24 8 .cfa: sp 0 +
STACK CFI INIT 69b2c 20 .cfa: sp 0 +
STACK CFI INIT 69b4c 19c .cfa: sp 0 +
STACK CFI INIT 69ce8 20 .cfa: sp 0 +
STACK CFI INIT 69d08 10 .cfa: sp 0 +
STACK CFI INIT 69d18 1b0 .cfa: sp 0 +
STACK CFI INIT 69ec8 1e4 .cfa: sp 0 +
STACK CFI INIT 6a0ac 20 .cfa: sp 0 +
STACK CFI INIT 6a0cc c .cfa: sp 0 +
STACK CFI INIT 6a0d8 14 .cfa: sp 0 +
STACK CFI INIT 6a0ec 140 .cfa: sp 0 +
STACK CFI INIT 6a22c 20 .cfa: sp 0 +
STACK CFI INIT 6a24c 4c .cfa: sp 0 +
STACK CFI INIT 6a298 68 .cfa: sp 0 +
STACK CFI INIT 6a300 48 .cfa: sp 0 +
STACK CFI INIT 6a348 c .cfa: sp 0 +
STACK CFI INIT 6a354 54 .cfa: sp 0 +
STACK CFI INIT 6a3a8 2c .cfa: sp 0 +
STACK CFI INIT 6a3d4 2c .cfa: sp 0 +
STACK CFI INIT 6a400 c0 .cfa: sp 0 +
STACK CFI INIT 6a4c0 c .cfa: sp 0 +
STACK CFI INIT 6a4cc 150 .cfa: sp 0 +
STACK CFI INIT 6a61c c .cfa: sp 0 +
STACK CFI INIT 6a628 30 .cfa: sp 0 +
STACK CFI INIT 6a658 f0 .cfa: sp 0 +
STACK CFI INIT 6a748 7c .cfa: sp 0 +
STACK CFI INIT 6a7c4 20 .cfa: sp 0 +
STACK CFI INIT 6a7e4 10 .cfa: sp 0 +
STACK CFI INIT 6a7f4 14 .cfa: sp 0 +
STACK CFI INIT 6a808 14 .cfa: sp 0 +
STACK CFI INIT 6a81c 10 .cfa: sp 0 +
STACK CFI INIT 6a82c a0 .cfa: sp 0 +
STACK CFI INIT 6a8cc 70 .cfa: sp 0 +
STACK CFI INIT 6a93c 70 .cfa: sp 0 +
STACK CFI INIT 6a9ac 5c .cfa: sp 0 +
STACK CFI INIT 6aa08 5c .cfa: sp 0 +
STACK CFI INIT 6aa64 6c .cfa: sp 0 +
STACK CFI INIT 6aad0 3c .cfa: sp 0 +
STACK CFI INIT 6ab0c 5c .cfa: sp 0 +
STACK CFI INIT 6ab68 5c .cfa: sp 0 +
STACK CFI INIT 6abc4 3c .cfa: sp 0 +
STACK CFI INIT 6ac00 40 .cfa: sp 0 +
STACK CFI INIT 6ac40 40 .cfa: sp 0 +
STACK CFI INIT 6ac80 8c .cfa: sp 0 +
STACK CFI INIT 6ad0c 64 .cfa: sp 0 +
STACK CFI INIT 6ad70 8c .cfa: sp 0 +
STACK CFI INIT 6adfc 50 .cfa: sp 0 +
STACK CFI INIT 6ae4c 50 .cfa: sp 0 +
STACK CFI INIT 6ae9c 6c .cfa: sp 0 +
STACK CFI INIT 6af08 b8 .cfa: sp 0 +
STACK CFI INIT 6afc0 6c .cfa: sp 0 +
STACK CFI INIT 6b02c 74 .cfa: sp 0 +
STACK CFI INIT 6b0a0 c .cfa: sp 0 +
STACK CFI INIT 6b0ac a0 .cfa: sp 0 +
STACK CFI INIT 6b14c 8c .cfa: sp 0 +
STACK CFI INIT 6b1d8 130 .cfa: sp 0 +
STACK CFI INIT 6b308 6c .cfa: sp 0 +
STACK CFI INIT 6b374 64 .cfa: sp 0 +
STACK CFI INIT 6b3d8 64 .cfa: sp 0 +
STACK CFI INIT 6b43c 6c .cfa: sp 0 +
STACK CFI INIT 6b4a8 c0 .cfa: sp 0 +
STACK CFI INIT 6b568 b8 .cfa: sp 0 +
STACK CFI INIT 6b620 68 .cfa: sp 0 +
STACK CFI INIT 6b688 70 .cfa: sp 0 +
STACK CFI INIT 6b6f8 bc .cfa: sp 0 +
STACK CFI INIT 6b7b4 130 .cfa: sp 0 +
STACK CFI INIT 6b8e4 68 .cfa: sp 0 +
STACK CFI INIT 6b94c 194 .cfa: sp 0 +
STACK CFI INIT 6bae0 10 .cfa: sp 0 +
STACK CFI INIT 6baf0 1bc .cfa: sp 0 +
STACK CFI INIT 6bcac 10 .cfa: sp 0 +
STACK CFI INIT 6bcbc 48 .cfa: sp 0 +
STACK CFI INIT 6bd04 34 .cfa: sp 0 +
STACK CFI INIT 6bd38 28 .cfa: sp 0 +
STACK CFI INIT 6bd60 18 .cfa: sp 0 +
STACK CFI INIT 6bd78 14 .cfa: sp 0 +
STACK CFI INIT 6bd8c 18 .cfa: sp 0 +
STACK CFI INIT 6bda4 18 .cfa: sp 0 +
STACK CFI INIT 6bdbc 18 .cfa: sp 0 +
STACK CFI INIT 6bdd4 18 .cfa: sp 0 +
STACK CFI INIT 6bdec 18 .cfa: sp 0 +
STACK CFI INIT 6be04 18 .cfa: sp 0 +
STACK CFI INIT 6be1c 18 .cfa: sp 0 +
STACK CFI INIT 6be34 18 .cfa: sp 0 +
STACK CFI INIT 6be4c 18 .cfa: sp 0 +
STACK CFI INIT 6be64 18 .cfa: sp 0 +
STACK CFI INIT 6be7c 18 .cfa: sp 0 +
STACK CFI INIT 6be94 14 .cfa: sp 0 +
STACK CFI INIT 6bea8 18 .cfa: sp 0 +
STACK CFI INIT 6bec0 48 .cfa: sp 0 +
STACK CFI INIT 6bf08 64 .cfa: sp 0 +
STACK CFI INIT 6bf6c cc .cfa: sp 0 +
STACK CFI INIT 6c038 9c .cfa: sp 0 +
STACK CFI INIT 6c0d4 a8 .cfa: sp 0 +
STACK CFI INIT 6c17c b4 .cfa: sp 0 +
STACK CFI INIT 6c230 9c .cfa: sp 0 +
STACK CFI INIT 6c2cc 200 .cfa: sp 0 +
STACK CFI INIT 6c4cc 124 .cfa: sp 0 +
STACK CFI INIT 6c5f0 1c .cfa: sp 0 +
STACK CFI INIT 6c60c 8 .cfa: sp 0 +
STACK CFI INIT 6c614 8 .cfa: sp 0 +
STACK CFI INIT 6c61c 8 .cfa: sp 0 +
STACK CFI INIT 6c624 8 .cfa: sp 0 +
STACK CFI INIT 6c62c 8 .cfa: sp 0 +
STACK CFI INIT 6c634 8 .cfa: sp 0 +
STACK CFI INIT 6c63c 8 .cfa: sp 0 +
STACK CFI INIT 6c644 ac .cfa: sp 0 +
STACK CFI INIT 6c6f0 a0 .cfa: sp 0 +
STACK CFI INIT 6c790 c8 .cfa: sp 0 +
STACK CFI INIT 6c858 8 .cfa: sp 0 +
STACK CFI INIT 6c860 8 .cfa: sp 0 +
STACK CFI INIT 6c868 8 .cfa: sp 0 +
STACK CFI INIT 6c870 8 .cfa: sp 0 +
STACK CFI INIT 6c878 8 .cfa: sp 0 +
STACK CFI INIT 6c880 a0 .cfa: sp 0 +
STACK CFI INIT 6c920 b4 .cfa: sp 0 +
STACK CFI INIT 6c9d4 9c .cfa: sp 0 +
STACK CFI INIT 6ca70 24 .cfa: sp 0 +
STACK CFI INIT 6ca94 8 .cfa: sp 0 +
STACK CFI INIT 6ca9c 10 .cfa: sp 0 +
STACK CFI INIT 6caac 10 .cfa: sp 0 +
STACK CFI INIT 6cabc 8 .cfa: sp 0 +
STACK CFI INIT 6cac4 8 .cfa: sp 0 +
STACK CFI INIT 6cacc 254 .cfa: sp 0 +
STACK CFI INIT 6cd20 8 .cfa: sp 0 +
STACK CFI INIT 6cd28 260 .cfa: sp 0 +
STACK CFI INIT 6cf88 8 .cfa: sp 0 +
STACK CFI INIT 6cf90 8 .cfa: sp 0 +
STACK CFI INIT 6cf98 8 .cfa: sp 0 +
STACK CFI INIT 6cfa0 230 .cfa: sp 0 +
STACK CFI INIT 6d1d0 8 .cfa: sp 0 +
STACK CFI INIT 6d1d8 23c .cfa: sp 0 +
STACK CFI INIT 6d414 8 .cfa: sp 0 +
STACK CFI INIT 6d41c 8 .cfa: sp 0 +
STACK CFI INIT 6d424 8 .cfa: sp 0 +
STACK CFI INIT 6d42c 8 .cfa: sp 0 +
STACK CFI INIT 6d434 6c .cfa: sp 0 +
STACK CFI INIT 6d4a0 140 .cfa: sp 0 +
STACK CFI INIT 6d5e0 10 .cfa: sp 0 +
STACK CFI INIT 6d5f0 8 .cfa: sp 0 +
STACK CFI INIT 6d5f8 108 .cfa: sp 0 +
STACK CFI INIT 6d700 ec .cfa: sp 0 +
STACK CFI INIT 6d7ec 64 .cfa: sp 0 +
STACK CFI INIT 6d850 c .cfa: sp 0 +
STACK CFI INIT 6d85c 10 .cfa: sp 0 +
STACK CFI INIT 6d86c 2c .cfa: sp 0 +
STACK CFI INIT 6d898 28 .cfa: sp 0 +
STACK CFI INIT 6d8c0 28 .cfa: sp 0 +
STACK CFI INIT 6d8e8 30 .cfa: sp 0 +
STACK CFI INIT 6d918 dc .cfa: sp 0 +
STACK CFI INIT 6d9f4 2c .cfa: sp 0 +
STACK CFI INIT 6da20 30 .cfa: sp 0 +
STACK CFI INIT 6da50 30 .cfa: sp 0 +
STACK CFI INIT 6da80 1c .cfa: sp 0 +
STACK CFI INIT 6da9c 2c .cfa: sp 0 +
STACK CFI INIT 6dac8 24 .cfa: sp 0 +
STACK CFI INIT 6daec 2c .cfa: sp 0 +
STACK CFI INIT 6db18 60 .cfa: sp 0 +
STACK CFI INIT 6db78 10 .cfa: sp 0 +
STACK CFI INIT 6db88 38 .cfa: sp 0 +
STACK CFI INIT 6dbc0 38 .cfa: sp 0 +
STACK CFI INIT 6dbf8 b0 .cfa: sp 0 +
STACK CFI INIT 6dca8 b0 .cfa: sp 0 +
STACK CFI INIT 6dd58 b4 .cfa: sp 0 +
STACK CFI INIT 6de0c b4 .cfa: sp 0 +
STACK CFI INIT 6dec0 c4 .cfa: sp 0 +
STACK CFI INIT 6df84 ac .cfa: sp 0 +
STACK CFI INIT 6e030 11c .cfa: sp 0 +
STACK CFI INIT 6e14c 10 .cfa: sp 0 +
STACK CFI INIT 6e15c 10 .cfa: sp 0 +
STACK CFI INIT 6e16c 80 .cfa: sp 0 +
STACK CFI INIT 6e1ec 7c .cfa: sp 0 +
STACK CFI INIT 6e268 10 .cfa: sp 0 +
STACK CFI INIT 6e278 10 .cfa: sp 0 +
STACK CFI INIT 6e288 1c .cfa: sp 0 +
STACK CFI INIT 6e2a4 144 .cfa: sp 0 +
STACK CFI INIT 6e3e8 f4 .cfa: sp 0 +
STACK CFI INIT 6e4dc 270 .cfa: sp 0 +
STACK CFI INIT 6e74c 34 .cfa: sp 0 +
STACK CFI INIT 6e780 c .cfa: sp 0 +
STACK CFI INIT 6e78c 70 .cfa: sp 0 +
STACK CFI INIT 6e7fc 10 .cfa: sp 0 +
STACK CFI INIT 6e80c 14 .cfa: sp 0 +
STACK CFI INIT 6e820 20 .cfa: sp 0 +
STACK CFI INIT 6e840 20 .cfa: sp 0 +
STACK CFI INIT 6e860 18 .cfa: sp 0 +
STACK CFI INIT 6e878 20 .cfa: sp 0 +
STACK CFI INIT 6e898 20 .cfa: sp 0 +
STACK CFI INIT 6e8b8 c .cfa: sp 0 +
STACK CFI INIT 6e8c4 14 .cfa: sp 0 +
STACK CFI INIT 6e8d8 20 .cfa: sp 0 +
STACK CFI INIT 6e8f8 14 .cfa: sp 0 +
STACK CFI INIT 6e90c 18 .cfa: sp 0 +
STACK CFI INIT 6e924 14 .cfa: sp 0 +
STACK CFI INIT 6e938 14 .cfa: sp 0 +
STACK CFI INIT 6e94c 538 .cfa: sp 0 +
STACK CFI INIT 6ee84 164 .cfa: sp 0 +
STACK CFI INIT 6efe8 13c .cfa: sp 0 +
STACK CFI INIT 6f124 60 .cfa: sp 0 +
STACK CFI INIT 6f184 14 .cfa: sp 0 +
STACK CFI INIT 6f198 14 .cfa: sp 0 +
STACK CFI INIT 6f1ac 3c .cfa: sp 0 +
STACK CFI INIT 6f1e8 58 .cfa: sp 0 +
STACK CFI INIT 6f240 58 .cfa: sp 0 +
STACK CFI INIT 6f298 58 .cfa: sp 0 +
STACK CFI INIT 6f2f0 10 .cfa: sp 0 +
STACK CFI INIT 6f300 10 .cfa: sp 0 +
STACK CFI INIT 6f310 10 .cfa: sp 0 +
STACK CFI INIT 6f320 10 .cfa: sp 0 +
STACK CFI INIT 6f330 64 .cfa: sp 0 +
STACK CFI INIT 6f394 10 .cfa: sp 0 +
STACK CFI INIT 6f3a4 44 .cfa: sp 0 +
STACK CFI INIT 6f3e8 64 .cfa: sp 0 +
STACK CFI INIT 6f44c 58 .cfa: sp 0 +
STACK CFI INIT 6f4a4 10 .cfa: sp 0 +
STACK CFI INIT 6f4b4 10 .cfa: sp 0 +
STACK CFI INIT 6f4c4 8 .cfa: sp 0 +
STACK CFI INIT 6f4cc 5c .cfa: sp 0 +
STACK CFI INIT 6f528 8 .cfa: sp 0 +
STACK CFI INIT 6f530 60 .cfa: sp 0 +
STACK CFI INIT 6f590 5c .cfa: sp 0 +
STACK CFI INIT 6f5ec 5c .cfa: sp 0 +
STACK CFI INIT 6f648 5c .cfa: sp 0 +
STACK CFI INIT 6f6a4 8 .cfa: sp 0 +
STACK CFI INIT 6f6ac dc .cfa: sp 0 +
STACK CFI INIT 6f788 5c .cfa: sp 0 +
STACK CFI INIT 6f7e4 5c .cfa: sp 0 +
STACK CFI INIT 6f840 5c .cfa: sp 0 +
STACK CFI INIT 6f89c 5c .cfa: sp 0 +
STACK CFI INIT 6f8f8 ac .cfa: sp 0 +
STACK CFI INIT 6f9a4 34 .cfa: sp 0 +
STACK CFI INIT 6f9d8 8 .cfa: sp 0 +
STACK CFI INIT 6f9e0 5c .cfa: sp 0 +
STACK CFI INIT 6fa3c 8 .cfa: sp 0 +
STACK CFI INIT 6fa44 14 .cfa: sp 0 +
STACK CFI INIT 6fa58 7c .cfa: sp 0 +
STACK CFI INIT 6fad4 34 .cfa: sp 0 +
STACK CFI INIT 6fb08 8 .cfa: sp 0 +
STACK CFI INIT 6fb10 5c .cfa: sp 0 +
STACK CFI INIT 6fb6c 8 .cfa: sp 0 +
STACK CFI INIT 6fb74 8 .cfa: sp 0 +
STACK CFI INIT 6fb7c 5c .cfa: sp 0 +
STACK CFI INIT 6fbd8 8 .cfa: sp 0 +
STACK CFI INIT 6fbe0 44 .cfa: sp 0 +
STACK CFI INIT 6fc24 138 .cfa: sp 0 +
STACK CFI INIT 6fd5c c4 .cfa: sp 0 +
STACK CFI INIT 6fe20 5c .cfa: sp 0 +
STACK CFI INIT 6fe7c b4 .cfa: sp 0 +
STACK CFI INIT 6ff30 c .cfa: sp 0 +
STACK CFI INIT 6ff3c 14 .cfa: sp 0 +
STACK CFI INIT 6ff50 7c .cfa: sp 0 +
STACK CFI INIT 6ffcc 8 .cfa: sp 0 +
STACK CFI INIT 6ffd4 8 .cfa: sp 0 +
STACK CFI INIT 6ffdc c .cfa: sp 0 +
STACK CFI INIT 6ffe8 c .cfa: sp 0 +
STACK CFI INIT 6fff4 2c .cfa: sp 0 +
STACK CFI INIT 70020 18 .cfa: sp 0 +
STACK CFI INIT 70038 c .cfa: sp 0 +
STACK CFI INIT 70044 c .cfa: sp 0 +
STACK CFI INIT 70050 20 .cfa: sp 0 +
STACK CFI INIT 70070 18 .cfa: sp 0 +
STACK CFI INIT 70088 200 .cfa: sp 0 +
STACK CFI INIT 70288 14 .cfa: sp 0 +
STACK CFI INIT 7029c 18 .cfa: sp 0 +
STACK CFI INIT 702b4 1d8 .cfa: sp 0 +
STACK CFI INIT 7048c 14 .cfa: sp 0 +
STACK CFI INIT 704a0 8 .cfa: sp 0 +
STACK CFI INIT 704a8 8 .cfa: sp 0 +
STACK CFI INIT 704b0 8 .cfa: sp 0 +
STACK CFI INIT 704b8 8 .cfa: sp 0 +
STACK CFI INIT 704c0 8 .cfa: sp 0 +
STACK CFI INIT 704c8 8 .cfa: sp 0 +
STACK CFI INIT 704d0 8 .cfa: sp 0 +
STACK CFI INIT 704d8 8 .cfa: sp 0 +
STACK CFI INIT 704e0 8 .cfa: sp 0 +
STACK CFI INIT 704e8 8 .cfa: sp 0 +
STACK CFI INIT 704f0 8 .cfa: sp 0 +
STACK CFI INIT 704f8 8 .cfa: sp 0 +
STACK CFI INIT 70500 250 .cfa: sp 0 +
STACK CFI INIT 70750 250 .cfa: sp 0 +
STACK CFI INIT 709a0 248 .cfa: sp 0 +
STACK CFI INIT 70be8 c .cfa: sp 0 +
STACK CFI INIT 70bf4 c .cfa: sp 0 +
STACK CFI INIT 70c00 c .cfa: sp 0 +
STACK CFI INIT 70c0c 2c .cfa: sp 0 +
STACK CFI INIT 70c38 20 .cfa: sp 0 +
STACK CFI INIT 70c58 2c .cfa: sp 0 +
STACK CFI INIT 70c84 18 .cfa: sp 0 +
STACK CFI INIT 70c9c 2c .cfa: sp 0 +
STACK CFI INIT 70cc8 14 .cfa: sp 0 +
STACK CFI INIT 70cdc 2c .cfa: sp 0 +
STACK CFI INIT 70d08 14 .cfa: sp 0 +
STACK CFI INIT 70d1c 2c .cfa: sp 0 +
STACK CFI INIT 70d48 14 .cfa: sp 0 +
STACK CFI INIT 70d5c 2c .cfa: sp 0 +
STACK CFI INIT 70d88 14 .cfa: sp 0 +
STACK CFI INIT 70d9c 2c .cfa: sp 0 +
STACK CFI INIT 70dc8 18 .cfa: sp 0 +
STACK CFI INIT 70de0 2c .cfa: sp 0 +
STACK CFI INIT 70e0c 14 .cfa: sp 0 +
STACK CFI INIT 70e20 2c .cfa: sp 0 +
STACK CFI INIT 70e4c 20 .cfa: sp 0 +
STACK CFI INIT 70e6c ac .cfa: sp 0 +
STACK CFI INIT 70f18 a4 .cfa: sp 0 +
STACK CFI INIT 70fbc b0 .cfa: sp 0 +
STACK CFI INIT 7106c 2c .cfa: sp 0 +
STACK CFI INIT 71098 2c .cfa: sp 0 +
STACK CFI INIT 710c4 2c .cfa: sp 0 +
STACK CFI INIT 710f0 ac .cfa: sp 0 +
STACK CFI INIT 7119c a4 .cfa: sp 0 +
STACK CFI INIT 71240 2c .cfa: sp 0 +
STACK CFI INIT 7126c 2c .cfa: sp 0 +
STACK CFI INIT 71298 2c .cfa: sp 0 +
STACK CFI INIT 712c4 b0 .cfa: sp 0 +
STACK CFI INIT 71374 2c .cfa: sp 0 +
STACK CFI INIT 713a0 2c .cfa: sp 0 +
STACK CFI INIT 713cc 2c .cfa: sp 0 +
STACK CFI INIT 713f8 2b4 .cfa: sp 0 +
STACK CFI INIT 716ac 8 .cfa: sp 0 +
STACK CFI INIT 716b4 b0 .cfa: sp 0 +
STACK CFI INIT 71764 b0 .cfa: sp 0 +
STACK CFI INIT 71814 b0 .cfa: sp 0 +
STACK CFI INIT 718c4 b0 .cfa: sp 0 +
STACK CFI INIT 71974 190 .cfa: sp 0 +
STACK CFI INIT 71b04 8 .cfa: sp 0 +
STACK CFI INIT 71b0c 58 .cfa: sp 0 +
STACK CFI INIT 71b64 58 .cfa: sp 0 +
STACK CFI INIT 71bbc 160 .cfa: sp 0 +
STACK CFI INIT 71d1c 8 .cfa: sp 0 +
STACK CFI INIT 71d24 128 .cfa: sp 0 +
STACK CFI INIT 71e4c 2c .cfa: sp 0 +
STACK CFI INIT 71e78 c .cfa: sp 0 +
STACK CFI INIT 71e84 14 .cfa: sp 0 +
STACK CFI INIT 71e98 30 .cfa: sp 0 +
STACK CFI INIT 71ec8 1c .cfa: sp 0 +
STACK CFI INIT 71ee4 64 .cfa: sp 0 +
STACK CFI INIT 71f48 3cc .cfa: sp 0 +
STACK CFI INIT 72314 c .cfa: sp 0 +
STACK CFI INIT 72320 454 .cfa: sp 0 +
STACK CFI INIT 72774 1cc .cfa: sp 0 +
STACK CFI INIT 72940 c .cfa: sp 0 +
STACK CFI INIT 7294c 198 .cfa: sp 0 +
STACK CFI INIT 72ae4 348 .cfa: sp 0 +
STACK CFI INIT 72e2c bc .cfa: sp 0 +
STACK CFI INIT 72ee8 c0 .cfa: sp 0 +
STACK CFI INIT 72fa8 34 .cfa: sp 0 +
STACK CFI INIT 72fdc cc .cfa: sp 0 +
STACK CFI INIT 730a8 14 .cfa: sp 0 +
STACK CFI INIT 730bc 10 .cfa: sp 0 +
STACK CFI INIT 730cc 14 .cfa: sp 0 +
STACK CFI INIT 730e0 10 .cfa: sp 0 +
STACK CFI INIT 730f0 24 .cfa: sp 0 +
STACK CFI INIT 73114 c0 .cfa: sp 0 +
STACK CFI INIT 731d4 1a4 .cfa: sp 0 +
STACK CFI INIT 73378 2c4 .cfa: sp 0 +
STACK CFI INIT 7363c 74 .cfa: sp 0 +
STACK CFI INIT 736b0 2a44 .cfa: sp 0 +
STACK CFI INIT 760f4 8c .cfa: sp 0 +
STACK CFI INIT 76180 110 .cfa: sp 0 +
STACK CFI INIT 76290 1c0 .cfa: sp 0 +
STACK CFI INIT 76450 1b0 .cfa: sp 0 +
STACK CFI INIT 76600 f8 .cfa: sp 0 +
STACK CFI INIT 766f8 1dc .cfa: sp 0 +
STACK CFI INIT 768d4 350 .cfa: sp 0 +
STACK CFI INIT 76c24 b4 .cfa: sp 0 +
STACK CFI INIT 76cd8 24 .cfa: sp 0 +
STACK CFI INIT 76cfc 50 .cfa: sp 0 +
STACK CFI INIT 76d4c 80 .cfa: sp 0 +
STACK CFI INIT 76dcc 64 .cfa: sp 0 +
STACK CFI INIT 76e30 68 .cfa: sp 0 +
STACK CFI INIT 76e98 86c .cfa: sp 0 +
STACK CFI INIT 77704 3a0 .cfa: sp 0 +
STACK CFI INIT 77aa4 320 .cfa: sp 0 +
STACK CFI INIT 77dc4 81c .cfa: sp 0 +
STACK CFI INIT 785e0 16c .cfa: sp 0 +
STACK CFI INIT 7874c 5a0 .cfa: sp 0 +
STACK CFI INIT 78cec 178 .cfa: sp 0 +
STACK CFI INIT 78e64 1fc .cfa: sp 0 +
STACK CFI INIT 79060 b4 .cfa: sp 0 +
STACK CFI INIT 79114 a0 .cfa: sp 0 +
STACK CFI INIT 791b4 908 .cfa: sp 0 +
STACK CFI INIT 79abc b8 .cfa: sp 0 +
STACK CFI INIT 79b74 1d8 .cfa: sp 0 +
STACK CFI INIT 79d4c 114 .cfa: sp 0 +
STACK CFI INIT 79e60 408 .cfa: sp 0 +
STACK CFI INIT 7a268 cc .cfa: sp 0 +
STACK CFI INIT 7a334 70 .cfa: sp 0 +
STACK CFI INIT 7a3a4 28c .cfa: sp 0 +
STACK CFI INIT 7a630 428 .cfa: sp 0 +
STACK CFI INIT 7aa58 54 .cfa: sp 0 +
STACK CFI INIT 7aaac 8c .cfa: sp 0 +
STACK CFI INIT 7ab38 b0 .cfa: sp 0 +
STACK CFI INIT 7abe8 d4 .cfa: sp 0 +
STACK CFI INIT 7acbc 94 .cfa: sp 0 +
STACK CFI INIT 7ad50 74 .cfa: sp 0 +
STACK CFI INIT 7adc4 74 .cfa: sp 0 +
STACK CFI INIT 7ae38 b4 .cfa: sp 0 +
STACK CFI INIT 7aeec 74 .cfa: sp 0 +
STACK CFI INIT 7af60 ac .cfa: sp 0 +
STACK CFI INIT 7b00c 3c0 .cfa: sp 0 +
STACK CFI INIT 7b3cc 1e0 .cfa: sp 0 +
STACK CFI INIT 7b5ac d4 .cfa: sp 0 +
STACK CFI INIT 7b680 a34 .cfa: sp 0 +
STACK CFI INIT 7c0b4 170 .cfa: sp 0 +
STACK CFI INIT 7c224 3b8 .cfa: sp 0 +
STACK CFI INIT 7c5dc 2c .cfa: sp 0 +
STACK CFI INIT 7c608 454 .cfa: sp 0 +
STACK CFI INIT 7ca5c b4 .cfa: sp 0 +
STACK CFI INIT 7cb10 1ec .cfa: sp 0 +
STACK CFI INIT 7ccfc 178 .cfa: sp 0 +
STACK CFI INIT 7ce74 24 .cfa: sp 0 +
STACK CFI INIT 7ce98 24 .cfa: sp 0 +
STACK CFI INIT 7cebc 2c .cfa: sp 0 +
STACK CFI INIT 7cee8 90 .cfa: sp 0 +
STACK CFI INIT 7cf78 8c .cfa: sp 0 +
STACK CFI INIT 7d004 1b8 .cfa: sp 0 +
STACK CFI INIT 7d1bc 5c .cfa: sp 0 +
STACK CFI INIT 7d218 54 .cfa: sp 0 +
STACK CFI INIT 7d26c 3c .cfa: sp 0 +
STACK CFI INIT 7d2a8 520 .cfa: sp 0 +
STACK CFI INIT 7d7c8 170 .cfa: sp 0 +
STACK CFI INIT 7d938 174 .cfa: sp 0 +
STACK CFI INIT 7daac 38 .cfa: sp 0 +
STACK CFI INIT 7dae4 110 .cfa: sp 0 +
STACK CFI INIT 7dbf4 3f4 .cfa: sp 0 +
STACK CFI INIT 7dfe8 2a4 .cfa: sp 0 +
STACK CFI INIT 7e28c 38 .cfa: sp 0 +
STACK CFI INIT 7e2c4 36c .cfa: sp 0 +
STACK CFI INIT 7e630 47c .cfa: sp 0 +
STACK CFI INIT 7eaac a4 .cfa: sp 0 +
STACK CFI INIT 7eb50 108 .cfa: sp 0 +
STACK CFI INIT 7ec58 c4 .cfa: sp 0 +
STACK CFI INIT 7ed1c 52c .cfa: sp 0 +
STACK CFI INIT 7f248 b4 .cfa: sp 0 +
STACK CFI INIT 7f2fc 278 .cfa: sp 0 +
STACK CFI INIT 7f574 39c .cfa: sp 0 +
STACK CFI INIT 7f910 9c .cfa: sp 0 +
STACK CFI INIT 7f9ac e4 .cfa: sp 0 +
STACK CFI INIT 7fa90 44 .cfa: sp 0 +
STACK CFI INIT 7fad4 c .cfa: sp 0 +
STACK CFI INIT 7fae0 68 .cfa: sp 0 +
STACK CFI INIT 7fb48 b0 .cfa: sp 0 +
STACK CFI INIT 7fbf8 168 .cfa: sp 0 +
STACK CFI INIT 7fd60 100 .cfa: sp 0 +
STACK CFI INIT 7fe60 2c .cfa: sp 0 +
STACK CFI INIT 7fe8c 8 .cfa: sp 0 +
STACK CFI INIT 7fe94 8 .cfa: sp 0 +
STACK CFI INIT 7fe9c 8 .cfa: sp 0 +
STACK CFI INIT 7fea4 8 .cfa: sp 0 +
STACK CFI INIT 7feac 150 .cfa: sp 0 +
STACK CFI INIT 7fffc 18 .cfa: sp 0 +
STACK CFI INIT 80014 10 .cfa: sp 0 +
STACK CFI INIT 80024 f8 .cfa: sp 0 +
STACK CFI INIT 8011c 154 .cfa: sp 0 +
STACK CFI INIT 80270 11c .cfa: sp 0 +
STACK CFI INIT 8038c d4 .cfa: sp 0 +
STACK CFI INIT 80460 d4 .cfa: sp 0 +
STACK CFI INIT 80534 ec .cfa: sp 0 +
STACK CFI INIT 80620 10c .cfa: sp 0 +
STACK CFI INIT 8072c d0 .cfa: sp 0 +
STACK CFI INIT 807fc 11c .cfa: sp 0 +
STACK CFI INIT 80918 124 .cfa: sp 0 +
STACK CFI INIT 80a3c c .cfa: sp 0 +
STACK CFI INIT 80a48 5f4 .cfa: sp 0 +
STACK CFI INIT 8103c 74 .cfa: sp 0 +
STACK CFI INIT 810b0 628 .cfa: sp 0 +
STACK CFI INIT 816d8 c8 .cfa: sp 0 +
STACK CFI INIT 817a0 c4 .cfa: sp 0 +
STACK CFI INIT 81864 98 .cfa: sp 0 +
STACK CFI INIT 818fc f4 .cfa: sp 0 +
STACK CFI INIT 819f0 8c .cfa: sp 0 +
STACK CFI INIT 81a7c 88 .cfa: sp 0 +
STACK CFI INIT 81b04 8c .cfa: sp 0 +
STACK CFI INIT 81b90 a8 .cfa: sp 0 +
STACK CFI INIT 81c38 e8 .cfa: sp 0 +
STACK CFI INIT 81d20 1fc .cfa: sp 0 +
STACK CFI INIT 81f1c 64 .cfa: sp 0 +
STACK CFI INIT 81f80 760 .cfa: sp 0 +
STACK CFI INIT 826e0 2c4 .cfa: sp 0 +
STACK CFI INIT 829a4 3f8 .cfa: sp 0 +
STACK CFI INIT 82d9c 230 .cfa: sp 0 +
STACK CFI INIT 82fcc 98 .cfa: sp 0 +
STACK CFI INIT 83064 24 .cfa: sp 0 +
STACK CFI INIT 83088 730 .cfa: sp 0 +
STACK CFI INIT 837b8 a8 .cfa: sp 0 +
STACK CFI INIT 83860 100 .cfa: sp 0 +
STACK CFI INIT 83960 8c .cfa: sp 0 +
STACK CFI INIT 839ec 3c .cfa: sp 0 +
STACK CFI INIT 83a28 310 .cfa: sp 0 +
STACK CFI INIT 83d38 154 .cfa: sp 0 +
STACK CFI INIT 83e8c 258 .cfa: sp 0 +
STACK CFI INIT 840e4 32c .cfa: sp 0 +
STACK CFI INIT 84410 c .cfa: sp 0 +
STACK CFI INIT 8441c 180 .cfa: sp 0 +
STACK CFI INIT 8459c 168 .cfa: sp 0 +
STACK CFI INIT 84704 128 .cfa: sp 0 +
STACK CFI INIT 8482c 170 .cfa: sp 0 +
STACK CFI INIT 8499c 1afc .cfa: sp 0 +
STACK CFI INIT 86498 10c .cfa: sp 0 +
STACK CFI INIT 865a4 13c .cfa: sp 0 +
STACK CFI INIT 866e0 14c .cfa: sp 0 +
STACK CFI INIT 8682c 18 .cfa: sp 0 +
STACK CFI INIT 86844 48 .cfa: sp 0 +
STACK CFI INIT 8688c 2c .cfa: sp 0 +
STACK CFI INIT 868b8 c4 .cfa: sp 0 +
STACK CFI INIT 8697c 28 .cfa: sp 0 +
STACK CFI INIT 869a4 2c .cfa: sp 0 +
STACK CFI INIT 869d0 6c .cfa: sp 0 +
STACK CFI INIT 86a3c 14 .cfa: sp 0 +
STACK CFI INIT 86a50 108 .cfa: sp 0 +
STACK CFI 86a58 .cfa: sp 16 + x19: .cfa -16 + ^
STACK CFI 86b54 .cfa: sp 0 +
STACK CFI INIT 86b58 130 .cfa: sp 0 +
STACK CFI INIT 86c88 120 .cfa: sp 0 +
STACK CFI INIT 86da8 54 .cfa: sp 0 +
STACK CFI INIT 86dfc 30 .cfa: sp 0 +
STACK CFI INIT 86e2c 28 .cfa: sp 0 +
STACK CFI INIT 86e54 24 .cfa: sp 0 +
STACK CFI INIT 86e78 90 .cfa: sp 0 +
STACK CFI INIT 86f08 90 .cfa: sp 0 +
STACK CFI INIT 86f98 98 .cfa: sp 0 +
STACK CFI INIT 87030 98 .cfa: sp 0 +
STACK CFI INIT 870c8 48 .cfa: sp 0 +
STACK CFI INIT 87110 34 .cfa: sp 0 +
STACK CFI INIT 87144 4c .cfa: sp 0 +
STACK CFI INIT 87190 4c .cfa: sp 0 +
STACK CFI INIT 871dc 44 .cfa: sp 0 +
STACK CFI INIT 87220 3c .cfa: sp 0 +
STACK CFI INIT 8725c 3c .cfa: sp 0 +
STACK CFI INIT 87298 50 .cfa: sp 0 +
STACK CFI INIT 872e8 30 .cfa: sp 0 +
STACK CFI INIT 87318 3c .cfa: sp 0 +
STACK CFI INIT 87354 50 .cfa: sp 0 +
STACK CFI INIT 873a4 48 .cfa: sp 0 +
STACK CFI INIT 873ec 48 .cfa: sp 0 +
STACK CFI INIT 87434 48 .cfa: sp 0 +
STACK CFI INIT 8747c 6c .cfa: sp 0 +
STACK CFI INIT 874e8 6c .cfa: sp 0 +
STACK CFI INIT 87554 6c .cfa: sp 0 +
STACK CFI INIT 875c0 6c .cfa: sp 0 +
STACK CFI INIT 8762c 70 .cfa: sp 0 +
STACK CFI INIT 8769c 64 .cfa: sp 0 +
STACK CFI INIT 87700 70 .cfa: sp 0 +
STACK CFI INIT 87770 4c .cfa: sp 0 +
STACK CFI INIT 877bc 4c .cfa: sp 0 +
STACK CFI INIT 87808 70 .cfa: sp 0 +
STACK CFI INIT 87878 3c .cfa: sp 0 +
STACK CFI INIT 878b4 15c .cfa: sp 0 +
STACK CFI INIT 87a10 4c .cfa: sp 0 +
STACK CFI INIT 87a5c 3c .cfa: sp 0 +
STACK CFI INIT 87a98 3c .cfa: sp 0 +
STACK CFI INIT 87ad4 3c .cfa: sp 0 +
STACK CFI INIT 87b10 98 .cfa: sp 0 +
STACK CFI INIT 87ba8 3c .cfa: sp 0 +
STACK CFI INIT 87be4 15c .cfa: sp 0 +
STACK CFI INIT 87d40 50 .cfa: sp 0 +
STACK CFI INIT 87d90 30 .cfa: sp 0 +
STACK CFI INIT 87dc0 90 .cfa: sp 0 +
STACK CFI INIT 87e50 d4 .cfa: sp 0 +
STACK CFI INIT 87f24 a0 .cfa: sp 0 +
STACK CFI INIT 87fc4 f0 .cfa: sp 0 +
STACK CFI INIT 880b4 70 .cfa: sp 0 +
STACK CFI INIT 88124 7c .cfa: sp 0 +
STACK CFI INIT 881a0 70 .cfa: sp 0 +
STACK CFI INIT 88210 70 .cfa: sp 0 +
STACK CFI INIT 88284 14 .cfa: sp 0 +
STACK CFI 88294 .cfa: sp 16 + x29: .cfa -16 + ^ .ra: .cfa -8 + ^
STACK CFI INIT 882a4 14 .cfa: sp 0 +
STACK CFI 882b4 .cfa: sp 16 + x29: .cfa -16 + ^ .ra: .cfa -8 + ^
STACK CFI INIT 882b8 14c .cfa: sp 0 +
STACK CFI INIT 88404 14 .cfa: sp 0 +
STACK CFI INIT 88418 700 .cfa: sp 0 +
STACK CFI INIT 88b18 c .cfa: sp 0 +
STACK CFI INIT 88b24 c .cfa: sp 0 +
STACK CFI INIT 88b30 b8 .cfa: sp 0 +
STACK CFI INIT 88be8 3dc .cfa: sp 0 +
STACK CFI INIT 88fc4 c .cfa: sp 0 +
STACK CFI INIT 88fd0 40 .cfa: sp 0 +
STACK CFI INIT 89010 c0 .cfa: sp 0 +
STACK CFI INIT 890d0 78 .cfa: sp 0 +
STACK CFI INIT 89148 30 .cfa: sp 0 +
STACK CFI INIT 89178 240 .cfa: sp 0 +
STACK CFI INIT 893b8 d18 .cfa: sp 0 +
STACK CFI INIT 8a0d0 6c .cfa: sp 0 +
STACK CFI INIT 8a13c 38 .cfa: sp 0 +
STACK CFI INIT 8a174 24 .cfa: sp 0 +
STACK CFI INIT 8a198 ac .cfa: sp 0 +
STACK CFI INIT 8a244 68 .cfa: sp 0 +
STACK CFI INIT 8a2ac 28 .cfa: sp 0 +
STACK CFI INIT 8a2d4 24 .cfa: sp 0 +
STACK CFI INIT 8a2f8 2c .cfa: sp 0 +
STACK CFI INIT 8a324 1c .cfa: sp 0 +
STACK CFI INIT 8a340 50 .cfa: sp 0 +
STACK CFI INIT 8a390 50 .cfa: sp 0 +
STACK CFI INIT 8a3e0 b0 .cfa: sp 0 +
STACK CFI INIT 8a490 20 .cfa: sp 0 +
STACK CFI INIT 8a4b0 80 .cfa: sp 0 +
STACK CFI INIT 8a530 3c .cfa: sp 0 +
STACK CFI INIT 8a56c 44 .cfa: sp 0 +
STACK CFI INIT 8a5b0 a8 .cfa: sp 0 +
STACK CFI INIT 8a658 34 .cfa: sp 0 +
STACK CFI INIT 8a68c 48 .cfa: sp 0 +
STACK CFI INIT 8a6d4 28 .cfa: sp 0 +
STACK CFI INIT 8a6fc 54 .cfa: sp 0 +
STACK CFI INIT 8a750 8c .cfa: sp 0 +
STACK CFI INIT 8a7dc 88 .cfa: sp 0 +
STACK CFI INIT 8a864 28 .cfa: sp 0 +
STACK CFI INIT 8a88c 3c .cfa: sp 0 +
STACK CFI INIT 8a8c8 c .cfa: sp 0 +
STACK CFI INIT 8a8d4 c .cfa: sp 0 +
STACK CFI INIT 8a8e0 5c .cfa: sp 0 +
STACK CFI INIT 8a93c 2a4 .cfa: sp 0 +
STACK CFI INIT 8abe0 4e4 .cfa: sp 0 +
STACK CFI INIT 8b0c4 70 .cfa: sp 0 +
STACK CFI INIT 8b134 380 .cfa: sp 0 +
STACK CFI INIT 8b4b4 10 .cfa: sp 0 +
STACK CFI INIT 8b4c4 c0 .cfa: sp 0 +
STACK CFI INIT 8b584 690 .cfa: sp 0 +
STACK CFI INIT 8bc14 d0 .cfa: sp 0 +
STACK CFI INIT 8bce4 1c0 .cfa: sp 0 +
STACK CFI INIT 8bea4 d8 .cfa: sp 0 +
STACK CFI INIT 8bf7c 64 .cfa: sp 0 +
STACK CFI INIT 8bfe0 a0 .cfa: sp 0 +
STACK CFI INIT 8c080 18 .cfa: sp 0 +
STACK CFI INIT 8c098 144 .cfa: sp 0 +
STACK CFI INIT 8c1dc ee0 .cfa: sp 0 +
STACK CFI INIT 8d0bc 1320 .cfa: sp 0 +
STACK CFI INIT 8e3dc 750 .cfa: sp 0 +
STACK CFI INIT 8eb2c 150 .cfa: sp 0 +
STACK CFI INIT 8ec7c 98 .cfa: sp 0 +
STACK CFI INIT 8ed14 40 .cfa: sp 0 +
STACK CFI INIT 8ed54 3d8 .cfa: sp 0 +
STACK CFI INIT 8f12c 790 .cfa: sp 0 +
STACK CFI INIT 8f8bc 398 .cfa: sp 0 +
STACK CFI INIT 8fc54 1a8 .cfa: sp 0 +
STACK CFI INIT 8fdfc e0 .cfa: sp 0 +
STACK CFI INIT 8fedc 88 .cfa: sp 0 +
STACK CFI INIT 8ff64 b8 .cfa: sp 0 +
STACK CFI INIT 9001c 120 .cfa: sp 0 +
STACK CFI INIT 9013c 7c .cfa: sp 0 +
STACK CFI INIT 901b8 b4 .cfa: sp 0 +
STACK CFI INIT 9026c 174 .cfa: sp 0 +
STACK CFI INIT 903e0 464 .cfa: sp 0 +
STACK CFI INIT 90844 214 .cfa: sp 0 +
STACK CFI INIT 90a58 60 .cfa: sp 0 +
STACK CFI INIT 90ab8 1f8 .cfa: sp 0 +
STACK CFI INIT 90cb0 144 .cfa: sp 0 +
STACK CFI INIT 90df4 31c .cfa: sp 0 +
STACK CFI INIT 91110 114 .cfa: sp 0 +
STACK CFI INIT 91224 cc .cfa: sp 0 +
STACK CFI INIT 912f0 4c .cfa: sp 0 +
STACK CFI INIT 9133c 13c .cfa: sp 0 +
STACK CFI INIT 91478 68 .cfa: sp 0 +
STACK CFI INIT 914e0 102c .cfa: sp 0 +
STACK CFI INIT 9250c 54 .cfa: sp 0 +
STACK CFI INIT 92560 c0 .cfa: sp 0 +
STACK CFI INIT 92620 f8 .cfa: sp 0 +
STACK CFI INIT 92718 19b4 .cfa: sp 0 +
STACK CFI INIT 940cc 3a0 .cfa: sp 0 +
STACK CFI INIT 9446c e8 .cfa: sp 0 +
STACK CFI INIT 94554 d8 .cfa: sp 0 +
STACK CFI INIT 9462c 178 .cfa: sp 0 +
STACK CFI INIT 947a4 78 .cfa: sp 0 +
STACK CFI INIT 9481c 148 .cfa: sp 0 +
STACK CFI INIT 94964 118 .cfa: sp 0 +
STACK CFI INIT 94a7c 20c .cfa: sp 0 +
STACK CFI INIT 94c88 130 .cfa: sp 0 +
STACK CFI INIT 94db8 c4 .cfa: sp 0 +
STACK CFI INIT 94e7c 98 .cfa: sp 0 +
STACK CFI INIT 94f14 11c .cfa: sp 0 +
STACK CFI INIT 95030 c .cfa: sp 0 +
STACK CFI INIT 9503c 68 .cfa: sp 0 +
STACK CFI INIT 950a4 140 .cfa: sp 0 +
STACK CFI INIT 951e4 c0 .cfa: sp 0 +
STACK CFI INIT 952a4 174 .cfa: sp 0 +
STACK CFI INIT 95418 2c .cfa: sp 0 +
STACK CFI INIT 95444 840 .cfa: sp 0 +
STACK CFI INIT 95c84 20 .cfa: sp 0 +
STACK CFI INIT 95ca4 18 .cfa: sp 0 +
STACK CFI INIT 95cbc 14 .cfa: sp 0 +
STACK CFI INIT 95cd0 18 .cfa: sp 0 +
STACK CFI INIT 95ce8 14 .cfa: sp 0 +
STACK CFI INIT 95cfc 14 .cfa: sp 0 +
STACK CFI INIT 95d10 14 .cfa: sp 0 +
STACK CFI INIT 95d24 14 .cfa: sp 0 +
STACK CFI INIT 95d38 20 .cfa: sp 0 +
STACK CFI INIT 95d58 18 .cfa: sp 0 +
STACK CFI INIT 95d70 14 .cfa: sp 0 +
STACK CFI INIT 95d84 20 .cfa: sp 0 +
STACK CFI INIT 95da4 d30 .cfa: sp 0 +
STACK CFI INIT 96ad4 cc0 .cfa: sp 0 +
STACK CFI INIT 97794 e0 .cfa: sp 0 +
STACK CFI INIT 97874 d4 .cfa: sp 0 +
STACK CFI INIT 97948 b0 .cfa: sp 0 +
STACK CFI INIT 979f8 514 .cfa: sp 0 +
STACK CFI INIT 97f0c b4c .cfa: sp 0 +
STACK CFI INIT 98a58 1bc .cfa: sp 0 +
STACK CFI INIT 98c14 164 .cfa: sp 0 +
STACK CFI INIT 98d78 a8 .cfa: sp 0 +
STACK CFI INIT 98e20 1dc .cfa: sp 0 +
STACK CFI INIT 98ffc 98 .cfa: sp 0 +
STACK CFI INIT 99094 6a8 .cfa: sp 0 +
STACK CFI INIT 9973c 160 .cfa: sp 0 +
STACK CFI INIT 9989c 110 .cfa: sp 0 +
STACK CFI INIT 999ac 114 .cfa: sp 0 +
STACK CFI INIT 99ac0 170 .cfa: sp 0 +
STACK CFI INIT 99c30 128 .cfa: sp 0 +
STACK CFI INIT 99d58 2f8 .cfa: sp 0 +
STACK CFI INIT 9a050 b4 .cfa: sp 0 +
STACK CFI INIT 9a104 f10 .cfa: sp 0 +
STACK CFI INIT 9b014 5b0 .cfa: sp 0 +
STACK CFI INIT 9b5c4 374 .cfa: sp 0 +
STACK CFI INIT 9b938 7b4 .cfa: sp 0 +
STACK CFI INIT 9c0ec 444 .cfa: sp 0 +
STACK CFI INIT 9c530 154 .cfa: sp 0 +
STACK CFI INIT 9c684 4d8 .cfa: sp 0 +
STACK CFI INIT 9cb5c 374 .cfa: sp 0 +
STACK CFI INIT 9ced0 3f0 .cfa: sp 0 +
STACK CFI INIT 9d2c0 104 .cfa: sp 0 +
STACK CFI INIT 9d3c4 88 .cfa: sp 0 +
STACK CFI INIT 9d44c 10 .cfa: sp 0 +
STACK CFI INIT 9d45c 70 .cfa: sp 0 +
STACK CFI INIT 9d4cc 34 .cfa: sp 0 +
STACK CFI INIT 9d500 54 .cfa: sp 0 +
STACK CFI INIT 9d554 40 .cfa: sp 0 +
STACK CFI INIT 9d594 3c .cfa: sp 0 +
STACK CFI INIT 9d5d0 38 .cfa: sp 0 +
STACK CFI INIT 9d608 74 .cfa: sp 0 +
STACK CFI INIT 9d67c 28 .cfa: sp 0 +
STACK CFI INIT 9d6a4 70 .cfa: sp 0 +
STACK CFI INIT 9d714 4c .cfa: sp 0 +
STACK CFI INIT 9d760 b0 .cfa: sp 0 +
STACK CFI INIT 9d810 c8 .cfa: sp 0 +
STACK CFI INIT 9d8d8 150 .cfa: sp 0 +
STACK CFI INIT 9da28 51c .cfa: sp 0 +
STACK CFI INIT 9df44 100 .cfa: sp 0 +
STACK CFI INIT 9e044 58 .cfa: sp 0 +
STACK CFI INIT 9e09c 110 .cfa: sp 0 +
STACK CFI INIT 9e1ac 28 .cfa: sp 0 +
STACK CFI INIT 9e1d4 a8 .cfa: sp 0 +
STACK CFI INIT 9e27c 44 .cfa: sp 0 +
STACK CFI INIT 9e2c0 3c .cfa: sp 0 +
STACK CFI INIT 9e2fc 108 .cfa: sp 0 +
STACK CFI INIT 9e404 2c40 .cfa: sp 0 +
STACK CFI INIT a1044 b84 .cfa: sp 0 +
STACK CFI INIT a1bc8 144 .cfa: sp 0 +
STACK CFI INIT a1d0c f0 .cfa: sp 0 +
STACK CFI INIT a1dfc 3008 .cfa: sp 0 +
STACK CFI INIT a4e04 104 .cfa: sp 0 +
STACK CFI INIT a4f08 b7c .cfa: sp 0 +
STACK CFI INIT a5a84 140 .cfa: sp 0 +
STACK CFI INIT a5bc4 170 .cfa: sp 0 +
STACK CFI INIT a5d34 184 .cfa: sp 0 +
STACK CFI INIT a5eb8 5c .cfa: sp 0 +
STACK CFI INIT a5f14 304 .cfa: sp 0 +
STACK CFI INIT a6218 124 .cfa: sp 0 +
STACK CFI INIT a633c 70 .cfa: sp 0 +
STACK CFI INIT a63ac 360 .cfa: sp 0 +
STACK CFI INIT a670c 84 .cfa: sp 0 +
STACK CFI INIT a6790 bc .cfa: sp 0 +
STACK CFI INIT a684c 6c .cfa: sp 0 +
STACK CFI INIT a68b8 6c .cfa: sp 0 +
STACK CFI INIT a6924 4e4 .cfa: sp 0 +
STACK CFI INIT a6e08 644 .cfa: sp 0 +
STACK CFI INIT a744c 14 .cfa: sp 0 +
STACK CFI INIT a7460 20 .cfa: sp 0 +
STACK CFI INIT a7480 18 .cfa: sp 0 +
STACK CFI INIT a7498 14 .cfa: sp 0 +
STACK CFI INIT a74ac 18 .cfa: sp 0 +
STACK CFI INIT a74c4 14 .cfa: sp 0 +
STACK CFI INIT a74d8 14 .cfa: sp 0 +
STACK CFI INIT a74ec 14 .cfa: sp 0 +
STACK CFI INIT a7500 14 .cfa: sp 0 +
STACK CFI INIT a7514 20 .cfa: sp 0 +
STACK CFI INIT a7534 18 .cfa: sp 0 +
STACK CFI INIT a754c 20 .cfa: sp 0 +
STACK CFI INIT a756c 84 .cfa: sp 0 +
STACK CFI INIT a75f0 14 .cfa: sp 0 +
STACK CFI INIT a7604 40 .cfa: sp 0 +
STACK CFI INIT a7644 a8 .cfa: sp 0 +
STACK CFI INIT a76ec 7c .cfa: sp 0 +
STACK CFI INIT a7768 d8 .cfa: sp 0 +
STACK CFI INIT a7840 a8 .cfa: sp 0 +
STACK CFI INIT a78e8 a4 .cfa: sp 0 +
STACK CFI INIT a798c a4 .cfa: sp 0 +
STACK CFI INIT a7a30 80 .cfa: sp 0 +
STACK CFI INIT a7ab0 28 .cfa: sp 0 +
STACK CFI INIT a7ad8 58 .cfa: sp 0 +
STACK CFI INIT a7b30 68 .cfa: sp 0 +
STACK CFI INIT a7b98 8 .cfa: sp 0 +
STACK CFI INIT a7ba0 58 .cfa: sp 0 +
STACK CFI INIT a7bf8 14 .cfa: sp 0 +
STACK CFI INIT a7c0c 7c .cfa: sp 0 +
STACK CFI INIT a7c88 38 .cfa: sp 0 +
STACK CFI INIT a7cc0 180 .cfa: sp 0 +
STACK CFI INIT a7e40 254 .cfa: sp 0 +
STACK CFI INIT a8094 c .cfa: sp 0 +
STACK CFI INIT a80a0 10 .cfa: sp 0 +
STACK CFI INIT a80b0 30 .cfa: sp 0 +
STACK CFI INIT a80e0 48 .cfa: sp 0 +
STACK CFI INIT a8128 30 .cfa: sp 0 +
STACK CFI INIT a8158 34 .cfa: sp 0 +
STACK CFI INIT a818c bc .cfa: sp 0 +
STACK CFI INIT a8248 578 .cfa: sp 0 +
STACK CFI INIT a87c0 58c .cfa: sp 0 +
STACK CFI INIT a8d4c c .cfa: sp 0 +
STACK CFI INIT a8d58 10 .cfa: sp 0 +
STACK CFI INIT a8d68 440 .cfa: sp 0 +
STACK CFI INIT a91a8 1dc .cfa: sp 0 +
STACK CFI INIT a9384 128 .cfa: sp 0 +
STACK CFI INIT a94ac 5c .cfa: sp 0 +
STACK CFI INIT a9508 108 .cfa: sp 0 +
STACK CFI INIT a9610 c4 .cfa: sp 0 +
STACK CFI INIT a96d4 d8 .cfa: sp 0 +
STACK CFI INIT a97ac f8 .cfa: sp 0 +
STACK CFI INIT a98a4 64 .cfa: sp 0 +
STACK CFI INIT a9908 a0 .cfa: sp 0 +
STACK CFI INIT a99a8 3c0 .cfa: sp 0 +
STACK CFI INIT a9d68 a8 .cfa: sp 0 +
STACK CFI INIT a9e10 20c .cfa: sp 0 +
STACK CFI INIT aa01c 9c .cfa: sp 0 +
STACK CFI INIT aa0b8 124 .cfa: sp 0 +
STACK CFI INIT aa1dc cc .cfa: sp 0 +
STACK CFI INIT aa2a8 24c .cfa: sp 0 +
STACK CFI INIT aa4f4 3c .cfa: sp 0 +
STACK CFI INIT aa530 10 .cfa: sp 0 +
STACK CFI INIT aa540 14 .cfa: sp 0 +
STACK CFI INIT aa554 14 .cfa: sp 0 +
STACK CFI INIT aa568 10 .cfa: sp 0 +
STACK CFI INIT aa578 3c .cfa: sp 0 +
STACK CFI INIT aa5b4 108 .cfa: sp 0 +
STACK CFI INIT aa6bc 11c .cfa: sp 0 +
STACK CFI INIT aa7d8 9c .cfa: sp 0 +
STACK CFI INIT aa874 20 .cfa: sp 0 +
STACK CFI INIT aa894 108 .cfa: sp 0 +
STACK CFI INIT aa99c 138 .cfa: sp 0 +
STACK CFI INIT aaad4 98 .cfa: sp 0 +
STACK CFI INIT aab6c 20 .cfa: sp 0 +
STACK CFI INIT aab8c 6c .cfa: sp 0 +
STACK CFI INIT aabf8 204 .cfa: sp 0 +
STACK CFI INIT aadfc 230 .cfa: sp 0 +
STACK CFI INIT ab02c 80 .cfa: sp 0 +
STACK CFI INIT ab0ac b8 .cfa: sp 0 +
STACK CFI INIT ab164 184 .cfa: sp 0 +
STACK CFI INIT ab2e8 140 .cfa: sp 0 +
STACK CFI INIT ab428 28 .cfa: sp 0 +
STACK CFI INIT ab450 ec .cfa: sp 0 +
STACK CFI INIT ab53c c .cfa: sp 0 +
STACK CFI INIT ab548 1e0 .cfa: sp 0 +
STACK CFI INIT ab728 180 .cfa: sp 0 +
STACK CFI INIT ab8a8 c .cfa: sp 0 +
STACK CFI INIT ab8b4 f8 .cfa: sp 0 +
STACK CFI INIT ab9ac dc .cfa: sp 0 +
STACK CFI INIT aba88 10 .cfa: sp 0 +
STACK CFI INIT aba98 34 .cfa: sp 0 +
STACK CFI INIT abacc a8 .cfa: sp 0 +
STACK CFI INIT abb74 bc .cfa: sp 0 +
STACK CFI INIT abc30 180 .cfa: sp 0 +
STACK CFI INIT abdb0 2c .cfa: sp 0 +
STACK CFI INIT abddc 10 .cfa: sp 0 +
STACK CFI INIT abdec 30 .cfa: sp 0 +
STACK CFI INIT abe1c 10 .cfa: sp 0 +
STACK CFI INIT abe2c 30 .cfa: sp 0 +
STACK CFI INIT abe5c 10 .cfa: sp 0 +
STACK CFI INIT abe6c 30 .cfa: sp 0 +
STACK CFI INIT abe9c b0 .cfa: sp 0 +
STACK CFI INIT abf4c 78 .cfa: sp 0 +
STACK CFI INIT abfc4 148 .cfa: sp 0 +
STACK CFI INIT ac10c 28 .cfa: sp 0 +
STACK CFI INIT ac134 194 .cfa: sp 0 +
STACK CFI INIT ac2c8 23c .cfa: sp 0 +
STACK CFI INIT ac504 f0 .cfa: sp 0 +
STACK CFI INIT ac5f4 8c .cfa: sp 0 +
STACK CFI INIT ac680 a8 .cfa: sp 0 +
STACK CFI INIT ac728 104 .cfa: sp 0 +
STACK CFI INIT ac82c 18 .cfa: sp 0 +
STACK CFI INIT ac844 ac .cfa: sp 0 +
STACK CFI INIT ac8f0 3c .cfa: sp 0 +
STACK CFI INIT ac92c 3c .cfa: sp 0 +
STACK CFI INIT ac968 54 .cfa: sp 0 +
STACK CFI INIT ac9bc b0 .cfa: sp 0 +
STACK CFI INIT aca6c 8 .cfa: sp 0 +
STACK CFI INIT aca74 38 .cfa: sp 0 +
STACK CFI INIT acaac 5c .cfa: sp 0 +
STACK CFI INIT acb08 5c .cfa: sp 0 +
STACK CFI INIT acb64 48 .cfa: sp 0 +
STACK CFI INIT acbac 54 .cfa: sp 0 +
STACK CFI INIT acc00 38 .cfa: sp 0 +
STACK CFI INIT acc38 8c .cfa: sp 0 +
STACK CFI INIT accc4 88 .cfa: sp 0 +
STACK CFI INIT acd4c 1c .cfa: sp 0 +
STACK CFI INIT acd68 48 .cfa: sp 0 +
STACK CFI INIT acdb0 70 .cfa: sp 0 +
STACK CFI INIT ace20 3f0 .cfa: sp 0 +
STACK CFI INIT ad210 204 .cfa: sp 0 +
STACK CFI INIT ad414 d0 .cfa: sp 0 +
STACK CFI INIT ad4e4 ec .cfa: sp 0 +
STACK CFI INIT ad5d0 41c .cfa: sp 0 +
STACK CFI INIT ad9ec 134 .cfa: sp 0 +
STACK CFI INIT adb20 75c .cfa: sp 0 +
STACK CFI INIT ae27c ac .cfa: sp 0 +
STACK CFI INIT ae328 40 .cfa: sp 0 +
STACK CFI INIT ae368 144 .cfa: sp 0 +
STACK CFI INIT ae4ac 3c .cfa: sp 0 +
STACK CFI INIT ae4e8 34 .cfa: sp 0 +
STACK CFI INIT ae524 18 .cfa: sp 0 +
STACK CFI INIT ae544 18 .cfa: sp 0 +
STACK CFI INIT ae564 18 .cfa: sp 0 +
STACK CFI INIT ae584 18 .cfa: sp 0 +
STACK CFI INIT ae5a4 18 .cfa: sp 0 +
STACK CFI INIT ae5c4 18 .cfa: sp 0 +
STACK CFI INIT ae5e4 18 .cfa: sp 0 +
STACK CFI INIT ae604 18 .cfa: sp 0 +
STACK CFI INIT ae624 18 .cfa: sp 0 +
STACK CFI INIT ae644 18 .cfa: sp 0 +
STACK CFI INIT ae664 18 .cfa: sp 0 +
STACK CFI INIT ae684 18 .cfa: sp 0 +
STACK CFI INIT ae6a4 18 .cfa: sp 0 +
STACK CFI INIT ae6c4 18 .cfa: sp 0 +
STACK CFI INIT ae6e4 18 .cfa: sp 0 +
STACK CFI INIT ae704 18 .cfa: sp 0 +
STACK CFI INIT ae724 18 .cfa: sp 0 +
STACK CFI INIT ae744 18 .cfa: sp 0 +
STACK CFI INIT ae764 18 .cfa: sp 0 +
STACK CFI INIT ae784 18 .cfa: sp 0 +
STACK CFI INIT ae7a4 18 .cfa: sp 0 +
STACK CFI INIT ae7c4 18 .cfa: sp 0 +
STACK CFI INIT ae7e4 18 .cfa: sp 0 +
STACK CFI INIT ae804 18 .cfa: sp 0 +
STACK CFI INIT ae824 18 .cfa: sp 0 +
STACK CFI INIT ae844 18 .cfa: sp 0 +
STACK CFI INIT ae864 18 .cfa: sp 0 +
STACK CFI INIT ae884 18 .cfa: sp 0 +
STACK CFI INIT ae8a4 18 .cfa: sp 0 +
STACK CFI INIT ae8c4 18 .cfa: sp 0 +
STACK CFI INIT ae8e4 18 .cfa: sp 0 +
STACK CFI INIT ae904 18 .cfa: sp 0 +
STACK CFI INIT ae924 18 .cfa: sp 0 +
STACK CFI INIT ae944 18 .cfa: sp 0 +
STACK CFI INIT ae964 18 .cfa: sp 0 +
STACK CFI INIT ae984 18 .cfa: sp 0 +
STACK CFI INIT ae9a4 18 .cfa: sp 0 +
STACK CFI INIT ae9c4 18 .cfa: sp 0 +
STACK CFI INIT ae9e4 18 .cfa: sp 0 +
STACK CFI INIT aea04 18 .cfa: sp 0 +
STACK CFI INIT aea24 18 .cfa: sp 0 +
STACK CFI INIT aea44 18 .cfa: sp 0 +
STACK CFI INIT aea64 18 .cfa: sp 0 +
STACK CFI INIT aea84 18 .cfa: sp 0 +
STACK CFI INIT aeaa4 18 .cfa: sp 0 +
STACK CFI INIT aeac4 18 .cfa: sp 0 +
STACK CFI INIT aeae4 18 .cfa: sp 0 +
STACK CFI INIT aeb04 18 .cfa: sp 0 +
STACK CFI INIT aeb24 18 .cfa: sp 0 +
STACK CFI INIT aeb44 18 .cfa: sp 0 +
STACK CFI INIT aeb64 18 .cfa: sp 0 +
STACK CFI INIT aeb84 18 .cfa: sp 0 +
STACK CFI INIT aeba4 18 .cfa: sp 0 +
STACK CFI INIT aebc4 18 .cfa: sp 0 +
STACK CFI INIT aebe4 18 .cfa: sp 0 +
STACK CFI INIT aec04 18 .cfa: sp 0 +
STACK CFI INIT aec24 18 .cfa: sp 0 +
STACK CFI INIT aec44 18 .cfa: sp 0 +
STACK CFI INIT aec64 18 .cfa: sp 0 +
STACK CFI INIT aec84 18 .cfa: sp 0 +
STACK CFI INIT aeca4 18 .cfa: sp 0 +
STACK CFI INIT aecc4 18 .cfa: sp 0 +
STACK CFI INIT aece4 18 .cfa: sp 0 +
STACK CFI INIT aed04 18 .cfa: sp 0 +
STACK CFI INIT aed24 18 .cfa: sp 0 +
STACK CFI INIT aed44 18 .cfa: sp 0 +
STACK CFI INIT aed64 18 .cfa: sp 0 +
STACK CFI INIT aed84 18 .cfa: sp 0 +
STACK CFI INIT aeda4 18 .cfa: sp 0 +
STACK CFI INIT aedc4 18 .cfa: sp 0 +
STACK CFI INIT aede4 18 .cfa: sp 0 +
STACK CFI INIT aee04 18 .cfa: sp 0 +
STACK CFI INIT aee24 18 .cfa: sp 0 +
STACK CFI INIT aee44 18 .cfa: sp 0 +
STACK CFI INIT aee64 18 .cfa: sp 0 +
STACK CFI INIT aee84 18 .cfa: sp 0 +
STACK CFI INIT aeea4 18 .cfa: sp 0 +
STACK CFI INIT aeec4 18 .cfa: sp 0 +
STACK CFI INIT aeee4 18 .cfa: sp 0 +
STACK CFI INIT aef04 18 .cfa: sp 0 +
STACK CFI INIT aef24 18 .cfa: sp 0 +
STACK CFI INIT aef44 18 .cfa: sp 0 +
STACK CFI INIT aef64 18 .cfa: sp 0 +
STACK CFI INIT aef84 18 .cfa: sp 0 +
STACK CFI INIT aefa4 18 .cfa: sp 0 +
STACK CFI INIT aefc4 18 .cfa: sp 0 +
STACK CFI INIT aefe4 18 .cfa: sp 0 +
STACK CFI INIT af004 18 .cfa: sp 0 +
STACK CFI INIT af024 18 .cfa: sp 0 +
STACK CFI INIT af044 18 .cfa: sp 0 +
STACK CFI INIT af064 18 .cfa: sp 0 +
STACK CFI INIT af084 18 .cfa: sp 0 +
STACK CFI INIT af0a4 18 .cfa: sp 0 +
STACK CFI INIT af0c4 18 .cfa: sp 0 +
STACK CFI INIT af0e4 18 .cfa: sp 0 +
STACK CFI INIT af104 18 .cfa: sp 0 +
STACK CFI INIT af124 18 .cfa: sp 0 +
STACK CFI INIT af144 18 .cfa: sp 0 +
STACK CFI INIT af164 18 .cfa: sp 0 +
STACK CFI INIT af184 18 .cfa: sp 0 +
STACK CFI INIT af1a4 18 .cfa: sp 0 +
STACK CFI INIT af1c4 18 .cfa: sp 0 +
STACK CFI INIT af1e4 18 .cfa: sp 0 +
STACK CFI INIT af204 18 .cfa: sp 0 +
STACK CFI INIT af224 18 .cfa: sp 0 +
STACK CFI INIT af244 18 .cfa: sp 0 +
STACK CFI INIT af264 18 .cfa: sp 0 +
STACK CFI INIT af284 18 .cfa: sp 0 +
STACK CFI INIT af2a4 18 .cfa: sp 0 +
STACK CFI INIT af2c4 18 .cfa: sp 0 +
STACK CFI INIT af2e4 18 .cfa: sp 0 +
STACK CFI INIT af304 18 .cfa: sp 0 +
STACK CFI INIT af324 18 .cfa: sp 0 +
STACK CFI INIT af344 18 .cfa: sp 0 +
STACK CFI INIT af364 18 .cfa: sp 0 +
STACK CFI INIT af384 18 .cfa: sp 0 +
STACK CFI INIT af3a4 18 .cfa: sp 0 +
STACK CFI INIT af3c4 18 .cfa: sp 0 +
STACK CFI INIT af3e4 18 .cfa: sp 0 +
STACK CFI INIT af404 18 .cfa: sp 0 +
STACK CFI INIT af424 18 .cfa: sp 0 +
STACK CFI INIT af444 18 .cfa: sp 0 +
STACK CFI INIT af464 18 .cfa: sp 0 +
STACK CFI INIT af484 18 .cfa: sp 0 +
STACK CFI INIT af4a4 18 .cfa: sp 0 +
STACK CFI INIT af4c4 18 .cfa: sp 0 +
STACK CFI INIT af4e4 18 .cfa: sp 0 +
STACK CFI INIT af504 18 .cfa: sp 0 +
STACK CFI INIT af524 18 .cfa: sp 0 +
STACK CFI INIT af544 18 .cfa: sp 0 +
STACK CFI INIT af564 18 .cfa: sp 0 +
STACK CFI INIT af584 18 .cfa: sp 0 +
STACK CFI INIT af5a4 18 .cfa: sp 0 +
STACK CFI INIT af5c4 18 .cfa: sp 0 +
STACK CFI INIT af5e4 18 .cfa: sp 0 +
STACK CFI INIT af604 18 .cfa: sp 0 +
STACK CFI INIT af624 18 .cfa: sp 0 +
STACK CFI INIT af644 18 .cfa: sp 0 +
STACK CFI INIT af664 18 .cfa: sp 0 +
STACK CFI INIT af684 18 .cfa: sp 0 +
STACK CFI INIT af6a4 18 .cfa: sp 0 +
STACK CFI INIT af6c4 18 .cfa: sp 0 +
STACK CFI INIT af6e4 18 .cfa: sp 0 +
STACK CFI INIT af704 18 .cfa: sp 0 +
STACK CFI INIT af724 18 .cfa: sp 0 +
STACK CFI INIT af744 18 .cfa: sp 0 +
STACK CFI INIT af764 18 .cfa: sp 0 +
STACK CFI INIT af784 18 .cfa: sp 0 +
STACK CFI INIT af7a4 18 .cfa: sp 0 +
STACK CFI INIT af7c4 18 .cfa: sp 0 +
STACK CFI INIT af7e4 18 .cfa: sp 0 +
STACK CFI INIT af804 18 .cfa: sp 0 +
STACK CFI INIT af824 18 .cfa: sp 0 +
STACK CFI INIT af844 18 .cfa: sp 0 +
STACK CFI INIT af864 18 .cfa: sp 0 +
STACK CFI INIT af884 18 .cfa: sp 0 +
STACK CFI INIT af8a4 18 .cfa: sp 0 +
STACK CFI INIT af8c4 18 .cfa: sp 0 +
STACK CFI INIT af8e4 18 .cfa: sp 0 +
STACK CFI INIT af904 18 .cfa: sp 0 +
STACK CFI INIT af924 18 .cfa: sp 0 +
STACK CFI INIT af944 18 .cfa: sp 0 +
STACK CFI INIT af964 18 .cfa: sp 0 +
STACK CFI INIT af984 18 .cfa: sp 0 +
STACK CFI INIT af9a4 18 .cfa: sp 0 +
STACK CFI INIT af9c4 18 .cfa: sp 0 +
STACK CFI INIT af9e4 18 .cfa: sp 0 +
STACK CFI INIT afa04 18 .cfa: sp 0 +
STACK CFI INIT afa24 18 .cfa: sp 0 +
STACK CFI INIT afa44 18 .cfa: sp 0 +
STACK CFI INIT afa64 18 .cfa: sp 0 +
STACK CFI INIT afa84 18 .cfa: sp 0 +
STACK CFI INIT afaa4 18 .cfa: sp 0 +
STACK CFI INIT afac4 18 .cfa: sp 0 +
STACK CFI INIT afae4 18 .cfa: sp 0 +
STACK CFI INIT afb04 18 .cfa: sp 0 +
STACK CFI INIT afb24 18 .cfa: sp 0 +
STACK CFI INIT afb44 18 .cfa: sp 0 +
STACK CFI INIT afb64 18 .cfa: sp 0 +
STACK CFI INIT afb84 18 .cfa: sp 0 +
STACK CFI INIT afba4 18 .cfa: sp 0 +
STACK CFI INIT afbc4 18 .cfa: sp 0 +
STACK CFI INIT afbe4 18 .cfa: sp 0 +
STACK CFI INIT afc04 18 .cfa: sp 0 +
STACK CFI INIT afc24 18 .cfa: sp 0 +
STACK CFI INIT afc44 18 .cfa: sp 0 +
STACK CFI INIT afc64 18 .cfa: sp 0 +
STACK CFI INIT afc84 18 .cfa: sp 0 +
STACK CFI INIT afca4 18 .cfa: sp 0 +
STACK CFI INIT afcc4 18 .cfa: sp 0 +
STACK CFI INIT afce4 18 .cfa: sp 0 +
STACK CFI INIT afd04 18 .cfa: sp 0 +
STACK CFI INIT afd24 18 .cfa: sp 0 +
STACK CFI INIT afd44 18 .cfa: sp 0 +
STACK CFI INIT afd64 18 .cfa: sp 0 +
STACK CFI INIT afd84 18 .cfa: sp 0 +
STACK CFI INIT afda4 18 .cfa: sp 0 +
STACK CFI INIT afdc4 18 .cfa: sp 0 +
STACK CFI INIT afde4 18 .cfa: sp 0 +
STACK CFI INIT afe04 18 .cfa: sp 0 +
STACK CFI INIT afe24 18 .cfa: sp 0 +
STACK CFI INIT afe44 18 .cfa: sp 0 +
STACK CFI INIT afe64 18 .cfa: sp 0 +
STACK CFI INIT afe84 18 .cfa: sp 0 +
STACK CFI INIT afea4 18 .cfa: sp 0 +
STACK CFI INIT afec4 18 .cfa: sp 0 +
STACK CFI INIT afee4 18 .cfa: sp 0 +
STACK CFI INIT aff04 18 .cfa: sp 0 +
STACK CFI INIT aff24 18 .cfa: sp 0 +
STACK CFI INIT aff44 18 .cfa: sp 0 +
STACK CFI INIT aff64 18 .cfa: sp 0 +
STACK CFI INIT aff84 18 .cfa: sp 0 +
STACK CFI INIT affa4 18 .cfa: sp 0 +
STACK CFI INIT affc4 18 .cfa: sp 0 +
STACK CFI INIT affe4 18 .cfa: sp 0 +
STACK CFI INIT afffc 1ac .cfa: sp 0 +
STACK CFI INIT b01a8 b4 .cfa: sp 0 +
STACK CFI INIT b025c 10 .cfa: sp 0 +
STACK CFI INIT b026c 24 .cfa: sp 0 +
STACK CFI INIT b0290 2fc .cfa: sp 0 +
STACK CFI INIT b058c 1a8 .cfa: sp 0 +
STACK CFI INIT b0734 40 .cfa: sp 0 +
STACK CFI INIT b0774 2e0 .cfa: sp 0 +
STACK CFI INIT b0a54 80 .cfa: sp 0 +
STACK CFI INIT b0ad4 88 .cfa: sp 0 +
STACK CFI INIT b0b5c e0 .cfa: sp 0 +
STACK CFI INIT b0c3c 74 .cfa: sp 0 +
STACK CFI INIT b0cb0 10 .cfa: sp 0 +
STACK CFI INIT b0cc0 8c .cfa: sp 0 +
STACK CFI INIT b0d4c d4 .cfa: sp 0 +
STACK CFI INIT b0e20 130 .cfa: sp 0 +
STACK CFI INIT b0f50 14 .cfa: sp 0 +
STACK CFI INIT b0f64 c .cfa: sp 0 +
STACK CFI INIT b0f70 c8 .cfa: sp 0 +
STACK CFI INIT b1038 3b8 .cfa: sp 0 +
STACK CFI INIT b13f0 f24 .cfa: sp 0 +
STACK CFI INIT b2314 8f8 .cfa: sp 0 +
STACK CFI INIT b2c0c 130 .cfa: sp 0 +
STACK CFI INIT b2d3c 1cc .cfa: sp 0 +
STACK CFI INIT b2f08 298 .cfa: sp 0 +
STACK CFI INIT b31a0 58c .cfa: sp 0 +
STACK CFI INIT b372c 91c .cfa: sp 0 +
STACK CFI INIT b4048 78 .cfa: sp 0 +
STACK CFI INIT b40c0 d4 .cfa: sp 0 +
STACK CFI INIT b4194 d4 .cfa: sp 0 +
STACK CFI INIT b4268 1a58 .cfa: sp 0 +
STACK CFI INIT b5cc0 10c .cfa: sp 0 +
STACK CFI INIT b5dcc 398 .cfa: sp 0 +
STACK CFI INIT b6164 b0 .cfa: sp 0 +
STACK CFI INIT b6214 c .cfa: sp 0 +
STACK CFI INIT b6220 1168 .cfa: sp 0 +
STACK CFI INIT b7388 9c .cfa: sp 0 +
STACK CFI INIT b7424 1b8 .cfa: sp 0 +
STACK CFI INIT b75dc 58 .cfa: sp 0 +
STACK CFI INIT b7634 88 .cfa: sp 0 +
STACK CFI INIT b76bc 404 .cfa: sp 0 +
STACK CFI INIT b7ac0 cc .cfa: sp 0 +
STACK CFI INIT b7b8c 11bc .cfa: sp 0 +
STACK CFI INIT b8d48 150 .cfa: sp 0 +
STACK CFI INIT b8e98 a4 .cfa: sp 0 +
STACK CFI INIT b8f3c bc .cfa: sp 0 +
STACK CFI INIT b8ff8 7c .cfa: sp 0 +
STACK CFI INIT b9074 40 .cfa: sp 0 +
STACK CFI INIT b90b4 40 .cfa: sp 0 +
STACK CFI INIT b90f4 8 .cfa: sp 0 +
STACK CFI INIT b90fc e0 .cfa: sp 0 +
STACK CFI INIT b91dc e8 .cfa: sp 0 +
STACK CFI INIT b92c4 5c .cfa: sp 0 +
STACK CFI INIT b9320 b4 .cfa: sp 0 +
STACK CFI INIT b93d4 60 .cfa: sp 0 +
STACK CFI INIT b9434 1c .cfa: sp 0 +
STACK CFI INIT b9450 28 .cfa: sp 0 +
STACK CFI INIT b9478 e0 .cfa: sp 0 +
STACK CFI INIT b9558 64 .cfa: sp 0 +
STACK CFI INIT b95bc 14 .cfa: sp 0 +
STACK CFI INIT b95d0 8 .cfa: sp 0 +
STACK CFI INIT b95d8 e0 .cfa: sp 0 +
STACK CFI INIT b96b8 f0 .cfa: sp 0 +
STACK CFI INIT b97a8 18 .cfa: sp 0 +
STACK CFI INIT b97c0 17c .cfa: sp 0 +
STACK CFI INIT b993c 64 .cfa: sp 0 +
STACK CFI INIT b99a0 f4 .cfa: sp 0 +
STACK CFI INIT b9a94 94 .cfa: sp 0 +
STACK CFI INIT b9b28 38 .cfa: sp 0 +
STACK CFI INIT b9b60 3e4 .cfa: sp 0 +
STACK CFI INIT b9f44 38c .cfa: sp 0 +
STACK CFI INIT ba2d0 15c .cfa: sp 0 +
STACK CFI INIT ba42c 20 .cfa: sp 0 +
STACK CFI INIT ba44c 78 .cfa: sp 0 +
STACK CFI INIT ba4c4 68 .cfa: sp 0 +
STACK CFI INIT ba52c 68 .cfa: sp 0 +
STACK CFI INIT ba594 4fc .cfa: sp 0 +
STACK CFI INIT baa90 94 .cfa: sp 0 +
STACK CFI INIT bab24 f8 .cfa: sp 0 +
STACK CFI INIT bac1c ac .cfa: sp 0 +
STACK CFI INIT bacc8 190 .cfa: sp 0 +
STACK CFI INIT bae58 64 .cfa: sp 0 +
STACK CFI INIT baebc 1b0 .cfa: sp 0 +
STACK CFI INIT bb06c 3d4 .cfa: sp 0 +
STACK CFI INIT bb440 2c .cfa: sp 0 +
STACK CFI INIT bb46c 1ec .cfa: sp 0 +
STACK CFI INIT bb658 54 .cfa: sp 0 +
STACK CFI INIT bb6ac 80 .cfa: sp 0 +
STACK CFI INIT bb72c 3c .cfa: sp 0 +
STACK CFI INIT bb768 7c .cfa: sp 0 +
STACK CFI INIT bb7e4 38 .cfa: sp 0 +
STACK CFI INIT bb81c 74 .cfa: sp 0 +
STACK CFI INIT bb890 38 .cfa: sp 0 +
STACK CFI INIT bb8c8 74 .cfa: sp 0 +
STACK CFI INIT bb93c e4 .cfa: sp 0 +
STACK CFI INIT bba20 2a8 .cfa: sp 0 +
STACK CFI INIT bbcc8 2c .cfa: sp 0 +
STACK CFI INIT bbcf4 2c .cfa: sp 0 +
STACK CFI INIT bbd20 38 .cfa: sp 0 +
STACK CFI INIT bbd58 38 .cfa: sp 0 +
STACK CFI INIT bbd90 2c .cfa: sp 0 +
STACK CFI INIT bbdbc 178 .cfa: sp 0 +
STACK CFI INIT bbf34 50 .cfa: sp 0 +
STACK CFI INIT bbf84 50 .cfa: sp 0 +
STACK CFI INIT bbfd4 ac .cfa: sp 0 +
STACK CFI INIT bc080 b4 .cfa: sp 0 +
STACK CFI INIT bc134 a4 .cfa: sp 0 +
STACK CFI INIT bc1d8 24 .cfa: sp 0 +
STACK CFI INIT bc1fc a4 .cfa: sp 0 +
STACK CFI INIT bc2a0 10c .cfa: sp 0 +
STACK CFI INIT bc3ac a4 .cfa: sp 0 +
STACK CFI INIT bc450 9c .cfa: sp 0 +
STACK CFI INIT bc4ec 9c .cfa: sp 0 +
STACK CFI INIT bc588 60 .cfa: sp 0 +
STACK CFI INIT bc5e8 60 .cfa: sp 0 +
STACK CFI INIT bc648 8c .cfa: sp 0 +
STACK CFI INIT bc6d4 130 .cfa: sp 0 +
STACK CFI INIT bc804 2c .cfa: sp 0 +
STACK CFI INIT bc830 118 .cfa: sp 0 +
STACK CFI INIT bc948 e0 .cfa: sp 0 +
STACK CFI INIT bca28 e0 .cfa: sp 0 +
STACK CFI INIT bcb08 104 .cfa: sp 0 +
STACK CFI INIT bcc0c d8 .cfa: sp 0 +
STACK CFI INIT bcce4 104 .cfa: sp 0 +
STACK CFI INIT bcde8 10c .cfa: sp 0 +
STACK CFI INIT bcef4 a4 .cfa: sp 0 +
STACK CFI INIT bcf98 10c .cfa: sp 0 +
STACK CFI INIT bd0a4 a4 .cfa: sp 0 +
STACK CFI INIT bd148 10c .cfa: sp 0 +
STACK CFI INIT bd254 a4 .cfa: sp 0 +
STACK CFI INIT bd2f8 6c .cfa: sp 0 +
STACK CFI INIT bd364 a4 .cfa: sp 0 +
STACK CFI INIT bd408 34 .cfa: sp 0 +
STACK CFI INIT bd43c 2c .cfa: sp 0 +
STACK CFI INIT bd468 14 .cfa: sp 0 +
STACK CFI INIT bd47c 40 .cfa: sp 0 +
STACK CFI INIT bd4bc fc .cfa: sp 0 +
STACK CFI INIT bd5b8 14 .cfa: sp 0 +
STACK CFI INIT bd5cc 14 .cfa: sp 0 +
STACK CFI INIT bd5e0 138 .cfa: sp 0 +
STACK CFI INIT bd718 2c .cfa: sp 0 +
STACK CFI INIT bd744 14 .cfa: sp 0 +
STACK CFI INIT bd758 60 .cfa: sp 0 +
STACK CFI INIT bd7b8 8c .cfa: sp 0 +
STACK CFI INIT bd844 fc .cfa: sp 0 +
STACK CFI INIT bd940 3c .cfa: sp 0 +
STACK CFI INIT bd97c 40 .cfa: sp 0 +
STACK CFI INIT bd9bc 38 .cfa: sp 0 +
STACK CFI INIT bd9f4 164 .cfa: sp 0 +
STACK CFI INIT bdb58 118 .cfa: sp 0 +
STACK CFI INIT bdc70 124 .cfa: sp 0 +
STACK CFI INIT bdd94 d8 .cfa: sp 0 +
STACK CFI INIT bde6c a4 .cfa: sp 0 +
STACK CFI INIT bdf10 a0 .cfa: sp 0 +
STACK CFI INIT bdfb0 a4 .cfa: sp 0 +
STACK CFI INIT be054 b0 .cfa: sp 0 +
STACK CFI INIT be104 b0 .cfa: sp 0 +
STACK CFI INIT be1b4 b0 .cfa: sp 0 +
STACK CFI INIT be264 b0 .cfa: sp 0 +
STACK CFI INIT be314 fc .cfa: sp 0 +
STACK CFI INIT be410 fc .cfa: sp 0 +
STACK CFI INIT be50c 210 .cfa: sp 0 +
STACK CFI INIT be71c 1e8 .cfa: sp 0 +
STACK CFI INIT be904 94 .cfa: sp 0 +
STACK CFI INIT be998 18c .cfa: sp 0 +
STACK CFI INIT beb24 134 .cfa: sp 0 +
STACK CFI INIT bec58 240 .cfa: sp 0 +
STACK CFI INIT bee98 2c .cfa: sp 0 +
STACK CFI INIT beec4 38 .cfa: sp 0 +
STACK CFI INIT beefc 38 .cfa: sp 0 +
STACK CFI INIT bef34 38 .cfa: sp 0 +
STACK CFI INIT bef6c c .cfa: sp 0 +
STACK CFI INIT bef78 10 .cfa: sp 0 +
STACK CFI INIT bef88 10 .cfa: sp 0 +
STACK CFI INIT bef98 18 .cfa: sp 0 +
STACK CFI INIT befb0 14 .cfa: sp 0 +
STACK CFI INIT befc4 10 .cfa: sp 0 +
STACK CFI INIT befd4 8 .cfa: sp 0 +
STACK CFI INIT befdc 14 .cfa: sp 0 +
STACK CFI INIT beff0 20 .cfa: sp 0 +
STACK CFI INIT bf010 c .cfa: sp 0 +
STACK CFI INIT bf01c 14 .cfa: sp 0 +
STACK CFI INIT bf030 58 .cfa: sp 0 +
STACK CFI INIT bf088 14c8 .cfa: sp 0 +
STACK CFI INIT c0550 12a0 .cfa: sp 0 +
STACK CFI INIT c17f0 104 .cfa: sp 0 +
STACK CFI INIT c18f4 44 .cfa: sp 0 +
STACK CFI INIT c1938 2c4 .cfa: sp 0 +
STACK CFI INIT c1bfc 130 .cfa: sp 0 +
STACK CFI INIT c1d2c 8c .cfa: sp 0 +
STACK CFI INIT c1db8 50 .cfa: sp 0 +
STACK CFI INIT c1e08 70 .cfa: sp 0 +
STACK CFI INIT c1e78 4c .cfa: sp 0 +
STACK CFI INIT c1ec4 a4 .cfa: sp 0 +
STACK CFI INIT c1f68 98 .cfa: sp 0 +
STACK CFI INIT c2000 28 .cfa: sp 0 +
STACK CFI INIT c2028 30 .cfa: sp 0 +
STACK CFI INIT c2058 3c .cfa: sp 0 +
STACK CFI INIT c2094 38 .cfa: sp 0 +
STACK CFI INIT c20cc 38 .cfa: sp 0 +
STACK CFI INIT c2104 18 .cfa: sp 0 +
STACK CFI INIT c211c 14 .cfa: sp 0 +
STACK CFI INIT c2130 14 .cfa: sp 0 +
STACK CFI INIT c2144 18 .cfa: sp 0 +
STACK CFI INIT c215c 14 .cfa: sp 0 +
STACK CFI INIT c2170 20 .cfa: sp 0 +
STACK CFI INIT c2190 14 .cfa: sp 0 +
STACK CFI INIT c21a4 1c .cfa: sp 0 +
STACK CFI INIT c21c0 2c .cfa: sp 0 +
STACK CFI INIT c21ec 14 .cfa: sp 0 +
STACK CFI INIT c2200 14 .cfa: sp 0 +
STACK CFI INIT c2214 29c .cfa: sp 0 +
STACK CFI INIT c24b0 20 .cfa: sp 0 +
STACK CFI INIT c24d0 10 .cfa: sp 0 +
STACK CFI INIT c24e0 14 .cfa: sp 0 +
STACK CFI INIT c24f4 14 .cfa: sp 0 +
STACK CFI INIT c2508 18 .cfa: sp 0 +
STACK CFI INIT c2520 28 .cfa: sp 0 +
STACK CFI INIT c2548 40 .cfa: sp 0 +
STACK CFI INIT c2588 1bc .cfa: sp 0 +
STACK CFI INIT c2744 84 .cfa: sp 0 +
STACK CFI INIT c27c8 14 .cfa: sp 0 +
STACK CFI INIT c27dc 18 .cfa: sp 0 +
STACK CFI INIT c27f4 2c .cfa: sp 0 +
STACK CFI INIT c2820 18 .cfa: sp 0 +
STACK CFI INIT c2838 2c .cfa: sp 0 +
STACK CFI INIT c2864 1c .cfa: sp 0 +
STACK CFI INIT c2880 28 .cfa: sp 0 +
STACK CFI INIT c28a8 1c .cfa: sp 0 +
STACK CFI INIT c28c4 90 .cfa: sp 0 +
STACK CFI INIT c2954 90 .cfa: sp 0 +
STACK CFI INIT c29e4 8c .cfa: sp 0 +
STACK CFI INIT c2a70 d4 .cfa: sp 0 +
STACK CFI INIT c2b44 c8 .cfa: sp 0 +
STACK CFI INIT c2c0c 124 .cfa: sp 0 +
STACK CFI INIT c2d30 18 .cfa: sp 0 +
STACK CFI INIT c2d48 160 .cfa: sp 0 +
STACK CFI INIT c2ea8 184 .cfa: sp 0 +
STACK CFI INIT c302c 1b4 .cfa: sp 0 +
STACK CFI INIT c31e0 68 .cfa: sp 0 +
STACK CFI INIT c3248 49c .cfa: sp 0 +
STACK CFI INIT c36e4 138 .cfa: sp 0 +
STACK CFI c36ec .cfa: sp 48 +
STACK CFI c36f8 .cfa: x29 48 + x19: .cfa -8 + ^ x20: .cfa -16 + ^ x21: .cfa -32 + ^ .ra: .cfa -40 + ^ x29: .cfa -48 + ^
STACK CFI INIT c381c c .cfa: sp 0 +
STACK CFI INIT c3828 84 .cfa: sp 0 +
STACK CFI INIT c38ac 10 .cfa: sp 0 +
STACK CFI INIT c38bc 20 .cfa: sp 0 +
STACK CFI INIT c38dc 28 .cfa: sp 0 +
STACK CFI INIT c3904 134 .cfa: sp 0 +
STACK CFI INIT c3a38 54 .cfa: sp 0 +
STACK CFI INIT c3a8c 9c .cfa: sp 0 +
STACK CFI INIT c3b28 10 .cfa: sp 0 +
STACK CFI INIT c3b38 58 .cfa: sp 0 +
STACK CFI INIT c3b90 60 .cfa: sp 0 +
STACK CFI INIT c3bf0 84 .cfa: sp 0 +
STACK CFI INIT c3c74 2c .cfa: sp 0 +
STACK CFI INIT c3ca0 c8 .cfa: sp 0 +
STACK CFI INIT c3d68 204 .cfa: sp 0 +
STACK CFI INIT c3f6c 60 .cfa: sp 0 +
STACK CFI INIT c3fcc 16c .cfa: sp 0 +
STACK CFI INIT c4138 1dc .cfa: sp 0 +
STACK CFI INIT c4314 9c .cfa: sp 0 +
STACK CFI INIT c43b0 68 .cfa: sp 0 +
STACK CFI INIT c4418 68 .cfa: sp 0 +
STACK CFI INIT c4480 4c .cfa: sp 0 +
STACK CFI INIT c44cc 8c .cfa: sp 0 +
STACK CFI INIT c4558 14 .cfa: sp 0 +
STACK CFI INIT c456c 18 .cfa: sp 0 +
STACK CFI INIT c4584 28 .cfa: sp 0 +
STACK CFI INIT c45ac 30 .cfa: sp 0 +
STACK CFI INIT c45dc 38 .cfa: sp 0 +
STACK CFI INIT c4614 18 .cfa: sp 0 +
STACK CFI INIT c462c 30 .cfa: sp 0 +
STACK CFI INIT c465c 18 .cfa: sp 0 +
STACK CFI INIT c4674 40 .cfa: sp 0 +
STACK CFI INIT c46b4 94 .cfa: sp 0 +
STACK CFI INIT c4748 144 .cfa: sp 0 +
STACK CFI INIT c488c 120 .cfa: sp 0 +
STACK CFI INIT c49ac 48 .cfa: sp 0 +
STACK CFI INIT c49f4 31c .cfa: sp 0 +
STACK CFI INIT c4d10 174 .cfa: sp 0 +
STACK CFI INIT c4e84 cc .cfa: sp 0 +
STACK CFI INIT c4f50 74 .cfa: sp 0 +
STACK CFI INIT c4fc4 190 .cfa: sp 0 +
STACK CFI INIT c5154 f0 .cfa: sp 0 +
STACK CFI INIT c5244 f0 .cfa: sp 0 +
STACK CFI INIT c5334 180 .cfa: sp 0 +
STACK CFI INIT c54b4 9c .cfa: sp 0 +
STACK CFI INIT c5550 20 .cfa: sp 0 +
STACK CFI INIT c5570 80 .cfa: sp 0 +
STACK CFI INIT c55f0 a0 .cfa: sp 0 +
STACK CFI INIT c5690 68 .cfa: sp 0 +
STACK CFI INIT c56f8 14 .cfa: sp 0 +
STACK CFI INIT c570c 18 .cfa: sp 0 +
STACK CFI INIT c5724 18 .cfa: sp 0 +
STACK CFI INIT c573c 38 .cfa: sp 0 +
STACK CFI INIT c5774 18 .cfa: sp 0 +
STACK CFI INIT c578c 30 .cfa: sp 0 +
STACK CFI INIT c57bc 5c .cfa: sp 0 +
STACK CFI INIT c5818 18 .cfa: sp 0 +
STACK CFI INIT c5830 7c .cfa: sp 0 +
STACK CFI INIT c58ac 384 .cfa: sp 0 +
STACK CFI INIT c5c30 10 .cfa: sp 0 +
STACK CFI INIT c5c40 10 .cfa: sp 0 +
STACK CFI INIT c5c50 28 .cfa: sp 0 +
STACK CFI INIT c5c78 68 .cfa: sp 0 +
STACK CFI INIT c5ce0 7c .cfa: sp 0 +
STACK CFI INIT c5d5c 354 .cfa: sp 0 +
STACK CFI INIT c60b0 10 .cfa: sp 0 +
STACK CFI INIT c60c0 10 .cfa: sp 0 +
STACK CFI INIT c60d0 28 .cfa: sp 0 +
STACK CFI INIT c60f8 68 .cfa: sp 0 +
STACK CFI INIT c6160 2d4 .cfa: sp 0 +
STACK CFI INIT c6434 ec .cfa: sp 0 +
STACK CFI INIT c6520 10 .cfa: sp 0 +
STACK CFI INIT c6530 160 .cfa: sp 0 +
STACK CFI INIT c6690 14c .cfa: sp 0 +
STACK CFI INIT c67dc b4 .cfa: sp 0 +
STACK CFI INIT c6890 8c .cfa: sp 0 +
STACK CFI INIT c691c b0 .cfa: sp 0 +
STACK CFI INIT c69cc 20 .cfa: sp 0 +
STACK CFI INIT c69ec 34 .cfa: sp 0 +
STACK CFI INIT c6a20 34 .cfa: sp 0 +
STACK CFI INIT c6a54 e4 .cfa: sp 0 +
STACK CFI INIT c6b38 90 .cfa: sp 0 +
STACK CFI INIT c6bc8 4c .cfa: sp 0 +
STACK CFI INIT c6c14 5c .cfa: sp 0 +
STACK CFI INIT c6c70 138 .cfa: sp 0 +
STACK CFI INIT c6da8 34 .cfa: sp 0 +
STACK CFI INIT c6ddc 70 .cfa: sp 0 +
STACK CFI INIT c6e4c 74 .cfa: sp 0 +
STACK CFI INIT c6ec0 198 .cfa: sp 0 +
STACK CFI INIT c7058 2f0 .cfa: sp 0 +
STACK CFI INIT c7348 3c4 .cfa: sp 0 +
STACK CFI INIT c770c 90 .cfa: sp 0 +
STACK CFI INIT c779c 24 .cfa: sp 0 +
STACK CFI INIT c77c0 10 .cfa: sp 0 +
STACK CFI INIT c77d0 24 .cfa: sp 0 +
STACK CFI INIT c77f4 24 .cfa: sp 0 +
STACK CFI INIT c7818 10 .cfa: sp 0 +
STACK CFI INIT c7828 24 .cfa: sp 0 +
STACK CFI INIT c784c 24 .cfa: sp 0 +
STACK CFI INIT c7870 10 .cfa: sp 0 +
STACK CFI INIT c7880 10 .cfa: sp 0 +
STACK CFI INIT c7890 24 .cfa: sp 0 +
STACK CFI INIT c78b4 10 .cfa: sp 0 +
STACK CFI INIT c78c4 10 .cfa: sp 0 +
STACK CFI INIT c78d4 24 .cfa: sp 0 +
STACK CFI INIT c78f8 ac .cfa: sp 0 +
STACK CFI INIT c79a4 7c .cfa: sp 0 +
STACK CFI INIT c7a20 ec .cfa: sp 0 +
STACK CFI INIT c7b0c 14 .cfa: sp 0 +
STACK CFI INIT c7b20 14 .cfa: sp 0 +
STACK CFI INIT c7b34 40 .cfa: sp 0 +
STACK CFI INIT c7b74 28 .cfa: sp 0 +
STACK CFI INIT c7b9c 28 .cfa: sp 0 +
STACK CFI INIT c7bc4 114 .cfa: sp 0 +
STACK CFI INIT c7cd8 190 .cfa: sp 0 +
STACK CFI INIT c7e68 90 .cfa: sp 0 +
STACK CFI INIT c7ef8 2bc .cfa: sp 0 +
STACK CFI INIT c81b4 8 .cfa: sp 0 +
STACK CFI INIT c81bc 8 .cfa: sp 0 +
STACK CFI INIT c81c4 40 .cfa: sp 0 +
STACK CFI INIT c8204 11c .cfa: sp 0 +
STACK CFI INIT c8320 11c .cfa: sp 0 +
STACK CFI INIT c843c 14 .cfa: sp 0 +
STACK CFI INIT c8450 10 .cfa: sp 0 +
STACK CFI INIT c8460 10 .cfa: sp 0 +
STACK CFI INIT c8470 d8 .cfa: sp 0 +
STACK CFI INIT c8548 44 .cfa: sp 0 +
STACK CFI INIT c858c c .cfa: sp 0 +
STACK CFI INIT c8598 c .cfa: sp 0 +
STACK CFI INIT c85a4 2c .cfa: sp 0 +
STACK CFI INIT c85d0 280 .cfa: sp 0 +
STACK CFI INIT c8850 c .cfa: sp 0 +
STACK CFI INIT c885c 124 .cfa: sp 0 +
STACK CFI INIT c8980 4b0 .cfa: sp 0 +
STACK CFI INIT c8e30 b0c .cfa: sp 0 +
STACK CFI INIT c993c f8 .cfa: sp 0 +
STACK CFI INIT c9a34 1f4 .cfa: sp 0 +
STACK CFI INIT c9c28 308 .cfa: sp 0 +
STACK CFI INIT c9f30 1c8 .cfa: sp 0 +
STACK CFI INIT ca0f8 99c .cfa: sp 0 +
STACK CFI INIT caa94 2e8 .cfa: sp 0 +
STACK CFI INIT cad7c 2d4 .cfa: sp 0 +
STACK CFI INIT cb050 1c8 .cfa: sp 0 +
STACK CFI INIT cb218 1cc .cfa: sp 0 +
STACK CFI INIT cb3e4 e0 .cfa: sp 0 +
STACK CFI INIT cb4c4 30 .cfa: sp 0 +
STACK CFI INIT cb4f4 f8 .cfa: sp 0 +
STACK CFI INIT cb5ec 134 .cfa: sp 0 +
STACK CFI INIT cb720 84 .cfa: sp 0 +
STACK CFI INIT cb7a4 f4 .cfa: sp 0 +
STACK CFI INIT cb898 64 .cfa: sp 0 +
STACK CFI INIT cb8fc 34 .cfa: sp 0 +
STACK CFI INIT cb930 34 .cfa: sp 0 +
STACK CFI INIT cb964 1c .cfa: sp 0 +
STACK CFI INIT cb980 2c .cfa: sp 0 +
STACK CFI INIT cb9ac 8 .cfa: sp 0 +
STACK CFI INIT cb9b4 30 .cfa: sp 0 +
STACK CFI INIT cb9e4 10 .cfa: sp 0 +
STACK CFI INIT cb9f4 60 .cfa: sp 0 +
STACK CFI INIT cba54 44 .cfa: sp 0 +
STACK CFI INIT cba98 44 .cfa: sp 0 +
STACK CFI INIT cbadc 68 .cfa: sp 0 +
STACK CFI INIT cbb44 88 .cfa: sp 0 +
STACK CFI INIT cbbcc 78 .cfa: sp 0 +
STACK CFI INIT cbc44 30 .cfa: sp 0 +
STACK CFI INIT cbc74 40 .cfa: sp 0 +
STACK CFI INIT cbcb4 8 .cfa: sp 0 +
STACK CFI INIT cbcbc 8 .cfa: sp 0 +
STACK CFI INIT cbdf0 1c .cfa: sp 0 +
STACK CFI INIT cbe0c a0 .cfa: sp 0 +
STACK CFI cbe18 .cfa: sp 32 +
STACK CFI cbe70 .cfa: sp 0 +
STACK CFI cbe74 .cfa: sp 32 +
STACK CFI cbe7c .cfa: sp 0 +
STACK CFI cbe80 .cfa: sp 32 +
STACK CFI cbe94 .cfa: sp 0 +
STACK CFI cbe98 .cfa: sp 32 +
STACK CFI cbea8 .cfa: sp 0 +
STACK CFI INIT cbeac 38 .cfa: sp 0 +
STACK CFI cbeb8 .cfa: sp 32 +
STACK CFI cbee0 .cfa: sp 0 +
STACK CFI INIT cbee4 4d0 .cfa: sp 0 +
STACK CFI cbeec .cfa: sp 224 +
STACK CFI cbef8 x19: .cfa -8 + ^ x20: .cfa -16 + ^ x21: .cfa -24 + ^ x22: .cfa -32 + ^ x23: .cfa -48 + ^
STACK CFI cc0c0 .cfa: sp 0 +
STACK CFI cc0c4 .cfa: sp 224 +
STACK CFI cc0f0 .cfa: sp 0 +
STACK CFI cc0f4 .cfa: sp 224 +
STACK CFI cc120 .cfa: sp 0 +
STACK CFI cc124 .cfa: sp 224 +
STACK CFI cc154 .cfa: sp 0 +
STACK CFI cc158 .cfa: sp 224 +
STACK CFI cc24c .cfa: sp 0 +
STACK CFI cc250 .cfa: sp 224 +
STACK CFI cc280 .cfa: sp 0 +
STACK CFI cc284 .cfa: sp 224 +
STACK CFI cc29c .cfa: sp 0 +
STACK CFI cc2a0 .cfa: sp 224 +
STACK CFI cc2b8 .cfa: sp 0 +
STACK CFI cc2bc .cfa: sp 224 +
STACK CFI cc33c .cfa: sp 0 +
STACK CFI cc340 .cfa: sp 224 +
STACK CFI cc358 .cfa: sp 0 +
STACK CFI cc35c .cfa: sp 224 +
STACK CFI INIT cc3c0 34 .cfa: sp 0 +
STACK CFI INIT cc3f4 98 .cfa: sp 0 +
STACK CFI INIT cc48c 594 .cfa: sp 0 +
STACK CFI INIT cca20 90 .cfa: sp 0 +
STACK CFI INIT ccab0 34 .cfa: sp 0 +
STACK CFI INIT ccaf0 34 .cfa: sp 0 +
STACK CFI INIT ccb30 34 .cfa: sp 0 +
STACK CFI INIT ccb70 34 .cfa: sp 0 +
STACK CFI INIT ccbb0 34 .cfa: sp 0 +
STACK CFI INIT ccbf0 34 .cfa: sp 0 +
STACK CFI INIT ccc30 34 .cfa: sp 0 +
STACK CFI INIT ccc70 34 .cfa: sp 0 +
STACK CFI INIT cccb0 2c .cfa: sp 0 +
STACK CFI INIT ccce0 2c .cfa: sp 0 +
STACK CFI INIT ccd10 2c .cfa: sp 0 +
STACK CFI INIT ccd40 2c .cfa: sp 0 +
STACK CFI INIT ccd70 2c .cfa: sp 0 +
STACK CFI INIT ccda0 2c .cfa: sp 0 +
STACK CFI INIT ccdd0 30 .cfa: sp 0 +
STACK CFI INIT cce00 30 .cfa: sp 0 +
STACK CFI INIT cce30 30 .cfa: sp 0 +
STACK CFI INIT cce60 30 .cfa: sp 0 +
STACK CFI INIT cce90 30 .cfa: sp 0 +
STACK CFI INIT ccec0 30 .cfa: sp 0 +
STACK CFI INIT ccef0 30 .cfa: sp 0 +
STACK CFI INIT ccf20 30 .cfa: sp 0 +
